 OPOSCAT

 Timestamp is 600f77bc (Tue Jan 26 11:00:28 2021)

 Preferred load address is 10000000

 Start         Length     Name                   Class
 0001:00000000 00000080H .text$di                CODE
 0001:00000080 0001ebc3H .text$mn                CODE
 0001:0001ec43 0000003aH .text$x                 CODE
 0001:0001ec7d 00000042H .text$yd                CODE
 0002:00000000 000002fcH .idata$5                DATA
 0002:000002fc 00000004H .00cfg                  DATA
 0002:00000300 00000004H .CRT$XCA                DATA
 0002:00000304 00000004H .CRT$XCL                DATA
 0002:00000308 00000010H .CRT$XCU                DATA
 0002:00000318 00000004H .CRT$XCZ                DATA
 0002:0000031c 00000004H .CRT$XIA                DATA
 0002:00000320 00000010H .CRT$XIC                DATA
 0002:00000330 00000004H .CRT$XIZ                DATA
 0002:00000334 00000004H .CRT$XLA                DATA
 0002:00000338 00000004H .CRT$XLZ                DATA
 0002:0000033c 00000004H .CRT$XPA                DATA
 0002:00000340 00000008H .CRT$XPX                DATA
 0002:00000348 00000004H .CRT$XPXA               DATA
 0002:0000034c 00000004H .CRT$XPZ                DATA
 0002:00000350 00000004H .CRT$XTA                DATA
 0002:00000354 0000000cH .CRT$XTZ                DATA
 0002:00000358 00000000H .gfids$y                DATA
 0002:00000360 00007460H .rdata                  DATA
 0002:000077c0 00000000H .rdata$CastGuardVftablesA DATA
 0002:000077c0 00000000H .rdata$CastGuardVftablesC DATA
 0002:000077c0 00000018H .rdata$T                DATA
 0002:000077d8 00000178H .rdata$r                DATA
 0002:00007950 0000001cH .rdata$sxdata           DATA
 0002:0000796c 000003d8H .rdata$zzzdbg           DATA
 0002:00007d44 00000004H .rtc$IAA                DATA
 0002:00007d48 00000004H .rtc$IZZ                DATA
 0002:00007d4c 00000004H .rtc$TAA                DATA
 0002:00007d50 00000004H .rtc$TZZ                DATA
 0002:00007d54 00000004H .tls                    DATA
 0002:00007d58 00000004H .tls$                   DATA
 0002:00007d5c 00000004H .tls$ZZZ                DATA
 0002:00007d60 0000062cH .xdata$x                DATA
 0002:0000838c 00000004H ATL$__a                 DATA
 0002:00008390 00000010H ATL$__z                 DATA
 0002:000083a0 000000a4H .edata                  DATA
 0002:00008444 00000078H .idata$2                DATA
 0002:000084bc 00000014H .idata$3                DATA
 0002:000084d0 000002fcH .idata$4                DATA
 0002:000087cc 00000bceH .idata$6                DATA
 0003:00000000 00000ac0H .data                   DATA
 0003:00000ac0 00000098H .data$r                 DATA
 0003:00000b58 00000b88H .bss                    DATA
 0004:00000000 00000220H .rsrc$01                DATA
 0004:00000220 000051d0H .rsrc$02                DATA

  Address         Publics by Value              Rva+Base       Lib:Object

 0000:00000000       ___guard_fids_count        00000000     <absolute>
 0000:00000000       ___guard_longjmp_table     00000000     <absolute>
 0000:00000000       ___volatile_metadata       00000000     <absolute>
 0000:00000000       ___arm64x_extra_rfe_table  00000000     <absolute>
 0000:00000000       ___guard_eh_cont_table     00000000     <absolute>
 0000:00000000       ___arm64x_redirection_metadata 00000000     <absolute>
 0000:00000000       ___guard_eh_cont_count     00000000     <absolute>
 0000:00000000       ___guard_iat_count         00000000     <absolute>
 0000:00000000       __except_list              00000000     <absolute>
 0000:00000000       ___hybrid_code_map_count   00000000     <absolute>
 0000:00000000       ___x64_code_ranges_to_entry_points_count 00000000     <absolute>
 0000:00000000       ___x64_code_ranges_to_entry_points 00000000     <absolute>
 0000:00000000       ___guard_iat_table         00000000     <absolute>
 0000:00000000       ___arm64x_native_entrypoint 00000000     <absolute>
 0000:00000000       ___hybrid_code_map         00000000     <absolute>
 0000:00000000       ___arm64x_extra_rfe_table_size 00000000     <absolute>
 0000:00000000       ___guard_longjmp_count     00000000     <absolute>
 0000:00000000       ___arm64x_redirection_metadata_count 00000000     <absolute>
 0000:00000000       ___hybrid_auxiliary_iat    00000000     <absolute>
 0000:00000000       ___dynamic_value_reloc_table 00000000     <absolute>
 0000:00000000       ___AbsoluteZero            00000000     <absolute>
 0000:00000000       ___enclave_config          00000000     <absolute>
 0000:00000000       ___guard_fids_table        00000000     <absolute>
 0000:00000007       ___safe_se_handler_count   00000007     <absolute>
 0000:0000002c       __tls_array                0000002c     <absolute>
 0000:00000100       ___guard_flags             00000100     <absolute>
 0000:00000000       ___ImageBase               10000000     <linker-defined>
 0001:00000080       ?DupWide@_CW@@AAEXXZ       10001080 f   CWString.obj
 0001:0000009c       ?cw_dup@@YGXPBDAAHAAPA_W1@Z 1000109c f   CWString.obj
 0001:00000124       ?cw_memcpy@@YGHPA_WPBDH@Z  10001124 f   CWString.obj
 0001:00000150       ?cw_strcpy@@YAHPA_WPBD@Z   10001150 f   CWString.obj
 0001:00000163       ?cw_strlen@@YAHPBD@Z       10001163 f   CWString.obj
 0001:0000017c       ??0CAtlComModule@ATL@@QAE@XZ 1000117c f i OposVariant.obj
 0001:000001c1       ??0CAtlWinModule@ATL@@QAE@XZ 100011c1 f i OposVariant.obj
 0001:000001f8       ??0OposDispParms@@QAE@PAVOposVariant@@H@Z 100011f8 f   OposVariant.obj
 0001:00000269       ??1OposDispParms@@QAE@XZ   10001269 f   OposVariant.obj
 0001:00000277       ??A?$CSimpleArray@GV?$CSimpleArrayEqualHelper@G@ATL@@@ATL@@QAEAAGH@Z 10001277 f i OposVariant.obj
 0001:0000029c       ??_Estringdispid@CComTypeInfoHolder@ATL@@QAEPAXI@Z 1000129c f i OposVariant.obj
 0001:00000308       ?AtlWinModuleInit@ATL@@YGJPAU_ATL_WIN_MODULE70@1@@Z 10001308 f i OposVariant.obj
 0001:0000032e       ?AtlWinModuleTerm@ATL@@YGJPAU_ATL_WIN_MODULE70@1@PAUHINSTANCE__@@@Z 1000132e f i OposVariant.obj
 0001:00000391       ?ChangeBSTR@OposVariant@@QAEXPAPA_WAAJ@Z 10001391 f   OposVariant.obj
 0001:000003d2       ?ChangeCURRENCY@OposVariant@@QAEXPATtagCY@@AAJ@Z 100013d2 f   OposVariant.obj
 0001:00000421       ?ChangeLONG@OposVariant@@QAEXPAJAAJ@Z 10001421 f   OposVariant.obj
 0001:00000462       ?GetLONG@OposVariant@@QAEJXZ 10001462 f   OposVariant.obj
 0001:0000047d       ?Init@CComCriticalSection@ATL@@QAEJXZ 1000147d f i OposVariant.obj
 0001:000004a5       ?RemoveAll@?$CSimpleArray@PAUHINSTANCE__@@V?$CSimpleArrayEqualHelper@PAUHINSTANCE__@@@ATL@@@ATL@@QAEXXZ 100014a5 f i atls:atlbase.obj
 0001:000004a5       ?RemoveAll@?$CSimpleArray@GV?$CSimpleArrayEqualHelper@G@ATL@@@ATL@@QAEXXZ 100014a5 f i OposVariant.obj
 0001:000004c2       ?SetBSTR@OposVariant@@QAEXPA_WAAJ@Z 100014c2 f   OposVariant.obj
 0001:000004f6       ?SetBSTR_Copy@OposVariant@@QAEXPA_WAAJ@Z 100014f6 f   OposVariant.obj
 0001:00000546       ?SetBSTR_InOutPtr@OposVariant@@QAE_NPAPA_WAAJ@Z 10001546 f   OposVariant.obj
 0001:0000057d       ?SetCURRENCY@OposVariant@@QAEXTtagCY@@@Z 1000157d f   OposVariant.obj
 0001:000005a5       ?SetDispatch_Ptr@OposVariant@@QAEXPAUIDispatch@@AAJ@Z 100015a5 f   OposVariant.obj
 0001:000005e0       ?SetLONG@OposVariant@@QAEXJ@Z 100015e0 f   OposVariant.obj
 0001:00000602       ?SetLONG_Ptr@OposVariant@@QAEXPAJAAJ@Z 10001602 f   OposVariant.obj
 0001:00000635       ?SetString@OposVariant@@QAEXPB_WAAJ@Z 10001635 f   OposVariant.obj
 0001:0000067b       ?SetVARIANT_BOOL@OposVariant@@QAEXF@Z 1000167b f   OposVariant.obj
 0001:000006a5       ?Term@CAtlComModule@ATL@@QAEXXZ 100016a5 f i OposVariant.obj
 0001:000006ef       ?_AtlRaiseException@ATL@@YAXKK@Z 100016ef f i OposVariant.obj
 0001:00000704       ??_E?$CComObject@VCOPOSCAT@@@ATL@@W3AEPAXI@Z 10001704 f i CAT.obj
 0001:0000070c       ??_E?$CComObject@VCOPOSCAT@@@ATL@@WEM@AEPAXI@Z 1000170c f i CAT.obj
 0001:00000714       ?QueryInterface@?$CComObject@VCOPOSCAT@@@ATL@@WHA@AGJABU_GUID@@PAPAX@Z 10001714 f i CAT.obj
 0001:0000071e       ?AddRef@?$CComObject@VCOPOSCAT@@@ATL@@WHA@AGKXZ 1000171e f i CAT.obj
 0001:00000728       ?Release@?$CComObject@VCOPOSCAT@@@ATL@@WHA@AGKXZ 10001728 f i CAT.obj
 0001:00000732       ?QueryInterface@?$CComObject@VCOPOSCAT@@@ATL@@WHE@AGJABU_GUID@@PAPAX@Z 10001732 f i CAT.obj
 0001:0000073c       ?AddRef@?$CComObject@VCOPOSCAT@@@ATL@@WHE@AGKXZ 1000173c f i CAT.obj
 0001:00000746       ?Release@?$CComObject@VCOPOSCAT@@@ATL@@WHE@AGKXZ 10001746 f i CAT.obj
 0001:00000750       ?QueryInterface@?$CComObject@VCOPOSCAT@@@ATL@@WHI@AGJABU_GUID@@PAPAX@Z 10001750 f i CAT.obj
 0001:0000075a       ?AddRef@?$CComObject@VCOPOSCAT@@@ATL@@WHI@AGKXZ 1000175a f i CAT.obj
 0001:00000764       ?Release@?$CComObject@VCOPOSCAT@@@ATL@@WHI@AGKXZ 10001764 f i CAT.obj
 0001:0000076e       ?QueryInterface@?$CComObject@VCOPOSCAT@@@ATL@@WHM@AGJABU_GUID@@PAPAX@Z 1000176e f i CAT.obj
 0001:00000778       ?AddRef@?$CComObject@VCOPOSCAT@@@ATL@@WHM@AGKXZ 10001778 f i CAT.obj
 0001:00000782       ?Release@?$CComObject@VCOPOSCAT@@@ATL@@WHM@AGKXZ 10001782 f i CAT.obj
 0001:0000078c       ?QueryInterface@?$CComObject@VCOPOSCAT@@@ATL@@WIA@AGJABU_GUID@@PAPAX@Z 1000178c f i CAT.obj
 0001:00000799       ?AddRef@?$CComObject@VCOPOSCAT@@@ATL@@WIA@AGKXZ 10001799 f i CAT.obj
 0001:000007a6       ?Release@?$CComObject@VCOPOSCAT@@@ATL@@WIA@AGKXZ 100017a6 f i CAT.obj
 0001:000007b3       ?QueryInterface@?$CComObject@VCOPOSCAT@@@ATL@@WIE@AGJABU_GUID@@PAPAX@Z 100017b3 f i CAT.obj
 0001:000007c0       ?AddRef@?$CComObject@VCOPOSCAT@@@ATL@@WIE@AGKXZ 100017c0 f i CAT.obj
 0001:000007cd       ?Release@?$CComObject@VCOPOSCAT@@@ATL@@WIE@AGKXZ 100017cd f i CAT.obj
 0001:000007da       ?QueryInterface@?$CComObject@VCOPOSCAT@@@ATL@@WII@AGJABU_GUID@@PAPAX@Z 100017da f i CAT.obj
 0001:000007e7       ?AddRef@?$CComObject@VCOPOSCAT@@@ATL@@WII@AGKXZ 100017e7 f i CAT.obj
 0001:000007f4       ?Release@?$CComObject@VCOPOSCAT@@@ATL@@WII@AGKXZ 100017f4 f i CAT.obj
 0001:00000801       ?QueryInterface@?$CComObject@VCOPOSCAT@@@ATL@@WIM@AGJABU_GUID@@PAPAX@Z 10001801 f i CAT.obj
 0001:0000080e       ?AddRef@?$CComObject@VCOPOSCAT@@@ATL@@WIM@AGKXZ 1000180e f i CAT.obj
 0001:0000081b       ?Release@?$CComObject@VCOPOSCAT@@@ATL@@WIM@AGKXZ 1000181b f i CAT.obj
 0001:00000828       ?QueryInterface@?$CComObject@VCOPOSCAT@@@ATL@@WJA@AGJABU_GUID@@PAPAX@Z 10001828 f i CAT.obj
 0001:00000835       ?AddRef@?$CComObject@VCOPOSCAT@@@ATL@@WJA@AGKXZ 10001835 f i CAT.obj
 0001:00000842       ?CreateInstance@CComClassFactory@ATL@@UAGJPAUIUnknown@@ABU_GUID@@PAPAX@Z 10001842 f i CAT.obj
 0001:00000880       ?Release@?$CComObject@VCOPOSCAT@@@ATL@@WJA@AGKXZ 10001880 f i CAT.obj
 0001:0000088d       ?QueryInterface@?$CComObject@VCOPOSCAT@@@ATL@@WJE@AGJABU_GUID@@PAPAX@Z 1000188d f i CAT.obj
 0001:0000089a       ?LockServer@CComClassFactory@ATL@@UAGJH@Z 1000189a f i CAT.obj
 0001:000008b9       ?AddRef@?$CComObject@VCOPOSCAT@@@ATL@@WJE@AGKXZ 100018b9 f i CAT.obj
 0001:000008c6       ?Release@?$CComObject@VCOPOSCAT@@@ATL@@WJE@AGKXZ 100018c6 f i CAT.obj
 0001:000008d3       ?QueryInterface@?$CComObject@VCOPOSCAT@@@ATL@@WJI@AGJABU_GUID@@PAPAX@Z 100018d3 f i CAT.obj
 0001:000008e0       ?AddRef@?$CComObject@VCOPOSCAT@@@ATL@@WJI@AGKXZ 100018e0 f i CAT.obj
 0001:000008ed       ?Release@?$CComObject@VCOPOSCAT@@@ATL@@WJI@AGKXZ 100018ed f i CAT.obj
 0001:000008fa       ?QueryInterface@?$CComObject@VCOPOSCAT@@@ATL@@WJM@AGJABU_GUID@@PAPAX@Z 100018fa f i CAT.obj
 0001:00000907       ?AddRef@?$CComObject@VCOPOSCAT@@@ATL@@WJM@AGKXZ 10001907 f i CAT.obj
 0001:00000914       ?Release@?$CComObject@VCOPOSCAT@@@ATL@@WJM@AGKXZ 10001914 f i CAT.obj
 0001:00000921       ?QueryInterface@?$CComObject@VCOPOSCAT@@@ATL@@WKA@AGJABU_GUID@@PAPAX@Z 10001921 f i CAT.obj
 0001:0000092e       ?AddRef@?$CComObject@VCOPOSCAT@@@ATL@@WKA@AGKXZ 1000192e f i CAT.obj
 0001:0000093b       ?Release@?$CComObject@VCOPOSCAT@@@ATL@@WKA@AGKXZ 1000193b f i CAT.obj
 0001:00000948       ?AddRef@?$CComObject@VCOPOSCAT@@@ATL@@WKI@AGKXZ 10001948 f i CAT.obj
 0001:00000955       ?Release@?$CComObject@VCOPOSCAT@@@ATL@@WKI@AGKXZ 10001955 f i CAT.obj
 0001:00000962       ??_ECComClassFactory@ATL@@UAEPAXI@Z 10001962 f i CAT.obj
 0001:00000962       ??_GCComClassFactory@ATL@@UAEPAXI@Z 10001962 f i CAT.obj
 0001:0000098d       ?AddRef@?$CComObject@VCOPOSCAT@@@ATL@@WLE@AGKXZ 1000198d f i CAT.obj
 0001:0000099a       ?Release@?$CComObject@VCOPOSCAT@@@ATL@@WLE@AGKXZ 1000199a f i CAT.obj
 0001:000009a7       ??_E?$CComContainedObject@VCOPOSCAT@@@ATL@@W3AEPAXI@Z 100019a7 f i CAT.obj
 0001:000009af       ??_E?$CComContainedObject@VCOPOSCAT@@@ATL@@WEM@AEPAXI@Z 100019af f i CAT.obj
 0001:000009b7       ?QueryInterface@?$CComContainedObject@VCOPOSCAT@@@ATL@@WHA@AGJABU_GUID@@PAPAX@Z 100019b7 f i CAT.obj
 0001:000009c1       ?AddRef@?$CComContainedObject@VCOPOSCAT@@@ATL@@WHA@AGKXZ 100019c1 f i CAT.obj
 0001:000009cb       ?Release@?$CComContainedObject@VCOPOSCAT@@@ATL@@WHA@AGKXZ 100019cb f i CAT.obj
 0001:000009d5       ?QueryInterface@?$CComContainedObject@VCOPOSCAT@@@ATL@@WHE@AGJABU_GUID@@PAPAX@Z 100019d5 f i CAT.obj
 0001:000009df       ?AddRef@?$CComContainedObject@VCOPOSCAT@@@ATL@@WHE@AGKXZ 100019df f i CAT.obj
 0001:000009e9       ?Release@?$CComContainedObject@VCOPOSCAT@@@ATL@@WHE@AGKXZ 100019e9 f i CAT.obj
 0001:000009f3       ?QueryInterface@?$CComContainedObject@VCOPOSCAT@@@ATL@@WHI@AGJABU_GUID@@PAPAX@Z 100019f3 f i CAT.obj
 0001:000009fd       ?AddRef@?$CComContainedObject@VCOPOSCAT@@@ATL@@WHI@AGKXZ 100019fd f i CAT.obj
 0001:00000a07       ?Release@?$CComContainedObject@VCOPOSCAT@@@ATL@@WHI@AGKXZ 10001a07 f i CAT.obj
 0001:00000a11       ?QueryInterface@?$CComContainedObject@VCOPOSCAT@@@ATL@@WHM@AGJABU_GUID@@PAPAX@Z 10001a11 f i CAT.obj
 0001:00000a1b       ?AddRef@?$CComContainedObject@VCOPOSCAT@@@ATL@@WHM@AGKXZ 10001a1b f i CAT.obj
 0001:00000a25       ?Release@?$CComContainedObject@VCOPOSCAT@@@ATL@@WHM@AGKXZ 10001a25 f i CAT.obj
 0001:00000a2f       ?QueryInterface@?$CComContainedObject@VCOPOSCAT@@@ATL@@WIA@AGJABU_GUID@@PAPAX@Z 10001a2f f i CAT.obj
 0001:00000a3c       ?AddRef@?$CComContainedObject@VCOPOSCAT@@@ATL@@WIA@AGKXZ 10001a3c f i CAT.obj
 0001:00000a49       ?Release@?$CComContainedObject@VCOPOSCAT@@@ATL@@WIA@AGKXZ 10001a49 f i CAT.obj
 0001:00000a56       ?QueryInterface@?$CComContainedObject@VCOPOSCAT@@@ATL@@WIE@AGJABU_GUID@@PAPAX@Z 10001a56 f i CAT.obj
 0001:00000a63       ?AddRef@?$CComContainedObject@VCOPOSCAT@@@ATL@@WIE@AGKXZ 10001a63 f i CAT.obj
 0001:00000a70       ?Release@?$CComContainedObject@VCOPOSCAT@@@ATL@@WIE@AGKXZ 10001a70 f i CAT.obj
 0001:00000a7d       ?QueryInterface@?$CComContainedObject@VCOPOSCAT@@@ATL@@WII@AGJABU_GUID@@PAPAX@Z 10001a7d f i CAT.obj
 0001:00000a8a       ?AddRef@?$CComContainedObject@VCOPOSCAT@@@ATL@@WII@AGKXZ 10001a8a f i CAT.obj
 0001:00000a97       ?Release@?$CComContainedObject@VCOPOSCAT@@@ATL@@WII@AGKXZ 10001a97 f i CAT.obj
 0001:00000aa4       ?QueryInterface@?$CComContainedObject@VCOPOSCAT@@@ATL@@WIM@AGJABU_GUID@@PAPAX@Z 10001aa4 f i CAT.obj
 0001:00000ab1       ?AddRef@?$CComContainedObject@VCOPOSCAT@@@ATL@@WIM@AGKXZ 10001ab1 f i CAT.obj
 0001:00000abe       ?Release@?$CComContainedObject@VCOPOSCAT@@@ATL@@WIM@AGKXZ 10001abe f i CAT.obj
 0001:00000acb       ?QueryInterface@?$CComContainedObject@VCOPOSCAT@@@ATL@@WJA@AGJABU_GUID@@PAPAX@Z 10001acb f i CAT.obj
 0001:00000ad8       ?AddRef@?$CComContainedObject@VCOPOSCAT@@@ATL@@WJA@AGKXZ 10001ad8 f i CAT.obj
 0001:00000ae5       ?Release@?$CComContainedObject@VCOPOSCAT@@@ATL@@WJA@AGKXZ 10001ae5 f i CAT.obj
 0001:00000af2       ?QueryInterface@?$CComContainedObject@VCOPOSCAT@@@ATL@@WJE@AGJABU_GUID@@PAPAX@Z 10001af2 f i CAT.obj
 0001:00000aff       ?AddRef@?$CComContainedObject@VCOPOSCAT@@@ATL@@WJE@AGKXZ 10001aff f i CAT.obj
 0001:00000b0c       ?Release@?$CComContainedObject@VCOPOSCAT@@@ATL@@WJE@AGKXZ 10001b0c f i CAT.obj
 0001:00000b19       ?QueryInterface@?$CComContainedObject@VCOPOSCAT@@@ATL@@WJI@AGJABU_GUID@@PAPAX@Z 10001b19 f i CAT.obj
 0001:00000b26       ?AddRef@?$CComContainedObject@VCOPOSCAT@@@ATL@@WJI@AGKXZ 10001b26 f i CAT.obj
 0001:00000b33       ?Release@?$CComContainedObject@VCOPOSCAT@@@ATL@@WJI@AGKXZ 10001b33 f i CAT.obj
 0001:00000b40       ?QueryInterface@?$CComContainedObject@VCOPOSCAT@@@ATL@@WJM@AGJABU_GUID@@PAPAX@Z 10001b40 f i CAT.obj
 0001:00000b4d       ?AddRef@?$CComContainedObject@VCOPOSCAT@@@ATL@@WJM@AGKXZ 10001b4d f i CAT.obj
 0001:00000b5a       ?Release@?$CComContainedObject@VCOPOSCAT@@@ATL@@WJM@AGKXZ 10001b5a f i CAT.obj
 0001:00000b67       ?QueryInterface@?$CComContainedObject@VCOPOSCAT@@@ATL@@WKA@AGJABU_GUID@@PAPAX@Z 10001b67 f i CAT.obj
 0001:00000b74       ?AddRef@?$CComContainedObject@VCOPOSCAT@@@ATL@@WKA@AGKXZ 10001b74 f i CAT.obj
 0001:00000b81       ?Release@?$CComContainedObject@VCOPOSCAT@@@ATL@@WKA@AGKXZ 10001b81 f i CAT.obj
 0001:00000b8e       ?AddRef@?$CComContainedObject@VCOPOSCAT@@@ATL@@WKI@AGKXZ 10001b8e f i CAT.obj
 0001:00000b9b       ?Release@?$CComContainedObject@VCOPOSCAT@@@ATL@@WKI@AGKXZ 10001b9b f i CAT.obj
 0001:00000ba8       ?AddRef@?$CComContainedObject@VCOPOSCAT@@@ATL@@WLE@AGKXZ 10001ba8 f i CAT.obj
 0001:00000bb5       ?Release@?$CComContainedObject@VCOPOSCAT@@@ATL@@WLE@AGKXZ 10001bb5 f i CAT.obj
 0001:00000bc2       ?GetWindowProc@?$CWindowImplBaseT@VCWindow@ATL@@V?$CWinTraits@$0FGAAAAAA@$0A@@2@@ATL@@UAEP6GJPAUHWND__@@IIJ@ZXZ 10001bc2 f i CAT.obj
 0001:00000bc8       ?StartWindowProc@?$CWindowImplBaseT@VCWindow@ATL@@V?$CWinTraits@$0FGAAAAAA@$0A@@2@@ATL@@SGJPAUHWND__@@IIJ@Z 10001bc8 f i CAT.obj
 0001:00000c1c       ?ObjectMain@CComObjectRootBase@ATL@@SGX_N@Z 10001c1c f i CAT.obj
 0001:00000c1c       ?OnFinalMessage@?$CWindowImplBaseT@VCWindow@ATL@@V?$CWinTraits@$0FGAAAAAA@$0A@@2@@ATL@@UAEXPAUHWND__@@@Z 10001c1c f i CAT.obj
 0001:00000c1f       ?GetTypeInfoCount@?$IDispatchImpl@UIOPOSCAT@@$1?IID_IOPOSCAT@@3U_GUID@@B$1?LIBID_OposCAT_CCO@@3U3@B$00$0A@VCComTypeInfoHolder@ATL@@@ATL@@UAGJPAI@Z 10001c1f f i CAT.obj
 0001:00000c3c       ?GetTypeInfo@?$IDispatchImpl@UIOPOSCAT@@$1?IID_IOPOSCAT@@3U_GUID@@B$1?LIBID_OposCAT_CCO@@3U3@B$00$0A@VCComTypeInfoHolder@ATL@@@ATL@@UAGJIKPAPAUITypeInfo@@@Z 10001c3c f i CAT.obj
 0001:00000c60       ?GetIDsOfNames@?$IDispatchImpl@UIOPOSCAT@@$1?IID_IOPOSCAT@@3U_GUID@@B$1?LIBID_OposCAT_CCO@@3U3@B$00$0A@VCComTypeInfoHolder@ATL@@@ATL@@UAGJABU_GUID@@PAPA_WIKPAJ@Z 10001c60 f i CAT.obj
 0001:00000c80       ?Invoke@?$IDispatchImpl@UIOPOSCAT@@$1?IID_IOPOSCAT@@3U_GUID@@B$1?LIBID_OposCAT_CCO@@3U3@B$00$0A@VCComTypeInfoHolder@ATL@@@ATL@@UAGJJABU_GUID@@KGPAUtagDISPPARAMS@@PAUtagVARIANT@@PAUtagEXCEPINFO@@PAI@Z 10001c80 f i CAT.obj
 0001:00000c8e       ?CreateControlWindow@?$CComControl@VCOPOSCAT@@V?$CWindowImpl@VCOPOSCAT@@VCWindow@ATL@@V?$CWinTraits@$0FGAAAAAA@$0A@@3@@ATL@@@ATL@@UAEPAUHWND__@@PAU3@AAUtagRECT@@@Z 10001c8e f i CAT.obj
 0001:00000cbd       ?ControlQueryInterface@?$CComControl@VCOPOSCAT@@V?$CWindowImpl@VCOPOSCAT@@VCWindow@ATL@@V?$CWinTraits@$0FGAAAAAA@$0A@@3@@ATL@@@ATL@@UAEJABU_GUID@@PAPAX@Z 10001cbd f i CAT.obj
 0001:00000cd8       ?GetClassID@?$IPersistStorageImpl@VCOPOSCAT@@@ATL@@UAGJPAU_GUID@@@Z 10001cd8 f i CAT.obj
 0001:00000cd8       ?GetClassID@?$IPersistStreamInitImpl@VCOPOSCAT@@@ATL@@UAGJPAU_GUID@@@Z 10001cd8 f i CAT.obj
 0001:00000cd8       ?GetUserClassID@?$IOleObjectImpl@VCOPOSCAT@@@ATL@@UAGJPAU_GUID@@@Z 10001cd8 f i CAT.obj
 0001:00000cfc       ?IsDirty@?$IPersistStreamInitImpl@VCOPOSCAT@@@ATL@@UAGJXZ 10001cfc f i CAT.obj
 0001:00000d1b       ?Load@?$IPersistStreamInitImpl@VCOPOSCAT@@@ATL@@UAGJPAUIStream@@@Z 10001d1b f i CAT.obj
 0001:00000d3a       ?Save@?$IPersistStreamInitImpl@VCOPOSCAT@@@ATL@@UAGJPAUIStream@@H@Z 10001d3a f i CAT.obj
 0001:00000d5c       ?GetSizeMax@?$IPersistStreamInitImpl@VCOPOSCAT@@@ATL@@UAGJPAT_ULARGE_INTEGER@@@Z 10001d5c f i CAT.obj
 0001:00000f3b       ?InitNew@?$IPersistStreamInitImpl@VCOPOSCAT@@@ATL@@UAGJXZ 10001f3b f i CAT.obj
 0001:00000f58       ?QueryGetData@?$IDataObjectImpl@VCOPOSCAT@@@ATL@@UAGJPAUtagFORMATETC@@@Z 10001f58 f i CAT.obj
 0001:00000f58       ?SODataDummy@COPOSCAT@@MAGJJ@Z 10001f58 f i CAT.obj
 0001:00000f58       ?OnMnemonic@?$IOleControlImpl@VCOPOSCAT@@@ATL@@UAGJPAUtagMSG@@@Z 10001f58 f i CAT.obj
 0001:00000f58       ?ContextSensitiveHelp@?$IOleInPlaceObjectWindowlessImpl@VCOPOSCAT@@@ATL@@UAGJH@Z 10001f58 f i CAT.obj
 0001:00000f58       ?GetControlInfo@?$IOleControlImpl@VCOPOSCAT@@@ATL@@UAGJPAUtagCONTROLINFO@@@Z 10001f58 f i CAT.obj
 0001:00000f58       ?GetDropTarget@?$IOleInPlaceObjectWindowlessImpl@VCOPOSCAT@@@ATL@@UAGJPAPAUIDropTarget@@@Z 10001f58 f i CAT.obj
 0001:00000f58       ?Unfreeze@?$IViewObjectExImpl@VCOPOSCAT@@@ATL@@UAGJK@Z 10001f58 f i CAT.obj
 0001:00000f58       ?ContextSensitiveHelp@?$IOleInPlaceActiveObjectImpl@VCOPOSCAT@@@ATL@@UAGJH@Z 10001f58 f i CAT.obj
 0001:00000f58       ?SetColorScheme@?$IOleObjectImpl@VCOPOSCAT@@@ATL@@UAGJPAUtagLOGPALETTE@@@Z 10001f58 f i CAT.obj
 0001:00000f60       ?OnAmbientPropertyChange@?$IOleControlImpl@VCOPOSCAT@@@ATL@@UAGJJ@Z 10001f60 f i CAT.obj
 0001:00000f60       ?SaveCompleted@?$IPersistStorageImpl@VCOPOSCAT@@@ATL@@UAGJPAUIStorage@@@Z 10001f60 f i CAT.obj
 0001:00000f60       ?EnableModeless@?$IOleInPlaceActiveObjectImpl@VCOPOSCAT@@@ATL@@UAGJH@Z 10001f60 f i CAT.obj
 0001:00000f60       ?OnFrameWindowActivate@?$IOleInPlaceActiveObjectImpl@VCOPOSCAT@@@ATL@@UAGJH@Z 10001f60 f i CAT.obj
 0001:00000f65       ?SetClientSite@?$IOleObjectImpl@VCOPOSCAT@@@ATL@@UAGJPAUIOleClientSite@@@Z 10001f65 f i CAT.obj
 0001:00000f82       ?GetClientSite@?$IOleObjectImpl@VCOPOSCAT@@@ATL@@UAGJPAPAUIOleClientSite@@@Z 10001f82 f i CAT.obj
 0001:00000f9f       ?SetHostNames@?$IOleObjectImpl@VCOPOSCAT@@@ATL@@UAGJPB_W0@Z 10001f9f f i CAT.obj
 0001:00000fa4       ?Close@?$IOleObjectImpl@VCOPOSCAT@@@ATL@@UAGJK@Z 10001fa4 f i CAT.obj
 0001:00000fc1       ?SetMoniker@?$IOleObjectImpl@VCOPOSCAT@@@ATL@@UAGJKPAUIMoniker@@@Z 10001fc1 f i CAT.obj
 0001:00000fc1       ?GetDataHere@?$IDataObjectImpl@VCOPOSCAT@@@ATL@@UAGJPAUtagFORMATETC@@PAUtagSTGMEDIUM@@@Z 10001fc1 f i CAT.obj
 0001:00000fc1       ?GetClipboardData@?$IOleObjectImpl@VCOPOSCAT@@@ATL@@UAGJKPAPAUIDataObject@@@Z 10001fc1 f i CAT.obj
 0001:00000fc1       ?QueryInterface@CRegObject@ATL@@UAGJABU_GUID@@PAPAX@Z 10001fc1 f i CAT.obj
 0001:00000fc1       ?GetCanonicalFormatEtc@?$IDataObjectImpl@VCOPOSCAT@@@ATL@@UAGJPAUtagFORMATETC@@0@Z 10001fc1 f i CAT.obj
 0001:00000fc1       ?GetRect@?$IViewObjectExImpl@VCOPOSCAT@@@ATL@@UAGJKPAU_RECTL@@@Z 10001fc1 f i CAT.obj
 0001:00000fc1       ?EnumFormatEtc@?$IDataObjectImpl@VCOPOSCAT@@@ATL@@UAGJKPAPAUIEnumFORMATETC@@@Z 10001fc1 f i CAT.obj
 0001:00000fc9       ?SetData@?$IDataObjectImpl@VCOPOSCAT@@@ATL@@UAGJPAUtagFORMATETC@@PAUtagSTGMEDIUM@@H@Z 10001fc9 f i CAT.obj
 0001:00000fc9       ?GetMoniker@?$IOleObjectImpl@VCOPOSCAT@@@ATL@@UAGJKKPAPAUIMoniker@@@Z 10001fc9 f i CAT.obj
 0001:00000fc9       ?InitFromData@?$IOleObjectImpl@VCOPOSCAT@@@ATL@@UAGJPAUIDataObject@@HK@Z 10001fc9 f i CAT.obj
 0001:00000fd1       ?DoVerb@?$IOleObjectImpl@VCOPOSCAT@@@ATL@@UAGJJPAUtagMSG@@PAUIOleClientSite@@JPAUHWND__@@PBUtagRECT@@@Z 10001fd1 f i CAT.obj
 0001:000010c5       ?EnumVerbs@?$IOleObjectImpl@VCOPOSCAT@@@ATL@@UAGJPAPAUIEnumOLEVERB@@@Z 100020c5 f i CAT.obj
 0001:000010e7       ?Release@CRegObject@ATL@@UAGKXZ 100020e7 f i CAT.obj
 0001:000010e7       ?HandsOffStorage@?$IPersistStorageImpl@VCOPOSCAT@@@ATL@@UAGJXZ 100020e7 f i CAT.obj
 0001:000010e7       ?Update@?$IOleObjectImpl@VCOPOSCAT@@@ATL@@UAGJXZ 100020e7 f i CAT.obj
 0001:000010e7       ?IsUpToDate@?$IOleObjectImpl@VCOPOSCAT@@@ATL@@UAGJXZ 100020e7 f i CAT.obj
 0001:000010ec       ?GetUserType@?$IOleObjectImpl@VCOPOSCAT@@@ATL@@UAGJKPAPA_W@Z 100020ec f i CAT.obj
 0001:00001104       ?SetExtent@?$IOleObjectImpl@VCOPOSCAT@@@ATL@@UAGJKPAUtagSIZE@@@Z 10002104 f i CAT.obj
 0001:00001124       ?GetExtent@?$IOleObjectImpl@VCOPOSCAT@@@ATL@@UAGJKPAUtagSIZE@@@Z 10002124 f i CAT.obj
 0001:00001162       ?Advise@?$IOleObjectImpl@VCOPOSCAT@@@ATL@@UAGJPAUIAdviseSink@@PAK@Z 10002162 f i CAT.obj
 0001:00001182       ?Unadvise@?$IOleObjectImpl@VCOPOSCAT@@@ATL@@UAGJK@Z 10002182 f i CAT.obj
 0001:000011b1       ?EnumAdvise@?$IOleObjectImpl@VCOPOSCAT@@@ATL@@UAGJPAPAUIEnumSTATDATA@@@Z 100021b1 f i CAT.obj
 0001:000011f1       ?GetMiscStatus@?$IOleObjectImpl@VCOPOSCAT@@@ATL@@UAGJKPAK@Z 100021f1 f i CAT.obj
 0001:00001209       ?GetWindow@?$IOleInPlaceActiveObjectImpl@VCOPOSCAT@@@ATL@@UAGJPAPAUHWND__@@@Z 10002209 f i CAT.obj
 0001:00001256       ?TranslateAcceleratorW@?$IOleInPlaceActiveObjectImpl@VCOPOSCAT@@@ATL@@UAGJPAUtagMSG@@@Z 10002256 f i CAT.obj
 0001:00001304       ?OnDocWindowActivate@?$IOleInPlaceActiveObjectImpl@VCOPOSCAT@@@ATL@@UAGJH@Z 10002304 f i CAT.obj
 0001:00001326       ?ResizeBorder@?$IOleInPlaceActiveObjectImpl@VCOPOSCAT@@@ATL@@UAGJPBUtagRECT@@PAUIOleInPlaceUIWindow@@H@Z 10002326 f i CAT.obj
 0001:0000132b       ?Draw@?$IViewObjectExImpl@VCOPOSCAT@@@ATL@@UAGJKJPAXPAUtagDVTARGETDEVICE@@PAUHDC__@@2PBU_RECTL@@3P6GHK@ZK@Z 1000232b f i CAT.obj
 0001:0000135d       ?GetColorSet@?$IViewObjectExImpl@VCOPOSCAT@@@ATL@@UAGJKJPAXPAUtagDVTARGETDEVICE@@PAUHDC__@@PAPAUtagLOGPALETTE@@@Z 1000235d f i CAT.obj
 0001:00001365       ?Freeze@?$IViewObjectExImpl@VCOPOSCAT@@@ATL@@UAGJKJPAXPAK@Z 10002365 f i CAT.obj
 0001:0000136d       ?SetAdvise@?$IViewObjectExImpl@VCOPOSCAT@@@ATL@@UAGJKKPAUIAdviseSink@@@Z 1000236d f i CAT.obj
 0001:0000138c       ?GetAdvise@?$IViewObjectExImpl@VCOPOSCAT@@@ATL@@UAGJPAK0PAPAUIAdviseSink@@@Z 1000238c f i CAT.obj
 0001:000013c1       ?GetExtent@?$IViewObjectExImpl@VCOPOSCAT@@@ATL@@UAGJKJPAUtagDVTARGETDEVICE@@PAUtagSIZE@@@Z 100023c1 f i CAT.obj
 0001:000013f2       ?GetViewStatus@?$IViewObjectExImpl@VCOPOSCAT@@@ATL@@UAGJPAK@Z 100023f2 f i CAT.obj
 0001:0000140f       ?QueryHitPoint@?$IViewObjectExImpl@VCOPOSCAT@@@ATL@@UAGJKPBUtagRECT@@UtagPOINT@@JPAK@Z 1000240f f i CAT.obj
 0001:00001450       ?QueryHitRect@?$IViewObjectExImpl@VCOPOSCAT@@@ATL@@UAGJKPBUtagRECT@@0JPAK@Z 10002450 f i CAT.obj
 0001:000014ab       ?GetNaturalExtent@?$IViewObjectExImpl@VCOPOSCAT@@@ATL@@UAGJKJPAUtagDVTARGETDEVICE@@PAUHDC__@@PAUtagExtentInfo@@PAUtagSIZE@@@Z 100024ab f i CAT.obj
 0001:000014f6       ?GetWindow@?$IOleInPlaceObjectWindowlessImpl@VCOPOSCAT@@@ATL@@UAGJPAPAUHWND__@@@Z 100024f6 f i CAT.obj
 0001:00001543       ?InPlaceDeactivate@?$IOleInPlaceObjectWindowlessImpl@VCOPOSCAT@@@ATL@@UAGJXZ 10002543 f i CAT.obj
 0001:0000155d       ?UIDeactivate@?$IOleInPlaceObjectWindowlessImpl@VCOPOSCAT@@@ATL@@UAGJXZ 1000255d f i CAT.obj
 0001:00001577       ?SetObjectRects@?$IOleInPlaceObjectWindowlessImpl@VCOPOSCAT@@@ATL@@UAGJPBUtagRECT@@0@Z 10002577 f i CAT.obj
 0001:00001597       ?ReactivateAndUndo@?$IOleInPlaceObjectWindowlessImpl@VCOPOSCAT@@@ATL@@UAGJXZ 10002597 f i CAT.obj
 0001:0000159f       ?OnWindowMessage@?$IOleInPlaceObjectWindowlessImpl@VCOPOSCAT@@@ATL@@UAGJIIJPAJ@Z 1000259f f i CAT.obj
 0001:0000160f       ?EnumConnectionPoints@?$IConnectionPointContainerImpl@VCOPOSCAT@@@ATL@@UAGJPAPAUIEnumConnectionPoints@@@Z 1000260f f i CAT.obj
 0001:0000179b       ?FindConnectionPoint@?$IConnectionPointContainerImpl@VCOPOSCAT@@@ATL@@UAGJABU_GUID@@PAPAUIConnectionPoint@@@Z 1000279b f i CAT.obj
 0001:0000183e       ?IsDirty@?$IPersistStorageImpl@VCOPOSCAT@@@ATL@@UAGJXZ 1000283e f i CAT.obj
 0001:0000186e       ?InitNew@?$IPersistStorageImpl@VCOPOSCAT@@@ATL@@UAGJPAUIStorage@@@Z 1000286e f i CAT.obj
 0001:0000189e       ?Load@?$IPersistStorageImpl@VCOPOSCAT@@@ATL@@UAGJPAUIStorage@@@Z 1000289e f i CAT.obj
 0001:0000190a       ?Save@?$IPersistStorageImpl@VCOPOSCAT@@@ATL@@UAGJPAUIStorage@@H@Z 1000290a f i CAT.obj
 0001:0000197d       ?GetPages@?$ISpecifyPropertyPagesImpl@VCOPOSCAT@@@ATL@@UAGJPAUtagCAUUID@@@Z 1000297d f i CAT.obj
 0001:00001994       ?QuickActivate@?$IQuickActivateImpl@VCOPOSCAT@@@ATL@@UAGJPAUtagQACONTAINER@@PAUtagQACONTROL@@@Z 10002994 f i CAT.obj
 0001:000019b7       ?SetContentExtent@?$IQuickActivateImpl@VCOPOSCAT@@@ATL@@UAGJPAUtagSIZE@@@Z 100029b7 f i CAT.obj
 0001:000019e3       ?GetContentExtent@?$IQuickActivateImpl@VCOPOSCAT@@@ATL@@UAGJPAUtagSIZE@@@Z 100029e3 f i CAT.obj
 0001:00001a1f       ?GetData@?$IDataObjectImpl@VCOPOSCAT@@@ATL@@UAGJPAUtagFORMATETC@@PAUtagSTGMEDIUM@@@Z 10002a1f f i CAT.obj
 0001:00001a42       ?DAdvise@?$IDataObjectImpl@VCOPOSCAT@@@ATL@@UAGJPAUtagFORMATETC@@KPAUIAdviseSink@@PAK@Z 10002a42 f i CAT.obj
 0001:00001a83       ?DUnadvise@?$IDataObjectImpl@VCOPOSCAT@@@ATL@@UAGJK@Z 10002a83 f i CAT.obj
 0001:00001ab1       ?EnumDAdvise@?$IDataObjectImpl@VCOPOSCAT@@@ATL@@UAGJPAPAUIEnumSTATDATA@@@Z 10002ab1 f i CAT.obj
 0001:00001af0       ?GetClassInfoW@?$IProvideClassInfo2Impl@$1?CLSID_OPOSCAT@@3U_GUID@@B$1?DIID__IOPOSCATEvents@@3U2@B$1?LIBID_OposCAT_CCO@@3U2@B$00$0A@VCComTypeInfoHolder@ATL@@@ATL@@UAGJPAPAUITypeInfo@@@Z 10002af0 f i CAT.obj
 0001:00001b06       ?GetGUID@?$IProvideClassInfo2Impl@$1?CLSID_OPOSCAT@@3U_GUID@@B$1?DIID__IOPOSCATEvents@@3U2@B$1?LIBID_OposCAT_CCO@@3U2@B$00$0A@VCComTypeInfoHolder@ATL@@@ATL@@UAGJKPAU_GUID@@@Z 10002b06 f i CAT.obj
 0001:00001b44       ?FAccessAllowed@?$IObjectSafetyImpl@VCOPOSCAT@@$02@ATL@@MAEHXZ 10002b44 f i CAT.obj
 0001:00001b44       __get_startup_argv_mode    10002b44 f i LIBCMT:argv_mode.obj
 0001:00001b48       ?GetInterfaceSafetyOptions@?$IObjectSafetyImpl@VCOPOSCAT@@$02@ATL@@UAGJABU_GUID@@PAK1@Z 10002b48 f i CAT.obj
 0001:00001bbc       ?SetInterfaceSafetyOptions@?$IObjectSafetyImpl@VCOPOSCAT@@$02@ATL@@UAGJABU_GUID@@KK@Z 10002bbc f i CAT.obj
 0001:00001c36       ?_LocCPQueryInterface@?$IConnectionPointImpl@VCOPOSCAT@@$1?IID_IPropertyNotifySink@@3U_GUID@@BVCComDynamicUnkArray@ATL@@@ATL@@UAGJABU_GUID@@PAPAX@Z 10002c36 f i CAT.obj
 0001:00001c36       ?_LocCPQueryInterface@?$IConnectionPointImpl@VCOPOSCAT@@$1?DIID__IOPOSCATEvents@@3U_GUID@@BVCComDynamicUnkArray@ATL@@@ATL@@UAGJABU_GUID@@PAPAX@Z 10002c36 f i CAT.obj
 0001:00001c83       ?GetConnectionInterface@?$IConnectionPointImpl@VCOPOSCAT@@$1?IID_IPropertyNotifySink@@3U_GUID@@BVCComDynamicUnkArray@ATL@@@ATL@@UAGJPAU_GUID@@@Z 10002c83 f i CAT.obj
 0001:00001ca7       ?GetConnectionPointContainer@?$IConnectionPointImpl@VCOPOSCAT@@$1?IID_IPropertyNotifySink@@3U_GUID@@BVCComDynamicUnkArray@ATL@@@ATL@@UAGJPAPAUIConnectionPointContainer@@@Z 10002ca7 f i CAT.obj
 0001:00001cca       ?Advise@?$IConnectionPointImpl@VCOPOSCAT@@$1?DIID__IOPOSCATEvents@@3U_GUID@@BVCComDynamicUnkArray@ATL@@@ATL@@UAGJPAUIUnknown@@PAK@Z 10002cca f i CAT.obj
 0001:00001cca       ?Advise@?$IConnectionPointImpl@VCOPOSCAT@@$1?IID_IPropertyNotifySink@@3U_GUID@@BVCComDynamicUnkArray@ATL@@@ATL@@UAGJPAUIUnknown@@PAK@Z 10002cca f i CAT.obj
 0001:00001d6a       ?Unadvise@?$IConnectionPointImpl@VCOPOSCAT@@$1?DIID__IOPOSCATEvents@@3U_GUID@@BVCComDynamicUnkArray@ATL@@@ATL@@UAGJK@Z 10002d6a f i CAT.obj
 0001:00001d6a       ?Unadvise@?$IConnectionPointImpl@VCOPOSCAT@@$1?IID_IPropertyNotifySink@@3U_GUID@@BVCComDynamicUnkArray@ATL@@@ATL@@UAGJK@Z 10002d6a f i CAT.obj
 0001:00001daa       ?EnumConnections@?$IConnectionPointImpl@VCOPOSCAT@@$1?DIID__IOPOSCATEvents@@3U_GUID@@BVCComDynamicUnkArray@ATL@@@ATL@@UAGJPAPAUIEnumConnections@@@Z 10002daa f i CAT.obj
 0001:00001daa       ?EnumConnections@?$IConnectionPointImpl@VCOPOSCAT@@$1?IID_IPropertyNotifySink@@3U_GUID@@BVCComDynamicUnkArray@ATL@@@ATL@@UAGJPAPAUIEnumConnections@@@Z 10002daa f i CAT.obj
 0001:00001ea5       ?GetObjectDescription@?$CComCoClass@VCOPOSCAT@@$1?CLSID_OPOSCAT@@3U_GUID@@B@ATL@@SGPB_WXZ 10002ea5 f i CAT.obj
 0001:00001ea5       ?GetCategoryMap@CComObjectRootBase@ATL@@SAPBU_ATL_CATMAP_ENTRY@2@XZ 10002ea5 f i CAT.obj
 0001:00001ea8       ?GetConnectionInterface@?$IConnectionPointImpl@VCOPOSCAT@@$1?DIID__IOPOSCATEvents@@3U_GUID@@BVCComDynamicUnkArray@ATL@@@ATL@@UAGJPAU_GUID@@@Z 10002ea8 f i CAT.obj
 0001:00001ecc       ?GetConnectionPointContainer@?$IConnectionPointImpl@VCOPOSCAT@@$1?DIID__IOPOSCATEvents@@3U_GUID@@BVCComDynamicUnkArray@ATL@@@ATL@@UAGJPAPAUIConnectionPointContainer@@@Z 10002ecc f i CAT.obj
 0001:00001eef       ?Lock@CAtlModule@ATL@@UAEJXZ 10002eef f i CAT.obj
 0001:00001ef9       ?Unlock@CAtlModule@ATL@@UAEJXZ 10002ef9 f i CAT.obj
 0001:00001f03       ?GetLockCount@CAtlModule@ATL@@UAEJXZ 10002f03 f i CAT.obj
 0001:00001f07       ?GetGITPtr@CAtlModule@ATL@@UAEJPAPAUIGlobalInterfaceTable@@@Z 10002f07 f i CAT.obj
 0001:00001f53       ?UpdateRegistry@COPOSCAT@@SGJH@Z 10002f53 f i CAT.obj
 0001:00001f6b       ?ProcessWindowMessage@COPOSCAT@@UAEHPAUHWND__@@IIJAAJK@Z 10002f6b f i CAT.obj
 0001:00001fb4       ?SODirectIO@COPOSCAT@@MAGJJPAJPAPA_W@Z 10002fb4 f i CAT.obj
 0001:00001ffd       ?SOError@COPOSCAT@@MAGJJJJPAJ@Z 10002ffd f i CAT.obj
 0001:00002052       ?SOOutputComplete@COPOSCAT@@MAGJJ@Z 10003052 f i CAT.obj
 0001:0000208b       ?SOStatusUpdate@COPOSCAT@@MAGJJ@Z 1000308b f i CAT.obj
 0001:000020c4       ?AddCommonRGSReplacements@?$CAtlModuleT@VCComModule@ATL@@@ATL@@UAEJPAUIRegistrarBase@@@Z 100030c4 f i CAT.obj
 0001:000020de       ?UpdateRegistryFromResourceD@CComModule@ATL@@UAGJIHPAU_ATL_REGMAP_ENTRY@2@@Z 100030de f i CAT.obj
 0001:000020de       ?UpdateRegistryFromResourceD@CComModule@ATL@@UAGJPB_WHPAU_ATL_REGMAP_ENTRY@2@@Z 100030de f i CAT.obj
 0001:000020e6       ?UpdateRegistryFromResource@CComModule@ATL@@UAGJPB_WHPAU_ATL_REGMAP_ENTRY@2@@Z 100030e6 f i CAT.obj
 0001:000020ef       ?UpdateRegistryFromResource@CComModule@ATL@@UAGJIHPAU_ATL_REGMAP_ENTRY@2@@Z 100030ef f i CAT.obj
 0001:000020f8       ??_GCComModule@ATL@@UAEPAXI@Z 100030f8 f i CAT.obj
 0001:000020f8       ??_ECComModule@ATL@@UAEPAXI@Z 100030f8 f i CAT.obj
 0001:00002120       ?CreateInstance@?$CComCreator@V?$CComObjectCached@VCComClassFactory@ATL@@@ATL@@@ATL@@SGJPAXABU_GUID@@PAPAX@Z 10003120 f i CAT.obj
 0001:000021c0       ?CreateInstance@?$CComCreator2@V?$CComCreator@V?$CComObject@VCOPOSCAT@@@ATL@@@ATL@@V?$CComCreator@V?$CComAggObject@VCOPOSCAT@@@ATL@@@2@@ATL@@SGJPAXABU_GUID@@PAPAX@Z 100031c0 f i CAT.obj
 0001:000021e0       ?AddRef@?$CComObjectCached@VCComClassFactory@ATL@@@ATL@@UAGKXZ 100031e0 f i CAT.obj
 0001:00002207       ?Release@?$CComObjectCached@VCComClassFactory@ATL@@@ATL@@UAGKXZ 10003207 f i CAT.obj
 0001:0000223d       ?QueryInterface@?$CComObjectCached@VCComClassFactory@ATL@@@ATL@@UAGJABU_GUID@@PAPAX@Z 1000323d f i CAT.obj
 0001:00002257       ??_G?$CComObjectCached@VCComClassFactory@ATL@@@ATL@@UAEPAXI@Z 10003257 f i CAT.obj
 0001:00002257       ??_E?$CComObjectCached@VCComClassFactory@ATL@@@ATL@@UAEPAXI@Z 10003257 f i CAT.obj
 0001:00002279       ?Next@?$CComEnumImpl@UIEnumConnectionPoints@@$1?_GUID_b196b285_bab4_101a_b69c_00aa00341d07@@3U__s_GUID@@BPAUIConnectionPoint@@V?$_CopyInterface@UIConnectionPoint@@@ATL@@@ATL@@UAGJKPAPAUIConnectionPoint@@PAK@Z 10003279 f i CAT.obj
 0001:00002350       ?Skip@?$CComEnumImpl@UIEnumConnectionPoints@@$1?_GUID_b196b285_bab4_101a_b69c_00aa00341d07@@3U__s_GUID@@BPAUIConnectionPoint@@V?$_CopyInterface@UIConnectionPoint@@@ATL@@@ATL@@UAGJK@Z 10003350 f i CAT.obj
 0001:0000237d       ?Reset@?$CComEnumImpl@UIEnumConnectionPoints@@$1?_GUID_b196b285_bab4_101a_b69c_00aa00341d07@@3U__s_GUID@@BPAUIConnectionPoint@@V?$_CopyInterface@UIConnectionPoint@@@ATL@@@ATL@@UAGJXZ 1000337d f i CAT.obj
 0001:0000237d       ?Reset@?$CComEnumImpl@UIEnumConnections@@$1?_GUID_b196b287_bab4_101a_b69c_00aa00341d07@@3U__s_GUID@@BUtagCONNECTDATA@@V?$_Copy@UtagCONNECTDATA@@@ATL@@@ATL@@UAGJXZ 1000337d f i CAT.obj
 0001:0000238f       ?Clone@?$CComEnumImpl@UIEnumConnectionPoints@@$1?_GUID_b196b285_bab4_101a_b69c_00aa00341d07@@3U__s_GUID@@BPAUIConnectionPoint@@V?$_CopyInterface@UIConnectionPoint@@@ATL@@@ATL@@UAGJPAPAUIEnumConnectionPoints@@@Z 1000338f f i CAT.obj
 0001:00002470       ?AddRef@?$CComObject@V?$CComEnum@UIEnumConnections@@$1?_GUID_b196b287_bab4_101a_b69c_00aa00341d07@@3U__s_GUID@@BUtagCONNECTDATA@@V?$_Copy@UtagCONNECTDATA@@@ATL@@VCComSingleThreadModel@6@@ATL@@@ATL@@UAGKXZ 10003470 f i CAT.obj
 0001:00002470       ?AddRef@?$CComObject@V?$CComEnum@UIEnumConnectionPoints@@$1?_GUID_b196b285_bab4_101a_b69c_00aa00341d07@@3U__s_GUID@@BPAUIConnectionPoint@@V?$_CopyInterface@UIConnectionPoint@@@ATL@@VCComSingleThreadModel@6@@ATL@@@ATL@@UAGKXZ 10003470 f i CAT.obj
 0001:00002481       ?Release@?$CComObject@V?$CComEnum@UIEnumConnectionPoints@@$1?_GUID_b196b285_bab4_101a_b69c_00aa00341d07@@3U__s_GUID@@BPAUIConnectionPoint@@V?$_CopyInterface@UIConnectionPoint@@@ATL@@VCComSingleThreadModel@6@@ATL@@@ATL@@UAGKXZ 10003481 f i CAT.obj
 0001:00002481       ?Release@?$CComObject@V?$CComEnum@UIEnumConnections@@$1?_GUID_b196b287_bab4_101a_b69c_00aa00341d07@@3U__s_GUID@@BUtagCONNECTDATA@@V?$_Copy@UtagCONNECTDATA@@@ATL@@VCComSingleThreadModel@6@@ATL@@@ATL@@UAGKXZ 10003481 f i CAT.obj
 0001:000024bd       ?QueryInterface@?$CComObject@V?$CComEnum@UIEnumConnectionPoints@@$1?_GUID_b196b285_bab4_101a_b69c_00aa00341d07@@3U__s_GUID@@BPAUIConnectionPoint@@V?$_CopyInterface@UIConnectionPoint@@@ATL@@VCComSingleThreadModel@6@@ATL@@@ATL@@UAGJABU_GUID@@PAPAX@Z 100034bd f i CAT.obj
 0001:000024d7       ??_E?$CComObject@V?$CComEnum@UIEnumConnectionPoints@@$1?_GUID_b196b285_bab4_101a_b69c_00aa00341d07@@3U__s_GUID@@BPAUIConnectionPoint@@V?$_CopyInterface@UIConnectionPoint@@@ATL@@VCComSingleThreadModel@6@@ATL@@@ATL@@UAEPAXI@Z 100034d7 f i CAT.obj
 0001:000024d7       ??_G?$CComObject@V?$CComEnum@UIEnumConnectionPoints@@$1?_GUID_b196b285_bab4_101a_b69c_00aa00341d07@@3U__s_GUID@@BPAUIConnectionPoint@@V?$_CopyInterface@UIConnectionPoint@@@ATL@@VCComSingleThreadModel@6@@ATL@@@ATL@@UAEPAXI@Z 100034d7 f i CAT.obj
 0001:000024f9       ?AddRef@CRegObject@ATL@@UAGKXZ 100034f9 f i CAT.obj
 0001:000024ff       ?AddReplacement@CRegObject@ATL@@UAGJPB_W0@Z 100034ff f i CAT.obj
 0001:00002538       ?ClearReplacements@CRegObject@ATL@@UAGJXZ 10003538 f i CAT.obj
 0001:0000254a       ??_ECRegObject@ATL@@UAEPAXI@Z 1000354a f i CAT.obj
 0001:0000254a       ??_GCRegObject@ATL@@UAEPAXI@Z 1000354a f i CAT.obj
 0001:0000256c       ?AddRef@?$CComAggObject@VCOPOSCAT@@@ATL@@UAGKXZ 1000356c f i CAT.obj
 0001:0000257d       ?Release@?$CComAggObject@VCOPOSCAT@@@ATL@@UAGKXZ 1000357d f i CAT.obj
 0001:000025b9       ?QueryInterface@?$CComAggObject@VCOPOSCAT@@@ATL@@UAGJABU_GUID@@PAPAX@Z 100035b9 f i CAT.obj
 0001:00002608       ?AddRef@?$CComContainedObject@VCOPOSCAT@@@ATL@@UAGKXZ 10003608 f i CAT.obj
 0001:0000261e       ?Release@?$CComContainedObject@VCOPOSCAT@@@ATL@@UAGKXZ 1000361e f i CAT.obj
 0001:00002634       ?QueryInterface@?$CComContainedObject@VCOPOSCAT@@@ATL@@UAGJABU_GUID@@PAPAX@Z 10003634 f i CAT.obj
 0001:0000264f       ??_E?$CComAggObject@VCOPOSCAT@@@ATL@@UAEPAXI@Z 1000364f f i CAT.obj
 0001:0000264f       ??_G?$CComAggObject@VCOPOSCAT@@@ATL@@UAEPAXI@Z 1000364f f i CAT.obj
 0001:00002674       ?AddRef@?$CComObject@VCOPOSCAT@@@ATL@@UAGKXZ 10003674 f i CAT.obj
 0001:0000268b       ?Release@?$CComObject@VCOPOSCAT@@@ATL@@UAGKXZ 1000368b f i CAT.obj
 0001:000026cd       ?QueryInterface@?$CComObject@VCOPOSCAT@@@ATL@@UAGJABU_GUID@@PAPAX@Z 100036cd f i CAT.obj
 0001:000026e7       ?OnDrawAdvanced@CComControlBase@ATL@@UAEJAAUATL_DRAWINFO@@@Z 100036e7 f i CAT.obj
 0001:000027da       ?Next@?$CComEnumImpl@UIEnumConnections@@$1?_GUID_b196b287_bab4_101a_b69c_00aa00341d07@@3U__s_GUID@@BUtagCONNECTDATA@@V?$_Copy@UtagCONNECTDATA@@@ATL@@@ATL@@UAGJKPAUtagCONNECTDATA@@PAK@Z 100037da f i CAT.obj
 0001:000028b1       ?Skip@?$CComEnumImpl@UIEnumConnections@@$1?_GUID_b196b287_bab4_101a_b69c_00aa00341d07@@3U__s_GUID@@BUtagCONNECTDATA@@V?$_Copy@UtagCONNECTDATA@@@ATL@@@ATL@@UAGJK@Z 100038b1 f i CAT.obj
 0001:000028de       ?Clone@?$CComEnumImpl@UIEnumConnections@@$1?_GUID_b196b287_bab4_101a_b69c_00aa00341d07@@3U__s_GUID@@BUtagCONNECTDATA@@V?$_Copy@UtagCONNECTDATA@@@ATL@@@ATL@@UAGJPAPAUIEnumConnections@@@Z 100038de f i CAT.obj
 0001:000029bf       ?QueryInterface@?$CComObject@V?$CComEnum@UIEnumConnections@@$1?_GUID_b196b287_bab4_101a_b69c_00aa00341d07@@3U__s_GUID@@BUtagCONNECTDATA@@V?$_Copy@UtagCONNECTDATA@@@ATL@@VCComSingleThreadModel@6@@ATL@@@ATL@@UAGJABU_GUID@@PAPAX@Z 100039bf f i CAT.obj
 0001:000029d9       ??_E?$CComObject@V?$CComEnum@UIEnumConnections@@$1?_GUID_b196b287_bab4_101a_b69c_00aa00341d07@@3U__s_GUID@@BUtagCONNECTDATA@@V?$_Copy@UtagCONNECTDATA@@@ATL@@VCComSingleThreadModel@6@@ATL@@@ATL@@UAEPAXI@Z 100039d9 f i CAT.obj
 0001:000029d9       ??_G?$CComObject@V?$CComEnum@UIEnumConnections@@$1?_GUID_b196b287_bab4_101a_b69c_00aa00341d07@@3U__s_GUID@@BUtagCONNECTDATA@@V?$_Copy@UtagCONNECTDATA@@@ATL@@VCComSingleThreadModel@6@@ATL@@@ATL@@UAEPAXI@Z 100039d9 f i CAT.obj
 0001:000029fb       ??$?4UITypeInfo2@@@?$CComPtr@UITypeInfo@@@ATL@@QAEPAUITypeInfo@@ABV?$CComPtr@UITypeInfo2@@@1@@Z 100039fb f i CAT.obj
 0001:00002a28       ??$AtlAdd@K@ATL@@YAJPAKKK@Z 10003a28 f i CAT.obj
 0001:00002a4b       ??$AtlAdd@_K@ATL@@YAJPA_K_K1@Z 10003a4b f i CAT.obj
 0001:00002a83       ??$AtlAddThrow@K@ATL@@YAKKK@Z 10003a83 f i CAT.obj
 0001:00002aa9       ??$AtlModuleRegisterWndClassInfoT@VAtlModuleRegisterWndClassInfoParamW@ATL@@@ATL@@YAGPAU_ATL_BASE_MODULE70@0@PAU_ATL_WIN_MODULE70@0@PAU_ATL_WNDCLASSINFOW@0@PAP6GJPAUHWND__@@IIJ@ZVAtlModuleRegisterWndClassInfoParamW@0@@Z 10003aa9 f i CAT.obj
 0001:00002bf7       ??$AtlMultiply@H@ATL@@YAJPAHHH@Z 10003bf7 f i CAT.obj
 0001:00002c2f       ??$AtlMultiply@I@ATL@@YAJPAIII@Z 10003c2f f i CAT.obj
 0001:00002c2f       ??$AtlMultiply@K@ATL@@YAJPAKKK@Z 10003c2f f i CAT.obj
 0001:00002c51       ??$AtlMultiplyThrow@I@ATL@@YAIII@Z 10003c51 f i CAT.obj
 0001:00002c77       ??0?$CComAggObject@VCOPOSCAT@@@ATL@@QAE@PAX@Z 10003c77 f i CAT.obj
 0001:00002ca4       ??0?$CComContainedObject@VCOPOSCAT@@@ATL@@QAE@PAX@Z 10003ca4 f i CAT.obj
 0001:00002d5d       ??0?$CComObject@V?$CComEnum@UIEnumConnectionPoints@@$1?_GUID_b196b285_bab4_101a_b69c_00aa00341d07@@3U__s_GUID@@BPAUIConnectionPoint@@V?$_CopyInterface@UIConnectionPoint@@@ATL@@VCComSingleThreadModel@6@@ATL@@@ATL@@QAE@PAX@Z 10003d5d f i CAT.obj
 0001:00002d8b       ??0?$CComObject@V?$CComEnum@UIEnumConnections@@$1?_GUID_b196b287_bab4_101a_b69c_00aa00341d07@@3U__s_GUID@@BUtagCONNECTDATA@@V?$_Copy@UtagCONNECTDATA@@@ATL@@VCComSingleThreadModel@6@@ATL@@@ATL@@QAE@PAX@Z 10003d8b f i CAT.obj
 0001:00002db9       ??0?$CComObject@VCOPOSCAT@@@ATL@@QAE@PAX@Z 10003db9 f i CAT.obj
 0001:00002e70       ??0?$CComQIPtr@UIOleControlSite@@$1?_GUID_b196b289_bab4_101a_b69c_00aa00341d07@@3U__s_GUID@@B@ATL@@QAE@PAUIUnknown@@@Z 10003e70 f i CAT.obj
 0001:00002e99       ??0CAtlModule@ATL@@QAE@XZ  10003e99 f i CAT.obj
 0001:00002eda       ??0CParseBuffer@CRegParser@ATL@@QAE@H@Z 10003eda f i CAT.obj
 0001:00002f10       ??0_ATL_MSG@ATL@@QAE@PAUHWND__@@IIJH@Z 10003f10 f i CAT.obj
 0001:00002f48       ??1?$CComAggObject@VCOPOSCAT@@@ATL@@UAE@XZ 10003f48 f i CAT.obj
 0001:00002f6c       ??1?$CComEnumImpl@UIEnumConnectionPoints@@$1?_GUID_b196b285_bab4_101a_b69c_00aa00341d07@@3U__s_GUID@@BPAUIConnectionPoint@@V?$_CopyInterface@UIConnectionPoint@@@ATL@@@ATL@@UAE@XZ 10003f6c f i CAT.obj
 0001:00002fac       ??1?$CComEnumImpl@UIEnumConnections@@$1?_GUID_b196b287_bab4_101a_b69c_00aa00341d07@@3U__s_GUID@@BUtagCONNECTDATA@@V?$_Copy@UtagCONNECTDATA@@@ATL@@@ATL@@UAE@XZ 10003fac f i CAT.obj
 0001:00002fec       ??1?$CComObject@V?$CComEnum@UIEnumConnectionPoints@@$1?_GUID_b196b285_bab4_101a_b69c_00aa00341d07@@3U__s_GUID@@BPAUIConnectionPoint@@V?$_CopyInterface@UIConnectionPoint@@@ATL@@VCComSingleThreadModel@6@@ATL@@@ATL@@UAE@XZ 10003fec f i CAT.obj
 0001:0000300f       ??1?$CComObject@V?$CComEnum@UIEnumConnections@@$1?_GUID_b196b287_bab4_101a_b69c_00aa00341d07@@3U__s_GUID@@BUtagCONNECTDATA@@V?$_Copy@UtagCONNECTDATA@@@ATL@@VCComSingleThreadModel@6@@ATL@@@ATL@@UAE@XZ 1000400f f i CAT.obj
 0001:00003032       ??1?$CComObject@VCOPOSCAT@@@ATL@@UAE@XZ 10004032 f i CAT.obj
 0001:000030f0       ??1?$CComObjectCached@VCComClassFactory@ATL@@@ATL@@UAE@XZ 100040f0 f i CAT.obj
 0001:00003106       ??1?$CComObjectRootEx@VCComMultiThreadModel@ATL@@@ATL@@QAE@XZ 10004106 f i CAT.obj
 0001:0000311b       ??1CRegObject@ATL@@UAE@XZ  1000411b f i CAT.obj
 0001:0000313b       ??4?$CComPtr@UIOleClientSite@@@ATL@@QAEPAUIOleClientSite@@PAU2@@Z 1000413b f i CAT.obj
 0001:0000313b       ??4?$CComPtr@UIUnknown@@@ATL@@QAEPAUIUnknown@@PAU2@@Z 1000413b f i CAT.obj
 0001:0000313b       ??4?$CComPtr@UIAdviseSink@@@ATL@@QAEPAUIAdviseSink@@PAU2@@Z 1000413b f i CAT.obj
 0001:0000316f       ??_G?$CComContainedObject@VCOPOSCAT@@@ATL@@UAEPAXI@Z 1000416f f i CAT.obj
 0001:0000316f       ??_E?$CComContainedObject@VCOPOSCAT@@@ATL@@UAEPAXI@Z 1000416f f i CAT.obj
 0001:00003194       ??_E?$CComObject@VCOPOSCAT@@@ATL@@UAEPAXI@Z 10004194 f i CAT.obj
 0001:00003194       ??_G?$CComObject@VCOPOSCAT@@@ATL@@UAEPAXI@Z 10004194 f i CAT.obj
 0001:000031b9       ?Add@?$CSimpleArray@GV?$CSimpleArrayEqualHelper@G@ATL@@@ATL@@QAEHABG@Z 100041b9 f i CAT.obj
 0001:0000323d       ?Add@?$CSimpleMap@PA_WPA_WVCExpansionVectorEqualHelper@ATL@@@ATL@@QAEHABQA_W0@Z 1000423d f i CAT.obj
 0001:00003292       ?Add@CComDynamicUnkArray@ATL@@QAEKPAUIUnknown@@@Z 10004292 f i CAT.obj
 0001:00003348       ?Add@CExpansionVector@ATL@@QAEHPB_W0@Z 10004348 f i CAT.obj
 0001:00003451       ?AddString@CParseBuffer@CRegParser@ATL@@QAEHPB_W@Z 10004451 f i CAT.obj
 0001:00003486       ?AddTermFunc@CAtlModule@ATL@@QAEJP6GXK@ZK@Z 10004486 f i CAT.obj
 0001:000034e9       ?AddValue@CRegParser@ATL@@IAEJAAVCRegKey@2@PB_WPA_W@Z 100044e9 f i CAT.obj
 0001:00003803       ?Allocate@?$CAtlSafeAllocBufferManager@VCCRTAllocator@ATL@@@_ATL_SAFE_ALLOCA_IMPL@ATL@@QAEPAXK@Z 10004803 f i CAT.obj
 0001:00003830       ?Allocate@?$CTempBuffer@E$0BAA@VCCRTAllocator@ATL@@@ATL@@QAEPAEI@Z 10004830 f i CAT.obj
 0001:0000385f       ?Allocate@?$CTempBuffer@_W$0BAA@VCCRTAllocator@ATL@@@ATL@@QAEPA_WI@Z 1000485f f i CAT.obj
 0001:0000388e       ?Allocate@?$CTempBuffer@_W$0EAA@VCCRTAllocator@ATL@@@ATL@@QAEPA_WI@Z 1000488e f i CAT.obj
 0001:000038bd       ?AllocateHeap@?$CTempBuffer@_W$0BAA@VCCRTAllocator@ATL@@@ATL@@AAEXI@Z 100048bd f i CAT.obj
 0001:000038bd       ?AllocateHeap@?$CTempBuffer@_W$0EAA@VCCRTAllocator@ATL@@@ATL@@AAEXI@Z 100048bd f i CAT.obj
 0001:000038bd       ?AllocateHeap@?$CTempBuffer@E$0BAA@VCCRTAllocator@ATL@@@ATL@@AAEXI@Z 100048bd f i CAT.obj
 0001:000038e2       ?Append@CParseBuffer@CRegParser@ATL@@QAEHPB_WH@Z 100048e2 f i CAT.obj
 0001:00003970       ?AtlCoTaskMemCAlloc@ATL@@YAPAXKK@Z 10004970 f i CAT.obj
 0001:0000399d       ?AtlCoTaskMemRecalloc@ATL@@YAPAXPAXKK@Z 1000499d f i CAT.obj
 0001:000039cd       ?AtlComModuleGetClassObject@ATL@@YGJPAU_ATL_COM_MODULE70@1@ABU_GUID@@1PAPAX@Z 100049cd f i CAT.obj
 0001:00003ac0       ?AtlComModuleRegisterServer@ATL@@YGJPAU_ATL_COM_MODULE70@1@HPBU_GUID@@@Z 10004ac0 f i CAT.obj
 0001:00003b48       ?AtlComModuleUnregisterServer@ATL@@YGJPAU_ATL_COM_MODULE70@1@HPBU_GUID@@@Z 10004b48 f i CAT.obj
 0001:00003bd0       ?AtlComQIPtrAssign2@ATL@@YAXPAPAUIUnknown@@PAU2@ABU_GUID@@@Z 10004bd0 f i CAT.obj
 0001:00003bff       ?AtlCreateTargetDC@ATL@@YGPAUHDC__@@PAU2@PAUtagDVTARGETDEVICE@@@Z 10004bff f i CAT.obj
 0001:00003c68       ?AtlCrtErrorCheck@ATL@@YAHH@Z 10004c68 f i CAT.obj
 0001:00003ca3       ?AtlHiMetricToPixel@ATL@@YGXPBUtagSIZE@@PAU2@@Z 10004ca3 f i CAT.obj
 0001:00003d18       ?AtlHresultFromLastError@ATL@@YAJXZ 10004d18 f i CAT.obj
 0001:00003d2f       ?AtlHresultFromWin32@ATL@@YAJK@Z 10004d2f f i CAT.obj
 0001:00003d44       ?AtlInternalOleLoadFromStream@ATL@@YAJPAUIStream@@ABU_GUID@@PAPAXTClassesAllowedInStream@1@K@Z 10004d44 f i CAT.obj
 0001:00003e62       ?AtlInternalQueryInterface@ATL@@YGJPAXPBU_ATL_INTMAP_ENTRY@1@ABU_GUID@@PAPAX@Z 10004e62 f i CAT.obj
 0001:00003f05       ?AtlLoadTypeLib@ATL@@YGJPAUHINSTANCE__@@PB_WPAPA_WPAPAUITypeLib@@@Z 10004f05 f i CAT.obj
 0001:000040e3       ?AtlRegisterClassCategoriesHelper@ATL@@YGJABU_GUID@@PBU_ATL_CATMAP_ENTRY@1@H@Z 100050e3 f i CAT.obj
 0001:000043df       ?AtlRegisterTypeLib@ATL@@YGJPAUHINSTANCE__@@PB_W@Z 100053df f i CAT.obj
 0001:00004567       ?AtlThrowImpl@ATL@@YGXJ@Z  10005567 f i CAT.obj
 0001:00004585       ?AtlUnRegisterTypeLib@ATL@@YGJPAUHINSTANCE__@@PB_W@Z 10005585 f i CAT.obj
 0001:00004630       ?AtlWinModuleAddCreateWndData@ATL@@YGXPAU_ATL_WIN_MODULE70@1@PAU_AtlCreateWndData@1@PAX@Z 10005630 f i CAT.obj
 0001:00004684       ?AtlWinModuleExtractCreateWndData@ATL@@YGPAXPAU_ATL_WIN_MODULE70@1@@Z 10005684 f i CAT.obj
 0001:000046e7       ?AtlWinModuleRegisterClassExW@ATL@@YGGPAU_ATL_WIN_MODULE70@1@PBUtagWNDCLASSEXW@@@Z 100056e7 f i CAT.obj
 0001:00004726       ?CanForceRemoveKey@CRegParser@ATL@@IAEHPB_W@Z 10005726 f i CAT.obj
 0001:00004755       ?ChToByte@CRegParser@ATL@@KAE_W@Z 10005755 f i CAT.obj
 0001:00004788       ?Cleanup@CComTypeInfoHolder@ATL@@SGXK@Z 10005788 f i CAT.obj
 0001:000047bb       ?ClearReplacements@CExpansionVector@ATL@@QAEJXZ 100057bb f i CAT.obj
 0001:000047f8       ?Close@CRegKey@ATL@@QAEJXZ 100057f8 f i CAT.obj
 0001:00004812       ?CreateInstance@?$CComCreator@V?$CComAggObject@VCOPOSCAT@@@ATL@@@ATL@@SGJPAXABU_GUID@@PAPAX@Z 10005812 f i CAT.obj
 0001:00004887       ?CreateInstance@?$CComCreator@V?$CComObject@VCOPOSCAT@@@ATL@@@ATL@@SGJPAXABU_GUID@@PAPAX@Z 10005887 f i CAT.obj
 0001:00004907       ?CreateInstance@?$CComObject@V?$CComEnum@UIEnumConnectionPoints@@$1?_GUID_b196b285_bab4_101a_b69c_00aa00341d07@@3U__s_GUID@@BPAUIConnectionPoint@@V?$_CopyInterface@UIConnectionPoint@@@ATL@@VCComSingleThreadModel@6@@ATL@@@ATL@@SGJPAPAV12@@Z 10005907 f i CAT.obj
 0001:00004951       ?CreateInstance@?$CComObject@V?$CComEnum@UIEnumConnections@@$1?_GUID_b196b287_bab4_101a_b69c_00aa00341d07@@3U__s_GUID@@BUtagCONNECTDATA@@V?$_Copy@UtagCONNECTDATA@@@ATL@@VCComSingleThreadModel@6@@ATL@@@ATL@@SGJPAPAV12@@Z 10005951 f i CAT.obj
 0001:0000499b       ?DefaultReflectionHandler@?$CWindowImplRoot@VCWindow@ATL@@@ATL@@SAHPAUHWND__@@IIJAAJ@Z 1000599b f i CAT.obj
 0001:00004a0e       ?DeleteSubKey@CRegKey@ATL@@QAEJPB_W@Z 10005a0e f i CAT.obj
 0001:00004a87       ?DoEvent@COPOSCAT@@IAEXIIJ@Z 10005a87 f i CAT.obj
 0001:00004b07       ?DoVerbHide@?$IOleObjectImpl@VCOPOSCAT@@@ATL@@QAEJPBUtagRECT@@PAUHWND__@@@Z 10005b07 f i CAT.obj
 0001:00004b3d       ?DoVerbInPlaceActivate@?$IOleObjectImpl@VCOPOSCAT@@@ATL@@QAEJPBUtagRECT@@PAUHWND__@@@Z 10005b3d f i CAT.obj
 0001:00004b70       ?DoVerbPrimary@?$IOleObjectImpl@VCOPOSCAT@@@ATL@@QAEJPBUtagRECT@@PAUHWND__@@@Z 10005b70 f i CAT.obj
 0001:00004bfc       ?DoVerbProperties@CComControlBase@ATL@@QAEJPBUtagRECT@@PAUHWND__@@@Z 10005bfc f i CAT.obj
 0001:00004d7b       ?DoVerbUIActivate@?$IOleObjectImpl@VCOPOSCAT@@@ATL@@QAEJPBUtagRECT@@PAUHWND__@@@Z 10005d7b f i CAT.obj
 0001:00004db8       ?DoesVerbActivate@CComControlBase@ATL@@QAEHJ@Z 10005db8 f i CAT.obj
 0001:00004dd9       ?DoesVerbUIActivate@CComControlBase@ATL@@QAEHJ@Z 10005dd9 f i CAT.obj
 0001:00004e0e       ?EndOfVar@CRegParser@ATL@@IAEHXZ 10005e0e f i CAT.obj
 0001:00004e2e       ?EscapeSingleQuote@CAtlModule@ATL@@SAXPA_WIPB_W@Z 10005e2e f i CAT.obj
 0001:00004e7d       ?FindKey@?$CSimpleMap@PA_WPA_WVCExpansionVectorEqualHelper@ATL@@@ATL@@QBEHABQA_W@Z 10005e7d f i CAT.obj
 0001:00004eb4       ?FireTheEvent@?$CProxy_IOPOSEvents@VCOPOSCAT@@@@IAEXPAVOposVariant@@IAAJPB_WJ@Z 10005eb4 f i CAT.obj
 0001:00004f46       ?FireViewChange@CComControlBase@ATL@@QAEJXZ 10005f46 f i CAT.obj
 0001:00004f8f       ?Fire_DirectIOEvent@?$CProxy_IOPOSEvents@VCOPOSCAT@@@@QAEXJPAJPAPA_W@Z 10005f8f f i CAT.obj
 0001:0000507b       ?Fire_ErrorEvent@?$CProxy_IOPOSEvents@VCOPOSCAT@@@@QAEXJJJPAJ@Z 1000607b f i CAT.obj
 0001:0000516c       ?Fire_OutputCompleteEvent@?$CProxy_IOPOSEvents@VCOPOSCAT@@@@QAEXJ@Z 1000616c f i CAT.obj
 0001:00005202       ?Fire_StatusUpdateEvent@?$CProxy_IOPOSEvents@VCOPOSCAT@@@@QAEXJ@Z 10006202 f i CAT.obj
 0001:00005298       ?FreeHeap@?$CTempBuffer@_W$0EAA@VCCRTAllocator@ATL@@@ATL@@AAEXXZ 10006298 f i CAT.obj
 0001:00005298       ?FreeHeap@?$CTempBuffer@_W$0BAA@VCCRTAllocator@ATL@@@ATL@@AAEXXZ 10006298 f i CAT.obj
 0001:00005298       ?FreeHeap@?$CTempBuffer@E$0BAA@VCCRTAllocator@ATL@@@ATL@@AAEXXZ 10006298 f i CAT.obj
 0001:000052a1       ?GetAmbientLocaleID@CComControlBase@ATL@@QAEJAAK@Z 100062a1 f i CAT.obj
 0001:000052fd       ?GetAmbientUserMode@CComControlBase@ATL@@QAEJAAH@Z 100062fd f i CAT.obj
 0001:0000536d       ?GetAt@CComDynamicUnkArray@ATL@@QAEPAUIUnknown@@H@Z 1000636d f i CAT.obj
 0001:00005389       ?GetClassObject@CComModule@ATL@@QAEJABU_GUID@@0PAPAX@Z 10006389 f i CAT.obj
 0001:0000542b       ?GetConnMap@COPOSCAT@@SAPBU_ATL_CONNMAP_ENTRY@ATL@@PAH@Z 1000642b f i CAT.obj
 0001:0000549b       ?GetCookie@CComDynamicUnkArray@ATL@@QAGKPAPAUIUnknown@@@Z 1000649b f i CAT.obj
 0001:000054d3       ?GetIDsOfNames@CComTypeInfoHolder@ATL@@QAEJABU_GUID@@PAPA_WIKPAJ@Z 100064d3 f i CAT.obj
 0001:000055fa       ?GetKeyAt@?$CSimpleMap@PA_WPA_WVCExpansionVectorEqualHelper@ATL@@@ATL@@QBEAAPA_WH@Z 100065fa f i CAT.obj
 0001:0000561f       ?GetPagesHelper@?$ISpecifyPropertyPagesImpl@VCOPOSCAT@@@ATL@@IAEJPAUtagCAUUID@@PBUATL_PROPMAP_ENTRY@2@@Z 1000661f f i CAT.obj
 0001:00005746       ?GetProperty@?$CComPtr@UIDispatch@@@ATL@@SAJPAUIDispatch@@JPAUtagVARIANT@@@Z 10006746 f i CAT.obj
 0001:00005795       ?GetSizeMax@CComVariant@ATL@@QBEJPAT_ULARGE_INTEGER@@@Z 10006795 f i CAT.obj
 0001:00005957       ?GetTI@CComTypeInfoHolder@ATL@@QAEJK@Z 10006957 f i CAT.obj
 0001:00005b36       ?GetTI@CComTypeInfoHolder@ATL@@QAEJKPAPAUITypeInfo@@@Z 10006b36 f i CAT.obj
 0001:00005b78       ?GetUnknown@CComDynamicUnkArray@ATL@@QAGPAUIUnknown@@K@Z 10006b78 f i CAT.obj
 0001:00005b99       ?GetValueAt@?$CSimpleMap@PA_WPA_WVCExpansionVectorEqualHelper@ATL@@@ATL@@QBEAAPA_WH@Z 10006b99 f i CAT.obj
 0001:00005bbf       ?GetZoomInfo@CComControlBase@ATL@@QAEXAAUATL_DRAWINFO@@@Z 10006bbf f i CAT.obj
 0001:00005c52       ?HKeyFromString@CRegParser@ATL@@KAPAUHKEY__@@PA_W@Z 10006c52 f i CAT.obj
 0001:00005c80       ?HasSubKeys@CRegParser@ATL@@IAEHPAUHKEY__@@@Z 10006c80 f i CAT.obj
 0001:00005cb5       ?IDataObject_GetData@CComControlBase@ATL@@QAEJPAUtagFORMATETC@@PAUtagSTGMEDIUM@@@Z 10006cb5 f i CAT.obj
 0001:00005e5b       ?IOleInPlaceObject_InPlaceDeactivate@CComControlBase@ATL@@QAEJXZ 10006e5b f i CAT.obj
 0001:00005ee2       ?IOleInPlaceObject_SetObjectRects@CComControlBase@ATL@@QAEJPBUtagRECT@@0@Z 10006ee2 f i CAT.obj
 0001:00005faf       ?IOleInPlaceObject_UIDeactivate@CComControlBase@ATL@@QAEJXZ 10006faf f i CAT.obj
 0001:00006071       ?IOleObject_Advise@CComControlBase@ATL@@QAEJPAUIAdviseSink@@PAK@Z 10007071 f i CAT.obj
 0001:0000609b       ?IOleObject_Close@CComControlBase@ATL@@QAEJK@Z 1000709b f i CAT.obj
 0001:0000617f       ?IOleObject_GetClientSite@CComControlBase@ATL@@QAEJPAPAUIOleClientSite@@@Z 1000717f f i CAT.obj
 0001:000061a8       ?IOleObject_SetClientSite@CComControlBase@ATL@@QAEJPAUIOleClientSite@@@Z 100071a8 f i CAT.obj
 0001:000061e7       ?IOleObject_SetExtent@CComControlBase@ATL@@QAEJKPAUtagSIZE@@@Z 100071e7 f i CAT.obj
 0001:00006299       ?IPSI_GetIPersistStreamInit@?$IPersistStorageImpl@VCOPOSCAT@@@ATL@@AAEPAUIPersistStreamInit@@XZ 10007299 f i CAT.obj
 0001:00006341       ?IPersistStreamInit_Load@?$IPersistStreamInitImpl@VCOPOSCAT@@@ATL@@QAEJPAUIStream@@PBUATL_PROPMAP_ENTRY@2@@Z 10007341 f i CAT.obj
 0001:000065b6       ?IPersistStreamInit_Save@?$IPersistStreamInitImpl@VCOPOSCAT@@@ATL@@QAEJPAUIStream@@HPBUATL_PROPMAP_ENTRY@2@@Z 100075b6 f i CAT.obj
 0001:000067a4       ?IQuickActivate_QuickActivate@CComControlBase@ATL@@QAEJPAUtagQACONTAINER@@PAUtagQACONTROL@@@Z 100077a4 f i CAT.obj
 0001:000069e6       ?IViewObject_Draw@CComControlBase@ATL@@QAEJKJPAXPAUtagDVTARGETDEVICE@@PAUHDC__@@2PBU_RECTL@@3@Z 100079e6 f i CAT.obj
 0001:00006a8e       ?InPlaceActivate@CComControlBase@ATL@@QAEJJPBUtagRECT@@@Z 10007a8e f i CAT.obj
 0001:00006cff       ?Init@?$CComEnumImpl@UIEnumConnectionPoints@@$1?_GUID_b196b285_bab4_101a_b69c_00aa00341d07@@3U__s_GUID@@BPAUIConnectionPoint@@V?$_CopyInterface@UIConnectionPoint@@@ATL@@@ATL@@QAEJPAPAUIConnectionPoint@@0PAUIUnknown@@W4CComEnumFlags@2@@Z 10007cff f i CAT.obj
 0001:00006dde       ?Init@?$CComEnumImpl@UIEnumConnections@@$1?_GUID_b196b287_bab4_101a_b69c_00aa00341d07@@3U__s_GUID@@BUtagCONNECTDATA@@V?$_Copy@UtagCONNECTDATA@@@ATL@@@ATL@@QAEJPAUtagCONNECTDATA@@0PAUIUnknown@@W4CComEnumFlags@2@@Z 10007dde f i CAT.obj
 0001:00006ebd       ?Init@CComModule@ATL@@QAEJPAU_ATL_OBJMAP_ENTRY30@2@PAUHINSTANCE__@@PBU_GUID@@@Z 10007ebd f i CAT.obj
 0001:00006f1c       ?Init@CDynamicStdCallThunk2@ATL@@QAEHKPAX@Z 10007f1c f i CAT.obj
 0001:00006f47       ?InlineIsEqualUnknown@ATL@@YGHABU_GUID@@@Z 10007f47 f i CAT.obj
 0001:00006f6f       ?InternalSetAtIndex@?$CSimpleMap@PA_WPA_WVCExpansionVectorEqualHelper@ATL@@@ATL@@QAEXHABQA_W0@Z 10007f6f f i CAT.obj
 0001:00006f99       ?Invoke@CComTypeInfoHolder@ATL@@QAEJPAUIDispatch@@JABU_GUID@@KGPAUtagDISPPARAMS@@PAUtagVARIANT@@PAUtagEXCEPINFO@@PAI@Z 10007f99 f i CAT.obj
 0001:00006fdc       ?IsEqualObject@?$CComPtrBase@UIOleClientSite@@@ATL@@QAE_NPAUIUnknown@@@Z 10007fdc f i CAT.obj
 0001:00006fdc       ?IsEqualObject@?$CComPtrBase@UITypeInfo@@@ATL@@QAE_NPAUIUnknown@@@Z 10007fdc f i CAT.obj
 0001:00007049       ?IsSpace@CRegParser@ATL@@IAEH_W@Z 10008049 f i CAT.obj
 0001:00007073       ?LoadNameCache@CComTypeInfoHolder@ATL@@QAEJPAUITypeInfo@@@Z 10008073 f i CAT.obj
 0001:000071a8       ?Lookup@?$CSimpleMap@PA_WPA_WVCExpansionVectorEqualHelper@ATL@@@ATL@@QBEPA_WABQA_W@Z 100081a8 f i CAT.obj
 0001:000071ce       ?NextToken@CRegParser@ATL@@IAEJPA_W@Z 100081ce f i CAT.obj
 0001:00007306       ?OnKillFocus@CComControlBase@ATL@@QAEJIIJAAH@Z 10008306 f i CAT.obj
 0001:00007361       ?OnMouseActivate@CComControlBase@ATL@@QAEJIIJAAH@Z 10008361 f i CAT.obj
 0001:000073cf       ?OnPaint@CComControlBase@ATL@@QAEJIIJAAH@Z 100083cf f i CAT.obj
 0001:00007481       ?OnSetFocus@CComControlBase@ATL@@QAEJIIJAAH@Z 10008481 f i CAT.obj
 0001:0000750a       ?Open@CRegKey@ATL@@QAEJPAUHKEY__@@PB_WK@Z 1000850a f i CAT.obj
 0001:0000755f       ?PreProcessBuffer@CRegParser@ATL@@QAEJPA_WPAPA_W@Z 1000855f f i CAT.obj
 0001:000077ce       ?ProcessWindowMessage@?$CComControl@VCOPOSCAT@@V?$CWindowImpl@VCOPOSCAT@@VCWindow@ATL@@V?$CWinTraits@$0FGAAAAAA@$0A@@3@@ATL@@@ATL@@UAEHPAUHWND__@@IIJAAJK@Z 100087ce f i CAT.obj
 0001:0000786d       ?ReadFromStream@CComBSTR@ATL@@QAEJPAUIStream@@@Z 1000886d f i CAT.obj
 0001:00007990       ?ReadFromStream@CComVariant@ATL@@QAEJPAUIStream@@GTClassesAllowedInStream@2@K@Z 10008990 f i CAT.obj
 0001:00007b1a       ?RecurseDeleteKey@CRegKey@ATL@@QAEJPB_W@Z 10008b1a f i CAT.obj
 0001:00007c08       ?RegCreateKeyExW@CAtlTransactionManager@ATL@@QAEJPAUHKEY__@@PB_WKPA_WKKQAU_SECURITY_ATTRIBUTES@@PAPAU3@PAK@Z 10008c08 f i CAT.obj
 0001:00007c6b       ?RegDeleteKeyW@CAtlTransactionManager@ATL@@QAEJPAUHKEY__@@PB_W@Z 10008c6b f i CAT.obj
 0001:00007cbd       ?RegOpenKeyExW@CAtlTransactionManager@ATL@@QAEJPAUHKEY__@@PB_WKKPAPAU3@@Z 10008cbd f i CAT.obj
 0001:00007d14       ?Register@_ATL_WNDCLASSINFOW@ATL@@QAEGPAP6GJPAUHWND__@@IIJ@Z@Z 10008d14 f i CAT.obj
 0001:00007d34       ?RegisterBuffer@CRegParser@ATL@@QAEJPA_WH@Z 10008d34 f i CAT.obj
 0001:00007e7b       ?RegisterFromResource@CRegObject@ATL@@IAEJPB_W00H@Z 10008e7b f i CAT.obj
 0001:00007fb1       ?RegisterServer@?$CAtlModuleT@VCComModule@ATL@@@ATL@@QAEJHPBU_GUID@@@Z 10008fb1 f i CAT.obj
 0001:00007fdf       ?RegisterServer@CComModule@ATL@@QAEJHPBU_GUID@@@Z 10008fdf f i CAT.obj
 0001:00008055       ?RegisterSubkeys@CRegParser@ATL@@IAEJPA_WPAUHKEY__@@HH@Z 10009055 f i CAT.obj
 0001:00008702       ?Remove@CComDynamicUnkArray@ATL@@QAEHK@Z 10009702 f i CAT.obj
 0001:0000872b       ?RemoveAll@?$CSimpleMap@PA_WPA_WVCExpansionVectorEqualHelper@ATL@@@ATL@@QAEXXZ 1000972b f i CAT.obj
 0001:00008757       ?ResourceRegisterSz@CRegObject@ATL@@QAGJPB_W00@Z 10009757 f i CAT.obj
 0001:00008784       ?ResourceUnregisterSz@CRegObject@ATL@@QAGJPB_W00@Z 10009784 f i CAT.obj
 0001:000087b1       ?SendOnDataChange@CComControlBase@ATL@@QAEJK@Z 100097b1 f i CAT.obj
 0001:000087fe       ?SetControlFocus@CComControlBase@ATL@@QAEHH@Z 100097fe f i CAT.obj
 0001:0000889b       ?SetMultiStringValue@CRegKey@ATL@@QAEJPB_W0@Z 1000989b f i CAT.obj
 0001:000088f7       ?SetStringValue@CRegKey@ATL@@QAEJPB_W0K@Z 100098f7 f i CAT.obj
 0001:00008940       ?SkipAssignment@CRegParser@ATL@@IAEJPA_W@Z 10009940 f i CAT.obj
 0001:000089a5       ?SkipWhiteSpace@CRegParser@ATL@@IAEXXZ 100099a5 f i CAT.obj
 0001:000089c7       ?StrChrW@CRegParser@ATL@@KAPA_WPA_W_W@Z 100099c7 f i CAT.obj
 0001:00008a04       ?Term@CAtlModule@ATL@@QAEXXZ 10009a04 f i CAT.obj
 0001:00008a57       ?Term@CComModule@ATL@@QAEXXZ 10009a57 f i CAT.obj
 0001:00008aaf       ?UnregisterServer@?$CAtlModuleT@VCComModule@ATL@@@ATL@@QAEJHPBU_GUID@@@Z 10009aaf f i CAT.obj
 0001:00008ad5       ?UnregisterServer@CComModule@ATL@@QAEJHPBU_GUID@@@Z 10009ad5 f i CAT.obj
 0001:00008b4b       ?UpdateRegistryFromResource@CAtlModule@ATL@@QAGJIHPAU_ATL_REGMAP_ENTRY@2@@Z 10009b4b f i CAT.obj
 0001:00008d16       ?UpdateRegistryFromResource@CAtlModule@ATL@@QAGJPB_WHPAU_ATL_REGMAP_ENTRY@2@@Z 10009d16 f i CAT.obj
 0001:00008ee7       ?VTFromRegType@CRegParser@ATL@@KAHPB_WAAG@Z 10009ee7 f i CAT.obj
 0001:00008f54       ?WindowProc@?$CWindowImplBaseT@VCWindow@ATL@@V?$CWinTraits@$0FGAAAAAA@$0A@@2@@ATL@@SGJPAUHWND__@@IIJ@Z 10009f54 f i CAT.obj
 0001:00009046       ?WriteToStream@CComBSTR@ATL@@QAEJPAUIStream@@@Z 1000a046 f i CAT.obj
 0001:000090a8       ?WriteToStream@CComVariant@ATL@@QAEJPAUIStream@@@Z 1000a0a8 f i CAT.obj
 0001:00009222       ?WriteToStream@CComVariant@ATL@@QAEJPAUIStream@@G@Z 1000a222 f i CAT.obj
 0001:0000928b       ?_AtlInitialConstruct@?$CComObjectRootEx@VCComMultiThreadModel@ATL@@@ATL@@QAEJXZ 1000a28b f i CAT.obj
 0001:000092a0       ?_AtlVerifyStackAvailable@_ATL_SAFE_ALLOCA_IMPL@ATL@@YA_NK@Z 1000a2a0 f i CAT.obj
 0001:0000931e       ?atlCreate@?$CWindowImpl@VCOPOSCAT@@VCWindow@ATL@@V?$CWinTraits@$0FGAAAAAA@$0A@@3@@ATL@@QAEPAUHWND__@@PAU3@V_U_RECT@2@PB_WKKV_U_MENUorID@2@PAX@Z 1000a31e f i CAT.obj
 0001:00009362       ?atlCreate@?$CWindowImplBaseT@VCWindow@ATL@@V?$CWinTraits@$0FGAAAAAA@$0A@@2@@ATL@@QAEPAUHWND__@@PAU3@V_U_RECT@2@PB_WKKV_U_MENUorID@2@GPAX@Z 1000a362 f i CAT.obj
 0001:000093fe       ?copy@?$_Copy@UtagCONNECTDATA@@@ATL@@SAJPAUtagCONNECTDATA@@PBU3@@Z 1000a3fe f i CAT.obj
 0001:00009434       ?copy@?$_CopyInterface@UIConnectionPoint@@@ATL@@SAJPAPAUIConnectionPoint@@PBQAU3@@Z 1000a434 f i CAT.obj
 0001:00009462       ?memcpy_s@Checked@ATL@@YAXPAXIPBXI@Z 1000a462 f i CAT.obj
 0001:00009481       ?ocscpy_s@@YA_NPA_WIPB_W@Z 1000a481 f i CAT.obj
 0001:000094cb       ?wcscpy_s@Checked@ATL@@YAXPA_WIPB_W@Z 1000a4cb f i CAT.obj
 0001:000094e7       _DllCanUnloadNow@0         1000a4e7 f   CAT.obj
 0001:000094f3       _DllGetClassObject@12      1000a4f3 f   CAT.obj
 0001:00009501       _DllMain@12                1000a501 f   CAT.obj
 0001:00009543       _DllRegisterServer@0       1000a543 f   CAT.obj
 0001:00009552       _DllUnregisterServer@0     1000a552 f   CAT.obj
 0001:00009561       _InlineIsEqualGUID         1000a561 f i CAT.obj
 0001:00009591       ___local_stdio_printf_options 1000a591 f i CAT.obj
 0001:00009597       __vswprintf_s_l            1000a597 f i CAT.obj
 0001:00009644       _swprintf_s                1000a644 f i CAT.obj
 0001:00009660       ??0?$CComControl@VCOPOSCAT@@V?$CWindowImpl@VCOPOSCAT@@VCWindow@ATL@@V?$CWinTraits@$0FGAAAAAA@$0A@@3@@ATL@@@ATL@@QAE@XZ 1000a660 f i CATImpl.obj
 0001:00009687       ??0?$CProxy_IOPOSEvents@VCOPOSCAT@@@@QAE@XZ 1000a687 f i CATImpl.obj
 0001:000096a7       ??0CComControlBase@ATL@@QAE@AAPAUHWND__@@@Z 1000a6a7 f i CATImpl.obj
 0001:000096f7       ??0COPOSCAT@@QAE@XZ        1000a6f7 f   CATImpl.obj
 0001:0000972d       ??1?$CComControl@VCOPOSCAT@@V?$CWindowImpl@VCOPOSCAT@@VCWindow@ATL@@V?$CWinTraits@$0FGAAAAAA@$0A@@3@@ATL@@@ATL@@UAE@XZ 1000a72d f i CATImpl.obj
 0001:00009746       ??1?$IConnectionPointImpl@VCOPOSCAT@@$1?DIID__IOPOSCATEvents@@3U_GUID@@BVCComDynamicUnkArray@ATL@@@ATL@@QAE@XZ 1000a746 f i CATImpl.obj
 0001:00009746       ??1?$IConnectionPointImpl@VCOPOSCAT@@$1?IID_IPropertyNotifySink@@3U_GUID@@BVCComDynamicUnkArray@ATL@@@ATL@@QAE@XZ 1000a746 f i CATImpl.obj
 0001:00009783       ??1CComControlBase@ATL@@UAE@XZ 1000a783 f i CATImpl.obj
 0001:000097e6       ??1COPOSCAT@@UAE@XZ        1000a7e6 f   CATImpl.obj
 0001:0000982e       ?AccessDailyLog@COPOSCAT@@UAGJJJJPAJ@Z 1000a82e f   CATImpl.obj
 0001:000098c4       ?AuthorizeCompletion@COPOSCAT@@UAGJJTtagCY@@0JPAJ@Z 1000a8c4 f   CATImpl.obj
 0001:0000996b       ?AuthorizePreSales@COPOSCAT@@UAGJJTtagCY@@0JPAJ@Z 1000a96b f   CATImpl.obj
 0001:00009a12       ?AuthorizeRefund@COPOSCAT@@UAGJJTtagCY@@0JPAJ@Z 1000aa12 f   CATImpl.obj
 0001:00009ab9       ?AuthorizeSales@COPOSCAT@@UAGJJTtagCY@@0JPAJ@Z 1000aab9 f   CATImpl.obj
 0001:00009b60       ?AuthorizeVoid@COPOSCAT@@UAGJJTtagCY@@0JPAJ@Z 1000ab60 f   CATImpl.obj
 0001:00009c07       ?AuthorizeVoidPreSales@COPOSCAT@@UAGJJTtagCY@@0JPAJ@Z 1000ac07 f   CATImpl.obj
 0001:00009cae       ?CashDeposit@COPOSCAT@@UAGJJTtagCY@@JPAJ@Z 1000acae f   CATImpl.obj
 0001:00009d47       ?CheckCard@COPOSCAT@@UAGJJJPAJ@Z 1000ad47 f   CATImpl.obj
 0001:00009dbb       ?CheckHealth@COPOSCAT@@UAGJJPAJ@Z 1000adbb f   CATImpl.obj
 0001:00009e0a       ?ClaimDevice@COPOSCAT@@UAGJJPAJ@Z 1000ae0a f   CATImpl.obj
 0001:00009e7f       ?ClearOutput@COPOSCAT@@UAGJPAJ@Z 1000ae7f f   CATImpl.obj
 0001:00009e9a       ?Close@COPOSCAT@@UAGJPAJ@Z 1000ae9a f   CATImpl.obj
 0001:00009f08       ?CompareFirmwareVersion@COPOSCAT@@UAGJPA_WPAJ1@Z 1000af08 f   CATImpl.obj
 0001:00009f88       ?DirectIO@COPOSCAT@@UAGJJPAJPAPA_W0@Z 1000af88 f   CATImpl.obj
 0001:0000a036       ?DoInvoke@COPOSCAT@@IAEJJPAVOposVariant@@IHPAJ_N@Z 1000b036 f   CATImpl.obj
 0001:0000a112       ?EventClose@COPOSCAT@@IAEXXZ 1000b112 f i CATImpl.obj
 0001:0000a145       ?EventInit@COPOSCAT@@IAEJXZ 1000b145 f i CATImpl.obj
 0001:0000a211       ?EventUninit@COPOSCAT@@IAEXXZ 1000b211 f i CATImpl.obj
 0001:0000a263       ?EventWindowProc@COPOSCAT@@IAGJIIJ@Z 1000b263 f i CATImpl.obj
 0001:0000a336       ?FinalConstruct@COPOSCAT@@QAEJXZ 1000b336 f   CATImpl.obj
 0001:0000a36f       ?FireEventCleanup@COPOSCAT@@IAEXXZ 1000b36f f i CATImpl.obj
 0001:0000a385       ?FireEventSetup@COPOSCAT@@IAE_NXZ 1000b385 f i CATImpl.obj
 0001:0000a3b9       ?FreezeEvents@COPOSCAT@@MAGJH@Z 1000b3b9 f   CATImpl.obj
 0001:0000a419       ?GetOposProp@COPOSCAT@@IAEJJPAFJ@Z 1000b419 f   CATImpl.obj
 0001:0000a43c       ?GetOposProp@COPOSCAT@@IAEJJPAJJ@Z 1000b43c f   CATImpl.obj
 0001:0000a50b       ?GetOposProp@COPOSCAT@@IAEJJPAPA_WJ@Z 1000b50b f   CATImpl.obj
 0001:0000a5e7       ?LockTerminal@COPOSCAT@@UAGJPAJ@Z 1000b5e7 f   CATImpl.obj
 0001:0000a602       ?OnDraw@COPOSCAT@@MAEJAAUATL_DRAWINFO@@@Z 1000b602 f   CATImpl.obj
 0001:0000a6a2       ?Open@COPOSCAT@@UAGJPA_WPAJ@Z 1000b6a2 f   CATImpl.obj
 0001:0000aef6       ?ReleaseDevice@COPOSCAT@@UAGJPAJ@Z 1000bef6 f   CATImpl.obj
 0001:0000af45       ?ResetStatistics@COPOSCAT@@UAGJPA_WPAJ@Z 1000bf45 f   CATImpl.obj
 0001:0000af9c       ?RetrieveStatistics@COPOSCAT@@UAGJPAPA_WPAJ@Z 1000bf9c f   CATImpl.obj
 0001:0000aff3       ?SOProcessID@COPOSCAT@@UAGJPAJ@Z 1000bff3 f   CATImpl.obj
 0001:0000b007       ?SetCOFreezeEvents@COPOSCAT@@IAEXF@Z 1000c007 f   CATImpl.obj
 0001:0000b0a7       ?SetOposProp@COPOSCAT@@IAEJJJJ@Z 1000c0a7 f   CATImpl.obj
 0001:0000b19e       ?SetOposProp@COPOSCAT@@IAEJJPA_WJ@Z 1000c19e f   CATImpl.obj
 0001:0000b29f       ?UnlockTerminal@COPOSCAT@@UAGJPAJ@Z 1000c29f f   CATImpl.obj
 0001:0000b2ba       ?UpdateFirmware@COPOSCAT@@UAGJPA_WPAJ@Z 1000c2ba f   CATImpl.obj
 0001:0000b311       ?UpdateStatistics@COPOSCAT@@UAGJPA_WPAJ@Z 1000c311 f   CATImpl.obj
 0001:0000b368       ?get_AccountNumber@COPOSCAT@@UAGJPAPA_W@Z 1000c368 f   CATImpl.obj
 0001:0000b381       ?get_AdditionalSecurityInformation@COPOSCAT@@UAGJPAPA_W@Z 1000c381 f   CATImpl.obj
 0001:0000b39a       ?get_ApprovalCode@COPOSCAT@@UAGJPAPA_W@Z 1000c39a f   CATImpl.obj
 0001:0000b3b3       ?get_AsyncMode@COPOSCAT@@UAGJPAF@Z 1000c3b3 f   CATImpl.obj
 0001:0000b3cc       ?get_Balance@COPOSCAT@@UAGJPATtagCY@@@Z 1000c3cc f   CATImpl.obj
 0001:0000b466       ?get_BinaryConversion@COPOSCAT@@UAGJPAJ@Z 1000c466 f   CATImpl.obj
 0001:0000b47c       ?get_CapAdditionalSecurityInformation@COPOSCAT@@UAGJPAF@Z 1000c47c f   CATImpl.obj
 0001:0000b495       ?get_CapAuthorizeCompletion@COPOSCAT@@UAGJPAF@Z 1000c495 f   CATImpl.obj
 0001:0000b4ae       ?get_CapAuthorizePreSales@COPOSCAT@@UAGJPAF@Z 1000c4ae f   CATImpl.obj
 0001:0000b4c7       ?get_CapAuthorizeRefund@COPOSCAT@@UAGJPAF@Z 1000c4c7 f   CATImpl.obj
 0001:0000b4e0       ?get_CapAuthorizeVoid@COPOSCAT@@UAGJPAF@Z 1000c4e0 f   CATImpl.obj
 0001:0000b4f9       ?get_CapAuthorizeVoidPreSales@COPOSCAT@@UAGJPAF@Z 1000c4f9 f   CATImpl.obj
 0001:0000b512       ?get_CapCashDeposit@COPOSCAT@@UAGJPAF@Z 1000c512 f   CATImpl.obj
 0001:0000b52b       ?get_CapCenterResultCode@COPOSCAT@@UAGJPAF@Z 1000c52b f   CATImpl.obj
 0001:0000b544       ?get_CapCheckCard@COPOSCAT@@UAGJPAF@Z 1000c544 f   CATImpl.obj
 0001:0000b55d       ?get_CapCompareFirmwareVersion@COPOSCAT@@UAGJPAF@Z 1000c55d f   CATImpl.obj
 0001:0000b576       ?get_CapDailyLog@COPOSCAT@@UAGJPAJ@Z 1000c576 f   CATImpl.obj
 0001:0000b58f       ?get_CapInstallments@COPOSCAT@@UAGJPAF@Z 1000c58f f   CATImpl.obj
 0001:0000b5a8       ?get_CapLockTerminal@COPOSCAT@@UAGJPAF@Z 1000c5a8 f   CATImpl.obj
 0001:0000b5c1       ?get_CapLogStatus@COPOSCAT@@UAGJPAF@Z 1000c5c1 f   CATImpl.obj
 0001:0000b5da       ?get_CapPaymentDetail@COPOSCAT@@UAGJPAF@Z 1000c5da f   CATImpl.obj
 0001:0000b5f3       ?get_CapPowerReporting@COPOSCAT@@UAGJPAJ@Z 1000c5f3 f   CATImpl.obj
 0001:0000b60c       ?get_CapStatisticsReporting@COPOSCAT@@UAGJPAF@Z 1000c60c f   CATImpl.obj
 0001:0000b625       ?get_CapTaxOthers@COPOSCAT@@UAGJPAF@Z 1000c625 f   CATImpl.obj
 0001:0000b63e       ?get_CapTrainingMode@COPOSCAT@@UAGJPAF@Z 1000c63e f   CATImpl.obj
 0001:0000b657       ?get_CapTransactionNumber@COPOSCAT@@UAGJPAF@Z 1000c657 f   CATImpl.obj
 0001:0000b670       ?get_CapUnlockTerminal@COPOSCAT@@UAGJPAF@Z 1000c670 f   CATImpl.obj
 0001:0000b689       ?get_CapUpdateFirmware@COPOSCAT@@UAGJPAF@Z 1000c689 f   CATImpl.obj
 0001:0000b6a2       ?get_CapUpdateStatistics@COPOSCAT@@UAGJPAF@Z 1000c6a2 f   CATImpl.obj
 0001:0000b6bb       ?get_CardCompanyID@COPOSCAT@@UAGJPAPA_W@Z 1000c6bb f   CATImpl.obj
 0001:0000b6d4       ?get_CenterResultCode@COPOSCAT@@UAGJPAPA_W@Z 1000c6d4 f   CATImpl.obj
 0001:0000b6ed       ?get_CheckHealthText@COPOSCAT@@UAGJPAPA_W@Z 1000c6ed f   CATImpl.obj
 0001:0000b706       ?get_Claimed@COPOSCAT@@UAGJPAF@Z 1000c706 f   CATImpl.obj
 0001:0000b71c       ?get_ControlObjectDescription@COPOSCAT@@UAGJPAPA_W@Z 1000c71c f   CATImpl.obj
 0001:0000b76a       ?get_ControlObjectVersion@COPOSCAT@@UAGJPAJ@Z 1000c76a f   CATImpl.obj
 0001:0000b77d       ?get_DailyLog@COPOSCAT@@UAGJPAPA_W@Z 1000c77d f   CATImpl.obj
 0001:0000b796       ?get_DeviceDescription@COPOSCAT@@UAGJPAPA_W@Z 1000c796 f   CATImpl.obj
 0001:0000b7af       ?get_DeviceEnabled@COPOSCAT@@UAGJPAF@Z 1000c7af f   CATImpl.obj
 0001:0000b7c5       ?get_DeviceName@COPOSCAT@@UAGJPAPA_W@Z 1000c7c5 f   CATImpl.obj
 0001:0000b7de       ?get_FreezeEvents@COPOSCAT@@UAGJPAF@Z 1000c7de f   CATImpl.obj
 0001:0000b7f4       ?get_LogStatus@COPOSCAT@@UAGJPAJ@Z 1000c7f4 f   CATImpl.obj
 0001:0000b80d       ?get_OpenResult@COPOSCAT@@UAGJPAJ@Z 1000c80d f   CATImpl.obj
 0001:0000b824       ?get_OutputID@COPOSCAT@@UAGJPAJ@Z 1000c824 f   CATImpl.obj
 0001:0000b83a       ?get_PaymentCondition@COPOSCAT@@UAGJPAJ@Z 1000c83a f   CATImpl.obj
 0001:0000b853       ?get_PaymentDetail@COPOSCAT@@UAGJPAPA_W@Z 1000c853 f   CATImpl.obj
 0001:0000b86c       ?get_PaymentMedia@COPOSCAT@@UAGJPAJ@Z 1000c86c f   CATImpl.obj
 0001:0000b885       ?get_PowerNotify@COPOSCAT@@UAGJPAJ@Z 1000c885 f   CATImpl.obj
 0001:0000b89b       ?get_PowerState@COPOSCAT@@UAGJPAJ@Z 1000c89b f   CATImpl.obj
 0001:0000b8b1       ?get_ResultCode@COPOSCAT@@UAGJPAJ@Z 1000c8b1 f   CATImpl.obj
 0001:0000b8ef       ?get_ResultCodeExtended@COPOSCAT@@UAGJPAJ@Z 1000c8ef f   CATImpl.obj
 0001:0000b905       ?get_SequenceNumber@COPOSCAT@@UAGJPAJ@Z 1000c905 f   CATImpl.obj
 0001:0000b91e       ?get_ServiceObjectDescription@COPOSCAT@@UAGJPAPA_W@Z 1000c91e f   CATImpl.obj
 0001:0000b937       ?get_ServiceObjectVersion@COPOSCAT@@UAGJPAJ@Z 1000c937 f   CATImpl.obj
 0001:0000b94d       ?get_SettledAmount@COPOSCAT@@UAGJPATtagCY@@@Z 1000c94d f   CATImpl.obj
 0001:0000b9e7       ?get_SlipNumber@COPOSCAT@@UAGJPAPA_W@Z 1000c9e7 f   CATImpl.obj
 0001:0000ba00       ?get_State@COPOSCAT@@UAGJPAJ@Z 1000ca00 f   CATImpl.obj
 0001:0000ba2c       ?get_TrainingMode@COPOSCAT@@UAGJPAF@Z 1000ca2c f   CATImpl.obj
 0001:0000ba45       ?get_TransactionNumber@COPOSCAT@@UAGJPAPA_W@Z 1000ca45 f   CATImpl.obj
 0001:0000ba5e       ?get_TransactionType@COPOSCAT@@UAGJPAJ@Z 1000ca5e f   CATImpl.obj
 0001:0000ba77       ?put_AdditionalSecurityInformation@COPOSCAT@@UAGJPA_W@Z 1000ca77 f   CATImpl.obj
 0001:0000ba90       ?put_AsyncMode@COPOSCAT@@UAGJF@Z 1000ca90 f   CATImpl.obj
 0001:0000bab0       ?put_BinaryConversion@COPOSCAT@@UAGJJ@Z 1000cab0 f   CATImpl.obj
 0001:0000bac6       ?put_DeviceEnabled@COPOSCAT@@UAGJF@Z 1000cac6 f   CATImpl.obj
 0001:0000bae3       ?put_FreezeEvents@COPOSCAT@@UAGJF@Z 1000cae3 f   CATImpl.obj
 0001:0000bb2f       ?put_PaymentMedia@COPOSCAT@@UAGJJ@Z 1000cb2f f   CATImpl.obj
 0001:0000bb48       ?put_PowerNotify@COPOSCAT@@UAGJJ@Z 1000cb48 f   CATImpl.obj
 0001:0000bb5e       ?put_TrainingMode@COPOSCAT@@UAGJF@Z 1000cb5e f   CATImpl.obj
 0001:0000bb7e       ?s_EventWindowProc@COPOSCAT@@KGJPAUHWND__@@IIJ@Z 1000cb7e f i CATImpl.obj
 0001:0000bbd0       ??_U@YAPAXI@Z              1000cbd0 f   LIBCMT:new_array.obj
 0001:0000bbd9       ??3@YAXPAXI@Z              1000cbd9 f   LIBCMT:delete_scalar_size.obj
 0001:0000bbe7       ??_V@YAXPAX@Z              1000cbe7 f   LIBCMT:delete_array.obj
 0001:0000bbec       ??_V@YAXPAXI@Z             1000cbec f   LIBCMT:delete_array_size.obj
 0001:0000bc3e       ___scrt_acquire_startup_lock 1000cc3e f   LIBCMT:utility.obj
 0001:0000bc70       ___scrt_dllmain_after_initialize_c 1000cc70 f   LIBCMT:utility.obj
 0001:0000bc9b       ___scrt_dllmain_before_initialize_c 1000cc9b f   LIBCMT:utility.obj
 0001:0000bca9       ___scrt_dllmain_crt_thread_attach 1000cca9 f   LIBCMT:utility.obj
 0001:0000bcc8       ___scrt_dllmain_crt_thread_detach 1000ccc8 f   LIBCMT:utility.obj
 0001:0000bcd5       ___scrt_dllmain_exception_filter 1000ccd5 f   LIBCMT:utility.obj
 0001:0000bd09       ___scrt_dllmain_uninitialize_c 1000cd09 f   LIBCMT:utility.obj
 0001:0000bd2c       ___scrt_dllmain_uninitialize_critical 1000cd2c f   LIBCMT:utility.obj
 0001:0000bd39       ___scrt_initialize_crt     1000cd39 f   LIBCMT:utility.obj
 0001:0000bd72       ___scrt_initialize_onexit_tables 1000cd72 f   LIBCMT:utility.obj
 0001:0000bdf9       ___scrt_is_nonwritable_in_current_image 1000cdf9 f   LIBCMT:utility.obj
 0001:0000be8d       ___scrt_release_startup_lock 1000ce8d f   LIBCMT:utility.obj
 0001:0000beaa       ___scrt_uninitialize_crt   1000ceaa f   LIBCMT:utility.obj
 0001:0000bed2       __onexit                   1000ced2 f   LIBCMT:utility.obj
 0001:0000beff       _atexit                    1000ceff f   LIBCMT:utility.obj
 0001:0000bf14       ??3@YAXPAX@Z               1000cf14 f   LIBCMT:delete_scalar.obj
 0001:0000bfde       __Init_thread_footer       1000cfde f   LIBCMT:thread_safe_statics.obj
 0001:0000c028       __Init_thread_header       1000d028 f   LIBCMT:thread_safe_statics.obj
 0001:0000c07a       __Init_thread_notify       1000d07a f   LIBCMT:thread_safe_statics.obj
 0001:0000c0b0       __Init_thread_wait         1000d0b0 f   LIBCMT:thread_safe_statics.obj
 0001:0000c0fe       ___raise_securityfailure   1000d0fe f   LIBCMT:gs_report.obj
 0001:0000c126       ___report_gsfailure        1000d126 f   LIBCMT:gs_report.obj
 0001:0000c21f       ___report_rangecheckfailure 1000d21f f   LIBCMT:gs_report.obj
 0001:0000c22b       ___report_securityfailure  1000d22b f   LIBCMT:gs_report.obj
 0001:0000c2f9       ??2@YAPAXIABUnothrow_t@std@@@Z 1000d2f9 f   LIBCMT:new_scalar_nothrow.obj
 0001:0000c34e       ??_U@YAPAXIABUnothrow_t@std@@@Z 1000d34e f   LIBCMT:new_array_nothrow.obj
 0001:0000c357       @__security_check_cookie@4 1000d357 f   LIBCMT:secchk.obj
 0001:0000c370       __SEH_prolog4_GS           1000d370 f   LIBCMT:sehprolg4gs.obj
 0001:0000c3b7       __SEH_epilog4_GS           1000d3b7 f   LIBCMT:sehprolg4gs.obj
 0001:0000c3d0       __alloca_probe_16          1000d3d0 f   LIBCMT:alloca16.obj
 0001:0000c3e6       __alloca_probe_8           1000d3e6     LIBCMT:alloca16.obj
 0001:0000c400       __alloca_probe             1000d400 f   LIBCMT:chkstk.obj
 0001:0000c400       __chkstk                   1000d400 f   LIBCMT:chkstk.obj
 0001:0000c76d       __DllMainCRTStartup@12     1000d76d f   LIBCMT:dll_dllmain.obj
 0001:0000c790       ??2@YAPAXI@Z               1000d790 f   LIBCMT:new_scalar.obj
 0001:0000c7c0       ___isa_available_init      1000d7c0 f   LIBCMT:cpu_disp.obj
 0001:0000c990       ___scrt_is_ucrt_dll_in_use 1000d990 f   LIBCMT:ucrt_detection.obj
 0001:0000c99c       ___scrt_fastfail           1000d99c f   LIBCMT:utility_desktop.obj
 0001:0000cab6       __crt_debugger_hook        1000dab6 f   LIBCMT:utility_desktop.obj
 0001:0000cac0       __SEH_prolog4              1000dac0 f   LIBCMT:sehprolg4.obj
 0001:0000cb04       __SEH_epilog4              1000db04 f   LIBCMT:sehprolg4.obj
 0001:0000cb18       @_guard_check_icall_nop@4  1000db18 f i LIBCMT:guard_support.obj
 0001:0000cb68       ___security_init_cookie    1000db68 f   LIBCMT:gs_support.obj
 0001:0000cbb3       ?__scrt_initialize_type_info@@YAXXZ 1000dbb3 f   LIBCMT:tncleanup.obj
 0001:0000cbbf       ?__scrt_uninitialize_type_info@@YAXXZ 1000dbbf f   LIBCMT:tncleanup.obj
 0001:0000cbcb       ___local_stdio_scanf_options 1000dbcb f i LIBCMT:default_local_stdio_options.obj
 0001:0000cbd1       ___scrt_initialize_default_local_stdio_options 1000dbd1 f   LIBCMT:default_local_stdio_options.obj
 0001:0000cbee       ___scrt_get_dyn_tls_init_callback 1000dbee f   LIBCMT:dyn_tls_init.obj
 0001:0000cbf4       __RTC_Initialize           1000dbf4 f   LIBCMT:initsect.obj
 0001:0000cc20       __RTC_Terminate            1000dc20 f   LIBCMT:initsect.obj
 0001:0000cc4c       ??0bad_alloc@std@@QAE@ABV01@@Z 1000dc4c f i LIBCMT:throw_bad_alloc.obj
 0001:0000cc67       ??0bad_alloc@std@@QAE@XZ   1000dc67 f i LIBCMT:throw_bad_alloc.obj
 0001:0000cc7f       ??0bad_array_new_length@std@@QAE@ABV01@@Z 1000dc7f f i LIBCMT:throw_bad_alloc.obj
 0001:0000cc9a       ??0bad_array_new_length@std@@QAE@XZ 1000dc9a f i LIBCMT:throw_bad_alloc.obj
 0001:0000ccb2       ??0exception@std@@QAE@ABV01@@Z 1000dcb2 f i LIBCMT:throw_bad_alloc.obj
 0001:0000ccde       ??1bad_alloc@std@@UAE@XZ   1000dcde f i LIBCMT:throw_bad_alloc.obj
 0001:0000ccde       ??1bad_array_new_length@std@@UAE@XZ 1000dcde f i LIBCMT:throw_bad_alloc.obj
 0001:0000ccde       ??1bad_exception@std@@UAE@XZ 1000dcde f i libvcruntime:frame.obj
 0001:0000ccef       ??_Gbad_alloc@std@@UAEPAXI@Z 1000dcef f i LIBCMT:throw_bad_alloc.obj
 0001:0000ccef       ??_Gbad_exception@std@@UAEPAXI@Z 1000dcef f i libvcruntime:frame.obj
 0001:0000ccef       ??_Ebad_alloc@std@@UAEPAXI@Z 1000dcef f i LIBCMT:throw_bad_alloc.obj
 0001:0000ccef       ??_Ebad_array_new_length@std@@UAEPAXI@Z 1000dcef f i LIBCMT:throw_bad_alloc.obj
 0001:0000ccef       ??_Gexception@std@@UAEPAXI@Z 1000dcef f i LIBCMT:throw_bad_alloc.obj
 0001:0000ccef       ??_Ebad_exception@std@@UAEPAXI@Z 1000dcef f i libvcruntime:frame.obj
 0001:0000ccef       ??_Gbad_array_new_length@std@@UAEPAXI@Z 1000dcef f i LIBCMT:throw_bad_alloc.obj
 0001:0000ccef       ??_Eexception@std@@UAEPAXI@Z 1000dcef f i LIBCMT:throw_bad_alloc.obj
 0001:0000cd1c       ?__scrt_throw_std_bad_alloc@@YAXXZ 1000dd1c f   LIBCMT:throw_bad_alloc.obj
 0001:0000cd39       ?__scrt_throw_std_bad_array_new_length@@YAXXZ 1000dd39 f   LIBCMT:throw_bad_alloc.obj
 0001:0000cd56       ?what@exception@std@@UBEPBDXZ 1000dd56 f i LIBCMT:throw_bad_alloc.obj
 0001:0000cd63       ??_Etype_info@@UAEPAXI@Z   1000dd63 f i LIBCMT:std_type_info_static.obj
 0001:0000cd63       ??_Gtype_info@@UAEPAXI@Z   1000dd63 f i LIBCMT:std_type_info_static.obj
 0001:0000cd86       ??0CAtlBaseModule@ATL@@QAE@XZ 1000dd86 f   atls:atlbase.obj
 0001:0000cdd9       ??0_ATL_BASE_MODULE70@ATL@@QAE@XZ 1000ddd9 f i atls:atlbase.obj
 0001:0000cdfc       ??1CAtlBaseModule@ATL@@QAE@XZ 1000ddfc f   atls:atlbase.obj
 0001:0000cee9       ?Init@_stdcallthunk@ATL@@QAEHKPAX@Z 1000dee9 f i atls:atlthunk.obj
 0001:0000cf1e       ?__AllocStdCallThunk_cmn@@YAPAXXZ 1000df1e f   atls:atlthunk.obj
 0001:0000cfe4       ?__FreeStdCallThunk_cmn@@YAXPAX@Z 1000dfe4 f   atls:atlthunk.obj
 0001:0000d07f       _AtlThunk_AllocateData@0   1000e07f f   atls:atlthunk.obj
 0001:0000d0e4       _AtlThunk_DataToCode@4     1000e0e4 f   atls:atlthunk.obj
 0001:0000d12b       _AtlThunk_FreeData@4       1000e12b f   atls:atlthunk.obj
 0001:0000d181       _AtlThunk_InitData@12      1000e181 f   atls:atlthunk.obj
 0001:0000d1d0       __get_purecall_handler     1000e1d0 f   libvcruntime:purevirt.obj
 0001:0000d1d6       __purecall                 1000e1d6 f   libvcruntime:purevirt.obj
 0001:0000d1f2       _wcsstr                    1000e1f2 f   libvcruntime:wcsstr.obj
 0001:0000d4a0       __except_handler4          1000e4a0 f   libvcruntime:chandler4.obj
 0001:0000d5fe       _memcmp                    1000e5fe f   libvcruntime:memcmp.obj
 0001:0000e510       _memcpy                    1000f510 f   libvcruntime:memcpy.obj
 0001:0000ea90       _memset                    1000fa90 f   libvcruntime:memset.obj
 0001:0000ebea       ___vcrt_initialize         1000fbea f   libvcruntime:initialization.obj
 0001:0000ec09       ___vcrt_thread_attach      1000fc09 f   libvcruntime:initialization.obj
 0001:0000ec14       ___vcrt_thread_detach      1000fc14 f   libvcruntime:initialization.obj
 0001:0000ec1f       ___vcrt_uninitialize       1000fc1f f   libvcruntime:initialization.obj
 0001:0000ec36       ___vcrt_uninitialize_critical 1000fc36 f   libvcruntime:initialization.obj
 0001:0000ec3e       ?GetRangeOfTrysToCheck@__FrameHandler3@@SA?AU?$pair@Viterator@TryBlockMap@__FrameHandler3@@V123@@std@@AAVTryBlockMap@1@HPAXPBU_s_FuncInfo@@H@Z 1000fc3e f   libvcruntime:trnsctrl.obj
 0001:0000ecae       ?_CallCatchBlock2@@YAPAXPAUEHRegistrationNode@@PBU_s_FuncInfo@@PAXHK@Z 1000fcae f   libvcruntime:trnsctrl.obj
 0001:0000ed0c       ?_CallSETranslator@@YAHPAUEHExceptionRecord@@PAUEHRegistrationNode@@PAX2PBU_s_FuncInfo@@H1@Z 1000fd0c f   libvcruntime:trnsctrl.obj
 0001:0000edf2       ?_JumpToContinuation@@YGXPAXPAUEHRegistrationNode@@@Z 1000fdf2 f   libvcruntime:trnsctrl.obj
 0001:0000ee22       ?_UnwindNestedFrames@@YGXPAUEHRegistrationNode@@PAUEHExceptionRecord@@@Z 1000fe22 f   libvcruntime:trnsctrl.obj
 0001:0000ee75       __CatchGuardHandler        1000fe75 f   libvcruntime:trnsctrl.obj
 0001:0000eea6       __CreateFrameInfo          1000fea6 f   libvcruntime:trnsctrl.obj
 0001:0000eeca       __FindAndUnlinkFrame       1000feca f   libvcruntime:trnsctrl.obj
 0001:0000ef12       __TranslatorGuardHandler   1000ff12 f   libvcruntime:trnsctrl.obj
 0001:0000efaf       ___CxxFrameHandler3        1000ffaf f   libvcruntime:trnsctrl.obj
 0001:0000efe5       ___DestructExceptionObject 1000ffe5 f   libvcruntime:ehhelpers.obj
 0001:0000f086       ?_CallMemberFunction0@@YGXQAX0@Z 10010086 f i libvcruntime:ehhelpers.obj
 0001:0000f0eb       __IsExceptionObjectToBeDestroyed 100100eb f   libvcruntime:ehhelpers.obj
 0001:0000f111       ___AdjustPointer           10010111 f   libvcruntime:ehhelpers.obj
 0001:0000f136       ___FrameUnwindFilter       10010136 f   libvcruntime:ehhelpers.obj
 0001:0000f18c       ___std_type_info_compare   1001018c f   libvcruntime:std_type_info.obj
 0001:0000f1c8       ___std_type_info_destroy_list 100101c8 f   libvcruntime:std_type_info.obj
 0001:0000f1eb       ___std_exception_copy      100101eb f   libvcruntime:std_exception.obj
 0001:0000f24e       ___std_exception_destroy   1001024e f   libvcruntime:std_exception.obj
 0001:0000f26d       __CxxThrowException@8      1001026d f   libvcruntime:throw.obj
 0001:0000f2e0       _memmove                   100102e0 f   libvcruntime:memmove.obj
 0001:0000f860       __local_unwind4            10010860 f   libvcruntime:exsup4.obj
 0001:0000f934       __seh_longjmp_unwind4@4    10010934 f   libvcruntime:exsup4.obj
 0001:0000f95c       @_EH4_CallFilterFunc@8     1001095c f   libvcruntime:exsup4.obj
 0001:0000f974       @_EH4_TransferToHandler@8  10010974 f   libvcruntime:exsup4.obj
 0001:0000f990       @_EH4_GlobalUnwind2@8      10010990 f   libvcruntime:exsup4.obj
 0001:0000f9ac       @_EH4_LocalUnwind@16       100109ac f   libvcruntime:exsup4.obj
 0001:0000f9c3       ___except_validate_context_record 100109c3 f   libvcruntime:jbcxrval.obj
 0001:0000f9f3       ___except_validate_jump_buffer 100109f3 f   libvcruntime:jbcxrval.obj
 0001:0000fa20       ___vcrt_freefls@4          10010a20 f   libvcruntime:per_thread_data.obj
 0001:0000fa3c       ___vcrt_freeptd            10010a3c f   libvcruntime:per_thread_data.obj
 0001:0000fa72       ___vcrt_getptd             10010a72 f   libvcruntime:per_thread_data.obj
 0001:0000fa80       ___vcrt_getptd_noexit      10010a80 f   libvcruntime:per_thread_data.obj
 0001:0000fb12       ___vcrt_initialize_ptd     10010b12 f   libvcruntime:per_thread_data.obj
 0001:0000fb45       ___vcrt_uninitialize_ptd   10010b45 f   libvcruntime:per_thread_data.obj
 0001:0000fb60       ___vcrt_initialize_locks   10010b60 f   libvcruntime:locks.obj
 0001:0000fb9c       ___vcrt_uninitialize_locks 10010b9c f   libvcruntime:locks.obj
 0001:0001030e       ??$TypeMatchHelper@V__FrameHandler3@@@@YAHPBU_s_HandlerType@@PBU_s_CatchableType@@PBU_s_ThrowInfo@@@Z 1001130e f i libvcruntime:frame.obj
 0001:0001039c       ??$__InternalCxxFrameHandler@V__FrameHandler3@@@@YA?AW4_EXCEPTION_DISPOSITION@@PAUEHExceptionRecord@@PAUEHRegistrationNode@@PAU_CONTEXT@@PAXPBU_s_FuncInfo@@H1E@Z 1001139c f i libvcruntime:frame.obj
 0001:0001049e       ??0bad_exception@std@@QAE@ABV01@@Z 1001149e f i libvcruntime:frame.obj
 0001:000104b9       ??0bad_exception@std@@QAE@XZ 100114b9 f i libvcruntime:frame.obj
 0001:000104d1       ??8type_info@@QBE_NABV0@@Z 100114d1 f i libvcruntime:frame.obj
 0001:0001073d       ?FrameUnwindToEmptyState@__FrameHandler3@@SAXPAUEHRegistrationNode@@PAXPBU_s_FuncInfo@@@Z 1001173d f   libvcruntime:frame.obj
 0001:00010755       ?FrameUnwindToState@__FrameHandler3@@SAXPAUEHRegistrationNode@@PAXPBU_s_FuncInfo@@H@Z 10011755 f   libvcruntime:frame.obj
 0001:000108d7       ?_CallMemberFunction1@@YGXQAX00@Z 100118d7 f i libvcruntime:frame.obj
 0001:000108e7       ?_CallMemberFunction2@@YGXQAX00H@Z 100118e7 f i libvcruntime:frame.obj
 0001:000108fa       ?getESTypes@__FrameHandler3@@SAPBU_s_ESTypeList@@PBU_s_FuncInfo@@@Z 100118fa f i libvcruntime:frame.obj
 0001:00010910       __CallSettingFrame@12      10011910 f   libvcruntime:lowhelpr.obj
 0001:00010937       __NLG_Return               10011937     libvcruntime:lowhelpr.obj
 0001:00010960       __global_unwind2           10011960 f   libvcruntime:exsup.obj
 0001:000109c6       __local_unwind2            100119c6 f   libvcruntime:exsup.obj
 0001:00010a4a       __abnormal_termination     10011a4a f   libvcruntime:exsup.obj
 0001:00010a70       __NLG_Notify1              10011a70 f   libvcruntime:exsup.obj
 0001:00010a7c       __NLG_Notify               10011a7c f   libvcruntime:exsup.obj
 0001:00010a93       __NLG_Dispatch2            10011a93     libvcruntime:exsup.obj
 0001:00010a93       __NLG_Dispatch             10011a93     libvcruntime:exsup.obj
 0001:00010a9b       __NLG_Call                 10011a9b f   libvcruntime:exsup.obj
 0001:00010a9d       __NLG_Return2              10011a9d     libvcruntime:exsup.obj
 0001:00010b81       ___vcrt_FlsAlloc           10011b81 f   libvcruntime:winapi_downlevel.obj
 0001:00010bbc       ___vcrt_FlsFree            10011bbc f   libvcruntime:winapi_downlevel.obj
 0001:00010bf7       ___vcrt_FlsGetValue        10011bf7 f   libvcruntime:winapi_downlevel.obj
 0001:00010c32       ___vcrt_FlsSetValue        10011c32 f   libvcruntime:winapi_downlevel.obj
 0001:00010c70       ___vcrt_InitializeCriticalSectionEx 10011c70 f   libvcruntime:winapi_downlevel.obj
 0001:00010cb7       _unexpected                10011cb7 f   libvcruntime:unexpected.obj
 0001:00010cd4       ?GetCurrentState@__FrameHandler3@@SAHPAUEHRegistrationNode@@PAXPBU_s_FuncInfo@@@Z 10011cd4 f   libvcruntime:ehstate.obj
 0001:00010cf1       ?SetState@__FrameHandler3@@SAXPAUEHRegistrationNode@@PBU_s_FuncInfo@@H@Z 10011cf1 f   libvcruntime:ehstate.obj
 0001:00010cff       _free                      10011cff f   libucrt:free.obj
 0001:00010d1a       ___acrt_call_reportfault   10011d1a f   libucrt:invalid_parameter.obj
 0001:00010e53       ___acrt_initialize_invalid_parameter_handler 10011e53 f   libucrt:invalid_parameter.obj
 0001:00010e62       __invalid_parameter        10011e62 f   libucrt:invalid_parameter.obj
 0001:00010ec6       __invalid_parameter_noinfo 10011ec6 f   libucrt:invalid_parameter.obj
 0001:00010ed6       __invoke_watson            10011ed6 f   libucrt:invalid_parameter.obj
 0001:00010f0a       ___acrt_errno_from_os_error 10011f0a f   libucrt:errno.obj
 0001:00010f4d       ___acrt_errno_map_os_error 10011f4d f   libucrt:errno.obj
 0001:00010f70       ___doserrno                10011f70 f   libucrt:errno.obj
 0001:00010f83       __errno                    10011f83 f   libucrt:errno.obj
 0001:00010f96       _calloc                    10011f96 f   libucrt:calloc.obj
 0001:00010fa1       _malloc                    10011fa1 f   libucrt:malloc.obj
 0001:00010fac       __recalloc                 10011fac f   libucrt:recalloc.obj
 0001:00010fb7       __recalloc_base            10011fb7 f   libucrt:recalloc.obj
 0001:00011024       __resetstkoflw             10012024 f   libucrt:resetstk.obj
 0001:000110e9       _wcscat_s                  100120e9 f   libucrt:wcscat_s.obj
 0001:0001115e       _wcscpy_s                  1001215e f   libucrt:wcscpy_s.obj
 0001:0001128d       _wcsncpy_s                 1001228d f   libucrt:wcsncpy_s.obj
 0001:00011499       ??$count@D@formatting_buffer@__crt_stdio_output@@QBEIXZ 10012499 f i libucrt:output.obj
 0001:000114b1       ??$count@_W@formatting_buffer@__crt_stdio_output@@QBEIXZ 100124b1 f i libucrt:output.obj
 0001:000114ca       ??$ensure_buffer_is_big_enough@D@formatting_buffer@__crt_stdio_output@@QAE_NI@Z 100124ca f i libucrt:output.obj
 0001:00011547       ??$ensure_buffer_is_big_enough@_W@formatting_buffer@__crt_stdio_output@@QAE_NI@Z 10012547 f i libucrt:output.obj
 0001:000115c5       ??$is_wide_character_specifier@_W@__crt_stdio_output@@YA_N_K_WW4length_modifier@0@@Z 100125c5 f i libucrt:output.obj
 0001:00011613       ??$scratch_data@D@formatting_buffer@__crt_stdio_output@@QAEPADXZ 10012613 f i libucrt:output.obj
 0001:00011631       ??$type_case_integer_parse_into_buffer@I@?$output_processor@_WV?$string_output_adapter@_W@__crt_stdio_output@@V?$format_validation_base@_WV?$string_output_adapter@_W@__crt_stdio_output@@@2@@__crt_stdio_output@@AAEXII_N@Z 10012631 f i libucrt:output.obj
 0001:000116b8       ??$type_case_integer_parse_into_buffer@_K@?$output_processor@_WV?$string_output_adapter@_W@__crt_stdio_output@@V?$format_validation_base@_WV?$string_output_adapter@_W@__crt_stdio_output@@@2@@__crt_stdio_output@@AAEX_KI_N@Z 100126b8 f i libucrt:output.obj
 0001:0001175a       ??$write_multiple_characters@V?$string_output_adapter@_W@__crt_stdio_output@@D@__crt_stdio_output@@YAXABV?$string_output_adapter@_W@0@DHQAH@Z 1001275a f i libucrt:output.obj
 0001:0001178b       ??0?$common_data@_W@__crt_stdio_output@@IAE@XZ 1001278b f i libucrt:output.obj
 0001:000117d5       ??0?$output_adapter_data@_WV?$string_output_adapter@_W@__crt_stdio_output@@@__crt_stdio_output@@IAE@ABV?$string_output_adapter@_W@1@_KQB_WQAU__crt_locale_pointers@@QAD@Z 100127d5 f i libucrt:output.obj
 0001:00011811       ??0_LocaleUpdate@@QAE@QAU__crt_locale_pointers@@@Z 10012811 f i libucrt:output.obj
 0001:00011894       ??1formatting_buffer@__crt_stdio_output@@QAE@XZ 10012894 f i libucrt:output.obj
 0001:000118ae       ??4?$__crt_unique_heap_ptr@DU__crt_internal_free_policy@@@@QAEAAV0@$$QAV0@@Z 100128ae f i libucrt:output.obj
 0001:000118e0       ?crop_zeroes@__crt_stdio_output@@YAXPADQAU__crt_locale_pointers@@@Z 100128e0 f i libucrt:output.obj
 0001:00011961       ?find_next_state@?$output_processor@_WV?$string_output_adapter@_W@__crt_stdio_output@@V?$format_validation_base@_WV?$string_output_adapter@_W@__crt_stdio_output@@@2@@__crt_stdio_output@@ABE?AW4state@2@_WW432@@Z 10012961 f i libucrt:output.obj
 0001:000119a0       ?force_decimal_point@__crt_stdio_output@@YAXPADQAU__crt_locale_pointers@@@Z 100129a0 f i libucrt:output.obj
 0001:00011a05       ?parse_int_from_format_string@?$output_processor@_WV?$string_output_adapter@_W@__crt_stdio_output@@V?$format_validation_base@_WV?$string_output_adapter@_W@__crt_stdio_output@@@2@@__crt_stdio_output@@AAE_NQAH@Z 10012a05 f i libucrt:output.obj
 0001:00011a7b       ?process@?$output_processor@_WV?$string_output_adapter@_W@__crt_stdio_output@@V?$format_validation_base@_WV?$string_output_adapter@_W@__crt_stdio_output@@@2@@__crt_stdio_output@@QAEHXZ 10012a7b f i libucrt:output.obj
 0001:00011ba3       ?state_case_flag@?$output_processor@_WV?$string_output_adapter@_W@__crt_stdio_output@@V?$format_validation_base@_WV?$string_output_adapter@_W@__crt_stdio_output@@@2@@__crt_stdio_output@@AAE_NXZ 10012ba3 f i libucrt:output.obj
 0001:00011be0       ?state_case_normal@?$output_processor@_WV?$string_output_adapter@_W@__crt_stdio_output@@V?$format_validation_base@_WV?$string_output_adapter@_W@__crt_stdio_output@@@2@@__crt_stdio_output@@AAE_NXZ 10012be0 f i libucrt:output.obj
 0001:00011bff       ?state_case_normal_common@?$output_processor@_WV?$string_output_adapter@_W@__crt_stdio_output@@V?$format_validation_base@_WV?$string_output_adapter@_W@__crt_stdio_output@@@2@@__crt_stdio_output@@AAE_NXZ 10012bff f i libucrt:output.obj
 0001:00011c1a       ?state_case_precision@?$output_processor@_WV?$string_output_adapter@_W@__crt_stdio_output@@V?$format_validation_base@_WV?$string_output_adapter@_W@__crt_stdio_output@@@2@@__crt_stdio_output@@AAE_NXZ 10012c1a f i libucrt:output.obj
 0001:00011c41       ?state_case_size@?$output_processor@_WV?$string_output_adapter@_W@__crt_stdio_output@@V?$format_validation_base@_WV?$string_output_adapter@_W@__crt_stdio_output@@@2@@__crt_stdio_output@@AAE_NXZ 10012c41 f i libucrt:output.obj
 0001:00011db9       ?state_case_type@?$output_processor@_WV?$string_output_adapter@_W@__crt_stdio_output@@V?$format_validation_base@_WV?$string_output_adapter@_W@__crt_stdio_output@@@2@@__crt_stdio_output@@AAE_NXZ 10012db9 f i libucrt:output.obj
 0001:00012016       ?state_case_width@?$output_processor@_WV?$string_output_adapter@_W@__crt_stdio_output@@V?$format_validation_base@_WV?$string_output_adapter@_W@__crt_stdio_output@@@2@@__crt_stdio_output@@AAE_NXZ 10013016 f i libucrt:output.obj
 0001:00012050       ?to_integer_size@__crt_stdio_output@@YAIW4length_modifier@1@@Z 10013050 f i libucrt:output.obj
 0001:000120ac       ?type_case_Z@?$output_processor@_WV?$string_output_adapter@_W@__crt_stdio_output@@V?$format_validation_base@_WV?$string_output_adapter@_W@__crt_stdio_output@@@2@@__crt_stdio_output@@AAE_NXZ 100130ac f i libucrt:output.obj
 0001:00012106       ?type_case_a@?$output_processor@_WV?$string_output_adapter@_W@__crt_stdio_output@@V?$format_validation_base@_WV?$string_output_adapter@_W@__crt_stdio_output@@@2@@__crt_stdio_output@@AAE_NXZ 10013106 f i libucrt:output.obj
 0001:0001226d       ?type_case_c_tchar@?$output_processor@_WV?$string_output_adapter@_W@__crt_stdio_output@@V?$format_validation_base@_WV?$string_output_adapter@_W@__crt_stdio_output@@@2@@__crt_stdio_output@@AAE_N_W@Z 1001326d f i libucrt:output.obj
 0001:00012303       ?type_case_integer@?$output_processor@_WV?$string_output_adapter@_W@__crt_stdio_output@@V?$format_validation_base@_WV?$string_output_adapter@_W@__crt_stdio_output@@@2@@__crt_stdio_output@@AAE_NI_N@Z 10013303 f i libucrt:output.obj
 0001:00012458       ?type_case_n@?$output_processor@_WV?$string_output_adapter@_W@__crt_stdio_output@@V?$format_validation_base@_WV?$string_output_adapter@_W@__crt_stdio_output@@@2@@__crt_stdio_output@@AAE_NXZ 10013458 f i libucrt:output.obj
 0001:000124cc       ?type_case_o@?$output_processor@_WV?$string_output_adapter@_W@__crt_stdio_output@@V?$format_validation_base@_WV?$string_output_adapter@_W@__crt_stdio_output@@@2@@__crt_stdio_output@@AAE_NXZ 100134cc f i libucrt:output.obj
 0001:000124eb       ?type_case_p@?$output_processor@_WV?$string_output_adapter@_W@__crt_stdio_output@@V?$format_validation_base@_WV?$string_output_adapter@_W@__crt_stdio_output@@@2@@__crt_stdio_output@@AAE_NXZ 100134eb f i libucrt:output.obj
 0001:00012503       ?type_case_s@?$output_processor@_WV?$string_output_adapter@_W@__crt_stdio_output@@V?$format_validation_base@_WV?$string_output_adapter@_W@__crt_stdio_output@@@2@@__crt_stdio_output@@AAE_NXZ 10013503 f i libucrt:output.obj
 0001:00012576       ?type_case_s_compute_narrow_string_length@?$output_processor@_WV?$string_output_adapter@_W@__crt_stdio_output@@V?$format_validation_base@_WV?$string_output_adapter@_W@__crt_stdio_output@@@2@@__crt_stdio_output@@ABEHH_W@Z 10013576 f i libucrt:output.obj
 0001:000125bd       ?validate@?$c_string_character_source@_W@__crt_strtox@@QBE_NXZ 100135bd f i libucrt:atox.obj
 0001:000125bd       ?validate@?$string_output_adapter@_W@__crt_stdio_output@@QBE_NXZ 100135bd f i libucrt:output.obj
 0001:000125d8       ?validate_and_update_state_at_end_of_format_string@?$format_validation_base@_WV?$string_output_adapter@_W@__crt_stdio_output@@@__crt_stdio_output@@IBE_NXZ 100135d8 f i libucrt:output.obj
 0001:000125fa       ?write_character@?$string_output_adapter@_W@__crt_stdio_output@@QBE_N_WQAH@Z 100135fa f i libucrt:output.obj
 0001:0001263f       ?write_stored_string_tchar@?$output_processor@_WV?$string_output_adapter@_W@__crt_stdio_output@@V?$format_validation_base@_WV?$string_output_adapter@_W@__crt_stdio_output@@@2@@__crt_stdio_output@@AAE_N_W@Z 1001363f f i libucrt:output.obj
 0001:000126cc       ?write_string@?$string_output_adapter@_W@__crt_stdio_output@@QBEXQB_WHQAHAAV__crt_deferred_errno_cache@@@Z 100136cc f i libucrt:output.obj
 0001:0001273d       ___acrt_locale_get_ctype_array_value 1001373d f i libucrt:output.obj
 0001:0001275f       ___stdio_common_vswprintf_s 1001375f f   libucrt:output.obj
 0001:00012783       __seh_filter_dll           10013783 f   libucrt:exception_filter.obj
 0001:000127a3       __seh_filter_exe           100137a3 f   libucrt:exception_filter.obj
 0001:00012b71       ___acrt_initialize_thread_local_exit_callback 10013b71 f   libucrt:exit.obj
 0001:00012b80       __cexit                    10013b80 f   libucrt:exit.obj
 0001:00012b8f       __exit                     10013b8f f   libucrt:exit.obj
 0001:00012ba5       __is_c_termination_complete 10013ba5 f   libucrt:exit.obj
 0001:00012e56       ___acrt_allocate_buffer_for_argv 10013e56 f   libucrt:argv_parsing.obj
 0001:00012ea5       __configure_narrow_argv    10013ea5 f   libucrt:argv_parsing.obj
 0001:00013002       ??$uninitialize@A6AXAAPAPA_W@Z@?$dual_state_global@PAPA_W@__crt_state_management@@QAEXA6AXAAPAPA_W@Z@Z 10014002 f i libucrt:environment_initialization.obj
 0001:00013002       ??$uninitialize@A6AXAAPAPAD@Z@?$dual_state_global@PAPAD@__crt_state_management@@QAEXA6AXAAPAPAD@Z@Z 10014002 f i libucrt:environment_initialization.obj
 0001:00013061       ___dcrt_uninitialize_environments_nolock 10014061 f   libucrt:environment_initialization.obj
 0001:00013098       __initialize_narrow_environment 10014098 f   libucrt:environment_initialization.obj
 0001:00013153       ??$__crt_fast_encode_pointer@PAX@@YAPAXQAX@Z 10014153 f i libucrt:initialization.obj
 0001:00013153       ??$__crt_fast_encode_pointer@PAP6AXXZ@@YAPAP6AXXZQAP6AXXZ@Z 10014153 f i libucrt:onexit.obj
 0001:00013153       ??$__crt_fast_encode_pointer@P6AHXZ@@YAP6AHXZQ6AHXZ@Z 10014153 f i libucrt:onexit.obj
 0001:00013375       __crt_atexit               10014375 f   libucrt:onexit.obj
 0001:0001338b       __execute_onexit_table     1001438b f   libucrt:onexit.obj
 0001:000133b8       __initialize_onexit_table  100143b8 f   libucrt:onexit.obj
 0001:000133e1       __register_onexit_function 100143e1 f   libucrt:onexit.obj
 0001:0001343b       ___acrt_uninitialize_command_line 1001443b f   libucrt:argv_data.obj
 0001:00013512       ___acrt_initialize         10014512 f   libucrt:initialization.obj
 0001:00013524       ___acrt_thread_attach      10014524 f   libucrt:initialization.obj
 0001:0001352f       ___acrt_thread_detach      1001452f f   libucrt:initialization.obj
 0001:00013537       ___acrt_uninitialize       10014537 f   libucrt:initialization.obj
 0001:00013567       ___acrt_uninitialize_critical 10014567 f   libucrt:initialization.obj
 0001:00013579       __initterm                 10014579 f   libucrt:initterm.obj
 0001:000135be       __initterm_e               100145be f   libucrt:initterm.obj
 0001:000135ec       ___acrt_initialize_new_handler 100145ec f   libucrt:new_handler.obj
 0001:000135fb       __callnewh                 100145fb f   libucrt:new_handler.obj
 0001:00013628       __query_new_handler        10014628 f   libucrt:new_handler.obj
 0001:00013684       _terminate                 10014684 f   libucrt:terminate.obj
 0001:000136c0       _abort                     100146c0 f   libucrt:abort.obj
 0001:00013704       _strcpy_s                  10014704 f   libucrt:strcpy_s.obj
 0001:0001375e       ??$is_overflow_condition@K@__crt_strtox@@YA_NIK@Z 1001475e f i libucrt:atox.obj
 0001:0001378f       ??$parse_integer@KV?$c_string_character_source@_W@__crt_strtox@@@__crt_strtox@@YAKQAU__crt_locale_pointers@@V?$c_string_character_source@_W@0@H_N@Z 1001478f f i libucrt:atox.obj
 0001:00013d97       ?unget@?$c_string_character_source@_W@__crt_strtox@@QAEX_W@Z 10014d97 f i libucrt:atox.obj
 0001:00013dd0       _strncmp                   10014dd0 f   libucrt:strncmp.obj
 0001:00013e48       _wcsncmp                   10014e48 f   libucrt:wcsncmp.obj
 0001:00013e82       __free_base                10014e82 f   libucrt:free_base.obj
 0001:000141fa       ___acrt_freeptd            100151fa f   libucrt:per_thread_data.obj
 0001:00014226       ___acrt_getptd             10015226 f   libucrt:per_thread_data.obj
 0001:000142e3       ___acrt_getptd_head        100152e3 f   libucrt:per_thread_data.obj
 0001:0001437d       ___acrt_getptd_noexit      1001537d f   libucrt:per_thread_data.obj
 0001:00014432       ___acrt_initialize_ptd     10015432 f   libucrt:per_thread_data.obj
 0001:0001445e       ___acrt_uninitialize_ptd   1001545e f   libucrt:per_thread_data.obj
 0001:00014478       __calloc_base              10015478 f   libucrt:calloc_base.obj
 0001:000144d5       __malloc_base              100154d5 f   libucrt:malloc_base.obj
 0001:00014523       __msize_base               10015523 f   libucrt:msize.obj
 0001:00014556       __realloc_base             10015556 f   libucrt:realloc_base.obj
 0001:00014757       ___acrt_AppPolicyGetProcessTerminationMethodInternal@4 10015757 f   libucrt:winapi_thunks.obj
 0001:00014797       ___acrt_AreFileApisANSI@0  10015797 f   libucrt:winapi_thunks.obj
 0001:000147b6       ___acrt_FlsAlloc@4         100157b6 f   libucrt:winapi_thunks.obj
 0001:000147f5       ___acrt_FlsFree@4          100157f5 f   libucrt:winapi_thunks.obj
 0001:00014834       ___acrt_FlsGetValue@4      10015834 f   libucrt:winapi_thunks.obj
 0001:00014873       ___acrt_FlsSetValue@8      10015873 f   libucrt:winapi_thunks.obj
 0001:000148b5       ___acrt_InitializeCriticalSectionEx@12 100158b5 f   libucrt:winapi_thunks.obj
 0001:00014900       ___acrt_LCMapStringEx@36   10015900 f   libucrt:winapi_thunks.obj
 0001:0001495d       ___acrt_LocaleNameToLCID@8 1001595d f   libucrt:winapi_thunks.obj
 0001:0001498e       ___acrt_SetThreadStackGuarantee@4 1001598e f   libucrt:winapi_thunks.obj
 0001:000149c9       ___acrt_initialize_winapi_thunks 100159c9 f   libucrt:winapi_thunks.obj
 0001:000149f4       ___acrt_uninitialize_winapi_thunks 100159f4 f   libucrt:winapi_thunks.obj
 0001:00014a2a       ??$make_c_string_character_source@_WPAPA_W@__crt_strtox@@YA?AV?$c_string_character_source@_W@0@QB_WQAPA_W@Z 10015a2a f i libucrt:strtox.obj
 0001:00014a45       _wcstol                    10015a45 f   libucrt:strtox.obj
 0001:00014a6f       __mbtowc_l                 10015a6f f   libucrt:mbtowc.obj
 0001:00014bb1       _mbtowc                    10015bb1 f   libucrt:mbtowc.obj
 0001:00014bcb       _wcsnlen                   10015bcb f   libucrt:strnlen.obj
 0001:00014d7b       ___acrt_update_locale_info 10015d7b f   libucrt:locale_update.obj
 0001:00014da8       ___acrt_update_multibyte_info 10015da8 f   libucrt:locale_update.obj
 0001:00014dd5       ?__acrt_fp_classify@@YA?AW4__acrt_fp_class@@ABN@Z 10015dd5 f i libucrt:cvt.obj
 0001:00015787       ___acrt_fp_format          10016787 f   libucrt:cvt.obj
 0001:000158e5       __fileno                   100168e5 f   libucrt:fileno.obj
 0001:0001590c       ___acrt_initialize_stdio   1001690c f   libucrt:_file.obj
 0001:000159d4       ___acrt_uninitialize_stdio 100169d4 f   libucrt:_file.obj
 0001:00015a20       __lock_file                10016a20 f   libucrt:_file.obj
 0001:00015a34       __unlock_file              10016a34 f   libucrt:_file.obj
 0001:00015a48       __get_printf_count_output  10016a48 f   libucrt:printf_count_output.obj
 0001:00015acb       ___acrt_set_locale_changed 10016acb f   libucrt:wsetlocale.obj
 0001:00015ad6       ___acrt_uninitialize_locale 10016ad6 f   libucrt:wsetlocale.obj
 0001:00015c67       ___acrt_initialize_lowio   10016c67 f   libucrt:ioinit.obj
 0001:00015cc7       ___acrt_uninitialize_lowio 10016cc7 f   libucrt:ioinit.obj
 0001:00015cf3       ___acrt_initialize_locks   10016cf3 f   libucrt:locks.obj
 0001:00015d34       ___acrt_lock               10016d34 f   libucrt:locks.obj
 0001:00015d4b       ___acrt_uninitialize_locks 10016d4b f   libucrt:locks.obj
 0001:00015d7c       ___acrt_unlock             10016d7c f   libucrt:locks.obj
 0001:00015d93       ___acrt_get_process_end_policy 10016d93 f   libucrt:win_policies.obj
 0001:00015f5d       ??$__acrt_mbs_to_wcs_cp@U__crt_win32_buffer_internal_dynamic_resizing@@@@YAHQBDAAV?$__crt_win32_buffer@_WU__crt_win32_buffer_internal_dynamic_resizing@@@@I@Z 10016f5d f i libucrt:argv_wildcards.obj
 0001:00016471       ?__acrt_get_utf8_acp_compatibility_codepage@@YAIXZ 10017471 f i libucrt:argv_wildcards.obj
 0001:000164b0       ?_deallocate@?$__crt_win32_buffer@DU__crt_win32_buffer_internal_dynamic_resizing@@@@AAEXXZ 100174b0 f i libucrt:argv_wildcards.obj
 0001:000164b0       ?_deallocate@?$__crt_win32_buffer@_WU__crt_win32_buffer_internal_dynamic_resizing@@@@AAEXXZ 100174b0 f i libucrt:argv_wildcards.obj
 0001:000164ca       ?allocate@?$__crt_win32_buffer@DU__crt_win32_buffer_internal_dynamic_resizing@@@@QAEHI@Z 100174ca f i libucrt:argv_wildcards.obj
 0001:00016506       ?allocate@?$__crt_win32_buffer@_WU__crt_win32_buffer_internal_dynamic_resizing@@@@QAEHI@Z 10017506 f i libucrt:argv_wildcards.obj
 0001:00016545       ?allocate@__crt_win32_buffer_internal_dynamic_resizing@@SAHQAPAXIABV__crt_win32_buffer_empty_debug_info@@@Z 10017545 f i libucrt:argv_wildcards.obj
 0001:000165eb       ___acrt_expand_narrow_argv_wildcards 100175eb f   libucrt:argv_wildcards.obj
 0001:000166bd       ?allocate@?$__crt_win32_buffer@DU__crt_win32_buffer_no_resizing@@@@QAEHI@Z 100176bd f i libucrt:getmodulefilenamea.obj
 0001:000166e4       ?set_to_nullptr@?$__crt_win32_buffer@DU__crt_win32_buffer_no_resizing@@@@QAEXXZ 100176e4 f i libucrt:getmodulefilenamea.obj
 0001:000166f8       ___acrt_GetModuleFileNameA 100176f8 f   libucrt:getmodulefilenamea.obj
 0001:00016cb1       ___acrt_initialize_multibyte 10017cb1 f   libucrt:mbctype.obj
 0001:00016cf9       ___acrt_update_thread_multibyte_data 10017cf9 f   libucrt:mbctype.obj
 0001:00016d0c       __setmbcp_nolock           10017d0c f   libucrt:mbctype.obj
 0001:00016fd7       __ismbblead                10017fd7 f   libucrt:ismbbyte.obj
 0001:00016fef       ___acrt_initialize_command_line 10017fef f   libucrt:argv_data.obj
 0001:00017008       ___acrt_MultiByteToWideChar 10018008 f   libucrt:multibytetowidechar.obj
 0001:00017084       ___acrt_WideCharToMultiByte 10018084 f   libucrt:widechartomultibyte.obj
 0001:00017172       ___dcrt_get_narrow_environment_from_os 10018172 f   libucrt:get_environment_from_os.obj
 0001:000171f6       ___acrt_initialize_heap    100181f6 f   libucrt:heap_handle.obj
 0001:00017207       ___acrt_uninitialize_heap  10018207 f   libucrt:heap_handle.obj
 0001:00017211       ___acrt_execute_initializers 10018211 f   libucrt:shared_initialization.obj
 0001:00017279       ___acrt_execute_uninitializers 10018279 f   libucrt:shared_initialization.obj
 0001:00017378       ___acrt_get_sigabrt_handler 10018378 f   libucrt:signal.obj
 0001:0001739f       ___acrt_initialize_signal_handlers 1001839f f   libucrt:signal.obj
 0001:000173bd       _raise                     100183bd f   libucrt:signal.obj
 0001:000175b0       ___acrt_has_user_matherr   100185b0 f   libucrt:matherr.obj
 0001:000175c8       ___acrt_initialize_user_matherr 100185c8 f   libucrt:matherr.obj
 0001:000175d7       ___acrt_invoke_user_matherr 100185d7 f   libucrt:matherr.obj
 0001:000177e6       ___acrt_stdio_flush_nolock 100187e6 f   libucrt:fflush.obj
 0001:0001784b       __fflush_nolock            1001884b f   libucrt:fflush.obj
 0001:00017893       __flushall                 10018893 f   libucrt:fflush.obj
 0001:0001789c       ___pctype_func             1001889c f   libucrt:ctype.obj
 0001:000178c0       _iswctype                  100188c0 f   libucrt:iswctype.obj
 0001:00017929       ___acrt_add_locale_ref     10018929 f   libucrt:locale_refcounting.obj
 0001:000179a6       ___acrt_free_locale        100189a6 f   libucrt:locale_refcounting.obj
 0001:00017aee       ___acrt_locale_add_lc_time_reference 10018aee f   libucrt:locale_refcounting.obj
 0001:00017b17       ___acrt_locale_free_lc_time_if_unreferenced 10018b17 f   libucrt:locale_refcounting.obj
 0001:00017b48       ___acrt_locale_release_lc_time_reference 10018b48 f   libucrt:locale_refcounting.obj
 0001:00017b71       ___acrt_release_locale_ref 10018b71 f   libucrt:locale_refcounting.obj
 0001:00017bf2       ___acrt_update_thread_locale_data 10018bf2 f   libucrt:locale_refcounting.obj
 0001:00017c73       __updatetlocinfoEx_nolock  10018c73 f   libucrt:locale_refcounting.obj
 0001:00017cc3       __query_new_mode           10018cc3 f   libucrt:new_mode.obj
 0001:00017d1a       ___acrt_DownlevelLocaleNameToLCID 10018d1a f   libucrt:lcidtoname_downlevel.obj
 0001:00017d46       __isleadbyte_l             10018d46 f i libucrt:_wctype.obj
 0001:00017dac       ?__mbrtowc_utf8@__crt_mbstring@@YAIPA_WPBDIPAU_Mbstatet@@@Z 10018dac f   libucrt:mbrtowc.obj
 0001:00017dec       ?__mbsrtowcs_utf8@__crt_mbstring@@YAIPA_WPAPBDIPAU_Mbstatet@@@Z 10018dec f   libucrt:mbrtowc.obj
 0001:00017ee7       ?return_illegal_sequence@__crt_mbstring@@YAIPAU_Mbstatet@@@Z 10018ee7 f i libucrt:c32rtomb.obj
 0001:00017f71       ___acrt_fp_strflt_to_string 10018f71 f   libucrt:_fptostr.obj
 0001:00018050       ?divide@__crt_strtox@@YA_KAAUbig_integer@1@ABU21@@Z 10019050 f i libucrt:cfout.obj
 0001:000184e8       ___acrt_fltout             100194e8 f   libucrt:cfout.obj
 0001:000199ef       _fegetround                1001a9ef f   libucrt:fegetround.obj
 0001:000199fc       __fcloseall                1001a9fc f   libucrt:closeall.obj
 0001:00019aa7       ___acrt_stdio_free_buffer_nolock 1001aaa7 f   libucrt:_freebuf.obj
 0001:00019ae7       __isatty                   1001aae7 f   libucrt:isatty.obj
 0001:00019b3d       ___acrt_locale_free_monetary 1001ab3d f   libucrt:initmon.obj
 0001:00019c3b       ___acrt_locale_free_numeric 1001ac3b f   libucrt:initnum.obj
 0001:00019cdc       ___acrt_locale_free_time   1001acdc f   libucrt:inittime.obj
 0001:00019dc0       ___acrt_GetStringTypeA     1001adc0 f   libucrt:getstringtypea.obj
 0001:00019ec3       __freea_crt                1001aec3 f i libucrt:getstringtypea.obj
 0001:00019ee3       ___acrt_lowio_create_handle_array 1001aee3 f   libucrt:osfinfo.obj
 0001:00019f5e       ___acrt_lowio_destroy_handle_array 1001af5e f   libucrt:osfinfo.obj
 0001:00019f93       ___acrt_lowio_ensure_fh_exists 1001af93 f   libucrt:osfinfo.obj
 0001:0001a031       ___acrt_lowio_lock_fh      1001b031 f   libucrt:osfinfo.obj
 0001:0001a054       ___acrt_lowio_unlock_fh    1001b054 f   libucrt:osfinfo.obj
 0001:0001a077       __free_osfhnd              1001b077 f   libucrt:osfinfo.obj
 0001:0001a108       __get_osfhandle            1001b108 f   libucrt:osfinfo.obj
 0001:0001a180       _qsort                     1001b180 f   libucrt:qsort.obj
 0001:0001a721       _strncpy_s                 1001b721 f   libucrt:strncpy_s.obj
 0001:0001a730       _strpbrk                   1001b730 f   libucrt:strpbrk.obj
 0001:0001a770       __mbsdec                   1001b770 f   libucrt:mbsdec.obj
 0001:0001a787       __mbsdec_l                 1001b787 f   libucrt:mbsdec.obj
 0001:0001a9fe       ___acrt_LCMapStringA       1001b9fe f   libucrt:lcmapstringa.obj
 0001:0001aaf8       __commit                   1001baf8 f   libucrt:commit.obj
 0001:0001b2f0       __write                    1001c2f0 f   libucrt:write.obj
 0001:0001b3e2       __write_nolock             1001c3e2 f   libucrt:write.obj
 0001:0001b5bc       ___acrt_GetStringTypeW     1001c5bc f   libucrt:getstringtypew.obj
 0001:0001b5d5       ___ascii_wcsnicmp          1001c5d5 f   libucrt:wcsnicmp.obj
 0001:0001b624       ?__mbrtoc32_utf8@__crt_mbstring@@YAIPA_UPBDIPAU_Mbstatet@@@Z 1001c624 f   libucrt:mbrtoc32.obj
 0001:0001b7cb       __controlfp_s              1001c7cb f   libucrt:contrlfp.obj
 0001:0001b82a       _fegetenv                  1001c82a f   libucrt:fegetenv.obj
 0001:0001b847       _fesetenv                  1001c847 f   libucrt:fesetenv.obj
 0001:0001b892       _feholdexcept              1001c892 f   libucrt:feholdexcept.obj
 0001:0001b8e0       __CIlog10                  1001c8e0 f   libucrt:log10_impl.obj
 0001:0001b91b       __CIlog10_default          1001c91b f   libucrt:log10_impl.obj
 0001:0001b92f       __log10_default            1001c92f     libucrt:log10_impl.obj
 0001:0001b9f0       _ceil                      1001c9f0 f   libucrt:ceil_pentium4.obj
 0001:0001ba30       __ceil_pentium4            1001ca30 f   libucrt:ceil_pentium4.obj
 0001:0001be2a       ___acrt_fenv_get_common_round_control 1001ce2a f   libucrt:_fenvutils.obj
 0001:0001be4c       ___acrt_fenv_get_control   1001ce4c f   libucrt:_fenvutils.obj
 0001:0001becc       ___acrt_fenv_get_status    1001cecc f   libucrt:_fenvutils.obj
 0001:0001bf84       ___acrt_fenv_set_control   1001cf84 f   libucrt:_fenvutils.obj
 0001:0001bfec       ___acrt_fenv_set_status    1001cfec f   libucrt:_fenvutils.obj
 0001:0001c15f       __lseeki64_nolock          1001d15f f   libucrt:lseek.obj
 0001:0001c17a       __fclose_nolock            1001d17a f   libucrt:fclose.obj
 0001:0001c1f1       _fclose                    1001d1f1 f   libucrt:fclose.obj
 0001:0001c275       __query_app_type           1001d275 f   libucrt:report_runtime_error.obj
 0001:0001c27b       ___strncnt                 1001d27b f   libucrt:strncnt.obj
 0001:0001c297       __putwch_nolock            1001d297 f   libucrt:putwch.obj
 0001:0001c370       __clearfp                  1001d370 f   libucrt:ieee87.obj
 0001:0001c44e       __control87                1001d44e f   libucrt:ieee87.obj
 0001:0001c7ed       ___acrt_initialize_sse2    1001d7ed f   libucrt:mathfcns.obj
 0001:0001c800       __CIlog10_pentium4         1001d800 f   libucrt:log10_pentium4.obj
 0001:0001c818       __log10_pentium4           1001d818     libucrt:log10_pentium4.obj
 0001:0001cab0       __fFEXP                    1001dab0 f   libucrt:87tran.obj
 0001:0001cb07       __rtinfpopse               1001db07     libucrt:87tran.obj
 0001:0001cb09       __rtinfnpopse              1001db09     libucrt:87tran.obj
 0001:0001cb19       __fFLN                     1001db19     libucrt:87tran.obj
 0001:0001cbce       __rtinfpop                 1001dbce     libucrt:87tran.obj
 0001:0001cbd0       __rtinfnpop                1001dbd0     libucrt:87tran.obj
 0001:0001cbe0       __rtforexpinf              1001dbe0 f   libucrt:87tran.obj
 0001:0001cbed       __ffexpm1                  1001dbed     libucrt:87tran.obj
 0001:0001cca0       __trandisp1                1001dca0 f   libucrt:87disp.obj
 0001:0001cd15       __trandisp2                1001dd15 f   libucrt:87disp.obj
 0001:0001cdaf       __rttospopde               1001ddaf     libucrt:87disp.obj
 0001:0001cdb4       __rttospop                 1001ddb4     libucrt:87disp.obj
 0001:0001cdc0       __rtnospop                 1001ddc0 f   libucrt:87disp.obj
 0001:0001cdd0       __rttosnpop                1001ddd0 f   libucrt:87disp.obj
 0001:0001cdd1       __rtnospopde               1001ddd1     libucrt:87disp.obj
 0001:0001cdd8       __rtzeropop                1001ddd8     libucrt:87disp.obj
 0001:0001cdda       __rtzeronpop               1001ddda     libucrt:87disp.obj
 0001:0001cde0       __rtzerospop               1001dde0 f   libucrt:87disp.obj
 0001:0001cded       __rtonepop                 1001dded     libucrt:87disp.obj
 0001:0001cdf0       __rtonenpop                1001ddf0 f   libucrt:87disp.obj
 0001:0001ce00       __tosnan1                  1001de00 f   libucrt:87disp.obj
 0001:0001ce30       __nosnan2                  1001de30 f   libucrt:87disp.obj
 0001:0001ce40       __tosnan2                  1001de40 f   libucrt:87disp.obj
 0001:0001ce70       __nan2                     1001de70 f   libucrt:87disp.obj
 0001:0001ceb0       __rtindfpop                1001deb0 f   libucrt:87disp.obj
 0001:0001ceb2       __rtindfnpop               1001deb2     libucrt:87disp.obj
 0001:0001cec3       __rttosnpopde              1001dec3     libucrt:87disp.obj
 0001:0001ced0       __rtatan2inf               1001ded0 f   libucrt:87disp.obj
 0001:0001ceed       __rtchsifneg               1001deed     libucrt:87disp.obj
 0001:0001cf00       __twoToTOS                 1001df00 f   libucrt:common.obj
 0001:0001cf15       __load_CW                  1001df15 f   libucrt:common.obj
 0001:0001cf2c       __convertTOStoQNaN         1001df2c f   libucrt:common.obj
 0001:0001cf45       __fload_withFB             1001df45 f   libucrt:common.obj
 0001:0001cf88       __checkTOS_withFB          1001df88 f   libucrt:common.obj
 0001:0001cf9e       __fast_exit                1001df9e f   libucrt:common.obj
 0001:0001cfab       __math_exit                1001dfab f   libucrt:common.obj
 0001:0001cfd5       __check_overflow_exit      1001dfd5 f   libucrt:common.obj
 0001:0001cfe9       __check_range_exit         1001dfe9 f   libucrt:common.obj
 0001:0001d090       __startTwoArgErrorHandling 1001e090 f   libucrt:genexcep.obj
 0001:0001d0a7       __startOneArgErrorHandling 1001e0a7 f   libucrt:genexcep.obj
 0001:0001d0e3       ___libm_error_support      1001e0e3 f   libucrt:libm_error.obj
 0001:0001d2d7       __ceil_default             1001e2d7 f   libucrt:ceil.obj
 0001:0001d418       __close                    1001e418 f   libucrt:close.obj
 0001:0001d4a5       __close_nolock             1001e4a5 f   libucrt:close.obj
 0001:0001d541       ?__acrt_stdio_free_stream@@YAXV__crt_stdio_stream@@@Z 1001e541 f   libucrt:stream.obj
 0001:0001d580       ___ascii_strnicmp          1001e580 f   libucrt:_strnicm.obj
 0001:0001d600       ___dcrt_lowio_ensure_console_output_initialized 1001e600 f   libucrt:initcon.obj
 0001:0001d61f       ___dcrt_terminate_console_output 1001e61f f   libucrt:initcon.obj
 0001:0001d636       ___dcrt_write_console      1001e636 f   libucrt:initcon.obj
 0001:0001d68b       ___set_fpsr_sse2           1001e68b f   libucrt:fpctrl.obj
 0001:0001d70b       __clrfp                    1001e70b f   libucrt:fpctrl.obj
 0001:0001d71c       __ctrlfp                   1001e71c f   libucrt:fpctrl.obj
 0001:0001d746       __set_statfp               1001e746 f   libucrt:fpctrl.obj
 0001:0001d79f       __statfp                   1001e79f f   libucrt:fpctrl.obj
 0001:0001d7af       __d_inttype                1001e7af f   libucrt:powhlp.obj
 0001:0001d817       __powhlp                   1001e817 f   libucrt:powhlp.obj
 0001:0001d942       __87except                 1001e942 f   libucrt:87except.obj
 0001:0001da4c       __frnd                     1001ea4c f   libucrt:frnd.obj
 0001:0001da60       __errcode                  1001ea60 f   libucrt:fpexcept.obj
 0001:0001da94       __except1                  1001ea94 f   libucrt:fpexcept.obj
 0001:0001db62       __handle_exc               1001eb62 f   libucrt:fpexcept.obj
 0001:0001dd4d       __raise_exc                1001ed4d f   libucrt:fpexcept.obj
 0001:0001dd70       __raise_exc_ex             1001ed70 f   libucrt:fpexcept.obj
 0001:0001e066       __set_errno_from_matherr   1001f066 f   libucrt:fpexcept.obj
 0001:0001e095       __umatherr                 1001f095 f   libucrt:fpexcept.obj
 0001:0001e135       __decomp                   1001f135 f   libucrt:util.obj
 0001:0001e207       __set_exp                  1001f207 f   libucrt:util.obj
 0001:0001e234       __sptype                   1001f234 f   libucrt:util.obj
 0001:0001e292       __fpclass                  1001f292 f   libucrt:ieeemisc.obj
 0001:0001e336       _IsProcessorFeaturePresent@4 1001f336 f   kernel32:KERNEL32.dll
 0001:0001e340       __FindPESection            1001f340 f   LIBCMT:pesect.obj
 0001:0001e390       __IsNonwritableInCurrentImage 1001f390 f   LIBCMT:pesect.obj
 0001:0001e450       __ValidateImageBase        1001f450 f   LIBCMT:pesect.obj
 0001:0001e483       __EH_prolog3_catch         1001f483 f   LIBCMT:ehprolg3.obj
 0001:0001e4c0       __aulldvrm                 1001f4c0 f   LIBCMT:ulldvrm.obj
 0001:0001e560       __allmul                   1001f560 f   LIBCMT:llmul.obj
 0001:0001e5a0       __alldvrm                  1001f5a0 f   LIBCMT:lldvrm.obj
 0001:0001e680       __allshl                   1001f680 f   LIBCMT:llshl.obj
 0001:0001e6a0       __aullshr                  1001f6a0 f   LIBCMT:ullshr.obj
 0001:0001e6c0       __ftoi2                    1001f6c0 f   LIBCMT:ftol2.obj
 0001:0001e6c0       __ftol2_sse                1001f6c0     LIBCMT:ftol2.obj
 0001:0001e6c0       __ftol2_sse_excpt          1001f6c0     LIBCMT:ftol2.obj
 0001:0001e740       __ftoui2                   1001f740 f   LIBCMT:ftol2.obj
 0001:0001e7f0       __ftol2                    1001f7f0 f   LIBCMT:ftol2.obj
 0001:0001e8a0       __ftoul2                   1001f8a0 f   LIBCMT:ftol2.obj
 0001:0001e960       _strrchr                   1001f960 f   libvcruntime:strrchr.obj
 0001:0001eaa0       _strchr                    1001faa0 f   libvcruntime:strchr.obj
 0001:0001eb0e       ___from_strstr_to_strchr   1001fb0e     libvcruntime:strchr.obj
 0001:0001ebcb       __filter_x86_sse2_floating_point_exception_default 1001fbcb f   LIBCMT:x86_exception_filter.obj
 0001:0001ebcb       __filter_x86_sse2_floating_point_exception 1001fbcb f   LIBCMT:x86_exception_filter.obj
 0002:00000000       __imp__RegQueryValueExW@24 10020000     advapi32:ADVAPI32.dll
 0002:00000004       __imp__RegSetValueExW@24   10020004     advapi32:ADVAPI32.dll
 0002:00000008       __imp__RegQueryInfoKeyW@48 10020008     advapi32:ADVAPI32.dll
 0002:0000000c       __imp__RegOpenKeyExW@20    1002000c     advapi32:ADVAPI32.dll
 0002:00000010       __imp__RegEnumKeyExW@32    10020010     advapi32:ADVAPI32.dll
 0002:00000014       __imp__RegDeleteValueW@8   10020014     advapi32:ADVAPI32.dll
 0002:00000018       __imp__RegDeleteKeyW@8     10020018     advapi32:ADVAPI32.dll
 0002:0000001c       __imp__RegCreateKeyExW@36  1002001c     advapi32:ADVAPI32.dll
 0002:00000020       __imp__RegCloseKey@4       10020020     advapi32:ADVAPI32.dll
 0002:00000024       \177ADVAPI32_NULL_THUNK_DATA 10020024     advapi32:ADVAPI32.dll
 0002:00000028       __imp__GetObjectW@12       10020028     gdi32:GDI32.dll
 0002:0000002c       __imp__SelectObject@8      1002002c     gdi32:GDI32.dll
 0002:00000030       __imp__DeleteObject@4      10020030     gdi32:GDI32.dll
 0002:00000034       __imp__CreateCompatibleDC@4 10020034     gdi32:GDI32.dll
 0002:00000038       __imp__BitBlt@36           10020038     gdi32:GDI32.dll
 0002:0000003c       __imp__SetWindowOrgEx@16   1002003c     gdi32:GDI32.dll
 0002:00000040       __imp__SetWindowExtEx@16   10020040     gdi32:GDI32.dll
 0002:00000044       __imp__SetViewportOrgEx@16 10020044     gdi32:GDI32.dll
 0002:00000048       __imp__LPtoDP@12           10020048     gdi32:GDI32.dll
 0002:0000004c       __imp__SetMapMode@8        1002004c     gdi32:GDI32.dll
 0002:00000050       __imp__SaveDC@4            10020050     gdi32:GDI32.dll
 0002:00000054       __imp__RestoreDC@8         10020054     gdi32:GDI32.dll
 0002:00000058       __imp__GetDeviceCaps@8     10020058     gdi32:GDI32.dll
 0002:0000005c       __imp__DeleteMetaFile@4    1002005c     gdi32:GDI32.dll
 0002:00000060       __imp__DeleteDC@4          10020060     gdi32:GDI32.dll
 0002:00000064       __imp__CreateRectRgnIndirect@4 10020064     gdi32:GDI32.dll
 0002:00000068       __imp__CreateMetaFileW@4   10020068     gdi32:GDI32.dll
 0002:0000006c       __imp__CreateDCW@16        1002006c     gdi32:GDI32.dll
 0002:00000070       __imp__CloseMetaFile@4     10020070     gdi32:GDI32.dll
 0002:00000074       \177GDI32_NULL_THUNK_DATA  10020074     gdi32:GDI32.dll
 0002:00000078       __imp__CloseHandle@4       10020078     kernel32:KERNEL32.dll
 0002:0000007c       __imp__SetEvent@4          1002007c     kernel32:KERNEL32.dll
 0002:00000080       __imp__CreateMutexW@12     10020080     kernel32:KERNEL32.dll
 0002:00000084       __imp__CreateEventW@16     10020084     kernel32:KERNEL32.dll
 0002:00000088       __imp__GetCurrentProcessId@0 10020088     kernel32:KERNEL32.dll
 0002:0000008c       __imp__CreateFileW@28      1002008c     kernel32:KERNEL32.dll
 0002:00000090       __imp__GetConsoleMode@8    10020090     kernel32:KERNEL32.dll
 0002:00000094       __imp__GetConsoleOutputCP@0 10020094     kernel32:KERNEL32.dll
 0002:00000098       __imp__WriteFile@20        10020098     kernel32:KERNEL32.dll
 0002:0000009c       __imp__FlushFileBuffers@4  1002009c     kernel32:KERNEL32.dll
 0002:000000a0       __imp__SetStdHandle@8      100200a0     kernel32:KERNEL32.dll
 0002:000000a4       __imp__GetStringTypeW@16   100200a4     kernel32:KERNEL32.dll
 0002:000000a8       __imp__SetFilePointerEx@20 100200a8     kernel32:KERNEL32.dll
 0002:000000ac       __imp__FreeEnvironmentStringsW@4 100200ac     kernel32:KERNEL32.dll
 0002:000000b0       __imp__GetEnvironmentStringsW@0 100200b0     kernel32:KERNEL32.dll
 0002:000000b4       __imp__lstrcmpiW@8         100200b4     kernel32:KERNEL32.dll
 0002:000000b8       __imp__GetCommandLineA@0   100200b8     kernel32:KERNEL32.dll
 0002:000000bc       __imp__GetCPInfo@8         100200bc     kernel32:KERNEL32.dll
 0002:000000c0       __imp__GetOEMCP@0          100200c0     kernel32:KERNEL32.dll
 0002:000000c4       __imp__GetACP@0            100200c4     kernel32:KERNEL32.dll
 0002:000000c8       __imp__IsValidCodePage@4   100200c8     kernel32:KERNEL32.dll
 0002:000000cc       __imp__FindNextFileW@8     100200cc     kernel32:KERNEL32.dll
 0002:000000d0       __imp__FindFirstFileExW@24 100200d0     kernel32:KERNEL32.dll
 0002:000000d4       __imp__FindClose@4         100200d4     kernel32:KERNEL32.dll
 0002:000000d8       __imp__GetFileType@4       100200d8     kernel32:KERNEL32.dll
 0002:000000dc       __imp__GetStdHandle@4      100200dc     kernel32:KERNEL32.dll
 0002:000000e0       __imp__LCMapStringW@24     100200e0     kernel32:KERNEL32.dll
 0002:000000e4       __imp__HeapReAlloc@16      100200e4     kernel32:KERNEL32.dll
 0002:000000e8       __imp__HeapSize@12         100200e8     kernel32:KERNEL32.dll
 0002:000000ec       __imp__MulDiv@12           100200ec     kernel32:KERNEL32.dll
 0002:000000f0       __imp__GlobalLock@4        100200f0     kernel32:KERNEL32.dll
 0002:000000f4       __imp__GlobalUnlock@4      100200f4     kernel32:KERNEL32.dll
 0002:000000f8       __imp__GlobalAlloc@8       100200f8     kernel32:KERNEL32.dll
 0002:000000fc       __imp__FindResourceW@12    100200fc     kernel32:KERNEL32.dll
 0002:00000100       __imp__SizeofResource@8    10020100     kernel32:KERNEL32.dll
 0002:00000104       __imp__LoadResource@8      10020104     kernel32:KERNEL32.dll
 0002:00000108       __imp__LoadLibraryExW@12   10020108     kernel32:KERNEL32.dll
 0002:0000010c       __imp__GetProcAddress@8    1002010c     kernel32:KERNEL32.dll
 0002:00000110       __imp__GetModuleHandleW@4  10020110     kernel32:KERNEL32.dll
 0002:00000114       __imp__GetModuleFileNameW@12 10020114     kernel32:KERNEL32.dll
 0002:00000118       __imp__FreeLibrary@4       10020118     kernel32:KERNEL32.dll
 0002:0000011c       __imp__DisableThreadLibraryCalls@4 1002011c     kernel32:KERNEL32.dll
 0002:00000120       __imp__GetCurrentThreadId@0 10020120     kernel32:KERNEL32.dll
 0002:00000124       __imp__Sleep@4             10020124     kernel32:KERNEL32.dll
 0002:00000128       __imp__WaitForSingleObject@8 10020128     kernel32:KERNEL32.dll
 0002:0000012c       __imp__ReleaseMutex@4      1002012c     kernel32:KERNEL32.dll
 0002:00000130       __imp__ResetEvent@4        10020130     kernel32:KERNEL32.dll
 0002:00000134       __imp__EnterCriticalSection@4 10020134     kernel32:KERNEL32.dll
 0002:00000138       __imp__LeaveCriticalSection@4 10020138     kernel32:KERNEL32.dll
 0002:0000013c       __imp__SetLastError@4      1002013c     kernel32:KERNEL32.dll
 0002:00000140       __imp__EncodePointer@4     10020140     kernel32:KERNEL32.dll
 0002:00000144       __imp__DeleteCriticalSection@4 10020144     kernel32:KERNEL32.dll
 0002:00000148       __imp__InitializeCriticalSectionEx@12 10020148     kernel32:KERNEL32.dll
 0002:0000014c       __imp__GetLastError@0      1002014c     kernel32:KERNEL32.dll
 0002:00000150       __imp__RaiseException@16   10020150     kernel32:KERNEL32.dll
 0002:00000154       __imp__DecodePointer@4     10020154     kernel32:KERNEL32.dll
 0002:00000158       __imp__WideCharToMultiByte@32 10020158     kernel32:KERNEL32.dll
 0002:0000015c       __imp__GetCommandLineW@0   1002015c     kernel32:KERNEL32.dll
 0002:00000160       __imp__MultiByteToWideChar@24 10020160     kernel32:KERNEL32.dll
 0002:00000164       __imp__WriteConsoleW@20    10020164     kernel32:KERNEL32.dll
 0002:00000168       __imp__GetModuleHandleExW@12 10020168     kernel32:KERNEL32.dll
 0002:0000016c       __imp__ExitProcess@4       1002016c     kernel32:KERNEL32.dll
 0002:00000170       __imp__VirtualQuery@12     10020170     kernel32:KERNEL32.dll
 0002:00000174       __imp__VirtualProtect@16   10020174     kernel32:KERNEL32.dll
 0002:00000178       __imp__GetSystemInfo@4     10020178     kernel32:KERNEL32.dll
 0002:0000017c       __imp__TlsFree@4           1002017c     kernel32:KERNEL32.dll
 0002:00000180       __imp__TlsSetValue@8       10020180     kernel32:KERNEL32.dll
 0002:00000184       __imp__TlsGetValue@4       10020184     kernel32:KERNEL32.dll
 0002:00000188       __imp__TlsAlloc@0          10020188     kernel32:KERNEL32.dll
 0002:0000018c       __imp__InterlockedFlushSList@4 1002018c     kernel32:KERNEL32.dll
 0002:00000190       __imp__RtlUnwind@16        10020190     kernel32:KERNEL32.dll
 0002:00000194       __imp__LoadLibraryExA@12   10020194     kernel32:KERNEL32.dll
 0002:00000198       __imp__VirtualFree@12      10020198     kernel32:KERNEL32.dll
 0002:0000019c       __imp__VirtualAlloc@16     1002019c     kernel32:KERNEL32.dll
 0002:000001a0       __imp__FlushInstructionCache@12 100201a0     kernel32:KERNEL32.dll
 0002:000001a4       __imp__InterlockedPushEntrySList@8 100201a4     kernel32:KERNEL32.dll
 0002:000001a8       __imp__InterlockedPopEntrySList@4 100201a8     kernel32:KERNEL32.dll
 0002:000001ac       __imp__GetProcessHeap@0    100201ac     kernel32:KERNEL32.dll
 0002:000001b0       __imp__HeapFree@12         100201b0     kernel32:KERNEL32.dll
 0002:000001b4       __imp__HeapAlloc@12        100201b4     kernel32:KERNEL32.dll
 0002:000001b8       __imp__OutputDebugStringW@4 100201b8     kernel32:KERNEL32.dll
 0002:000001bc       __imp__InitializeSListHead@4 100201bc     kernel32:KERNEL32.dll
 0002:000001c0       __imp__GetSystemTimeAsFileTime@4 100201c0     kernel32:KERNEL32.dll
 0002:000001c4       __imp__QueryPerformanceCounter@4 100201c4     kernel32:KERNEL32.dll
 0002:000001c8       __imp__GetStartupInfoW@4   100201c8     kernel32:KERNEL32.dll
 0002:000001cc       __imp__IsDebuggerPresent@0 100201cc     kernel32:KERNEL32.dll
 0002:000001d0       __imp__IsProcessorFeaturePresent@4 100201d0     kernel32:KERNEL32.dll
 0002:000001d4       __imp__TerminateProcess@8  100201d4     kernel32:KERNEL32.dll
 0002:000001d8       __imp__GetCurrentProcess@0 100201d8     kernel32:KERNEL32.dll
 0002:000001dc       __imp__SetUnhandledExceptionFilter@4 100201dc     kernel32:KERNEL32.dll
 0002:000001e0       __imp__UnhandledExceptionFilter@4 100201e0     kernel32:KERNEL32.dll
 0002:000001e4       __imp__InitializeCriticalSectionAndSpinCount@8 100201e4     kernel32:KERNEL32.dll
 0002:000001e8       __imp__WaitForSingleObjectEx@12 100201e8     kernel32:KERNEL32.dll
 0002:000001ec       \177KERNEL32_NULL_THUNK_DATA 100201ec     kernel32:KERNEL32.dll
 0002:000001f0       __imp__OleCreatePropertyFrame@44 100201f0     oleaut32:OLEAUT32.dll
 0002:000001f4       __imp__UnRegisterTypeLib@20 100201f4     oleaut32:OLEAUT32.dll
 0002:000001f8       __imp__RegisterTypeLib@12  100201f8     oleaut32:OLEAUT32.dll
 0002:000001fc       __imp__LoadRegTypeLib@20   100201fc     oleaut32:OLEAUT32.dll
 0002:00000200       __imp__LoadTypeLib@8       10020200     oleaut32:OLEAUT32.dll
 0002:00000204       __imp__VarUI4FromStr@16    10020204     oleaut32:OLEAUT32.dll
 0002:00000208       __imp__VariantInit@4       10020208     oleaut32:OLEAUT32.dll
 0002:0000020c       __imp__SysAllocStringByteLen@8 1002020c     oleaut32:OLEAUT32.dll
 0002:00000210       __imp__SysStringByteLen@4  10020210     oleaut32:OLEAUT32.dll
 0002:00000214       __imp__VariantChangeType@16 10020214     oleaut32:OLEAUT32.dll
 0002:00000218       __imp__VariantClear@4      10020218     oleaut32:OLEAUT32.dll
 0002:0000021c       __imp__SysStringLen@4      1002021c     oleaut32:OLEAUT32.dll
 0002:00000220       __imp__SysFreeString@4     10020220     oleaut32:OLEAUT32.dll
 0002:00000224       __imp__SysAllocStringLen@8 10020224     oleaut32:OLEAUT32.dll
 0002:00000228       __imp__SysAllocString@4    10020228     oleaut32:OLEAUT32.dll
 0002:0000022c       \177OLEAUT32_NULL_THUNK_DATA 1002022c     oleaut32:OLEAUT32.dll
 0002:00000230       __imp__UnregisterClassW@8  10020230     user32:USER32.dll
 0002:00000234       __imp__PostMessageW@16     10020234     user32:USER32.dll
 0002:00000238       __imp__DefWindowProcW@16   10020238     user32:USER32.dll
 0002:0000023c       __imp__CallWindowProcW@20  1002023c     user32:USER32.dll
 0002:00000240       __imp__RegisterClassExW@4  10020240     user32:USER32.dll
 0002:00000244       __imp__GetClassInfoExW@12  10020244     user32:USER32.dll
 0002:00000248       __imp__CreateWindowExW@48  10020248     user32:USER32.dll
 0002:0000024c       __imp__IsWindow@4          1002024c     user32:USER32.dll
 0002:00000250       __imp__IsChild@8           10020250     user32:USER32.dll
 0002:00000254       __imp__DestroyWindow@4     10020254     user32:USER32.dll
 0002:00000258       __imp__ShowWindow@8        10020258     user32:USER32.dll
 0002:0000025c       __imp__SetWindowPos@28     1002025c     user32:USER32.dll
 0002:00000260       __imp__CharNextW@4         10020260     user32:USER32.dll
 0002:00000264       __imp__SetFocus@4          10020264     user32:USER32.dll
 0002:00000268       __imp__LoadBitmapW@8       10020268     user32:USER32.dll
 0002:0000026c       __imp__RegisterClassW@4    1002026c     user32:USER32.dll
 0002:00000270       __imp__PeekMessageW@20     10020270     user32:USER32.dll
 0002:00000274       __imp__LoadCursorW@8       10020274     user32:USER32.dll
 0002:00000278       __imp__GetParent@4         10020278     user32:USER32.dll
 0002:0000027c       __imp__SetWindowLongW@12   1002027c     user32:USER32.dll
 0002:00000280       __imp__GetWindowLongW@8    10020280     user32:USER32.dll
 0002:00000284       __imp__PtInRect@12         10020284     user32:USER32.dll
 0002:00000288       __imp__EqualRect@8         10020288     user32:USER32.dll
 0002:0000028c       __imp__OffsetRect@12       1002028c     user32:USER32.dll
 0002:00000290       __imp__UnionRect@12        10020290     user32:USER32.dll
 0002:00000294       __imp__IntersectRect@12    10020294     user32:USER32.dll
 0002:00000298       __imp__GetClientRect@8     10020298     user32:USER32.dll
 0002:0000029c       __imp__InvalidateRect@12   1002029c     user32:USER32.dll
 0002:000002a0       __imp__SetWindowRgn@12     100202a0     user32:USER32.dll
 0002:000002a4       __imp__EndPaint@8          100202a4     user32:USER32.dll
 0002:000002a8       __imp__BeginPaint@8        100202a8     user32:USER32.dll
 0002:000002ac       __imp__ReleaseDC@8         100202ac     user32:USER32.dll
 0002:000002b0       __imp__GetDC@4             100202b0     user32:USER32.dll
 0002:000002b4       __imp__GetKeyState@4       100202b4     user32:USER32.dll
 0002:000002b8       __imp__GetFocus@0          100202b8     user32:USER32.dll
 0002:000002bc       \177USER32_NULL_THUNK_DATA 100202bc     user32:USER32.dll
 0002:000002c0       __imp__StringFromGUID2@12  100202c0     ole32:ole32.dll
 0002:000002c4       __imp__CoTaskMemAlloc@4    100202c4     ole32:ole32.dll
 0002:000002c8       __imp__CoTaskMemRealloc@8  100202c8     ole32:ole32.dll
 0002:000002cc       __imp__CoTaskMemFree@4     100202cc     ole32:ole32.dll
 0002:000002d0       __imp__ReadClassStm@8      100202d0     ole32:ole32.dll
 0002:000002d4       __imp__WriteClassStm@8     100202d4     ole32:ole32.dll
 0002:000002d8       __imp__CreateDataAdviseHolder@4 100202d8     ole32:ole32.dll
 0002:000002dc       __imp__OleSaveToStream@8   100202dc     ole32:ole32.dll
 0002:000002e0       __imp__CreateOleAdviseHolder@4 100202e0     ole32:ole32.dll
 0002:000002e4       __imp__OleRegGetUserType@12 100202e4     ole32:ole32.dll
 0002:000002e8       __imp__OleRegGetMiscStatus@12 100202e8     ole32:ole32.dll
 0002:000002ec       __imp__OleRegEnumVerbs@8   100202ec     ole32:ole32.dll
 0002:000002f0       __imp__CLSIDFromProgID@8   100202f0     ole32:ole32.dll
 0002:000002f4       __imp__CoCreateInstance@20 100202f4     ole32:ole32.dll
 0002:000002f8       \177ole32_NULL_THUNK_DATA  100202f8     ole32:ole32.dll
 0002:000002fc       ___guard_check_icall_fptr  100202fc     LIBCMT:guard_support.obj
 0002:00000300       ___xc_a                    10020300     LIBCMT:initializers.obj
 0002:00000318       ___xc_z                    10020318     LIBCMT:initializers.obj
 0002:0000031c       ___xi_a                    1002031c     LIBCMT:initializers.obj
 0002:00000324       ___acrt_stdio_initializer  10020324     libucrt:stdio_initializer.obj
 0002:00000328       ___acrt_multibyte_initializer 10020328     libucrt:multibyte_initializer.obj
 0002:0000032c       ___acrt_tran_sse2_initializer 1002032c     libucrt:sse2_initializer.obj
 0002:00000330       ___xi_z                    10020330     LIBCMT:initializers.obj
 0002:00000334       ___xl_a                    10020334     LIBCMT:tlssup.obj
 0002:00000338       ___xl_z                    10020338     LIBCMT:tlssup.obj
 0002:0000033c       ___xp_a                    1002033c     LIBCMT:initializers.obj
 0002:00000340       ___acrt_locale_terminator  10020340     libucrt:locale_initializer.obj
 0002:00000344       ___dcrt_console_output_terminator 10020344     libucrt:console_output_initializer.obj
 0002:00000348       ___acrt_stdio_terminator   10020348     libucrt:stdio_initializer.obj
 0002:0000034c       ___xp_z                    1002034c     LIBCMT:initializers.obj
 0002:00000350       ___xt_a                    10020350     LIBCMT:initializers.obj
 0002:00000354       ___xt_z                    10020354     LIBCMT:initializers.obj
 0002:00000360       ??_C@_13HADIAKP@?$AAS@     10020360     OposVariant.obj
 0002:00000364       ??_C@_13LHMFKAAD@?$AAM@    10020364     OposVariant.obj
 0002:00000368       ??_C@_13MKMNOPIJ@?$AAD@    10020368     OposVariant.obj
 0002:0000036c       ??_C@_13OPKGLAFF@?$AAB@    1002036c     OposVariant.obj
 0002:00000370       ??_C@_17LLMMEOJD@?$AAV?$AAa?$AAl@ 10020370     OposVariant.obj
 0002:00000378       ??_C@_1BI@JFAIJMHL@?$AAF?$AAo?$AAr?$AAc?$AAe?$AAR?$AAe?$AAm?$AAo?$AAv?$AAe@ 10020378     OposVariant.obj
 0002:00000390       ??_C@_1BC@GCKHIPE@?$AAN?$AAo?$AAR?$AAe?$AAm?$AAo?$AAv?$AAe@ 10020390     OposVariant.obj
 0002:000003a4       ??_C@_1O@JDLOHAN@?$AAD?$AAe?$AAl?$AAe?$AAt?$AAe@ 100203a4     OposVariant.obj
 0002:000003b4       ??_C@_11LOCGONAA@@         100203b4     OposVariant.obj
 0002:000003b8       ??_7CComClassFactory@ATL@@6B@ 100203b8     CAT.obj
 0002:000003d0       ?_entries@?1??_GetEntries@CComClassFactory@ATL@@SGPBU_ATL_INTMAP_ENTRY@3@XZ@4QBU43@B 100203d0     CAT.obj
 0002:000003e8       __GUID_00000001_0000_0000_c000_000000000046 100203e8     CAT.obj
 0002:000003f8       _IID_IOPOSCAT_1_5          100203f8     CAT.obj
 0002:00000408       _IID_IOPOSCAT_1_8          10020408     CAT.obj
 0002:00000418       _IID_IOPOSCAT_1_9          10020418     CAT.obj
 0002:00000428       _IID_IOPOSCAT              10020428     CAT.obj
 0002:00000438       _LIBID_OposCAT_CCO         10020438     CAT.obj
 0002:00000448       _DIID__IOPOSCATEvents      10020448     CAT.obj
 0002:00000458       _CLSID_OPOSCAT             10020458     CAT.obj
 0002:00000468       ??_C@_1BK@BIGILECK@?$AAA?$AAd?$AAv?$AAa?$AAp?$AAi?$AA3?$AA2?$AA?4?$AAd?$AAl?$AAl@ 10020468     CAT.obj
 0002:00000484       __GUID_00000114_0000_0000_c000_000000000046 10020484     CAT.obj
 0002:00000494       ??_C@_0BI@MNCFCPFK@RegCreateKeyTransactedW@ 10020494     CAT.obj
 0002:000004ac       __GUID_b196b287_bab4_101a_b69c_00aa00341d07 100204ac     CAT.obj
 0002:000004bc       __GUID_b196b285_bab4_101a_b69c_00aa00341d07 100204bc     CAT.obj
 0002:000004cc       __GUID_a6bc3ac0_dbaa_11ce_9de3_00aa004bb851 100204cc     CAT.obj
 0002:000004dc       __GUID_0000010c_0000_0000_c000_000000000046 100204dc     CAT.obj
 0002:000004ec       __GUID_00000146_0000_0000_c000_000000000046 100204ec     CAT.obj
 0002:00000500       ?_entries@?1??_GetEntries@COPOSCAT@@SGPBU_ATL_INTMAP_ENTRY@ATL@@XZ@4QBU34@B 10020500     CAT.obj
 0002:00000638       ??_7CComModule@ATL@@6B@    10020638     CAT.obj
 0002:00000660       __GUID_cf51ed10_62fe_11cf_bf86_00a0c9034836 10020660     CAT.obj
 0002:00000670       __GUID_0000010a_0000_0000_c000_000000000046 10020670     CAT.obj
 0002:00000680       __GUID_b196b283_bab4_101a_b69c_00aa00341d07 10020680     CAT.obj
 0002:00000690       __GUID_cb5bdc81_93c1_11cf_8f20_00805f2cd064 10020690     CAT.obj
 0002:000006a0       ?pPropMap@?1??GetPropertyMap@COPOSCAT@@SAPBUATL_PROPMAP_ENTRY@ATL@@XZ@4QBU34@B 100206a0     CAT.obj
 0002:0000070c       __GUID_922eada0_3424_11cf_b670_00aa004cd6d8 1002070c     CAT.obj
 0002:0000071c       ??_C@_17DGDADEHL@?$AA_?$AAc?$AAx@ 1002071c     CAT.obj
 0002:00000724       ??_C@_17IOIMFDBO@?$AA_?$AAc?$AAy@ 10020724     CAT.obj
 0002:0000072c       __GUID_9c2cad80_3424_11cf_b670_00aa004cd6d8 1002072c     CAT.obj
 0002:0000073c       __GUID_00000119_0000_0000_c000_000000000046 1002073c     CAT.obj
 0002:0000074c       __GUID_b196b289_bab4_101a_b69c_00aa00341d07 1002074c     CAT.obj
 0002:0000075c       __GUID_00000000_0000_0000_c000_000000000046 1002075c     CAT.obj
 0002:0000076c       __GUID_00020400_0000_0000_c000_000000000046 1002076c     CAT.obj
 0002:0000077c       __GUID_00000117_0000_0000_c000_000000000046 1002077c     CAT.obj
 0002:0000078c       ??_7?$CComObjectCached@VCComClassFactory@ATL@@@ATL@@6B@ 1002078c     CAT.obj
 0002:000007a4       ??_C@_1CE@PGFMOFKI@?$AAS?$AAt?$AAa?$AAt?$AAu?$AAs?$AAU?$AAp?$AAd?$AAa?$AAt?$AAe?$AAE?$AAv?$AAe@ 100207a4     CAT.obj
 0002:000007c8       ??_C@_1CI@HLBJDONE@?$AAO?$AAu?$AAt?$AAp?$AAu?$AAt?$AAC?$AAo?$AAm?$AAp?$AAl?$AAe?$AAt?$AAe?$AAE@ 100207c8     CAT.obj
 0002:000007f0       ??_C@_1BG@LODEBHDD@?$AAE?$AAr?$AAr?$AAo?$AAr?$AAE?$AAv?$AAe?$AAn?$AAt@ 100207f0     CAT.obj
 0002:00000808       ??_C@_1BM@CBGEBBBJ@?$AAD?$AAi?$AAr?$AAe?$AAc?$AAt?$AAI?$AAO?$AAE?$AAv?$AAe?$AAn?$AAt@ 10020808     CAT.obj
 0002:00000824       __GUID_b196b286_bab4_101a_b69c_00aa00341d07 10020824     CAT.obj
 0002:00000834       ??_C@_1BC@ENICKDH@?$AAC?$AAo?$AAn?$AAt?$AAe?$AAn?$AAt?$AAs@ 10020834     CAT.obj
 0002:00000848       ??_7?$CComObject@V?$CComEnum@UIEnumConnectionPoints@@$1?_GUID_b196b285_bab4_101a_b69c_00aa00341d07@@3U__s_GUID@@BPAUIConnectionPoint@@V?$_CopyInterface@UIConnectionPoint@@@ATL@@VCComSingleThreadModel@6@@ATL@@@ATL@@6B@ 10020848     CAT.obj
 0002:00000868       ??_C@_1M@KANJNLFF@?$AAC?$AAL?$AAS?$AAI?$AAD@ 10020868     CAT.obj
 0002:00000874       ??_C@_1M@EJNEECMJ@?$AAA?$AAp?$AAp?$AAI?$AAD@ 10020874     CAT.obj
 0002:00000880       __GUID_0000010e_0000_0000_c000_000000000046 10020880     CAT.obj
 0002:00000890       __GUID_b196b288_bab4_101a_b69c_00aa00341d07 10020890     CAT.obj
 0002:000008a0       ?rgszNeverDelete@CRegParser@ATL@@1QBQB_WB 100208a0     CAT.obj
 0002:000008d0       ??_7CRegObject@ATL@@6B@    100208d0     CAT.obj
 0002:000008e8       __GUID_00000113_0000_0000_c000_000000000046 100208e8     CAT.obj
 0002:000008f8       __GUID_1c2056cc_5ef4_101b_8bc8_00aa003e3b29 100208f8     CAT.obj
 0002:00000908       ??_C@_1CK@OEKPKBNA@?$AAC?$AAo?$AAm?$AAp?$AAo?$AAn?$AAe?$AAn?$AAt?$AA?5?$AAC?$AAa?$AAt?$AAe?$AAg@ 10020908     CAT.obj
 0002:00000934       ??_C@_1BC@NKMMNMGL@?$AAF?$AAi?$AAl?$AAe?$AAT?$AAy?$AAp?$AAe@ 10020934     CAT.obj
 0002:00000948       ??_C@_1BE@EKPAFMCP@?$AAI?$AAn?$AAt?$AAe?$AAr?$AAf?$AAa?$AAc?$AAe@ 10020948     CAT.obj
 0002:0000095c       ??_C@_1BC@MAICEHGI@?$AAH?$AAa?$AAr?$AAd?$AAw?$AAa?$AAr?$AAe@ 1002095c     CAT.obj
 0002:00000970       ??_C@_19HLLLM@?$AAM?$AAi?$AAm?$AAe@ 10020970     CAT.obj
 0002:0000097c       ??_C@_17OMAOINJK@?$AAS?$AAA?$AAM@ 1002097c     CAT.obj
 0002:00000984       ??_C@_1BC@IBECJAAI@?$AAS?$AAE?$AAC?$AAU?$AAR?$AAI?$AAT?$AAY@ 10020984     CAT.obj
 0002:00000998       ??_C@_1O@GBFINDKL@?$AAS?$AAY?$AAS?$AAT?$AAE?$AAM@ 10020998     CAT.obj
 0002:000009a8       ??_C@_1BC@EAHCMADO@?$AAS?$AAo?$AAf?$AAt?$AAw?$AAa?$AAr?$AAe@ 100209a8     CAT.obj
 0002:000009bc       ??_C@_1BA@JIHHIEDE@?$AAT?$AAy?$AAp?$AAe?$AAL?$AAi?$AAb@ 100209bc     CAT.obj
 0002:000009d0       ?map@?1??HKeyFromString@CRegParser@ATL@@KAPAUHKEY__@@PA_W@Z@4QBUkeymap@?1??123@KAPAU4@0@Z@B 100209d0     CAT.obj
 0002:00000a40       ??_C@_19NCHLBIN@?$AAH?$AAK?$AAC?$AAR@ 10020a40     CAT.obj
 0002:00000a4c       ??_C@_19JAPAIJDE@?$AAH?$AAK?$AAC?$AAU@ 10020a4c     CAT.obj
 0002:00000a58       ??_C@_19PEALEEJB@?$AAH?$AAK?$AAL?$AAM@ 10020a58     CAT.obj
 0002:00000a64       ??_C@_17PJOJPMPB@?$AAH?$AAK?$AAU@ 10020a64     CAT.obj
 0002:00000a6c       ??_C@_19PNBHMJPL@?$AAH?$AAK?$AAP?$AAD@ 10020a6c     CAT.obj
 0002:00000a78       ??_C@_19GFFAIJHG@?$AAH?$AAK?$AAD?$AAD@ 10020a78     CAT.obj
 0002:00000a84       ??_C@_19OFICIBHH@?$AAH?$AAK?$AAC?$AAC@ 10020a84     CAT.obj
 0002:00000a90       ??_C@_1CE@PACHPJFI@?$AAH?$AAK?$AAE?$AAY?$AA_?$AAC?$AAL?$AAA?$AAS?$AAS?$AAE?$AAS?$AA_?$AAR?$AAO@ 10020a90     CAT.obj
 0002:00000ab4       ??_C@_1CE@HLHNCBPM@?$AAH?$AAK?$AAE?$AAY?$AA_?$AAC?$AAU?$AAR?$AAR?$AAE?$AAN?$AAT?$AA_?$AAU?$AAS@ 10020ab4     CAT.obj
 0002:00000ad8       ??_C@_1CG@GFBEANJL@?$AAH?$AAK?$AAE?$AAY?$AA_?$AAL?$AAO?$AAC?$AAA?$AAL?$AA_?$AAM?$AAA?$AAC?$AAH@ 10020ad8     CAT.obj
 0002:00000b00       ??_C@_1BG@BGODANIO@?$AAH?$AAK?$AAE?$AAY?$AA_?$AAU?$AAS?$AAE?$AAR?$AAS@ 10020b00     CAT.obj
 0002:00000b18       ??_C@_1CM@KHNNAOIC@?$AAH?$AAK?$AAE?$AAY?$AA_?$AAP?$AAE?$AAR?$AAF?$AAO?$AAR?$AAM?$AAA?$AAN?$AAC@ 10020b18     CAT.obj
 0002:00000b44       ??_C@_1BM@HAGMMHIA@?$AAH?$AAK?$AAE?$AAY?$AA_?$AAD?$AAY?$AAN?$AA_?$AAD?$AAA?$AAT?$AAA@ 10020b44     CAT.obj
 0002:00000b60       ??_C@_1CI@BBJOACGG@?$AAH?$AAK?$AAE?$AAY?$AA_?$AAC?$AAU?$AAR?$AAR?$AAE?$AAN?$AAT?$AA_?$AAC?$AAO@ 10020b60     CAT.obj
 0002:00000b88       __GUID_00000109_0000_0000_c000_000000000046 10020b88     CAT.obj
 0002:00000b98       __GUID_7fd52380_4e07_101b_ae2d_08002b2ec713 10020b98     CAT.obj
 0002:00000ba8       __GUID_00000112_0000_0000_c000_000000000046 10020ba8     CAT.obj
 0002:00000bb8       __GUID_3af24292_0c96_11ce_a0cf_00aa00600ab8 10020bb8     CAT.obj
 0002:00000bc8       __GUID_00000127_0000_0000_c000_000000000046 10020bc8     CAT.obj
 0002:00000bd8       __GUID_0000010d_0000_0000_c000_000000000046 10020bd8     CAT.obj
 0002:00000be8       ??_C@_1EA@NHKLICFA@?$AAH?$AAK?$AAC?$AAU?$AA?$AN?$AA?6?$AA?$HL?$AA?7?$AAS?$AAo?$AAf?$AAt?$AAw?$AAa?$AAr@ 10020be8     CAT.obj
 0002:00000c28       ??_C@_1BE@LJOLIMEM@?$AA?$AN?$AA?6?$AA?7?$AA?$HN?$AA?$AN?$AA?6?$AA?$HN?$AA?$AN?$AA?6@ 10020c28     CAT.obj
 0002:00000c3c       ??_C@_1O@MNLDABAF@?$AAM?$AAo?$AAd?$AAu?$AAl?$AAe@ 10020c3c     CAT.obj
 0002:00000c4c       ??_C@_1BG@JBACFMF@?$AAM?$AAo?$AAd?$AAu?$AAl?$AAe?$AA_?$AAR?$AAa?$AAw@ 10020c4c     CAT.obj
 0002:00000c64       ??_C@_1BC@KAILKFFG@?$AAR?$AAE?$AAG?$AAI?$AAS?$AAT?$AAR?$AAY@ 10020c64     CAT.obj
 0002:00000c78       ??_C@_1M@PPPPCDEP@?$AAA?$AAP?$AAP?$AAI?$AAD@ 10020c78     CAT.obj
 0002:00000c84       ??_7?$CComContainedObject@VCOPOSCAT@@@ATL@@6B?$IDispatchImpl@UIOPOSCAT@@$1?IID_IOPOSCAT@@3U_GUID@@B$1?LIBID_OposCAT_CCO@@3U3@B$00$0A@VCComTypeInfoHolder@ATL@@@1@@ 10020c84     CAT.obj
 0002:00000e20       ??_7?$CComContainedObject@VCOPOSCAT@@@ATL@@6BCComControlBase@1@@ 10020e20     CAT.obj
 0002:00000e34       ??_7?$CComContainedObject@VCOPOSCAT@@@ATL@@6B?$CWindowImpl@VCOPOSCAT@@VCWindow@ATL@@V?$CWinTraits@$0FGAAAAAA@$0A@@3@@1@@ 10020e34     CAT.obj
 0002:00000e44       ??_7?$CComContainedObject@VCOPOSCAT@@@ATL@@6B?$IPersistStreamInitImpl@VCOPOSCAT@@@1@@ 10020e44     CAT.obj
 0002:00000e68       ??_7?$CComContainedObject@VCOPOSCAT@@@ATL@@6B?$IOleControlImpl@VCOPOSCAT@@@1@@ 10020e68     CAT.obj
 0002:00000e84       ??_7?$CComContainedObject@VCOPOSCAT@@@ATL@@6B?$IOleObjectImpl@VCOPOSCAT@@@1@@ 10020e84     CAT.obj
 0002:00000ee4       ??_7?$CComContainedObject@VCOPOSCAT@@@ATL@@6B?$IOleInPlaceActiveObjectImpl@VCOPOSCAT@@@1@@ 10020ee4     CAT.obj
 0002:00000f0c       ??_7?$CComContainedObject@VCOPOSCAT@@@ATL@@6B?$IViewObjectExImpl@VCOPOSCAT@@@1@@ 10020f0c     CAT.obj
 0002:00000f48       ??_7?$CComContainedObject@VCOPOSCAT@@@ATL@@6B?$IOleInPlaceObjectWindowlessImpl@VCOPOSCAT@@@1@@ 10020f48     CAT.obj
 0002:00000f74       ??_7?$CComContainedObject@VCOPOSCAT@@@ATL@@6B?$IConnectionPointContainerImpl@VCOPOSCAT@@@1@@ 10020f74     CAT.obj
 0002:00000f88       ??_7?$CComContainedObject@VCOPOSCAT@@@ATL@@6B?$IPersistStorageImpl@VCOPOSCAT@@@1@@ 10020f88     CAT.obj
 0002:00000fb0       ??_7?$CComContainedObject@VCOPOSCAT@@@ATL@@6B?$ISpecifyPropertyPagesImpl@VCOPOSCAT@@@1@@ 10020fb0     CAT.obj
 0002:00000fc0       ??_7?$CComContainedObject@VCOPOSCAT@@@ATL@@6B?$IQuickActivateImpl@VCOPOSCAT@@@1@@ 10020fc0     CAT.obj
 0002:00000fd8       ??_7?$CComContainedObject@VCOPOSCAT@@@ATL@@6B?$IDataObjectImpl@VCOPOSCAT@@@1@@ 10020fd8     CAT.obj
 0002:00001008       ??_7?$CComContainedObject@VCOPOSCAT@@@ATL@@6B?$IProvideClassInfo2Impl@$1?CLSID_OPOSCAT@@3U_GUID@@B$1?DIID__IOPOSCATEvents@@3U2@B$1?LIBID_OposCAT_CCO@@3U2@B$00$0A@VCComTypeInfoHolder@ATL@@@1@@ 10021008     CAT.obj
 0002:0000101c       ??_7?$CComContainedObject@VCOPOSCAT@@@ATL@@6B?$IObjectSafetyImpl@VCOPOSCAT@@$02@1@@ 1002101c     CAT.obj
 0002:00001034       ??_7?$CComContainedObject@VCOPOSCAT@@@ATL@@6B?$IPropertyNotifySinkCP@VCOPOSCAT@@VCComDynamicUnkArray@ATL@@@1@@ 10021034     CAT.obj
 0002:00001054       ??_7?$CComContainedObject@VCOPOSCAT@@@ATL@@6B?$CProxy_IOPOSEvents@VCOPOSCAT@@@@@ 10021054     CAT.obj
 0002:00001074       ??_7?$CComAggObject@VCOPOSCAT@@@ATL@@6B@ 10021074     CAT.obj
 0002:00001084       ??_7?$CComObject@VCOPOSCAT@@@ATL@@6B?$IDispatchImpl@UIOPOSCAT@@$1?IID_IOPOSCAT@@3U_GUID@@B$1?LIBID_OposCAT_CCO@@3U3@B$00$0A@VCComTypeInfoHolder@ATL@@@1@@ 10021084     CAT.obj
 0002:00001220       ??_7?$CComObject@VCOPOSCAT@@@ATL@@6BCComControlBase@1@@ 10021220     CAT.obj
 0002:00001234       ??_7?$CComObject@VCOPOSCAT@@@ATL@@6B?$CWindowImpl@VCOPOSCAT@@VCWindow@ATL@@V?$CWinTraits@$0FGAAAAAA@$0A@@3@@1@@ 10021234     CAT.obj
 0002:00001244       ??_7?$CComObject@VCOPOSCAT@@@ATL@@6B?$IPersistStreamInitImpl@VCOPOSCAT@@@1@@ 10021244     CAT.obj
 0002:00001268       ??_7?$CComObject@VCOPOSCAT@@@ATL@@6B?$IOleControlImpl@VCOPOSCAT@@@1@@ 10021268     CAT.obj
 0002:00001284       ??_7?$CComObject@VCOPOSCAT@@@ATL@@6B?$IOleObjectImpl@VCOPOSCAT@@@1@@ 10021284     CAT.obj
 0002:000012e4       ??_7?$CComObject@VCOPOSCAT@@@ATL@@6B?$IOleInPlaceActiveObjectImpl@VCOPOSCAT@@@1@@ 100212e4     CAT.obj
 0002:0000130c       ??_7?$CComObject@VCOPOSCAT@@@ATL@@6B?$IViewObjectExImpl@VCOPOSCAT@@@1@@ 1002130c     CAT.obj
 0002:00001348       ??_7?$CComObject@VCOPOSCAT@@@ATL@@6B?$IOleInPlaceObjectWindowlessImpl@VCOPOSCAT@@@1@@ 10021348     CAT.obj
 0002:00001374       ??_7?$CComObject@VCOPOSCAT@@@ATL@@6B?$IConnectionPointContainerImpl@VCOPOSCAT@@@1@@ 10021374     CAT.obj
 0002:00001388       ??_7?$CComObject@VCOPOSCAT@@@ATL@@6B?$IPersistStorageImpl@VCOPOSCAT@@@1@@ 10021388     CAT.obj
 0002:000013b0       ??_7?$CComObject@VCOPOSCAT@@@ATL@@6B?$ISpecifyPropertyPagesImpl@VCOPOSCAT@@@1@@ 100213b0     CAT.obj
 0002:000013c0       ??_7?$CComObject@VCOPOSCAT@@@ATL@@6B?$IQuickActivateImpl@VCOPOSCAT@@@1@@ 100213c0     CAT.obj
 0002:000013d8       ??_7?$CComObject@VCOPOSCAT@@@ATL@@6B?$IDataObjectImpl@VCOPOSCAT@@@1@@ 100213d8     CAT.obj
 0002:00001408       ??_7?$CComObject@VCOPOSCAT@@@ATL@@6B?$IProvideClassInfo2Impl@$1?CLSID_OPOSCAT@@3U_GUID@@B$1?DIID__IOPOSCATEvents@@3U2@B$1?LIBID_OposCAT_CCO@@3U2@B$00$0A@VCComTypeInfoHolder@ATL@@@1@@ 10021408     CAT.obj
 0002:0000141c       ??_7?$CComObject@VCOPOSCAT@@@ATL@@6B?$IObjectSafetyImpl@VCOPOSCAT@@$02@1@@ 1002141c     CAT.obj
 0002:00001434       ??_7?$CComObject@VCOPOSCAT@@@ATL@@6B?$IPropertyNotifySinkCP@VCOPOSCAT@@VCComDynamicUnkArray@ATL@@@1@@ 10021434     CAT.obj
 0002:00001454       ??_7?$CComObject@VCOPOSCAT@@@ATL@@6B?$CProxy_IOPOSEvents@VCOPOSCAT@@@@@ 10021454     CAT.obj
 0002:00001474       ??_C@_1O@GBFKGNEO@?$AAA?$AAT?$AAL?$AA?3?$AA?$CF?$AAp@ 10021474     CAT.obj
 0002:00001484       ??_C@_1BA@PICGEGJB@?$AAD?$AAI?$AAS?$AAP?$AAL?$AAA?$AAY@ 10021484     CAT.obj
 0002:00001494       __GUID_9bfbbc02_eff1_101a_84ed_00aa00341d07 10021494     CAT.obj
 0002:000014a4       __GUID_b196b284_bab4_101a_b69c_00aa00341d07 100214a4     CAT.obj
 0002:000014b4       ?_entries@?1??_GetEntries@?$CComEnum@UIEnumConnectionPoints@@$1?_GUID_b196b285_bab4_101a_b69c_00aa00341d07@@3U__s_GUID@@BPAUIConnectionPoint@@V?$_CopyInterface@UIConnectionPoint@@@ATL@@VCComSingleThreadModel@6@@ATL@@SGPBU_ATL_INTMAP_ENTRY@3@XZ@4QBU43@B 100214b4     CAT.obj
 0002:000014cc       __GUID_00020412_0000_0000_c000_000000000046 100214cc     CAT.obj
 0002:000014dc       __GUID_00020401_0000_0000_c000_000000000046 100214dc     CAT.obj
 0002:000014ec       __GUID_55980ba0_35aa_11cf_b671_00aa004cd6d8 100214ec     CAT.obj
 0002:000014fc       __GUID_b196b28b_bab4_101a_b69c_00aa00341d07 100214fc     CAT.obj
 0002:0000150c       ??_7?$CComObject@V?$CComEnum@UIEnumConnections@@$1?_GUID_b196b287_bab4_101a_b69c_00aa00341d07@@3U__s_GUID@@BUtagCONNECTDATA@@V?$_Copy@UtagCONNECTDATA@@@ATL@@VCComSingleThreadModel@6@@ATL@@@ATL@@6B@ 1002150c     CAT.obj
 0002:0000152c       ?_entries@?1??_GetEntries@?$CComEnum@UIEnumConnections@@$1?_GUID_b196b287_bab4_101a_b69c_00aa00341d07@@3U__s_GUID@@BUtagCONNECTDATA@@V?$_Copy@UtagCONNECTDATA@@@ATL@@VCComSingleThreadModel@6@@ATL@@SGPBU_ATL_INTMAP_ENTRY@3@XZ@4QBU43@B 1002152c     CAT.obj
 0002:00001544       ??_C@_0BG@EKFFMJIO@RegOpenKeyTransactedW@ 10021544     CAT.obj
 0002:0000155c       ??_C@_0BI@HAKLOOGP@RegDeleteKeyTransactedW@ 1002155c     CAT.obj
 0002:00001574       ??_C@_0BA@LILAPHGE@RegDeleteKeyExW@ 10021574     CAT.obj
 0002:00001584       ??_C@_19ILOCMLCJ@?$AA?4?$AAt?$AAl?$AAb@ 10021584     CAT.obj
 0002:00001590       __GUID_0002e012_0000_0000_c000_000000000046 10021590     CAT.obj
 0002:000015a0       ??_C@_1O@FHBGLCIO@?$AAC?$AAL?$AAS?$AAI?$AAD?$AA?2@ 100215a0     CAT.obj
 0002:000015b0       ??_C@_1CK@IFBKBFAA@?$AA?2?$AAR?$AAe?$AAq?$AAu?$AAi?$AAr?$AAe?$AAd?$AA?5?$AAC?$AAa?$AAt?$AAe?$AAg@ 100215b0     CAT.obj
 0002:000015dc       ??_C@_1DA@BIHALFED@?$AA?2?$AAI?$AAm?$AAp?$AAl?$AAe?$AAm?$AAe?$AAn?$AAt?$AAe?$AAd?$AA?5?$AAC?$AAa@ 100215dc     CAT.obj
 0002:0000160c       ??_C@_1BK@EDKOLFBJ@?$AAO?$AAL?$AAE?$AAA?$AAU?$AAT?$AA3?$AA2?$AA?4?$AAD?$AAL?$AAL@ 1002160c     CAT.obj
 0002:00001628       ??_C@_0BJ@CNLFOMHB@UnRegisterTypeLibForUser@ 10021628     CAT.obj
 0002:00001644       ??_C@_0BH@LBOMMKPJ@RegisterTypeLibForUser@ 10021644     CAT.obj
 0002:0000165c       ??_C@_0P@MMNMMLGK@COFreezeEvents@ 1002165c     CATImpl.obj
 0002:0000166c       ??_C@_0BC@OGCGGIMP@GetPropertyNumber@ 1002166c     CATImpl.obj
 0002:00001680       ??_C@_0BC@MDCNODNB@SetPropertyNumber@ 10021680     CATImpl.obj
 0002:00001694       ??_C@_0BC@CFCCMIMD@GetPropertyString@ 10021694     CATImpl.obj
 0002:000016a8       ??_C@_0BC@CJEDNN@SetPropertyString@ 100216a8     CATImpl.obj
 0002:000016bc       ??_C@_0M@LNPKKKDA@OpenService@ 100216bc     CATImpl.obj
 0002:000016c8       ??_C@_0M@PCMCHHMH@CheckHealth@ 100216c8     CATImpl.obj
 0002:000016d4       ??_C@_0M@JGMIDNEK@ClaimDevice@ 100216d4     CATImpl.obj
 0002:000016e0       ??_C@_0M@JMBCPNGJ@ClearOutput@ 100216e0     CATImpl.obj
 0002:000016ec       ??_C@_0N@DDFIIBMP@CloseService@ 100216ec     CATImpl.obj
 0002:000016fc       ??_C@_08EEIHICPC@DirectIO@ 100216fc     CATImpl.obj
 0002:00001708       ??_C@_0O@BCPMENMJ@ReleaseDevice@ 10021708     CATImpl.obj
 0002:00001718       ??_C@_0P@GAPGHBOB@AccessDailyLog@ 10021718     CATImpl.obj
 0002:00001728       ??_C@_0BE@DCPICDJJ@AuthorizeCompletion@ 10021728     CATImpl.obj
 0002:0000173c       ??_C@_0BC@BFIHDIME@AuthorizePreSales@ 1002173c     CATImpl.obj
 0002:00001750       ??_C@_0BA@MIHOKOFD@AuthorizeRefund@ 10021750     CATImpl.obj
 0002:00001760       ??_C@_0P@FBALCMBO@AuthorizeSales@ 10021760     CATImpl.obj
 0002:00001770       ??_C@_0O@CLMPAPFO@AuthorizeVoid@ 10021770     CATImpl.obj
 0002:00001780       ??_C@_0BG@LAFENIFB@AuthorizeVoidPreSales@ 10021780     CATImpl.obj
 0002:00001798       ??_C@_09EAIKPMK@CheckCard@ 10021798     CATImpl.obj
 0002:000017a4       ??_C@_0BA@GFABKEEE@ResetStatistics@ 100217a4     CATImpl.obj
 0002:000017b4       ??_C@_0BD@DPALHJGC@RetrieveStatistics@ 100217b4     CATImpl.obj
 0002:000017c8       ??_C@_0BB@KOHIKNFC@UpdateStatistics@ 100217c8     CATImpl.obj
 0002:000017dc       ??_C@_0BH@PBKBNMGB@CompareFirmwareVersion@ 100217dc     CATImpl.obj
 0002:000017f4       ??_C@_0P@FBPDPIPA@UpdateFirmware@ 100217f4     CATImpl.obj
 0002:00001804       ??_C@_0L@OFHFGGCE@GetBalance@ 10021804     CATImpl.obj
 0002:00001810       ??_C@_0BB@DEPMOCKF@GetSettledAmount@ 10021810     CATImpl.obj
 0002:00001824       ??_C@_0M@LJIOAJGI@CashDeposit@ 10021824     CATImpl.obj
 0002:00001830       ??_C@_0N@NKOFBOHJ@LockTerminal@ 10021830     CATImpl.obj
 0002:00001840       ??_C@_0P@ELGEJAPJ@UnlockTerminal@ 10021840     CATImpl.obj
 0002:00001850       ??_7?$CProxy_IOPOSEvents@VCOPOSCAT@@@@6B@ 10021850     CATImpl.obj
 0002:00001870       ??_C@_1BA@IFHENID@?$AA?$FL?$AAE?$AAr?$AAr?$AAo?$AAr?$AA?$FN@ 10021870     CATImpl.obj
 0002:00001880       ??_C@_0CG@FIJDADJE@SOFTWARE?2OLEforRetail?2ServiceOP@ 10021880     CATImpl.obj
 0002:000018a8       ??_C@_1M@IAIJHCCH@?$AAC?$AAl?$AAo?$AAs?$AAe@ 100218a8     CATImpl.obj
 0002:000018b4       ??_C@_1M@PCPKGJAH@?$AAC?$AAl?$AAa?$AAi?$AAm@ 100218b4     CATImpl.obj
 0002:000018c0       ??_C@_1BA@NDFKIOCP@?$AAR?$AAe?$AAl?$AAe?$AAa?$AAs?$AAe@ 100218c0     CATImpl.obj
 0002:000018d0       ??_C@_03PIJFKIJH@CAT@      100218d0     CATImpl.obj
 0002:000018d4       ??_C@_1BM@IJMNMBPK@?$AAG?$AAe?$AAt?$AAO?$AAp?$AAe?$AAn?$AAR?$AAe?$AAs?$AAu?$AAl?$AAt@ 100218d4     CATImpl.obj
 0002:000018f0       _IID_IPropertyNotifySink   100218f0     uuid:ocidl_i.obj
 0002:00001900       _GUID_NULL                 10021900     uuid:cguid_i.obj
 0002:00001910       _CLSID_StdGlobalInterfaceTable 10021910     uuid:cguid_i.obj
 0002:00001920       _IID_IDispatch             10021920     uuid:oaidl_i.obj
 0002:00001930       _CLSID_StdComponentCategoriesMgr 10021930     uuid:ieguids.obj
 0002:00001940       _IID_IUnknown              10021940     uuid:unknwn_i.obj
 0002:00001950       ??_C@_1EC@JIJBPKFM@?$AAa?$AAp?$AAi?$AA?9?$AAm?$AAs?$AA?9?$AAw?$AAi?$AAn?$AA?9?$AAc?$AAo?$AAr?$AAe@ 10021950     LIBCMT:thread_safe_statics.obj
 0002:00001994       ??_C@_1BK@MGMFAEKH@?$AAk?$AAe?$AAr?$AAn?$AAe?$AAl?$AA3?$AA2?$AA?4?$AAd?$AAl?$AAl@ 10021994     LIBCMT:thread_safe_statics.obj
 0002:000019b0       ??_C@_0BJ@JEBJOJFJ@SleepConditionVariableCS@ 100219b0     LIBCMT:thread_safe_statics.obj
 0002:000019cc       ??_C@_0BJ@PGPPEPCC@WakeAllConditionVariable@ 100219cc     LIBCMT:thread_safe_statics.obj
 0002:000019e5       ?nothrow@std@@3Unothrow_t@1@B 100219e5     LIBCMT:std_nothrow.obj
 0002:000019f0       __pDefaultRawDllMain       100219f0     LIBCMT:dll_dllmain.obj
 0002:000019f0       __pRawDllMain              100219f0     LIBCMT:dll_dllmain.obj
 0002:000019f8       ??_7exception@std@@6B@     100219f8     LIBCMT:throw_bad_alloc.obj
 0002:00001a00       ??_C@_0BC@EOODALEL@Unknown?5exception@ 10021a00     LIBCMT:throw_bad_alloc.obj
 0002:00001a18       ??_7bad_alloc@std@@6B@     10021a18     LIBCMT:throw_bad_alloc.obj
 0002:00001a20       ??_C@_0P@GHFPNOJB@bad?5allocation@ 10021a20     LIBCMT:throw_bad_alloc.obj
 0002:00001a34       ??_7bad_array_new_length@std@@6B@ 10021a34     LIBCMT:throw_bad_alloc.obj
 0002:00001a3c       ??_C@_0BF@KINCDENJ@bad?5array?5new?5length@ 10021a3c     LIBCMT:throw_bad_alloc.obj
 0002:00001a58       ??_7type_info@@6B@         10021a58     LIBCMT:std_type_info_static.obj
 0002:00001a5c       _GUID_ATLVer110            10021a5c     atls:atlbase.obj
 0002:00001a70       ??_C@_1IC@ONKHOIDK@?$AAE?$AAR?$AAR?$AAO?$AAR?$AA?5?$AA?3?$AA?5?$AAU?$AAn?$AAa?$AAb?$AAl?$AAe?$AA?5@ 10021a70     atls:atlbase.obj
 0002:00001af4       ??_C@_0N@FJEPLCIH@atlthunk?4dll@ 10021af4     atls:atlthunk.obj
 0002:00001b04       ??_C@_0BG@GAKFHCBM@AtlThunk_AllocateData@ 10021b04     atls:atlthunk.obj
 0002:00001b1c       ??_C@_0BC@JKONFIAH@AtlThunk_InitData@ 10021b1c     atls:atlthunk.obj
 0002:00001b30       ??_C@_0BE@IAOEELAK@AtlThunk_DataToCode@ 10021b30     atls:atlthunk.obj
 0002:00001b44       ??_C@_0BC@GBGKAIPI@AtlThunk_FreeData@ 10021b44     atls:atlthunk.obj
 0002:00001b58       __pDestructExceptionObject 10021b58     libvcruntime:ehhelpers.obj
 0002:00001b60       ??_7bad_exception@std@@6B@ 10021b60     libvcruntime:frame.obj
 0002:00001b68       ??_C@_0O@DPKOEFFH@bad?5exception@ 10021b68     libvcruntime:frame.obj
 0002:00001ef8       ??_C@_08EHJDFFNH@__based?$CI@ 10021ef8     libvcruntime:undname.obj
 0002:00001f04       ??_C@_07KOLFKCDI@__cdecl@  10021f04     libvcruntime:undname.obj
 0002:00001f0c       ??_C@_08GHMPAG@__pascal@   10021f0c     libvcruntime:undname.obj
 0002:00001f18       ??_C@_09IFJBGAPI@__stdcall@ 10021f18     libvcruntime:undname.obj
 0002:00001f24       ??_C@_0L@NPHFGOKO@__thiscall@ 10021f24     libvcruntime:undname.obj
 0002:00001f30       ??_C@_0L@JMKHOMEK@__fastcall@ 10021f30     libvcruntime:undname.obj
 0002:00001f3c       ??_C@_0N@BCKKPABJ@__vectorcall@ 10021f3c     libvcruntime:undname.obj
 0002:00001f4c       ??_C@_09HIJEGCPM@__clrcall@ 10021f4c     libvcruntime:undname.obj
 0002:00001f58       ??_C@_06GHPCKEAG@__eabi@   10021f58     libvcruntime:undname.obj
 0002:00001f60       ??_C@_09IOPIDJLG@__swift_1@ 10021f60     libvcruntime:undname.obj
 0002:00001f6c       ??_C@_09KFNFGKHF@__swift_2@ 10021f6c     libvcruntime:undname.obj
 0002:00001f78       ??_C@_07JOMMBBKO@__ptr64@  10021f78     libvcruntime:undname.obj
 0002:00001f80       ??_C@_0L@PILCLIHE@__restrict@ 10021f80     libvcruntime:undname.obj
 0002:00001f8c       ??_C@_0M@GFIIJFMG@__unaligned@ 10021f8c     libvcruntime:undname.obj
 0002:00001f98       ??_C@_09DHDLOLLB@restrict?$CI@ 10021f98     libvcruntime:undname.obj
 0002:00001fa2       ??_C@_00CNPNBAHC@@         10021fa2     libvcruntime:undname.obj
 0002:00001fa4       ??_C@_04NIHEBCM@?5new@     10021fa4     libvcruntime:undname.obj
 0002:00001fac       ??_C@_07FPCDHGMM@?5delete@ 10021fac     libvcruntime:undname.obj
 0002:00001fb4       ??_C@_01NEMOKFLO@?$DN@     10021fb4     libvcruntime:undname.obj
 0002:00001fb8       ??_C@_02GPIOPFAK@?$DO?$DO@ 10021fb8     libvcruntime:undname.obj
 0002:00001fbc       ??_C@_02FODMEDOG@?$DM?$DM@ 10021fbc     libvcruntime:undname.obj
 0002:00001fc0       ??_C@_01DCLJPIOD@?$CB@     10021fc0     libvcruntime:undname.obj
 0002:00001fc4       ??_C@_02EGOFBIJA@?$DN?$DN@ 10021fc4     libvcruntime:undname.obj
 0002:00001fc8       ??_C@_02FDNJECIE@?$CB?$DN@ 10021fc8     libvcruntime:undname.obj
 0002:00001fcc       ??_C@_02GPECMEKF@?$FL?$FN@ 10021fcc     libvcruntime:undname.obj
 0002:00001fd0       ??_C@_08LHJFAFGD@operator@ 10021fd0     libvcruntime:undname.obj
 0002:00001fdc       ??_C@_02HBOOOICD@?9?$DO@   10021fdc     libvcruntime:undname.obj
 0002:00001fe0       ??_C@_01NBENCBCI@?$CK@     10021fe0     libvcruntime:undname.obj
 0002:00001fe4       ??_C@_02ECNGHCIF@?$CL?$CL@ 10021fe4     libvcruntime:undname.obj
 0002:00001fe8       ??_C@_02BAABKJLB@?9?9@     10021fe8     libvcruntime:undname.obj
 0002:00001fec       ??_C@_01JOAMLHOP@?9@       10021fec     libvcruntime:undname.obj
 0002:00001ff0       ??_C@_01MIFGBAGJ@?$CL@     10021ff0     libvcruntime:undname.obj
 0002:00001ff4       ??_C@_01HNPIGOCE@?$CG@     10021ff4     libvcruntime:undname.obj
 0002:00001ff8       ??_C@_03MNHNFDLC@?9?$DO?$CK@ 10021ff8     libvcruntime:undname.obj
 0002:00001ffc       ??_C@_01KMDKNFGN@?1@       10021ffc     libvcruntime:undname.obj
 0002:00002000       ??_C@_01FGNFDNOH@?$CF@     10022000     libvcruntime:undname.obj
 0002:00002004       ??_C@_01MNNFJEPP@?$DM@     10022004     libvcruntime:undname.obj
 0002:00002008       ??_C@_02EHCHHCKH@?$DM?$DN@ 10022008     libvcruntime:undname.obj
 0002:0000200c       ??_C@_01PPODPGHN@?$DO@     1002200c     libvcruntime:undname.obj
 0002:00002010       ??_C@_02EEKDKGMJ@?$DO?$DN@ 10022010     libvcruntime:undname.obj
 0002:00002014       ??_C@_01IHBHIGKO@?0@       10022014     libvcruntime:undname.obj
 0002:00002018       ??_C@_02HCKGKOFO@?$CI?$CJ@ 10022018     libvcruntime:undname.obj
 0002:0000201c       ??_C@_01PJKLJHI@?$HO@      1002201c     libvcruntime:undname.obj
 0002:00002020       ??_C@_01JKBOJNNK@?$FO@     10022020     libvcruntime:undname.obj
 0002:00002024       ??_C@_01DNKMNLPK@?$HM@     10022024     libvcruntime:undname.obj
 0002:00002028       ??_C@_02PPKAJPJL@?$CG?$CG@ 10022028     libvcruntime:undname.obj
 0002:0000202c       ??_C@_02NONPIBCD@?$HM?$HM@ 1002202c     libvcruntime:undname.obj
 0002:00002030       ??_C@_02FPIMKNGF@?$CK?$DN@ 10022030     libvcruntime:undname.obj
 0002:00002034       ??_C@_02FOEOMHFC@?$CL?$DN@ 10022034     libvcruntime:undname.obj
 0002:00002038       ??_C@_02FKMDLLOA@?9?$DN@   10022038     libvcruntime:undname.obj
 0002:0000203c       ??_C@_02FJEHGPIO@?1?$DN@   1002203c     libvcruntime:undname.obj
 0002:00002040       ??_C@_02FENAOKFI@?$CF?$DN@ 10022040     libvcruntime:undname.obj
 0002:00002044       ??_C@_03IKFCCPFF@?$DO?$DO?$DN@ 10022044     libvcruntime:undname.obj
 0002:00002048       ??_C@_03CDNPDDLA@?$DM?$DM?$DN@ 10022048     libvcruntime:undname.obj
 0002:0000204c       ??_C@_02FGJGFEAB@?$CG?$DN@ 1002204c     libvcruntime:undname.obj
 0002:00002050       ??_C@_02DHLNPPGH@?$HM?$DN@ 10022050     libvcruntime:undname.obj
 0002:00002054       ??_C@_02MHEGNOJ@?$FO?$DN@  10022054     libvcruntime:undname.obj
 0002:00002058       ??_C@_09IFPLHPGF@?$GAvftable?8@ 10022058     libvcruntime:undname.obj
 0002:00002064       ??_C@_09BLBHBJP@?$GAvbtable?8@ 10022064     libvcruntime:undname.obj
 0002:00002070       ??_C@_07FEEIOKP@?$GAvcall?8@ 10022070     libvcruntime:undname.obj
 0002:00002078       ??_C@_08LLFFHHDJ@?$GAtypeof?8@ 10022078     libvcruntime:undname.obj
 0002:00002084       ??_C@_0BF@KDPPACIK@?$GAlocal?5static?5guard?8@ 10022084     libvcruntime:undname.obj
 0002:0000209c       ??_C@_08OBABFOLI@?$GAstring?8@ 1002209c     libvcruntime:undname.obj
 0002:000020a8       ??_C@_0BD@JDLKDPAB@?$GAvbase?5destructor?8@ 100220a8     libvcruntime:undname.obj
 0002:000020bc       ??_C@_0BN@DEGPLNFK@?$GAvector?5deleting?5destructor?8@ 100220bc     libvcruntime:undname.obj
 0002:000020dc       ??_C@_0BO@OBMKPJIG@?$GAdefault?5constructor?5closure?8@ 100220dc     libvcruntime:undname.obj
 0002:000020fc       ??_C@_0BN@IMDCHIKM@?$GAscalar?5deleting?5destructor?8@ 100220fc     libvcruntime:undname.obj
 0002:0000211c       ??_C@_0BO@PFGOCPJJ@?$GAvector?5constructor?5iterator?8@ 1002211c     libvcruntime:undname.obj
 0002:0000213c       ??_C@_0BN@LFPFMEDL@?$GAvector?5destructor?5iterator?8@ 1002213c     libvcruntime:undname.obj
 0002:0000215c       ??_C@_0CE@IKBNEHA@?$GAvector?5vbase?5constructor?5itera@ 1002215c     libvcruntime:undname.obj
 0002:00002180       ??_C@_0BL@NILFHHPC@?$GAvirtual?5displacement?5map?8@ 10022180     libvcruntime:undname.obj
 0002:0000219c       ??_C@_0CB@JONCMFFK@?$GAeh?5vector?5constructor?5iterator@ 1002219c     libvcruntime:undname.obj
 0002:000021c0       ??_C@_0CA@GCEOPDGL@?$GAeh?5vector?5destructor?5iterator?8@ 100221c0     libvcruntime:undname.obj
 0002:000021e0       ??_C@_0CH@OOJPLCPH@?$GAeh?5vector?5vbase?5constructor?5it@ 100221e0     libvcruntime:undname.obj
 0002:00002208       ??_C@_0BL@LLKPOHJI@?$GAcopy?5constructor?5closure?8@ 10022208     libvcruntime:undname.obj
 0002:00002224       ??_C@_0BA@KBCDOMBN@?$GAudt?5returning?8@ 10022224     libvcruntime:undname.obj
 0002:00002234       ??_C@_03KLGMFNMG@?$GAEH@   10022234     libvcruntime:undname.obj
 0002:00002238       ??_C@_05KHLCHHI@?$GARTTI@  10022238     libvcruntime:undname.obj
 0002:00002240       ??_C@_0BA@KKLDJDLB@?$GAlocal?5vftable?8@ 10022240     libvcruntime:undname.obj
 0002:00002250       ??_C@_0CE@IIHCMGGL@?$GAlocal?5vftable?5constructor?5clos@ 10022250     libvcruntime:undname.obj
 0002:00002274       ??_C@_06FHBGPFGH@?5new?$FL?$FN@ 10022274     libvcruntime:undname.obj
 0002:0000227c       ??_C@_09LBNFPBCA@?5delete?$FL?$FN@ 1002227c     libvcruntime:undname.obj
 0002:00002288       ??_C@_0P@HJKNJFNN@?$GAomni?5callsig?8@ 10022288     libvcruntime:undname.obj
 0002:00002298       ??_C@_0BL@CNOONJFP@?$GAplacement?5delete?5closure?8@ 10022298     libvcruntime:undname.obj
 0002:000022b4       ??_C@_0BN@CKNJLHMB@?$GAplacement?5delete?$FL?$FN?5closure?8@ 100222b4     libvcruntime:undname.obj
 0002:000022d4       ??_C@_0CG@CFDHKGGD@?$GAmanaged?5vector?5constructor?5ite@ 100222d4     libvcruntime:undname.obj
 0002:000022fc       ??_C@_0CF@IMGKMJNO@?$GAmanaged?5vector?5destructor?5iter@ 100222fc     libvcruntime:undname.obj
 0002:00002324       ??_C@_0CG@HLDDJMAG@?$GAeh?5vector?5copy?5constructor?5ite@ 10022324     libvcruntime:undname.obj
 0002:0000234c       ??_C@_0CM@FCBBDIGB@?$GAeh?5vector?5vbase?5copy?5construct@ 1002234c     libvcruntime:undname.obj
 0002:00002378       ??_C@_0BL@CLIPGLGB@?$GAdynamic?5initializer?5for?5?8@ 10022378     libvcruntime:undname.obj
 0002:00002394       ??_C@_0CB@PDBIFEP@?$GAdynamic?5atexit?5destructor?5for?5@ 10022394     libvcruntime:undname.obj
 0002:000023b8       ??_C@_0CD@CGAJBKEJ@?$GAvector?5copy?5constructor?5iterat@ 100223b8     libvcruntime:undname.obj
 0002:000023dc       ??_C@_0CJ@GJELGAMM@?$GAvector?5vbase?5copy?5constructor?5@ 100223dc     libvcruntime:undname.obj
 0002:00002408       ??_C@_0CL@FGIJHLCE@?$GAmanaged?5vector?5copy?5constructo@ 10022408     libvcruntime:undname.obj
 0002:00002434       ??_C@_0BM@PMGGMLDN@?$GAlocal?5static?5thread?5guard?8@ 10022434     libvcruntime:undname.obj
 0002:00002450       ??_C@_0N@BDNMDMOL@operator?5?$CC?$CC?5@ 10022450     libvcruntime:undname.obj
 0002:00002460       ??_C@_0BC@GGEBGALA@operator?5co_await@ 10022460     libvcruntime:undname.obj
 0002:00002474       ??_C@_0M@GAAIMMOH@operator?$DM?$DN?$DO@ 10022474     libvcruntime:undname.obj
 0002:00002480       ??_C@_0BC@DAFEJGAK@?5Type?5Descriptor?8@ 10022480     libvcruntime:undname.obj
 0002:00002494       ??_C@_0BM@LDKODKLH@?5Base?5Class?5Descriptor?5at?5?$CI@ 10022494     libvcruntime:undname.obj
 0002:000024b0       ??_C@_0BD@LGICGFMM@?5Base?5Class?5Array?8@ 100224b0     libvcruntime:undname.obj
 0002:000024c4       ??_C@_0BN@MECKDCOJ@?5Class?5Hierarchy?5Descriptor?8@ 100224c4     libvcruntime:undname.obj
 0002:000024e4       ??_C@_0BK@CFCOFLF@?5Complete?5Object?5Locator?8@ 100224e4     libvcruntime:undname.obj
 0002:00002500       ??_C@_0BG@JNJLAMPM@?$GAanonymous?5namespace?8@ 10022500     libvcruntime:undname.obj
 0002:00002524       ??_C@_1DM@KHCHBNEB@?$AAa?$AAp?$AAi?$AA?9?$AAm?$AAs?$AA?9?$AAw?$AAi?$AAn?$AA?9?$AAc?$AAo?$AAr?$AAe@ 10022524     libvcruntime:winapi_downlevel.obj
 0002:00002560       ??_C@_1DK@LPPGFMPP@?$AAa?$AAp?$AAi?$AA?9?$AAm?$AAs?$AA?9?$AAw?$AAi?$AAn?$AA?9?$AAc?$AAo?$AAr?$AAe@ 10022560     libvcruntime:winapi_downlevel.obj
 0002:0000259c       ??_C@_1BC@GDMECMAK@?$AAk?$AAe?$AAr?$AAn?$AAe?$AAl?$AA3?$AA2@ 1002259c     libvcruntime:winapi_downlevel.obj
 0002:000025b0       ??_C@_1BA@PFFKHIOG@?$AAa?$AAp?$AAi?$AA?9?$AAm?$AAs?$AA?9@ 100225b0     libvcruntime:winapi_downlevel.obj
 0002:000025c8       ??_C@_08KNHFBNJ@FlsAlloc@  100225c8     libvcruntime:winapi_downlevel.obj
 0002:000025dc       ??_C@_07PEJMOBNF@FlsFree@  100225dc     libvcruntime:winapi_downlevel.obj
 0002:000025ec       ??_C@_0M@GDNOONDI@FlsGetValue@ 100225ec     libvcruntime:winapi_downlevel.obj
 0002:00002600       ??_C@_0M@JCPCPOEF@FlsSetValue@ 10022600     libvcruntime:winapi_downlevel.obj
 0002:00002614       ??_C@_0BM@HCFOFFN@InitializeCriticalSectionEx@ 10022614     libvcruntime:winapi_downlevel.obj
 0002:00002798       ?format_validation_lookup_table_spectre@__crt_stdio_output@@3V?$spectre_mitigated_lookup_table@Ustate_transition_pair@__crt_stdio_output@@$0IA@@1@B 10022798     libucrt:output.obj
 0002:00002b98       ??_C@_1O@CEDCILHN@?$AA?$CI?$AAn?$AAu?$AAl?$AAl?$AA?$CJ@ 10022b98     libucrt:output.obj
 0002:00002ba8       ??_C@_06OJHGLDPL@?$CInull?$CJ@ 10022ba8     libucrt:output.obj
 0002:00002bb0       ___acrt_exception_action_table 10022bb0     libucrt:exception_filter.obj
 0002:00002c40       ___acrt_signal_action_table_count 10022c40     libucrt:exception_filter.obj
 0002:00002c44       ___acrt_signal_action_first_fpe_index 10022c44     libucrt:exception_filter.obj
 0002:00002c48       ___acrt_signal_action_fpe_count 10022c48     libucrt:exception_filter.obj
 0002:00002c4c       ??_C@_1BI@BGOHAHKC@?$AAm?$AAs?$AAc?$AAo?$AAr?$AAe?$AAe?$AA?4?$AAd?$AAl?$AAl@ 10022c4c     libucrt:exit.obj
 0002:00002c64       ??_C@_0P@MIGLKIOC@CorExitProcess@ 10022c64     libucrt:exit.obj
 0002:00002d48       ??_C@_1EA@JGEFHKEI@?$AAa?$AAp?$AAi?$AA?9?$AAm?$AAs?$AA?9?$AAw?$AAi?$AAn?$AA?9?$AAc?$AAo?$AAr?$AAe@ 10022d48     libucrt:winapi_thunks.obj
 0002:00002d88       ??_C@_1DI@IJCEHOCB@?$AAa?$AAp?$AAi?$AA?9?$AAm?$AAs?$AA?9?$AAw?$AAi?$AAn?$AA?9?$AAc?$AAo?$AAr?$AAe@ 10022d88     libucrt:winapi_thunks.obj
 0002:00002dc0       ??_C@_1EI@MPIAOHOC@?$AAa?$AAp?$AAi?$AA?9?$AAm?$AAs?$AA?9?$AAw?$AAi?$AAn?$AA?9?$AAc?$AAo?$AAr?$AAe@ 10022dc0     libucrt:winapi_thunks.obj
 0002:00002e08       ??_C@_1FK@FPHCKFIE@?$AAa?$AAp?$AAi?$AA?9?$AAm?$AAs?$AA?9?$AAw?$AAi?$AAn?$AA?9?$AAc?$AAo?$AAr?$AAe@ 10022e08     libucrt:winapi_thunks.obj
 0002:00002e68       ??_C@_1EM@DILCGIIO@?$AAa?$AAp?$AAi?$AA?9?$AAm?$AAs?$AA?9?$AAw?$AAi?$AAn?$AA?9?$AAc?$AAo?$AAr?$AAe@ 10022e68     libucrt:winapi_thunks.obj
 0002:00002eb4       ??_C@_1DM@LNCGDDPN@?$AAa?$AAp?$AAi?$AA?9?$AAm?$AAs?$AA?9?$AAw?$AAi?$AAn?$AA?9?$AAc?$AAo?$AAr?$AAe@ 10022eb4     libucrt:winapi_thunks.obj
 0002:00002ef0       ??_C@_1DO@FPAPJEMD@?$AAa?$AAp?$AAi?$AA?9?$AAm?$AAs?$AA?9?$AAw?$AAi?$AAn?$AA?9?$AAc?$AAo?$AAr?$AAe@ 10022ef0     libucrt:winapi_thunks.obj
 0002:00002f30       ??_C@_1DK@NDHNAHIO@?$AAa?$AAp?$AAi?$AA?9?$AAm?$AAs?$AA?9?$AAw?$AAi?$AAn?$AA?9?$AAc?$AAo?$AAr?$AAe@ 10022f30     libucrt:winapi_thunks.obj
 0002:00002f6c       ??_C@_1DM@KGHDGBCM@?$AAa?$AAp?$AAi?$AA?9?$AAm?$AAs?$AA?9?$AAw?$AAi?$AAn?$AA?9?$AAc?$AAo?$AAr?$AAe@ 10022f6c     libucrt:winapi_thunks.obj
 0002:00002fa8       ??_C@_1EO@IJIOEFOH@?$AAa?$AAp?$AAi?$AA?9?$AAm?$AAs?$AA?9?$AAw?$AAi?$AAn?$AA?9?$AAr?$AAt?$AAc?$AAo@ 10022fa8     libucrt:winapi_thunks.obj
 0002:00002ff8       ??_C@_1FG@HHGEKANL@?$AAa?$AAp?$AAi?$AA?9?$AAm?$AAs?$AA?9?$AAw?$AAi?$AAn?$AA?9?$AAs?$AAe?$AAc?$AAu@ 10022ff8     libucrt:winapi_thunks.obj
 0002:00003050       ??_C@_1EG@DBIOJECG@?$AAe?$AAx?$AAt?$AA?9?$AAm?$AAs?$AA?9?$AAw?$AAi?$AAn?$AA?9?$AAn?$AAt?$AAu?$AAs@ 10023050     libucrt:winapi_thunks.obj
 0002:00003098       ??_C@_1EO@FIHMJCLF@?$AAe?$AAx?$AAt?$AA?9?$AAm?$AAs?$AA?9?$AAw?$AAi?$AAn?$AA?9?$AAn?$AAt?$AAu?$AAs@ 10023098     libucrt:winapi_thunks.obj
 0002:000030e8       ??_C@_1BC@DNHGCMLG@?$AAa?$AAd?$AAv?$AAa?$AAp?$AAi?$AA3?$AA2@ 100230e8     libucrt:winapi_thunks.obj
 0002:000030fc       ??_C@_1M@OAIMIKLP@?$AAn?$AAt?$AAd?$AAl?$AAl@ 100230fc     libucrt:winapi_thunks.obj
 0002:00003108       ??_C@_1EG@DPGNFKGC@?$AAa?$AAp?$AAi?$AA?9?$AAm?$AAs?$AA?9?$AAw?$AAi?$AAn?$AA?9?$AAa?$AAp?$AAp?$AAm@ 10023108     libucrt:winapi_thunks.obj
 0002:00003150       ??_C@_1O@BCCLBEOE@?$AAu?$AAs?$AAe?$AAr?$AA3?$AA2@ 10023150     libucrt:winapi_thunks.obj
 0002:00003160       ??_C@_1BA@IAIFMGEF@?$AAe?$AAx?$AAt?$AA?9?$AAm?$AAs?$AA?9@ 10023160     libucrt:winapi_thunks.obj
 0002:00003174       ??_C@_0BA@FHFNEAED@AreFileApisANSI@ 10023174     libucrt:winapi_thunks.obj
 0002:000031b4       ??_C@_0O@KKBNKAPF@LCMapStringEx@ 100231b4     libucrt:winapi_thunks.obj
 0002:000031cc       ??_C@_0BB@HBDEELFH@LocaleNameToLCID@ 100231cc     libucrt:winapi_thunks.obj
 0002:000031e4       ??_C@_0CF@OJOFEIGO@AppPolicyGetProcessTerminationM@ 100231e4     libucrt:winapi_thunks.obj
 0002:00003214       ??_C@_0BI@BKLFFAPO@SetThreadStackGuarantee@ 10023214     libucrt:winapi_thunks.obj
 0002:00003270       ??_C@_03OEIAHPBN@INF@      10023270     libucrt:cvt.obj
 0002:00003274       ??_C@_03OJHLLCGB@inf@      10023274     libucrt:cvt.obj
 0002:00003278       ??_C@_03LKNCIKJB@NAN@      10023278     libucrt:cvt.obj
 0002:0000327c       ??_C@_03LHCJEHON@nan@      1002327c     libucrt:cvt.obj
 0002:00003280       ??_C@_09OFJJIMPC@NAN?$CISNAN?$CJ@ 10023280     libucrt:cvt.obj
 0002:0000328c       ??_C@_09IPFBKMDL@nan?$CIsnan?$CJ@ 1002328c     libucrt:cvt.obj
 0002:00003298       ??_C@_08IKHNHAJ@NAN?$CIIND?$CJ@ 10023298     libucrt:cvt.obj
 0002:000032a4       ??_C@_08OFCDMILK@nan?$CIind?$CJ@ 100232a4     libucrt:cvt.obj
 0002:000032b0       ??_C@_05KLBDPFGC@e?$CL000@ 100232b0     libucrt:cvt.obj
 0002:000032b8       ___lc_time_c               100232b8     libucrt:nlsdata.obj
 0002:0000341c       ??_C@_03KOEHGMDN@Sun@      1002341c     libucrt:nlsdata.obj
 0002:00003420       ??_C@_03PDAGKDH@Mon@       10023420     libucrt:nlsdata.obj
 0002:00003424       ??_C@_03NAGEINEP@Tue@      10023424     libucrt:nlsdata.obj
 0002:00003428       ??_C@_03MHOMLAJA@Wed@      10023428     libucrt:nlsdata.obj
 0002:0000342c       ??_C@_03IOFIKPDN@Thu@      1002342c     libucrt:nlsdata.obj
 0002:00003430       ??_C@_03IDIOELNC@Fri@      10023430     libucrt:nlsdata.obj
 0002:00003434       ??_C@_03FEFJNEK@Sat@       10023434     libucrt:nlsdata.obj
 0002:00003438       ??_C@_06OOPIFAJ@Sunday@    10023438     libucrt:nlsdata.obj
 0002:00003440       ??_C@_06JLEDEDGH@Monday@   10023440     libucrt:nlsdata.obj
 0002:00003448       ??_C@_07BAAGCFCM@Tuesday@  10023448     libucrt:nlsdata.obj
 0002:00003450       ??_C@_09DLIGFAKA@Wednesday@ 10023450     libucrt:nlsdata.obj
 0002:0000345c       ??_C@_08HACCIKIA@Thursday@ 1002345c     libucrt:nlsdata.obj
 0002:00003468       ??_C@_06JECMNKMI@Friday@   10023468     libucrt:nlsdata.obj
 0002:00003470       ??_C@_08INBOOONO@Saturday@ 10023470     libucrt:nlsdata.obj
 0002:0000347c       ??_C@_03JIHJHPIE@Jan@      1002347c     libucrt:nlsdata.obj
 0002:00003480       ??_C@_03HJBDCHOM@Feb@      10023480     libucrt:nlsdata.obj
 0002:00003484       ??_C@_03ODNJBKGA@Mar@      10023484     libucrt:nlsdata.obj
 0002:00003488       ??_C@_03LEOLGMJP@Apr@      10023488     libucrt:nlsdata.obj
 0002:0000348c       ??_C@_03CNMDKL@May@        1002348c     libucrt:nlsdata.obj
 0002:00003490       ??_C@_03IDFGHECI@Jun@      10023490     libucrt:nlsdata.obj
 0002:00003494       ??_C@_03LBGABGKK@Jul@      10023494     libucrt:nlsdata.obj
 0002:00003498       ??_C@_03IFJFEIGA@Aug@      10023498     libucrt:nlsdata.obj
 0002:0000349c       ??_C@_03GGCAPAJC@Sep@      1002349c     libucrt:nlsdata.obj
 0002:000034a0       ??_C@_03BMAOKBAD@Oct@      100234a0     libucrt:nlsdata.obj
 0002:000034a4       ??_C@_03JPJOFNIA@Nov@      100234a4     libucrt:nlsdata.obj
 0002:000034a8       ??_C@_03MKABNOCG@Dec@      100234a8     libucrt:nlsdata.obj
 0002:000034ac       ??_C@_07CGJPFGJA@January@  100234ac     libucrt:nlsdata.obj
 0002:000034b4       ??_C@_08GNJGEPFN@February@ 100234b4     libucrt:nlsdata.obj
 0002:000034c0       ??_C@_05HPCKOFNC@March@    100234c0     libucrt:nlsdata.obj
 0002:000034c8       ??_C@_05DMJDNLEJ@April@    100234c8     libucrt:nlsdata.obj
 0002:000034d0       ??_C@_04CNLMGBGM@June@     100234d0     libucrt:nlsdata.obj
 0002:000034d8       ??_C@_04MIEPOIFP@July@     100234d8     libucrt:nlsdata.obj
 0002:000034e0       ??_C@_06LBBHFDDG@August@   100234e0     libucrt:nlsdata.obj
 0002:000034e8       ??_C@_09BHHEALKD@September@ 100234e8     libucrt:nlsdata.obj
 0002:000034f4       ??_C@_07JJNFCEND@October@  100234f4     libucrt:nlsdata.obj
 0002:000034fc       ??_C@_08HCHEGEOA@November@ 100234fc     libucrt:nlsdata.obj
 0002:00003508       ??_C@_08EDHMEBNP@December@ 10023508     libucrt:nlsdata.obj
 0002:00003514       ??_C@_02DEDBPAFC@AM@       10023514     libucrt:nlsdata.obj
 0002:00003518       ??_C@_02CJNFDJBF@PM@       10023518     libucrt:nlsdata.obj
 0002:0000351c       ??_C@_08BPBNCDIB@MM?1dd?1yy@ 1002351c     libucrt:nlsdata.obj
 0002:00003528       ??_C@_0BE@CKGJFCPC@dddd?0?5MMMM?5dd?0?5yyyy@ 10023528     libucrt:nlsdata.obj
 0002:0000353c       ??_C@_08JCCMCCIL@HH?3mm?3ss@ 1002353c     libucrt:nlsdata.obj
 0002:00003548       ??_C@_17MBGCMIPB@?$AAS?$AAu?$AAn@ 10023548     libucrt:nlsdata.obj
 0002:00003550       ??_C@_17KBOMKBF@?$AAM?$AAo?$AAn@ 10023550     libucrt:nlsdata.obj
 0002:00003558       ??_C@_17BMKGEGOJ@?$AAT?$AAu?$AAe@ 10023558     libucrt:nlsdata.obj
 0002:00003560       ??_C@_17CJEDCEPE@?$AAW?$AAe?$AAd@ 10023560     libucrt:nlsdata.obj
 0002:00003568       ??_C@_17PDPHAADD@?$AAT?$AAh?$AAu@ 10023568     libucrt:nlsdata.obj
 0002:00003570       ??_C@_17HFOLPPLP@?$AAF?$AAr?$AAi@ 10023570     libucrt:nlsdata.obj
 0002:00003578       ??_C@_17GGIBDPIH@?$AAS?$AAa?$AAt@ 10023578     libucrt:nlsdata.obj
 0002:00003580       ??_C@_1O@IHNHDHPB@?$AAS?$AAu?$AAn?$AAd?$AAa?$AAy@ 10023580     libucrt:nlsdata.obj
 0002:00003590       ??_C@_1O@MMNBFLIA@?$AAM?$AAo?$AAn?$AAd?$AAa?$AAy@ 10023590     libucrt:nlsdata.obj
 0002:000035a0       ??_C@_1BA@ENFBFFEK@?$AAT?$AAu?$AAe?$AAs?$AAd?$AAa?$AAy@ 100235a0     libucrt:nlsdata.obj
 0002:000035b0       ??_C@_1BE@EBOGMDOH@?$AAW?$AAe?$AAd?$AAn?$AAe?$AAs?$AAd?$AAa?$AAy@ 100235b0     libucrt:nlsdata.obj
 0002:000035c4       ??_C@_1BC@HHMNLIHE@?$AAT?$AAh?$AAu?$AAr?$AAs?$AAd?$AAa?$AAy@ 100235c4     libucrt:nlsdata.obj
 0002:000035d8       ??_C@_1O@PDICJHAG@?$AAF?$AAr?$AAi?$AAd?$AAa?$AAy@ 100235d8     libucrt:nlsdata.obj
 0002:000035e8       ??_C@_1BC@ENMNNPAJ@?$AAS?$AAa?$AAt?$AAu?$AAr?$AAd?$AAa?$AAy@ 100235e8     libucrt:nlsdata.obj
 0002:000035fc       ??_C@_17DKNBKCHM@?$AAJ?$AAa?$AAn@ 100235fc     libucrt:nlsdata.obj
 0002:00003604       ??_C@_17LMDJEKJN@?$AAF?$AAe?$AAb@ 10023604     libucrt:nlsdata.obj
 0002:0000360c       ??_C@_17CKNLEDEC@?$AAM?$AAa?$AAr@ 1002360c     libucrt:nlsdata.obj
 0002:00003614       ??_C@_17LFPOIHDD@?$AAA?$AAp?$AAr@ 10023614     libucrt:nlsdata.obj
 0002:0000361c       ??_C@_17PNNKMEED@?$AAM?$AAa?$AAy@ 1002361c     libucrt:nlsdata.obj
 0002:00003624       ??_C@_17KCJGOCPB@?$AAJ?$AAu?$AAn@ 10023624     libucrt:nlsdata.obj
 0002:0000362c       ??_C@_17IJPCKHK@?$AAJ?$AAu?$AAl@ 1002362c     libucrt:nlsdata.obj
 0002:00003634       ??_C@_17ICPELBCN@?$AAA?$AAu?$AAg@ 10023634     libucrt:nlsdata.obj
 0002:0000363c       ??_C@_17HCHCOKMG@?$AAS?$AAe?$AAp@ 1002363c     libucrt:nlsdata.obj
 0002:00003644       ??_C@_17FNLKOI@?$AAO?$AAc?$AAt@ 10023644     libucrt:nlsdata.obj
 0002:0000364c       ??_C@_17BBDMLCIG@?$AAN?$AAo?$AAv@ 1002364c     libucrt:nlsdata.obj
 0002:00003654       ??_C@_17EGKACKIF@?$AAD?$AAe?$AAc@ 10023654     libucrt:nlsdata.obj
 0002:0000365c       ??_C@_1BA@EFMEIEBA@?$AAJ?$AAa?$AAn?$AAu?$AAa?$AAr?$AAy@ 1002365c     libucrt:nlsdata.obj
 0002:0000366c       ??_C@_1BC@JGDDFFAM@?$AAF?$AAe?$AAb?$AAr?$AAu?$AAa?$AAr?$AAy@ 1002366c     libucrt:nlsdata.obj
 0002:00003680       ??_C@_1M@IKEENEDF@?$AAM?$AAa?$AAr?$AAc?$AAh@ 10023680     libucrt:nlsdata.obj
 0002:0000368c       ??_C@_1M@GJNLMHFD@?$AAA?$AAp?$AAr?$AAi?$AAl@ 1002368c     libucrt:nlsdata.obj
 0002:00003698       ??_C@_19EPFLPGAP@?$AAJ?$AAu?$AAn?$AAe@ 10023698     libucrt:nlsdata.obj
 0002:000036a4       ??_C@_19BIFMLPCD@?$AAJ?$AAu?$AAl?$AAy@ 100236a4     libucrt:nlsdata.obj
 0002:000036b0       ??_C@_1O@PAHLKOAC@?$AAA?$AAu?$AAg?$AAu?$AAs?$AAt@ 100236b0     libucrt:nlsdata.obj
 0002:000036c0       ??_C@_1BE@DKAAMBJL@?$AAS?$AAe?$AAp?$AAt?$AAe?$AAm?$AAb?$AAe?$AAr@ 100236c0     libucrt:nlsdata.obj
 0002:000036d4       ??_C@_1BA@EPANDLNG@?$AAO?$AAc?$AAt?$AAo?$AAb?$AAe?$AAr@ 100236d4     libucrt:nlsdata.obj
 0002:000036e4       ??_C@_1BC@BGLIFPF@?$AAN?$AAo?$AAv?$AAe?$AAm?$AAb?$AAe?$AAr@ 100236e4     libucrt:nlsdata.obj
 0002:000036f8       ??_C@_1BC@FEMKIFH@?$AAD?$AAe?$AAc?$AAe?$AAm?$AAb?$AAe?$AAr@ 100236f8     libucrt:nlsdata.obj
 0002:0000370c       ??_C@_15ODEHAHHF@?$AAA?$AAM@ 1002370c     libucrt:nlsdata.obj
 0002:00003714       ??_C@_15CLMNNGEL@?$AAP?$AAM@ 10023714     libucrt:nlsdata.obj
 0002:0000371c       ??_C@_1BC@IEBCMHCM@?$AAM?$AAM?$AA?1?$AAd?$AAd?$AA?1?$AAy?$AAy@ 1002371c     libucrt:nlsdata.obj
 0002:00003730       ??_C@_1CI@KNAKOEBC@?$AAd?$AAd?$AAd?$AAd?$AA?0?$AA?5?$AAM?$AAM?$AAM?$AAM?$AA?5?$AAd?$AAd?$AA?0?$AA?5@ 10023730     libucrt:nlsdata.obj
 0002:00003758       ??_C@_1BC@GDGBMEMK@?$AAH?$AAH?$AA?3?$AAm?$AAm?$AA?3?$AAs?$AAs@ 10023758     libucrt:nlsdata.obj
 0002:0000376c       ??_C@_1M@BMHNFIME@?$AAe?$AAn?$AA?9?$AAU?$AAS@ 1002376c     libucrt:nlsdata.obj
 0002:00003788       ??_C@_1M@HPNHIDJI@?$AAj?$AAa?$AA?9?$AAJ?$AAP@ 10023788     libucrt:mbctype.obj
 0002:00003794       ??_C@_1M@BIBDDEMK@?$AAz?$AAh?$AA?9?$AAC?$AAN@ 10023794     libucrt:mbctype.obj
 0002:000037a0       ??_C@_1M@JLOOOEGK@?$AAk?$AAo?$AA?9?$AAK?$AAR@ 100237a0     libucrt:mbctype.obj
 0002:000037ac       ??_C@_1M@CLNBBOPM@?$AAz?$AAh?$AA?9?$AAT?$AAW@ 100237ac     libucrt:mbctype.obj
 0002:000037b8       ___newctype                100237b8     libucrt:ctype.obj
 0002:00003ab8       ___newclmap                10023ab8     libucrt:ctype.obj
 0002:00003c38       ___newcumap                10023c38     libucrt:ctype.obj
 0002:00003db8       __wctype                   10023db8     libucrt:ctype.obj
 0002:000046e0       ??_C@_15EMKDOKLE@?$AAa?$AAr@ 100246e0     libucrt:lcidtoname_downlevel.obj
 0002:000046e8       ??_C@_15KNPADPLH@?$AAb?$AAg@ 100246e8     libucrt:lcidtoname_downlevel.obj
 0002:000046f0       ??_C@_15EDMHLDMO@?$AAc?$AAa@ 100246f0     libucrt:lcidtoname_downlevel.obj
 0002:000046f8       ??_C@_1O@BPEAJADD@?$AAz?$AAh?$AA?9?$AAC?$AAH?$AAS@ 100246f8     libucrt:lcidtoname_downlevel.obj
 0002:00004708       ??_C@_15LJNHCMNK@?$AAc?$AAs@ 10024708     libucrt:lcidtoname_downlevel.obj
 0002:00004710       ??_C@_15FOMCIDHG@?$AAd?$AAa@ 10024710     libucrt:lcidtoname_downlevel.obj
 0002:00004718       ??_C@_15NBKABECB@?$AAd?$AAe@ 10024718     libucrt:lcidtoname_downlevel.obj
 0002:00004720       ??_C@_15GHPEIIAO@?$AAe?$AAl@ 10024720     libucrt:lcidtoname_downlevel.obj
 0002:00004728       ??_C@_15MNPNEAIF@?$AAe?$AAn@ 10024728     libucrt:lcidtoname_downlevel.obj
 0002:00004730       ??_C@_15GPIOMPMH@?$AAe?$AAs@ 10024730     libucrt:lcidtoname_downlevel.obj
 0002:00004738       ??_C@_15NGLOAKJC@?$AAf?$AAi@ 10024738     libucrt:lcidtoname_downlevel.obj
 0002:00004740       ??_C@_15FBKGNKAM@?$AAf?$AAr@ 10024740     libucrt:lcidtoname_downlevel.obj
 0002:00004748       ??_C@_15KGGCNEFK@?$AAh?$AAe@ 10024748     libucrt:lcidtoname_downlevel.obj
 0002:00004750       ??_C@_15PGHLIDMF@?$AAh?$AAu@ 10024750     libucrt:lcidtoname_downlevel.obj
 0002:00004758       ??_C@_15BIEMAPLM@?$AAi?$AAs@ 10024758     libucrt:lcidtoname_downlevel.obj
 0002:00004760       ??_C@_15IFJLDHAF@?$AAi?$AAt@ 10024760     libucrt:lcidtoname_downlevel.obj
 0002:00004768       ??_C@_15GEMIOCAG@?$AAj?$AAa@ 10024768     libucrt:lcidtoname_downlevel.obj
 0002:00004770       ??_C@_15EPELEGJA@?$AAk?$AAo@ 10024770     libucrt:lcidtoname_downlevel.obj
 0002:00004778       ??_C@_15NDDHIMN@?$AAn?$AAl@ 10024778     libucrt:lcidtoname_downlevel.obj
 0002:00004780       ??_C@_15BPIGNHCD@?$AAn?$AAo@ 10024780     libucrt:lcidtoname_downlevel.obj
 0002:00004788       ??_C@_15DEOPBLCG@?$AAp?$AAl@ 10024788     libucrt:lcidtoname_downlevel.obj
 0002:00004790       ??_C@_15KBECGEFG@?$AAp?$AAt@ 10024790     libucrt:lcidtoname_downlevel.obj
 0002:00004798       ??_C@_15GLJCBFMD@?$AAr?$AAo@ 10024798     libucrt:lcidtoname_downlevel.obj
 0002:000047a0       ??_C@_15FEDGKCDI@?$AAr?$AAu@ 100247a0     libucrt:lcidtoname_downlevel.obj
 0002:000047a8       ??_C@_15GLKMLLHM@?$AAh?$AAr@ 100247a8     libucrt:lcidtoname_downlevel.obj
 0002:000047b0       ??_C@_15CPKMFBDB@?$AAs?$AAk@ 100247b0     libucrt:lcidtoname_downlevel.obj
 0002:000047b8       ??_C@_15BAAIOGMK@?$AAs?$AAq@ 100247b8     libucrt:lcidtoname_downlevel.obj
 0002:000047c0       ??_C@_15INNPNOHD@?$AAs?$AAv@ 100247c0     libucrt:lcidtoname_downlevel.obj
 0002:000047c8       ??_C@_15CABMMOGH@?$AAt?$AAh@ 100247c8     libucrt:lcidtoname_downlevel.obj
 0002:000047d0       ??_C@_15BPLIHJJM@?$AAt?$AAr@ 100247d0     libucrt:lcidtoname_downlevel.obj
 0002:000047d8       ??_C@_15NEOEKKDJ@?$AAu?$AAr@ 100247d8     libucrt:lcidtoname_downlevel.obj
 0002:000047e0       ??_C@_15NFICGAJK@?$AAi?$AAd@ 100247e0     libucrt:lcidtoname_downlevel.obj
 0002:000047e8       ??_C@_15PJPFLCCM@?$AAu?$AAk@ 100247e8     libucrt:lcidtoname_downlevel.obj
 0002:000047f0       ??_C@_15HPJPHDM@?$AAb?$AAe@ 100247f0     libucrt:lcidtoname_downlevel.obj
 0002:000047f8       ??_C@_15LCHLGJII@?$AAs?$AAl@ 100247f8     libucrt:lcidtoname_downlevel.obj
 0002:00004800       ??_C@_15PCFJPHHO@?$AAe?$AAt@ 10024800     libucrt:lcidtoname_downlevel.obj
 0002:00004808       ??_C@_15HPFPGODN@?$AAl?$AAv@ 10024808     libucrt:lcidtoname_downlevel.obj
 0002:00004810       ??_C@_15NFFGKGLG@?$AAl?$AAt@ 10024810     libucrt:lcidtoname_downlevel.obj
 0002:00004818       ??_C@_15BDAKCCHN@?$AAf?$AAa@ 10024818     libucrt:lcidtoname_downlevel.obj
 0002:00004820       ??_C@_15NFGIAIAJ@?$AAv?$AAi@ 10024820     libucrt:lcidtoname_downlevel.obj
 0002:00004828       ??_C@_15LMKNDMHN@?$AAh?$AAy@ 10024828     libucrt:lcidtoname_downlevel.obj
 0002:00004830       ??_C@_15IJBHMCFL@?$AAa?$AAz@ 10024830     libucrt:lcidtoname_downlevel.obj
 0002:00004838       ??_C@_15EKOFJABL@?$AAe?$AAu@ 10024838     libucrt:lcidtoname_downlevel.obj
 0002:00004840       ??_C@_15BGHADCNK@?$AAm?$AAk@ 10024840     libucrt:lcidtoname_downlevel.obj
 0002:00004848       ??_C@_15JDNICKHM@?$AAa?$AAf@ 10024848     libucrt:lcidtoname_downlevel.obj
 0002:00004850       ??_C@_15KPJEDBKD@?$AAk?$AAa@ 10024850     libucrt:lcidtoname_downlevel.obj
 0002:00004858       ??_C@_15PDNFFFEO@?$AAf?$AAo@ 10024858     libucrt:lcidtoname_downlevel.obj
 0002:00004860       ??_C@_15OMLEGLOC@?$AAh?$AAi@ 10024860     libucrt:lcidtoname_downlevel.obj
 0002:00004868       ??_C@_15IDNNENKK@?$AAm?$AAs@ 10024868     libucrt:lcidtoname_downlevel.obj
 0002:00004870       ??_C@_15MACJNBMH@?$AAk?$AAk@ 10024870     libucrt:lcidtoname_downlevel.obj
 0002:00004878       ??_C@_15DKDJEOND@?$AAk?$AAy@ 10024878     libucrt:lcidtoname_downlevel.obj
 0002:00004880       ??_C@_15DFGDLJBG@?$AAs?$AAw@ 10024880     libucrt:lcidtoname_downlevel.obj
 0002:00004888       ??_C@_15BBFAICNG@?$AAu?$AAz@ 10024888     libucrt:lcidtoname_downlevel.obj
 0002:00004890       ??_C@_15DKNDCGEA@?$AAt?$AAt@ 10024890     libucrt:lcidtoname_downlevel.obj
 0002:00004898       ??_C@_15MGIFMDPL@?$AAp?$AAa@ 10024898     libucrt:lcidtoname_downlevel.obj
 0002:000048a0       ??_C@_15HCNDBBA@?$AAg?$AAu@ 100248a0     libucrt:lcidtoname_downlevel.obj
 0002:000048a8       ??_C@_15FNBEIBON@?$AAt?$AAa@ 100248a8     libucrt:lcidtoname_downlevel.obj
 0002:000048b0       ??_C@_15NCHGBGLK@?$AAt?$AAe@ 100248b0     libucrt:lcidtoname_downlevel.obj
 0002:000048b8       ??_C@_15PHPHCBPF@?$AAk?$AAn@ 100248b8     libucrt:lcidtoname_downlevel.obj
 0002:000048c0       ??_C@_15DLGBCKMP@?$AAm?$AAr@ 100248c0     libucrt:lcidtoname_downlevel.obj
 0002:000048c8       ??_C@_15EABBLBFF@?$AAs?$AAa@ 100248c8     libucrt:lcidtoname_downlevel.obj
 0002:000048d0       ??_C@_15CBKOMCOI@?$AAm?$AAn@ 100248d0     libucrt:lcidtoname_downlevel.obj
 0002:000048d8       ??_C@_15CKDMCJAF@?$AAg?$AAl@ 100248d8     libucrt:lcidtoname_downlevel.obj
 0002:000048e0       ??_C@_17CNJFBPG@?$AAk?$AAo?$AAk@ 100248e0     libucrt:lcidtoname_downlevel.obj
 0002:000048e8       ??_C@_17FFBJICPL@?$AAs?$AAy?$AAr@ 100248e8     libucrt:lcidtoname_downlevel.obj
 0002:000048f0       ??_C@_17KPNDCPAF@?$AAd?$AAi?$AAv@ 100248f0     libucrt:lcidtoname_downlevel.obj
 0002:000048f8       ??_C@_1M@OKAHONE@?$AAa?$AAr?$AA?9?$AAS?$AAA@ 100248f8     libucrt:lcidtoname_downlevel.obj
 0002:00004904       ??_C@_1M@FFFIGIGK@?$AAb?$AAg?$AA?9?$AAB?$AAG@ 10024904     libucrt:lcidtoname_downlevel.obj
 0002:00004910       ??_C@_1M@BJNKEDC@?$AAc?$AAa?$AA?9?$AAE?$AAS@ 10024910     libucrt:lcidtoname_downlevel.obj
 0002:0000491c       ??_C@_1M@IJJHFJHA@?$AAc?$AAs?$AA?9?$AAC?$AAZ@ 1002491c     libucrt:lcidtoname_downlevel.obj
 0002:00004928       ??_C@_1M@CLPEOBGI@?$AAd?$AAa?$AA?9?$AAD?$AAK@ 10024928     libucrt:lcidtoname_downlevel.obj
 0002:00004934       ??_C@_1M@MCMADGCB@?$AAd?$AAe?$AA?9?$AAD?$AAE@ 10024934     libucrt:lcidtoname_downlevel.obj
 0002:00004940       ??_C@_1M@OOCKEMAM@?$AAe?$AAl?$AA?9?$AAG?$AAR@ 10024940     libucrt:lcidtoname_downlevel.obj
 0002:0000494c       ??_C@_1M@DDNJFGID@?$AAf?$AAi?$AA?9?$AAF?$AAI@ 1002494c     libucrt:lcidtoname_downlevel.obj
 0002:00004958       ??_C@_1M@GLIPPMAC@?$AAf?$AAr?$AA?9?$AAF?$AAR@ 10024958     libucrt:lcidtoname_downlevel.obj
 0002:00004964       ??_C@_1M@GFMCHPE@?$AAh?$AAe?$AA?9?$AAI?$AAL@ 10024964     libucrt:lcidtoname_downlevel.obj
 0002:00004970       ??_C@_1M@MHLPGNKM@?$AAh?$AAu?$AA?9?$AAH?$AAU@ 10024970     libucrt:lcidtoname_downlevel.obj
 0002:0000497c       ??_C@_1M@LPDDNNPN@?$AAi?$AAs?$AA?9?$AAI?$AAS@ 1002497c     libucrt:lcidtoname_downlevel.obj
 0002:00004988       ??_C@_1M@MADIPODN@?$AAi?$AAt?$AA?9?$AAI?$AAT@ 10024988     libucrt:lcidtoname_downlevel.obj
 0002:00004994       ??_C@_1M@IHBJJGG@?$AAn?$AAl?$AA?9?$AAN?$AAL@ 10024994     libucrt:lcidtoname_downlevel.obj
 0002:000049a0       ??_C@_1M@EANAGDL@?$AAn?$AAb?$AA?9?$AAN?$AAO@ 100249a0     libucrt:lcidtoname_downlevel.obj
 0002:000049ac       ??_C@_1M@NEIEMEGP@?$AAp?$AAl?$AA?9?$AAP?$AAL@ 100249ac     libucrt:lcidtoname_downlevel.obj
 0002:000049b8       ??_C@_1M@BOCFIGEP@?$AAp?$AAt?$AA?9?$AAB?$AAR@ 100249b8     libucrt:lcidtoname_downlevel.obj
 0002:000049c4       ??_C@_1M@IMPFOPBG@?$AAr?$AAo?$AA?9?$AAR?$AAO@ 100249c4     libucrt:lcidtoname_downlevel.obj
 0002:000049d0       ??_C@_1M@IDNNEJMM@?$AAr?$AAu?$AA?9?$AAR?$AAU@ 100249d0     libucrt:lcidtoname_downlevel.obj
 0002:000049dc       ??_C@_1M@LILEEOGM@?$AAh?$AAr?$AA?9?$AAH?$AAR@ 100249dc     libucrt:lcidtoname_downlevel.obj
 0002:000049e8       ??_C@_1M@FKIFEHPB@?$AAs?$AAk?$AA?9?$AAS?$AAK@ 100249e8     libucrt:lcidtoname_downlevel.obj
 0002:000049f4       ??_C@_1M@LJMAMNPJ@?$AAs?$AAq?$AA?9?$AAA?$AAL@ 100249f4     libucrt:lcidtoname_downlevel.obj
 0002:00004a00       ??_C@_1M@GIAKDKJK@?$AAs?$AAv?$AA?9?$AAS?$AAE@ 10024a00     libucrt:lcidtoname_downlevel.obj
 0002:00004a0c       ??_C@_1M@MKJKIKCL@?$AAt?$AAh?$AA?9?$AAT?$AAH@ 10024a0c     libucrt:lcidtoname_downlevel.obj
 0002:00004a18       ??_C@_1M@MFLCCMPB@?$AAt?$AAr?$AA?9?$AAT?$AAR@ 10024a18     libucrt:lcidtoname_downlevel.obj
 0002:00004a24       ??_C@_1M@OIJHDKJN@?$AAu?$AAr?$AA?9?$AAP?$AAK@ 10024a24     libucrt:lcidtoname_downlevel.obj
 0002:00004a30       ??_C@_1M@LHIPCIEK@?$AAi?$AAd?$AA?9?$AAI?$AAD@ 10024a30     libucrt:lcidtoname_downlevel.obj
 0002:00004a3c       ??_C@_1M@MFMOBGI@?$AAu?$AAk?$AA?9?$AAU?$AAA@ 10024a3c     libucrt:lcidtoname_downlevel.obj
 0002:00004a48       ??_C@_1M@OBGLJIPL@?$AAb?$AAe?$AA?9?$AAB?$AAY@ 10024a48     libucrt:lcidtoname_downlevel.obj
 0002:00004a54       ??_C@_1M@BCFAJEAD@?$AAs?$AAl?$AA?9?$AAS?$AAI@ 10024a54     libucrt:lcidtoname_downlevel.obj
 0002:00004a60       ??_C@_1M@FKFFEDDN@?$AAe?$AAt?$AA?9?$AAE?$AAE@ 10024a60     libucrt:lcidtoname_downlevel.obj
 0002:00004a6c       ??_C@_1M@KGKKAACI@?$AAl?$AAv?$AA?9?$AAL?$AAV@ 10024a6c     libucrt:lcidtoname_downlevel.obj
 0002:00004a78       ??_C@_1M@IFGBIJO@?$AAl?$AAt?$AA?9?$AAL?$AAT@ 10024a78     libucrt:lcidtoname_downlevel.obj
 0002:00004a84       ??_C@_1M@FGEAHEDM@?$AAf?$AAa?$AA?9?$AAI?$AAR@ 10024a84     libucrt:lcidtoname_downlevel.obj
 0002:00004a90       ??_C@_1M@KBMAIBFN@?$AAv?$AAi?$AA?9?$AAV?$AAN@ 10024a90     libucrt:lcidtoname_downlevel.obj
 0002:00004a9c       ??_C@_1M@GPCBKDJK@?$AAh?$AAy?$AA?9?$AAA?$AAM@ 10024a9c     libucrt:lcidtoname_downlevel.obj
 0002:00004aa8       ??_C@_1BG@BECMDDJB@?$AAa?$AAz?$AA?9?$AAA?$AAZ?$AA?9?$AAL?$AAa?$AAt?$AAn@ 10024aa8     libucrt:lcidtoname_downlevel.obj
 0002:00004ac0       ??_C@_1M@MAOFCAEA@?$AAe?$AAu?$AA?9?$AAE?$AAS@ 10024ac0     libucrt:lcidtoname_downlevel.obj
 0002:00004acc       ??_C@_1M@IGHABKPI@?$AAm?$AAk?$AA?9?$AAM?$AAK@ 10024acc     libucrt:lcidtoname_downlevel.obj
 0002:00004ad8       ??_C@_1M@IAIGNEJG@?$AAt?$AAn?$AA?9?$AAZ?$AAA@ 10024ad8     libucrt:lcidtoname_downlevel.obj
 0002:00004ae4       ??_C@_1M@IIJCOJFA@?$AAx?$AAh?$AA?9?$AAZ?$AAA@ 10024ae4     libucrt:lcidtoname_downlevel.obj
 0002:00004af0       ??_C@_1M@LGPJHNJH@?$AAz?$AAu?$AA?9?$AAZ?$AAA@ 10024af0     libucrt:lcidtoname_downlevel.obj
 0002:00004afc       ??_C@_1M@HOKAOIO@?$AAa?$AAf?$AA?9?$AAZ?$AAA@ 10024afc     libucrt:lcidtoname_downlevel.obj
 0002:00004b08       ??_C@_1M@DPCLHLIE@?$AAk?$AAa?$AA?9?$AAG?$AAE@ 10024b08     libucrt:lcidtoname_downlevel.obj
 0002:00004b14       ??_C@_1M@BLKMHJBI@?$AAf?$AAo?$AA?9?$AAF?$AAO@ 10024b14     libucrt:lcidtoname_downlevel.obj
 0002:00004b20       ??_C@_1M@LGGJAPPB@?$AAh?$AAi?$AA?9?$AAI?$AAN@ 10024b20     libucrt:lcidtoname_downlevel.obj
 0002:00004b2c       ??_C@_1M@FIKPIHFE@?$AAm?$AAt?$AA?9?$AAM?$AAT@ 10024b2c     libucrt:lcidtoname_downlevel.obj
 0002:00004b38       ??_C@_1M@HEGGPBFA@?$AAs?$AAe?$AA?9?$AAN?$AAO@ 10024b38     libucrt:lcidtoname_downlevel.obj
 0002:00004b44       ??_C@_1M@EIBJEEPA@?$AAm?$AAs?$AA?9?$AAM?$AAY@ 10024b44     libucrt:lcidtoname_downlevel.obj
 0002:00004b50       ??_C@_1M@FHLBGMPP@?$AAk?$AAk?$AA?9?$AAK?$AAZ@ 10024b50     libucrt:lcidtoname_downlevel.obj
 0002:00004b5c       ??_C@_1M@NGJJLCGI@?$AAk?$AAy?$AA?9?$AAK?$AAG@ 10024b5c     libucrt:lcidtoname_downlevel.obj
 0002:00004b68       ??_C@_1M@GIENNBFC@?$AAs?$AAw?$AA?9?$AAK?$AAE@ 10024b68     libucrt:lcidtoname_downlevel.obj
 0002:00004b74       ??_C@_1BG@NDGMJIMJ@?$AAu?$AAz?$AA?9?$AAU?$AAZ?$AA?9?$AAL?$AAa?$AAt?$AAn@ 10024b74     libucrt:lcidtoname_downlevel.obj
 0002:00004b8c       ??_C@_1M@IDCCIHBC@?$AAt?$AAt?$AA?9?$AAR?$AAU@ 10024b8c     libucrt:lcidtoname_downlevel.obj
 0002:00004b98       ??_C@_1M@LOICPMOJ@?$AAb?$AAn?$AA?9?$AAI?$AAN@ 10024b98     libucrt:lcidtoname_downlevel.obj
 0002:00004ba4       ??_C@_1M@KPKKNEAH@?$AAp?$AAa?$AA?9?$AAI?$AAN@ 10024ba4     libucrt:lcidtoname_downlevel.obj
 0002:00004bb0       ??_C@_1M@PJGPPBOG@?$AAg?$AAu?$AA?9?$AAI?$AAN@ 10024bb0     libucrt:lcidtoname_downlevel.obj
 0002:00004bbc       ??_C@_1M@KMKMOPHI@?$AAt?$AAa?$AA?9?$AAI?$AAN@ 10024bbc     libucrt:lcidtoname_downlevel.obj
 0002:00004bc8       ??_C@_1M@KFEHEPAC@?$AAt?$AAe?$AA?9?$AAI?$AAN@ 10024bc8     libucrt:lcidtoname_downlevel.obj
 0002:00004bd4       ??_C@_1M@CDCLMGHI@?$AAk?$AAn?$AA?9?$AAI?$AAN@ 10024bd4     libucrt:lcidtoname_downlevel.obj
 0002:00004be0       ??_C@_1M@MIODLDKF@?$AAm?$AAl?$AA?9?$AAI?$AAN@ 10024be0     libucrt:lcidtoname_downlevel.obj
 0002:00004bec       ??_C@_1M@PBIEACPO@?$AAm?$AAr?$AA?9?$AAI?$AAN@ 10024bec     libucrt:lcidtoname_downlevel.obj
 0002:00004bf8       ??_C@_1M@NIDEAGPH@?$AAs?$AAa?$AA?9?$AAI?$AAN@ 10024bf8     libucrt:lcidtoname_downlevel.obj
 0002:00004c04       ??_C@_1M@FHIHCBIO@?$AAm?$AAn?$AA?9?$AAM?$AAN@ 10024c04     libucrt:lcidtoname_downlevel.obj
 0002:00004c10       ??_C@_1M@JAIJPENP@?$AAc?$AAy?$AA?9?$AAG?$AAB@ 10024c10     libucrt:lcidtoname_downlevel.obj
 0002:00004c1c       ??_C@_1M@PHGFBEPN@?$AAg?$AAl?$AA?9?$AAE?$AAS@ 10024c1c     libucrt:lcidtoname_downlevel.obj
 0002:00004c28       ??_C@_1O@KPIPDNCP@?$AAk?$AAo?$AAk?$AA?9?$AAI?$AAN@ 10024c28     libucrt:lcidtoname_downlevel.obj
 0002:00004c38       ??_C@_1O@KNHJLDJA@?$AAs?$AAy?$AAr?$AA?9?$AAS?$AAY@ 10024c38     libucrt:lcidtoname_downlevel.obj
 0002:00004c48       ??_C@_1O@MKEKBLAH@?$AAd?$AAi?$AAv?$AA?9?$AAM?$AAV@ 10024c48     libucrt:lcidtoname_downlevel.obj
 0002:00004c58       ??_C@_1O@OHDCKDDF@?$AAq?$AAu?$AAz?$AA?9?$AAB?$AAO@ 10024c58     libucrt:lcidtoname_downlevel.obj
 0002:00004c68       ??_C@_1M@LEPJNLFD@?$AAn?$AAs?$AA?9?$AAZ?$AAA@ 10024c68     libucrt:lcidtoname_downlevel.obj
 0002:00004c74       ??_C@_1M@OMLEIIJB@?$AAm?$AAi?$AA?9?$AAN?$AAZ@ 10024c74     libucrt:lcidtoname_downlevel.obj
 0002:00004c80       ??_C@_1M@PMPEAILG@?$AAa?$AAr?$AA?9?$AAI?$AAQ@ 10024c80     libucrt:lcidtoname_downlevel.obj
 0002:00004c8c       ??_C@_1M@CNKPNOEE@?$AAd?$AAe?$AA?9?$AAC?$AAH@ 10024c8c     libucrt:lcidtoname_downlevel.obj
 0002:00004c98       ??_C@_1M@LKMGMLKO@?$AAe?$AAn?$AA?9?$AAG?$AAB@ 10024c98     libucrt:lcidtoname_downlevel.obj
 0002:00004ca4       ??_C@_1M@PGKJFFGL@?$AAe?$AAs?$AA?9?$AAM?$AAX@ 10024ca4     libucrt:lcidtoname_downlevel.obj
 0002:00004cb0       ??_C@_1M@DNNANBDC@?$AAf?$AAr?$AA?9?$AAB?$AAE@ 10024cb0     libucrt:lcidtoname_downlevel.obj
 0002:00004cbc       ??_C@_1M@HLGMDFHM@?$AAi?$AAt?$AA?9?$AAC?$AAH@ 10024cbc     libucrt:lcidtoname_downlevel.obj
 0002:00004cc8       ??_C@_1M@CLLBGJH@?$AAn?$AAl?$AA?9?$AAB?$AAE@ 10024cc8     libucrt:lcidtoname_downlevel.obj
 0002:00004cd4       ??_C@_1M@BODBOGLF@?$AAn?$AAn?$AA?9?$AAN?$AAO@ 10024cd4     libucrt:lcidtoname_downlevel.obj
 0002:00004ce0       ??_C@_1M@HFFAHKAD@?$AAp?$AAt?$AA?9?$AAP?$AAT@ 10024ce0     libucrt:lcidtoname_downlevel.obj
 0002:00004cec       ??_C@_1BG@LNOAKHIE@?$AAs?$AAr?$AA?9?$AAS?$AAP?$AA?9?$AAL?$AAa?$AAt?$AAn@ 10024cec     libucrt:lcidtoname_downlevel.obj
 0002:00004d04       ??_C@_1M@HBMHBGAK@?$AAs?$AAv?$AA?9?$AAF?$AAI@ 10024d04     libucrt:lcidtoname_downlevel.obj
 0002:00004d10       ??_C@_1BG@DGCJGJBE@?$AAa?$AAz?$AA?9?$AAA?$AAZ?$AA?9?$AAC?$AAy?$AAr?$AAl@ 10024d10     libucrt:lcidtoname_downlevel.obj
 0002:00004d28       ??_C@_1M@KEJDAAHB@?$AAs?$AAe?$AA?9?$AAS?$AAE@ 10024d28     libucrt:lcidtoname_downlevel.obj
 0002:00004d34       ??_C@_1M@HEIBJJAD@?$AAm?$AAs?$AA?9?$AAB?$AAN@ 10024d34     libucrt:lcidtoname_downlevel.obj
 0002:00004d40       ??_C@_1BG@PBGJMCEM@?$AAu?$AAz?$AA?9?$AAU?$AAZ?$AA?9?$AAC?$AAy?$AAr?$AAl@ 10024d40     libucrt:lcidtoname_downlevel.obj
 0002:00004d58       ??_C@_1O@LAOBCMDF@?$AAq?$AAu?$AAz?$AA?9?$AAE?$AAC@ 10024d58     libucrt:lcidtoname_downlevel.obj
 0002:00004d68       ??_C@_1M@POEEMAIO@?$AAa?$AAr?$AA?9?$AAE?$AAG@ 10024d68     libucrt:lcidtoname_downlevel.obj
 0002:00004d74       ??_C@_1M@EFAKDEDL@?$AAz?$AAh?$AA?9?$AAH?$AAK@ 10024d74     libucrt:lcidtoname_downlevel.obj
 0002:00004d80       ??_C@_1M@HKKIJHGI@?$AAd?$AAe?$AA?9?$AAA?$AAT@ 10024d80     libucrt:lcidtoname_downlevel.obj
 0002:00004d8c       ??_C@_1M@KBFBEHJF@?$AAe?$AAn?$AA?9?$AAA?$AAU@ 10024d8c     libucrt:lcidtoname_downlevel.obj
 0002:00004d98       ??_C@_1M@MNPLFAAH@?$AAe?$AAs?$AA?9?$AAE?$AAS@ 10024d98     libucrt:lcidtoname_downlevel.obj
 0002:00004da4       ??_C@_1M@HJOOJFMA@?$AAf?$AAr?$AA?9?$AAC?$AAA@ 10024da4     libucrt:lcidtoname_downlevel.obj
 0002:00004db0       ??_C@_1BG@JPOFPNAB@?$AAs?$AAr?$AA?9?$AAS?$AAP?$AA?9?$AAC?$AAy?$AAr?$AAl@ 10024db0     libucrt:lcidtoname_downlevel.obj
 0002:00004dc8       ??_C@_1M@LNFOCMOB@?$AAs?$AAe?$AA?9?$AAF?$AAI@ 10024dc8     libucrt:lcidtoname_downlevel.obj
 0002:00004dd4       ??_C@_1O@MGJBOAMB@?$AAq?$AAu?$AAz?$AA?9?$AAP?$AAE@ 10024dd4     libucrt:lcidtoname_downlevel.obj
 0002:00004de4       ??_C@_1M@GJINLBOK@?$AAa?$AAr?$AA?9?$AAL?$AAY@ 10024de4     libucrt:lcidtoname_downlevel.obj
 0002:00004df0       ??_C@_1M@GGMNHJNL@?$AAz?$AAh?$AA?9?$AAS?$AAG@ 10024df0     libucrt:lcidtoname_downlevel.obj
 0002:00004dfc       ??_C@_1M@HOIKODND@?$AAd?$AAe?$AA?9?$AAL?$AAU@ 10024dfc     libucrt:lcidtoname_downlevel.obj
 0002:00004e08       ??_C@_1M@DDOCCGFG@?$AAe?$AAn?$AA?9?$AAC?$AAA@ 10024e08     libucrt:lcidtoname_downlevel.obj
 0002:00004e14       ??_C@_1M@BNOEMJLF@?$AAe?$AAs?$AA?9?$AAG?$AAT@ 10024e14     libucrt:lcidtoname_downlevel.obj
 0002:00004e20       ??_C@_1M@EOGNKEK@?$AAf?$AAr?$AA?9?$AAC?$AAH@ 10024e20     libucrt:lcidtoname_downlevel.obj
 0002:00004e2c       ??_C@_1M@FLIDJFHL@?$AAh?$AAr?$AA?9?$AAB?$AAA@ 10024e2c     libucrt:lcidtoname_downlevel.obj
 0002:00004e38       ??_C@_1O@FMCELNAJ@?$AAs?$AAm?$AAj?$AA?9?$AAN?$AAO@ 10024e38     libucrt:lcidtoname_downlevel.obj
 0002:00004e48       ??_C@_1M@JHGLJMGJ@?$AAa?$AAr?$AA?9?$AAD?$AAZ@ 10024e48     libucrt:lcidtoname_downlevel.obj
 0002:00004e54       ??_C@_1M@JKKFDCNP@?$AAz?$AAh?$AA?9?$AAM?$AAO@ 10024e54     libucrt:lcidtoname_downlevel.obj
 0002:00004e60       ??_C@_1M@GEEFALPE@?$AAd?$AAe?$AA?9?$AAL?$AAI@ 10024e60     libucrt:lcidtoname_downlevel.obj
 0002:00004e6c       ??_C@_1M@IGEOFBG@?$AAe?$AAn?$AA?9?$AAN?$AAZ@ 10024e6c     libucrt:lcidtoname_downlevel.obj
 0002:00004e78       ??_C@_1M@KDBONEHP@?$AAe?$AAs?$AA?9?$AAC?$AAR@ 10024e78     libucrt:lcidtoname_downlevel.obj
 0002:00004e84       ??_C@_1M@FHMDOHNN@?$AAf?$AAr?$AA?9?$AAL?$AAU@ 10024e84     libucrt:lcidtoname_downlevel.obj
 0002:00004e90       ??_C@_1BG@NFKKMAFG@?$AAb?$AAs?$AA?9?$AAB?$AAA?$AA?9?$AAL?$AAa?$AAt?$AAn@ 10024e90     libucrt:lcidtoname_downlevel.obj
 0002:00004ea8       ??_C@_1O@IMNBEMCI@?$AAs?$AAm?$AAj?$AA?9?$AAS?$AAE@ 10024ea8     libucrt:lcidtoname_downlevel.obj
 0002:00004eb8       ??_C@_1M@DHHMBNDP@?$AAa?$AAr?$AA?9?$AAM?$AAA@ 10024eb8     libucrt:lcidtoname_downlevel.obj
 0002:00004ec4       ??_C@_1M@BNBLJCGH@?$AAe?$AAn?$AA?9?$AAI?$AAE@ 10024ec4     libucrt:lcidtoname_downlevel.obj
 0002:00004ed0       ??_C@_1M@GEPAFMDL@?$AAe?$AAs?$AA?9?$AAP?$AAA@ 10024ed0     libucrt:lcidtoname_downlevel.obj
 0002:00004edc       ??_C@_1M@OJONDMDL@?$AAf?$AAr?$AA?9?$AAM?$AAC@ 10024edc     libucrt:lcidtoname_downlevel.obj
 0002:00004ee8       ??_C@_1BG@OBCNFJB@?$AAs?$AAr?$AA?9?$AAB?$AAA?$AA?9?$AAL?$AAa?$AAt?$AAn@ 10024ee8     libucrt:lcidtoname_downlevel.obj
 0002:00004f00       ??_C@_1O@KEMEEGPO@?$AAs?$AAm?$AAa?$AA?9?$AAN?$AAO@ 10024f00     libucrt:lcidtoname_downlevel.obj
 0002:00004f10       ??_C@_1M@ELMGFODK@?$AAa?$AAr?$AA?9?$AAT?$AAN@ 10024f10     libucrt:lcidtoname_downlevel.obj
 0002:00004f1c       ??_C@_1M@BHDLHFAF@?$AAe?$AAn?$AA?9?$AAZ?$AAA@ 10024f1c     libucrt:lcidtoname_downlevel.obj
 0002:00004f28       ??_C@_1M@BMGIGLIF@?$AAe?$AAs?$AA?9?$AAD?$AAO@ 10024f28     libucrt:lcidtoname_downlevel.obj
 0002:00004f34       ??_C@_1BG@CMBHIPBE@?$AAs?$AAr?$AA?9?$AAB?$AAA?$AA?9?$AAC?$AAy?$AAr?$AAl@ 10024f34     libucrt:lcidtoname_downlevel.obj
 0002:00004f4c       ??_C@_1O@HEDBLHNP@?$AAs?$AAm?$AAa?$AA?9?$AAS?$AAE@ 10024f4c     libucrt:lcidtoname_downlevel.obj
 0002:00004f5c       ??_C@_1M@DAGCADIM@?$AAa?$AAr?$AA?9?$AAO?$AAM@ 10024f5c     libucrt:lcidtoname_downlevel.obj
 0002:00004f68       ??_C@_1M@FODLMICG@?$AAe?$AAn?$AA?9?$AAJ?$AAM@ 10024f68     libucrt:lcidtoname_downlevel.obj
 0002:00004f74       ??_C@_1M@DNMLCIHB@?$AAe?$AAs?$AA?9?$AAV?$AAE@ 10024f74     libucrt:lcidtoname_downlevel.obj
 0002:00004f80       ??_C@_1O@EOKHMKJK@?$AAs?$AAm?$AAs?$AA?9?$AAF?$AAI@ 10024f80     libucrt:lcidtoname_downlevel.obj
 0002:00004f90       ??_C@_1M@CAFJMKOF@?$AAa?$AAr?$AA?9?$AAY?$AAE@ 10024f90     libucrt:lcidtoname_downlevel.obj
 0002:00004f9c       ??_C@_1M@CBFHIJLI@?$AAe?$AAn?$AA?9?$AAC?$AAB@ 10024f9c     libucrt:lcidtoname_downlevel.obj
 0002:00004fa8       ??_C@_1M@BGNFLDN@?$AAe?$AAs?$AA?9?$AAC?$AAO@ 10024fa8     libucrt:lcidtoname_downlevel.obj
 0002:00004fb4       ??_C@_1O@JMPHMAMC@?$AAs?$AAm?$AAn?$AA?9?$AAF?$AAI@ 10024fb4     libucrt:lcidtoname_downlevel.obj
 0002:00004fc4       ??_C@_1M@JLANABKE@?$AAa?$AAr?$AA?9?$AAS?$AAY@ 10024fc4     libucrt:lcidtoname_downlevel.obj
 0002:00004fd0       ??_C@_1M@HPKGCFGN@?$AAe?$AAn?$AA?9?$AAB?$AAZ@ 10024fd0     libucrt:lcidtoname_downlevel.obj
 0002:00004fdc       ??_C@_1M@OLJCMLGM@?$AAe?$AAs?$AA?9?$AAP?$AAE@ 10024fdc     libucrt:lcidtoname_downlevel.obj
 0002:00004fe8       ??_C@_1M@MKKGFKLE@?$AAa?$AAr?$AA?9?$AAJ?$AAO@ 10024fe8     libucrt:lcidtoname_downlevel.obj
 0002:00004ff4       ??_C@_1M@EKPGLDNI@?$AAe?$AAn?$AA?9?$AAT?$AAT@ 10024ff4     libucrt:lcidtoname_downlevel.obj
 0002:00005000       ??_C@_1M@OONGHFHE@?$AAe?$AAs?$AA?9?$AAA?$AAR@ 10025000     libucrt:lcidtoname_downlevel.obj
 0002:0000500c       ??_C@_1M@OOJFGBHE@?$AAa?$AAr?$AA?9?$AAL?$AAB@ 1002500c     libucrt:lcidtoname_downlevel.obj
 0002:00005018       ??_C@_1M@GCEJHNEG@?$AAe?$AAn?$AA?9?$AAZ?$AAW@ 10025018     libucrt:lcidtoname_downlevel.obj
 0002:00005024       ??_C@_1M@JNOCAHJI@?$AAe?$AAs?$AA?9?$AAE?$AAC@ 10025024     libucrt:lcidtoname_downlevel.obj
 0002:00005030       ??_C@_1M@JEFHPGGB@?$AAa?$AAr?$AA?9?$AAK?$AAW@ 10025030     libucrt:lcidtoname_downlevel.obj
 0002:0000503c       ??_C@_1M@MLKIBJOJ@?$AAe?$AAn?$AA?9?$AAP?$AAH@ 1002503c     libucrt:lcidtoname_downlevel.obj
 0002:00005048       ??_C@_1M@BDNIPEND@?$AAe?$AAs?$AA?9?$AAC?$AAL@ 10025048     libucrt:lcidtoname_downlevel.obj
 0002:00005054       ??_C@_1M@MPNMEKBD@?$AAa?$AAr?$AA?9?$AAA?$AAE@ 10025054     libucrt:lcidtoname_downlevel.obj
 0002:00005060       ??_C@_1M@KBJALCPI@?$AAe?$AAs?$AA?9?$AAU?$AAY@ 10025060     libucrt:lcidtoname_downlevel.obj
 0002:0000506c       ??_C@_1M@LLCCOAGA@?$AAa?$AAr?$AA?9?$AAB?$AAH@ 1002506c     libucrt:lcidtoname_downlevel.obj
 0002:00005078       ??_C@_1M@PBFNCDEL@?$AAe?$AAs?$AA?9?$AAP?$AAY@ 10025078     libucrt:lcidtoname_downlevel.obj
 0002:00005084       ??_C@_1M@EDGINPNP@?$AAa?$AAr?$AA?9?$AAQ?$AAA@ 10025084     libucrt:lcidtoname_downlevel.obj
 0002:00005090       ??_C@_1M@MKDBIIJI@?$AAe?$AAs?$AA?9?$AAB?$AAO@ 10025090     libucrt:lcidtoname_downlevel.obj
 0002:0000509c       ??_C@_1M@CPKKEBLD@?$AAe?$AAs?$AA?9?$AAS?$AAV@ 1002509c     libucrt:lcidtoname_downlevel.obj
 0002:000050a8       ??_C@_1M@NDBGMMJL@?$AAe?$AAs?$AA?9?$AAH?$AAN@ 100250a8     libucrt:lcidtoname_downlevel.obj
 0002:000050b4       ??_C@_1M@JIJIBHDP@?$AAe?$AAs?$AA?9?$AAN?$AAI@ 100250b4     libucrt:lcidtoname_downlevel.obj
 0002:000050c0       ??_C@_1M@CGFMKEEK@?$AAe?$AAs?$AA?9?$AAP?$AAR@ 100250c0     libucrt:lcidtoname_downlevel.obj
 0002:000050cc       ??_C@_1O@ICJHKIIK@?$AAz?$AAh?$AA?9?$AAC?$AAH?$AAT@ 100250cc     libucrt:lcidtoname_downlevel.obj
 0002:000050dc       ??_C@_15CLNEJCE@?$AAs?$AAr@ 100250dc     libucrt:lcidtoname_downlevel.obj
 0002:00005808       ??_C@_1M@KAHEKEIG@?$AAa?$AAf?$AA?9?$AAz?$AAa@ 10025808     libucrt:lcidtoname_downlevel.obj
 0002:00005814       ??_C@_1M@GIECOABL@?$AAa?$AAr?$AA?9?$AAa?$AAe@ 10025814     libucrt:lcidtoname_downlevel.obj
 0002:00005820       ??_C@_1M@BMLMEKGI@?$AAa?$AAr?$AA?9?$AAb?$AAh@ 10025820     libucrt:lcidtoname_downlevel.obj
 0002:0000582c       ??_C@_1M@DAPFDGGB@?$AAa?$AAr?$AA?9?$AAd?$AAz@ 1002582c     libucrt:lcidtoname_downlevel.obj
 0002:00005838       ??_C@_1M@FJNKGKIG@?$AAa?$AAr?$AA?9?$AAe?$AAg@ 10025838     libucrt:lcidtoname_downlevel.obj
 0002:00005844       ??_C@_1M@FLGKKCLO@?$AAa?$AAr?$AA?9?$AAi?$AAq@ 10025844     libucrt:lcidtoname_downlevel.obj
 0002:00005850       ??_C@_1M@GNDIPALM@?$AAa?$AAr?$AA?9?$AAj?$AAo@ 10025850     libucrt:lcidtoname_downlevel.obj
 0002:0000585c       ??_C@_1M@DDMJFMGJ@?$AAa?$AAr?$AA?9?$AAk?$AAw@ 1002585c     libucrt:lcidtoname_downlevel.obj
 0002:00005868       ??_C@_1M@EJALMLHM@?$AAa?$AAr?$AA?9?$AAl?$AAb@ 10025868     libucrt:lcidtoname_downlevel.obj
 0002:00005874       ??_C@_1M@MOBDBLOC@?$AAa?$AAr?$AA?9?$AAl?$AAy@ 10025874     libucrt:lcidtoname_downlevel.obj
 0002:00005880       ??_C@_1M@JAOCLHDH@?$AAa?$AAr?$AA?9?$AAm?$AAa@ 10025880     libucrt:lcidtoname_downlevel.obj
 0002:0000588c       ??_C@_1M@JHPMKJIE@?$AAa?$AAr?$AA?9?$AAo?$AAm@ 1002588c     libucrt:lcidtoname_downlevel.obj
 0002:00005898       ??_C@_1M@OEPGHFNH@?$AAa?$AAr?$AA?9?$AAq?$AAa@ 10025898     libucrt:lcidtoname_downlevel.obj
 0002:000058a4       ??_C@_1M@KJDONENM@?$AAa?$AAr?$AA?9?$AAs?$AAa@ 100258a4     libucrt:lcidtoname_downlevel.obj
 0002:000058b0       ??_C@_1M@DMJDKLKM@?$AAa?$AAr?$AA?9?$AAs?$AAy@ 100258b0     libucrt:lcidtoname_downlevel.obj
 0002:000058bc       ??_C@_1M@OMFIPEDC@?$AAa?$AAr?$AA?9?$AAt?$AAn@ 100258bc     libucrt:lcidtoname_downlevel.obj
 0002:000058c8       ??_C@_1M@IHMHGAON@?$AAa?$AAr?$AA?9?$AAy?$AAe@ 100258c8     libucrt:lcidtoname_downlevel.obj
 0002:000058d4       ??_C@_1BG@KDCPGJGB@?$AAa?$AAz?$AA?9?$AAa?$AAz?$AA?9?$AAc?$AAy?$AAr?$AAl@ 100258d4     libucrt:lcidtoname_downlevel.obj
 0002:000058ec       ??_C@_1BG@IBCKDDOE@?$AAa?$AAz?$AA?9?$AAa?$AAz?$AA?9?$AAl?$AAa?$AAt?$AAn@ 100258ec     libucrt:lcidtoname_downlevel.obj
 0002:00005904       ??_C@_1M@EGPFDCPD@?$AAb?$AAe?$AA?9?$AAb?$AAy@ 10025904     libucrt:lcidtoname_downlevel.obj
 0002:00005910       ??_C@_1M@PCMGMCGC@?$AAb?$AAg?$AA?9?$AAb?$AAg@ 10025910     libucrt:lcidtoname_downlevel.obj
 0002:0000591c       ??_C@_1M@BJBMFGOB@?$AAb?$AAn?$AA?9?$AAi?$AAn@ 1002591c     libucrt:lcidtoname_downlevel.obj
 0002:00005928       ??_C@_1BG@EAKMMACD@?$AAb?$AAs?$AA?9?$AAb?$AAa?$AA?9?$AAl?$AAa?$AAt?$AAn@ 10025928     libucrt:lcidtoname_downlevel.obj
 0002:00005940       ??_C@_1M@KGADAODK@?$AAc?$AAa?$AA?9?$AAe?$AAs@ 10025940     libucrt:lcidtoname_downlevel.obj
 0002:0000594c       ??_C@_1M@COAJPDHI@?$AAc?$AAs?$AA?9?$AAc?$AAz@ 1002594c     libucrt:lcidtoname_downlevel.obj
 0002:00005958       ??_C@_1M@DHBHFONH@?$AAc?$AAy?$AA?9?$AAg?$AAb@ 10025958     libucrt:lcidtoname_downlevel.obj
 0002:00005964       ??_C@_1M@IMGKELGA@?$AAd?$AAa?$AA?9?$AAd?$AAk@ 10025964     libucrt:lcidtoname_downlevel.obj
 0002:00005970       ??_C@_1M@NNDGDNGA@?$AAd?$AAe?$AA?9?$AAa?$AAt@ 10025970     libucrt:lcidtoname_downlevel.obj
 0002:0000597c       ??_C@_1M@IKDBHEEM@?$AAd?$AAe?$AA?9?$AAc?$AAh@ 1002597c     libucrt:lcidtoname_downlevel.obj
 0002:00005988       ??_C@_1M@GFFOJMCJ@?$AAd?$AAe?$AA?9?$AAd?$AAe@ 10025988     libucrt:lcidtoname_downlevel.obj
 0002:00005994       ??_C@_1M@MDNLKBPM@?$AAd?$AAe?$AA?9?$AAl?$AAi@ 10025994     libucrt:lcidtoname_downlevel.obj
 0002:000059a0       ??_C@_1M@NJBEEJNL@?$AAd?$AAe?$AA?9?$AAl?$AAu@ 100259a0     libucrt:lcidtoname_downlevel.obj
 0002:000059ac       ??_C@_1O@GNNELBAP@?$AAd?$AAi?$AAv?$AA?9?$AAm?$AAv@ 100259ac     libucrt:lcidtoname_downlevel.obj
 0002:000059bc       ??_C@_1M@EJLEOGAE@?$AAe?$AAl?$AA?9?$AAg?$AAr@ 100259bc     libucrt:lcidtoname_downlevel.obj
 0002:000059c8       ??_C@_1M@GMPONJN@?$AAe?$AAn?$AA?9?$AAa?$AAu@ 100259c8     libucrt:lcidtoname_downlevel.obj
 0002:000059d4       ??_C@_1M@NIDIIPGF@?$AAe?$AAn?$AA?9?$AAb?$AAz@ 100259d4     libucrt:lcidtoname_downlevel.obj
 0002:000059e0       ??_C@_1M@JEHMIMFO@?$AAe?$AAn?$AA?9?$AAc?$AAa@ 100259e0     libucrt:lcidtoname_downlevel.obj
 0002:000059ec       ??_C@_1M@IGMJCDLA@?$AAe?$AAn?$AA?9?$AAc?$AAb@ 100259ec     libucrt:lcidtoname_downlevel.obj
 0002:000059f8       ??_C@_1M@BNFIGBKG@?$AAe?$AAn?$AA?9?$AAg?$AAb@ 100259f8     libucrt:lcidtoname_downlevel.obj
 0002:00005a04       ??_C@_1M@LKIFDIGP@?$AAe?$AAn?$AA?9?$AAi?$AAe@ 10025a04     libucrt:lcidtoname_downlevel.obj
 0002:00005a10       ??_C@_1M@PJKFGCCO@?$AAe?$AAn?$AA?9?$AAj?$AAm@ 10025a10     libucrt:lcidtoname_downlevel.obj
 0002:00005a1c       ??_C@_1M@KPPKEPBO@?$AAe?$AAn?$AA?9?$AAn?$AAz@ 10025a1c     libucrt:lcidtoname_downlevel.obj
 0002:00005a28       ??_C@_1M@GMDGLDOB@?$AAe?$AAn?$AA?9?$AAp?$AAh@ 10025a28     libucrt:lcidtoname_downlevel.obj
 0002:00005a34       ??_C@_1M@ONGIBJNA@?$AAe?$AAn?$AA?9?$AAt?$AAt@ 10025a34     libucrt:lcidtoname_downlevel.obj
 0002:00005a40       ??_C@_1M@LLODPCMM@?$AAe?$AAn?$AA?9?$AAu?$AAs@ 10025a40     libucrt:lcidtoname_downlevel.obj
 0002:00005a4c       ??_C@_1M@LAKFNPAN@?$AAe?$AAn?$AA?9?$AAz?$AAa@ 10025a4c     libucrt:lcidtoname_downlevel.obj
 0002:00005a58       ??_C@_1M@MFNHNHEO@?$AAe?$AAn?$AA?9?$AAz?$AAw@ 10025a58     libucrt:lcidtoname_downlevel.obj
 0002:00005a64       ??_C@_1M@EJEINPHM@?$AAe?$AAs?$AA?9?$AAa?$AAr@ 10025a64     libucrt:lcidtoname_downlevel.obj
 0002:00005a70       ??_C@_1M@GNKPCCJA@?$AAe?$AAs?$AA?9?$AAb?$AAo@ 10025a70     libucrt:lcidtoname_downlevel.obj
 0002:00005a7c       ??_C@_1M@LEEGFONL@?$AAe?$AAs?$AA?9?$AAc?$AAl@ 10025a7c     libucrt:lcidtoname_downlevel.obj
 0002:00005a88       ??_C@_1M@KGPDPBDF@?$AAe?$AAs?$AA?9?$AAc?$AAo@ 10025a88     libucrt:lcidtoname_downlevel.obj
 0002:00005a94       ??_C@_1M@EIAHOHH@?$AAe?$AAs?$AA?9?$AAc?$AAr@ 10025a94     libucrt:lcidtoname_downlevel.obj
 0002:00005aa0       ??_C@_1M@LLPGMBIN@?$AAe?$AAs?$AA?9?$AAd?$AAo@ 10025aa0     libucrt:lcidtoname_downlevel.obj
 0002:00005aac       ??_C@_1M@DKHMKNJA@?$AAe?$AAs?$AA?9?$AAe?$AAc@ 10025aac     libucrt:lcidtoname_downlevel.obj
 0002:00005ab8       ??_C@_1M@GKGFPKAP@?$AAe?$AAs?$AA?9?$AAe?$AAs@ 10025ab8     libucrt:lcidtoname_downlevel.obj
 0002:00005ac4       ??_C@_1M@LKHKGDLN@?$AAe?$AAs?$AA?9?$AAg?$AAt@ 10025ac4     libucrt:lcidtoname_downlevel.obj
 0002:00005ad0       ??_C@_1M@HEIIGGJD@?$AAe?$AAs?$AA?9?$AAh?$AAn@ 10025ad0     libucrt:lcidtoname_downlevel.obj
 0002:00005adc       ??_C@_1M@FBDHPPGD@?$AAe?$AAs?$AA?9?$AAm?$AAx@ 10025adc     libucrt:lcidtoname_downlevel.obj
 0002:00005ae8       ??_C@_1M@DPAGLNDH@?$AAe?$AAs?$AA?9?$AAn?$AAi@ 10025ae8     libucrt:lcidtoname_downlevel.obj
 0002:00005af4       ??_C@_1M@MDGOPGDD@?$AAe?$AAs?$AA?9?$AAp?$AAa@ 10025af4     libucrt:lcidtoname_downlevel.obj
 0002:00005b00       ??_C@_1M@EMAMGBGE@?$AAe?$AAs?$AA?9?$AAp?$AAe@ 10025b00     libucrt:lcidtoname_downlevel.obj
 0002:00005b0c       ??_C@_1M@IBMCAOEC@?$AAe?$AAs?$AA?9?$AAp?$AAr@ 10025b0c     libucrt:lcidtoname_downlevel.obj
 0002:00005b18       ??_C@_1M@FGMDIJED@?$AAe?$AAs?$AA?9?$AAp?$AAy@ 10025b18     libucrt:lcidtoname_downlevel.obj
 0002:00005b24       ??_C@_1M@IIDEOLLL@?$AAe?$AAs?$AA?9?$AAs?$AAv@ 10025b24     libucrt:lcidtoname_downlevel.obj
 0002:00005b30       ??_C@_1M@GAOBIPA@?$AAe?$AAs?$AA?9?$AAu?$AAy@ 10025b30     libucrt:lcidtoname_downlevel.obj
 0002:00005b3c       ??_C@_1M@JKFFICHJ@?$AAe?$AAs?$AA?9?$AAv?$AAe@ 10025b3c     libucrt:lcidtoname_downlevel.obj
 0002:00005b48       ??_C@_1M@PNMLOJDF@?$AAe?$AAt?$AA?9?$AAe?$AAe@ 10025b48     libucrt:lcidtoname_downlevel.obj
 0002:00005b54       ??_C@_1M@GHHLIKEI@?$AAe?$AAu?$AA?9?$AAe?$AAs@ 10025b54     libucrt:lcidtoname_downlevel.obj
 0002:00005b60       ??_C@_1M@PBNONODE@?$AAf?$AAa?$AA?9?$AAi?$AAr@ 10025b60     libucrt:lcidtoname_downlevel.obj
 0002:00005b6c       ??_C@_1M@JEEHPMIL@?$AAf?$AAi?$AA?9?$AAf?$AAi@ 10025b6c     libucrt:lcidtoname_downlevel.obj
 0002:00005b78       ??_C@_1M@LMDCNDBA@?$AAf?$AAo?$AA?9?$AAf?$AAo@ 10025b78     libucrt:lcidtoname_downlevel.obj
 0002:00005b84       ??_C@_1M@JKEOHLDK@?$AAf?$AAr?$AA?9?$AAb?$AAe@ 10025b84     libucrt:lcidtoname_downlevel.obj
 0002:00005b90       ??_C@_1M@NOHADPMI@?$AAf?$AAr?$AA?9?$AAc?$AAa@ 10025b90     libucrt:lcidtoname_downlevel.obj
 0002:00005b9c       ??_C@_1M@KDHIHAEC@?$AAf?$AAr?$AA?9?$AAc?$AAh@ 10025b9c     libucrt:lcidtoname_downlevel.obj
 0002:00005ba8       ??_C@_1M@MMBBFGAK@?$AAf?$AAr?$AA?9?$AAf?$AAr@ 10025ba8     libucrt:lcidtoname_downlevel.obj
 0002:00005bb4       ??_C@_1M@PAFNENNF@?$AAf?$AAr?$AA?9?$AAl?$AAu@ 10025bb4     libucrt:lcidtoname_downlevel.obj
 0002:00005bc0       ??_C@_1M@EOHDJGDD@?$AAf?$AAr?$AA?9?$AAm?$AAc@ 10025bc0     libucrt:lcidtoname_downlevel.obj
 0002:00005bcc       ??_C@_1M@FAPLLOPF@?$AAg?$AAl?$AA?9?$AAe?$AAs@ 10025bcc     libucrt:lcidtoname_downlevel.obj
 0002:00005bd8       ??_C@_1M@FOPBFLOO@?$AAg?$AAu?$AA?9?$AAi?$AAn@ 10025bd8     libucrt:lcidtoname_downlevel.obj
 0002:00005be4       ??_C@_1M@KBMCINPM@?$AAh?$AAe?$AA?9?$AAi?$AAl@ 10025be4     libucrt:lcidtoname_downlevel.obj
 0002:00005bf0       ??_C@_1M@BBPHKFPJ@?$AAh?$AAi?$AA?9?$AAi?$AAn@ 10025bf0     libucrt:lcidtoname_downlevel.obj
 0002:00005bfc       ??_C@_1M@PMBNDPHD@?$AAh?$AAr?$AA?9?$AAb?$AAa@ 10025bfc     libucrt:lcidtoname_downlevel.obj
 0002:00005c08       ??_C@_1M@BPCKOEGE@?$AAh?$AAr?$AA?9?$AAh?$AAr@ 10025c08     libucrt:lcidtoname_downlevel.obj
 0002:00005c14       ??_C@_1M@GACBMHKE@?$AAh?$AAu?$AA?9?$AAh?$AAu@ 10025c14     libucrt:lcidtoname_downlevel.obj
 0002:00005c20       ??_C@_1M@MILPAJJC@?$AAh?$AAy?$AA?9?$AAa?$AAm@ 10025c20     libucrt:lcidtoname_downlevel.obj
 0002:00005c2c       ??_C@_1M@BABBICEC@?$AAi?$AAd?$AA?9?$AAi?$AAd@ 10025c2c     libucrt:lcidtoname_downlevel.obj
 0002:00005c38       ??_C@_1M@BIKNHHPF@?$AAi?$AAs?$AA?9?$AAi?$AAs@ 10025c38     libucrt:lcidtoname_downlevel.obj
 0002:00005c44       ??_C@_1M@NMPCJPHE@?$AAi?$AAt?$AA?9?$AAc?$AAh@ 10025c44     libucrt:lcidtoname_downlevel.obj
 0002:00005c50       ??_C@_1M@GHKGFEDF@?$AAi?$AAt?$AA?9?$AAi?$AAt@ 10025c50     libucrt:lcidtoname_downlevel.obj
 0002:00005c5c       ??_C@_1M@NIEJCJJA@?$AAj?$AAa?$AA?9?$AAj?$AAp@ 10025c5c     libucrt:lcidtoname_downlevel.obj
 0002:00005c68       ??_C@_1M@JILFNBIM@?$AAk?$AAa?$AA?9?$AAg?$AAe@ 10025c68     libucrt:lcidtoname_downlevel.obj
 0002:00005c74       ??_C@_1M@PACPMGPH@?$AAk?$AAk?$AA?9?$AAk?$AAz@ 10025c74     libucrt:lcidtoname_downlevel.obj
 0002:00005c80       ??_C@_1M@IELFGMHA@?$AAk?$AAn?$AA?9?$AAi?$AAn@ 10025c80     libucrt:lcidtoname_downlevel.obj
 0002:00005c8c       ??_C@_1O@IBBJHCH@?$AAk?$AAo?$AAk?$AA?9?$AAi?$AAn@ 10025c8c     libucrt:lcidtoname_downlevel.obj
 0002:00005c9c       ??_C@_1M@DMHAEOGC@?$AAk?$AAo?$AA?9?$AAk?$AAr@ 10025c9c     libucrt:lcidtoname_downlevel.obj
 0002:00005ca8       ??_C@_1M@HBAHBIGA@?$AAk?$AAy?$AA?9?$AAk?$AAg@ 10025ca8     libucrt:lcidtoname_downlevel.obj
 0002:00005cb4       ??_C@_1M@KPMILCJG@?$AAl?$AAt?$AA?9?$AAl?$AAt@ 10025cb4     libucrt:lcidtoname_downlevel.obj
 0002:00005cc0       ??_C@_1M@BDEKKCA@?$AAl?$AAv?$AA?9?$AAl?$AAv@ 10025cc0     libucrt:lcidtoname_downlevel.obj
 0002:00005ccc       ??_C@_1M@ELCKCCJJ@?$AAm?$AAi?$AA?9?$AAn?$AAz@ 10025ccc     libucrt:lcidtoname_downlevel.obj
 0002:00005cd8       ??_C@_1M@CBOOLAPA@?$AAm?$AAk?$AA?9?$AAm?$AAk@ 10025cd8     libucrt:lcidtoname_downlevel.obj
 0002:00005ce4       ??_C@_1M@GPHNBJKN@?$AAm?$AAl?$AA?9?$AAi?$AAn@ 10025ce4     libucrt:lcidtoname_downlevel.obj
 0002:00005cf0       ??_C@_1M@PABJILIG@?$AAm?$AAn?$AA?9?$AAm?$AAn@ 10025cf0     libucrt:lcidtoname_downlevel.obj
 0002:00005cfc       ??_C@_1M@FGBKKIPG@?$AAm?$AAr?$AA?9?$AAi?$AAn@ 10025cfc     libucrt:lcidtoname_downlevel.obj
 0002:00005d08       ??_C@_1M@NDBPDDAL@?$AAm?$AAs?$AA?9?$AAb?$AAn@ 10025d08     libucrt:lcidtoname_downlevel.obj
 0002:00005d14       ??_C@_1M@OPIHOOPI@?$AAm?$AAs?$AA?9?$AAm?$AAy@ 10025d14     libucrt:lcidtoname_downlevel.obj
 0002:00005d20       ??_C@_1M@PPDBCNFM@?$AAm?$AAt?$AA?9?$AAm?$AAt@ 10025d20     libucrt:lcidtoname_downlevel.obj
 0002:00005d2c       ??_C@_1M@KDJDKMDD@?$AAn?$AAb?$AA?9?$AAn?$AAo@ 10025d2c     libucrt:lcidtoname_downlevel.obj
 0002:00005d38       ??_C@_1M@KFCFLMJP@?$AAn?$AAl?$AA?9?$AAb?$AAe@ 10025d38     libucrt:lcidtoname_downlevel.obj
 0002:00005d44       ??_C@_1M@KPOPDDGO@?$AAn?$AAl?$AA?9?$AAn?$AAl@ 10025d44     libucrt:lcidtoname_downlevel.obj
 0002:00005d50       ??_C@_1M@LJKPEMLN@?$AAn?$AAn?$AA?9?$AAn?$AAo@ 10025d50     libucrt:lcidtoname_downlevel.obj
 0002:00005d5c       ??_C@_1M@BDGHHBFL@?$AAn?$AAs?$AA?9?$AAz?$AAa@ 10025d5c     libucrt:lcidtoname_downlevel.obj
 0002:00005d68       ??_C@_1M@IDEHOAP@?$AAp?$AAa?$AA?9?$AAi?$AAn@ 10025d68     libucrt:lcidtoname_downlevel.obj
 0002:00005d74       ??_C@_1M@HDBKGOGH@?$AAp?$AAl?$AA?9?$AAp?$AAl@ 10025d74     libucrt:lcidtoname_downlevel.obj
 0002:00005d80       ??_C@_1M@LJLLCMEH@?$AAp?$AAt?$AA?9?$AAb?$AAr@ 10025d80     libucrt:lcidtoname_downlevel.obj
 0002:00005d8c       ??_C@_1M@NCMONAAL@?$AAp?$AAt?$AA?9?$AAp?$AAt@ 10025d8c     libucrt:lcidtoname_downlevel.obj
 0002:00005d98       ??_C@_1O@EAKMAJDN@?$AAq?$AAu?$AAz?$AA?9?$AAb?$AAo@ 10025d98     libucrt:lcidtoname_downlevel.obj
 0002:00005da8       ??_C@_1O@BHHPIGDN@?$AAq?$AAu?$AAz?$AA?9?$AAe?$AAc@ 10025da8     libucrt:lcidtoname_downlevel.obj
 0002:00005db8       ??_C@_1O@GBAPEKMJ@?$AAq?$AAu?$AAz?$AA?9?$AAp?$AAe@ 10025db8     libucrt:lcidtoname_downlevel.obj
 0002:00005dc8       ??_C@_1M@CLGLEFBO@?$AAr?$AAo?$AA?9?$AAr?$AAo@ 10025dc8     libucrt:lcidtoname_downlevel.obj
 0002:00005dd4       ??_C@_1M@CEEDODME@?$AAr?$AAu?$AA?9?$AAr?$AAu@ 10025dd4     libucrt:lcidtoname_downlevel.obj
 0002:00005de0       ??_C@_1M@HPKKKMPP@?$AAs?$AAa?$AA?9?$AAi?$AAn@ 10025de0     libucrt:lcidtoname_downlevel.obj
 0002:00005dec       ??_C@_1M@BKMAIGOJ@?$AAs?$AAe?$AA?9?$AAf?$AAi@ 10025dec     libucrt:lcidtoname_downlevel.obj
 0002:00005df8       ??_C@_1M@NDPIFLFI@?$AAs?$AAe?$AA?9?$AAn?$AAo@ 10025df8     libucrt:lcidtoname_downlevel.obj
 0002:00005e04       ??_C@_1M@DANKKHJ@?$AAs?$AAe?$AA?9?$AAs?$AAe@ 10025e04     libucrt:lcidtoname_downlevel.obj
 0002:00005e10       ??_C@_1M@PNBLONPJ@?$AAs?$AAk?$AA?9?$AAs?$AAk@ 10025e10     libucrt:lcidtoname_downlevel.obj
 0002:00005e1c       ??_C@_1M@LFMODOAL@?$AAs?$AAl?$AA?9?$AAs?$AAi@ 10025e1c     libucrt:lcidtoname_downlevel.obj
 0002:00005e28       ??_C@_1O@DFKOMPG@?$AAs?$AAm?$AAa?$AA?9?$AAn?$AAo@ 10025e28     libucrt:lcidtoname_downlevel.obj
 0002:00005e38       ??_C@_1O@NDKPBNNH@?$AAs?$AAm?$AAa?$AA?9?$AAs?$AAe@ 10025e38     libucrt:lcidtoname_downlevel.obj
 0002:00005e48       ??_C@_1O@PLLKBHAB@?$AAs?$AAm?$AAj?$AA?9?$AAn?$AAo@ 10025e48     libucrt:lcidtoname_downlevel.obj
 0002:00005e58       ??_C@_1O@CLEPOGCA@?$AAs?$AAm?$AAj?$AA?9?$AAs?$AAe@ 10025e58     libucrt:lcidtoname_downlevel.obj
 0002:00005e68       ??_C@_1O@DLGJGKMK@?$AAs?$AAm?$AAn?$AA?9?$AAf?$AAi@ 10025e68     libucrt:lcidtoname_downlevel.obj
 0002:00005e78       ??_C@_1O@OJDJGAJC@?$AAs?$AAm?$AAs?$AA?9?$AAf?$AAi@ 10025e78     libucrt:lcidtoname_downlevel.obj
 0002:00005e88       ??_C@_1M@BOFOGHPB@?$AAs?$AAq?$AA?9?$AAa?$AAl@ 10025e88     libucrt:lcidtoname_downlevel.obj
 0002:00005e94       ??_C@_1BG@LJBBIPGB@?$AAs?$AAr?$AA?9?$AAb?$AAa?$AA?9?$AAc?$AAy?$AAr?$AAl@ 10025e94     libucrt:lcidtoname_downlevel.obj
 0002:00005eac       ??_C@_1BG@JLBENFOE@?$AAs?$AAr?$AA?9?$AAb?$AAa?$AA?9?$AAl?$AAa?$AAt?$AAn@ 10025eac     libucrt:lcidtoname_downlevel.obj
 0002:00005ec4       ??_C@_1BG@KODPNHE@?$AAs?$AAr?$AA?9?$AAs?$AAp?$AA?9?$AAc?$AAy?$AAr?$AAl@ 10025ec4     libucrt:lcidtoname_downlevel.obj
 0002:00005edc       ??_C@_1BG@CIOGKHPB@?$AAs?$AAr?$AA?9?$AAs?$AAp?$AA?9?$AAl?$AAa?$AAt?$AAn@ 10025edc     libucrt:lcidtoname_downlevel.obj
 0002:00005ef4       ??_C@_1M@NGFJLMAC@?$AAs?$AAv?$AA?9?$AAf?$AAi@ 10025ef4     libucrt:lcidtoname_downlevel.obj
 0002:00005f00       ??_C@_1M@MPJEJAJC@?$AAs?$AAv?$AA?9?$AAs?$AAe@ 10025f00     libucrt:lcidtoname_downlevel.obj
 0002:00005f0c       ??_C@_1M@MPNDHLFK@?$AAs?$AAw?$AA?9?$AAk?$AAe@ 10025f0c     libucrt:lcidtoname_downlevel.obj
 0002:00005f18       ??_C@_1O@KOHBJJI@?$AAs?$AAy?$AAr?$AA?9?$AAs?$AAy@ 10025f18     libucrt:lcidtoname_downlevel.obj
 0002:00005f28       ??_C@_1M@LDCEFHA@?$AAt?$AAa?$AA?9?$AAi?$AAn@ 10025f28     libucrt:lcidtoname_downlevel.obj
 0002:00005f34       ??_C@_1M@CNJOFAK@?$AAt?$AAe?$AA?9?$AAi?$AAn@ 10025f34     libucrt:lcidtoname_downlevel.obj
 0002:00005f40       ??_C@_1M@GNAECACD@?$AAt?$AAh?$AA?9?$AAt?$AAh@ 10025f40     libucrt:lcidtoname_downlevel.obj
 0002:00005f4c       ??_C@_1M@CHBIHOJO@?$AAt?$AAn?$AA?9?$AAz?$AAa@ 10025f4c     libucrt:lcidtoname_downlevel.obj
 0002:00005f58       ??_C@_1M@GCCMIGPJ@?$AAt?$AAr?$AA?9?$AAt?$AAr@ 10025f58     libucrt:lcidtoname_downlevel.obj
 0002:00005f64       ??_C@_1M@CELMCNBK@?$AAt?$AAt?$AA?9?$AAr?$AAu@ 10025f64     libucrt:lcidtoname_downlevel.obj
 0002:00005f70       ??_C@_1M@KLMCELGA@?$AAu?$AAk?$AA?9?$AAu?$AAa@ 10025f70     libucrt:lcidtoname_downlevel.obj
 0002:00005f7c       ??_C@_1M@EPAJJAJF@?$AAu?$AAr?$AA?9?$AAp?$AAk@ 10025f7c     libucrt:lcidtoname_downlevel.obj
 0002:00005f88       ??_C@_1BG@GEGPMCDJ@?$AAu?$AAz?$AA?9?$AAu?$AAz?$AA?9?$AAc?$AAy?$AAr?$AAl@ 10025f88     libucrt:lcidtoname_downlevel.obj
 0002:00005fa0       ??_C@_1BG@EGGKJILM@?$AAu?$AAz?$AA?9?$AAu?$AAz?$AA?9?$AAl?$AAa?$AAt?$AAn@ 10025fa0     libucrt:lcidtoname_downlevel.obj
 0002:00005fb8       ??_C@_1M@GFOCLFF@?$AAv?$AAi?$AA?9?$AAv?$AAn@ 10025fb8     libucrt:lcidtoname_downlevel.obj
 0002:00005fc4       ??_C@_1M@CPAMEDFI@?$AAx?$AAh?$AA?9?$AAz?$AAa@ 10025fc4     libucrt:lcidtoname_downlevel.obj
 0002:00005fd0       ??_C@_1O@EBKIFIGN@?$AAz?$AAh?$AA?9?$AAc?$AAh?$AAs@ 10025fd0     libucrt:lcidtoname_downlevel.obj
 0002:00005fe0       ??_C@_1O@NMHPGANE@?$AAz?$AAh?$AA?9?$AAc?$AAh?$AAt@ 10025fe0     libucrt:lcidtoname_downlevel.obj
 0002:00005ff0       ??_C@_1M@LPINJOMC@?$AAz?$AAh?$AA?9?$AAc?$AAn@ 10025ff0     libucrt:lcidtoname_downlevel.obj
 0002:00005ffc       ??_C@_1M@OCJEJODD@?$AAz?$AAh?$AA?9?$AAh?$AAk@ 10025ffc     libucrt:lcidtoname_downlevel.obj
 0002:00006008       ??_C@_1M@DNDLJINH@?$AAz?$AAh?$AA?9?$AAm?$AAo@ 10026008     libucrt:lcidtoname_downlevel.obj
 0002:00006014       ??_C@_1M@MBFDNDND@?$AAz?$AAh?$AA?9?$AAs?$AAg@ 10026014     libucrt:lcidtoname_downlevel.obj
 0002:00006020       ??_C@_1M@IMEPLEPE@?$AAz?$AAh?$AA?9?$AAt?$AAw@ 10026020     libucrt:lcidtoname_downlevel.obj
 0002:0000602c       ??_C@_1M@BBGHNHJP@?$AAz?$AAu?$AA?9?$AAz?$AAa@ 1002602c     libucrt:lcidtoname_downlevel.obj
 0002:00006038       ?large_power_data@?1??multiply_by_power_of_ten@__crt_strtox@@YA_NAAUbig_integer@2@I@Z@4QBIB 10026038     libucrt:cfout.obj
 0002:00006940       ?large_power_indices@?1??multiply_by_power_of_ten@__crt_strtox@@YA_NAAUbig_integer@2@I@Z@4QBUunpack_index@?1??12@YA_N0I@Z@B 10026940     libucrt:cfout.obj
 0002:000069d8       ?small_powers_of_ten@?1??multiply_by_power_of_ten@__crt_strtox@@YA_NAAUbig_integer@2@I@Z@4QBIB 100269d8     libucrt:cfout.obj
 0002:000069fc       ??_C@_01GBGANLPD@0@        100269fc     libucrt:cfout.obj
 0002:00006a00       ??_C@_05DNEBIAHO@1?$CDINF@ 10026a00     libucrt:cfout.obj
 0002:00006a08       ??_C@_06IMKFLFPG@1?$CDQNAN@ 10026a08     libucrt:cfout.obj
 0002:00006a10       ??_C@_06PGGFOGJG@1?$CDSNAN@ 10026a10     libucrt:cfout.obj
 0002:00006a18       ??_C@_05PHHOCPM@1?$CDIND@  10026a18     libucrt:cfout.obj
 0002:00006b80       __infinity                 10026b80     libucrt:87tran.obj
 0002:00006b8a       __minfinity                10026b8a     libucrt:87tran.obj
 0002:00006b94       __logemax                  10026b94     libucrt:87tran.obj
 0002:00006bba       __OP_EXPjmptab             10026bba     libucrt:87tran.obj
 0002:00006be0       __indefinite               10026be0     libucrt:87disp.obj
 0002:00006bea       __piby2                    10026bea     libucrt:87disp.obj
 0002:00006bf4       __piby4                    10026bf4     libucrt:87disp.obj
 0002:00006c28       __DEFAULT_CW_in_mem        10026c28     libucrt:common.obj
 0002:00006c2a       __pi_by_2_to_61            10026c2a     libucrt:common.obj
 0002:00006c64       ??_C@_03MGHMBJCF@log@      10026c64     libucrt:libm_error.obj
 0002:00006c68       ??_C@_05HGHHAHAP@log10@    10026c68     libucrt:libm_error.obj
 0002:00006c70       ??_C@_03KHJOGHMM@exp@      10026c70     libucrt:libm_error.obj
 0002:00006c74       ??_C@_03JGHBODFD@pow@      10026c74     libucrt:libm_error.obj
 0002:00006c78       ??_C@_04FIHNOPOL@asin@     10026c78     libucrt:libm_error.obj
 0002:00006c80       ??_C@_04PDIFKINK@acos@     10026c80     libucrt:libm_error.obj
 0002:00006c88       ??_C@_04EIAKFFMI@sqrt@     10026c88     libucrt:libm_error.obj
 0002:00006c90       __real@3ff0000000000000    10026c90     libucrt:libm_error.obj
 0002:00006c98       ??_C@_1BA@BALFACEM@?$AAC?$AAO?$AAN?$AAO?$AAU?$AAT?$AA$@ 10026c98     libucrt:initcon.obj
 0002:00006cc0       ___acrt_log10_table_t      10026cc0     libucrt:log10_tables.obj
 0002:000070d0       ___acrt_log10_table_cb     100270d0     libucrt:log10_tables.obj
 0002:000074e0       __real@3fe0000000000000    100274e0     libucrt:powhlp.obj
 0002:000075d0       ??_C@_04COOMCNPB@sinh@     100275d0     libucrt:fpexcept.obj
 0002:000075d8       ??_C@_04HPJJNFIM@cosh@     100275d8     libucrt:fpexcept.obj
 0002:000075e0       ??_C@_04FJHINJAO@tanh@     100275e0     libucrt:fpexcept.obj
 0002:000075e8       ??_C@_04MLLJIGOK@atan@     100275e8     libucrt:fpexcept.obj
 0002:000075f0       ??_C@_05KNGEOGJB@atan2@    100275f0     libucrt:fpexcept.obj
 0002:000075f8       ??_C@_03BLEJJJBH@sin@      100275f8     libucrt:fpexcept.obj
 0002:000075fc       ??_C@_03LALBNOCG@cos@      100275fc     libucrt:fpexcept.obj
 0002:00007600       ??_C@_03IIINPABG@tan@      10027600     libucrt:fpexcept.obj
 0002:00007604       ??_C@_04GFPJNGEK@ceil@     10027604     libucrt:fpexcept.obj
 0002:0000760c       ??_C@_05PBJFFIGL@floor@    1002760c     libucrt:fpexcept.obj
 0002:00007614       ??_C@_04ODHECPBC@fabs@     10027614     libucrt:fpexcept.obj
 0002:0000761c       ??_C@_04EHEDPDJG@modf@     1002761c     libucrt:fpexcept.obj
 0002:00007624       ??_C@_05CEJMAHNP@ldexp@    10027624     libucrt:fpexcept.obj
 0002:0000762c       ??_C@_05KBKMEMPO@_cabs@    1002762c     libucrt:fpexcept.obj
 0002:00007634       ??_C@_06MEIMCGCF@_hypot@   10027634     libucrt:fpexcept.obj
 0002:0000763c       ??_C@_04KEPJIHGP@fmod@     1002763c     libucrt:fpexcept.obj
 0002:00007644       ??_C@_05GKKHEGJL@frexp@    10027644     libucrt:fpexcept.obj
 0002:0000764c       ??_C@_03MJLDFKDL@_y0@      1002764c     libucrt:fpexcept.obj
 0002:00007650       ??_C@_03NAKIGLHK@_y1@      10027650     libucrt:fpexcept.obj
 0002:00007654       ??_C@_03ONILCKOB@_yn@      10027654     libucrt:fpexcept.obj
 0002:00007658       ??_C@_05JGDBENOH@_logb@    10027658     libucrt:fpexcept.obj
 0002:00007660       ??_C@_0L@KDOEJCKC@_nextafter@ 10027660     libucrt:fpexcept.obj
 0002:00007670       __d_inf                    10027670     libucrt:util.obj
 0002:00007678       __d_max                    10027678     libucrt:util.obj
 0002:00007680       __d_mzero                  10027680     libucrt:util.obj
 0002:000076f0       __load_config_used         100276f0     LIBCMT:loadcfg.obj
 0002:000077c0       __tls_used                 100277c0     LIBCMT:tlssup.obj
 0002:000077d8       ??_R4exception@std@@6B@    100277d8     LIBCMT:throw_bad_alloc.obj
 0002:000077ec       ??_R3exception@std@@8      100277ec     LIBCMT:throw_bad_alloc.obj
 0002:000077fc       ??_R2exception@std@@8      100277fc     LIBCMT:throw_bad_alloc.obj
 0002:00007804       ??_R1A@?0A@EA@exception@std@@8 10027804     LIBCMT:throw_bad_alloc.obj
 0002:00007820       ??_R4bad_alloc@std@@6B@    10027820     LIBCMT:throw_bad_alloc.obj
 0002:00007834       ??_R3bad_alloc@std@@8      10027834     LIBCMT:throw_bad_alloc.obj
 0002:00007844       ??_R2bad_alloc@std@@8      10027844     LIBCMT:throw_bad_alloc.obj
 0002:00007850       ??_R1A@?0A@EA@bad_alloc@std@@8 10027850     LIBCMT:throw_bad_alloc.obj
 0002:0000786c       ??_R4bad_array_new_length@std@@6B@ 1002786c     LIBCMT:throw_bad_alloc.obj
 0002:00007880       ??_R3bad_array_new_length@std@@8 10027880     LIBCMT:throw_bad_alloc.obj
 0002:00007890       ??_R2bad_array_new_length@std@@8 10027890     LIBCMT:throw_bad_alloc.obj
 0002:000078a0       ??_R1A@?0A@EA@bad_array_new_length@std@@8 100278a0     LIBCMT:throw_bad_alloc.obj
 0002:000078bc       ??_R4type_info@@6B@        100278bc     LIBCMT:std_type_info_static.obj
 0002:000078d0       ??_R3type_info@@8          100278d0     LIBCMT:std_type_info_static.obj
 0002:000078e0       ??_R2type_info@@8          100278e0     LIBCMT:std_type_info_static.obj
 0002:000078e8       ??_R1A@?0A@EA@type_info@@8 100278e8     LIBCMT:std_type_info_static.obj
 0002:00007904       ??_R4bad_exception@std@@6B@ 10027904     libvcruntime:frame.obj
 0002:00007918       ??_R3bad_exception@std@@8  10027918     libvcruntime:frame.obj
 0002:00007928       ??_R2bad_exception@std@@8  10027928     libvcruntime:frame.obj
 0002:00007934       ??_R1A@?0A@EA@bad_exception@std@@8 10027934     libvcruntime:frame.obj
 0002:00007950       ___safe_se_handler_table   10027950     <linker-defined>
 0002:00007d44       ___rtc_iaa                 10027d44     LIBCMT:initsect.obj
 0002:00007d48       ___rtc_izz                 10027d48     LIBCMT:initsect.obj
 0002:00007d4c       ___rtc_taa                 10027d4c     LIBCMT:initsect.obj
 0002:00007d50       ___rtc_tzz                 10027d50     LIBCMT:initsect.obj
 0002:00007d54       __tls_start                10027d54     LIBCMT:tlssup.obj
 0002:00007d58       __Init_thread_epoch        10027d58     LIBCMT:thread_safe_statics.obj
 0002:00007d5c       __tls_end                  10027d5c     LIBCMT:tlssup.obj
 0002:00007e5c       __TI2?AVbad_alloc@std@@    10027e5c     LIBCMT:throw_bad_alloc.obj
 0002:00007e6c       __CTA2?AVbad_alloc@std@@   10027e6c     LIBCMT:throw_bad_alloc.obj
 0002:00007e78       __CT??_R0?AVbad_alloc@std@@@8??0bad_alloc@std@@QAE@ABV01@@Z12 10027e78     LIBCMT:throw_bad_alloc.obj
 0002:00007e94       __CT??_R0?AVexception@std@@@8??0exception@std@@QAE@ABV01@@Z12 10027e94     LIBCMT:throw_bad_alloc.obj
 0002:00007eb0       __TI3?AVbad_array_new_length@std@@ 10027eb0     LIBCMT:throw_bad_alloc.obj
 0002:00007ec0       __CTA3?AVbad_array_new_length@std@@ 10027ec0     LIBCMT:throw_bad_alloc.obj
 0002:00007ed0       __CT??_R0?AVbad_array_new_length@std@@@8??0bad_array_new_length@std@@QAE@ABV01@@Z12 10027ed0     LIBCMT:throw_bad_alloc.obj
 0002:00007ff4       __TI2?AVbad_exception@std@@ 10027ff4     libvcruntime:frame.obj
 0002:00008004       __CTA2?AVbad_exception@std@@ 10028004     libvcruntime:frame.obj
 0002:00008010       __CT??_R0?AVbad_exception@std@@@8??0bad_exception@std@@QAE@ABV01@@Z12 10028010     libvcruntime:frame.obj
 0002:0000838c       ___pobjMapEntryFirst       1002838c     OposVariant.obj
 0002:00008390       ___pobjMapEntryLast        10028390     OposVariant.obj
 0002:00008444       __IMPORT_DESCRIPTOR_KERNEL32 10028444     kernel32:KERNEL32.dll
 0002:00008458       __IMPORT_DESCRIPTOR_USER32 10028458     user32:USER32.dll
 0002:0000846c       __IMPORT_DESCRIPTOR_GDI32  1002846c     gdi32:GDI32.dll
 0002:00008480       __IMPORT_DESCRIPTOR_ADVAPI32 10028480     advapi32:ADVAPI32.dll
 0002:00008494       __IMPORT_DESCRIPTOR_ole32  10028494     ole32:ole32.dll
 0002:000084a8       __IMPORT_DESCRIPTOR_OLEAUT32 100284a8     oleaut32:OLEAUT32.dll
 0002:000084bc       __NULL_IMPORT_DESCRIPTOR   100284bc     kernel32:KERNEL32.dll
 0003:00000000       ?s_Claim@?7??GetIDsOfNames@CComTypeInfoHolder@ATL@@QAEJABU_GUID@@PAPA_WIKPAJ@Z@4PA_WA 1002a000     CAT.obj
 0003:00000018       ?s_Release@?7??GetIDsOfNames@CComTypeInfoHolder@ATL@@QAEJABU_GUID@@PAPA_WIKPAJ@Z@4PA_WA 1002a018     CAT.obj
 0003:00000034       ?_tih@?$IDispatchImpl@UIOPOSCAT@@$1?IID_IOPOSCAT@@3U_GUID@@B$1?LIBID_OposCAT_CCO@@3U3@B$00$0A@VCComTypeInfoHolder@ATL@@@ATL@@1VCComTypeInfoHolder@2@A 1002a034     CAT.obj
 0003:00000050       ?_tih@?$IProvideClassInfo2Impl@$1?CLSID_OPOSCAT@@3U_GUID@@B$1?DIID__IOPOSCATEvents@@3U2@B$1?LIBID_OposCAT_CCO@@3U2@B$00$0A@VCComTypeInfoHolder@ATL@@@ATL@@1VCComTypeInfoHolder@2@A 1002a050     CAT.obj
 0003:0000006c       ?vszContents@?6??Save@?$IPersistStorageImpl@VCOPOSCAT@@@ATL@@UAGJPAUIStorage@@H@Z@4PB_WB 1002a06c     CAT.obj
 0003:00000070       ?wc@?1??GetWndClassInfo@?$CWindowImpl@VCOPOSCAT@@VCWindow@ATL@@V?$CWinTraits@$0FGAAAAAA@$0A@@3@@ATL@@SAAAU_ATL_WNDCLASSINFOW@3@XZ@4U43@A 1002a070     CAT.obj
 0003:000000fc       ?rcDefault@CWindow@ATL@@2UtagRECT@@A 1002a0fc     CAT.obj
 0003:00000158       ?g_WindowName@@3PA_WA      1002a158     CATImpl.obj
 0003:00000170       ?g_ControlDescription@@3PADA 1002a170     CATImpl.obj
 0003:000001b4       ?g_ControlVersion@@3JA     1002a1b4     CATImpl.obj
 0003:0000024c       ___scrt_native_dllmain_reason 1002a24c     LIBCMT:utility.obj
 0003:00000250       __Init_global_epoch        1002a250     LIBCMT:thread_safe_statics.obj
 0003:00000260       ___security_cookie_complement 1002a260     LIBCMT:gs_cookie.obj
 0003:00000264       ___security_cookie         1002a264     LIBCMT:gs_cookie.obj
 0003:00000268       ___isa_enabled             1002a268     LIBCMT:cpu_disp.obj
 0003:00000280       __NLG_Destination          1002a280     libvcruntime:exsup.obj
 0003:00000298       ___abort_behavior          1002a298     libucrt:abort.obj
 0003:000002a8       __iob                      1002a2a8     libucrt:_file.obj
 0003:00000350       ___acrt_initial_locale_data 1002a350     libucrt:nlsdata.obj
 0003:00000408       ___acrt_initial_locale_pointers 1002a408     libucrt:nlsdata.obj
 0003:00000410       ___acrt_wide_c_locale_string 1002a410     libucrt:nlsdata.obj
 0003:00000418       ___acrt_initial_multibyte_data 1002a418     libucrt:mbctype.obj
 0003:00000938       __pwctype                  1002a938     libucrt:ctype.obj
 0003:0000093c       ___globallocalestatus      1002a93c     libucrt:glstatus.obj
 0003:00000940       ___acrt_lconv_c            1002a940     libucrt:localeconv.obj
 0003:00000990       ___acrt_lconv_static_decimal 1002a990     libucrt:localeconv.obj
 0003:00000994       ___acrt_lconv_static_W_decimal 1002a994     libucrt:localeconv.obj
 0003:000009a0       __lookuptrailbytes         1002a9a0     libucrt:read.obj
 0003:00000ab0       __fltused                  1002aab0     LIBCMT:fltused.obj
 0003:00000ac0       ??_R0?AVbad_alloc@std@@@8  1002aac0     LIBCMT:throw_bad_alloc.obj
 0003:00000adc       ??_R0?AVexception@std@@@8  1002aadc     LIBCMT:throw_bad_alloc.obj
 0003:00000af8       ??_R0?AVbad_array_new_length@std@@@8 1002aaf8     LIBCMT:throw_bad_alloc.obj
 0003:00000b20       ??_R0?AVtype_info@@@8      1002ab20     LIBCMT:std_type_info_static.obj
 0003:00000b38       ??_R0?AVbad_exception@std@@@8 1002ab38     libvcruntime:frame.obj
 0003:00000b58       ?m_bInitFailed@CAtlBaseModule@ATL@@2_NA 1002ab58     OposVariant.obj
 0003:00000b5c       ?_pPerfRegFunc@ATL@@3P6AJPAUHINSTANCE__@@@ZA 1002ab5c     OposVariant.obj
 0003:00000b60       ?_pPerfUnRegFunc@ATL@@3P6AJXZA 1002ab60     OposVariant.obj
 0003:00000b64       ?_AtlRegisterPerUser@ATL@@3_NA 1002ab64     OposVariant.obj
 0003:00000b68       ?_pAtlModule@ATL@@3PAVCAtlModule@1@A 1002ab68     OposVariant.obj
 0003:00000b6c       ?_pModule@ATL@@3PAVCComModule@1@A 1002ab6c     OposVariant.obj
 0003:00000b70       ?_AtlComModule@ATL@@3VCAtlComModule@1@A 1002ab70     OposVariant.obj
 0003:00000b98       ?_AtlWinModule@ATL@@3VCAtlWinModule@1@A 1002ab98     OposVariant.obj
 0003:00000bc4       ?m_libid@CAtlModule@ATL@@2U_GUID@@A 1002abc4     CAT.obj
 0003:00000bd4       ?_entries@?1??GetConnMap@COPOSCAT@@SAPBU_ATL_CONNMAP_ENTRY@ATL@@PAH@Z@4QBU34@B 1002abd4     CAT.obj
 0003:00000be0       ?$TSS0@?1??GetConnMap@COPOSCAT@@SAPBU_ATL_CONNMAP_ENTRY@ATL@@PAH@Z@4HA 1002abe0     CAT.obj
 0003:00000be8       ?_OptionsStorage@?1??__local_stdio_printf_options@@9@4_KA 1002abe8     CAT.obj
 0003:00000bf0       ?pfnRegDeleteKeyEx@?1??DeleteSubKey@CRegKey@ATL@@QAEJPB_W@Z@4P6GJPAUHKEY__@@0KK@ZA 1002abf0     CAT.obj
 0003:00000bf4       ?bInitialized@?1??DeleteSubKey@CRegKey@ATL@@QAEJPB_W@Z@4_NA 1002abf4     CAT.obj
 0003:00000bf8       ?_Module@@3VCComModule@ATL@@A 1002abf8     CAT.obj
 0003:00000c28       ?pConnMap@?$IConnectionPointContainerImpl@VCOPOSCAT@@@ATL@@0PBU_ATL_CONNMAP_ENTRY@2@B 1002ac28     CAT.obj
 0003:00000c2c       ?s_nInstances@COPOSCAT@@1HA 1002ac2c     CATImpl.obj
 0003:00000c30       ___scrt_current_native_startup_state 1002ac30     LIBCMT:utility.obj
 0003:00000c34       ___scrt_native_startup_lock 1002ac34     LIBCMT:utility.obj
 0003:00000f9c       __tls_index                1002af9c     LIBCMT:tlssup.obj
 0003:00000fa4       ___isa_available           1002afa4     LIBCMT:cpu_disp.obj
 0003:00000fa8       ___favor                   1002afa8     LIBCMT:cpu_disp.obj
 0003:00000fac       ___scrt_debugger_hook_flag 1002afac     LIBCMT:utility_desktop.obj
 0003:00000fb0       ___castguard_check_failure_os_handled_fptr 1002afb0     LIBCMT:guard_support.obj
 0003:00000fb8       ?__type_info_root_node@@3U__type_info_node@@A 1002afb8     LIBCMT:tncleanup.obj
 0003:00000fc0       ?_OptionsStorage@?1??__local_stdio_scanf_options@@9@4_KA 1002afc0     LIBCMT:default_local_stdio_options.obj
 0003:00000fc8       ?_AtlBaseModule@ATL@@3VCAtlBaseModule@1@A 1002afc8     atls:atlbase.obj
 0003:00001000       ?__AtlThunkPool@@3PAT_SLIST_HEADER@@A 1002b000     atls:atlthunk.obj
 0003:00001018       ___@@_PchSym_@00@UztvmgUPdlipUFHUhUrmgvinvwrzgvUexgllohUzgohOmzgrevkilqPBACIAJCBDBUlyqiUcIGUhgwzucOlyq@4B2008FD98C1DD4 1002b018     atls:stdafx.obj
 0003:0000101c       ?__WinRTOutOfMemoryExceptionCallback@@3P6GPAXXZA 1002b01c     libvcruntime:ehhelpers.obj
 0003:00001020       ___pPurecall               1002b020     libvcruntime:purevirt_data.obj
 0003:00001068       ?pArgList@UnDecorator@@0PAVReplicator@@A 1002b068     libvcruntime:undname.obj
 0003:0000106c       ?pZNameList@UnDecorator@@0PAVReplicator@@A 1002b06c     libvcruntime:undname.obj
 0003:00001070       ?pTemplateArgList@UnDecorator@@0PAVReplicator@@A 1002b070     libvcruntime:undname.obj
 0003:00001074       ?gName@UnDecorator@@0PBDB  1002b074     libvcruntime:undname.obj
 0003:00001078       ?name@UnDecorator@@0PBDB   1002b078     libvcruntime:undname.obj
 0003:0000107c       ?disableFlags@UnDecorator@@0KA 1002b07c     libvcruntime:undname.obj
 0003:00001080       ?fExplicitTemplateParams@UnDecorator@@0_NA 1002b080     libvcruntime:undname.obj
 0003:00001081       ?fGetTemplateArgumentList@UnDecorator@@0_NA 1002b081     libvcruntime:undname.obj
 0003:00001084       ?m_pGetParameter@UnDecorator@@0P6APADJ@ZA 1002b084     libvcruntime:undname.obj
 0003:00001088       ?m_CHPENameOffset@UnDecorator@@0KA 1002b088     libvcruntime:undname.obj
 0003:0000108c       ?m_recursionLevel@UnDecorator@@0KA 1002b08c     libvcruntime:undname.obj
 0003:000010d0       ?c_exit_complete@?1???R<lambda_6e4b09c48022b2350581041d5f6b0c4c>@@QBE@XZ@4_NA 1002b0d0     libucrt:exit.obj
 0003:000011e0       __environ_table            1002b1e0     libucrt:environment_initialization.obj
 0003:000011e4       __wenviron_table           1002b1e4     libucrt:environment_initialization.obj
 0003:000011e8       ___dcrt_initial_wide_environment 1002b1e8     libucrt:environment_initialization.obj
 0003:000011ec       ___dcrt_initial_narrow_environment 1002b1ec     libucrt:environment_initialization.obj
 0003:000011f0       ___acrt_atexit_table       1002b1f0     libucrt:onexit.obj
 0003:000011fc       ___acrt_at_quick_exit_table 1002b1fc     libucrt:onexit.obj
 0003:000012f0       __nstream                  1002b2f0     libucrt:_file.obj
 0003:000012f4       ___piob                    1002b2f4     libucrt:_file.obj
 0003:000012fc       ___acrt_stdout_buffer      1002b2fc     libucrt:_sftbuf.obj
 0003:00001300       ___acrt_stderr_buffer      1002b300     libucrt:_sftbuf.obj
 0003:00001304       ___acrt_locale_changed_data 1002b304     libucrt:wsetlocale.obj
 0003:00001308       ___acrt_current_locale_data 1002b308     libucrt:nlsdata.obj
 0003:00001310       ___pioinfo                 1002b310     libucrt:ioinit.obj
 0003:00001510       __nhandle                  1002b510     libucrt:ioinit.obj
 0003:0000166c       __mbctype                  1002b66c     libucrt:mbctype.obj
 0003:00001670       __mbcasemap                1002b670     libucrt:mbctype.obj
 0003:00001674       ___acrt_current_multibyte_data 1002b674     libucrt:mbctype.obj
 0003:00001680       __pgmptr                   1002b680     libucrt:argv_data.obj
 0003:00001684       ___argc                    1002b684     libucrt:argv_data.obj
 0003:00001688       ___argv                    1002b688     libucrt:argv_data.obj
 0003:0000168c       ___wargv                   1002b68c     libucrt:argv_data.obj
 0003:00001690       __acmdln                   1002b690     libucrt:argv_data.obj
 0003:00001694       __wcmdln                   1002b694     libucrt:argv_data.obj
 0003:00001698       ___acrt_heap               1002b698     libucrt:heap_handle.obj
 0003:000016b4       ___acrt_lconv_static_null  1002b6b4     libucrt:localeconv.obj
 0003:000016b8       ___acrt_lconv_static_W_null 1002b6b8     libucrt:localeconv.obj
 0003:000016c8       ___fastflag                1002b6c8     libucrt:fp_flags.obj
 0003:000016d0       ___dyn_tls_init_callback   1002b6d0     <common>
 0003:000016d4       ___scrt_ucrt_dll_is_in_use 1002b6d4     <common>
 0003:000016d8       __pmatherr                 1002b6d8     <common>
 0003:000016dc       ___use_sse2_mathfcns       1002b6dc     <common>

 entry point at        0001:0000c76d

 Static symbols

 0000:fffcc000       .debug$S                   10000000     OPOSCAT.exp
 0000:fffcc000       .debug$S                   10000000     advapi32:ADVAPI32.dll
 0000:fffcc000       .debug$S                   10000000     advapi32:ADVAPI32.dll
 0000:fffcc000       .debug$S                   10000000     advapi32:ADVAPI32.dll
 0000:fffcc000       .debug$S                   10000000     advapi32:ADVAPI32.dll
 0000:fffcc000       .debug$S                   10000000     advapi32:ADVAPI32.dll
 0000:fffcc000       .debug$S                   10000000     advapi32:ADVAPI32.dll
 0000:fffcc000       .debug$S                   10000000     advapi32:ADVAPI32.dll
 0000:fffcc000       .debug$S                   10000000     advapi32:ADVAPI32.dll
 0000:fffcc000       .debug$S                   10000000     advapi32:ADVAPI32.dll
 0000:fffcc000       .debug$S                   10000000     gdi32:GDI32.dll
 0000:fffcc000       .debug$S                   10000000     gdi32:GDI32.dll
 0000:fffcc000       .debug$S                   10000000     gdi32:GDI32.dll
 0000:fffcc000       .debug$S                   10000000     gdi32:GDI32.dll
 0000:fffcc000       .debug$S                   10000000     gdi32:GDI32.dll
 0000:fffcc000       .debug$S                   10000000     gdi32:GDI32.dll
 0000:fffcc000       .debug$S                   10000000     gdi32:GDI32.dll
 0000:fffcc000       .debug$S                   10000000     gdi32:GDI32.dll
 0000:fffcc000       .debug$S                   10000000     gdi32:GDI32.dll
 0000:fffcc000       .debug$S                   10000000     gdi32:GDI32.dll
 0000:fffcc000       .debug$S                   10000000     gdi32:GDI32.dll
 0000:fffcc000       .debug$S                   10000000     gdi32:GDI32.dll
 0000:fffcc000       .debug$S                   10000000     gdi32:GDI32.dll
 0000:fffcc000       .debug$S                   10000000     gdi32:GDI32.dll
 0000:fffcc000       .debug$S                   10000000     gdi32:GDI32.dll
 0000:fffcc000       .debug$S                   10000000     gdi32:GDI32.dll
 0000:fffcc000       .debug$S                   10000000     gdi32:GDI32.dll
 0000:fffcc000       .debug$S                   10000000     gdi32:GDI32.dll
 0000:fffcc000       .debug$S                   10000000     gdi32:GDI32.dll
 0000:fffcc000       .debug$S                   10000000     kernel32:KERNEL32.dll
 0000:fffcc000       .debug$S                   10000000     kernel32:KERNEL32.dll
 0000:fffcc000       .debug$S                   10000000     kernel32:KERNEL32.dll
 0000:fffcc000       .debug$S                   10000000     kernel32:KERNEL32.dll
 0000:fffcc000       .debug$S                   10000000     kernel32:KERNEL32.dll
 0000:fffcc000       .debug$S                   10000000     kernel32:KERNEL32.dll
 0000:fffcc000       .debug$S                   10000000     kernel32:KERNEL32.dll
 0000:fffcc000       .debug$S                   10000000     kernel32:KERNEL32.dll
 0000:fffcc000       .debug$S                   10000000     kernel32:KERNEL32.dll
 0000:fffcc000       .debug$S                   10000000     kernel32:KERNEL32.dll
 0000:fffcc000       .debug$S                   10000000     kernel32:KERNEL32.dll
 0000:fffcc000       .debug$S                   10000000     kernel32:KERNEL32.dll
 0000:fffcc000       .debug$S                   10000000     kernel32:KERNEL32.dll
 0000:fffcc000       .debug$S                   10000000     kernel32:KERNEL32.dll
 0000:fffcc000       .debug$S                   10000000     kernel32:KERNEL32.dll
 0000:fffcc000       .debug$S                   10000000     kernel32:KERNEL32.dll
 0000:fffcc000       .debug$S                   10000000     kernel32:KERNEL32.dll
 0000:fffcc000       .debug$S                   10000000     kernel32:KERNEL32.dll
 0000:fffcc000       .debug$S                   10000000     kernel32:KERNEL32.dll
 0000:fffcc000       .debug$S                   10000000     kernel32:KERNEL32.dll
 0000:fffcc000       .debug$S                   10000000     kernel32:KERNEL32.dll
 0000:fffcc000       .debug$S                   10000000     kernel32:KERNEL32.dll
 0000:fffcc000       .debug$S                   10000000     kernel32:KERNEL32.dll
 0000:fffcc000       .debug$S                   10000000     kernel32:KERNEL32.dll
 0000:fffcc000       .debug$S                   10000000     kernel32:KERNEL32.dll
 0000:fffcc000       .debug$S                   10000000     kernel32:KERNEL32.dll
 0000:fffcc000       .debug$S                   10000000     kernel32:KERNEL32.dll
 0000:fffcc000       .debug$S                   10000000     kernel32:KERNEL32.dll
 0000:fffcc000       .debug$S                   10000000     kernel32:KERNEL32.dll
 0000:fffcc000       .debug$S                   10000000     kernel32:KERNEL32.dll
 0000:fffcc000       .debug$S                   10000000     kernel32:KERNEL32.dll
 0000:fffcc000       .debug$S                   10000000     kernel32:KERNEL32.dll
 0000:fffcc000       .debug$S                   10000000     kernel32:KERNEL32.dll
 0000:fffcc000       .debug$S                   10000000     kernel32:KERNEL32.dll
 0000:fffcc000       .debug$S                   10000000     kernel32:KERNEL32.dll
 0000:fffcc000       .debug$S                   10000000     kernel32:KERNEL32.dll
 0000:fffcc000       .debug$S                   10000000     kernel32:KERNEL32.dll
 0000:fffcc000       .debug$S                   10000000     kernel32:KERNEL32.dll
 0000:fffcc000       .debug$S                   10000000     kernel32:KERNEL32.dll
 0000:fffcc000       .debug$S                   10000000     kernel32:KERNEL32.dll
 0000:fffcc000       .debug$S                   10000000     kernel32:KERNEL32.dll
 0000:fffcc000       .debug$S                   10000000     kernel32:KERNEL32.dll
 0000:fffcc000       .debug$S                   10000000     kernel32:KERNEL32.dll
 0000:fffcc000       .debug$S                   10000000     kernel32:KERNEL32.dll
 0000:fffcc000       .debug$S                   10000000     kernel32:KERNEL32.dll
 0000:fffcc000       .debug$S                   10000000     kernel32:KERNEL32.dll
 0000:fffcc000       .debug$S                   10000000     kernel32:KERNEL32.dll
 0000:fffcc000       .debug$S                   10000000     kernel32:KERNEL32.dll
 0000:fffcc000       .debug$S                   10000000     kernel32:KERNEL32.dll
 0000:fffcc000       .debug$S                   10000000     kernel32:KERNEL32.dll
 0000:fffcc000       .debug$S                   10000000     kernel32:KERNEL32.dll
 0000:fffcc000       .debug$S                   10000000     kernel32:KERNEL32.dll
 0000:fffcc000       .debug$S                   10000000     kernel32:KERNEL32.dll
 0000:fffcc000       .debug$S                   10000000     kernel32:KERNEL32.dll
 0000:fffcc000       .debug$S                   10000000     kernel32:KERNEL32.dll
 0000:fffcc000       .debug$S                   10000000     kernel32:KERNEL32.dll
 0000:fffcc000       .debug$S                   10000000     kernel32:KERNEL32.dll
 0000:fffcc000       .debug$S                   10000000     kernel32:KERNEL32.dll
 0000:fffcc000       .debug$S                   10000000     kernel32:KERNEL32.dll
 0000:fffcc000       .debug$S                   10000000     kernel32:KERNEL32.dll
 0000:fffcc000       .debug$S                   10000000     kernel32:KERNEL32.dll
 0000:fffcc000       .debug$S                   10000000     kernel32:KERNEL32.dll
 0000:fffcc000       .debug$S                   10000000     kernel32:KERNEL32.dll
 0000:fffcc000       .debug$S                   10000000     kernel32:KERNEL32.dll
 0000:fffcc000       .debug$S                   10000000     kernel32:KERNEL32.dll
 0000:fffcc000       .debug$S                   10000000     kernel32:KERNEL32.dll
 0000:fffcc000       .debug$S                   10000000     kernel32:KERNEL32.dll
 0000:fffcc000       .debug$S                   10000000     kernel32:KERNEL32.dll
 0000:fffcc000       .debug$S                   10000000     kernel32:KERNEL32.dll
 0000:fffcc000       .debug$S                   10000000     kernel32:KERNEL32.dll
 0000:fffcc000       .debug$S                   10000000     kernel32:KERNEL32.dll
 0000:fffcc000       .debug$S                   10000000     kernel32:KERNEL32.dll
 0000:fffcc000       .debug$S                   10000000     kernel32:KERNEL32.dll
 0000:fffcc000       .debug$S                   10000000     kernel32:KERNEL32.dll
 0000:fffcc000       .debug$S                   10000000     kernel32:KERNEL32.dll
 0000:fffcc000       .debug$S                   10000000     kernel32:KERNEL32.dll
 0000:fffcc000       .debug$S                   10000000     kernel32:KERNEL32.dll
 0000:fffcc000       .debug$S                   10000000     kernel32:KERNEL32.dll
 0000:fffcc000       .debug$S                   10000000     kernel32:KERNEL32.dll
 0000:fffcc000       .debug$S                   10000000     kernel32:KERNEL32.dll
 0000:fffcc000       .debug$S                   10000000     kernel32:KERNEL32.dll
 0000:fffcc000       .debug$S                   10000000     kernel32:KERNEL32.dll
 0000:fffcc000       .debug$S                   10000000     kernel32:KERNEL32.dll
 0000:fffcc000       .debug$S                   10000000     kernel32:KERNEL32.dll
 0000:fffcc000       .debug$S                   10000000     kernel32:KERNEL32.dll
 0000:fffcc000       .debug$S                   10000000     kernel32:KERNEL32.dll
 0000:fffcc000       .debug$S                   10000000     kernel32:KERNEL32.dll
 0000:fffcc000       .debug$S                   10000000     kernel32:KERNEL32.dll
 0000:fffcc000       .debug$S                   10000000     kernel32:KERNEL32.dll
 0000:fffcc000       .debug$S                   10000000     kernel32:KERNEL32.dll
 0000:fffcc000       .debug$S                   10000000     kernel32:KERNEL32.dll
 0000:fffcc000       .debug$S                   10000000     kernel32:KERNEL32.dll
 0000:fffcc000       .debug$S                   10000000     kernel32:KERNEL32.dll
 0000:fffcc000       .debug$S                   10000000     kernel32:KERNEL32.dll
 0000:fffcc000       .debug$S                   10000000     kernel32:KERNEL32.dll
 0000:fffcc000       .debug$S                   10000000     kernel32:KERNEL32.dll
 0000:fffcc000       .debug$S                   10000000     kernel32:KERNEL32.dll
 0000:fffcc000       .debug$S                   10000000     kernel32:KERNEL32.dll
 0000:fffcc000       .debug$S                   10000000     kernel32:KERNEL32.dll
 0000:fffcc000       .debug$S                   10000000     kernel32:KERNEL32.dll
 0000:fffcc000       .debug$S                   10000000     kernel32:KERNEL32.dll
 0000:fffcc000       .debug$S                   10000000     kernel32:KERNEL32.dll
 0000:fffcc000       .debug$S                   10000000     kernel32:KERNEL32.dll
 0000:fffcc000       .debug$S                   10000000     kernel32:KERNEL32.dll
 0000:fffcc000       .debug$S                   10000000     kernel32:KERNEL32.dll
 0000:fffcc000       .debug$S                   10000000     kernel32:KERNEL32.dll
 0000:fffcc000       .debug$S                   10000000     ole32:ole32.dll
 0000:fffcc000       .debug$S                   10000000     ole32:ole32.dll
 0000:fffcc000       .debug$S                   10000000     ole32:ole32.dll
 0000:fffcc000       .debug$S                   10000000     ole32:ole32.dll
 0000:fffcc000       .debug$S                   10000000     ole32:ole32.dll
 0000:fffcc000       .debug$S                   10000000     ole32:ole32.dll
 0000:fffcc000       .debug$S                   10000000     ole32:ole32.dll
 0000:fffcc000       .debug$S                   10000000     ole32:ole32.dll
 0000:fffcc000       .debug$S                   10000000     ole32:ole32.dll
 0000:fffcc000       .debug$S                   10000000     ole32:ole32.dll
 0000:fffcc000       .debug$S                   10000000     ole32:ole32.dll
 0000:fffcc000       .debug$S                   10000000     ole32:ole32.dll
 0000:fffcc000       .debug$S                   10000000     ole32:ole32.dll
 0000:fffcc000       .debug$S                   10000000     ole32:ole32.dll
 0000:fffcc000       .debug$S                   10000000     oleaut32:OLEAUT32.dll
 0000:fffcc000       .debug$S                   10000000     oleaut32:OLEAUT32.dll
 0000:fffcc000       .debug$S                   10000000     oleaut32:OLEAUT32.dll
 0000:fffcc000       .debug$S                   10000000     oleaut32:OLEAUT32.dll
 0000:fffcc000       .debug$S                   10000000     oleaut32:OLEAUT32.dll
 0000:fffcc000       .debug$S                   10000000     oleaut32:OLEAUT32.dll
 0000:fffcc000       .debug$S                   10000000     oleaut32:OLEAUT32.dll
 0000:fffcc000       .debug$S                   10000000     oleaut32:OLEAUT32.dll
 0000:fffcc000       .debug$S                   10000000     oleaut32:OLEAUT32.dll
 0000:fffcc000       .debug$S                   10000000     oleaut32:OLEAUT32.dll
 0000:fffcc000       .debug$S                   10000000     oleaut32:OLEAUT32.dll
 0000:fffcc000       .debug$S                   10000000     oleaut32:OLEAUT32.dll
 0000:fffcc000       .debug$S                   10000000     oleaut32:OLEAUT32.dll
 0000:fffcc000       .debug$S                   10000000     oleaut32:OLEAUT32.dll
 0000:fffcc000       .debug$S                   10000000     oleaut32:OLEAUT32.dll
 0000:fffcc000       .debug$S                   10000000     oleaut32:OLEAUT32.dll
 0000:fffcc000       .debug$S                   10000000     user32:USER32.dll
 0000:fffcc000       .debug$S                   10000000     user32:USER32.dll
 0000:fffcc000       .debug$S                   10000000     user32:USER32.dll
 0000:fffcc000       .debug$S                   10000000     user32:USER32.dll
 0000:fffcc000       .debug$S                   10000000     user32:USER32.dll
 0000:fffcc000       .debug$S                   10000000     user32:USER32.dll
 0000:fffcc000       .debug$S                   10000000     user32:USER32.dll
 0000:fffcc000       .debug$S                   10000000     user32:USER32.dll
 0000:fffcc000       .debug$S                   10000000     user32:USER32.dll
 0000:fffcc000       .debug$S                   10000000     user32:USER32.dll
 0000:fffcc000       .debug$S                   10000000     user32:USER32.dll
 0000:fffcc000       .debug$S                   10000000     user32:USER32.dll
 0000:fffcc000       .debug$S                   10000000     user32:USER32.dll
 0000:fffcc000       .debug$S                   10000000     user32:USER32.dll
 0000:fffcc000       .debug$S                   10000000     user32:USER32.dll
 0000:fffcc000       .debug$S                   10000000     user32:USER32.dll
 0000:fffcc000       .debug$S                   10000000     user32:USER32.dll
 0000:fffcc000       .debug$S                   10000000     user32:USER32.dll
 0000:fffcc000       .debug$S                   10000000     user32:USER32.dll
 0000:fffcc000       .debug$S                   10000000     user32:USER32.dll
 0000:fffcc000       .debug$S                   10000000     user32:USER32.dll
 0000:fffcc000       .debug$S                   10000000     user32:USER32.dll
 0000:fffcc000       .debug$S                   10000000     user32:USER32.dll
 0000:fffcc000       .debug$S                   10000000     user32:USER32.dll
 0000:fffcc000       .debug$S                   10000000     user32:USER32.dll
 0000:fffcc000       .debug$S                   10000000     user32:USER32.dll
 0000:fffcc000       .debug$S                   10000000     user32:USER32.dll
 0000:fffcc000       .debug$S                   10000000     user32:USER32.dll
 0000:fffcc000       .debug$S                   10000000     user32:USER32.dll
 0000:fffcc000       .debug$S                   10000000     user32:USER32.dll
 0000:fffcc000       .debug$S                   10000000     user32:USER32.dll
 0000:fffcc000       .debug$S                   10000000     user32:USER32.dll
 0000:fffcc000       .debug$S                   10000000     user32:USER32.dll
 0000:fffcc000       .debug$S                   10000000     user32:USER32.dll
 0000:fffcc000       .debug$S                   10000000     user32:USER32.dll
 0001:00000000       ??__E_AtlComModule@ATL@@YAXXZ 10001000 f   OposVariant.obj
 0001:00000016       ??__E_AtlWinModule@ATL@@YAXXZ 10001016 f   OposVariant.obj
 0001:0000002c       ??__E?pConnMap@?$IConnectionPointContainerImpl@VCOPOSCAT@@@ATL@@0PBU_ATL_CONNMAP_ENTRY@2@B@@YAXXZ 1000102c f   CAT.obj
 0001:0000003a       ??__E_Module@@YAXXZ        1000103a f   CAT.obj
 0001:00000064       ??__E_AtlBaseModule@ATL@@YAXXZ 10001064 f   atls:atlbase.obj
 0001:000010a5       $LN24                      100020a5     CAT.obj
 0001:00005929       $LN48                      10006929     CAT.obj
 0001:00005941       $LN47                      10006941     CAT.obj
 0001:00007aec       $LN38                      10008aec     CAT.obj
 0001:00007b04       $LN37                      10008b04     CAT.obj
 0001:000091f4       $LN76                      1000a1f4     CAT.obj
 0001:0000920c       $LN75                      1000a20c     CAT.obj
 0001:000095c5       _memcpy_s                  1000a5c5 f   CAT.obj
 0001:0000bbfa       ?find_pe_section@@YAPAU_IMAGE_SECTION_HEADER@@QAEI@Z 1000cbfa f   LIBCMT:utility.obj
 0001:0000bf19       ?__scrt_initialize_thread_safe_statics@@YAHXZ 1000cf19 f   LIBCMT:thread_safe_statics.obj
 0001:0000bf40       ?__scrt_initialize_thread_safe_statics_platform_specific@@YAXXZ 1000cf40 f   LIBCMT:thread_safe_statics.obj
 0001:0000bfc2       ?__scrt_uninitialize_thread_safe_statics@@YAXXZ 1000cfc2 f   LIBCMT:thread_safe_statics.obj
 0001:0000c331       __catch$??2@YAPAXIABUnothrow_t@std@@@Z$0 1000d331 f   LIBCMT:new_scalar_nothrow.obj
 0001:0000c370       $$000000                   1000d370     LIBCMT:sehprolg4gs.obj
 0001:0000c3d0       $$000000                   1000d3d0     LIBCMT:alloca16.obj
 0001:0000c400       $$000000                   1000d400     LIBCMT:chkstk.obj
 0001:0000c42d       ?dllmain_crt_dispatch@@YGHQAUHINSTANCE__@@KQAX@Z 1000d42d f   LIBCMT:dll_dllmain.obj
 0001:0000c480       ?dllmain_crt_process_attach@@YAHQAUHINSTANCE__@@QAX@Z 1000d480 f   LIBCMT:dll_dllmain.obj
 0001:0000c587       ?dllmain_crt_process_detach@@YAH_N@Z 1000d587 f   LIBCMT:dll_dllmain.obj
 0001:0000c637       ?dllmain_dispatch@@YAHQAUHINSTANCE__@@KQAX@Z 1000d637 f   LIBCMT:dll_dllmain.obj
 0001:0000c742       ?dllmain_raw@@YGHQAUHINSTANCE__@@KQAX@Z 1000d742 f   LIBCMT:dll_dllmain.obj
 0001:0000cac0       $$000000                   1000dac0     LIBCMT:sehprolg4.obj
 0001:0000cb1b       ___get_entropy             1000db1b f   LIBCMT:gs_support.obj
 0001:0000ce12       ??$GetProcAddressAll@P6GP6GJPAUHWND__@@IIJ@ZPAUAtlThunkData_t@@@Z@@YAP6GP6GJPAUHWND__@@IIJ@ZPAUAtlThunkData_t@@@ZPAP6GP6GJ0IIJ@Z1@Z@Z 1000de12 f   atls:atlthunk.obj
 0001:0000ce12       ??$GetProcAddressAll@P6GPAUAtlThunkData_t@@XZ@@YAP6GPAUAtlThunkData_t@@XZPAP6GPAU0@XZ@Z 1000de12 f   atls:atlthunk.obj
 0001:0000ce12       ??$GetProcAddressAll@P6GXPAUAtlThunkData_t@@@Z@@YAP6GXPAUAtlThunkData_t@@@ZPAP6GX0@Z@Z 1000de12 f   atls:atlthunk.obj
 0001:0000ce12       ??$GetProcAddressAll@P6GXPAUAtlThunkData_t@@PAXI@Z@@YAP6GXPAUAtlThunkData_t@@PAXI@ZPAP6GX01I@Z@Z 1000de12 f   atls:atlthunk.obj
 0001:0000cec2       ?GetProcAddressSingle@@YA_NPAUHINSTANCE__@@PBDPAPAX@Z 1000dec2 f   atls:atlthunk.obj
 0001:0000d014       ?__InitializeThunkPool@@YAHXZ 1000e014 f   atls:atlthunk.obj
 0001:0000d460       _ValidateLocalCookies      1000e460 f   libvcruntime:chandler4.obj
 0001:0000e48a       $LN1250                    1000f48a     libvcruntime:memcmp.obj
 0001:0000e510       $$000000                   1000f510     libvcruntime:memcpy.obj
 0001:0000e774       TrailingUpVec              1000f774     libvcruntime:memcpy.obj
 0001:0000e820       TrailingDownVec            1000f820     libvcruntime:memcpy.obj
 0001:0000ea90       $$000000                   1000fa90     libvcruntime:memset.obj
 0001:0000f093       ?_FilterSetCurrentException@@YAKPAU_EXCEPTION_POINTERS@@E@Z 10010093 f   libvcruntime:ehhelpers.obj
 0001:0000f2e0       $$000000                   100102e0     libvcruntime:memmove.obj
 0001:0000f544       TrailingUpVec              10010544     libvcruntime:memmove.obj
 0001:0000f5f0       TrailingDownVec            100105f0     libvcruntime:memmove.obj
 0001:0000f860       $$000000                   10010860     libvcruntime:exsup4.obj
 0001:0000f8ed       __unwind_handler4          100108ed f   libvcruntime:exsup4.obj
 0001:0000fbcb       ??$BuildCatchObjectHelperInternal@V__FrameHandler3@@@@YAHPAUEHExceptionRecord@@PAXPBU_s_HandlerType@@PBU_s_CatchableType@@@Z 10010bcb f   libvcruntime:frame.obj
 0001:0000fd09       ??$BuildCatchObjectInternal@V__FrameHandler3@@@@YAXPAUEHExceptionRecord@@PAXPBU_s_HandlerType@@PBU_s_CatchableType@@@Z 10010d09 f   libvcruntime:frame.obj
 0001:0000fda2       ??$CatchIt@V__FrameHandler3@@@@YAXPAUEHExceptionRecord@@PAUEHRegistrationNode@@PAU_CONTEXT@@PAXPBU_s_FuncInfo@@PBU_s_HandlerType@@PBU_s_CatchableType@@PBU_s_TryBlockMapEntry@@H1EE@Z 10010da2 f   libvcruntime:frame.obj
 0001:0000fe22       ??$FindHandler@V__FrameHandler3@@@@YAXPAUEHExceptionRecord@@PAUEHRegistrationNode@@PAU_CONTEXT@@PAXPBU_s_FuncInfo@@EH1@Z 10010e22 f   libvcruntime:frame.obj
 0001:000101d8       ??$FindHandlerForForeignException@V__FrameHandler3@@@@YAXPAUEHExceptionRecord@@PAUEHRegistrationNode@@PAU_CONTEXT@@PAXPBU_s_FuncInfo@@HH1@Z 100111d8 f   libvcruntime:frame.obj
 0001:000104f0       ?CallCatchBlock@@YAPAXPAUEHExceptionRecord@@PAUEHRegistrationNode@@PAU_CONTEXT@@PBU_s_FuncInfo@@PAXHK@Z 100114f0 f   libvcruntime:frame.obj
 0001:000106b4       ?CallUnexpected@@YAXPBU_s_ESTypeList@@@Z 100116b4 f   libvcruntime:frame.obj
 0001:000106d4       __catch$?CallUnexpected@@YAXPBU_s_ESTypeList@@@Z$0 100116d4 f   libvcruntime:frame.obj
 0001:000106f3       ?ExFilterRethrow@@YAHPAU_EXCEPTION_POINTERS@@@Z 100116f3 f   libvcruntime:frame.obj
 0001:0001083d       ?IsInExceptionSpec@@YAEPAUEHExceptionRecord@@PBU_s_ESTypeList@@@Z 1001183d f   libvcruntime:frame.obj
 0001:00010910       $$000000                   10011910     libvcruntime:lowhelpr.obj
 0001:00010960       $$000000                   10011960     libvcruntime:exsup.obj
 0001:00010981       __unwind_handler           10011981 f   libvcruntime:exsup.obj
 0001:00010a9e       ?try_get_first_available_module@@YAPAUHINSTANCE__@@QBW4module_id@?A0xb97aeec8@@0@Z 10011a9e f   libvcruntime:winapi_downlevel.obj
 0001:00010b38       ?try_get_function@@YAPAXW4function_id@?A0xb97aeec8@@QBDQBW4module_id@2@2@Z 10011b38 f   libvcruntime:winapi_downlevel.obj
 0001:000111c2       ??$common_tcsncpy_s@_W@@YAHQA_WIQB_WI@Z 100121c2 f   libucrt:wcsncpy_s.obj
 0001:00011298       ??$common_vsprintf@Vformat_validation_base@__crt_stdio_output@@_W@@YAH_KQA_WIQB_WQAU__crt_locale_pointers@@QAD@Z 10012298 f   libucrt:output.obj
 0001:0001141f       ??$common_vsprintf_s@_W@@YAH_KQA_WIQB_WQAU__crt_locale_pointers@@QAD@Z 1001241f f   libucrt:output.obj
 0001:00011b83       $LN48                      10012b83     libucrt:output.obj
 0001:0001208c       $LN18                      1001308c     libucrt:output.obj
 0001:000120a0       $LN17                      100130a0     libucrt:output.obj
 0001:000128fb       ??$?RV<lambda_03b1d95aef87969028cfba75ccab2455>@@AAV<lambda_6e4b09c48022b2350581041d5f6b0c4c>@@V<lambda_22bdf7517842c4b3e53723af5aa32b9e>@@@?$__crt_seh_guarded_call@X@@QAEX$$QAV<lambda_03b1d95aef87969028cfba75ccab2455>@@AAV<lambda_6e4b09c48022b2350581041d5f6b0c4c>@@$$QAV<lambda_22bdf7517842c4b3e53723af5aa32b9e>@@@Z 100138fb f   libucrt:exit.obj
 0001:00012948       ??R<lambda_6e4b09c48022b2350581041d5f6b0c4c>@@QBE@XZ 10013948 f   libucrt:exit.obj
 0001:00012a22       ?atexit_exception_filter@@YAHK@Z 10013a22 f   libucrt:exit.obj
 0001:00012a35       ?common_exit@@YAXHW4_crt_exit_cleanup_mode@@W4_crt_exit_return_mode@@@Z 10013a35 f   libucrt:exit.obj
 0001:00012a99       ?exit_or_terminate_process@@YAXI@Z 10013a99 f   libucrt:exit.obj
 0001:00012adb       ?is_managed_app@@YA_NXZ    10013adb f   libucrt:exit.obj
 0001:00012b1e       ?try_cor_exit_process@@YAXI@Z 10013b1e f   libucrt:exit.obj
 0001:00012bac       ??$common_configure_argv@D@@YAHW4_crt_argv_mode@@@Z 10013bac f   libucrt:argv_parsing.obj
 0001:00012ce2       ??$parse_command_line@D@@YAXPADPAPAD0PAI2@Z 10013ce2 f   libucrt:argv_parsing.obj
 0001:00012eb0       ??$common_initialize_environment_nolock@D@@YAHXZ 10013eb0 f   libucrt:environment_initialization.obj
 0001:00012f03       ??$create_environment@D@@YAQAPADQAD@Z 10013f03 f   libucrt:environment_initialization.obj
 0001:00012fd3       ??$free_environment@D@@YAXQAPAD@Z 10013fd3 f   libucrt:environment_initialization.obj
 0001:00012fd3       ??$free_environment@_W@@YAXQAPA_W@Z 10013fd3 f   libucrt:environment_initialization.obj
 0001:0001302b       ??$uninitialize_environment_internal@D@@YAXAAPAPAD@Z 1001402b f   libucrt:environment_initialization.obj
 0001:00013046       ??$uninitialize_environment_internal@_W@@YAXAAPAPA_W@Z 10014046 f   libucrt:environment_initialization.obj
 0001:0001309d       ??$?RV<lambda_69a2805e680e0e292e8ba93315fe43a8>@@AAV<lambda_f03950bc5685219e0bcd2087efbe011e>@@V<lambda_03fcd07e894ec930e3f35da366ca99d6>@@@?$__crt_seh_guarded_call@H@@QAEH$$QAV<lambda_69a2805e680e0e292e8ba93315fe43a8>@@AAV<lambda_f03950bc5685219e0bcd2087efbe011e>@@$$QAV<lambda_03fcd07e894ec930e3f35da366ca99d6>@@@Z 1001409d f   libucrt:onexit.obj
 0001:000130f8       ??$?RV<lambda_8e746cf0007f6ed984d6f78af1fec997>@@AAV<lambda_22ebabd17bc4fa466a2aca6d8deb888d>@@V<lambda_18ed0c0b38a6dc0daf1e7ac6d6adf05e>@@@?$__crt_seh_guarded_call@H@@QAEH$$QAV<lambda_8e746cf0007f6ed984d6f78af1fec997>@@AAV<lambda_22ebabd17bc4fa466a2aca6d8deb888d>@@$$QAV<lambda_18ed0c0b38a6dc0daf1e7ac6d6adf05e>@@@Z 100140f8 f   libucrt:onexit.obj
 0001:00013172       ??R<lambda_22ebabd17bc4fa466a2aca6d8deb888d>@@QBEHXZ 10014172 f   libucrt:onexit.obj
 0001:0001329b       ??R<lambda_f03950bc5685219e0bcd2087efbe011e>@@QBEHXZ 1001429b f   libucrt:onexit.obj
 0001:00013414       _initialize_global_variables 10014414 f   libucrt:initialization.obj
 0001:00013421       _initialize_c              10014421 f   libucrt:initialization.obj
 0001:0001343b       _initialize_environment    1001443b f   libucrt:initialization.obj
 0001:0001343b       _initialize_global_state_isolation 1001443b f   libucrt:initialization.obj
 0001:0001343b       _report_memory_leaks       1001443b f   libucrt:initialization.obj
 0001:0001343b       _uninitialize_c            1001443b f   libucrt:initialization.obj
 0001:0001343b       _uninitialize_global_state_isolation 1001443b f   libucrt:initialization.obj
 0001:0001343e       _uninitialize_environment  1001443e f   libucrt:initialization.obj
 0001:00013446       _initialize_pointers       10014446 f   libucrt:initialization.obj
 0001:00013474       _uninitialize_vcruntime    10014474 f   libucrt:initialization.obj
 0001:0001347d       _uninitialize_allocated_memory 1001447d f   libucrt:initialization.obj
 0001:00013494       _uninitialize_allocated_io_buffers 10014494 f   libucrt:initialization.obj
 0001:000134e4       ??R<lambda_af42a3ee9806e9a7305d451646e05244>@@QBEXAAPAU__crt_multibyte_data@@@Z 100144e4 f   libucrt:initialization.obj
 0001:00013dd0       $$000000                   10014dd0     libucrt:strncmp.obj
 0001:00013ebc       ??$?RV<lambda_15ade71b0218206bbe3333a0c9b79046>@@AAV<lambda_da44e0f8b0f19ba52fefafb335991732>@@V<lambda_207f2d024fc103971653565357d6cd41>@@@?$__crt_seh_guarded_call@X@@QAEX$$QAV<lambda_15ade71b0218206bbe3333a0c9b79046>@@AAV<lambda_da44e0f8b0f19ba52fefafb335991732>@@$$QAV<lambda_207f2d024fc103971653565357d6cd41>@@@Z 10014ebc f   libucrt:per_thread_data.obj
 0001:00013f0e       ??$?RV<lambda_38edbb1296d33220d7e4dd0ed76b244a>@@AAV<lambda_5ce1d447e08cb34b2473517608e21441>@@V<lambda_fb385d3da700c9147fc39e65dd577a8c>@@@?$__crt_seh_guarded_call@X@@QAEX$$QAV<lambda_38edbb1296d33220d7e4dd0ed76b244a>@@AAV<lambda_5ce1d447e08cb34b2473517608e21441>@@$$QAV<lambda_fb385d3da700c9147fc39e65dd577a8c>@@@Z 10014f0e f   libucrt:per_thread_data.obj
 0001:00013f79       ??$?RV<lambda_6affb1475c98b40b75cdec977db92e3c>@@AAV<lambda_b8d4b9c228a6ecc3f80208dbb4b4a104>@@V<lambda_608742c3c92a14382c1684fc64f96c88>@@@?$__crt_seh_guarded_call@X@@QAEX$$QAV<lambda_6affb1475c98b40b75cdec977db92e3c>@@AAV<lambda_b8d4b9c228a6ecc3f80208dbb4b4a104>@@$$QAV<lambda_608742c3c92a14382c1684fc64f96c88>@@@Z 10014f79 f   libucrt:per_thread_data.obj
 0001:00013fce       ??$?RV<lambda_a7e850c220f1c8d1e6efeecdedd162c6>@@AAV<lambda_46720907175c18b6c9d2717bc0d2d362>@@V<lambda_9048902d66e8d99359bc9897bbb930a8>@@@?$__crt_seh_guarded_call@X@@QAEX$$QAV<lambda_a7e850c220f1c8d1e6efeecdedd162c6>@@AAV<lambda_46720907175c18b6c9d2717bc0d2d362>@@$$QAV<lambda_9048902d66e8d99359bc9897bbb930a8>@@@Z 10014fce f   libucrt:per_thread_data.obj
 0001:00014028       ?construct_ptd@@YAXQAU__acrt_ptd@@QAPAU__crt_locale_data@@@Z 10015028 f   libucrt:per_thread_data.obj
 0001:000140c1       ?destroy_fls@@YGXPAX@Z     100150c1 f   libucrt:per_thread_data.obj
 0001:000140e2       ?destroy_ptd@@YAXQAU__acrt_ptd@@@Z 100150e2 f   libucrt:per_thread_data.obj
 0001:000141af       ?replace_current_thread_locale_nolock@@YAXQAU__acrt_ptd@@QAU__crt_locale_data@@@Z 100151af f   libucrt:per_thread_data.obj
 0001:000145bf       ?try_get_AreFileApisANSI@@YAP6GHXZXZ 100155bf f   libucrt:winapi_thunks.obj
 0001:000145d9       ?try_get_LCMapStringEx@@YAP6GHPB_WK0HPA_WHPAU_nlsversioninfo@@PAXJ@ZXZ 100155d9 f   libucrt:winapi_thunks.obj
 0001:000145f3       ?try_get_LocaleNameToLCID@@YAP6GKPB_WK@ZXZ 100155f3 f   libucrt:winapi_thunks.obj
 0001:0001460d       ?try_get_first_available_module@@YAPAUHINSTANCE__@@QBW4module_id@?A0x391cf84c@@0@Z 1001560d f   libucrt:winapi_thunks.obj
 0001:000146d4       ?try_get_function@@YAPAXW4function_id@?A0x391cf84c@@QBDQBW4module_id@2@2@Z 100156d4 f   libucrt:winapi_thunks.obj
 0001:00014e37       ?fe_to_nearest@@YA_NQBN_KF@Z 10015e37 f   libucrt:cvt.obj
 0001:00014eda       ?fp_format_a@@YAHQBNPADIQADIH_NIQAU__crt_locale_pointers@@W4__acrt_rounding_mode@@@Z 10015eda f   libucrt:cvt.obj
 0001:000151e9       ?fp_format_e@@YAHQBNQADI1IH_NIQAU__crt_locale_pointers@@W4__acrt_rounding_mode@@@Z 100161e9 f   libucrt:cvt.obj
 0001:00015291       ?fp_format_e_internal@@YAHQADIH_NIQAU_strflt@@1QAU__crt_locale_pointers@@@Z 10016291 f   libucrt:cvt.obj
 0001:000153d9       ?fp_format_f@@YAHQBNQADI1IHQAU__crt_locale_pointers@@W4__acrt_rounding_mode@@@Z 100163d9 f   libucrt:cvt.obj
 0001:0001546a       ?fp_format_f_internal@@YAHQADIHQAU_strflt@@_NQAU__crt_locale_pointers@@@Z 1001646a f   libucrt:cvt.obj
 0001:00015562       ?fp_format_g@@YAHQBNQADI1IH_NIQAU__crt_locale_pointers@@@Z 10016562 f   libucrt:cvt.obj
 0001:0001562b       ?fp_format_nan_or_infinity@@YAHW4__acrt_fp_class@@_NPADI1@Z 1001662b f   libucrt:cvt.obj
 0001:000156c0       ?shift_bytes@@YAXQADI0H@Z  100166c0 f   libucrt:cvt.obj
 0001:000156f4       ?should_round_up@@YA_NQBN_KFW4__acrt_rounding_mode@@@Z 100166f4 f   libucrt:cvt.obj
 0001:00015a5d       ??$?RV<lambda_e5124f882df8998aaf41531e079ba474>@@AAV<lambda_3e16ef9562a7dcce91392c22ab16ea36>@@V<lambda_e25ca0880e6ef98be67edffd8c599615>@@@?$__crt_seh_guarded_call@X@@QAEX$$QAV<lambda_e5124f882df8998aaf41531e079ba474>@@AAV<lambda_3e16ef9562a7dcce91392c22ab16ea36>@@$$QAV<lambda_e25ca0880e6ef98be67edffd8c599615>@@@Z 10016a5d f   libucrt:wsetlocale.obj
 0001:00015afd       ?initialize_inherited_file_handles_nolock@@YAXXZ 10016afd f   libucrt:ioinit.obj
 0001:00015bb3       ?initialize_stdio_handles_nolock@@YAXXZ 10016bb3 f   libucrt:ioinit.obj
 0001:00015dc4       ?<lambda_invoker_cdecl>@<lambda_838c7f62c73c983481e27c09e84b0b5d>@@CAHPBX0@Z 10016dc4 f   libucrt:argv_wildcards.obj
 0001:00015ddc       ??$__acrt_convert_wcs_mbs_cp@D_WV<lambda_62f6974d9771e494a5ea317cc32e971c>@@U__crt_win32_buffer_internal_dynamic_resizing@@@@YAHQBDAAV?$__crt_win32_buffer@_WU__crt_win32_buffer_internal_dynamic_resizing@@@@ABV<lambda_62f6974d9771e494a5ea317cc32e971c>@@I@Z 10016ddc f   libucrt:argv_wildcards.obj
 0001:00015e8e       ??$__acrt_convert_wcs_mbs_cp@_WDV<lambda_28bda7af82a03b66c1cb3803a755f95d>@@U__crt_win32_buffer_internal_dynamic_resizing@@@@YAHQB_WAAV?$__crt_win32_buffer@DU__crt_win32_buffer_internal_dynamic_resizing@@@@ABV<lambda_28bda7af82a03b66c1cb3803a755f95d>@@I@Z 10016e8e f   libucrt:argv_wildcards.obj
 0001:00015f7a       ??$common_expand_argv_wildcards@D@@YAHQAPADQAPAPAD@Z 10016f7a f   libucrt:argv_wildcards.obj
 0001:00016169       ??$copy_and_add_argument_to_buffer@D@@YAHQBD0IAAV?$argument_list@D@?A0x5f5c8891@@@Z 10017169 f   libucrt:argv_wildcards.obj
 0001:0001621a       ??$expand_argument_wildcards@D@@YAHQAD0AAV?$argument_list@D@?A0x5f5c8891@@@Z 1001721a f   libucrt:argv_wildcards.obj
 0001:00016564       ?expand_if_necessary@?$argument_list@D@?A0x5f5c8891@@AAEHXZ 10017564 f   libucrt:argv_wildcards.obj
 0001:000165f6       ??$__acrt_convert_wcs_mbs_cp@_WDV<lambda_0fec1a7b3f42a53036604e18c2d5e07e>@@U__crt_win32_buffer_no_resizing@@@@YAHQB_WAAV?$__crt_win32_buffer@DU__crt_win32_buffer_no_resizing@@@@ABV<lambda_0fec1a7b3f42a53036604e18c2d5e07e>@@I@Z 100175f6 f   libucrt:getmodulefilenamea.obj
 0001:00016799       ??$?RV<lambda_ceb1ee4838e85a9d631eb091e2fbe199>@@AAV<lambda_ae742caa10f662c28703da3d2ea5e57e>@@V<lambda_cd08b5d6af4937fe54fc07d0c9bf6b37>@@@?$__crt_seh_guarded_call@X@@QAEX$$QAV<lambda_ceb1ee4838e85a9d631eb091e2fbe199>@@AAV<lambda_ae742caa10f662c28703da3d2ea5e57e>@@$$QAV<lambda_cd08b5d6af4937fe54fc07d0c9bf6b37>@@@Z 10017799 f   libucrt:mbctype.obj
 0001:000167e6       ??R<lambda_ae742caa10f662c28703da3d2ea5e57e>@@QBEXXZ 100177e6 f   libucrt:mbctype.obj
 0001:00016869       ?CPtoLocaleName@@YAPB_WH@Z 10017869 f   libucrt:mbctype.obj
 0001:000168a7       ?getSystemCP@@YAHH@Z       100178a7 f   libucrt:mbctype.obj
 0001:00016918       ?setSBCS@@YAXPAU__crt_multibyte_data@@@Z 10017918 f   libucrt:mbctype.obj
 0001:0001697d       ?setSBUpLow@@YAXPAU__crt_multibyte_data@@@Z 1001797d f   libucrt:mbctype.obj
 0001:00016afd       ?setmbcp_internal@@YAHH_NQAU__acrt_ptd@@QAPAU__crt_multibyte_data@@@Z 10017afd f   libucrt:mbctype.obj
 0001:00016c11       ?update_thread_multibyte_data_internal@@YAPAU__crt_multibyte_data@@QAU__acrt_ptd@@QAPAU1@@Z 10017c11 f   libucrt:mbctype.obj
 0001:00016eff       _memcpy_s                  10017eff f   libucrt:cfout.obj
 0001:00016eff       _memcpy_s                  10017eff f   libucrt:mbctype.obj
 0001:00016f80       ?x_ismbbtype_l@@YAHPAU__crt_locale_pointers@@IHH@Z 10017f80 f   libucrt:ismbbyte.obj
 0001:0001713b       ?find_end_of_double_null_terminated_sequence@@YAPB_WQB_W@Z 1001813b f   libucrt:get_environment_from_os.obj
 0001:000172aa       ??$?RV<lambda_cbab9ec6f41b0180b23cc171c22676b0>@@AAV<lambda_44731a7d0e6d81c3e6aa82d741081786>@@V<lambda_4b292cb8dd18144e164572427af410ab>@@@?$__crt_seh_guarded_call@P6AXH@Z@@QAEP6AXH@Z$$QAV<lambda_cbab9ec6f41b0180b23cc171c22676b0>@@AAV<lambda_44731a7d0e6d81c3e6aa82d741081786>@@$$QAV<lambda_4b292cb8dd18144e164572427af410ab>@@@Z 100182aa f   libucrt:signal.obj
 0001:0001730e       ?get_global_action_nolock@@YAPAP6AXH@ZH@Z 1001830e f   libucrt:signal.obj
 0001:00017350       ?siglookup@@YAPAU__crt_signal_action_t@@HQAU1@@Z 10018350 f   libucrt:signal.obj
 0001:00017609       ??$?RV<lambda_2866be3712abc81a800a822484c830d8>@@AAV<lambda_39ca0ed439415581b5b15c265174cece>@@V<lambda_2b24c74d71094a6cd0cb82e44167d71b>@@@?$__crt_seh_guarded_call@X@@QAEX$$QAV<lambda_2866be3712abc81a800a822484c830d8>@@AAV<lambda_39ca0ed439415581b5b15c265174cece>@@$$QAV<lambda_2b24c74d71094a6cd0cb82e44167d71b>@@@Z 10018609 f   libucrt:fflush.obj
 0001:00017695       ??$?RV<lambda_2cc53f568c5a2bb6f192f930a45d44ea>@@AAV<lambda_ab61a845afdef5b7c387490eaf3616ee>@@V<lambda_c2ffc0b7726aa6be21d5f0026187e748>@@@?$__crt_seh_guarded_call@X@@QAEX$$QAV<lambda_2cc53f568c5a2bb6f192f930a45d44ea>@@AAV<lambda_ab61a845afdef5b7c387490eaf3616ee>@@$$QAV<lambda_c2ffc0b7726aa6be21d5f0026187e748>@@@Z 10018695 f   libucrt:fflush.obj
 0001:00017741       ?common_flush_all@@YAH_N@Z 10018741 f   libucrt:fflush.obj
 0001:0001778e       ?common_flush_all_should_try_to_flush_stream@@YA_NV__crt_stdio_stream@@QAH@Z 1001878e f   libucrt:fflush.obj
 0001:000177c1       ?is_stream_flushable_or_commitable@@YA_NJ@Z 100187c1 f   libucrt:fflush.obj
 0001:00017cca       ?GetTableIndexFromLocaleName@@YAHPB_W@Z 10018cca f   libucrt:lcidtoname_downlevel.obj
 0001:00017d80       ??R<lambda_3d301b9e52f5099be73030e1f0bf487e>@@QBEIPBD@Z 10018d80 f   libucrt:mbrtowc.obj
 0001:00017f06       ?should_round_up@@YA_NQBDHW4__acrt_has_trailing_digits@@W4__acrt_rounding_mode@@@Z 10018f06 f   libucrt:_fptostr.obj
 0001:00019ca4       ?free_crt_array_internal@@YAXQAPBXI@Z 1001aca4 f   libucrt:inittime.obj
 0001:0001a66e       ??$common_tcsncpy_s@D@@YAHQADIQBDI@Z 1001b66e f   libucrt:strncpy_s.obj
 0001:0001a730       $$000000                   1001b730     libucrt:strpbrk.obj
 0001:0001a814       ?__acrt_LCMapStringA_stat@@YAHPAU__crt_locale_pointers@@PB_WKPBDHPADHHH@Z 1001b814 f   libucrt:lcmapstringa.obj
 0001:0001aa47       ?initialize_multibyte@@YAHXZ 1001ba47 f   libucrt:multibyte_initializer.obj
 0001:0001aa56       ??$?RV<lambda_9e9de3de5fa147e2223d7db92bc10aa6>@@AAV<lambda_38ce7e780aa69e748d6df282ebc68efe>@@V<lambda_8ca6da459f0f6780f1cff60fdc3d00e5>@@@?$__crt_seh_guarded_call@H@@QAEH$$QAV<lambda_9e9de3de5fa147e2223d7db92bc10aa6>@@AAV<lambda_38ce7e780aa69e748d6df282ebc68efe>@@$$QAV<lambda_8ca6da459f0f6780f1cff60fdc3d00e5>@@@Z 1001ba56 f   libucrt:commit.obj
 0001:0001ab75       ?write_double_translated_ansi_nolock@@YA?AUwrite_result@?A0x17268360@@HQBDI@Z 1001bb75 f   libucrt:write.obj
 0001:0001af21       ?write_double_translated_unicode_nolock@@YA?AUwrite_result@?A0x17268360@@QBDI@Z 1001bf21 f   libucrt:write.obj
 0001:0001af89       ?write_requires_double_translation_nolock@@YA_NH@Z 1001bf89 f   libucrt:write.obj
 0001:0001affa       ?write_text_ansi_nolock@@YA?AUwrite_result@?A0x17268360@@HQBDI@Z 1001bffa f   libucrt:write.obj
 0001:0001b0d5       ?write_text_utf16le_nolock@@YA?AUwrite_result@?A0x17268360@@HQBDI@Z 1001c0d5 f   libucrt:write.obj
 0001:0001b1be       ?write_text_utf8_nolock@@YA?AUwrite_result@?A0x17268360@@HQBDI@Z 1001c1be f   libucrt:write.obj
 0001:0001b8e0       $$000000                   1001c8e0     libucrt:log10_impl.obj
 0001:0001b9f0       $$000000                   1001c9f0     libucrt:ceil_pentium4.obj
 0001:0001bb0d       ?to_abstract_control@@YA?AW4__acrt_fenv_abstract_control@@W4__acrt_fenv_machine_sse_control@@@Z 1001cb0d f   libucrt:_fenvutils.obj
 0001:0001bbc9       ?to_abstract_control@@YA?AW4__acrt_fenv_abstract_control@@W4__acrt_fenv_machine_x87_control@@@Z 1001cbc9 f   libucrt:_fenvutils.obj
 0001:0001bc82       ?to_machine_sse_control@@YA?AW4__acrt_fenv_machine_sse_control@@W4__acrt_fenv_abstract_control@@@Z 1001cc82 f   libucrt:_fenvutils.obj
 0001:0001bd4f       ?to_machine_x87_control@@YA?AW4__acrt_fenv_machine_x87_control@@W4__acrt_fenv_abstract_control@@@Z 1001cd4f f   libucrt:_fenvutils.obj
 0001:0001c0e3       ??$common_lseek_nolock@_J@@YA_JH_JH@Z 1001d0e3 f   libucrt:lseek.obj
 0001:0001c2c9       ___hw_cw_sse2              1001d2c9 f   libucrt:ieee87.obj
 0001:0001c74f       __hw_cw                    1001d74f f   libucrt:ieee87.obj
 0001:0001c800       $$000000                   1001d800     libucrt:log10_pentium4.obj
 0001:0001ca90       $$000000                   1001da90     libucrt:87tran.obj
 0001:0001cca0       $$000000                   1001dca0     libucrt:87disp.obj
 0001:0001cf00       $$000000                   1001df00     libucrt:common.obj
 0001:0001d090       $$000000                   1001e090     libucrt:genexcep.obj
 0001:0001d38c       ??$?RV<lambda_218ce3db14220d0be481dae8ef3383b6>@@AAV<lambda_628dfdc04ba53c8bfc02c9951375f3f5>@@V<lambda_57dc472bd5c9d5f3b2cbca59b8a843ae>@@@?$__crt_seh_guarded_call@H@@QAEH$$QAV<lambda_218ce3db14220d0be481dae8ef3383b6>@@AAV<lambda_628dfdc04ba53c8bfc02c9951375f3f5>@@$$QAV<lambda_57dc472bd5c9d5f3b2cbca59b8a843ae>@@@Z 1001e38c f   libucrt:close.obj
 0001:0001d580       $$000000                   1001e580     libucrt:_strnicm.obj
 0001:0001d5e1       ?__dcrt_lowio_initialize_console_output@@YAXXZ 1001e5e1 f   libucrt:initcon.obj
 0001:0001e4c0       $$000000                   1001f4c0     LIBCMT:ulldvrm.obj
 0001:0001e560       $$000000                   1001f560     LIBCMT:llmul.obj
 0001:0001e5a0       $$000000                   1001f5a0     LIBCMT:lldvrm.obj
 0001:0001e680       $$000000                   1001f680     LIBCMT:llshl.obj
 0001:0001e6a0       $$000000                   1001f6a0     LIBCMT:ullshr.obj
 0001:0001e6c0       $$000000                   1001f6c0     LIBCMT:ftol2.obj
 0001:0001e960       $$000000                   1001f960     libvcruntime:strrchr.obj
 0001:0001eaa0       $$000000                   1001faa0     libvcruntime:strchr.obj
 0001:0001ec43       __ehhandler$??2@YAPAXIABUnothrow_t@std@@@Z 1001fc43 f   LIBCMT:new_scalar_nothrow.obj
 0001:0001ec60       __ehhandler$?CallUnexpected@@YAXPBU_s_ESTypeList@@@Z 1001fc60 f   libvcruntime:frame.obj
 0001:0001ec7d       ??__F_AtlComModule@ATL@@YAXXZ 1001fc7d f   OposVariant.obj
 0001:0001ec87       ??__F_AtlWinModule@ATL@@YAXXZ 1001fc87 f   OposVariant.obj
 0001:0001eca1       ??__F_Module@@YAXXZ        1001fca1 f   CAT.obj
 0001:0001ecb5       ??__F_AtlBaseModule@ATL@@YAXXZ 1001fcb5 f   atls:atlbase.obj
 0002:00000304       ?_AtlBaseModule$initializer$@ATL@@3P6AXXZA 10020304     atls:atlbase.obj
 0002:00000308       ?_AtlComModule$initializer$@ATL@@3P6AXXZA 10020308     OposVariant.obj
 0002:0000030c       ?_AtlWinModule$initializer$@ATL@@3P6AXXZA 1002030c     OposVariant.obj
 0002:00000310       ?_Module$initializer$@@3P6AXXZA 10020310     CAT.obj
 0002:00000314       ??pConnMap$initializer$@?$IConnectionPointContainerImpl@VCOPOSCAT@@@ATL@@0P6AXXZA@@3P6AXXZA 10020314     CAT.obj
 0002:00000320       ?__scrt_initialize_tss_var@@3P6AHXZA 10020320     LIBCMT:thread_safe_statics.obj
 0002:000019e8       _GS_ExceptionPointers      100219e8     LIBCMT:gs_report.obj
 0002:00001b78       ?tokenTable@@3QBUStringLiteral@@B 10021b78     libvcruntime:undname.obj
 0002:00001bf8       ?nameTable@@3QBUStringLiteral@@B 10021bf8     libvcruntime:undname.obj
 0002:00001e90       ?rttiTable@@3QBUStringLiteral@@B 10021e90     libvcruntime:undname.obj
 0002:00001eb8       ?IndirectionName@@3QBUStringLiteral@@B 10021eb8     libvcruntime:undname.obj
 0002:00001ee8       ?PrefixName@@3QBUStringLiteral@@B 10021ee8     libvcruntime:undname.obj
 0002:00002518       ?module_names@?A0xb97aeec8@@3QBQB_WB 10022518     libvcruntime:winapi_downlevel.obj
 0002:000025c0       ?candidate_modules@?1??try_get_FlsAlloc@@YAP6GKP6GXPAX@Z@ZXZ@4QBW4module_id@?A0xb97aeec8@@B 100225c0     libvcruntime:winapi_downlevel.obj
 0002:000025d4       ?candidate_modules@?1??try_get_FlsFree@@YAP6GHK@ZXZ@4QBW4module_id@?A0xb97aeec8@@B 100225d4     libvcruntime:winapi_downlevel.obj
 0002:000025e4       ?candidate_modules@?1??try_get_FlsGetValue@@YAP6GPAXK@ZXZ@4QBW4module_id@?A0xb97aeec8@@B 100225e4     libvcruntime:winapi_downlevel.obj
 0002:000025f8       ?candidate_modules@?1??try_get_FlsSetValue@@YAP6GHKPAX@ZXZ@4QBW4module_id@?A0xb97aeec8@@B 100225f8     libvcruntime:winapi_downlevel.obj
 0002:0000260c       ?candidate_modules@?1??try_get_InitializeCriticalSectionEx@@YAP6GHPAU_RTL_CRITICAL_SECTION@@KK@ZXZ@4QBW4module_id@?A0xb97aeec8@@B 1002260c     libvcruntime:winapi_downlevel.obj
 0002:00002630       ?errtable@@3QBUerrentry@?A0x31fdb9ec@@B 10022630     libucrt:errno.obj
 0002:00002c78       ___acrt_initializers       10022c78     libucrt:initialization.obj
 0002:00002cf8       ?module_names@?A0x391cf84c@@3QBQB_WB 10022cf8     libucrt:winapi_thunks.obj
 0002:00003170       ?candidate_modules@?1??try_get_AreFileApisANSI@@YAP6GHXZXZ@4QBW4module_id@?A0x391cf84c@@B 10023170     libucrt:winapi_thunks.obj
 0002:00003184       ?candidate_modules@?1??try_get_FlsAlloc@@YAP6GKP6GXPAX@Z@ZXZ@4QBW4module_id@?A0x391cf84c@@B 10023184     libucrt:winapi_thunks.obj
 0002:0000318c       ?candidate_modules@?1??try_get_FlsFree@@YAP6GHK@ZXZ@4QBW4module_id@?A0x391cf84c@@B 1002318c     libucrt:winapi_thunks.obj
 0002:00003194       ?candidate_modules@?1??try_get_FlsGetValue@@YAP6GPAXK@ZXZ@4QBW4module_id@?A0x391cf84c@@B 10023194     libucrt:winapi_thunks.obj
 0002:0000319c       ?candidate_modules@?1??try_get_FlsSetValue@@YAP6GHKPAX@ZXZ@4QBW4module_id@?A0x391cf84c@@B 1002319c     libucrt:winapi_thunks.obj
 0002:000031a4       ?candidate_modules@?1??try_get_InitializeCriticalSectionEx@@YAP6GHPAU_RTL_CRITICAL_SECTION@@KK@ZXZ@4QBW4module_id@?A0x391cf84c@@B 100231a4     libucrt:winapi_thunks.obj
 0002:000031ac       ?candidate_modules@?1??try_get_LCMapStringEx@@YAP6GHPB_WK0HPA_WHPAU_nlsversioninfo@@PAXJ@ZXZ@4QBW4module_id@?A0x391cf84c@@B 100231ac     libucrt:winapi_thunks.obj
 0002:000031c4       ?candidate_modules@?1??try_get_LocaleNameToLCID@@YAP6GKPB_WK@ZXZ@4QBW4module_id@?A0x391cf84c@@B 100231c4     libucrt:winapi_thunks.obj
 0002:000031e0       ?candidate_modules@?1??try_get_AppPolicyGetProcessTerminationMethod@@YAP6GJPAXPAW4AppPolicyProcessTerminationMethod@@@ZXZ@4QBW4module_id@?A0x391cf84c@@B 100231e0     libucrt:winapi_thunks.obj
 0002:0000320c       ?candidate_modules@?1??try_get_SetThreadStackGuarantee@@YAP6GHPAK@ZXZ@4QBW4module_id@?A0x391cf84c@@B 1002320c     libucrt:winapi_thunks.obj
 0002:00003230       ?strings@?1??fp_format_nan_or_infinity@@YAHW4__acrt_fp_class@@_NPADI1@Z@4QAY03QBDA 10023230     libucrt:cvt.obj
 0002:00003778       ?_mb_locale_names@@3QBQB_WB 10023778     libucrt:mbctype.obj
 0002:00003fc0       ?LcidToLocaleNameTable@?A0x881e4c05@@3QBULcidToLocaleName@1@B 10023fc0     libucrt:lcidtoname_downlevel.obj
 0002:000050e8       ?LocaleNameToIndexTable@?A0x881e4c05@@3QBULocaleNameIndex@1@B 100250e8     libucrt:lcidtoname_downlevel.obj
 0002:00006a20       LOG_name                   10026a20     libucrt:log10_impl.obj
 0002:00006a30       _One                       10026a30     libucrt:ceil_pentium4.obj
 0002:00006a40       _Bns                       10026a40     libucrt:ceil_pentium4.obj
 0002:00006a50       _Zero                      10026a50     libucrt:ceil_pentium4.obj
 0002:00006a60       _S                         10026a60     libucrt:ceil_pentium4.obj
 0002:00006a70       _NegZero                   10026a70     libucrt:ceil_pentium4.obj
 0002:00006a80       emask                      10026a80     libucrt:log10_pentium4.obj
 0002:00006a90       CC                         10026a90     libucrt:log10_pentium4.obj
 0002:00006aa0       Magic                      10026aa0     libucrt:log10_pentium4.obj
 0002:00006ab0       hi_mask                    10026ab0     libucrt:log10_pentium4.obj
 0002:00006ac0       LOG10_2                    10026ac0     libucrt:log10_pentium4.obj
 0002:00006ad0       place_L                    10026ad0     libucrt:log10_pentium4.obj
 0002:00006af0       One                        10026af0     libucrt:log10_pentium4.obj
 0002:00006b00       Zero                       10026b00     libucrt:log10_pentium4.obj
 0002:00006b10       Two52                      10026b10     libucrt:log10_pentium4.obj
 0002:00006b20       Infs                       10026b20     libucrt:log10_pentium4.obj
 0002:00006b30       NaN                        10026b30     libucrt:log10_pentium4.obj
 0002:00006b40       coeff                      10026b40     libucrt:log10_pentium4.obj
 0002:00006b9e       _log2max                   10026b9e     libucrt:87tran.obj
 0002:00006ba8       _smallarg                  10026ba8     libucrt:87tran.obj
 0002:00006bb2       _half                      10026bb2     libucrt:87tran.obj
 0002:00006bfe       One                        10026bfe     libucrt:87disp.obj
 0002:00006c06       Three                      10026c06     libucrt:87disp.obj
 0002:00006c0e       XAMtoTagTab                10026c0e     libucrt:87disp.obj
 0002:00006c20       One                        10026c20     libucrt:common.obj
 0002:00006c34       DblMax                     10026c34     libucrt:common.obj
 0002:00006c3c       DblMin                     10026c3c     libucrt:common.obj
 0002:00006c44       IeeeAdjO                   10026c44     libucrt:common.obj
 0002:00006c4c       IeeeAdjU                   10026c4c     libucrt:common.obj
 0002:00006c54       _infinity                  10026c54     libucrt:common.obj
 0002:00006c5c       _zero                      10026c5c     libucrt:common.obj
 0002:00006ca8       _over                      10026ca8     libucrt:fpctrl.obj
 0002:00006cb4       _under                     10026cb4     libucrt:fpctrl.obj
 0002:000074e8       ?_names@?1??_get_fname@@9@9 100274e8     libucrt:fpexcept.obj
 0002:00007690       two32                      10027690     LIBCMT:ftol2.obj
 0002:00007694       two63                      10027694     LIBCMT:ftol2.obj
 0002:00007698       _NaN                       10027698     LIBCMT:ftol2.obj
 0002:00007d60       __sehtable$?_AtlVerifyStackAvailable@_ATL_SAFE_ALLOCA_IMPL@ATL@@YA_NK@Z 10027d60     CAT.obj
 0002:00007d80       __sehtable$___scrt_is_nonwritable_in_current_image 10027d80     LIBCMT:utility.obj
 0002:00007d9c       __catchsym$??2@YAPAXIABUnothrow_t@std@@@Z$2 10027d9c     LIBCMT:new_scalar_nothrow.obj
 0002:00007dac       __unwindtable$??2@YAPAXIABUnothrow_t@std@@@Z 10027dac     LIBCMT:new_scalar_nothrow.obj
 0002:00007dbc       __tryblocktable$??2@YAPAXIABUnothrow_t@std@@@Z 10027dbc     LIBCMT:new_scalar_nothrow.obj
 0002:00007dd0       __ehfuncinfo$??2@YAPAXIABUnothrow_t@std@@@Z 10027dd0     LIBCMT:new_scalar_nothrow.obj
 0002:00007df8       __sehtable$?dllmain_crt_process_attach@@YAHQAUHINSTANCE__@@QAX@Z 10027df8     LIBCMT:dll_dllmain.obj
 0002:00007e18       __sehtable$?dllmain_crt_process_detach@@YAH_N@Z 10027e18     LIBCMT:dll_dllmain.obj
 0002:00007e40       __sehtable$?dllmain_dispatch@@YAHQAUHINSTANCE__@@KQAX@Z 10027e40     LIBCMT:dll_dllmain.obj
 0002:00007ef0       __sehtable$___DestructExceptionObject 10027ef0     libvcruntime:ehhelpers.obj
 0002:00007f10       __sehtable$?FrameUnwindToState@__FrameHandler3@@SAXPAUEHRegistrationNode@@PAXPBU_s_FuncInfo@@H@Z 10027f10     libvcruntime:frame.obj
 0002:00007f38       __sehtable$?CallCatchBlock@@YAPAXPAUEHExceptionRecord@@PAUEHRegistrationNode@@PAU_CONTEXT@@PBU_s_FuncInfo@@PAXHK@Z 10027f38     libvcruntime:frame.obj
 0002:00007f60       __catchsym$?CallUnexpected@@YAXPBU_s_ESTypeList@@@Z$2 10027f60     libvcruntime:frame.obj
 0002:00007f70       __unwindtable$?CallUnexpected@@YAXPBU_s_ESTypeList@@@Z 10027f70     libvcruntime:frame.obj
 0002:00007f80       __tryblocktable$?CallUnexpected@@YAXPBU_s_ESTypeList@@@Z 10027f80     libvcruntime:frame.obj
 0002:00007f94       __ehfuncinfo$?CallUnexpected@@YAXPBU_s_ESTypeList@@@Z 10027f94     libvcruntime:frame.obj
 0002:00007fb8       __sehtable$??$BuildCatchObjectHelperInternal@V__FrameHandler3@@@@YAHPAUEHExceptionRecord@@PAXPBU_s_HandlerType@@PBU_s_CatchableType@@@Z 10027fb8     libvcruntime:frame.obj
 0002:00007fd8       __sehtable$??$BuildCatchObjectInternal@V__FrameHandler3@@@@YAXPAUEHExceptionRecord@@PAXPBU_s_HandlerType@@PBU_s_CatchableType@@@Z 10027fd8     libvcruntime:frame.obj
 0002:00008030       __sehtable$??R<lambda_6e4b09c48022b2350581041d5f6b0c4c>@@QBE@XZ 10028030     libucrt:exit.obj
 0002:00008050       __sehtable$??$?RV<lambda_03b1d95aef87969028cfba75ccab2455>@@AAV<lambda_6e4b09c48022b2350581041d5f6b0c4c>@@V<lambda_22bdf7517842c4b3e53723af5aa32b9e>@@@?$__crt_seh_guarded_call@X@@QAEX$$QAV<lambda_03b1d95aef87969028cfba75ccab2455>@@AAV<lambda_6e4b09c48022b2350581041d5f6b0c4c>@@$$QAV<lambda_22bdf7517842c4b3e53723af5aa32b9e>@@@Z 10028050     libucrt:exit.obj
 0002:00008070       __sehtable$??$?RV<lambda_8e746cf0007f6ed984d6f78af1fec997>@@AAV<lambda_22ebabd17bc4fa466a2aca6d8deb888d>@@V<lambda_18ed0c0b38a6dc0daf1e7ac6d6adf05e>@@@?$__crt_seh_guarded_call@H@@QAEH$$QAV<lambda_8e746cf0007f6ed984d6f78af1fec997>@@AAV<lambda_22ebabd17bc4fa466a2aca6d8deb888d>@@$$QAV<lambda_18ed0c0b38a6dc0daf1e7ac6d6adf05e>@@@Z 10028070     libucrt:onexit.obj
 0002:00008090       __sehtable$??$?RV<lambda_69a2805e680e0e292e8ba93315fe43a8>@@AAV<lambda_f03950bc5685219e0bcd2087efbe011e>@@V<lambda_03fcd07e894ec930e3f35da366ca99d6>@@@?$__crt_seh_guarded_call@H@@QAEH$$QAV<lambda_69a2805e680e0e292e8ba93315fe43a8>@@AAV<lambda_f03950bc5685219e0bcd2087efbe011e>@@$$QAV<lambda_03fcd07e894ec930e3f35da366ca99d6>@@@Z 10028090     libucrt:onexit.obj
 0002:000080b0       __sehtable$__query_new_handler 100280b0     libucrt:new_handler.obj
 0002:000080d0       __sehtable$_terminate      100280d0     libucrt:terminate.obj
 0002:000080f0       __sehtable$??$?RV<lambda_15ade71b0218206bbe3333a0c9b79046>@@AAV<lambda_da44e0f8b0f19ba52fefafb335991732>@@V<lambda_207f2d024fc103971653565357d6cd41>@@@?$__crt_seh_guarded_call@X@@QAEX$$QAV<lambda_15ade71b0218206bbe3333a0c9b79046>@@AAV<lambda_da44e0f8b0f19ba52fefafb335991732>@@$$QAV<lambda_207f2d024fc103971653565357d6cd41>@@@Z 100280f0     libucrt:per_thread_data.obj
 0002:00008110       __sehtable$??$?RV<lambda_a7e850c220f1c8d1e6efeecdedd162c6>@@AAV<lambda_46720907175c18b6c9d2717bc0d2d362>@@V<lambda_9048902d66e8d99359bc9897bbb930a8>@@@?$__crt_seh_guarded_call@X@@QAEX$$QAV<lambda_a7e850c220f1c8d1e6efeecdedd162c6>@@AAV<lambda_46720907175c18b6c9d2717bc0d2d362>@@$$QAV<lambda_9048902d66e8d99359bc9897bbb930a8>@@@Z 10028110     libucrt:per_thread_data.obj
 0002:00008130       __sehtable$??$?RV<lambda_38edbb1296d33220d7e4dd0ed76b244a>@@AAV<lambda_5ce1d447e08cb34b2473517608e21441>@@V<lambda_fb385d3da700c9147fc39e65dd577a8c>@@@?$__crt_seh_guarded_call@X@@QAEX$$QAV<lambda_38edbb1296d33220d7e4dd0ed76b244a>@@AAV<lambda_5ce1d447e08cb34b2473517608e21441>@@$$QAV<lambda_fb385d3da700c9147fc39e65dd577a8c>@@@Z 10028130     libucrt:per_thread_data.obj
 0002:00008150       __sehtable$??$?RV<lambda_6affb1475c98b40b75cdec977db92e3c>@@AAV<lambda_b8d4b9c228a6ecc3f80208dbb4b4a104>@@V<lambda_608742c3c92a14382c1684fc64f96c88>@@@?$__crt_seh_guarded_call@X@@QAEX$$QAV<lambda_6affb1475c98b40b75cdec977db92e3c>@@AAV<lambda_b8d4b9c228a6ecc3f80208dbb4b4a104>@@$$QAV<lambda_608742c3c92a14382c1684fc64f96c88>@@@Z 10028150     libucrt:per_thread_data.obj
 0002:00008170       __sehtable$??$?RV<lambda_e5124f882df8998aaf41531e079ba474>@@AAV<lambda_3e16ef9562a7dcce91392c22ab16ea36>@@V<lambda_e25ca0880e6ef98be67edffd8c599615>@@@?$__crt_seh_guarded_call@X@@QAEX$$QAV<lambda_e5124f882df8998aaf41531e079ba474>@@AAV<lambda_3e16ef9562a7dcce91392c22ab16ea36>@@$$QAV<lambda_e25ca0880e6ef98be67edffd8c599615>@@@Z 10028170     libucrt:wsetlocale.obj
 0002:00008190       __sehtable$___acrt_initialize_lowio 10028190     libucrt:ioinit.obj
 0002:000081b0       __sehtable$?update_thread_multibyte_data_internal@@YAPAU__crt_multibyte_data@@QAU__acrt_ptd@@QAPAU1@@Z 100281b0     libucrt:mbctype.obj
 0002:000081d0       __sehtable$??$?RV<lambda_ceb1ee4838e85a9d631eb091e2fbe199>@@AAV<lambda_ae742caa10f662c28703da3d2ea5e57e>@@V<lambda_cd08b5d6af4937fe54fc07d0c9bf6b37>@@@?$__crt_seh_guarded_call@X@@QAEX$$QAV<lambda_ceb1ee4838e85a9d631eb091e2fbe199>@@AAV<lambda_ae742caa10f662c28703da3d2ea5e57e>@@$$QAV<lambda_cd08b5d6af4937fe54fc07d0c9bf6b37>@@@Z 100281d0     libucrt:mbctype.obj
 0002:000081f0       __sehtable$_raise          100281f0     libucrt:signal.obj
 0002:00008210       __sehtable$??$?RV<lambda_cbab9ec6f41b0180b23cc171c22676b0>@@AAV<lambda_44731a7d0e6d81c3e6aa82d741081786>@@V<lambda_4b292cb8dd18144e164572427af410ab>@@@?$__crt_seh_guarded_call@P6AXH@Z@@QAEP6AXH@Z$$QAV<lambda_cbab9ec6f41b0180b23cc171c22676b0>@@AAV<lambda_44731a7d0e6d81c3e6aa82d741081786>@@$$QAV<lambda_4b292cb8dd18144e164572427af410ab>@@@Z 10028210     libucrt:signal.obj
 0002:00008230       __sehtable$??$?RV<lambda_2866be3712abc81a800a822484c830d8>@@AAV<lambda_39ca0ed439415581b5b15c265174cece>@@V<lambda_2b24c74d71094a6cd0cb82e44167d71b>@@@?$__crt_seh_guarded_call@X@@QAEX$$QAV<lambda_2866be3712abc81a800a822484c830d8>@@AAV<lambda_39ca0ed439415581b5b15c265174cece>@@$$QAV<lambda_2b24c74d71094a6cd0cb82e44167d71b>@@@Z 10028230     libucrt:fflush.obj
 0002:00008250       __sehtable$??$?RV<lambda_2cc53f568c5a2bb6f192f930a45d44ea>@@AAV<lambda_ab61a845afdef5b7c387490eaf3616ee>@@V<lambda_c2ffc0b7726aa6be21d5f0026187e748>@@@?$__crt_seh_guarded_call@X@@QAEX$$QAV<lambda_2cc53f568c5a2bb6f192f930a45d44ea>@@AAV<lambda_ab61a845afdef5b7c387490eaf3616ee>@@$$QAV<lambda_c2ffc0b7726aa6be21d5f0026187e748>@@@Z 10028250     libucrt:fflush.obj
 0002:00008270       __sehtable$___acrt_update_thread_locale_data 10028270     libucrt:locale_refcounting.obj
 0002:00008290       __sehtable$__fcloseall     10028290     libucrt:closeall.obj
 0002:000082b0       __sehtable$___acrt_lowio_ensure_fh_exists 100282b0     libucrt:osfinfo.obj
 0002:000082d0       __sehtable$??$?RV<lambda_9e9de3de5fa147e2223d7db92bc10aa6>@@AAV<lambda_38ce7e780aa69e748d6df282ebc68efe>@@V<lambda_8ca6da459f0f6780f1cff60fdc3d00e5>@@@?$__crt_seh_guarded_call@H@@QAEH$$QAV<lambda_9e9de3de5fa147e2223d7db92bc10aa6>@@AAV<lambda_38ce7e780aa69e748d6df282ebc68efe>@@$$QAV<lambda_8ca6da459f0f6780f1cff60fdc3d00e5>@@@Z 100282d0     libucrt:commit.obj
 0002:000082f0       __sehtable$__write         100282f0     libucrt:write.obj
 0002:00008310       __sehtable$_fclose         10028310     libucrt:fclose.obj
 0002:00008330       __sehtable$??$?RV<lambda_218ce3db14220d0be481dae8ef3383b6>@@AAV<lambda_628dfdc04ba53c8bfc02c9951375f3f5>@@V<lambda_57dc472bd5c9d5f3b2cbca59b8a843ae>@@@?$__crt_seh_guarded_call@H@@QAEH$$QAV<lambda_218ce3db14220d0be481dae8ef3383b6>@@AAV<lambda_628dfdc04ba53c8bfc02c9951375f3f5>@@$$QAV<lambda_57dc472bd5c9d5f3b2cbca59b8a843ae>@@@Z 10028330     libucrt:close.obj
 0002:00008350       __sehtable$___set_fpsr_sse2 10028350     libucrt:fpctrl.obj
 0002:00008370       __sehtable$__IsNonwritableInCurrentImage 10028370     LIBCMT:pesect.obj
 0002:000083a0       .edata                     100283a0     OPOSCAT.exp
 0002:000083c8       rgpv                       100283c8     OPOSCAT.exp
 0002:000083d8       rgszName                   100283d8     OPOSCAT.exp
 0002:000083e8       rgwOrd                     100283e8     OPOSCAT.exp
 0002:000083f0       szName                     100283f0     OPOSCAT.exp
 0002:000083fc       $N00001                    100283fc     OPOSCAT.exp
 0002:0000840c       $N00002                    1002840c     OPOSCAT.exp
 0002:0000841e       $N00003                    1002841e     OPOSCAT.exp
 0002:00008430       $N00004                    10028430     OPOSCAT.exp
 0002:00008a3e       .idata$6                   10028a3e     kernel32:KERNEL32.dll
 0002:00008c52       .idata$6                   10028c52     user32:USER32.dll
 0002:00008d86       .idata$6                   10028d86     gdi32:GDI32.dll
 0002:00008e2c       .idata$6                   10028e2c     advapi32:ADVAPI32.dll
 0002:00008f48       .idata$6                   10028f48     ole32:ole32.dll
 0002:00008f52       .idata$6                   10028f52     oleaut32:OLEAUT32.dll
 0003:00000110       ?ObjectMap@@3PAU_ATL_OBJMAP_ENTRY30@ATL@@A 1002a110     CAT.obj
 0003:000001b8       ?s_SOMethodNames@@3PAPADA  1002a1b8     CATImpl.obj
 0003:00000234       ?s_RequiredMethodsPerRelease@@3PAHA 1002a234     CATImpl.obj
 0003:00000270       ?__vcrt_flsindex@@3KA      1002a270     libvcruntime:per_thread_data.obj
 0003:00000290       ?errno_no_memory@@3HA      1002a290     libucrt:errno.obj
 0003:00000294       ?doserrno_no_memory@@3KA   1002a294     libucrt:errno.obj
 0003:000002a0       ?__acrt_flsindex@@3KA      1002a2a0     libucrt:per_thread_data.obj
 0003:00000638       __mbctypes                 1002a638     libucrt:mbctype.obj
 0003:00000740       __mbcasemaps               1002a740     libucrt:mbctype.obj
 0003:00000840       ?__rgctypeflag@@3PADA      1002a840     libucrt:mbctype.obj
 0003:00000848       ?__rgcode_page_info@@3PAUcode_page_info@@A 1002a848     libucrt:mbctype.obj
 0003:00000aa0       ?__dcrt_lowio_console_output_handle@@3PAXA 1002aaa0     libucrt:initcon.obj
 0003:00000aa4       ?__DAZ_ENABLED@?1??__set_fpsr_sse2@@9@9 1002aaa4     libucrt:fpctrl.obj
 0003:00000c38       ?is_initialized_as_dll@@3_NA 1002ac38     LIBCMT:utility.obj
 0003:00000c39       ?module_local_atexit_table_initialized@@3_NA 1002ac39     LIBCMT:utility.obj
 0003:00000c3c       ?module_local_atexit_table@@3U_onexit_table_t@@A 1002ac3c     LIBCMT:utility.obj
 0003:00000c48       ?module_local_at_quick_exit_table@@3U_onexit_table_t@@A 1002ac48     LIBCMT:utility.obj
 0003:00000c54       ?g_tss_cv@@3U_RTL_CONDITION_VARIABLE@@A 1002ac54     LIBCMT:thread_safe_statics.obj
 0003:00000c58       ?g_tss_event@@3PAXA        1002ac58     LIBCMT:thread_safe_statics.obj
 0003:00000c5c       ?g_tss_mutex@@3U_RTL_CRITICAL_SECTION@@A 1002ac5c     LIBCMT:thread_safe_statics.obj
 0003:00000c74       ?g_sleep_condition_variable_cs@@3P6GHPAU_RTL_CONDITION_VARIABLE@@PAU_RTL_CRITICAL_SECTION@@K@ZA 1002ac74     LIBCMT:thread_safe_statics.obj
 0003:00000c78       ?g_wake_all_condition_variable@@3P6GXPAU_RTL_CONDITION_VARIABLE@@@ZA 1002ac78     LIBCMT:thread_safe_statics.obj
 0003:00000c80       _GS_ExceptionRecord        1002ac80     LIBCMT:gs_report.obj
 0003:00000cd0       _GS_ContextRecord          1002acd0     LIBCMT:gs_report.obj
 0003:00000fa0       ?__proc_attached@@3HA      1002afa0     LIBCMT:dll_dllmain.obj
 0003:00001004       ?AllocateData@@3P6GPAUAtlThunkData_t@@XZA 1002b004     atls:atlthunk.obj
 0003:00001008       ?InitData@@3P6GXPAUAtlThunkData_t@@PAXI@ZA 1002b008     atls:atlthunk.obj
 0003:0000100c       ?DataToCode@@3P6GP6GJPAUHWND__@@IIJ@ZPAUAtlThunkData_t@@@ZA 1002b00c     atls:atlthunk.obj
 0003:00001010       ?FreeData@@3P6GXPAUAtlThunkData_t@@@ZA 1002b010     atls:atlthunk.obj
 0003:00001014       ?Initialized@@3_NA         1002b014     atls:atlthunk.obj
 0003:00001024       ?__vcrt_startup_thread_ptd@@3U__vcrt_ptd@@A 1002b024     libvcruntime:per_thread_data.obj
 0003:0000104c       ___vcrt_lock_table         1002b04c     libvcruntime:locks.obj
 0003:00001064       ___vcrt_locks_initialized  1002b064     libvcruntime:locks.obj
 0003:00001090       ?heap@@3V_HeapManager@@A   1002b090     libvcruntime:undname.obj
 0003:000010a4       ?module_handles@@3PAPAUHINSTANCE__@@A 1002b0a4     libvcruntime:winapi_downlevel.obj
 0003:000010b0       ?function_pointers@@3PAPAXA 1002b0b0     libvcruntime:winapi_downlevel.obj
 0003:000010c4       ?__acrt_invalid_parameter_handler@@3V?$dual_state_global@P6AXPB_W00II@Z@__crt_state_management@@A 1002b0c4     libucrt:invalid_parameter.obj
 0003:000010c8       ?c_termination_complete@@3JA 1002b0c8     libucrt:exit.obj
 0003:000010cc       ?thread_local_exit_callback_func@@3P6GXPAXK0@ZA 1002b0cc     libucrt:exit.obj
 0003:000010d8       ?program_name@?1???$common_configure_argv@D@@YAHW4_crt_argv_mode@@@Z@4PADA 1002b0d8     libucrt:argv_parsing.obj
 0003:00001208       ?__acrt_new_handler@@3V?$dual_state_global@P6AHI@Z@__crt_state_management@@A 1002b208     libucrt:new_handler.obj
 0003:00001210       ?module_handles@@3PAPAUHINSTANCE__@@A 1002b210     libucrt:winapi_thunks.obj
 0003:00001260       ?encoded_function_pointers@@3PAPAXA 1002b260     libucrt:winapi_thunks.obj
 0003:000012e8       ?internal_state@?1??_mbtowc_l@@9@4U_Mbstatet@@A 1002b2e8     libucrt:mbtowc.obj
 0003:000012f8       ?enable_percent_n@@3IA     1002b2f8     libucrt:printf_count_output.obj
 0003:00001518       ?__acrt_lock_table@@3PAU_RTL_CRITICAL_SECTION@@A 1002b518     libucrt:locks.obj
 0003:00001668       ?__acrt_locks_initialized@@3IA 1002b668     libucrt:locks.obj
 0003:00001678       ?fSystemSet@@3HA           1002b678     libucrt:mbctype.obj
 0003:0000167c       ?initialized@?1??__acrt_initialize_multibyte@@9@4_NA 1002b67c     libucrt:mbctype.obj
 0003:0000169c       ?ctrlc_action@@3V?$dual_state_global@P6AXH@Z@__crt_state_management@@A 1002b69c     libucrt:signal.obj
 0003:000016a0       ?ctrlbreak_action@@3V?$dual_state_global@P6AXH@Z@__crt_state_management@@A 1002b6a0     libucrt:signal.obj
 0003:000016a4       ?abort_action@@3V?$dual_state_global@P6AXH@Z@__crt_state_management@@A 1002b6a4     libucrt:signal.obj
 0003:000016a8       ?term_action@@3V?$dual_state_global@P6AXH@Z@__crt_state_management@@A 1002b6a8     libucrt:signal.obj
 0003:000016ac       ?user_matherr@@3V?$dual_state_global@P6AHPAU_exception@@@Z@__crt_state_management@@A 1002b6ac     libucrt:matherr.obj
 0003:000016b0       ?__acrt_global_new_mode@@3V?$dual_state_global@J@__crt_state_management@@A 1002b6b0     libucrt:new_mode.obj
 0003:000016bc       ?internal_pst@?1??__mbrtoc32_utf8@__crt_mbstring@@YAIPA_UPBDIPAU_Mbstatet@@@Z@4U3@A 1002b6bc     libucrt:mbrtoc32.obj
 0003:000016c4       ?__acrt_app_type@@3W4_crt_app_type@@A 1002b6c4     libucrt:report_runtime_error.obj
 0003:000016cc       __pmatherr_set             1002b6cc     libucrt:libm_error.obj
 0004:00000220       $R000000                   1002c220     CAT.res
 0004:00000b90       $R000970                   1002cb90     CAT.res
 0004:00000c78       $R000A58                   1002cc78     CAT.res
 0004:00000ee0       $R000CC0                   1002cee0     CAT.res
 0004:00001410       $R0011F0                   1002d410     CAT.res
 0004:00005248       $R005028                   10031248     CAT.res
 0004:00005270       $R005050                   10031270     CAT.res
