 OPOSBiometrics

 Timestamp is 5b863c8c (Wed Aug 29 15:26:20 2018)

 Preferred load address is 10000000

 Start         Length     Name                   Class
 0001:00000000 00000080H .text$di                CODE
 0001:00000080 0001d7cbH .text$mn                CODE
 0001:0001d84b 00000051H .text$x                 CODE
 0001:0001d89c 00000042H .text$yd                CODE
 0002:00000000 00000300H .idata$5                DATA
 0002:00000300 00000004H .00cfg                  DATA
 0002:00000304 00000004H .CRT$XCA                DATA
 0002:00000308 00000004H .CRT$XCL                DATA
 0002:0000030c 00000010H .CRT$XCU                DATA
 0002:0000031c 00000004H .CRT$XCZ                DATA
 0002:00000320 00000004H .CRT$XIA                DATA
 0002:00000324 00000010H .CRT$XIC                DATA
 0002:00000334 00000004H .CRT$XIZ                DATA
 0002:00000338 00000004H .CRT$XLA                DATA
 0002:0000033c 00000004H .CRT$XLZ                DATA
 0002:00000340 00000004H .CRT$XPA                DATA
 0002:00000344 00000008H .CRT$XPX                DATA
 0002:0000034c 00000004H .CRT$XPXA               DATA
 0002:00000350 00000004H .CRT$XPZ                DATA
 0002:00000354 00000004H .CRT$XTA                DATA
 0002:00000358 00000008H .CRT$XTZ                DATA
 0002:0000035c 00000000H .gfids$y                DATA
 0002:00000360 00006e28H .rdata                  DATA
 0002:00007188 00000018H .rdata$T                DATA
 0002:000071a0 00000180H .rdata$r                DATA
 0002:00007320 00000020H .rdata$sxdata           DATA
 0002:00007340 000003e0H .rdata$zzzdbg           DATA
 0002:00007720 00000004H .rtc$IAA                DATA
 0002:00007724 00000004H .rtc$IZZ                DATA
 0002:00007728 00000004H .rtc$TAA                DATA
 0002:0000772c 00000004H .rtc$TZZ                DATA
 0002:00007730 00000004H .tls                    DATA
 0002:00007734 00000004H .tls$                   DATA
 0002:00007738 00000008H .tls$ZZZ                DATA
 0002:00007740 00000624H .xdata$x                DATA
 0002:00007d64 00000004H ATL$__a                 DATA
 0002:00007d68 00000008H ATL$__z                 DATA
 0002:00007d70 000000acH .edata                  DATA
 0002:00007e1c 00000078H .idata$2                DATA
 0002:00007e94 00000014H .idata$3                DATA
 0002:00007ea8 00000300H .idata$4                DATA
 0002:000081a8 00000bc0H .idata$6                DATA
 0003:00000000 00000990H .data                   DATA
 0003:00000990 00000098H .data$r                 DATA
 0003:00000a28 00000b68H .bss                    DATA
 0004:00000000 00000220H .rsrc$01                DATA
 0004:00000220 00004830H .rsrc$02                DATA

  Address         Publics by Value              Rva+Base       Lib:Object

 0000:00000000       ___guard_iat_count         00000000     <absolute>
 0000:00000000       ___dynamic_value_reloc_table 00000000     <absolute>
 0000:00000000       ___guard_longjmp_table     00000000     <absolute>
 0000:00000000       ___guard_longjmp_count     00000000     <absolute>
 0000:00000000       ___hybrid_code_map_count   00000000     <absolute>
 0000:00000000       __except_list              00000000     <absolute>
 0000:00000000       ___guard_fids_table        00000000     <absolute>
 0000:00000000       ___hybrid_auxiliary_iat    00000000     <absolute>
 0000:00000000       ___guard_fids_count        00000000     <absolute>
 0000:00000000       ___guard_iat_table         00000000     <absolute>
 0000:00000000       ___volatile_metadata       00000000     <absolute>
 0000:00000000       ___enclave_config          00000000     <absolute>
 0000:00000000       ___hybrid_code_map         00000000     <absolute>
 0000:00000008       ___safe_se_handler_count   00000008     <absolute>
 0000:0000002c       __tls_array                0000002c     <absolute>
 0000:00000100       ___guard_flags             00000100     <absolute>
 0000:00000000       ___ImageBase               10000000     <linker-defined>
 0001:00000080       ?DupWide@_CW@@AAEXXZ       10001080 f   CWString.obj
 0001:0000009c       ?cw_dup@@YGXPBDAAHAAPA_W1@Z 1000109c f   CWString.obj
 0001:0000010b       ?cw_memcpy@@YGHPA_WPBDH@Z  1000110b f   CWString.obj
 0001:00000137       ?cw_strcpy@@YAHPA_WPBD@Z   10001137 f   CWString.obj
 0001:0000014a       ?cw_strlen@@YAHPBD@Z       1000114a f   CWString.obj
 0001:00000163       ??0CAtlComModule@ATL@@QAE@XZ 10001163 f i OposVariant.obj
 0001:000001a8       ??0CAtlWinModule@ATL@@QAE@XZ 100011a8 f i OposVariant.obj
 0001:000001df       ??0OposDispParms@@QAE@PAVOposVariant@@H@Z 100011df f   OposVariant.obj
 0001:00000250       ??1OposDispParms@@QAE@XZ   10001250 f   OposVariant.obj
 0001:0000025e       ??A?$CSimpleArray@GV?$CSimpleArrayEqualHelper@G@ATL@@@ATL@@QAEAAGH@Z 1000125e f i OposVariant.obj
 0001:00000283       ??_Estringdispid@CComTypeInfoHolder@ATL@@QAEPAXI@Z 10001283 f i OposVariant.obj
 0001:000002ef       ?AtlWinModuleInit@ATL@@YGJPAU_ATL_WIN_MODULE70@1@@Z 100012ef f i OposVariant.obj
 0001:00000315       ?AtlWinModuleTerm@ATL@@YGJPAU_ATL_WIN_MODULE70@1@PAUHINSTANCE__@@@Z 10001315 f i OposVariant.obj
 0001:00000378       ?ChangeBSTR@OposVariant@@QAEXPAPA_WAAJ@Z 10001378 f   OposVariant.obj
 0001:000003b9       ?ChangeLONG@OposVariant@@QAEXPAJAAJ@Z 100013b9 f   OposVariant.obj
 0001:000003fa       ?GetLONG@OposVariant@@QAEJXZ 100013fa f   OposVariant.obj
 0001:00000415       ?Init@CComCriticalSection@ATL@@QAEJXZ 10001415 f i OposVariant.obj
 0001:0000043c       ?RemoveAll@?$CSimpleArray@GV?$CSimpleArrayEqualHelper@G@ATL@@@ATL@@QAEXXZ 1000143c f i OposVariant.obj
 0001:0000043c       ?RemoveAll@?$CSimpleArray@PAUHINSTANCE__@@V?$CSimpleArrayEqualHelper@PAUHINSTANCE__@@@ATL@@@ATL@@QAEXXZ 1000143c f i atls:atlbase.obj
 0001:00000459       ?SetBSTR@OposVariant@@QAEXPA_WAAJ@Z 10001459 f   OposVariant.obj
 0001:0000048d       ?SetBSTR_Copy@OposVariant@@QAEXPA_WAAJ@Z 1000148d f   OposVariant.obj
 0001:000004dd       ?SetBSTR_InOutPtr@OposVariant@@QAE_NPAPA_WAAJ@Z 100014dd f   OposVariant.obj
 0001:00000514       ?SetDispatch_Ptr@OposVariant@@QAEXPAUIDispatch@@AAJ@Z 10001514 f   OposVariant.obj
 0001:0000054f       ?SetLONG@OposVariant@@QAEXJ@Z 1000154f f   OposVariant.obj
 0001:00000571       ?SetLONG_Ptr@OposVariant@@QAEXPAJAAJ@Z 10001571 f   OposVariant.obj
 0001:000005a4       ?SetString@OposVariant@@QAEXPB_WAAJ@Z 100015a4 f   OposVariant.obj
 0001:000005ea       ?SetVARIANT@OposVariant@@QAEXAAUtagVARIANT@@GAAJ@Z 100015ea f   OposVariant.obj
 0001:00000631       ?SetVARIANT_BOOL@OposVariant@@QAEXF@Z 10001631 f   OposVariant.obj
 0001:0000065b       ?SetVARIANT_BOOL_Ptr@OposVariant@@QAEXPAFAAJ@Z 1000165b f   OposVariant.obj
 0001:0000068e       ?SetVARIANT_Ptr@OposVariant@@QAEXAAPAUtagVARIANT@@GAAJ@Z 1000168e f   OposVariant.obj
 0001:000006dc       ?Term@CAtlComModule@ATL@@QAEXXZ 100016dc f i OposVariant.obj
 0001:00000726       ?_AtlRaiseException@ATL@@YAXKK@Z 10001726 f i OposVariant.obj
 0001:0000073b       ?GetWindow@?$IOleInPlaceActiveObjectImpl@VCOPOSBiometrics@@@ATL@@UAGJPAPAUHWND__@@@Z 1000173b f i Biometrics.obj
 0001:00000788       ?ContextSensitiveHelp@?$IOleInPlaceActiveObjectImpl@VCOPOSBiometrics@@@ATL@@UAGJH@Z 10001788 f i Biometrics.obj
 0001:00000788       ?Unfreeze@?$IViewObjectExImpl@VCOPOSBiometrics@@@ATL@@UAGJK@Z 10001788 f i Biometrics.obj
 0001:00000788       ?GetControlInfo@?$IOleControlImpl@VCOPOSBiometrics@@@ATL@@UAGJPAUtagCONTROLINFO@@@Z 10001788 f i Biometrics.obj
 0001:00000788       ?ContextSensitiveHelp@?$IOleInPlaceObjectWindowlessImpl@VCOPOSBiometrics@@@ATL@@UAGJH@Z 10001788 f i Biometrics.obj
 0001:00000788       ?GetDropTarget@?$IOleInPlaceObjectWindowlessImpl@VCOPOSBiometrics@@@ATL@@UAGJPAPAUIDropTarget@@@Z 10001788 f i Biometrics.obj
 0001:00000788       ?OnMnemonic@?$IOleControlImpl@VCOPOSBiometrics@@@ATL@@UAGJPAUtagMSG@@@Z 10001788 f i Biometrics.obj
 0001:00000788       ?SetColorScheme@?$IOleObjectImpl@VCOPOSBiometrics@@@ATL@@UAGJPAUtagLOGPALETTE@@@Z 10001788 f i Biometrics.obj
 0001:00000788       ?SOOutputCompleteDummy@COPOSBiometrics@@MAGJJ@Z 10001788 f i Biometrics.obj
 0001:00000788       ?QueryGetData@?$IDataObjectImpl@VCOPOSBiometrics@@@ATL@@UAGJPAUtagFORMATETC@@@Z 10001788 f i Biometrics.obj
 0001:00000790       ?TranslateAcceleratorW@?$IOleInPlaceActiveObjectImpl@VCOPOSBiometrics@@@ATL@@UAGJPAUtagMSG@@@Z 10001790 f i Biometrics.obj
 0001:0000082e       ?EnableModeless@?$IOleInPlaceActiveObjectImpl@VCOPOSBiometrics@@@ATL@@UAGJH@Z 1000182e f i Biometrics.obj
 0001:0000082e       ?OnAmbientPropertyChange@?$IOleControlImpl@VCOPOSBiometrics@@@ATL@@UAGJJ@Z 1000182e f i Biometrics.obj
 0001:0000082e       ?OnFrameWindowActivate@?$IOleInPlaceActiveObjectImpl@VCOPOSBiometrics@@@ATL@@UAGJH@Z 1000182e f i Biometrics.obj
 0001:0000082e       ?SaveCompleted@?$IPersistStorageImpl@VCOPOSBiometrics@@@ATL@@UAGJPAUIStorage@@@Z 1000182e f i Biometrics.obj
 0001:00000833       ?OnDocWindowActivate@?$IOleInPlaceActiveObjectImpl@VCOPOSBiometrics@@@ATL@@UAGJH@Z 10001833 f i Biometrics.obj
 0001:00000855       ?ResizeBorder@?$IOleInPlaceActiveObjectImpl@VCOPOSBiometrics@@@ATL@@UAGJPBUtagRECT@@PAUIOleInPlaceUIWindow@@H@Z 10001855 f i Biometrics.obj
 0001:0000085a       ?Draw@?$IViewObjectExImpl@VCOPOSBiometrics@@@ATL@@UAGJKJPAXPAUtagDVTARGETDEVICE@@PAUHDC__@@2PBU_RECTL@@3P6GHK@ZK@Z 1000185a f i Biometrics.obj
 0001:0000088c       ?GetColorSet@?$IViewObjectExImpl@VCOPOSBiometrics@@@ATL@@UAGJKJPAXPAUtagDVTARGETDEVICE@@PAUHDC__@@PAPAUtagLOGPALETTE@@@Z 1000188c f i Biometrics.obj
 0001:00000894       ?Freeze@?$IViewObjectExImpl@VCOPOSBiometrics@@@ATL@@UAGJKJPAXPAK@Z 10001894 f i Biometrics.obj
 0001:0000089c       ?SetAdvise@?$IViewObjectExImpl@VCOPOSBiometrics@@@ATL@@UAGJKKPAUIAdviseSink@@@Z 1000189c f i Biometrics.obj
 0001:000008bb       ?GetAdvise@?$IViewObjectExImpl@VCOPOSBiometrics@@@ATL@@UAGJPAK0PAPAUIAdviseSink@@@Z 100018bb f i Biometrics.obj
 0001:000008f0       ?GetExtent@?$IViewObjectExImpl@VCOPOSBiometrics@@@ATL@@UAGJKJPAUtagDVTARGETDEVICE@@PAUtagSIZE@@@Z 100018f0 f i Biometrics.obj
 0001:00000921       ?GetRect@?$IViewObjectExImpl@VCOPOSBiometrics@@@ATL@@UAGJKPAU_RECTL@@@Z 10001921 f i Biometrics.obj
 0001:00000921       ?QueryInterface@CRegObject@ATL@@UAGJABU_GUID@@PAPAX@Z 10001921 f i Biometrics.obj
 0001:00000921       ?GetDataHere@?$IDataObjectImpl@VCOPOSBiometrics@@@ATL@@UAGJPAUtagFORMATETC@@PAUtagSTGMEDIUM@@@Z 10001921 f i Biometrics.obj
 0001:00000921       ?GetCanonicalFormatEtc@?$IDataObjectImpl@VCOPOSBiometrics@@@ATL@@UAGJPAUtagFORMATETC@@0@Z 10001921 f i Biometrics.obj
 0001:00000921       ?SetMoniker@?$IOleObjectImpl@VCOPOSBiometrics@@@ATL@@UAGJKPAUIMoniker@@@Z 10001921 f i Biometrics.obj
 0001:00000921       ?EnumFormatEtc@?$IDataObjectImpl@VCOPOSBiometrics@@@ATL@@UAGJKPAPAUIEnumFORMATETC@@@Z 10001921 f i Biometrics.obj
 0001:00000921       ?GetClipboardData@?$IOleObjectImpl@VCOPOSBiometrics@@@ATL@@UAGJKPAPAUIDataObject@@@Z 10001921 f i Biometrics.obj
 0001:00000929       ?GetViewStatus@?$IViewObjectExImpl@VCOPOSBiometrics@@@ATL@@UAGJPAK@Z 10001929 f i Biometrics.obj
 0001:00000946       ?QueryHitPoint@?$IViewObjectExImpl@VCOPOSBiometrics@@@ATL@@UAGJKPBUtagRECT@@UtagPOINT@@JPAK@Z 10001946 f i Biometrics.obj
 0001:00000987       ?QueryHitRect@?$IViewObjectExImpl@VCOPOSBiometrics@@@ATL@@UAGJKPBUtagRECT@@0JPAK@Z 10001987 f i Biometrics.obj
 0001:000009e2       ?GetNaturalExtent@?$IViewObjectExImpl@VCOPOSBiometrics@@@ATL@@UAGJKJPAUtagDVTARGETDEVICE@@PAUHDC__@@PAUtagExtentInfo@@PAUtagSIZE@@@Z 100019e2 f i Biometrics.obj
 0001:00000a2d       ?GetWindow@?$IOleInPlaceObjectWindowlessImpl@VCOPOSBiometrics@@@ATL@@UAGJPAPAUHWND__@@@Z 10001a2d f i Biometrics.obj
 0001:00000a7a       ?InPlaceDeactivate@?$IOleInPlaceObjectWindowlessImpl@VCOPOSBiometrics@@@ATL@@UAGJXZ 10001a7a f i Biometrics.obj
 0001:00000a94       ?UIDeactivate@?$IOleInPlaceObjectWindowlessImpl@VCOPOSBiometrics@@@ATL@@UAGJXZ 10001a94 f i Biometrics.obj
 0001:00000aae       ?SetObjectRects@?$IOleInPlaceObjectWindowlessImpl@VCOPOSBiometrics@@@ATL@@UAGJPBUtagRECT@@0@Z 10001aae f i Biometrics.obj
 0001:00000ace       ?ReactivateAndUndo@?$IOleInPlaceObjectWindowlessImpl@VCOPOSBiometrics@@@ATL@@UAGJXZ 10001ace f i Biometrics.obj
 0001:00000ad6       ?OnWindowMessage@?$IOleInPlaceObjectWindowlessImpl@VCOPOSBiometrics@@@ATL@@UAGJIIJPAJ@Z 10001ad6 f i Biometrics.obj
 0001:00000b46       ?EnumConnectionPoints@?$IConnectionPointContainerImpl@VCOPOSBiometrics@@@ATL@@UAGJPAPAUIEnumConnectionPoints@@@Z 10001b46 f i Biometrics.obj
 0001:00000cc0       ?FindConnectionPoint@?$IConnectionPointContainerImpl@VCOPOSBiometrics@@@ATL@@UAGJABU_GUID@@PAPAUIConnectionPoint@@@Z 10001cc0 f i Biometrics.obj
 0001:00000d63       ?GetUserClassID@?$IOleObjectImpl@VCOPOSBiometrics@@@ATL@@UAGJPAU_GUID@@@Z 10001d63 f i Biometrics.obj
 0001:00000d63       ?GetClassID@?$IPersistStorageImpl@VCOPOSBiometrics@@@ATL@@UAGJPAU_GUID@@@Z 10001d63 f i Biometrics.obj
 0001:00000d63       ?GetClassID@?$IPersistStreamInitImpl@VCOPOSBiometrics@@@ATL@@UAGJPAU_GUID@@@Z 10001d63 f i Biometrics.obj
 0001:00000d87       ?IsDirty@?$IPersistStorageImpl@VCOPOSBiometrics@@@ATL@@UAGJXZ 10001d87 f i Biometrics.obj
 0001:00000dbb       ?InitNew@?$IPersistStorageImpl@VCOPOSBiometrics@@@ATL@@UAGJPAUIStorage@@@Z 10001dbb f i Biometrics.obj
 0001:00000def       ?Load@?$IPersistStorageImpl@VCOPOSBiometrics@@@ATL@@UAGJPAUIStorage@@@Z 10001def f i Biometrics.obj
 0001:00000e5b       ?Save@?$IPersistStorageImpl@VCOPOSBiometrics@@@ATL@@UAGJPAUIStorage@@H@Z 10001e5b f i Biometrics.obj
 0001:00000ece       ?Release@CRegObject@ATL@@UAGKXZ 10001ece f i Biometrics.obj
 0001:00000ece       ?Update@?$IOleObjectImpl@VCOPOSBiometrics@@@ATL@@UAGJXZ 10001ece f i Biometrics.obj
 0001:00000ece       ?HandsOffStorage@?$IPersistStorageImpl@VCOPOSBiometrics@@@ATL@@UAGJXZ 10001ece f i Biometrics.obj
 0001:00000ece       ?IsUpToDate@?$IOleObjectImpl@VCOPOSBiometrics@@@ATL@@UAGJXZ 10001ece f i Biometrics.obj
 0001:00000ed3       ?GetPages@?$ISpecifyPropertyPagesImpl@VCOPOSBiometrics@@@ATL@@UAGJPAUtagCAUUID@@@Z 10001ed3 f i Biometrics.obj
 0001:00000eea       ?QuickActivate@?$IQuickActivateImpl@VCOPOSBiometrics@@@ATL@@UAGJPAUtagQACONTAINER@@PAUtagQACONTROL@@@Z 10001eea f i Biometrics.obj
 0001:00000f0d       ?SetContentExtent@?$IQuickActivateImpl@VCOPOSBiometrics@@@ATL@@UAGJPAUtagSIZE@@@Z 10001f0d f i Biometrics.obj
 0001:00000f39       ?GetContentExtent@?$IQuickActivateImpl@VCOPOSBiometrics@@@ATL@@UAGJPAUtagSIZE@@@Z 10001f39 f i Biometrics.obj
 0001:00000f59       ?GetData@?$IDataObjectImpl@VCOPOSBiometrics@@@ATL@@UAGJPAUtagFORMATETC@@PAUtagSTGMEDIUM@@@Z 10001f59 f i Biometrics.obj
 0001:00000f7c       ?SetData@?$IDataObjectImpl@VCOPOSBiometrics@@@ATL@@UAGJPAUtagFORMATETC@@PAUtagSTGMEDIUM@@H@Z 10001f7c f i Biometrics.obj
 0001:00000f7c       ?GetMoniker@?$IOleObjectImpl@VCOPOSBiometrics@@@ATL@@UAGJKKPAPAUIMoniker@@@Z 10001f7c f i Biometrics.obj
 0001:00000f7c       ?InitFromData@?$IOleObjectImpl@VCOPOSBiometrics@@@ATL@@UAGJPAUIDataObject@@HK@Z 10001f7c f i Biometrics.obj
 0001:00000f84       ?DAdvise@?$IDataObjectImpl@VCOPOSBiometrics@@@ATL@@UAGJPAUtagFORMATETC@@KPAUIAdviseSink@@PAK@Z 10001f84 f i Biometrics.obj
 0001:00000fc5       ?DUnadvise@?$IDataObjectImpl@VCOPOSBiometrics@@@ATL@@UAGJK@Z 10001fc5 f i Biometrics.obj
 0001:00000ff3       ?EnumDAdvise@?$IDataObjectImpl@VCOPOSBiometrics@@@ATL@@UAGJPAPAUIEnumSTATDATA@@@Z 10001ff3 f i Biometrics.obj
 0001:00001032       ?GetClassInfoW@?$IProvideClassInfo2Impl@$1?CLSID_OPOSBiometrics@@3U_GUID@@B$1?DIID__IOPOSBiometricsEvents@@3U2@B$1?LIBID_OposBiometrics_CCO@@3U2@B$00$0A@VCComTypeInfoHolder@ATL@@@ATL@@UAGJPAPAUITypeInfo@@@Z 10002032 f i Biometrics.obj
 0001:00001048       ?GetGUID@?$IProvideClassInfo2Impl@$1?CLSID_OPOSBiometrics@@3U_GUID@@B$1?DIID__IOPOSBiometricsEvents@@3U2@B$1?LIBID_OposBiometrics_CCO@@3U2@B$00$0A@VCComTypeInfoHolder@ATL@@@ATL@@UAGJKPAU_GUID@@@Z 10002048 f i Biometrics.obj
 0001:00001086       __get_startup_argv_mode    10002086 f i LIBCMT:argv_mode.obj
 0001:00001086       ?FAccessAllowed@?$IObjectSafetyImpl@VCOPOSBiometrics@@$02@ATL@@MAEHXZ 10002086 f i Biometrics.obj
 0001:0000108a       ?GetInterfaceSafetyOptions@?$IObjectSafetyImpl@VCOPOSBiometrics@@$02@ATL@@UAGJABU_GUID@@PAK1@Z 1000208a f i Biometrics.obj
 0001:000010fe       ?SetInterfaceSafetyOptions@?$IObjectSafetyImpl@VCOPOSBiometrics@@$02@ATL@@UAGJABU_GUID@@KK@Z 100020fe f i Biometrics.obj
 0001:00001178       ?_LocCPQueryInterface@?$IConnectionPointImpl@VCOPOSBiometrics@@$1?DIID__IOPOSBiometricsEvents@@3U_GUID@@BVCComDynamicUnkArray@ATL@@@ATL@@UAGJABU_GUID@@PAPAX@Z 10002178 f i Biometrics.obj
 0001:00001178       ?_LocCPQueryInterface@?$IConnectionPointImpl@VCOPOSBiometrics@@$1?IID_IPropertyNotifySink@@3U_GUID@@BVCComDynamicUnkArray@ATL@@@ATL@@UAGJABU_GUID@@PAPAX@Z 10002178 f i Biometrics.obj
 0001:000011c5       ?GetConnectionInterface@?$IConnectionPointImpl@VCOPOSBiometrics@@$1?IID_IPropertyNotifySink@@3U_GUID@@BVCComDynamicUnkArray@ATL@@@ATL@@UAGJPAU_GUID@@@Z 100021c5 f i Biometrics.obj
 0001:000011e9       ?GetConnectionPointContainer@?$IConnectionPointImpl@VCOPOSBiometrics@@$1?IID_IPropertyNotifySink@@3U_GUID@@BVCComDynamicUnkArray@ATL@@@ATL@@UAGJPAPAUIConnectionPointContainer@@@Z 100021e9 f i Biometrics.obj
 0001:0000120c       ?Advise@?$IConnectionPointImpl@VCOPOSBiometrics@@$1?DIID__IOPOSBiometricsEvents@@3U_GUID@@BVCComDynamicUnkArray@ATL@@@ATL@@UAGJPAUIUnknown@@PAK@Z 1000220c f i Biometrics.obj
 0001:0000120c       ?Advise@?$IConnectionPointImpl@VCOPOSBiometrics@@$1?IID_IPropertyNotifySink@@3U_GUID@@BVCComDynamicUnkArray@ATL@@@ATL@@UAGJPAUIUnknown@@PAK@Z 1000220c f i Biometrics.obj
 0001:000012ad       ?Unadvise@?$IConnectionPointImpl@VCOPOSBiometrics@@$1?DIID__IOPOSBiometricsEvents@@3U_GUID@@BVCComDynamicUnkArray@ATL@@@ATL@@UAGJK@Z 100022ad f i Biometrics.obj
 0001:000012ad       ?Unadvise@?$IConnectionPointImpl@VCOPOSBiometrics@@$1?IID_IPropertyNotifySink@@3U_GUID@@BVCComDynamicUnkArray@ATL@@@ATL@@UAGJK@Z 100022ad f i Biometrics.obj
 0001:000012ed       ?EnumConnections@?$IConnectionPointImpl@VCOPOSBiometrics@@$1?IID_IPropertyNotifySink@@3U_GUID@@BVCComDynamicUnkArray@ATL@@@ATL@@UAGJPAPAUIEnumConnections@@@Z 100022ed f i Biometrics.obj
 0001:000012ed       ?EnumConnections@?$IConnectionPointImpl@VCOPOSBiometrics@@$1?DIID__IOPOSBiometricsEvents@@3U_GUID@@BVCComDynamicUnkArray@ATL@@@ATL@@UAGJPAPAUIEnumConnections@@@Z 100022ed f i Biometrics.obj
 0001:000013f3       ?GetObjectDescription@?$CComCoClass@VCOPOSBiometrics@@$1?CLSID_OPOSBiometrics@@3U_GUID@@B@ATL@@SGPB_WXZ 100023f3 f i Biometrics.obj
 0001:000013f3       ?GetCategoryMap@CComObjectRootBase@ATL@@SAPBU_ATL_CATMAP_ENTRY@2@XZ 100023f3 f i Biometrics.obj
 0001:000013f6       ?GetConnectionInterface@?$IConnectionPointImpl@VCOPOSBiometrics@@$1?DIID__IOPOSBiometricsEvents@@3U_GUID@@BVCComDynamicUnkArray@ATL@@@ATL@@UAGJPAU_GUID@@@Z 100023f6 f i Biometrics.obj
 0001:0000141a       ?GetConnectionPointContainer@?$IConnectionPointImpl@VCOPOSBiometrics@@$1?DIID__IOPOSBiometricsEvents@@3U_GUID@@BVCComDynamicUnkArray@ATL@@@ATL@@UAGJPAPAUIConnectionPointContainer@@@Z 1000241a f i Biometrics.obj
 0001:0000143d       ?UpdateRegistry@COPOSBiometrics@@SGJH@Z 1000243d f i Biometrics.obj
 0001:00001455       ?ProcessWindowMessage@COPOSBiometrics@@UAEHPAUHWND__@@IIJAAJK@Z 10002455 f i Biometrics.obj
 0001:0000149e       ?SOData@COPOSBiometrics@@MAGJJ@Z 1000249e f i Biometrics.obj
 0001:000014d7       ?SODirectIO@COPOSBiometrics@@MAGJJPAJPAPA_W@Z 100024d7 f i Biometrics.obj
 0001:00001520       ?SOError@COPOSBiometrics@@MAGJJJJPAJ@Z 10002520 f i Biometrics.obj
 0001:00001575       ?SOStatusUpdate@COPOSBiometrics@@MAGJJ@Z 10002575 f i Biometrics.obj
 0001:000015ae       ?AddRef@CRegObject@ATL@@UAGKXZ 100025ae f i Biometrics.obj
 0001:000015b4       ?AddReplacement@CRegObject@ATL@@UAGJPB_W0@Z 100025b4 f i Biometrics.obj
 0001:000015ed       ?ClearReplacements@CRegObject@ATL@@UAGJXZ 100025ed f i Biometrics.obj
 0001:000015ff       ??_ECRegObject@ATL@@UAEPAXI@Z 100025ff f i Biometrics.obj
 0001:000015ff       ??_GCRegObject@ATL@@UAEPAXI@Z 100025ff f i Biometrics.obj
 0001:00001621       ?CreateInstance@?$CComCreator@V?$CComObjectCached@VCComClassFactory@ATL@@@ATL@@@ATL@@SGJPAXABU_GUID@@PAPAX@Z 10002621 f i Biometrics.obj
 0001:000016b4       ?CreateInstance@?$CComCreator2@V?$CComCreator@V?$CComObject@VCOPOSBiometrics@@@ATL@@@ATL@@V?$CComCreator@V?$CComAggObject@VCOPOSBiometrics@@@ATL@@@2@@ATL@@SGJPAXABU_GUID@@PAPAX@Z 100026b4 f i Biometrics.obj
 0001:000016d4       ?Next@?$CComEnumImpl@UIEnumConnectionPoints@@$1?_GUID_b196b285_bab4_101a_b69c_00aa00341d07@@3U__s_GUID@@BPAUIConnectionPoint@@V?$_CopyInterface@UIConnectionPoint@@@ATL@@@ATL@@UAGJKPAPAUIConnectionPoint@@PAK@Z 100026d4 f i Biometrics.obj
 0001:000017ab       ?Skip@?$CComEnumImpl@UIEnumConnectionPoints@@$1?_GUID_b196b285_bab4_101a_b69c_00aa00341d07@@3U__s_GUID@@BPAUIConnectionPoint@@V?$_CopyInterface@UIConnectionPoint@@@ATL@@@ATL@@UAGJK@Z 100027ab f i Biometrics.obj
 0001:000017d8       ?Reset@?$CComEnumImpl@UIEnumConnections@@$1?_GUID_b196b287_bab4_101a_b69c_00aa00341d07@@3U__s_GUID@@BUtagCONNECTDATA@@V?$_Copy@UtagCONNECTDATA@@@ATL@@@ATL@@UAGJXZ 100027d8 f i Biometrics.obj
 0001:000017d8       ?Reset@?$CComEnumImpl@UIEnumConnectionPoints@@$1?_GUID_b196b285_bab4_101a_b69c_00aa00341d07@@3U__s_GUID@@BPAUIConnectionPoint@@V?$_CopyInterface@UIConnectionPoint@@@ATL@@@ATL@@UAGJXZ 100027d8 f i Biometrics.obj
 0001:000017ea       ?Clone@?$CComEnumImpl@UIEnumConnectionPoints@@$1?_GUID_b196b285_bab4_101a_b69c_00aa00341d07@@3U__s_GUID@@BPAUIConnectionPoint@@V?$_CopyInterface@UIConnectionPoint@@@ATL@@@ATL@@UAGJPAPAUIEnumConnectionPoints@@@Z 100027ea f i Biometrics.obj
 0001:000018c9       ?AddRef@?$CComObject@V?$CComEnum@UIEnumConnections@@$1?_GUID_b196b287_bab4_101a_b69c_00aa00341d07@@3U__s_GUID@@BUtagCONNECTDATA@@V?$_Copy@UtagCONNECTDATA@@@ATL@@VCComSingleThreadModel@6@@ATL@@@ATL@@UAGKXZ 100028c9 f i Biometrics.obj
 0001:000018c9       ?AddRef@?$CComObject@V?$CComEnum@UIEnumConnectionPoints@@$1?_GUID_b196b285_bab4_101a_b69c_00aa00341d07@@3U__s_GUID@@BPAUIConnectionPoint@@V?$_CopyInterface@UIConnectionPoint@@@ATL@@VCComSingleThreadModel@6@@ATL@@@ATL@@UAGKXZ 100028c9 f i Biometrics.obj
 0001:000018da       ?Release@?$CComObject@V?$CComEnum@UIEnumConnectionPoints@@$1?_GUID_b196b285_bab4_101a_b69c_00aa00341d07@@3U__s_GUID@@BPAUIConnectionPoint@@V?$_CopyInterface@UIConnectionPoint@@@ATL@@VCComSingleThreadModel@6@@ATL@@@ATL@@UAGKXZ 100028da f i Biometrics.obj
 0001:000018da       ?Release@?$CComObject@V?$CComEnum@UIEnumConnections@@$1?_GUID_b196b287_bab4_101a_b69c_00aa00341d07@@3U__s_GUID@@BUtagCONNECTDATA@@V?$_Copy@UtagCONNECTDATA@@@ATL@@VCComSingleThreadModel@6@@ATL@@@ATL@@UAGKXZ 100028da f i Biometrics.obj
 0001:00001916       ?QueryInterface@?$CComObject@V?$CComEnum@UIEnumConnectionPoints@@$1?_GUID_b196b285_bab4_101a_b69c_00aa00341d07@@3U__s_GUID@@BPAUIConnectionPoint@@V?$_CopyInterface@UIConnectionPoint@@@ATL@@VCComSingleThreadModel@6@@ATL@@@ATL@@UAGJABU_GUID@@PAPAX@Z 10002916 f i Biometrics.obj
 0001:00001930       ??_E?$CComObject@V?$CComEnum@UIEnumConnectionPoints@@$1?_GUID_b196b285_bab4_101a_b69c_00aa00341d07@@3U__s_GUID@@BPAUIConnectionPoint@@V?$_CopyInterface@UIConnectionPoint@@@ATL@@VCComSingleThreadModel@6@@ATL@@@ATL@@UAEPAXI@Z 10002930 f i Biometrics.obj
 0001:00001930       ??_G?$CComObject@V?$CComEnum@UIEnumConnectionPoints@@$1?_GUID_b196b285_bab4_101a_b69c_00aa00341d07@@3U__s_GUID@@BPAUIConnectionPoint@@V?$_CopyInterface@UIConnectionPoint@@@ATL@@VCComSingleThreadModel@6@@ATL@@@ATL@@UAEPAXI@Z 10002930 f i Biometrics.obj
 0001:00001952       ?AddRef@?$CComObjectCached@VCComClassFactory@ATL@@@ATL@@UAGKXZ 10002952 f i Biometrics.obj
 0001:00001979       ?Release@?$CComObjectCached@VCComClassFactory@ATL@@@ATL@@UAGKXZ 10002979 f i Biometrics.obj
 0001:000019af       ?QueryInterface@?$CComObjectCached@VCComClassFactory@ATL@@@ATL@@UAGJABU_GUID@@PAPAX@Z 100029af f i Biometrics.obj
 0001:000019c9       ??_G?$CComObjectCached@VCComClassFactory@ATL@@@ATL@@UAEPAXI@Z 100029c9 f i Biometrics.obj
 0001:000019c9       ??_E?$CComObjectCached@VCComClassFactory@ATL@@@ATL@@UAEPAXI@Z 100029c9 f i Biometrics.obj
 0001:000019eb       ?AddRef@?$CComAggObject@VCOPOSBiometrics@@@ATL@@UAGKXZ 100029eb f i Biometrics.obj
 0001:000019fc       ?Release@?$CComAggObject@VCOPOSBiometrics@@@ATL@@UAGKXZ 100029fc f i Biometrics.obj
 0001:00001a38       ?QueryInterface@?$CComAggObject@VCOPOSBiometrics@@@ATL@@UAGJABU_GUID@@PAPAX@Z 10002a38 f i Biometrics.obj
 0001:00001a87       ?AddRef@?$CComContainedObject@VCOPOSBiometrics@@@ATL@@UAGKXZ 10002a87 f i Biometrics.obj
 0001:00001a9d       ?Release@?$CComContainedObject@VCOPOSBiometrics@@@ATL@@UAGKXZ 10002a9d f i Biometrics.obj
 0001:00001ab3       ?QueryInterface@?$CComContainedObject@VCOPOSBiometrics@@@ATL@@UAGJABU_GUID@@PAPAX@Z 10002ab3 f i Biometrics.obj
 0001:00001ace       ??_E?$CComAggObject@VCOPOSBiometrics@@@ATL@@UAEPAXI@Z 10002ace f i Biometrics.obj
 0001:00001ace       ??_G?$CComAggObject@VCOPOSBiometrics@@@ATL@@UAEPAXI@Z 10002ace f i Biometrics.obj
 0001:00001af3       ?AddRef@?$CComObject@VCOPOSBiometrics@@@ATL@@UAGKXZ 10002af3 f i Biometrics.obj
 0001:00001b0a       ?Release@?$CComObject@VCOPOSBiometrics@@@ATL@@UAGKXZ 10002b0a f i Biometrics.obj
 0001:00001b4c       ?QueryInterface@?$CComObject@VCOPOSBiometrics@@@ATL@@UAGJABU_GUID@@PAPAX@Z 10002b4c f i Biometrics.obj
 0001:00001b66       ?ObjectMain@CComObjectRootBase@ATL@@SGX_N@Z 10002b66 f i Biometrics.obj
 0001:00001b66       ?OnFinalMessage@?$CWindowImplBaseT@VCWindow@ATL@@V?$CWinTraits@$0FGAAAAAA@$0A@@2@@ATL@@UAEXPAUHWND__@@@Z 10002b66 f i Biometrics.obj
 0001:00001b69       ?OnDrawAdvanced@CComControlBase@ATL@@UAEJAAUATL_DRAWINFO@@@Z 10002b69 f i Biometrics.obj
 0001:00001c58       ?CreateInstance@CComClassFactory@ATL@@UAGJPAUIUnknown@@ABU_GUID@@PAPAX@Z 10002c58 f i Biometrics.obj
 0001:00001c96       ?LockServer@CComClassFactory@ATL@@UAGJH@Z 10002c96 f i Biometrics.obj
 0001:00001cb5       ??_ECComClassFactory@ATL@@UAEPAXI@Z 10002cb5 f i Biometrics.obj
 0001:00001cb5       ??_GCComClassFactory@ATL@@UAEPAXI@Z 10002cb5 f i Biometrics.obj
 0001:00001ce0       ?Next@?$CComEnumImpl@UIEnumConnections@@$1?_GUID_b196b287_bab4_101a_b69c_00aa00341d07@@3U__s_GUID@@BUtagCONNECTDATA@@V?$_Copy@UtagCONNECTDATA@@@ATL@@@ATL@@UAGJKPAUtagCONNECTDATA@@PAK@Z 10002ce0 f i Biometrics.obj
 0001:00001db7       ?Skip@?$CComEnumImpl@UIEnumConnections@@$1?_GUID_b196b287_bab4_101a_b69c_00aa00341d07@@3U__s_GUID@@BUtagCONNECTDATA@@V?$_Copy@UtagCONNECTDATA@@@ATL@@@ATL@@UAGJK@Z 10002db7 f i Biometrics.obj
 0001:00001de4       ?Clone@?$CComEnumImpl@UIEnumConnections@@$1?_GUID_b196b287_bab4_101a_b69c_00aa00341d07@@3U__s_GUID@@BUtagCONNECTDATA@@V?$_Copy@UtagCONNECTDATA@@@ATL@@@ATL@@UAGJPAPAUIEnumConnections@@@Z 10002de4 f i Biometrics.obj
 0001:00001ec3       ?QueryInterface@?$CComObject@V?$CComEnum@UIEnumConnections@@$1?_GUID_b196b287_bab4_101a_b69c_00aa00341d07@@3U__s_GUID@@BUtagCONNECTDATA@@V?$_Copy@UtagCONNECTDATA@@@ATL@@VCComSingleThreadModel@6@@ATL@@@ATL@@UAGJABU_GUID@@PAPAX@Z 10002ec3 f i Biometrics.obj
 0001:00001edd       ??_G?$CComObject@V?$CComEnum@UIEnumConnections@@$1?_GUID_b196b287_bab4_101a_b69c_00aa00341d07@@3U__s_GUID@@BUtagCONNECTDATA@@V?$_Copy@UtagCONNECTDATA@@@ATL@@VCComSingleThreadModel@6@@ATL@@@ATL@@UAEPAXI@Z 10002edd f i Biometrics.obj
 0001:00001edd       ??_E?$CComObject@V?$CComEnum@UIEnumConnections@@$1?_GUID_b196b287_bab4_101a_b69c_00aa00341d07@@3U__s_GUID@@BUtagCONNECTDATA@@V?$_Copy@UtagCONNECTDATA@@@ATL@@VCComSingleThreadModel@6@@ATL@@@ATL@@UAEPAXI@Z 10002edd f i Biometrics.obj
 0001:00001eff       ??_E?$CComObject@VCOPOSBiometrics@@@ATL@@W3AEPAXI@Z 10002eff f i Biometrics.obj
 0001:00001f07       ??_E?$CComObject@VCOPOSBiometrics@@@ATL@@WEM@AEPAXI@Z 10002f07 f i Biometrics.obj
 0001:00001f0f       ?QueryInterface@?$CComObject@VCOPOSBiometrics@@@ATL@@WHA@AGJABU_GUID@@PAPAX@Z 10002f0f f i Biometrics.obj
 0001:00001f19       ?AddRef@?$CComObject@VCOPOSBiometrics@@@ATL@@WHA@AGKXZ 10002f19 f i Biometrics.obj
 0001:00001f23       ?Release@?$CComObject@VCOPOSBiometrics@@@ATL@@WHA@AGKXZ 10002f23 f i Biometrics.obj
 0001:00001f2d       ?QueryInterface@?$CComObject@VCOPOSBiometrics@@@ATL@@WHE@AGJABU_GUID@@PAPAX@Z 10002f2d f i Biometrics.obj
 0001:00001f37       ?AddRef@?$CComObject@VCOPOSBiometrics@@@ATL@@WHE@AGKXZ 10002f37 f i Biometrics.obj
 0001:00001f41       ?Release@?$CComObject@VCOPOSBiometrics@@@ATL@@WHE@AGKXZ 10002f41 f i Biometrics.obj
 0001:00001f4b       ?QueryInterface@?$CComObject@VCOPOSBiometrics@@@ATL@@WHI@AGJABU_GUID@@PAPAX@Z 10002f4b f i Biometrics.obj
 0001:00001f55       ?AddRef@?$CComObject@VCOPOSBiometrics@@@ATL@@WHI@AGKXZ 10002f55 f i Biometrics.obj
 0001:00001f5f       ?Release@?$CComObject@VCOPOSBiometrics@@@ATL@@WHI@AGKXZ 10002f5f f i Biometrics.obj
 0001:00001f69       ?QueryInterface@?$CComObject@VCOPOSBiometrics@@@ATL@@WHM@AGJABU_GUID@@PAPAX@Z 10002f69 f i Biometrics.obj
 0001:00001f73       ?AddRef@?$CComObject@VCOPOSBiometrics@@@ATL@@WHM@AGKXZ 10002f73 f i Biometrics.obj
 0001:00001f7d       ?Release@?$CComObject@VCOPOSBiometrics@@@ATL@@WHM@AGKXZ 10002f7d f i Biometrics.obj
 0001:00001f87       ?QueryInterface@?$CComObject@VCOPOSBiometrics@@@ATL@@WIA@AGJABU_GUID@@PAPAX@Z 10002f87 f i Biometrics.obj
 0001:00001f94       ?AddRef@?$CComObject@VCOPOSBiometrics@@@ATL@@WIA@AGKXZ 10002f94 f i Biometrics.obj
 0001:00001fa1       ?Release@?$CComObject@VCOPOSBiometrics@@@ATL@@WIA@AGKXZ 10002fa1 f i Biometrics.obj
 0001:00001fae       ?QueryInterface@?$CComObject@VCOPOSBiometrics@@@ATL@@WIE@AGJABU_GUID@@PAPAX@Z 10002fae f i Biometrics.obj
 0001:00001fbb       ?AddRef@?$CComObject@VCOPOSBiometrics@@@ATL@@WIE@AGKXZ 10002fbb f i Biometrics.obj
 0001:00001fc8       ?Release@?$CComObject@VCOPOSBiometrics@@@ATL@@WIE@AGKXZ 10002fc8 f i Biometrics.obj
 0001:00001fd5       ?QueryInterface@?$CComObject@VCOPOSBiometrics@@@ATL@@WII@AGJABU_GUID@@PAPAX@Z 10002fd5 f i Biometrics.obj
 0001:00001fe2       ?AddRef@?$CComObject@VCOPOSBiometrics@@@ATL@@WII@AGKXZ 10002fe2 f i Biometrics.obj
 0001:00001fef       ?Release@?$CComObject@VCOPOSBiometrics@@@ATL@@WII@AGKXZ 10002fef f i Biometrics.obj
 0001:00001ffc       ?QueryInterface@?$CComObject@VCOPOSBiometrics@@@ATL@@WIM@AGJABU_GUID@@PAPAX@Z 10002ffc f i Biometrics.obj
 0001:00002009       ?AddRef@?$CComObject@VCOPOSBiometrics@@@ATL@@WIM@AGKXZ 10003009 f i Biometrics.obj
 0001:00002016       ?Release@?$CComObject@VCOPOSBiometrics@@@ATL@@WIM@AGKXZ 10003016 f i Biometrics.obj
 0001:00002023       ?QueryInterface@?$CComObject@VCOPOSBiometrics@@@ATL@@WJA@AGJABU_GUID@@PAPAX@Z 10003023 f i Biometrics.obj
 0001:00002030       ?AddRef@?$CComObject@VCOPOSBiometrics@@@ATL@@WJA@AGKXZ 10003030 f i Biometrics.obj
 0001:0000203d       ?Release@?$CComObject@VCOPOSBiometrics@@@ATL@@WJA@AGKXZ 1000303d f i Biometrics.obj
 0001:0000204a       ?QueryInterface@?$CComObject@VCOPOSBiometrics@@@ATL@@WJE@AGJABU_GUID@@PAPAX@Z 1000304a f i Biometrics.obj
 0001:00002057       ?AddRef@?$CComObject@VCOPOSBiometrics@@@ATL@@WJE@AGKXZ 10003057 f i Biometrics.obj
 0001:00002064       ?Release@?$CComObject@VCOPOSBiometrics@@@ATL@@WJE@AGKXZ 10003064 f i Biometrics.obj
 0001:00002071       ?QueryInterface@?$CComObject@VCOPOSBiometrics@@@ATL@@WJI@AGJABU_GUID@@PAPAX@Z 10003071 f i Biometrics.obj
 0001:0000207e       ?AddRef@?$CComObject@VCOPOSBiometrics@@@ATL@@WJI@AGKXZ 1000307e f i Biometrics.obj
 0001:0000208b       ?Release@?$CComObject@VCOPOSBiometrics@@@ATL@@WJI@AGKXZ 1000308b f i Biometrics.obj
 0001:00002098       ?QueryInterface@?$CComObject@VCOPOSBiometrics@@@ATL@@WJM@AGJABU_GUID@@PAPAX@Z 10003098 f i Biometrics.obj
 0001:000020a5       ?AddRef@?$CComObject@VCOPOSBiometrics@@@ATL@@WJM@AGKXZ 100030a5 f i Biometrics.obj
 0001:000020b2       ?Release@?$CComObject@VCOPOSBiometrics@@@ATL@@WJM@AGKXZ 100030b2 f i Biometrics.obj
 0001:000020bf       ?QueryInterface@?$CComObject@VCOPOSBiometrics@@@ATL@@WKA@AGJABU_GUID@@PAPAX@Z 100030bf f i Biometrics.obj
 0001:000020cc       ?AddRef@?$CComObject@VCOPOSBiometrics@@@ATL@@WKA@AGKXZ 100030cc f i Biometrics.obj
 0001:000020d9       ?Release@?$CComObject@VCOPOSBiometrics@@@ATL@@WKA@AGKXZ 100030d9 f i Biometrics.obj
 0001:000020e6       ?AddRef@?$CComObject@VCOPOSBiometrics@@@ATL@@WKI@AGKXZ 100030e6 f i Biometrics.obj
 0001:000020f3       ?Release@?$CComObject@VCOPOSBiometrics@@@ATL@@WKI@AGKXZ 100030f3 f i Biometrics.obj
 0001:00002100       ?AddRef@?$CComObject@VCOPOSBiometrics@@@ATL@@WLE@AGKXZ 10003100 f i Biometrics.obj
 0001:0000210d       ?Release@?$CComObject@VCOPOSBiometrics@@@ATL@@WLE@AGKXZ 1000310d f i Biometrics.obj
 0001:0000211a       ??_E?$CComContainedObject@VCOPOSBiometrics@@@ATL@@W3AEPAXI@Z 1000311a f i Biometrics.obj
 0001:00002122       ??_E?$CComContainedObject@VCOPOSBiometrics@@@ATL@@WEM@AEPAXI@Z 10003122 f i Biometrics.obj
 0001:0000212a       ?QueryInterface@?$CComContainedObject@VCOPOSBiometrics@@@ATL@@WHA@AGJABU_GUID@@PAPAX@Z 1000312a f i Biometrics.obj
 0001:00002134       ?AddRef@?$CComContainedObject@VCOPOSBiometrics@@@ATL@@WHA@AGKXZ 10003134 f i Biometrics.obj
 0001:0000213e       ?Release@?$CComContainedObject@VCOPOSBiometrics@@@ATL@@WHA@AGKXZ 1000313e f i Biometrics.obj
 0001:00002148       ?QueryInterface@?$CComContainedObject@VCOPOSBiometrics@@@ATL@@WHE@AGJABU_GUID@@PAPAX@Z 10003148 f i Biometrics.obj
 0001:00002152       ?AddRef@?$CComContainedObject@VCOPOSBiometrics@@@ATL@@WHE@AGKXZ 10003152 f i Biometrics.obj
 0001:0000215c       ?Release@?$CComContainedObject@VCOPOSBiometrics@@@ATL@@WHE@AGKXZ 1000315c f i Biometrics.obj
 0001:00002166       ?QueryInterface@?$CComContainedObject@VCOPOSBiometrics@@@ATL@@WHI@AGJABU_GUID@@PAPAX@Z 10003166 f i Biometrics.obj
 0001:00002170       ?AddRef@?$CComContainedObject@VCOPOSBiometrics@@@ATL@@WHI@AGKXZ 10003170 f i Biometrics.obj
 0001:0000217a       ?Release@?$CComContainedObject@VCOPOSBiometrics@@@ATL@@WHI@AGKXZ 1000317a f i Biometrics.obj
 0001:00002184       ?QueryInterface@?$CComContainedObject@VCOPOSBiometrics@@@ATL@@WHM@AGJABU_GUID@@PAPAX@Z 10003184 f i Biometrics.obj
 0001:0000218e       ?AddRef@?$CComContainedObject@VCOPOSBiometrics@@@ATL@@WHM@AGKXZ 1000318e f i Biometrics.obj
 0001:00002198       ?Release@?$CComContainedObject@VCOPOSBiometrics@@@ATL@@WHM@AGKXZ 10003198 f i Biometrics.obj
 0001:000021a2       ?QueryInterface@?$CComContainedObject@VCOPOSBiometrics@@@ATL@@WIA@AGJABU_GUID@@PAPAX@Z 100031a2 f i Biometrics.obj
 0001:000021af       ?AddRef@?$CComContainedObject@VCOPOSBiometrics@@@ATL@@WIA@AGKXZ 100031af f i Biometrics.obj
 0001:000021bc       ?Release@?$CComContainedObject@VCOPOSBiometrics@@@ATL@@WIA@AGKXZ 100031bc f i Biometrics.obj
 0001:000021c9       ?QueryInterface@?$CComContainedObject@VCOPOSBiometrics@@@ATL@@WIE@AGJABU_GUID@@PAPAX@Z 100031c9 f i Biometrics.obj
 0001:000021d6       ?AddRef@?$CComContainedObject@VCOPOSBiometrics@@@ATL@@WIE@AGKXZ 100031d6 f i Biometrics.obj
 0001:000021e3       ?Release@?$CComContainedObject@VCOPOSBiometrics@@@ATL@@WIE@AGKXZ 100031e3 f i Biometrics.obj
 0001:000021f0       ?QueryInterface@?$CComContainedObject@VCOPOSBiometrics@@@ATL@@WII@AGJABU_GUID@@PAPAX@Z 100031f0 f i Biometrics.obj
 0001:000021fd       ?AddRef@?$CComContainedObject@VCOPOSBiometrics@@@ATL@@WII@AGKXZ 100031fd f i Biometrics.obj
 0001:0000220a       ?Release@?$CComContainedObject@VCOPOSBiometrics@@@ATL@@WII@AGKXZ 1000320a f i Biometrics.obj
 0001:00002217       ?QueryInterface@?$CComContainedObject@VCOPOSBiometrics@@@ATL@@WIM@AGJABU_GUID@@PAPAX@Z 10003217 f i Biometrics.obj
 0001:00002224       ?AddRef@?$CComContainedObject@VCOPOSBiometrics@@@ATL@@WIM@AGKXZ 10003224 f i Biometrics.obj
 0001:00002231       ?Release@?$CComContainedObject@VCOPOSBiometrics@@@ATL@@WIM@AGKXZ 10003231 f i Biometrics.obj
 0001:0000223e       ?QueryInterface@?$CComContainedObject@VCOPOSBiometrics@@@ATL@@WJA@AGJABU_GUID@@PAPAX@Z 1000323e f i Biometrics.obj
 0001:0000224b       ?AddRef@?$CComContainedObject@VCOPOSBiometrics@@@ATL@@WJA@AGKXZ 1000324b f i Biometrics.obj
 0001:00002258       ?Release@?$CComContainedObject@VCOPOSBiometrics@@@ATL@@WJA@AGKXZ 10003258 f i Biometrics.obj
 0001:00002265       ?QueryInterface@?$CComContainedObject@VCOPOSBiometrics@@@ATL@@WJE@AGJABU_GUID@@PAPAX@Z 10003265 f i Biometrics.obj
 0001:00002272       ?AddRef@?$CComContainedObject@VCOPOSBiometrics@@@ATL@@WJE@AGKXZ 10003272 f i Biometrics.obj
 0001:0000227f       ?Release@?$CComContainedObject@VCOPOSBiometrics@@@ATL@@WJE@AGKXZ 1000327f f i Biometrics.obj
 0001:0000228c       ?QueryInterface@?$CComContainedObject@VCOPOSBiometrics@@@ATL@@WJI@AGJABU_GUID@@PAPAX@Z 1000328c f i Biometrics.obj
 0001:00002299       ?AddRef@?$CComContainedObject@VCOPOSBiometrics@@@ATL@@WJI@AGKXZ 10003299 f i Biometrics.obj
 0001:000022a6       ?Release@?$CComContainedObject@VCOPOSBiometrics@@@ATL@@WJI@AGKXZ 100032a6 f i Biometrics.obj
 0001:000022b3       ?QueryInterface@?$CComContainedObject@VCOPOSBiometrics@@@ATL@@WJM@AGJABU_GUID@@PAPAX@Z 100032b3 f i Biometrics.obj
 0001:000022c0       ?AddRef@?$CComContainedObject@VCOPOSBiometrics@@@ATL@@WJM@AGKXZ 100032c0 f i Biometrics.obj
 0001:000022cd       ?Release@?$CComContainedObject@VCOPOSBiometrics@@@ATL@@WJM@AGKXZ 100032cd f i Biometrics.obj
 0001:000022da       ?QueryInterface@?$CComContainedObject@VCOPOSBiometrics@@@ATL@@WKA@AGJABU_GUID@@PAPAX@Z 100032da f i Biometrics.obj
 0001:000022e7       ?AddRef@?$CComContainedObject@VCOPOSBiometrics@@@ATL@@WKA@AGKXZ 100032e7 f i Biometrics.obj
 0001:000022f4       ?Release@?$CComContainedObject@VCOPOSBiometrics@@@ATL@@WKA@AGKXZ 100032f4 f i Biometrics.obj
 0001:00002301       ?AddRef@?$CComContainedObject@VCOPOSBiometrics@@@ATL@@WKI@AGKXZ 10003301 f i Biometrics.obj
 0001:0000230e       ?Release@?$CComContainedObject@VCOPOSBiometrics@@@ATL@@WKI@AGKXZ 1000330e f i Biometrics.obj
 0001:0000231b       ?AddRef@?$CComContainedObject@VCOPOSBiometrics@@@ATL@@WLE@AGKXZ 1000331b f i Biometrics.obj
 0001:00002328       ?Release@?$CComContainedObject@VCOPOSBiometrics@@@ATL@@WLE@AGKXZ 10003328 f i Biometrics.obj
 0001:00002335       ?Lock@CAtlModule@ATL@@UAEJXZ 10003335 f i Biometrics.obj
 0001:0000233f       ?Unlock@CAtlModule@ATL@@UAEJXZ 1000333f f i Biometrics.obj
 0001:00002349       ?GetLockCount@CAtlModule@ATL@@UAEJXZ 10003349 f i Biometrics.obj
 0001:0000234d       ?GetGITPtr@CAtlModule@ATL@@UAEJPAPAUIGlobalInterfaceTable@@@Z 1000334d f i Biometrics.obj
 0001:00002399       ?GetWindowProc@?$CWindowImplBaseT@VCWindow@ATL@@V?$CWinTraits@$0FGAAAAAA@$0A@@2@@ATL@@UAEP6GJPAUHWND__@@IIJ@ZXZ 10003399 f i Biometrics.obj
 0001:0000239f       ?StartWindowProc@?$CWindowImplBaseT@VCWindow@ATL@@V?$CWinTraits@$0FGAAAAAA@$0A@@2@@ATL@@SGJPAUHWND__@@IIJ@Z 1000339f f i Biometrics.obj
 0001:000023f3       ?AddCommonRGSReplacements@?$CAtlModuleT@VCComModule@ATL@@@ATL@@UAEJPAUIRegistrarBase@@@Z 100033f3 f i Biometrics.obj
 0001:0000240d       ?UpdateRegistryFromResourceD@CComModule@ATL@@UAGJIHPAU_ATL_REGMAP_ENTRY@2@@Z 1000340d f i Biometrics.obj
 0001:0000240d       ?UpdateRegistryFromResourceD@CComModule@ATL@@UAGJPB_WHPAU_ATL_REGMAP_ENTRY@2@@Z 1000340d f i Biometrics.obj
 0001:00002415       ?UpdateRegistryFromResource@CComModule@ATL@@UAGJPB_WHPAU_ATL_REGMAP_ENTRY@2@@Z 10003415 f i Biometrics.obj
 0001:0000241e       ?UpdateRegistryFromResource@CComModule@ATL@@UAGJIHPAU_ATL_REGMAP_ENTRY@2@@Z 1000341e f i Biometrics.obj
 0001:00002427       ?GetTypeInfoCount@?$IDispatchImpl@UIOPOSBiometrics@@$1?IID_IOPOSBiometrics@@3U_GUID@@B$1?LIBID_OposBiometrics_CCO@@3U3@B$00$0A@VCComTypeInfoHolder@ATL@@@ATL@@UAGJPAI@Z 10003427 f i Biometrics.obj
 0001:00002444       ?GetTypeInfo@?$IDispatchImpl@UIOPOSBiometrics@@$1?IID_IOPOSBiometrics@@3U_GUID@@B$1?LIBID_OposBiometrics_CCO@@3U3@B$00$0A@VCComTypeInfoHolder@ATL@@@ATL@@UAGJIKPAPAUITypeInfo@@@Z 10003444 f i Biometrics.obj
 0001:00002468       ?GetIDsOfNames@?$IDispatchImpl@UIOPOSBiometrics@@$1?IID_IOPOSBiometrics@@3U_GUID@@B$1?LIBID_OposBiometrics_CCO@@3U3@B$00$0A@VCComTypeInfoHolder@ATL@@@ATL@@UAGJABU_GUID@@PAPA_WIKPAJ@Z 10003468 f i Biometrics.obj
 0001:00002488       ?Invoke@?$IDispatchImpl@UIOPOSBiometrics@@$1?IID_IOPOSBiometrics@@3U_GUID@@B$1?LIBID_OposBiometrics_CCO@@3U3@B$00$0A@VCComTypeInfoHolder@ATL@@@ATL@@UAGJJABU_GUID@@KGPAUtagDISPPARAMS@@PAUtagVARIANT@@PAUtagEXCEPINFO@@PAI@Z 10003488 f i Biometrics.obj
 0001:00002496       ??_GCComModule@ATL@@UAEPAXI@Z 10003496 f i Biometrics.obj
 0001:00002496       ??_ECComModule@ATL@@UAEPAXI@Z 10003496 f i Biometrics.obj
 0001:000024be       ?CreateControlWindow@?$CComControl@VCOPOSBiometrics@@V?$CWindowImpl@VCOPOSBiometrics@@VCWindow@ATL@@V?$CWinTraits@$0FGAAAAAA@$0A@@3@@ATL@@@ATL@@UAEPAUHWND__@@PAU3@AAUtagRECT@@@Z 100034be f i Biometrics.obj
 0001:000024ed       ?ControlQueryInterface@?$CComControl@VCOPOSBiometrics@@V?$CWindowImpl@VCOPOSBiometrics@@VCWindow@ATL@@V?$CWinTraits@$0FGAAAAAA@$0A@@3@@ATL@@@ATL@@UAEJABU_GUID@@PAPAX@Z 100034ed f i Biometrics.obj
 0001:00002508       ?IsDirty@?$IPersistStreamInitImpl@VCOPOSBiometrics@@@ATL@@UAGJXZ 10003508 f i Biometrics.obj
 0001:00002527       ?Load@?$IPersistStreamInitImpl@VCOPOSBiometrics@@@ATL@@UAGJPAUIStream@@@Z 10003527 f i Biometrics.obj
 0001:00002546       ?Save@?$IPersistStreamInitImpl@VCOPOSBiometrics@@@ATL@@UAGJPAUIStream@@H@Z 10003546 f i Biometrics.obj
 0001:00002568       ?GetSizeMax@?$IPersistStreamInitImpl@VCOPOSBiometrics@@@ATL@@UAGJPAT_ULARGE_INTEGER@@@Z 10003568 f i Biometrics.obj
 0001:0000271d       ?InitNew@?$IPersistStreamInitImpl@VCOPOSBiometrics@@@ATL@@UAGJXZ 1000371d f i Biometrics.obj
 0001:0000273a       ?SetClientSite@?$IOleObjectImpl@VCOPOSBiometrics@@@ATL@@UAGJPAUIOleClientSite@@@Z 1000373a f i Biometrics.obj
 0001:00002757       ?GetClientSite@?$IOleObjectImpl@VCOPOSBiometrics@@@ATL@@UAGJPAPAUIOleClientSite@@@Z 10003757 f i Biometrics.obj
 0001:00002774       ?SetHostNames@?$IOleObjectImpl@VCOPOSBiometrics@@@ATL@@UAGJPB_W0@Z 10003774 f i Biometrics.obj
 0001:00002779       ?Close@?$IOleObjectImpl@VCOPOSBiometrics@@@ATL@@UAGJK@Z 10003779 f i Biometrics.obj
 0001:00002796       ?DoVerb@?$IOleObjectImpl@VCOPOSBiometrics@@@ATL@@UAGJJPAUtagMSG@@PAUIOleClientSite@@JPAUHWND__@@PBUtagRECT@@@Z 10003796 f i Biometrics.obj
 0001:000028ae       ?EnumVerbs@?$IOleObjectImpl@VCOPOSBiometrics@@@ATL@@UAGJPAPAUIEnumOLEVERB@@@Z 100038ae f i Biometrics.obj
 0001:000028d0       ?GetUserType@?$IOleObjectImpl@VCOPOSBiometrics@@@ATL@@UAGJKPAPA_W@Z 100038d0 f i Biometrics.obj
 0001:000028e8       ?SetExtent@?$IOleObjectImpl@VCOPOSBiometrics@@@ATL@@UAGJKPAUtagSIZE@@@Z 100038e8 f i Biometrics.obj
 0001:00002908       ?GetExtent@?$IOleObjectImpl@VCOPOSBiometrics@@@ATL@@UAGJKPAUtagSIZE@@@Z 10003908 f i Biometrics.obj
 0001:00002946       ?Advise@?$IOleObjectImpl@VCOPOSBiometrics@@@ATL@@UAGJPAUIAdviseSink@@PAK@Z 10003946 f i Biometrics.obj
 0001:00002966       ?Unadvise@?$IOleObjectImpl@VCOPOSBiometrics@@@ATL@@UAGJK@Z 10003966 f i Biometrics.obj
 0001:00002995       ?EnumAdvise@?$IOleObjectImpl@VCOPOSBiometrics@@@ATL@@UAGJPAPAUIEnumSTATDATA@@@Z 10003995 f i Biometrics.obj
 0001:000029d5       ?GetMiscStatus@?$IOleObjectImpl@VCOPOSBiometrics@@@ATL@@UAGJKPAK@Z 100039d5 f i Biometrics.obj
 0001:000029ed       ??$?4UITypeInfo2@@@?$CComPtr@UITypeInfo@@@ATL@@QAEPAUITypeInfo@@ABV?$CComPtr@UITypeInfo2@@@1@@Z 100039ed f i Biometrics.obj
 0001:00002a1a       ??$AtlAdd@K@ATL@@YAJPAKKK@Z 10003a1a f i Biometrics.obj
 0001:00002a3d       ??$AtlAdd@_K@ATL@@YAJPA_K_K1@Z 10003a3d f i Biometrics.obj
 0001:00002a75       ??$AtlAddThrow@K@ATL@@YAKKK@Z 10003a75 f i Biometrics.obj
 0001:00002a9b       ??$AtlModuleRegisterWndClassInfoT@VAtlModuleRegisterWndClassInfoParamW@ATL@@@ATL@@YAGPAU_ATL_BASE_MODULE70@0@PAU_ATL_WIN_MODULE70@0@PAU_ATL_WNDCLASSINFOW@0@PAP6GJPAUHWND__@@IIJ@ZVAtlModuleRegisterWndClassInfoParamW@0@@Z 10003a9b f i Biometrics.obj
 0001:00002be9       ??$AtlMultiply@H@ATL@@YAJPAHHH@Z 10003be9 f i Biometrics.obj
 0001:00002c21       ??$AtlMultiply@K@ATL@@YAJPAKKK@Z 10003c21 f i Biometrics.obj
 0001:00002c21       ??$AtlMultiply@I@ATL@@YAJPAIII@Z 10003c21 f i Biometrics.obj
 0001:00002c43       ??$AtlMultiplyThrow@I@ATL@@YAIII@Z 10003c43 f i Biometrics.obj
 0001:00002c69       ??0?$CComAggObject@VCOPOSBiometrics@@@ATL@@QAE@PAX@Z 10003c69 f i Biometrics.obj
 0001:00002c96       ??0?$CComContainedObject@VCOPOSBiometrics@@@ATL@@QAE@PAX@Z 10003c96 f i Biometrics.obj
 0001:00002d4f       ??0?$CComObject@V?$CComEnum@UIEnumConnectionPoints@@$1?_GUID_b196b285_bab4_101a_b69c_00aa00341d07@@3U__s_GUID@@BPAUIConnectionPoint@@V?$_CopyInterface@UIConnectionPoint@@@ATL@@VCComSingleThreadModel@6@@ATL@@@ATL@@QAE@PAX@Z 10003d4f f i Biometrics.obj
 0001:00002d7d       ??0?$CComObject@V?$CComEnum@UIEnumConnections@@$1?_GUID_b196b287_bab4_101a_b69c_00aa00341d07@@3U__s_GUID@@BUtagCONNECTDATA@@V?$_Copy@UtagCONNECTDATA@@@ATL@@VCComSingleThreadModel@6@@ATL@@@ATL@@QAE@PAX@Z 10003d7d f i Biometrics.obj
 0001:00002dab       ??0?$CComObject@VCOPOSBiometrics@@@ATL@@QAE@PAX@Z 10003dab f i Biometrics.obj
 0001:00002e62       ??0?$CComQIPtr@UIOleControlSite@@$1?_GUID_b196b289_bab4_101a_b69c_00aa00341d07@@3U__s_GUID@@B@ATL@@QAE@PAUIUnknown@@@Z 10003e62 f i Biometrics.obj
 0001:00002e8b       ??0CAtlModule@ATL@@QAE@XZ  10003e8b f i Biometrics.obj
 0001:00002ecc       ??0CParseBuffer@CRegParser@ATL@@QAE@H@Z 10003ecc f i Biometrics.obj
 0001:00002f02       ??0_ATL_MSG@ATL@@QAE@PAUHWND__@@IIJH@Z 10003f02 f i Biometrics.obj
 0001:00002f3a       ??1?$CComAggObject@VCOPOSBiometrics@@@ATL@@UAE@XZ 10003f3a f i Biometrics.obj
 0001:00002f5e       ??1?$CComEnumImpl@UIEnumConnectionPoints@@$1?_GUID_b196b285_bab4_101a_b69c_00aa00341d07@@3U__s_GUID@@BPAUIConnectionPoint@@V?$_CopyInterface@UIConnectionPoint@@@ATL@@@ATL@@UAE@XZ 10003f5e f i Biometrics.obj
 0001:00002f9e       ??1?$CComEnumImpl@UIEnumConnections@@$1?_GUID_b196b287_bab4_101a_b69c_00aa00341d07@@3U__s_GUID@@BUtagCONNECTDATA@@V?$_Copy@UtagCONNECTDATA@@@ATL@@@ATL@@UAE@XZ 10003f9e f i Biometrics.obj
 0001:00002fde       ??1?$CComObject@V?$CComEnum@UIEnumConnectionPoints@@$1?_GUID_b196b285_bab4_101a_b69c_00aa00341d07@@3U__s_GUID@@BPAUIConnectionPoint@@V?$_CopyInterface@UIConnectionPoint@@@ATL@@VCComSingleThreadModel@6@@ATL@@@ATL@@UAE@XZ 10003fde f i Biometrics.obj
 0001:00003001       ??1?$CComObject@V?$CComEnum@UIEnumConnections@@$1?_GUID_b196b287_bab4_101a_b69c_00aa00341d07@@3U__s_GUID@@BUtagCONNECTDATA@@V?$_Copy@UtagCONNECTDATA@@@ATL@@VCComSingleThreadModel@6@@ATL@@@ATL@@UAE@XZ 10004001 f i Biometrics.obj
 0001:00003024       ??1?$CComObject@VCOPOSBiometrics@@@ATL@@UAE@XZ 10004024 f i Biometrics.obj
 0001:000030e2       ??1?$CComObjectCached@VCComClassFactory@ATL@@@ATL@@UAE@XZ 100040e2 f i Biometrics.obj
 0001:000030f8       ??1?$CComObjectRootEx@VCComMultiThreadModel@ATL@@@ATL@@QAE@XZ 100040f8 f i Biometrics.obj
 0001:0000310d       ??1CRegObject@ATL@@UAE@XZ  1000410d f i Biometrics.obj
 0001:0000312d       ??4?$CComPtr@UIOleClientSite@@@ATL@@QAEPAUIOleClientSite@@PAU2@@Z 1000412d f i Biometrics.obj
 0001:0000312d       ??4?$CComPtr@UIAdviseSink@@@ATL@@QAEPAUIAdviseSink@@PAU2@@Z 1000412d f i Biometrics.obj
 0001:0000312d       ??4?$CComPtr@UIUnknown@@@ATL@@QAEPAUIUnknown@@PAU2@@Z 1000412d f i Biometrics.obj
 0001:00003161       ??4?$CComQIPtr@UIOleObject@@$1?_GUID_00000112_0000_0000_c000_000000000046@@3U__s_GUID@@B@ATL@@QAEPAUIOleObject@@PAUIUnknown@@@Z 10004161 f i Biometrics.obj
 0001:00003186       ??4?$CComQIPtr@UISpecifyPropertyPages@@$1?_GUID_b196b28b_bab4_101a_b69c_00aa00341d07@@3U__s_GUID@@B@ATL@@QAEPAUISpecifyPropertyPages@@PAUIUnknown@@@Z 10004186 f i Biometrics.obj
 0001:000031ab       ??_G?$CComContainedObject@VCOPOSBiometrics@@@ATL@@UAEPAXI@Z 100041ab f i Biometrics.obj
 0001:000031ab       ??_E?$CComContainedObject@VCOPOSBiometrics@@@ATL@@UAEPAXI@Z 100041ab f i Biometrics.obj
 0001:000031d0       ??_E?$CComObject@VCOPOSBiometrics@@@ATL@@UAEPAXI@Z 100041d0 f i Biometrics.obj
 0001:000031d0       ??_G?$CComObject@VCOPOSBiometrics@@@ATL@@UAEPAXI@Z 100041d0 f i Biometrics.obj
 0001:000031f5       ?Add@?$CSimpleArray@GV?$CSimpleArrayEqualHelper@G@ATL@@@ATL@@QAEHABG@Z 100041f5 f i Biometrics.obj
 0001:00003279       ?Add@?$CSimpleMap@PA_WPA_WVCExpansionVectorEqualHelper@ATL@@@ATL@@QAEHABQA_W0@Z 10004279 f i Biometrics.obj
 0001:000032ce       ?Add@CComDynamicUnkArray@ATL@@QAEKPAUIUnknown@@@Z 100042ce f i Biometrics.obj
 0001:00003389       ?Add@CExpansionVector@ATL@@QAEHPB_W0@Z 10004389 f i Biometrics.obj
 0001:0000348d       ?AddString@CParseBuffer@CRegParser@ATL@@QAEHPB_W@Z 1000448d f i Biometrics.obj
 0001:000034c2       ?AddValue@CRegParser@ATL@@IAEJAAVCRegKey@2@PB_WPA_W@Z 100044c2 f i Biometrics.obj
 0001:000037e3       ?Allocate@?$CAtlSafeAllocBufferManager@VCCRTAllocator@ATL@@@_ATL_SAFE_ALLOCA_IMPL@ATL@@QAEPAXK@Z 100047e3 f i Biometrics.obj
 0001:00003810       ?Allocate@?$CTempBuffer@E$0BAA@VCCRTAllocator@ATL@@@ATL@@QAEPAEI@Z 10004810 f i Biometrics.obj
 0001:0000383f       ?Allocate@?$CTempBuffer@_W$0BAA@VCCRTAllocator@ATL@@@ATL@@QAEPA_WI@Z 1000483f f i Biometrics.obj
 0001:0000386e       ?Allocate@?$CTempBuffer@_W$0EAA@VCCRTAllocator@ATL@@@ATL@@QAEPA_WI@Z 1000486e f i Biometrics.obj
 0001:0000389d       ?AllocateHeap@?$CTempBuffer@_W$0BAA@VCCRTAllocator@ATL@@@ATL@@AAEXI@Z 1000489d f i Biometrics.obj
 0001:0000389d       ?AllocateHeap@?$CTempBuffer@E$0BAA@VCCRTAllocator@ATL@@@ATL@@AAEXI@Z 1000489d f i Biometrics.obj
 0001:0000389d       ?AllocateHeap@?$CTempBuffer@_W$0EAA@VCCRTAllocator@ATL@@@ATL@@AAEXI@Z 1000489d f i Biometrics.obj
 0001:000038c2       ?Append@CParseBuffer@CRegParser@ATL@@QAEHPB_WH@Z 100048c2 f i Biometrics.obj
 0001:00003950       ?AtlCallTermFunc@ATL@@YGXPAU_ATL_MODULE70@1@@Z 10004950 f i Biometrics.obj
 0001:00003994       ?AtlCoTaskMemCAlloc@ATL@@YAPAXKK@Z 10004994 f i Biometrics.obj
 0001:000039c1       ?AtlCoTaskMemRecalloc@ATL@@YAPAXPAXKK@Z 100049c1 f i Biometrics.obj
 0001:000039f1       ?AtlComModuleGetClassObject@ATL@@YGJPAU_ATL_COM_MODULE70@1@ABU_GUID@@1PAPAX@Z 100049f1 f i Biometrics.obj
 0001:00003ae4       ?AtlComModuleRegisterServer@ATL@@YGJPAU_ATL_COM_MODULE70@1@HPBU_GUID@@@Z 10004ae4 f i Biometrics.obj
 0001:00003b6c       ?AtlComModuleUnregisterServer@ATL@@YGJPAU_ATL_COM_MODULE70@1@HPBU_GUID@@@Z 10004b6c f i Biometrics.obj
 0001:00003bf4       ?AtlComQIPtrAssign2@ATL@@YAXPAPAUIUnknown@@PAU2@ABU_GUID@@@Z 10004bf4 f i Biometrics.obj
 0001:00003c23       ?AtlCreateTargetDC@ATL@@YGPAUHDC__@@PAU2@PAUtagDVTARGETDEVICE@@@Z 10004c23 f i Biometrics.obj
 0001:00003c8c       ?AtlCrtErrorCheck@ATL@@YAHH@Z 10004c8c f i Biometrics.obj
 0001:00003cc7       ?AtlHiMetricToPixel@ATL@@YGXPBUtagSIZE@@PAU2@@Z 10004cc7 f i Biometrics.obj
 0001:00003d3c       ?AtlHresultFromLastError@ATL@@YAJXZ 10004d3c f i Biometrics.obj
 0001:00003d53       ?AtlHresultFromWin32@ATL@@YAJK@Z 10004d53 f i Biometrics.obj
 0001:00003d68       ?AtlIPersistStreamInit_Load@ATL@@YGJPAUIStream@@PBUATL_PROPMAP_ENTRY@1@PAXPAUIUnknown@@@Z 10004d68 f i Biometrics.obj
 0001:00003f48       ?AtlIPersistStreamInit_Save@ATL@@YGJPAUIStream@@HPBUATL_PROPMAP_ENTRY@1@PAXPAUIUnknown@@@Z 10004f48 f i Biometrics.obj
 0001:000040e0       ?AtlInternalOleLoadFromStream@ATL@@YAJPAUIStream@@ABU_GUID@@PAPAXTClassesAllowedInStream@1@K@Z 100050e0 f i Biometrics.obj
 0001:00004206       ?AtlInternalQueryInterface@ATL@@YGJPAXPBU_ATL_INTMAP_ENTRY@1@ABU_GUID@@PAPAX@Z 10005206 f i Biometrics.obj
 0001:000042a9       ?AtlLoadTypeLib@ATL@@YGJPAUHINSTANCE__@@PB_WPAPA_WPAPAUITypeLib@@@Z 100052a9 f i Biometrics.obj
 0001:00004487       ?AtlModuleAddTermFunc@ATL@@YGJPAU_ATL_MODULE70@1@P6GXK@ZK@Z 10005487 f i Biometrics.obj
 0001:000044e4       ?AtlRegisterClassCategoriesHelper@ATL@@YGJABU_GUID@@PBU_ATL_CATMAP_ENTRY@1@H@Z 100054e4 f i Biometrics.obj
 0001:000047c4       ?AtlRegisterTypeLib@ATL@@YGJPAUHINSTANCE__@@PB_W@Z 100057c4 f i Biometrics.obj
 0001:0000494c       ?AtlThrowImpl@ATL@@YGXJ@Z  1000594c f i Biometrics.obj
 0001:0000496a       ?AtlUnRegisterTypeLib@ATL@@YGJPAUHINSTANCE__@@PB_W@Z 1000596a f i Biometrics.obj
 0001:00004a15       ?AtlWinModuleAddCreateWndData@ATL@@YGXPAU_ATL_WIN_MODULE70@1@PAU_AtlCreateWndData@1@PAX@Z 10005a15 f i Biometrics.obj
 0001:00004a69       ?AtlWinModuleExtractCreateWndData@ATL@@YGPAXPAU_ATL_WIN_MODULE70@1@@Z 10005a69 f i Biometrics.obj
 0001:00004acc       ?AtlWinModuleRegisterClassExW@ATL@@YGGPAU_ATL_WIN_MODULE70@1@PBUtagWNDCLASSEXW@@@Z 10005acc f i Biometrics.obj
 0001:00004b0b       ?CanForceRemoveKey@CRegParser@ATL@@IAEHPB_W@Z 10005b0b f i Biometrics.obj
 0001:00004b3a       ?ChToByte@CRegParser@ATL@@KAE_W@Z 10005b3a f i Biometrics.obj
 0001:00004b6d       ?Cleanup@CComTypeInfoHolder@ATL@@SGXK@Z 10005b6d f i Biometrics.obj
 0001:00004ba0       ?ClearReplacements@CExpansionVector@ATL@@QAEJXZ 10005ba0 f i Biometrics.obj
 0001:00004bdd       ?Close@CRegKey@ATL@@QAEJXZ 10005bdd f i Biometrics.obj
 0001:00004bf7       ?Create@?$CWindowImpl@VCOPOSBiometrics@@VCWindow@ATL@@V?$CWinTraits@$0FGAAAAAA@$0A@@3@@ATL@@QAEPAUHWND__@@PAU3@V_U_RECT@2@PB_WKKV_U_MENUorID@2@PAX@Z 10005bf7 f i Biometrics.obj
 0001:00004c3b       ?Create@?$CWindowImplBaseT@VCWindow@ATL@@V?$CWinTraits@$0FGAAAAAA@$0A@@2@@ATL@@QAEPAUHWND__@@PAU3@V_U_RECT@2@PB_WKKV_U_MENUorID@2@GPAX@Z 10005c3b f i Biometrics.obj
 0001:00004cd7       ?Create@CRegKey@ATL@@QAEJPAUHKEY__@@PB_WPA_WKKPAU_SECURITY_ATTRIBUTES@@PAK@Z 10005cd7 f i Biometrics.obj
 0001:00004d3a       ?CreateInstance@?$CComCreator@V?$CComAggObject@VCOPOSBiometrics@@@ATL@@@ATL@@SGJPAXABU_GUID@@PAPAX@Z 10005d3a f i Biometrics.obj
 0001:00004db0       ?CreateInstance@?$CComCreator@V?$CComObject@VCOPOSBiometrics@@@ATL@@@ATL@@SGJPAXABU_GUID@@PAPAX@Z 10005db0 f i Biometrics.obj
 0001:00004e31       ?CreateInstance@?$CComObject@V?$CComEnum@UIEnumConnectionPoints@@$1?_GUID_b196b285_bab4_101a_b69c_00aa00341d07@@3U__s_GUID@@BPAUIConnectionPoint@@V?$_CopyInterface@UIConnectionPoint@@@ATL@@VCComSingleThreadModel@6@@ATL@@@ATL@@SGJPAPAV12@@Z 10005e31 f i Biometrics.obj
 0001:00004e78       ?CreateInstance@?$CComObject@V?$CComEnum@UIEnumConnections@@$1?_GUID_b196b287_bab4_101a_b69c_00aa00341d07@@3U__s_GUID@@BUtagCONNECTDATA@@V?$_Copy@UtagCONNECTDATA@@@ATL@@VCComSingleThreadModel@6@@ATL@@@ATL@@SGJPAPAV12@@Z 10005e78 f i Biometrics.obj
 0001:00004ebf       ?DefaultReflectionHandler@?$CWindowImplRoot@VCWindow@ATL@@@ATL@@SAHPAUHWND__@@IIJAAJ@Z 10005ebf f i Biometrics.obj
 0001:00004f32       ?DeleteSubKey@CRegKey@ATL@@QAEJPB_W@Z 10005f32 f i Biometrics.obj
 0001:00004f55       ?DoEvent@COPOSBiometrics@@IAEXIIJ@Z 10005f55 f i Biometrics.obj
 0001:00004fd5       ?DoVerbHide@?$IOleObjectImpl@VCOPOSBiometrics@@@ATL@@QAEJPBUtagRECT@@PAUHWND__@@@Z 10005fd5 f i Biometrics.obj
 0001:0000500b       ?DoVerbInPlaceActivate@?$IOleObjectImpl@VCOPOSBiometrics@@@ATL@@QAEJPBUtagRECT@@PAUHWND__@@@Z 1000600b f i Biometrics.obj
 0001:0000503e       ?DoVerbPrimary@?$IOleObjectImpl@VCOPOSBiometrics@@@ATL@@QAEJPBUtagRECT@@PAUHWND__@@@Z 1000603e f i Biometrics.obj
 0001:000050ca       ?DoVerbProperties@CComControlBase@ATL@@QAEJPBUtagRECT@@PAUHWND__@@@Z 100060ca f i Biometrics.obj
 0001:000051f1       ?DoVerbShow@?$IOleObjectImpl@VCOPOSBiometrics@@@ATL@@QAEJPBUtagRECT@@PAUHWND__@@@Z 100061f1 f i Biometrics.obj
 0001:00005216       ?DoVerbUIActivate@?$IOleObjectImpl@VCOPOSBiometrics@@@ATL@@QAEJPBUtagRECT@@PAUHWND__@@@Z 10006216 f i Biometrics.obj
 0001:00005253       ?DoesVerbActivate@CComControlBase@ATL@@QAEHJ@Z 10006253 f i Biometrics.obj
 0001:00005274       ?DoesVerbUIActivate@CComControlBase@ATL@@QAEHJ@Z 10006274 f i Biometrics.obj
 0001:000052a9       ?EndOfVar@CRegParser@ATL@@IAEHXZ 100062a9 f i Biometrics.obj
 0001:000052c9       ?EscapeSingleQuote@CAtlModule@ATL@@SAXPA_WIPB_W@Z 100062c9 f i Biometrics.obj
 0001:00005318       ?FindKey@?$CSimpleMap@PA_WPA_WVCExpansionVectorEqualHelper@ATL@@@ATL@@QBEHABQA_W@Z 10006318 f i Biometrics.obj
 0001:0000534f       ?FireTheEvent@?$CProxy_IOPOSEvents@VCOPOSBiometrics@@@@IAEXPAVOposVariant@@IAAJPB_WJ@Z 1000634f f i Biometrics.obj
 0001:000053e1       ?FireViewChange@CComControlBase@ATL@@QAEJXZ 100063e1 f i Biometrics.obj
 0001:0000542a       ?Fire_DataEvent@?$CProxy_IOPOSEvents@VCOPOSBiometrics@@@@QAEXJ@Z 1000642a f i Biometrics.obj
 0001:000054b6       ?Fire_DirectIOEvent@?$CProxy_IOPOSEvents@VCOPOSBiometrics@@@@QAEXJPAJPAPA_W@Z 100064b6 f i Biometrics.obj
 0001:0000559c       ?Fire_ErrorEvent@?$CProxy_IOPOSEvents@VCOPOSBiometrics@@@@QAEXJJJPAJ@Z 1000659c f i Biometrics.obj
 0001:00005683       ?Fire_StatusUpdateEvent@?$CProxy_IOPOSEvents@VCOPOSBiometrics@@@@QAEXJ@Z 10006683 f i Biometrics.obj
 0001:0000570f       ?FreeHeap@?$CTempBuffer@_W$0EAA@VCCRTAllocator@ATL@@@ATL@@AAEXXZ 1000670f f i Biometrics.obj
 0001:0000570f       ?FreeHeap@?$CTempBuffer@E$0BAA@VCCRTAllocator@ATL@@@ATL@@AAEXXZ 1000670f f i Biometrics.obj
 0001:0000570f       ?FreeHeap@?$CTempBuffer@_W$0BAA@VCCRTAllocator@ATL@@@ATL@@AAEXXZ 1000670f f i Biometrics.obj
 0001:00005718       ?GetAmbientLocaleID@CComControlBase@ATL@@QAEJAAK@Z 10006718 f i Biometrics.obj
 0001:00005774       ?GetAmbientUserMode@CComControlBase@ATL@@QAEJAAH@Z 10006774 f i Biometrics.obj
 0001:000057e4       ?GetAt@CComDynamicUnkArray@ATL@@QAEPAUIUnknown@@H@Z 100067e4 f i Biometrics.obj
 0001:00005800       ?GetClassObject@CComModule@ATL@@QAEJABU_GUID@@0PAPAX@Z 10006800 f i Biometrics.obj
 0001:000058a2       ?GetConnMap@COPOSBiometrics@@SAPBU_ATL_CONNMAP_ENTRY@ATL@@PAH@Z 100068a2 f i Biometrics.obj
 0001:00005912       ?GetCookie@CComDynamicUnkArray@ATL@@QAGKPAPAUIUnknown@@@Z 10006912 f i Biometrics.obj
 0001:0000594a       ?GetIDsOfNames@CComTypeInfoHolder@ATL@@QAEJABU_GUID@@PAPA_WIKPAJ@Z 1000694a f i Biometrics.obj
 0001:00005a58       ?GetKeyAt@?$CSimpleMap@PA_WPA_WVCExpansionVectorEqualHelper@ATL@@@ATL@@QBEAAPA_WH@Z 10006a58 f i Biometrics.obj
 0001:00005a7d       ?GetPagesHelper@?$ISpecifyPropertyPagesImpl@VCOPOSBiometrics@@@ATL@@IAEJPAUtagCAUUID@@PBUATL_PROPMAP_ENTRY@2@@Z 10006a7d f i Biometrics.obj
 0001:00005ba4       ?GetProperty@?$CComPtr@UIDispatch@@@ATL@@SAJPAUIDispatch@@JPAUtagVARIANT@@@Z 10006ba4 f i Biometrics.obj
 0001:00005bf3       ?GetSizeMax@CComVariant@ATL@@QBEJPAT_ULARGE_INTEGER@@@Z 10006bf3 f i Biometrics.obj
 0001:00005dad       ?GetStreamSize@CComBSTR@ATL@@SAKPA_W@Z 10006dad f i Biometrics.obj
 0001:00005dc7       ?GetTI@CComTypeInfoHolder@ATL@@QAEJK@Z 10006dc7 f i Biometrics.obj
 0001:00005fb0       ?GetTI@CComTypeInfoHolder@ATL@@QAEJKPAPAUITypeInfo@@@Z 10006fb0 f i Biometrics.obj
 0001:00005ff2       ?GetUnknown@CComDynamicUnkArray@ATL@@QAGPAUIUnknown@@K@Z 10006ff2 f i Biometrics.obj
 0001:00006013       ?GetValueAt@?$CSimpleMap@PA_WPA_WVCExpansionVectorEqualHelper@ATL@@@ATL@@QBEAAPA_WH@Z 10007013 f i Biometrics.obj
 0001:00006039       ?GetZoomInfo@CComControlBase@ATL@@QAEXAAUATL_DRAWINFO@@@Z 10007039 f i Biometrics.obj
 0001:000060cc       ?HKeyFromString@CRegParser@ATL@@KAPAUHKEY__@@PA_W@Z 100070cc f i Biometrics.obj
 0001:000060fa       ?HasSubKeys@CRegParser@ATL@@IAEHPAUHKEY__@@@Z 100070fa f i Biometrics.obj
 0001:0000612f       ?IDataObject_GetData@CComControlBase@ATL@@QAEJPAUtagFORMATETC@@PAUtagSTGMEDIUM@@@Z 1000712f f i Biometrics.obj
 0001:000062d5       ?IOleInPlaceObject_InPlaceDeactivate@CComControlBase@ATL@@QAEJXZ 100072d5 f i Biometrics.obj
 0001:0000635c       ?IOleInPlaceObject_SetObjectRects@CComControlBase@ATL@@QAEJPBUtagRECT@@0@Z 1000735c f i Biometrics.obj
 0001:00006429       ?IOleInPlaceObject_UIDeactivate@CComControlBase@ATL@@QAEJXZ 10007429 f i Biometrics.obj
 0001:000064eb       ?IOleObject_Advise@CComControlBase@ATL@@QAEJPAUIAdviseSink@@PAK@Z 100074eb f i Biometrics.obj
 0001:00006515       ?IOleObject_Close@CComControlBase@ATL@@QAEJK@Z 10007515 f i Biometrics.obj
 0001:000065f9       ?IOleObject_GetClientSite@CComControlBase@ATL@@QAEJPAPAUIOleClientSite@@@Z 100075f9 f i Biometrics.obj
 0001:00006622       ?IOleObject_SetClientSite@CComControlBase@ATL@@QAEJPAUIOleClientSite@@@Z 10007622 f i Biometrics.obj
 0001:00006661       ?IOleObject_SetExtent@CComControlBase@ATL@@QAEJKPAUtagSIZE@@@Z 10007661 f i Biometrics.obj
 0001:00006715       ?IPSI_GetIPersistStreamInit@?$IPersistStorageImpl@VCOPOSBiometrics@@@ATL@@AAEPAUIPersistStreamInit@@XZ 10007715 f i Biometrics.obj
 0001:00006757       ?IPersistStreamInit_Load@?$IPersistStreamInitImpl@VCOPOSBiometrics@@@ATL@@QAEJPAUIStream@@PBUATL_PROPMAP_ENTRY@2@@Z 10007757 f i Biometrics.obj
 0001:00006783       ?IPersistStreamInit_Save@?$IPersistStreamInitImpl@VCOPOSBiometrics@@@ATL@@QAEJPAUIStream@@HPBUATL_PROPMAP_ENTRY@2@@Z 10007783 f i Biometrics.obj
 0001:000067b8       ?IQuickActivate_QuickActivate@CComControlBase@ATL@@QAEJPAUtagQACONTAINER@@PAUtagQACONTROL@@@Z 100077b8 f i Biometrics.obj
 0001:000069fa       ?IViewObject_Draw@CComControlBase@ATL@@QAEJKJPAXPAUtagDVTARGETDEVICE@@PAUHDC__@@2PBU_RECTL@@3@Z 100079fa f i Biometrics.obj
 0001:00006aa2       ?InPlaceActivate@CComControlBase@ATL@@QAEJJPBUtagRECT@@@Z 10007aa2 f i Biometrics.obj
 0001:00006d13       ?Init@?$CComEnumImpl@UIEnumConnectionPoints@@$1?_GUID_b196b285_bab4_101a_b69c_00aa00341d07@@3U__s_GUID@@BPAUIConnectionPoint@@V?$_CopyInterface@UIConnectionPoint@@@ATL@@@ATL@@QAEJPAPAUIConnectionPoint@@0PAUIUnknown@@W4CComEnumFlags@2@@Z 10007d13 f i Biometrics.obj
 0001:00006df2       ?Init@?$CComEnumImpl@UIEnumConnections@@$1?_GUID_b196b287_bab4_101a_b69c_00aa00341d07@@3U__s_GUID@@BUtagCONNECTDATA@@V?$_Copy@UtagCONNECTDATA@@@ATL@@@ATL@@QAEJPAUtagCONNECTDATA@@0PAUIUnknown@@W4CComEnumFlags@2@@Z 10007df2 f i Biometrics.obj
 0001:00006ed1       ?Init@CComModule@ATL@@QAEJPAU_ATL_OBJMAP_ENTRY30@2@PAUHINSTANCE__@@PBU_GUID@@@Z 10007ed1 f i Biometrics.obj
 0001:00006f30       ?Init@CDynamicStdCallThunk2@ATL@@QAEHKPAX@Z 10007f30 f i Biometrics.obj
 0001:00006f5b       ?InlineIsEqualUnknown@ATL@@YGHABU_GUID@@@Z 10007f5b f i Biometrics.obj
 0001:00006f83       ?InternalGetSite@CComControlBase@ATL@@QAEJABU_GUID@@PAPAX@Z 10007f83 f i Biometrics.obj
 0001:00006fb1       ?InternalSetAtIndex@?$CSimpleMap@PA_WPA_WVCExpansionVectorEqualHelper@ATL@@@ATL@@QAEXHABQA_W0@Z 10007fb1 f i Biometrics.obj
 0001:00006fdb       ?Invoke@CComTypeInfoHolder@ATL@@QAEJPAUIDispatch@@JABU_GUID@@KGPAUtagDISPPARAMS@@PAUtagVARIANT@@PAUtagEXCEPINFO@@PAI@Z 10007fdb f i Biometrics.obj
 0001:0000701e       ?IsEqualObject@?$CComPtrBase@UIOleClientSite@@@ATL@@QAE_NPAUIUnknown@@@Z 1000801e f i Biometrics.obj
 0001:0000701e       ?IsEqualObject@?$CComPtrBase@UITypeInfo@@@ATL@@QAE_NPAUIUnknown@@@Z 1000801e f i Biometrics.obj
 0001:0000708b       ?IsSpace@CRegParser@ATL@@IAEH_W@Z 1000808b f i Biometrics.obj
 0001:000070b5       ?LoadNameCache@CComTypeInfoHolder@ATL@@QAEJPAUITypeInfo@@@Z 100080b5 f i Biometrics.obj
 0001:00007203       ?Lookup@?$CSimpleMap@PA_WPA_WVCExpansionVectorEqualHelper@ATL@@@ATL@@QBEPA_WABQA_W@Z 10008203 f i Biometrics.obj
 0001:00007229       ?NextToken@CRegParser@ATL@@IAEJPA_W@Z 10008229 f i Biometrics.obj
 0001:00007361       ?OnKillFocus@CComControlBase@ATL@@QAEJIIJAAH@Z 10008361 f i Biometrics.obj
 0001:000073bc       ?OnMouseActivate@CComControlBase@ATL@@QAEJIIJAAH@Z 100083bc f i Biometrics.obj
 0001:0000742a       ?OnPaint@CComControlBase@ATL@@QAEJIIJAAH@Z 1000842a f i Biometrics.obj
 0001:000074dc       ?OnSetFocus@CComControlBase@ATL@@QAEJIIJAAH@Z 100084dc f i Biometrics.obj
 0001:00007565       ?Open@CRegKey@ATL@@QAEJPAUHKEY__@@PB_WK@Z 10008565 f i Biometrics.obj
 0001:000075ae       ?PreProcessBuffer@CRegParser@ATL@@QAEJPA_WPAPA_W@Z 100085ae f i Biometrics.obj
 0001:00007818       ?ProcessWindowMessage@?$CComControl@VCOPOSBiometrics@@V?$CWindowImpl@VCOPOSBiometrics@@VCWindow@ATL@@V?$CWinTraits@$0FGAAAAAA@$0A@@3@@ATL@@@ATL@@UAEHPAUHWND__@@IIJAAJK@Z 10008818 f i Biometrics.obj
 0001:000078b7       ?PutProperty@?$CComPtr@UIDispatch@@@ATL@@SAJPAUIDispatch@@JPAUtagVARIANT@@@Z 100088b7 f i Biometrics.obj
 0001:00007949       ?ReadFromStream@CComBSTR@ATL@@QAEJPAUIStream@@@Z 10008949 f i Biometrics.obj
 0001:00007a77       ?ReadFromStream@CComVariant@ATL@@QAEJPAUIStream@@GTClassesAllowedInStream@2@K@Z 10008a77 f i Biometrics.obj
 0001:00007bfd       ?RecurseDeleteKey@CRegKey@ATL@@QAEJPB_W@Z 10008bfd f i Biometrics.obj
 0001:00007cbf       ?RegCreateKeyExW@CAtlTransactionManager@ATL@@QAEJPAUHKEY__@@PB_WKPA_WKKQAU_SECURITY_ATTRIBUTES@@PAPAU3@PAK@Z 10008cbf f i Biometrics.obj
 0001:00007d22       ?RegDeleteKeyW@CAtlTransactionManager@ATL@@QAEJPAUHKEY__@@PB_W@Z 10008d22 f i Biometrics.obj
 0001:00007d74       ?RegOpenKeyExW@CAtlTransactionManager@ATL@@QAEJPAUHKEY__@@PB_WKKPAPAU3@@Z 10008d74 f i Biometrics.obj
 0001:00007dcb       ?Register@_ATL_WNDCLASSINFOW@ATL@@QAEGPAP6GJPAUHWND__@@IIJ@Z@Z 10008dcb f i Biometrics.obj
 0001:00007deb       ?RegisterBuffer@CRegParser@ATL@@QAEJPA_WH@Z 10008deb f i Biometrics.obj
 0001:00007f24       ?RegisterFromResource@CRegObject@ATL@@IAEJPB_W00H@Z 10008f24 f i Biometrics.obj
 0001:0000805a       ?RegisterServer@?$CAtlModuleT@VCComModule@ATL@@@ATL@@QAEJHPBU_GUID@@@Z 1000905a f i Biometrics.obj
 0001:00008088       ?RegisterServer@CComModule@ATL@@QAEJHPBU_GUID@@@Z 10009088 f i Biometrics.obj
 0001:000080fe       ?RegisterSubkeys@CRegParser@ATL@@IAEJPA_WPAUHKEY__@@HH@Z 100090fe f i Biometrics.obj
 0001:000086cd       ?Remove@CComDynamicUnkArray@ATL@@QAEHK@Z 100096cd f i Biometrics.obj
 0001:000086f6       ?RemoveAll@?$CSimpleMap@PA_WPA_WVCExpansionVectorEqualHelper@ATL@@@ATL@@QAEXXZ 100096f6 f i Biometrics.obj
 0001:00008722       ?ResourceRegisterSz@CRegObject@ATL@@QAGJPB_W00@Z 10009722 f i Biometrics.obj
 0001:0000874f       ?ResourceUnregisterSz@CRegObject@ATL@@QAGJPB_W00@Z 1000974f f i Biometrics.obj
 0001:0000877c       ?SendOnDataChange@CComControlBase@ATL@@QAEJK@Z 1000977c f i Biometrics.obj
 0001:000087c9       ?SetControlFocus@CComControlBase@ATL@@QAEHH@Z 100097c9 f i Biometrics.obj
 0001:00008866       ?SetMultiStringValue@CRegKey@ATL@@QAEJPB_W0@Z 10009866 f i Biometrics.obj
 0001:000088c2       ?SetStringValue@CRegKey@ATL@@QAEJPB_W0K@Z 100098c2 f i Biometrics.obj
 0001:0000890b       ?SkipAssignment@CRegParser@ATL@@IAEJPA_W@Z 1000990b f i Biometrics.obj
 0001:00008970       ?SkipWhiteSpace@CRegParser@ATL@@IAEXXZ 10009970 f i Biometrics.obj
 0001:00008992       ?StrChrW@CRegParser@ATL@@KAPA_WPA_W_W@Z 10009992 f i Biometrics.obj
 0001:000089cf       ?Term@CAtlModule@ATL@@QAEXXZ 100099cf f i Biometrics.obj
 0001:00008a08       ?Term@CComModule@ATL@@QAEXXZ 10009a08 f i Biometrics.obj
 0001:00008a60       ?UnregisterServer@?$CAtlModuleT@VCComModule@ATL@@@ATL@@QAEJHPBU_GUID@@@Z 10009a60 f i Biometrics.obj
 0001:00008a86       ?UnregisterServer@CComModule@ATL@@QAEJHPBU_GUID@@@Z 10009a86 f i Biometrics.obj
 0001:00008afc       ?UpdateRegistryFromResource@CAtlModule@ATL@@QAGJIHPAU_ATL_REGMAP_ENTRY@2@@Z 10009afc f i Biometrics.obj
 0001:00008cc7       ?UpdateRegistryFromResource@CAtlModule@ATL@@QAGJPB_WHPAU_ATL_REGMAP_ENTRY@2@@Z 10009cc7 f i Biometrics.obj
 0001:00008e98       ?VTFromRegType@CRegParser@ATL@@KAHPB_WAAG@Z 10009e98 f i Biometrics.obj
 0001:00008f05       ?WindowProc@?$CWindowImplBaseT@VCWindow@ATL@@V?$CWinTraits@$0FGAAAAAA@$0A@@2@@ATL@@SGJPAUHWND__@@IIJ@Z 10009f05 f i Biometrics.obj
 0001:00008ff7       ?WriteToStream@CComBSTR@ATL@@QAEJPAUIStream@@@Z 10009ff7 f i Biometrics.obj
 0001:0000904e       ?WriteToStream@CComVariant@ATL@@QAEJPAUIStream@@@Z 1000a04e f i Biometrics.obj
 0001:000091c8       ?WriteToStream@CComVariant@ATL@@QAEJPAUIStream@@G@Z 1000a1c8 f i Biometrics.obj
 0001:00009231       ?_AtlInitialConstruct@?$CComObjectRootEx@VCComMultiThreadModel@ATL@@@ATL@@QAEJXZ 1000a231 f i Biometrics.obj
 0001:00009246       ?_AtlVerifyStackAvailable@_ATL_SAFE_ALLOCA_IMPL@ATL@@YA_NK@Z 1000a246 f i Biometrics.obj
 0001:000092c4       ?copy@?$_Copy@UtagCONNECTDATA@@@ATL@@SAJPAUtagCONNECTDATA@@PBU3@@Z 1000a2c4 f i Biometrics.obj
 0001:000092fa       ?copy@?$_CopyInterface@UIConnectionPoint@@@ATL@@SAJPAPAUIConnectionPoint@@PBQAU3@@Z 1000a2fa f i Biometrics.obj
 0001:00009328       ?memcpy_s@Checked@ATL@@YAXPAXIPBXI@Z 1000a328 f i Biometrics.obj
 0001:00009347       ?ocscpy_s@@YA_NPA_WIPB_W@Z 1000a347 f i Biometrics.obj
 0001:00009376       ?ocslen@@YAHPB_W@Z         1000a376 f i Biometrics.obj
 0001:00009396       ?wcscpy_s@Checked@ATL@@YAXPA_WIPB_W@Z 1000a396 f i Biometrics.obj
 0001:000093b2       _DllCanUnloadNow@0         1000a3b2 f   Biometrics.obj
 0001:000093be       _DllGetClassObject@12      1000a3be f   Biometrics.obj
 0001:000093cc       _DllMain@12                1000a3cc f   Biometrics.obj
 0001:0000940e       _DllRegisterServer@0       1000a40e f   Biometrics.obj
 0001:0000941d       _DllUnregisterServer@0     1000a41d f   Biometrics.obj
 0001:0000942c       _InlineIsEqualGUID         1000a42c f i Biometrics.obj
 0001:0000945c       ___local_stdio_printf_options 1000a45c f i Biometrics.obj
 0001:00009462       __vswprintf_s_l            1000a462 f i Biometrics.obj
 0001:0000950f       _swprintf_s                1000a50f f i Biometrics.obj
 0001:0000952b       ??0?$CComControl@VCOPOSBiometrics@@V?$CWindowImpl@VCOPOSBiometrics@@VCWindow@ATL@@V?$CWinTraits@$0FGAAAAAA@$0A@@3@@ATL@@@ATL@@QAE@XZ 1000a52b f i BiometricsImpl.obj
 0001:00009552       ??0?$CProxy_IOPOSEvents@VCOPOSBiometrics@@@@QAE@XZ 1000a552 f i BiometricsImpl.obj
 0001:00009572       ??0CComControlBase@ATL@@QAE@AAPAUHWND__@@@Z 1000a572 f i BiometricsImpl.obj
 0001:000095bc       ??0COPOSBiometrics@@QAE@XZ 1000a5bc f   BiometricsImpl.obj
 0001:000095f2       ??1?$CComControl@VCOPOSBiometrics@@V?$CWindowImpl@VCOPOSBiometrics@@VCWindow@ATL@@V?$CWinTraits@$0FGAAAAAA@$0A@@3@@ATL@@@ATL@@UAE@XZ 1000a5f2 f i BiometricsImpl.obj
 0001:0000960b       ??1?$IConnectionPointImpl@VCOPOSBiometrics@@$1?DIID__IOPOSBiometricsEvents@@3U_GUID@@BVCComDynamicUnkArray@ATL@@@ATL@@QAE@XZ 1000a60b f i BiometricsImpl.obj
 0001:0000960b       ??1?$IConnectionPointImpl@VCOPOSBiometrics@@$1?IID_IPropertyNotifySink@@3U_GUID@@BVCComDynamicUnkArray@ATL@@@ATL@@QAE@XZ 1000a60b f i BiometricsImpl.obj
 0001:00009648       ??1CComControlBase@ATL@@UAE@XZ 1000a648 f i BiometricsImpl.obj
 0001:000096ab       ??1COPOSBiometrics@@UAE@XZ 1000a6ab f   BiometricsImpl.obj
 0001:000096f3       ??1OposVariantResult@@QAE@XZ 1000a6f3 f i BiometricsImpl.obj
 0001:00009714       ??1_CW@@QAE@XZ             1000a714 f i BiometricsImpl.obj
 0001:0000972d       ?BeginEnrollCapture@COPOSBiometrics@@UAGJPA_W0PAJ@Z 1000a72d f   BiometricsImpl.obj
 0001:000097ad       ?BeginVerifyCapture@COPOSBiometrics@@UAGJPAJ@Z 1000a7ad f   BiometricsImpl.obj
 0001:000097c8       ?CheckHealth@COPOSBiometrics@@UAGJJPAJ@Z 1000a7c8 f   BiometricsImpl.obj
 0001:00009817       ?ClaimDevice@COPOSBiometrics@@UAGJJPAJ@Z 1000a817 f   BiometricsImpl.obj
 0001:0000988c       ?ClearInput@COPOSBiometrics@@UAGJPAJ@Z 1000a88c f   BiometricsImpl.obj
 0001:000098a7       ?ClearInputProperties@COPOSBiometrics@@UAGJPAJ@Z 1000a8a7 f   BiometricsImpl.obj
 0001:000098c2       ?Close@COPOSBiometrics@@UAGJPAJ@Z 1000a8c2 f   BiometricsImpl.obj
 0001:00009930       ?CompareFirmwareVersion@COPOSBiometrics@@UAGJPA_WPAJ1@Z 1000a930 f   BiometricsImpl.obj
 0001:000099b0       ?DirectIO@COPOSBiometrics@@UAGJJPAJPAPA_W0@Z 1000a9b0 f   BiometricsImpl.obj
 0001:00009a5e       ?DoInvoke@COPOSBiometrics@@IAEJJPAVOposVariant@@IHPAJ_N@Z 1000aa5e f   BiometricsImpl.obj
 0001:00009b20       ?EndCapture@COPOSBiometrics@@UAGJPAJ@Z 1000ab20 f   BiometricsImpl.obj
 0001:00009b3b       ?EventClose@COPOSBiometrics@@IAEXXZ 1000ab3b f i BiometricsImpl.obj
 0001:00009b6e       ?EventInit@COPOSBiometrics@@IAEJXZ 1000ab6e f i BiometricsImpl.obj
 0001:00009c3a       ?EventUninit@COPOSBiometrics@@IAEXXZ 1000ac3a f i BiometricsImpl.obj
 0001:00009c8c       ?EventWindowProc@COPOSBiometrics@@IAGJIIJ@Z 1000ac8c f i BiometricsImpl.obj
 0001:00009d60       ?FinalConstruct@COPOSBiometrics@@QAEJXZ 1000ad60 f   BiometricsImpl.obj
 0001:00009d99       ?FireEventCleanup@COPOSBiometrics@@IAEXXZ 1000ad99 f i BiometricsImpl.obj
 0001:00009daf       ?FireEventSetup@COPOSBiometrics@@IAE_NXZ 1000adaf f i BiometricsImpl.obj
 0001:00009de3       ?FreezeEvents@COPOSBiometrics@@MAGJH@Z 1000ade3 f   BiometricsImpl.obj
 0001:00009e43       ?GetOposProp@COPOSBiometrics@@IAEJJPAFJ@Z 1000ae43 f   BiometricsImpl.obj
 0001:00009e66       ?GetOposProp@COPOSBiometrics@@IAEJJPAJJ@Z 1000ae66 f   BiometricsImpl.obj
 0001:00009f24       ?GetOposProp@COPOSBiometrics@@IAEJJPAPA_WJ@Z 1000af24 f   BiometricsImpl.obj
 0001:00009fef       ?Identify@COPOSBiometrics@@UAGJJJFUtagVARIANT@@PAU2@JPAJ@Z 1000afef f   BiometricsImpl.obj
 0001:0000a0fc       ?IdentifyMatch@COPOSBiometrics@@UAGJJJFPA_WUtagVARIANT@@PAU2@PAJ@Z 1000b0fc f   BiometricsImpl.obj
 0001:0000a21f       ?OnDraw@COPOSBiometrics@@MAEJAAUATL_DRAWINFO@@@Z 1000b21f f   BiometricsImpl.obj
 0001:0000a2bf       ?Open@COPOSBiometrics@@UAGJPA_WPAJ@Z 1000b2bf f   BiometricsImpl.obj
 0001:0000aa58       ?ProcessPrematchData@COPOSBiometrics@@UAGJPA_W0PAPA_WPAJ@Z 1000ba58 f   BiometricsImpl.obj
 0001:0000ab10       ?ReleaseDevice@COPOSBiometrics@@UAGJPAJ@Z 1000bb10 f   BiometricsImpl.obj
 0001:0000ab5f       ?ResetStatistics@COPOSBiometrics@@UAGJPA_WPAJ@Z 1000bb5f f   BiometricsImpl.obj
 0001:0000abb6       ?RetrieveStatistics@COPOSBiometrics@@UAGJPAPA_WPAJ@Z 1000bbb6 f   BiometricsImpl.obj
 0001:0000ac0d       ?SOProcessID@COPOSBiometrics@@UAGJPAJ@Z 1000bc0d f   BiometricsImpl.obj
 0001:0000ac21       ?SetCOFreezeEvents@COPOSBiometrics@@IAEXF@Z 1000bc21 f   BiometricsImpl.obj
 0001:0000acac       ?SetOposProp@COPOSBiometrics@@IAEJJJJ@Z 1000bcac f   BiometricsImpl.obj
 0001:0000ad8a       ?UpdateFirmware@COPOSBiometrics@@UAGJPA_WPAJ@Z 1000bd8a f   BiometricsImpl.obj
 0001:0000ade1       ?UpdateStatistics@COPOSBiometrics@@UAGJPA_WPAJ@Z 1000bde1 f   BiometricsImpl.obj
 0001:0000ae38       ?Verify@COPOSBiometrics@@UAGJJJFPA_WPAPA_WPAFPAJ31J3@Z 1000be38 f   BiometricsImpl.obj
 0001:0000afaf       ?VerifyMatch@COPOSBiometrics@@UAGJJJFPA_W0PAPA_WPAFPAJ313@Z 1000bfaf f   BiometricsImpl.obj
 0001:0000b139       ?get_Algorithm@COPOSBiometrics@@UAGJPAJ@Z 1000c139 f   BiometricsImpl.obj
 0001:0000b152       ?get_AlgorithmList@COPOSBiometrics@@UAGJPAPA_W@Z 1000c152 f   BiometricsImpl.obj
 0001:0000b16b       ?get_AutoDisable@COPOSBiometrics@@UAGJPAF@Z 1000c16b f   BiometricsImpl.obj
 0001:0000b181       ?get_BIR@COPOSBiometrics@@UAGJPAPA_W@Z 1000c181 f   BiometricsImpl.obj
 0001:0000b19a       ?get_BinaryConversion@COPOSBiometrics@@UAGJPAJ@Z 1000c19a f   BiometricsImpl.obj
 0001:0000b1b0       ?get_CapCompareFirmwareVersion@COPOSBiometrics@@UAGJPAF@Z 1000c1b0 f   BiometricsImpl.obj
 0001:0000b1c9       ?get_CapPowerReporting@COPOSBiometrics@@UAGJPAJ@Z 1000c1c9 f   BiometricsImpl.obj
 0001:0000b1e2       ?get_CapPrematchData@COPOSBiometrics@@UAGJPAF@Z 1000c1e2 f   BiometricsImpl.obj
 0001:0000b1fb       ?get_CapRawSensorData@COPOSBiometrics@@UAGJPAF@Z 1000c1fb f   BiometricsImpl.obj
 0001:0000b214       ?get_CapRealTimeData@COPOSBiometrics@@UAGJPAF@Z 1000c214 f   BiometricsImpl.obj
 0001:0000b22d       ?get_CapSensorColor@COPOSBiometrics@@UAGJPAJ@Z 1000c22d f   BiometricsImpl.obj
 0001:0000b246       ?get_CapSensorOrientation@COPOSBiometrics@@UAGJPAJ@Z 1000c246 f   BiometricsImpl.obj
 0001:0000b25f       ?get_CapSensorType@COPOSBiometrics@@UAGJPAJ@Z 1000c25f f   BiometricsImpl.obj
 0001:0000b278       ?get_CapStatisticsReporting@COPOSBiometrics@@UAGJPAF@Z 1000c278 f   BiometricsImpl.obj
 0001:0000b291       ?get_CapTemplateAdaptation@COPOSBiometrics@@UAGJPAF@Z 1000c291 f   BiometricsImpl.obj
 0001:0000b2aa       ?get_CapUpdateFirmware@COPOSBiometrics@@UAGJPAF@Z 1000c2aa f   BiometricsImpl.obj
 0001:0000b2c3       ?get_CapUpdateStatistics@COPOSBiometrics@@UAGJPAF@Z 1000c2c3 f   BiometricsImpl.obj
 0001:0000b2dc       ?get_CheckHealthText@COPOSBiometrics@@UAGJPAPA_W@Z 1000c2dc f   BiometricsImpl.obj
 0001:0000b2f5       ?get_Claimed@COPOSBiometrics@@UAGJPAF@Z 1000c2f5 f   BiometricsImpl.obj
 0001:0000b30b       ?get_ControlObjectDescription@COPOSBiometrics@@UAGJPAPA_W@Z 1000c30b f   BiometricsImpl.obj
 0001:0000b348       ?get_ControlObjectVersion@COPOSBiometrics@@UAGJPAJ@Z 1000c348 f   BiometricsImpl.obj
 0001:0000b35b       ?get_DataCount@COPOSBiometrics@@UAGJPAJ@Z 1000c35b f   BiometricsImpl.obj
 0001:0000b371       ?get_DataEventEnabled@COPOSBiometrics@@UAGJPAF@Z 1000c371 f   BiometricsImpl.obj
 0001:0000b387       ?get_DeviceDescription@COPOSBiometrics@@UAGJPAPA_W@Z 1000c387 f   BiometricsImpl.obj
 0001:0000b3a0       ?get_DeviceEnabled@COPOSBiometrics@@UAGJPAF@Z 1000c3a0 f   BiometricsImpl.obj
 0001:0000b3b6       ?get_DeviceName@COPOSBiometrics@@UAGJPAPA_W@Z 1000c3b6 f   BiometricsImpl.obj
 0001:0000b3cf       ?get_FreezeEvents@COPOSBiometrics@@UAGJPAF@Z 1000c3cf f   BiometricsImpl.obj
 0001:0000b3e5       ?get_OpenResult@COPOSBiometrics@@UAGJPAJ@Z 1000c3e5 f   BiometricsImpl.obj
 0001:0000b3fc       ?get_PowerNotify@COPOSBiometrics@@UAGJPAJ@Z 1000c3fc f   BiometricsImpl.obj
 0001:0000b412       ?get_PowerState@COPOSBiometrics@@UAGJPAJ@Z 1000c412 f   BiometricsImpl.obj
 0001:0000b428       ?get_RawSensorData@COPOSBiometrics@@UAGJPAPA_W@Z 1000c428 f   BiometricsImpl.obj
 0001:0000b441       ?get_RealTimeDataEnabled@COPOSBiometrics@@UAGJPAF@Z 1000c441 f   BiometricsImpl.obj
 0001:0000b45a       ?get_ResultCode@COPOSBiometrics@@UAGJPAJ@Z 1000c45a f   BiometricsImpl.obj
 0001:0000b498       ?get_ResultCodeExtended@COPOSBiometrics@@UAGJPAJ@Z 1000c498 f   BiometricsImpl.obj
 0001:0000b4ae       ?get_SensorBPP@COPOSBiometrics@@UAGJPAJ@Z 1000c4ae f   BiometricsImpl.obj
 0001:0000b4c7       ?get_SensorColor@COPOSBiometrics@@UAGJPAJ@Z 1000c4c7 f   BiometricsImpl.obj
 0001:0000b4e0       ?get_SensorHeight@COPOSBiometrics@@UAGJPAJ@Z 1000c4e0 f   BiometricsImpl.obj
 0001:0000b4f9       ?get_SensorOrientation@COPOSBiometrics@@UAGJPAJ@Z 1000c4f9 f   BiometricsImpl.obj
 0001:0000b512       ?get_SensorType@COPOSBiometrics@@UAGJPAJ@Z 1000c512 f   BiometricsImpl.obj
 0001:0000b52b       ?get_SensorWidth@COPOSBiometrics@@UAGJPAJ@Z 1000c52b f   BiometricsImpl.obj
 0001:0000b544       ?get_ServiceObjectDescription@COPOSBiometrics@@UAGJPAPA_W@Z 1000c544 f   BiometricsImpl.obj
 0001:0000b55d       ?get_ServiceObjectVersion@COPOSBiometrics@@UAGJPAJ@Z 1000c55d f   BiometricsImpl.obj
 0001:0000b573       ?get_State@COPOSBiometrics@@UAGJPAJ@Z 1000c573 f   BiometricsImpl.obj
 0001:0000b59f       ?put_Algorithm@COPOSBiometrics@@UAGJJ@Z 1000c59f f   BiometricsImpl.obj
 0001:0000b5b8       ?put_AutoDisable@COPOSBiometrics@@UAGJF@Z 1000c5b8 f   BiometricsImpl.obj
 0001:0000b5d5       ?put_BinaryConversion@COPOSBiometrics@@UAGJJ@Z 1000c5d5 f   BiometricsImpl.obj
 0001:0000b5eb       ?put_DataEventEnabled@COPOSBiometrics@@UAGJF@Z 1000c5eb f   BiometricsImpl.obj
 0001:0000b608       ?put_DeviceEnabled@COPOSBiometrics@@UAGJF@Z 1000c608 f   BiometricsImpl.obj
 0001:0000b625       ?put_FreezeEvents@COPOSBiometrics@@UAGJF@Z 1000c625 f   BiometricsImpl.obj
 0001:0000b671       ?put_PowerNotify@COPOSBiometrics@@UAGJJ@Z 1000c671 f   BiometricsImpl.obj
 0001:0000b687       ?put_RealTimeDataEnabled@COPOSBiometrics@@UAGJF@Z 1000c687 f   BiometricsImpl.obj
 0001:0000b6a7       ?put_SensorColor@COPOSBiometrics@@UAGJJ@Z 1000c6a7 f   BiometricsImpl.obj
 0001:0000b6c0       ?put_SensorOrientation@COPOSBiometrics@@UAGJJ@Z 1000c6c0 f   BiometricsImpl.obj
 0001:0000b6d9       ?put_SensorType@COPOSBiometrics@@UAGJJ@Z 1000c6d9 f   BiometricsImpl.obj
 0001:0000b6f2       ?s_EventWindowProc@COPOSBiometrics@@KGJPAUHWND__@@IIJ@Z 1000c6f2 f i BiometricsImpl.obj
 0001:0000b744       ??_U@YAPAXI@Z              1000c744 f   LIBCMT:new_array.obj
 0001:0000b74d       ??3@YAXPAXI@Z              1000c74d f   LIBCMT:delete_scalar_size.obj
 0001:0000b75b       ??_V@YAXPAX@Z              1000c75b f   LIBCMT:delete_array.obj
 0001:0000b760       ??_V@YAXPAXI@Z             1000c760 f   LIBCMT:delete_array_size.obj
 0001:0000b76e       ??$__crt_fast_encode_pointer@PAP6AXXZ@@YAPAP6AXXZQAP6AXXZ@Z 1000c76e f i LIBCMT:utility.obj
 0001:0000b76e       ??$__crt_fast_encode_pointer@P6GHPAU_RTL_CONDITION_VARIABLE@@PAU_RTL_CRITICAL_SECTION@@K@Z@@YAP6GHPAU_RTL_CONDITION_VARIABLE@@PAU_RTL_CRITICAL_SECTION@@K@ZQ6GH01K@Z@Z 1000c76e f i LIBCMT:thread_safe_statics.obj
 0001:0000b76e       ??$__crt_fast_encode_pointer@PAX@@YAPAXQAX@Z 1000c76e f i libvcruntime:winapi_downlevel.obj
 0001:0000b76e       ??$__crt_fast_encode_pointer@P6GXPAU_RTL_CONDITION_VARIABLE@@@Z@@YAP6GXPAU_RTL_CONDITION_VARIABLE@@@ZQ6GX0@Z@Z 1000c76e f i LIBCMT:thread_safe_statics.obj
 0001:0000b7cf       ___scrt_acquire_startup_lock 1000c7cf f   LIBCMT:utility.obj
 0001:0000b801       ___scrt_dllmain_after_initialize_c 1000c801 f   LIBCMT:utility.obj
 0001:0000b82c       ___scrt_dllmain_before_initialize_c 1000c82c f   LIBCMT:utility.obj
 0001:0000b83a       ___scrt_dllmain_crt_thread_attach 1000c83a f   LIBCMT:utility.obj
 0001:0000b859       ___scrt_dllmain_crt_thread_detach 1000c859 f   LIBCMT:utility.obj
 0001:0000b866       ___scrt_dllmain_exception_filter 1000c866 f   LIBCMT:utility.obj
 0001:0000b89a       ___scrt_dllmain_uninitialize_c 1000c89a f   LIBCMT:utility.obj
 0001:0000b8bd       ___scrt_dllmain_uninitialize_critical 1000c8bd f   LIBCMT:utility.obj
 0001:0000b8ca       ___scrt_initialize_crt     1000c8ca f   LIBCMT:utility.obj
 0001:0000b903       ___scrt_initialize_onexit_tables 1000c903 f   LIBCMT:utility.obj
 0001:0000b9a8       ___scrt_is_nonwritable_in_current_image 1000c9a8 f   LIBCMT:utility.obj
 0001:0000ba3c       ___scrt_release_startup_lock 1000ca3c f   LIBCMT:utility.obj
 0001:0000ba59       ___scrt_uninitialize_crt   1000ca59 f   LIBCMT:utility.obj
 0001:0000ba81       __onexit                   1000ca81 f   LIBCMT:utility.obj
 0001:0000babc       _atexit                    1000cabc f   LIBCMT:utility.obj
 0001:0000bad1       ??3@YAXPAX@Z               1000cad1 f   LIBCMT:delete_scalar.obj
 0001:0000bc08       __Init_thread_footer       1000cc08 f   LIBCMT:thread_safe_statics.obj
 0001:0000bc52       __Init_thread_header       1000cc52 f   LIBCMT:thread_safe_statics.obj
 0001:0000bca4       __Init_thread_notify       1000cca4 f   LIBCMT:thread_safe_statics.obj
 0001:0000bce6       __Init_thread_wait         1000cce6 f   LIBCMT:thread_safe_statics.obj
 0001:0000bd46       ___raise_securityfailure   1000cd46 f   LIBCMT:gs_report.obj
 0001:0000bd6e       ___report_gsfailure        1000cd6e f   LIBCMT:gs_report.obj
 0001:0000be67       ___report_rangecheckfailure 1000ce67 f   LIBCMT:gs_report.obj
 0001:0000be73       ___report_securityfailure  1000ce73 f   LIBCMT:gs_report.obj
 0001:0000bf41       ??2@YAPAXIABUnothrow_t@std@@@Z 1000cf41 f   LIBCMT:new_scalar_nothrow.obj
 0001:0000bf91       ??_U@YAPAXIABUnothrow_t@std@@@Z 1000cf91 f   LIBCMT:new_array_nothrow.obj
 0001:0000bf9a       @__security_check_cookie@4 1000cf9a f   LIBCMT:_secchk_.obj
 0001:0000bfb0       __SEH_prolog4_GS           1000cfb0 f   LIBCMT:_sehprolg4gs_.obj
 0001:0000bff9       __SEH_epilog4_GS           1000cff9 f   LIBCMT:_sehprolg4gs_.obj
 0001:0000c010       __alloca_probe_16          1000d010 f   LIBCMT:alloca16.obj
 0001:0000c026       __alloca_probe_8           1000d026     LIBCMT:alloca16.obj
 0001:0000c040       __alloca_probe             1000d040 f   LIBCMT:chkstk.obj
 0001:0000c040       __chkstk                   1000d040 f   LIBCMT:chkstk.obj
 0001:0000c38d       __DllMainCRTStartup@12     1000d38d f   LIBCMT:dll_dllmain.obj
 0001:0000c3b0       ??2@YAPAXI@Z               1000d3b0 f   LIBCMT:new_scalar.obj
 0001:0000c3e0       ___isa_available_init      1000d3e0 f   LIBCMT:_cpu_disp_.obj
 0001:0000c577       ___scrt_is_ucrt_dll_in_use 1000d577 f   LIBCMT:ucrt_detection.obj
 0001:0000c583       ___scrt_fastfail           1000d583 f   LIBCMT:utility_desktop.obj
 0001:0000c69d       __crt_debugger_hook        1000d69d f   LIBCMT:utility_desktop.obj
 0001:0000c6b0       __SEH_prolog4              1000d6b0 f   LIBCMT:_sehprolg4_.obj
 0001:0000c6f6       __SEH_epilog4              1000d6f6 f   LIBCMT:_sehprolg4_.obj
 0001:0000c70b       @_guard_check_icall_nop@4  1000d70b f i LIBCMT:guard_support.obj
 0001:0000c759       ___security_init_cookie    1000d759 f   LIBCMT:gs_support.obj
 0001:0000c7a4       ?__scrt_initialize_type_info@@YAXXZ 1000d7a4 f   LIBCMT:tncleanup.obj
 0001:0000c7b0       ?__scrt_uninitialize_type_info@@YAXXZ 1000d7b0 f   LIBCMT:tncleanup.obj
 0001:0000c7bc       ___local_stdio_scanf_options 1000d7bc f i LIBCMT:default_local_stdio_options.obj
 0001:0000c7c2       ___scrt_initialize_default_local_stdio_options 1000d7c2 f   LIBCMT:default_local_stdio_options.obj
 0001:0000c7df       ___scrt_get_dyn_tls_init_callback 1000d7df f   LIBCMT:dyn_tls_init.obj
 0001:0000c7e5       __RTC_Initialize           1000d7e5 f   LIBCMT:_initsect_.obj
 0001:0000c811       __RTC_Terminate            1000d811 f   LIBCMT:_initsect_.obj
 0001:0000c83d       ??0bad_alloc@std@@QAE@ABV01@@Z 1000d83d f i LIBCMT:throw_bad_alloc.obj
 0001:0000c858       ??0bad_alloc@std@@QAE@XZ   1000d858 f i LIBCMT:throw_bad_alloc.obj
 0001:0000c870       ??0bad_array_new_length@std@@QAE@ABV01@@Z 1000d870 f i LIBCMT:throw_bad_alloc.obj
 0001:0000c88b       ??0bad_array_new_length@std@@QAE@XZ 1000d88b f i LIBCMT:throw_bad_alloc.obj
 0001:0000c8a3       ??0exception@std@@QAE@ABV01@@Z 1000d8a3 f i LIBCMT:throw_bad_alloc.obj
 0001:0000c8cf       ??1bad_exception@std@@UAE@XZ 1000d8cf f i libvcruntime:frame.obj
 0001:0000c8cf       ??1bad_alloc@std@@UAE@XZ   1000d8cf f i LIBCMT:throw_bad_alloc.obj
 0001:0000c8cf       ??1bad_array_new_length@std@@UAE@XZ 1000d8cf f i LIBCMT:throw_bad_alloc.obj
 0001:0000c8e0       ??_Ebad_array_new_length@std@@UAEPAXI@Z 1000d8e0 f i LIBCMT:throw_bad_alloc.obj
 0001:0000c8e0       ??_Gbad_exception@std@@UAEPAXI@Z 1000d8e0 f i libvcruntime:frame.obj
 0001:0000c8e0       ??_Eexception@std@@UAEPAXI@Z 1000d8e0 f i LIBCMT:throw_bad_alloc.obj
 0001:0000c8e0       ??_Gexception@std@@UAEPAXI@Z 1000d8e0 f i LIBCMT:throw_bad_alloc.obj
 0001:0000c8e0       ??_Ebad_exception@std@@UAEPAXI@Z 1000d8e0 f i libvcruntime:frame.obj
 0001:0000c8e0       ??_Gbad_array_new_length@std@@UAEPAXI@Z 1000d8e0 f i LIBCMT:throw_bad_alloc.obj
 0001:0000c8e0       ??_Ebad_alloc@std@@UAEPAXI@Z 1000d8e0 f i LIBCMT:throw_bad_alloc.obj
 0001:0000c8e0       ??_Gbad_alloc@std@@UAEPAXI@Z 1000d8e0 f i LIBCMT:throw_bad_alloc.obj
 0001:0000c90d       ?__scrt_throw_std_bad_alloc@@YAXXZ 1000d90d f   LIBCMT:throw_bad_alloc.obj
 0001:0000c92a       ?__scrt_throw_std_bad_array_new_length@@YAXXZ 1000d92a f   LIBCMT:throw_bad_alloc.obj
 0001:0000c947       ?what@exception@std@@UBEPBDXZ 1000d947 f i LIBCMT:throw_bad_alloc.obj
 0001:0000c954       ??_Etype_info@@UAEPAXI@Z   1000d954 f i LIBCMT:std_type_info_static.obj
 0001:0000c954       ??_Gtype_info@@UAEPAXI@Z   1000d954 f i LIBCMT:std_type_info_static.obj
 0001:0000c977       ??0CAtlBaseModule@ATL@@QAE@XZ 1000d977 f   atls:atlbase.obj
 0001:0000c9ca       ??0_ATL_BASE_MODULE70@ATL@@QAE@XZ 1000d9ca f i atls:atlbase.obj
 0001:0000c9ed       ??1CAtlBaseModule@ATL@@QAE@XZ 1000d9ed f   atls:atlbase.obj
 0001:0000cada       ?Init@_stdcallthunk@ATL@@QAEHKPAX@Z 1000dada f i atls:atlthunk.obj
 0001:0000cb0f       ?__AllocStdCallThunk_cmn@@YAPAXXZ 1000db0f f   atls:atlthunk.obj
 0001:0000cbd5       ?__FreeStdCallThunk_cmn@@YAXPAX@Z 1000dbd5 f   atls:atlthunk.obj
 0001:0000cc70       _AtlThunk_AllocateData@0   1000dc70 f   atls:atlthunk.obj
 0001:0000ccd5       _AtlThunk_DataToCode@4     1000dcd5 f   atls:atlthunk.obj
 0001:0000cd1c       _AtlThunk_FreeData@4       1000dd1c f   atls:atlthunk.obj
 0001:0000cd72       _AtlThunk_InitData@12      1000dd72 f   atls:atlthunk.obj
 0001:0000cdc1       __get_purecall_handler     1000ddc1 f   libvcruntime:purevirt.obj
 0001:0000cdd6       __purecall                 1000ddd6 f   libvcruntime:purevirt.obj
 0001:0000cdf2       _wcsstr                    1000ddf2 f   libvcruntime:wcsstr.obj
 0001:0000d0b0       __except_handler4          1000e0b0 f   libvcruntime:_chandler4_.obj
 0001:0000d207       _memcmp                    1000e207 f   libvcruntime:_memcmp_.obj
 0001:0000e1b0       _memcpy                    1000f1b0 f   libvcruntime:memcpy.obj
 0001:0000e730       _memset                    1000f730 f   libvcruntime:memset.obj
 0001:0000e88a       ___vcrt_initialize         1000f88a f   libvcruntime:initialization.obj
 0001:0000e8b3       ___vcrt_thread_attach      1000f8b3 f   libvcruntime:initialization.obj
 0001:0000e8be       ___vcrt_thread_detach      1000f8be f   libvcruntime:initialization.obj
 0001:0000e8c9       ___vcrt_uninitialize       1000f8c9 f   libvcruntime:initialization.obj
 0001:0000e8e8       ___vcrt_uninitialize_critical 1000f8e8 f   libvcruntime:initialization.obj
 0001:0000e8f0       ?GetRangeOfTrysToCheck@__FrameHandler3@@SA?AU?$pair@Viterator@TryBlockMap@__FrameHandler3@@V123@@std@@AAVTryBlockMap@1@HH@Z 1000f8f0 f   libvcruntime:trnsctrl.obj
 0001:0000e972       ?_CallCatchBlock2@@YAPAXPAUEHRegistrationNode@@PBU_s_FuncInfo@@PAXHK@Z 1000f972 f   libvcruntime:trnsctrl.obj
 0001:0000e9d0       ?_CallSETranslator@@YAHPAUEHExceptionRecord@@PAUEHRegistrationNode@@PAX2PBU_s_FuncInfo@@H1@Z 1000f9d0 f   libvcruntime:trnsctrl.obj
 0001:0000eaab       ?_JumpToContinuation@@YGXPAXPAUEHRegistrationNode@@@Z 1000faab f   libvcruntime:trnsctrl.obj
 0001:0000eadb       ?_UnwindNestedFrames@@YGXPAUEHRegistrationNode@@PAUEHExceptionRecord@@@Z 1000fadb f   libvcruntime:trnsctrl.obj
 0001:0000eb2e       __CatchGuardHandler        1000fb2e f   libvcruntime:trnsctrl.obj
 0001:0000eb5f       __CreateFrameInfo          1000fb5f f   libvcruntime:trnsctrl.obj
 0001:0000eb83       __FindAndUnlinkFrame       1000fb83 f   libvcruntime:trnsctrl.obj
 0001:0000ebc8       __TranslatorGuardHandler   1000fbc8 f   libvcruntime:trnsctrl.obj
 0001:0000ec65       ___CxxFrameHandler3        1000fc65 f   libvcruntime:trnsctrl.obj
 0001:0000ec9b       ___std_type_info_compare   1000fc9b f   libvcruntime:std_type_info.obj
 0001:0000ecd7       ___std_type_info_destroy_list 1000fcd7 f   libvcruntime:std_type_info.obj
 0001:0000ecfa       ___std_exception_copy      1000fcfa f   libvcruntime:std_exception.obj
 0001:0000ed5d       ___std_exception_destroy   1000fd5d f   libvcruntime:std_exception.obj
 0001:0000ed7c       __CxxThrowException@8      1000fd7c f   libvcruntime:throw.obj
 0001:0000edf0       _memmove                   1000fdf0 f   libvcruntime:memmove.obj
 0001:0000f364       ___vcrt_initialize_pure_virtual_call_handler 10010364 f   libvcruntime:purevirt_data.obj
 0001:0000f370       __local_unwind4            10010370 f   libvcruntime:_exsup4_.obj
 0001:0000f448       __seh_longjmp_unwind4@4    10010448 f   libvcruntime:_exsup4_.obj
 0001:0000f470       @_EH4_CallFilterFunc@8     10010470 f   libvcruntime:_exsup4_.obj
 0001:0000f488       @_EH4_TransferToHandler@8  10010488 f   libvcruntime:_exsup4_.obj
 0001:0000f4a4       @_EH4_GlobalUnwind2@8      100104a4 f   libvcruntime:_exsup4_.obj
 0001:0000f4c0       @_EH4_LocalUnwind@16       100104c0 f   libvcruntime:_exsup4_.obj
 0001:0000f4d7       ___except_validate_context_record 100104d7 f   libvcruntime:jbcxrval.obj
 0001:0000f507       ___except_validate_jump_buffer 10010507 f   libvcruntime:jbcxrval.obj
 0001:0000f534       ___vcrt_freefls@4          10010534 f   libvcruntime:per_thread_data.obj
 0001:0000f550       ___vcrt_freeptd            10010550 f   libvcruntime:per_thread_data.obj
 0001:0000f586       ___vcrt_getptd             10010586 f   libvcruntime:per_thread_data.obj
 0001:0000f594       ___vcrt_getptd_noexit      10010594 f   libvcruntime:per_thread_data.obj
 0001:0000f626       ___vcrt_initialize_ptd     10010626 f   libvcruntime:per_thread_data.obj
 0001:0000f659       ___vcrt_uninitialize_ptd   10010659 f   libvcruntime:per_thread_data.obj
 0001:0000f674       ___vcrt_initialize_locks   10010674 f   libvcruntime:locks.obj
 0001:0000f6b0       ___vcrt_uninitialize_locks 100106b0 f   libvcruntime:locks.obj
 0001:0000f812       ___vcrt_FlsAlloc           10010812 f   libvcruntime:winapi_downlevel.obj
 0001:0000f84d       ___vcrt_FlsFree            1001084d f   libvcruntime:winapi_downlevel.obj
 0001:0000f888       ___vcrt_FlsGetValue        10010888 f   libvcruntime:winapi_downlevel.obj
 0001:0000f8c3       ___vcrt_FlsSetValue        100108c3 f   libvcruntime:winapi_downlevel.obj
 0001:0000f901       ___vcrt_InitializeCriticalSectionEx 10010901 f   libvcruntime:winapi_downlevel.obj
 0001:0000f948       ___vcrt_initialize_winapi_thunks 10010948 f   libvcruntime:winapi_downlevel.obj
 0001:0000f971       ___vcrt_uninitialize_winapi_thunks 10010971 f   libvcruntime:winapi_downlevel.obj
 0001:0001009a       ??$TypeMatchHelper@$$CBU_s_HandlerType@@@@YAHPBU_s_HandlerType@@PBU_s_CatchableType@@PBU_s_ThrowInfo@@@Z 1001109a f i libvcruntime:frame.obj
 0001:00010128       ??$__InternalCxxFrameHandler@V__FrameHandler3@@@@YA?AW4_EXCEPTION_DISPOSITION@@PAUEHExceptionRecord@@PAUEHRegistrationNode@@PAU_CONTEXT@@PAXPBU_s_FuncInfo@@H1E@Z 10011128 f i libvcruntime:frame.obj
 0001:0001022a       ??0bad_exception@std@@QAE@ABV01@@Z 1001122a f i libvcruntime:frame.obj
 0001:00010245       ??0bad_exception@std@@QAE@XZ 10011245 f i libvcruntime:frame.obj
 0001:0001025d       ??8type_info@@QBE_NABV0@@Z 1001125d f i libvcruntime:frame.obj
 0001:000104c4       ?FrameUnwindToEmptyState@__FrameHandler3@@SAXPAUEHRegistrationNode@@PAXPBU_s_FuncInfo@@@Z 100114c4 f   libvcruntime:frame.obj
 0001:000104dc       ?FrameUnwindToState@__FrameHandler3@@SAXPAUEHRegistrationNode@@PAXPBU_s_FuncInfo@@H@Z 100114dc f   libvcruntime:frame.obj
 0001:0001065e       ?_CallMemberFunction1@@YGXQAX00@Z 1001165e f i libvcruntime:frame.obj
 0001:0001066e       ?_CallMemberFunction2@@YGXQAX00H@Z 1001166e f i libvcruntime:frame.obj
 0001:00010681       ?getESTypes@__FrameHandler3@@SAPBU_s_ESTypeList@@PBU_s_FuncInfo@@@Z 10011681 f i libvcruntime:frame.obj
 0001:00010690       __CallSettingFrame@12      10011690 f   libvcruntime:lowhelpr.obj
 0001:000106b7       __NLG_Return               100116b7     libvcruntime:lowhelpr.obj
 0001:000106e0       __global_unwind2           100116e0 f   libvcruntime:_exsup_.obj
 0001:00010746       __local_unwind2            10011746 f   libvcruntime:_exsup_.obj
 0001:000107ca       __abnormal_termination     100117ca f   libvcruntime:_exsup_.obj
 0001:000107f0       __NLG_Notify1              100117f0 f   libvcruntime:_exsup_.obj
 0001:000107fc       __NLG_Notify               100117fc f   libvcruntime:_exsup_.obj
 0001:00010813       __NLG_Dispatch             10011813     libvcruntime:_exsup_.obj
 0001:00010813       __NLG_Dispatch2            10011813     libvcruntime:_exsup_.obj
 0001:0001081b       __NLG_Call                 1001181b f   libvcruntime:_exsup_.obj
 0001:0001081d       __NLG_Return2              1001181d     libvcruntime:_exsup_.obj
 0001:0001081e       _unexpected                1001181e f   libvcruntime:unexpected.obj
 0001:0001083b       ?GetCurrentState@__FrameHandler3@@SAHPAUEHRegistrationNode@@PAXPBU_s_FuncInfo@@@Z 1001183b f   libvcruntime:ehstate.obj
 0001:00010858       ?SetState@__FrameHandler3@@SAXPAUEHRegistrationNode@@PBU_s_FuncInfo@@H@Z 10011858 f   libvcruntime:ehstate.obj
 0001:00010866       ___DestructExceptionObject 10011866 f   libvcruntime:ehhelpers.obj
 0001:00010906       ?_CallMemberFunction0@@YGXQAX0@Z 10011906 f i libvcruntime:ehhelpers.obj
 0001:00010913       __IsExceptionObjectToBeDestroyed 10011913 f   libvcruntime:ehhelpers.obj
 0001:00010939       ___AdjustPointer           10011939 f   libvcruntime:ehhelpers.obj
 0001:0001095e       ___FrameUnwindFilter       1001195e f   libvcruntime:ehhelpers.obj
 0001:000109a3       _free                      100119a3 f   libucrt:free.obj
 0001:000109c0       ___acrt_call_reportfault   100119c0 f   libucrt:invalid_parameter.obj
 0001:00010afb       ___acrt_initialize_invalid_parameter_handler 10011afb f   libucrt:invalid_parameter.obj
 0001:00010b0a       __invalid_parameter        10011b0a f   libucrt:invalid_parameter.obj
 0001:00010b85       __invalid_parameter_noinfo 10011b85 f   libucrt:invalid_parameter.obj
 0001:00010b95       __invoke_watson            10011b95 f   libucrt:invalid_parameter.obj
 0001:00010bc8       ___acrt_errno_from_os_error 10011bc8 f   libucrt:errno.obj
 0001:00010c0b       ___acrt_errno_map_os_error 10011c0b f   libucrt:errno.obj
 0001:00010c2e       ___doserrno                10011c2e f   libucrt:errno.obj
 0001:00010c41       __errno                    10011c41 f   libucrt:errno.obj
 0001:00010c54       _calloc                    10011c54 f   libucrt:calloc.obj
 0001:00010c5f       _malloc                    10011c5f f   libucrt:malloc.obj
 0001:00010c6a       __recalloc                 10011c6a f   libucrt:recalloc.obj
 0001:00010c75       __recalloc_base            10011c75 f   libucrt:recalloc.obj
 0001:00010ce2       __resetstkoflw             10011ce2 f   libucrt:resetstk.obj
 0001:00010db3       _wcscat_s                  10011db3 f   libucrt:wcscat_s.obj
 0001:00010e28       _wcscpy_s                  10011e28 f   libucrt:wcscpy_s.obj
 0001:00010f59       _wcsncpy_s                 10011f59 f   libucrt:wcsncpy_s.obj
 0001:00011167       ??$count@D@formatting_buffer@__crt_stdio_output@@QBEIXZ 10012167 f i libucrt:output.obj
 0001:0001117f       ??$count@_W@formatting_buffer@__crt_stdio_output@@QBEIXZ 1001217f f i libucrt:output.obj
 0001:00011198       ??$ensure_buffer_is_big_enough@D@formatting_buffer@__crt_stdio_output@@QAE_NI@Z 10012198 f i libucrt:output.obj
 0001:0001121e       ??$is_wide_character_specifier@_W@__crt_stdio_output@@YA_N_K_WW4length_modifier@0@@Z 1001221e f i libucrt:output.obj
 0001:0001126d       ??$scratch_data@D@formatting_buffer@__crt_stdio_output@@QAEPADXZ 1001226d f i libucrt:output.obj
 0001:0001128b       ??$type_case_integer_parse_into_buffer@I@?$output_processor@_WV?$string_output_adapter@_W@__crt_stdio_output@@V?$format_validation_base@_WV?$string_output_adapter@_W@__crt_stdio_output@@@2@@__crt_stdio_output@@AAEXII_N@Z 1001228b f i libucrt:output.obj
 0001:00011311       ??$type_case_integer_parse_into_buffer@_K@?$output_processor@_WV?$string_output_adapter@_W@__crt_stdio_output@@V?$format_validation_base@_WV?$string_output_adapter@_W@__crt_stdio_output@@@2@@__crt_stdio_output@@AAEX_KI_N@Z 10012311 f i libucrt:output.obj
 0001:000113ac       ??$write_multiple_characters@V?$string_output_adapter@_W@__crt_stdio_output@@D@__crt_stdio_output@@YAXABV?$string_output_adapter@_W@0@DHQAH@Z 100123ac f i libucrt:output.obj
 0001:000113dd       ??0?$common_data@_W@__crt_stdio_output@@IAE@XZ 100123dd f i libucrt:output.obj
 0001:00011429       ??0?$output_adapter_data@_WV?$string_output_adapter@_W@__crt_stdio_output@@@__crt_stdio_output@@IAE@ABV?$string_output_adapter@_W@1@_KQB_WQAU__crt_locale_pointers@@QAD@Z 10012429 f i libucrt:output.obj
 0001:00011465       ??0_LocaleUpdate@@QAE@QAU__crt_locale_pointers@@@Z 10012465 f i libucrt:output.obj
 0001:000114e8       ??1formatting_buffer@__crt_stdio_output@@QAE@XZ 100124e8 f i libucrt:output.obj
 0001:00011502       ??4?$__crt_unique_heap_ptr@DU__crt_internal_free_policy@@@@QAEAAV0@$$QAV0@@Z 10012502 f i libucrt:output.obj
 0001:00011526       ?crop_zeroes@__crt_stdio_output@@YAXPADQAU__crt_locale_pointers@@@Z 10012526 f i libucrt:output.obj
 0001:0001157d       ?find_next_state@?$output_processor@_WV?$string_output_adapter@_W@__crt_stdio_output@@V?$format_validation_base@_WV?$string_output_adapter@_W@__crt_stdio_output@@@2@@__crt_stdio_output@@ABE?AW4state@2@_WW432@@Z 1001257d f i libucrt:output.obj
 0001:000115b4       ?force_decimal_point@__crt_stdio_output@@YAXPADQAU__crt_locale_pointers@@@Z 100125b4 f i libucrt:output.obj
 0001:00011610       ?parse_int_from_format_string@?$output_processor@_WV?$string_output_adapter@_W@__crt_stdio_output@@V?$format_validation_base@_WV?$string_output_adapter@_W@__crt_stdio_output@@@2@@__crt_stdio_output@@AAE_NQAH@Z 10012610 f i libucrt:output.obj
 0001:0001168a       ?process@?$output_processor@_WV?$string_output_adapter@_W@__crt_stdio_output@@V?$format_validation_base@_WV?$string_output_adapter@_W@__crt_stdio_output@@@2@@__crt_stdio_output@@QAEHXZ 1001268a f i libucrt:output.obj
 0001:000117ba       ?state_case_flag@?$output_processor@_WV?$string_output_adapter@_W@__crt_stdio_output@@V?$format_validation_base@_WV?$string_output_adapter@_W@__crt_stdio_output@@@2@@__crt_stdio_output@@AAE_NXZ 100127ba f i libucrt:output.obj
 0001:000117f7       ?state_case_normal@?$output_processor@_WV?$string_output_adapter@_W@__crt_stdio_output@@V?$format_validation_base@_WV?$string_output_adapter@_W@__crt_stdio_output@@@2@@__crt_stdio_output@@AAE_NXZ 100127f7 f i libucrt:output.obj
 0001:00011816       ?state_case_normal_common@?$output_processor@_WV?$string_output_adapter@_W@__crt_stdio_output@@V?$format_validation_base@_WV?$string_output_adapter@_W@__crt_stdio_output@@@2@@__crt_stdio_output@@AAE_NXZ 10012816 f i libucrt:output.obj
 0001:00011831       ?state_case_precision@?$output_processor@_WV?$string_output_adapter@_W@__crt_stdio_output@@V?$format_validation_base@_WV?$string_output_adapter@_W@__crt_stdio_output@@@2@@__crt_stdio_output@@AAE_NXZ 10012831 f i libucrt:output.obj
 0001:0001185a       ?state_case_size@?$output_processor@_WV?$string_output_adapter@_W@__crt_stdio_output@@V?$format_validation_base@_WV?$string_output_adapter@_W@__crt_stdio_output@@@2@@__crt_stdio_output@@AAE_NXZ 1001285a f i libucrt:output.obj
 0001:000119d6       ?state_case_type@?$output_processor@_WV?$string_output_adapter@_W@__crt_stdio_output@@V?$format_validation_base@_WV?$string_output_adapter@_W@__crt_stdio_output@@@2@@__crt_stdio_output@@AAE_NXZ 100129d6 f i libucrt:output.obj
 0001:00011c34       ?state_case_width@?$output_processor@_WV?$string_output_adapter@_W@__crt_stdio_output@@V?$format_validation_base@_WV?$string_output_adapter@_W@__crt_stdio_output@@@2@@__crt_stdio_output@@AAE_NXZ 10012c34 f i libucrt:output.obj
 0001:00011c60       ?to_integer_size@__crt_stdio_output@@YAIW4length_modifier@1@@Z 10012c60 f i libucrt:output.obj
 0001:00011cbc       ?type_case_Z@?$output_processor@_WV?$string_output_adapter@_W@__crt_stdio_output@@V?$format_validation_base@_WV?$string_output_adapter@_W@__crt_stdio_output@@@2@@__crt_stdio_output@@AAE_NXZ 10012cbc f i libucrt:output.obj
 0001:00011d1f       ?type_case_a@?$output_processor@_WV?$string_output_adapter@_W@__crt_stdio_output@@V?$format_validation_base@_WV?$string_output_adapter@_W@__crt_stdio_output@@@2@@__crt_stdio_output@@AAE_NXZ 10012d1f f i libucrt:output.obj
 0001:00011e91       ?type_case_c_tchar@?$output_processor@_WV?$string_output_adapter@_W@__crt_stdio_output@@V?$format_validation_base@_WV?$string_output_adapter@_W@__crt_stdio_output@@@2@@__crt_stdio_output@@AAE_N_W@Z 10012e91 f i libucrt:output.obj
 0001:00011f29       ?type_case_integer@?$output_processor@_WV?$string_output_adapter@_W@__crt_stdio_output@@V?$format_validation_base@_WV?$string_output_adapter@_W@__crt_stdio_output@@@2@@__crt_stdio_output@@AAE_NI_N@Z 10012f29 f i libucrt:output.obj
 0001:0001207b       ?type_case_n@?$output_processor@_WV?$string_output_adapter@_W@__crt_stdio_output@@V?$format_validation_base@_WV?$string_output_adapter@_W@__crt_stdio_output@@@2@@__crt_stdio_output@@AAE_NXZ 1001307b f i libucrt:output.obj
 0001:000120ef       ?type_case_o@?$output_processor@_WV?$string_output_adapter@_W@__crt_stdio_output@@V?$format_validation_base@_WV?$string_output_adapter@_W@__crt_stdio_output@@@2@@__crt_stdio_output@@AAE_NXZ 100130ef f i libucrt:output.obj
 0001:0001210e       ?type_case_p@?$output_processor@_WV?$string_output_adapter@_W@__crt_stdio_output@@V?$format_validation_base@_WV?$string_output_adapter@_W@__crt_stdio_output@@@2@@__crt_stdio_output@@AAE_NXZ 1001310e f i libucrt:output.obj
 0001:00012126       ?type_case_s@?$output_processor@_WV?$string_output_adapter@_W@__crt_stdio_output@@V?$format_validation_base@_WV?$string_output_adapter@_W@__crt_stdio_output@@@2@@__crt_stdio_output@@AAE_NXZ 10013126 f i libucrt:output.obj
 0001:0001219a       ?type_case_s_compute_narrow_string_length@?$output_processor@_WV?$string_output_adapter@_W@__crt_stdio_output@@V?$format_validation_base@_WV?$string_output_adapter@_W@__crt_stdio_output@@@2@@__crt_stdio_output@@ABEHH_W@Z 1001319a f i libucrt:output.obj
 0001:000121da       ?validate@?$c_string_character_source@_W@__crt_strtox@@QBE_NXZ 100131da f i libucrt:atox.obj
 0001:000121da       ?validate@?$string_output_adapter@_W@__crt_stdio_output@@QBE_NXZ 100131da f i libucrt:output.obj
 0001:000121f5       ?validate_and_update_state_at_end_of_format_string@?$format_validation_base@_WV?$string_output_adapter@_W@__crt_stdio_output@@@__crt_stdio_output@@IBE_NXZ 100131f5 f i libucrt:output.obj
 0001:00012217       ?write_character@?$string_output_adapter@_W@__crt_stdio_output@@QBE_N_WQAH@Z 10013217 f i libucrt:output.obj
 0001:0001225c       ?write_stored_string_tchar@?$output_processor@_WV?$string_output_adapter@_W@__crt_stdio_output@@V?$format_validation_base@_WV?$string_output_adapter@_W@__crt_stdio_output@@@2@@__crt_stdio_output@@AAE_N_W@Z 1001325c f i libucrt:output.obj
 0001:000122e8       ?write_string@?$string_output_adapter@_W@__crt_stdio_output@@QBEXQB_WHQAHAAV__crt_deferred_errno_cache@@@Z 100132e8 f i libucrt:output.obj
 0001:0001235b       ___stdio_common_vswprintf_s 1001335b f   libucrt:output.obj
 0001:0001237f       __seh_filter_dll           1001337f f   libucrt:exception_filter.obj
 0001:0001239f       __seh_filter_exe           1001339f f   libucrt:exception_filter.obj
 0001:00012512       ??$?RV<lambda_03b1d95aef87969028cfba75ccab2455>@@AAV<lambda_6e4b09c48022b2350581041d5f6b0c4c>@@V<lambda_22bdf7517842c4b3e53723af5aa32b9e>@@@?$__crt_seh_guarded_call@X@@QAEX$$QAV<lambda_03b1d95aef87969028cfba75ccab2455>@@AAV<lambda_6e4b09c48022b2350581041d5f6b0c4c>@@$$QAV<lambda_22bdf7517842c4b3e53723af5aa32b9e>@@@Z 10013512 f i libucrt:exit.obj
 0001:00012555       ??$__acrt_lock_and_call@V<lambda_6e4b09c48022b2350581041d5f6b0c4c>@@@@YAXW4__acrt_lock_id@@$$QAV<lambda_6e4b09c48022b2350581041d5f6b0c4c>@@@Z 10013555 f i libucrt:exit.obj
 0001:000127b2       ___acrt_initialize_thread_local_exit_callback 100137b2 f   libucrt:exit.obj
 0001:000127c1       __cexit                    100137c1 f   libucrt:exit.obj
 0001:000127d0       __exit                     100137d0 f   libucrt:exit.obj
 0001:000127e6       __is_c_termination_complete 100137e6 f   libucrt:exit.obj
 0001:00012a97       ___acrt_allocate_buffer_for_argv 10013a97 f   libucrt:argv_parsing.obj
 0001:00012aec       __configure_narrow_argv    10013aec f   libucrt:argv_parsing.obj
 0001:00012c50       ??$uninitialize@A6AXAAPAPA_W@Z@?$dual_state_global@PAPA_W@__crt_state_management@@QAEXA6AXAAPAPA_W@Z@Z 10013c50 f i libucrt:environment_initialization.obj
 0001:00012c50       ??$uninitialize@A6AXAAPAPAD@Z@?$dual_state_global@PAPAD@__crt_state_management@@QAEXA6AXAAPAPAD@Z@Z 10013c50 f i libucrt:environment_initialization.obj
 0001:00012cc6       ?initialize@?$dual_state_global@PAPAD@__crt_state_management@@QAEXQAPAD@Z 10013cc6 f i libucrt:environment_initialization.obj
 0001:00012cc6       ?initialize@?$dual_state_global@PAU__crt_multibyte_data@@@__crt_state_management@@QAEXQAU__crt_multibyte_data@@@Z 10013cc6 f i libucrt:mbctype.obj
 0001:00012cc6       ?initialize@?$dual_state_global@P6AHPAU_exception@@@Z@__crt_state_management@@QAEXQ6AHPAU_exception@@@Z@Z 10013cc6 f i libucrt:matherr.obj
 0001:00012cc6       ?initialize@?$dual_state_global@P6AHI@Z@__crt_state_management@@QAEXQ6AHI@Z@Z 10013cc6 f i libucrt:new_handler.obj
 0001:00012cc6       ?initialize@?$dual_state_global@P6AXH@Z@__crt_state_management@@QAEXQ6AXH@Z@Z 10013cc6 f i libucrt:signal.obj
 0001:00012cc6       ?initialize@?$dual_state_global@PAU__crt_locale_data@@@__crt_state_management@@QAEXQAU__crt_locale_data@@@Z 10013cc6 f i libucrt:initialization.obj
 0001:00012cf7       ___dcrt_uninitialize_environments_nolock 10013cf7 f   libucrt:environment_initialization.obj
 0001:00012d2e       __initialize_narrow_environment 10013d2e f   libucrt:environment_initialization.obj
 0001:00012d33       ??$?RV<lambda_69a2805e680e0e292e8ba93315fe43a8>@@AAV<lambda_f03950bc5685219e0bcd2087efbe011e>@@V<lambda_03fcd07e894ec930e3f35da366ca99d6>@@@?$__crt_seh_guarded_call@H@@QAEH$$QAV<lambda_69a2805e680e0e292e8ba93315fe43a8>@@AAV<lambda_f03950bc5685219e0bcd2087efbe011e>@@$$QAV<lambda_03fcd07e894ec930e3f35da366ca99d6>@@@Z 10013d33 f i libucrt:onexit.obj
 0001:00012d84       ??$?RV<lambda_8e746cf0007f6ed984d6f78af1fec997>@@AAV<lambda_22ebabd17bc4fa466a2aca6d8deb888d>@@V<lambda_18ed0c0b38a6dc0daf1e7ac6d6adf05e>@@@?$__crt_seh_guarded_call@H@@QAEH$$QAV<lambda_8e746cf0007f6ed984d6f78af1fec997>@@AAV<lambda_22ebabd17bc4fa466a2aca6d8deb888d>@@$$QAV<lambda_18ed0c0b38a6dc0daf1e7ac6d6adf05e>@@@Z 10013d84 f i libucrt:onexit.obj
 0001:00012dd5       ??$__acrt_lock_and_call@V<lambda_22ebabd17bc4fa466a2aca6d8deb888d>@@@@YAHW4__acrt_lock_id@@$$QAV<lambda_22ebabd17bc4fa466a2aca6d8deb888d>@@@Z 10013dd5 f i libucrt:onexit.obj
 0001:00012dfd       ??$__acrt_lock_and_call@V<lambda_f03950bc5685219e0bcd2087efbe011e>@@@@YAHW4__acrt_lock_id@@$$QAV<lambda_f03950bc5685219e0bcd2087efbe011e>@@@Z 10013dfd f i libucrt:onexit.obj
 0001:00012e25       ??$__crt_fast_encode_pointer@P6AHXZ@@YAP6AHXZQ6AHXZ@Z 10013e25 f i libucrt:onexit.obj
 0001:000130a3       __crt_atexit               100140a3 f   libucrt:onexit.obj
 0001:000130b9       __execute_onexit_table     100140b9 f   libucrt:onexit.obj
 0001:000130d6       __initialize_onexit_table  100140d6 f   libucrt:onexit.obj
 0001:00013113       __register_onexit_function 10014113 f   libucrt:onexit.obj
 0001:00013163       ___acrt_uninitialize_command_line 10014163 f   libucrt:argv_data.obj
 0001:00013246       ___acrt_initialize         10014246 f   libucrt:initialization.obj
 0001:00013258       ___acrt_thread_attach      10014258 f   libucrt:initialization.obj
 0001:00013263       ___acrt_thread_detach      10014263 f   libucrt:initialization.obj
 0001:0001326b       ___acrt_uninitialize       1001426b f   libucrt:initialization.obj
 0001:0001327d       ___acrt_uninitialize_critical 1001427d f   libucrt:initialization.obj
 0001:0001328f       __initterm                 1001428f f   libucrt:initterm.obj
 0001:000132eb       __initterm_e               100142eb f   libucrt:initterm.obj
 0001:00013330       ___acrt_initialize_new_handler 10014330 f   libucrt:new_handler.obj
 0001:00013344       __callnewh                 10014344 f   libucrt:new_handler.obj
 0001:00013388       __query_new_handler        10014388 f   libucrt:new_handler.obj
 0001:000133da       _terminate                 100143da f   libucrt:terminate.obj
 0001:00013416       _abort                     10014416 f   libucrt:abort.obj
 0001:00013459       _strcpy_s                  10014459 f   libucrt:strcpy_s.obj
 0001:000134b3       _wcsncmp                   100144b3 f   libucrt:wcsncmp.obj
 0001:000134ed       ??$is_overflow_condition@K@__crt_strtox@@YA_NIK@Z 100144ed f i libucrt:atox.obj
 0001:00013520       ??$parse_integer@KV?$c_string_character_source@_W@__crt_strtox@@@__crt_strtox@@YAKQAU__crt_locale_pointers@@V?$c_string_character_source@_W@0@H_N@Z 10014520 f i libucrt:atox.obj
 0001:00013c05       ?unget@?$c_string_character_source@_W@__crt_strtox@@QAEX_W@Z 10014c05 f i libucrt:atox.obj
 0001:00013c31       __chvalidchk_l             10014c31 f i libucrt:atox.obj
 0001:00013c5b       __ischartype_l             10014c5b f i libucrt:atox.obj
 0001:00013c90       _strncmp                   10014c90 f   libucrt:strncmp.obj
 0001:00013d08       __free_base                10014d08 f   libucrt:free_base.obj
 0001:00013d42       ??$?RV<lambda_15ade71b0218206bbe3333a0c9b79046>@@AAV<lambda_da44e0f8b0f19ba52fefafb335991732>@@V<lambda_207f2d024fc103971653565357d6cd41>@@@?$__crt_seh_guarded_call@X@@QAEX$$QAV<lambda_15ade71b0218206bbe3333a0c9b79046>@@AAV<lambda_da44e0f8b0f19ba52fefafb335991732>@@$$QAV<lambda_207f2d024fc103971653565357d6cd41>@@@Z 10014d42 f i libucrt:per_thread_data.obj
 0001:00013d8a       ??$?RV<lambda_38edbb1296d33220d7e4dd0ed76b244a>@@AAV<lambda_5ce1d447e08cb34b2473517608e21441>@@V<lambda_fb385d3da700c9147fc39e65dd577a8c>@@@?$__crt_seh_guarded_call@X@@QAEX$$QAV<lambda_38edbb1296d33220d7e4dd0ed76b244a>@@AAV<lambda_5ce1d447e08cb34b2473517608e21441>@@$$QAV<lambda_fb385d3da700c9147fc39e65dd577a8c>@@@Z 10014d8a f i libucrt:per_thread_data.obj
 0001:00013deb       ??$?RV<lambda_6affb1475c98b40b75cdec977db92e3c>@@AAV<lambda_b8d4b9c228a6ecc3f80208dbb4b4a104>@@V<lambda_608742c3c92a14382c1684fc64f96c88>@@@?$__crt_seh_guarded_call@X@@QAEX$$QAV<lambda_6affb1475c98b40b75cdec977db92e3c>@@AAV<lambda_b8d4b9c228a6ecc3f80208dbb4b4a104>@@$$QAV<lambda_608742c3c92a14382c1684fc64f96c88>@@@Z 10014deb f i libucrt:per_thread_data.obj
 0001:00013e36       ??$?RV<lambda_a7e850c220f1c8d1e6efeecdedd162c6>@@AAV<lambda_46720907175c18b6c9d2717bc0d2d362>@@V<lambda_9048902d66e8d99359bc9897bbb930a8>@@@?$__crt_seh_guarded_call@X@@QAEX$$QAV<lambda_a7e850c220f1c8d1e6efeecdedd162c6>@@AAV<lambda_46720907175c18b6c9d2717bc0d2d362>@@$$QAV<lambda_9048902d66e8d99359bc9897bbb930a8>@@@Z 10014e36 f i libucrt:per_thread_data.obj
 0001:00013e86       ??$__acrt_lock_and_call@V<lambda_46720907175c18b6c9d2717bc0d2d362>@@@@YAXW4__acrt_lock_id@@$$QAV<lambda_46720907175c18b6c9d2717bc0d2d362>@@@Z 10014e86 f i libucrt:per_thread_data.obj
 0001:00013eae       ??$__acrt_lock_and_call@V<lambda_5ce1d447e08cb34b2473517608e21441>@@@@YAXW4__acrt_lock_id@@$$QAV<lambda_5ce1d447e08cb34b2473517608e21441>@@@Z 10014eae f i libucrt:per_thread_data.obj
 0001:00013ed6       ??$__acrt_lock_and_call@V<lambda_b8d4b9c228a6ecc3f80208dbb4b4a104>@@@@YAXW4__acrt_lock_id@@$$QAV<lambda_b8d4b9c228a6ecc3f80208dbb4b4a104>@@@Z 10014ed6 f i libucrt:per_thread_data.obj
 0001:00013efe       ??$__acrt_lock_and_call@V<lambda_da44e0f8b0f19ba52fefafb335991732>@@@@YAXW4__acrt_lock_id@@$$QAV<lambda_da44e0f8b0f19ba52fefafb335991732>@@@Z 10014efe f i libucrt:per_thread_data.obj
 0001:000140b4       ___acrt_freeptd            100150b4 f   libucrt:per_thread_data.obj
 0001:000140e0       ___acrt_getptd             100150e0 f   libucrt:per_thread_data.obj
 0001:00014194       ___acrt_getptd_head        10015194 f   libucrt:per_thread_data.obj
 0001:0001422e       ___acrt_getptd_noexit      1001522e f   libucrt:per_thread_data.obj
 0001:000142e1       ___acrt_initialize_ptd     100152e1 f   libucrt:per_thread_data.obj
 0001:0001430d       ___acrt_uninitialize_ptd   1001530d f   libucrt:per_thread_data.obj
 0001:00014327       __calloc_base              10015327 f   libucrt:calloc_base.obj
 0001:00014384       __malloc_base              10015384 f   libucrt:malloc_base.obj
 0001:000143d2       __msize                    100153d2 f   libucrt:msize.obj
 0001:000143dd       __msize_base               100153dd f   libucrt:msize.obj
 0001:00014410       __realloc_base             10015410 f   libucrt:realloc_base.obj
 0001:000145f7       ___acrt_AppPolicyGetProcessTerminationMethodInternal@4 100155f7 f   libucrt:winapi_thunks.obj
 0001:0001464e       ___acrt_FlsAlloc@4         1001564e f   libucrt:winapi_thunks.obj
 0001:000146a4       ___acrt_FlsFree@4          100156a4 f   libucrt:winapi_thunks.obj
 0001:000146fa       ___acrt_FlsGetValue@4      100156fa f   libucrt:winapi_thunks.obj
 0001:00014750       ___acrt_FlsSetValue@8      10015750 f   libucrt:winapi_thunks.obj
 0001:000147a9       ___acrt_InitializeCriticalSectionEx@12 100157a9 f   libucrt:winapi_thunks.obj
 0001:0001480b       ___acrt_LCMapStringEx@36   1001580b f   libucrt:winapi_thunks.obj
 0001:0001487f       ___acrt_LocaleNameToLCID@8 1001587f f   libucrt:winapi_thunks.obj
 0001:000148c7       ___acrt_SetThreadStackGuarantee@4 100158c7 f   libucrt:winapi_thunks.obj
 0001:00014919       ___acrt_initialize_winapi_thunks 10015919 f   libucrt:winapi_thunks.obj
 0001:0001493f       ___acrt_uninitialize_winapi_thunks 1001593f f   libucrt:winapi_thunks.obj
 0001:00014975       __isdigit_l                10015975 f i libucrt:_ctype.obj
 0001:000149ad       _isdigit                   100159ad f i libucrt:_ctype.obj
 0001:00014b41       __tolower_l                10015b41 f   libucrt:tolower_toupper.obj
 0001:00014b5b       _tolower                   10015b5b f   libucrt:tolower_toupper.obj
 0001:00014b8b       ??$make_c_string_character_source@_WPAPA_W@__crt_strtox@@YA?AV?$c_string_character_source@_W@0@QB_WQAPA_W@Z 10015b8b f i libucrt:strtox.obj
 0001:00014ba6       _wcstol                    10015ba6 f   libucrt:strtox.obj
 0001:00014bd2       __mbtowc_l                 10015bd2 f   libucrt:mbtowc.obj
 0001:00014ccc       _mbtowc                    10015ccc f   libucrt:mbtowc.obj
 0001:00014ce6       _wcsnlen                   10015ce6 f   libucrt:strnlen.obj
 0001:00014e9d       ___acrt_update_locale_info 10015e9d f   libucrt:locale_update.obj
 0001:00014eca       ___acrt_update_multibyte_info 10015eca f   libucrt:locale_update.obj
 0001:00014ef7       ?__acrt_fp_classify@@YA?AW4__acrt_fp_class@@ABN@Z 10015ef7 f i libucrt:cvt.obj
 0001:00014f5f       ?__acrt_fp_is_negative@@YA_NABN@Z 10015f5f f i libucrt:cvt.obj
 0001:000157cf       ___acrt_fp_format          100167cf f   libucrt:cvt.obj
 0001:00015919       __fileno                   10016919 f   libucrt:fileno.obj
 0001:0001593f       ___acrt_initialize_stdio   1001693f f   libucrt:_file.obj
 0001:00015a07       ___acrt_uninitialize_stdio 10016a07 f   libucrt:_file.obj
 0001:00015a53       __lock_file                10016a53 f   libucrt:_file.obj
 0001:00015a67       __unlock_file              10016a67 f   libucrt:_file.obj
 0001:00015a7b       __get_printf_count_output  10016a7b f   libucrt:printf_count_output.obj
 0001:00015a90       ??$?RV<lambda_e5124f882df8998aaf41531e079ba474>@@AAV<lambda_3e16ef9562a7dcce91392c22ab16ea36>@@V<lambda_e25ca0880e6ef98be67edffd8c599615>@@@?$__crt_seh_guarded_call@X@@QAEX$$QAV<lambda_e5124f882df8998aaf41531e079ba474>@@AAV<lambda_3e16ef9562a7dcce91392c22ab16ea36>@@$$QAV<lambda_e25ca0880e6ef98be67edffd8c599615>@@@Z 10016a90 f i libucrt:wsetlocale.obj
 0001:00015ad9       ??$__acrt_lock_and_call@V<lambda_3e16ef9562a7dcce91392c22ab16ea36>@@@@YAXW4__acrt_lock_id@@$$QAV<lambda_3e16ef9562a7dcce91392c22ab16ea36>@@@Z 10016ad9 f i libucrt:wsetlocale.obj
 0001:00015b01       ??$uninitialize@V<lambda_88ce03f932007f29bf8b8056cbaba4f3>@@@?$dual_state_global@PAU__crt_locale_data@@@__crt_state_management@@QAEX$$QAV<lambda_88ce03f932007f29bf8b8056cbaba4f3>@@@Z 10016b01 f i libucrt:wsetlocale.obj
 0001:00015b30       ___acrt_set_locale_changed 10016b30 f   libucrt:wsetlocale.obj
 0001:00015b3b       ___acrt_uninitialize_locale 10016b3b f   libucrt:wsetlocale.obj
 0001:00015cbc       ___acrt_initialize_lowio   10016cbc f   libucrt:ioinit.obj
 0001:00015d12       ___acrt_uninitialize_lowio 10016d12 f   libucrt:ioinit.obj
 0001:00015d3e       ___acrt_initialize_locks   10016d3e f   libucrt:locks.obj
 0001:00015d7f       ___acrt_lock               10016d7f f   libucrt:locks.obj
 0001:00015d96       ___acrt_uninitialize_locks 10016d96 f   libucrt:locks.obj
 0001:00015dc7       ___acrt_unlock             10016dc7 f   libucrt:locks.obj
 0001:00015dde       ___acrt_get_process_end_policy 10016dde f   libucrt:win_policies.obj
 0001:000162b5       ___acrt_expand_narrow_argv_wildcards 100172b5 f   libucrt:argv_wildcards.obj
 0001:000162c0       ??$?RV<lambda_ceb1ee4838e85a9d631eb091e2fbe199>@@AAV<lambda_ae742caa10f662c28703da3d2ea5e57e>@@V<lambda_cd08b5d6af4937fe54fc07d0c9bf6b37>@@@?$__crt_seh_guarded_call@X@@QAEX$$QAV<lambda_ceb1ee4838e85a9d631eb091e2fbe199>@@AAV<lambda_ae742caa10f662c28703da3d2ea5e57e>@@$$QAV<lambda_cd08b5d6af4937fe54fc07d0c9bf6b37>@@@Z 100172c0 f i libucrt:mbctype.obj
 0001:00016303       ??$__acrt_lock_and_call@V<lambda_ae742caa10f662c28703da3d2ea5e57e>@@@@YAXW4__acrt_lock_id@@$$QAV<lambda_ae742caa10f662c28703da3d2ea5e57e>@@@Z 10017303 f i libucrt:mbctype.obj
 0001:000167f8       ___acrt_initialize_multibyte 100177f8 f   libucrt:mbctype.obj
 0001:00016845       ___acrt_update_thread_multibyte_data 10017845 f   libucrt:mbctype.obj
 0001:00016859       __setmbcp_nolock           10017859 f   libucrt:mbctype.obj
 0001:00016b24       __ismbblead                10017b24 f   libucrt:ismbbyte.obj
 0001:00016b3c       ___acrt_initialize_command_line 10017b3c f   libucrt:argv_data.obj
 0001:00016b8c       ___dcrt_get_narrow_environment_from_os 10017b8c f   libucrt:get_environment_from_os.obj
 0001:00016c0f       ___acrt_initialize_heap    10017c0f f   libucrt:heap_handle.obj
 0001:00016c20       ___acrt_uninitialize_heap  10017c20 f   libucrt:heap_handle.obj
 0001:00016c2a       ___acrt_execute_initializers 10017c2a f   libucrt:shared_initialization.obj
 0001:00016cad       ___acrt_execute_uninitializers 10017cad f   libucrt:shared_initialization.obj
 0001:00016cfa       ??$?RV<lambda_cbab9ec6f41b0180b23cc171c22676b0>@@AAV<lambda_44731a7d0e6d81c3e6aa82d741081786>@@V<lambda_4b292cb8dd18144e164572427af410ab>@@@?$__crt_seh_guarded_call@P6AXH@Z@@QAEP6AXH@Z$$QAV<lambda_cbab9ec6f41b0180b23cc171c22676b0>@@AAV<lambda_44731a7d0e6d81c3e6aa82d741081786>@@$$QAV<lambda_4b292cb8dd18144e164572427af410ab>@@@Z 10017cfa f i libucrt:signal.obj
 0001:00016d54       ??$__acrt_lock_and_call@V<lambda_44731a7d0e6d81c3e6aa82d741081786>@@@@YAP6AXH@ZW4__acrt_lock_id@@$$QAV<lambda_44731a7d0e6d81c3e6aa82d741081786>@@@Z 10017d54 f i libucrt:signal.obj
 0001:00016de6       ___acrt_get_sigabrt_handler 10017de6 f   libucrt:signal.obj
 0001:00016dfd       ___acrt_initialize_signal_handlers 10017dfd f   libucrt:signal.obj
 0001:00016e38       ___fpecode                 10017e38 f   libucrt:signal.obj
 0001:00016e41       _raise                     10017e41 f   libucrt:signal.obj
 0001:00017049       ___acrt_has_user_matherr   10018049 f   libucrt:matherr.obj
 0001:00017062       ___acrt_initialize_user_matherr 10018062 f   libucrt:matherr.obj
 0001:00017076       ___acrt_invoke_user_matherr 10018076 f   libucrt:matherr.obj
 0001:000170bf       ___pctype_func             100180bf f   libucrt:ctype.obj
 0001:000170e5       _iswctype                  100180e5 f   libucrt:iswctype.obj
 0001:00017144       __isctype_l                10018144 f   libucrt:isctype.obj
 0001:00017216       ___acrt_add_locale_ref     10018216 f   libucrt:locale_refcounting.obj
 0001:00017293       ___acrt_free_locale        10018293 f   libucrt:locale_refcounting.obj
 0001:000173dd       ___acrt_locale_add_lc_time_reference 100183dd f   libucrt:locale_refcounting.obj
 0001:00017406       ___acrt_locale_free_lc_time_if_unreferenced 10018406 f   libucrt:locale_refcounting.obj
 0001:00017436       ___acrt_locale_release_lc_time_reference 10018436 f   libucrt:locale_refcounting.obj
 0001:0001745f       ___acrt_release_locale_ref 1001845f f   libucrt:locale_refcounting.obj
 0001:000174e0       ___acrt_update_thread_locale_data 100184e0 f   libucrt:locale_refcounting.obj
 0001:00017557       __updatetlocinfoEx_nolock  10018557 f   libucrt:locale_refcounting.obj
 0001:000175a7       __query_new_mode           100185a7 f   libucrt:new_mode.obj
 0001:00017669       ___acrt_DownlevelLocaleNameToLCID 10018669 f   libucrt:lcidtoname_downlevel.obj
 0001:00017695       __isleadbyte_l             10018695 f i libucrt:_wctype.obj
 0001:000178eb       ___acrt_LCMapStringA       100188eb f   libucrt:lcmapstringa.obj
 0001:00017936       __freea_crt                10018936 f i libucrt:lcmapstringa.obj
 0001:00017956       ___acrt_fp_strflt_to_string 10018956 f   libucrt:_fptostr.obj
 0001:00017a20       ?divide@__crt_strtox@@YA_KAAUbig_integer@1@ABU21@@Z 10018a20 f i libucrt:cfout.obj
 0001:00017ece       ___acrt_fltout             10018ece f   libucrt:cfout.obj
 0001:000192c2       __fcloseall                1001a2c2 f   libucrt:closeall.obj
 0001:00019362       ??$?RV<lambda_2866be3712abc81a800a822484c830d8>@@AAV<lambda_39ca0ed439415581b5b15c265174cece>@@V<lambda_2b24c74d71094a6cd0cb82e44167d71b>@@@?$__crt_seh_guarded_call@X@@QAEX$$QAV<lambda_2866be3712abc81a800a822484c830d8>@@AAV<lambda_39ca0ed439415581b5b15c265174cece>@@$$QAV<lambda_2b24c74d71094a6cd0cb82e44167d71b>@@@Z 1001a362 f i libucrt:fflush.obj
 0001:000193e3       ??$?RV<lambda_2cc53f568c5a2bb6f192f930a45d44ea>@@AAV<lambda_ab61a845afdef5b7c387490eaf3616ee>@@V<lambda_c2ffc0b7726aa6be21d5f0026187e748>@@@?$__crt_seh_guarded_call@X@@QAEX$$QAV<lambda_2cc53f568c5a2bb6f192f930a45d44ea>@@AAV<lambda_ab61a845afdef5b7c387490eaf3616ee>@@$$QAV<lambda_c2ffc0b7726aa6be21d5f0026187e748>@@@Z 1001a3e3 f i libucrt:fflush.obj
 0001:00019476       ??$__acrt_lock_and_call@V<lambda_ab61a845afdef5b7c387490eaf3616ee>@@@@YAXW4__acrt_lock_id@@$$QAV<lambda_ab61a845afdef5b7c387490eaf3616ee>@@@Z 1001a476 f i libucrt:fflush.obj
 0001:0001949e       ??$__acrt_lock_stream_and_call@V<lambda_39ca0ed439415581b5b15c265174cece>@@@@YAXQAU_iobuf@@$$QAV<lambda_39ca0ed439415581b5b15c265174cece>@@@Z 1001a49e f i libucrt:fflush.obj
 0001:0001955a       ___acrt_stdio_flush_nolock 1001a55a f   libucrt:fflush.obj
 0001:000195bd       __fflush_nolock            1001a5bd f   libucrt:fflush.obj
 0001:00019604       __flushall                 1001a604 f   libucrt:fflush.obj
 0001:0001960d       ___acrt_stdio_free_buffer_nolock 1001a60d f   libucrt:_freebuf.obj
 0001:0001964b       __isatty                   1001a64b f   libucrt:isatty.obj
 0001:000196a1       ___acrt_locale_free_monetary 1001a6a1 f   libucrt:initmon.obj
 0001:0001979f       ___acrt_locale_free_numeric 1001a79f f   libucrt:initnum.obj
 0001:00019844       ___acrt_locale_free_time   1001a844 f   libucrt:inittime.obj
 0001:00019928       ___acrt_GetStringTypeA     1001a928 f   libucrt:getstringtypea.obj
 0001:00019a45       ___acrt_lowio_create_handle_array 1001aa45 f   libucrt:osfinfo.obj
 0001:00019abf       ___acrt_lowio_destroy_handle_array 1001aabf f   libucrt:osfinfo.obj
 0001:00019af4       ___acrt_lowio_ensure_fh_exists 1001aaf4 f   libucrt:osfinfo.obj
 0001:00019b8c       ___acrt_lowio_lock_fh      1001ab8c f   libucrt:osfinfo.obj
 0001:00019baf       ___acrt_lowio_unlock_fh    1001abaf f   libucrt:osfinfo.obj
 0001:00019bd2       __free_osfhnd              1001abd2 f   libucrt:osfinfo.obj
 0001:00019c63       __get_osfhandle            1001ac63 f   libucrt:osfinfo.obj
 0001:00019db0       _qsort                     1001adb0 f   libucrt:qsort.obj
 0001:0001a1fb       _strncpy_s                 1001b1fb f   libucrt:strncpy_s.obj
 0001:0001a210       _strpbrk                   1001b210 f   libucrt:strpbrk.obj
 0001:0001a250       __mbsdec                   1001b250 f   libucrt:mbsdec.obj
 0001:0001a267       __mbsdec_l                 1001b267 f   libucrt:mbsdec.obj
 0001:0001a303       ___strncnt                 1001b303 f   libucrt:strncnt.obj
 0001:0001a31f       _fegetenv                  1001b31f f   libucrt:fegetenv.obj
 0001:0001a33c       _fesetenv                  1001b33c f   libucrt:fesetenv.obj
 0001:0001a385       _feholdexcept              1001b385 f   libucrt:feholdexcept.obj
 0001:0001a3e0       _log10                     1001b3e0 f   libucrt:log10.obj
 0001:0001a420       __CIlog10                  1001b420 f   libucrt:log10.obj
 0001:0001a45b       __CIlog10_default          1001b45b f   libucrt:log10.obj
 0001:0001a46f       __log10_default            1001b46f     libucrt:log10.obj
 0001:0001a530       _ceil                      1001b530 f   libucrt:ceil_pentium4.obj
 0001:0001a570       __ceil_pentium4            1001b570 f   libucrt:ceil_pentium4.obj
 0001:0001abef       __write                    1001bbef f   libucrt:write.obj
 0001:0001acda       __write_nolock             1001bcda f   libucrt:write.obj
 0001:0001af71       __lseeki64_nolock          1001bf71 f   libucrt:lseek.obj
 0001:0001af8c       __fclose_nolock            1001bf8c f   libucrt:fclose.obj
 0001:0001b002       _fclose                    1001c002 f   libucrt:fclose.obj
 0001:0001b082       ??$?RV<lambda_9e9de3de5fa147e2223d7db92bc10aa6>@@AAV<lambda_38ce7e780aa69e748d6df282ebc68efe>@@V<lambda_8ca6da459f0f6780f1cff60fdc3d00e5>@@@?$__crt_seh_guarded_call@H@@QAEH$$QAV<lambda_9e9de3de5fa147e2223d7db92bc10aa6>@@AAV<lambda_38ce7e780aa69e748d6df282ebc68efe>@@$$QAV<lambda_8ca6da459f0f6780f1cff60fdc3d00e5>@@@Z 1001c082 f i libucrt:commit.obj
 0001:0001b11a       ??$__acrt_lowio_lock_fh_and_call@V<lambda_38ce7e780aa69e748d6df282ebc68efe>@@@@YAHH$$QAV<lambda_38ce7e780aa69e748d6df282ebc68efe>@@@Z 1001c11a f i libucrt:commit.obj
 0001:0001b142       __commit                   1001c142 f   libucrt:commit.obj
 0001:0001b1b1       __query_app_type           1001c1b1 f   libucrt:report_runtime_error.obj
 0001:0001b45a       __getfpcontrolword         1001c45a f   libucrt:_fenvutils.obj
 0001:0001b49d       __getfpstatusword          1001c49d f   libucrt:_fenvutils.obj
 0001:0001b545       __setfpcontrolword         1001c545 f   libucrt:_fenvutils.obj
 0001:0001b5c5       __setfpstatusword          1001c5c5 f   libucrt:_fenvutils.obj
 0001:0001b645       __clearfp                  1001c645 f   libucrt:ieee87.obj
 0001:0001b723       ___acrt_initialize_sse2    1001c723 f   libucrt:mathfcns.obj
 0001:0001b740       __CIlog10_pentium4         1001c740 f   libucrt:log10_pentium4.obj
 0001:0001b758       __log10_pentium4           1001c758     libucrt:log10_pentium4.obj
 0001:0001b9e1       __fFEXP                    1001c9e1     libucrt:87tran.obj
 0001:0001ba38       __rtinfpopse               1001ca38     libucrt:87tran.obj
 0001:0001ba3a       __rtinfnpopse              1001ca3a     libucrt:87tran.obj
 0001:0001ba4a       __fFLN                     1001ca4a     libucrt:87tran.obj
 0001:0001baff       __rtinfpop                 1001caff     libucrt:87tran.obj
 0001:0001bb01       __rtinfnpop                1001cb01     libucrt:87tran.obj
 0001:0001bb1e       __ffexpm1                  1001cb1e     libucrt:87tran.obj
 0001:0001bbd0       __trandisp1                1001cbd0 f   libucrt:87disp.obj
 0001:0001bc37       __trandisp2                1001cc37 f   libucrt:87disp.obj
 0001:0001bcc3       __rttospopde               1001ccc3     libucrt:87disp.obj
 0001:0001bcc8       __rttospop                 1001ccc8     libucrt:87disp.obj
 0001:0001bcca       __rtnospop                 1001ccca     libucrt:87disp.obj
 0001:0001bccc       __rttosnpop                1001cccc     libucrt:87disp.obj
 0001:0001bccd       __rtnospopde               1001cccd     libucrt:87disp.obj
 0001:0001bcd4       __rtzeropop                1001ccd4     libucrt:87disp.obj
 0001:0001bcd6       __rtzeronpop               1001ccd6     libucrt:87disp.obj
 0001:0001bcdb       __rtzerospop               1001ccdb     libucrt:87disp.obj
 0001:0001bce8       __rtonepop                 1001cce8     libucrt:87disp.obj
 0001:0001bcea       __rtonenpop                1001ccea     libucrt:87disp.obj
 0001:0001bcef       __tosnan1                  1001ccef     libucrt:87disp.obj
 0001:0001bd1a       __nosnan2                  1001cd1a     libucrt:87disp.obj
 0001:0001bd1c       __tosnan2                  1001cd1c     libucrt:87disp.obj
 0001:0001bd44       __nan2                     1001cd44     libucrt:87disp.obj
 0001:0001bd83       __rtindfpop                1001cd83     libucrt:87disp.obj
 0001:0001bd85       __rtindfnpop               1001cd85     libucrt:87disp.obj
 0001:0001bd96       __rttosnpopde              1001cd96     libucrt:87disp.obj
 0001:0001bda0       __rtatan2inf               1001cda0     libucrt:87disp.obj
 0001:0001bdbd       __rtchsifneg               1001cdbd     libucrt:87disp.obj
 0001:0001bdd0       __twoToTOS                 1001cdd0 f   libucrt:common.obj
 0001:0001bde5       __load_CW                  1001cde5 f   libucrt:common.obj
 0001:0001bdfc       __convertTOStoQNaN         1001cdfc f   libucrt:common.obj
 0001:0001be15       __fload_withFB             1001ce15 f   libucrt:common.obj
 0001:0001be58       __checkTOS_withFB          1001ce58 f   libucrt:common.obj
 0001:0001be6e       __fast_exit                1001ce6e f   libucrt:common.obj
 0001:0001be7b       __math_exit                1001ce7b f   libucrt:common.obj
 0001:0001bea5       __check_overflow_exit      1001cea5 f   libucrt:common.obj
 0001:0001beb9       __check_range_exit         1001ceb9 f   libucrt:common.obj
 0001:0001bf60       __startTwoArgErrorHandling 1001cf60 f   libucrt:genexcep.obj
 0001:0001bf77       __startOneArgErrorHandling 1001cf77 f   libucrt:genexcep.obj
 0001:0001bfb3       ___libm_error_support      1001cfb3 f   libucrt:libm_error.obj
 0001:0001c1cb       __ceil_default             1001d1cb f   libucrt:ceil.obj
 0001:0001c284       __putwch_nolock            1001d284 f   libucrt:putwch.obj
 0001:0001c2c9       ??$?RV<lambda_218ce3db14220d0be481dae8ef3383b6>@@AAV<lambda_628dfdc04ba53c8bfc02c9951375f3f5>@@V<lambda_57dc472bd5c9d5f3b2cbca59b8a843ae>@@@?$__crt_seh_guarded_call@H@@QAEH$$QAV<lambda_218ce3db14220d0be481dae8ef3383b6>@@AAV<lambda_628dfdc04ba53c8bfc02c9951375f3f5>@@$$QAV<lambda_57dc472bd5c9d5f3b2cbca59b8a843ae>@@@Z 1001d2c9 f i libucrt:close.obj
 0001:0001c34b       ??$__acrt_lowio_lock_fh_and_call@V<lambda_628dfdc04ba53c8bfc02c9951375f3f5>@@@@YAHH$$QAV<lambda_628dfdc04ba53c8bfc02c9951375f3f5>@@@Z 1001d34b f i libucrt:close.obj
 0001:0001c373       __close                    1001d373 f   libucrt:close.obj
 0001:0001c3f2       __close_nolock             1001d3f2 f   libucrt:close.obj
 0001:0001c48e       ?__acrt_stdio_free_stream@@YAXV__crt_stdio_stream@@@Z 1001d48e f   libucrt:stream.obj
 0001:0001c4d0       ___ascii_strnicmp          1001d4d0 f   libucrt:_strnicm.obj
 0001:0001c531       __clrfp                    1001d531 f   libucrt:fpctrl.obj
 0001:0001c544       __ctrlfp                   1001d544 f   libucrt:fpctrl.obj
 0001:0001c570       __set_statfp               1001d570 f   libucrt:fpctrl.obj
 0001:0001c5cb       __statfp                   1001d5cb f   libucrt:fpctrl.obj
 0001:0001c5dd       __d_inttype                1001d5dd f   libucrt:powhlp.obj
 0001:0001c647       __powhlp                   1001d647 f   libucrt:powhlp.obj
 0001:0001c772       __87except                 1001d772 f   libucrt:87except.obj
 0001:0001c87d       __frnd                     1001d87d f   libucrt:frnd.obj
 0001:0001c893       __errcode                  1001d893 f   libucrt:fpexcept.obj
 0001:0001c8c7       __except1                  1001d8c7 f   libucrt:fpexcept.obj
 0001:0001c995       __handle_exc               1001d995 f   libucrt:fpexcept.obj
 0001:0001cb75       __raise_exc                1001db75 f   libucrt:fpexcept.obj
 0001:0001cb98       __raise_exc_ex             1001db98 f   libucrt:fpexcept.obj
 0001:0001ce89       __set_errno_from_matherr   1001de89 f   libucrt:fpexcept.obj
 0001:0001ceb8       __umatherr                 1001deb8 f   libucrt:fpexcept.obj
 0001:0001cf5a       __decomp                   1001df5a f   libucrt:util.obj
 0001:0001d02e       __set_exp                  1001e02e f   libucrt:util.obj
 0001:0001d05d       __sptype                   1001e05d f   libucrt:util.obj
 0001:0001d0bb       ___dcrt_lowio_initialize_console_output 1001e0bb f   libucrt:initcon.obj
 0001:0001d0da       ___dcrt_terminate_console_output 1001e0da f   libucrt:initcon.obj
 0001:0001d0f1       __fpclass                  1001e0f1 f   libucrt:ieeemisc.obj
 0001:0001d195       _IsProcessorFeaturePresent@4 1001e195 f   kernel32:KERNEL32.dll
 0001:0001d1a0       __FindPESection            1001e1a0 f   LIBCMT:pesect.obj
 0001:0001d1f0       __IsNonwritableInCurrentImage 1001e1f0 f   LIBCMT:pesect.obj
 0001:0001d2b0       __ValidateImageBase        1001e2b0 f   LIBCMT:pesect.obj
 0001:0001d2e3       __EH_prolog3_catch         1001e2e3 f   LIBCMT:ehprolg3.obj
 0001:0001d320       __aulldvrm                 1001e320 f   LIBCMT:ulldvrm.obj
 0001:0001d3c0       __allmul                   1001e3c0 f   LIBCMT:llmul.obj
 0001:0001d400       __alldvrm                  1001e400 f   LIBCMT:lldvrm.obj
 0001:0001d4e0       __aullshr                  1001e4e0 f   LIBCMT:ullshr.obj
 0001:0001d500       __allshl                   1001e500 f   LIBCMT:llshl.obj
 0001:0001d520       __ftol2_sse                1001e520 f   LIBCMT:_ftol2_.obj
 0001:0001d529       __ftol2_pentium4           1001e529 f   LIBCMT:_ftol2_.obj
 0001:0001d53c       __ftol2_sse_excpt          1001e53c f   LIBCMT:_ftol2_.obj
 0001:0001d560       __ftol2                    1001e560 f   LIBCMT:_ftol2_.obj
 0001:0001d5e0       _strrchr                   1001e5e0 f   libvcruntime:strrchr.obj
 0001:0001d720       _strchr                    1001e720 f   libvcruntime:strchr.obj
 0001:0001d78e       ___from_strstr_to_strchr   1001e78e     libvcruntime:strchr.obj
 0002:00000000       __imp__RegQueryValueExW@24 1001f000     advapi32:ADVAPI32.dll
 0002:00000004       __imp__RegSetValueExW@24   1001f004     advapi32:ADVAPI32.dll
 0002:00000008       __imp__RegQueryInfoKeyW@48 1001f008     advapi32:ADVAPI32.dll
 0002:0000000c       __imp__RegOpenKeyExW@20    1001f00c     advapi32:ADVAPI32.dll
 0002:00000010       __imp__RegEnumKeyExW@32    1001f010     advapi32:ADVAPI32.dll
 0002:00000014       __imp__RegDeleteValueW@8   1001f014     advapi32:ADVAPI32.dll
 0002:00000018       __imp__RegDeleteKeyW@8     1001f018     advapi32:ADVAPI32.dll
 0002:0000001c       __imp__RegCreateKeyExW@36  1001f01c     advapi32:ADVAPI32.dll
 0002:00000020       __imp__RegCloseKey@4       1001f020     advapi32:ADVAPI32.dll
 0002:00000024       \177ADVAPI32_NULL_THUNK_DATA 1001f024     advapi32:ADVAPI32.dll
 0002:00000028       __imp__GetObjectW@12       1001f028     gdi32:GDI32.dll
 0002:0000002c       __imp__SelectObject@8      1001f02c     gdi32:GDI32.dll
 0002:00000030       __imp__DeleteObject@4      1001f030     gdi32:GDI32.dll
 0002:00000034       __imp__CreateCompatibleDC@4 1001f034     gdi32:GDI32.dll
 0002:00000038       __imp__BitBlt@36           1001f038     gdi32:GDI32.dll
 0002:0000003c       __imp__SetWindowOrgEx@16   1001f03c     gdi32:GDI32.dll
 0002:00000040       __imp__SetWindowExtEx@16   1001f040     gdi32:GDI32.dll
 0002:00000044       __imp__SetViewportOrgEx@16 1001f044     gdi32:GDI32.dll
 0002:00000048       __imp__LPtoDP@12           1001f048     gdi32:GDI32.dll
 0002:0000004c       __imp__SetMapMode@8        1001f04c     gdi32:GDI32.dll
 0002:00000050       __imp__SaveDC@4            1001f050     gdi32:GDI32.dll
 0002:00000054       __imp__RestoreDC@8         1001f054     gdi32:GDI32.dll
 0002:00000058       __imp__GetDeviceCaps@8     1001f058     gdi32:GDI32.dll
 0002:0000005c       __imp__DeleteMetaFile@4    1001f05c     gdi32:GDI32.dll
 0002:00000060       __imp__DeleteDC@4          1001f060     gdi32:GDI32.dll
 0002:00000064       __imp__CreateRectRgnIndirect@4 1001f064     gdi32:GDI32.dll
 0002:00000068       __imp__CreateMetaFileW@4   1001f068     gdi32:GDI32.dll
 0002:0000006c       __imp__CreateDCW@16        1001f06c     gdi32:GDI32.dll
 0002:00000070       __imp__CloseMetaFile@4     1001f070     gdi32:GDI32.dll
 0002:00000074       \177GDI32_NULL_THUNK_DATA  1001f074     gdi32:GDI32.dll
 0002:00000078       __imp__CloseHandle@4       1001f078     kernel32:KERNEL32.dll
 0002:0000007c       __imp__SetEvent@4          1001f07c     kernel32:KERNEL32.dll
 0002:00000080       __imp__CreateMutexW@12     1001f080     kernel32:KERNEL32.dll
 0002:00000084       __imp__CreateEventW@16     1001f084     kernel32:KERNEL32.dll
 0002:00000088       __imp__GetCurrentProcessId@0 1001f088     kernel32:KERNEL32.dll
 0002:0000008c       __imp__WriteConsoleW@20    1001f08c     kernel32:KERNEL32.dll
 0002:00000090       __imp__FlushFileBuffers@4  1001f090     kernel32:KERNEL32.dll
 0002:00000094       __imp__SetFilePointerEx@20 1001f094     kernel32:KERNEL32.dll
 0002:00000098       __imp__GetConsoleMode@8    1001f098     kernel32:KERNEL32.dll
 0002:0000009c       __imp__GetConsoleCP@0      1001f09c     kernel32:KERNEL32.dll
 0002:000000a0       __imp__WriteFile@20        1001f0a0     kernel32:KERNEL32.dll
 0002:000000a4       __imp__SetStdHandle@8      1001f0a4     kernel32:KERNEL32.dll
 0002:000000a8       __imp__GetStringTypeW@16   1001f0a8     kernel32:KERNEL32.dll
 0002:000000ac       __imp__FreeEnvironmentStringsW@4 1001f0ac     kernel32:KERNEL32.dll
 0002:000000b0       __imp__GetEnvironmentStringsW@0 1001f0b0     kernel32:KERNEL32.dll
 0002:000000b4       __imp__GetCommandLineW@0   1001f0b4     kernel32:KERNEL32.dll
 0002:000000b8       __imp__lstrcmpiW@8         1001f0b8     kernel32:KERNEL32.dll
 0002:000000bc       __imp__GetCPInfo@8         1001f0bc     kernel32:KERNEL32.dll
 0002:000000c0       __imp__GetOEMCP@0          1001f0c0     kernel32:KERNEL32.dll
 0002:000000c4       __imp__IsValidCodePage@4   1001f0c4     kernel32:KERNEL32.dll
 0002:000000c8       __imp__FindNextFileA@8     1001f0c8     kernel32:KERNEL32.dll
 0002:000000cc       __imp__FindFirstFileExA@24 1001f0cc     kernel32:KERNEL32.dll
 0002:000000d0       __imp__FindClose@4         1001f0d0     kernel32:KERNEL32.dll
 0002:000000d4       __imp__GetFileType@4       1001f0d4     kernel32:KERNEL32.dll
 0002:000000d8       __imp__GetStdHandle@4      1001f0d8     kernel32:KERNEL32.dll
 0002:000000dc       __imp__GetACP@0            1001f0dc     kernel32:KERNEL32.dll
 0002:000000e0       __imp__LCMapStringW@24     1001f0e0     kernel32:KERNEL32.dll
 0002:000000e4       __imp__HeapReAlloc@16      1001f0e4     kernel32:KERNEL32.dll
 0002:000000e8       __imp__HeapSize@12         1001f0e8     kernel32:KERNEL32.dll
 0002:000000ec       __imp__MulDiv@12           1001f0ec     kernel32:KERNEL32.dll
 0002:000000f0       __imp__GlobalUnlock@4      1001f0f0     kernel32:KERNEL32.dll
 0002:000000f4       __imp__GlobalLock@4        1001f0f4     kernel32:KERNEL32.dll
 0002:000000f8       __imp__GlobalAlloc@8       1001f0f8     kernel32:KERNEL32.dll
 0002:000000fc       __imp__FindResourceW@12    1001f0fc     kernel32:KERNEL32.dll
 0002:00000100       __imp__SizeofResource@8    1001f100     kernel32:KERNEL32.dll
 0002:00000104       __imp__LoadResource@8      1001f104     kernel32:KERNEL32.dll
 0002:00000108       __imp__LoadLibraryExW@12   1001f108     kernel32:KERNEL32.dll
 0002:0000010c       __imp__GetProcAddress@8    1001f10c     kernel32:KERNEL32.dll
 0002:00000110       __imp__GetModuleHandleW@4  1001f110     kernel32:KERNEL32.dll
 0002:00000114       __imp__GetModuleFileNameW@12 1001f114     kernel32:KERNEL32.dll
 0002:00000118       __imp__FreeLibrary@4       1001f118     kernel32:KERNEL32.dll
 0002:0000011c       __imp__DisableThreadLibraryCalls@4 1001f11c     kernel32:KERNEL32.dll
 0002:00000120       __imp__GetCurrentThreadId@0 1001f120     kernel32:KERNEL32.dll
 0002:00000124       __imp__Sleep@4             1001f124     kernel32:KERNEL32.dll
 0002:00000128       __imp__WaitForSingleObject@8 1001f128     kernel32:KERNEL32.dll
 0002:0000012c       __imp__ReleaseMutex@4      1001f12c     kernel32:KERNEL32.dll
 0002:00000130       __imp__ResetEvent@4        1001f130     kernel32:KERNEL32.dll
 0002:00000134       __imp__EnterCriticalSection@4 1001f134     kernel32:KERNEL32.dll
 0002:00000138       __imp__LeaveCriticalSection@4 1001f138     kernel32:KERNEL32.dll
 0002:0000013c       __imp__SetLastError@4      1001f13c     kernel32:KERNEL32.dll
 0002:00000140       __imp__EncodePointer@4     1001f140     kernel32:KERNEL32.dll
 0002:00000144       __imp__DeleteCriticalSection@4 1001f144     kernel32:KERNEL32.dll
 0002:00000148       __imp__InitializeCriticalSectionAndSpinCount@8 1001f148     kernel32:KERNEL32.dll
 0002:0000014c       __imp__GetLastError@0      1001f14c     kernel32:KERNEL32.dll
 0002:00000150       __imp__RaiseException@16   1001f150     kernel32:KERNEL32.dll
 0002:00000154       __imp__DecodePointer@4     1001f154     kernel32:KERNEL32.dll
 0002:00000158       __imp__WideCharToMultiByte@32 1001f158     kernel32:KERNEL32.dll
 0002:0000015c       __imp__GetCommandLineA@0   1001f15c     kernel32:KERNEL32.dll
 0002:00000160       __imp__MultiByteToWideChar@24 1001f160     kernel32:KERNEL32.dll
 0002:00000164       __imp__CreateFileW@28      1001f164     kernel32:KERNEL32.dll
 0002:00000168       __imp__GetModuleFileNameA@12 1001f168     kernel32:KERNEL32.dll
 0002:0000016c       __imp__GetModuleHandleExW@12 1001f16c     kernel32:KERNEL32.dll
 0002:00000170       __imp__ExitProcess@4       1001f170     kernel32:KERNEL32.dll
 0002:00000174       __imp__VirtualQuery@12     1001f174     kernel32:KERNEL32.dll
 0002:00000178       __imp__VirtualProtect@16   1001f178     kernel32:KERNEL32.dll
 0002:0000017c       __imp__GetSystemInfo@4     1001f17c     kernel32:KERNEL32.dll
 0002:00000180       __imp__TlsFree@4           1001f180     kernel32:KERNEL32.dll
 0002:00000184       __imp__TlsSetValue@8       1001f184     kernel32:KERNEL32.dll
 0002:00000188       __imp__TlsGetValue@4       1001f188     kernel32:KERNEL32.dll
 0002:0000018c       __imp__TlsAlloc@0          1001f18c     kernel32:KERNEL32.dll
 0002:00000190       __imp__InterlockedFlushSList@4 1001f190     kernel32:KERNEL32.dll
 0002:00000194       __imp__RtlUnwind@16        1001f194     kernel32:KERNEL32.dll
 0002:00000198       __imp__LoadLibraryExA@12   1001f198     kernel32:KERNEL32.dll
 0002:0000019c       __imp__VirtualFree@12      1001f19c     kernel32:KERNEL32.dll
 0002:000001a0       __imp__VirtualAlloc@16     1001f1a0     kernel32:KERNEL32.dll
 0002:000001a4       __imp__FlushInstructionCache@12 1001f1a4     kernel32:KERNEL32.dll
 0002:000001a8       __imp__InterlockedPushEntrySList@8 1001f1a8     kernel32:KERNEL32.dll
 0002:000001ac       __imp__InterlockedPopEntrySList@4 1001f1ac     kernel32:KERNEL32.dll
 0002:000001b0       __imp__GetProcessHeap@0    1001f1b0     kernel32:KERNEL32.dll
 0002:000001b4       __imp__HeapFree@12         1001f1b4     kernel32:KERNEL32.dll
 0002:000001b8       __imp__HeapAlloc@12        1001f1b8     kernel32:KERNEL32.dll
 0002:000001bc       __imp__OutputDebugStringW@4 1001f1bc     kernel32:KERNEL32.dll
 0002:000001c0       __imp__InitializeSListHead@4 1001f1c0     kernel32:KERNEL32.dll
 0002:000001c4       __imp__GetSystemTimeAsFileTime@4 1001f1c4     kernel32:KERNEL32.dll
 0002:000001c8       __imp__QueryPerformanceCounter@4 1001f1c8     kernel32:KERNEL32.dll
 0002:000001cc       __imp__GetStartupInfoW@4   1001f1cc     kernel32:KERNEL32.dll
 0002:000001d0       __imp__IsDebuggerPresent@0 1001f1d0     kernel32:KERNEL32.dll
 0002:000001d4       __imp__IsProcessorFeaturePresent@4 1001f1d4     kernel32:KERNEL32.dll
 0002:000001d8       __imp__TerminateProcess@8  1001f1d8     kernel32:KERNEL32.dll
 0002:000001dc       __imp__GetCurrentProcess@0 1001f1dc     kernel32:KERNEL32.dll
 0002:000001e0       __imp__WaitForSingleObjectEx@12 1001f1e0     kernel32:KERNEL32.dll
 0002:000001e4       __imp__UnhandledExceptionFilter@4 1001f1e4     kernel32:KERNEL32.dll
 0002:000001e8       __imp__SetUnhandledExceptionFilter@4 1001f1e8     kernel32:KERNEL32.dll
 0002:000001ec       \177KERNEL32_NULL_THUNK_DATA 1001f1ec     kernel32:KERNEL32.dll
 0002:000001f0       __imp__OleCreatePropertyFrame@44 1001f1f0     oleaut32:OLEAUT32.dll
 0002:000001f4       __imp__UnRegisterTypeLib@20 1001f1f4     oleaut32:OLEAUT32.dll
 0002:000001f8       __imp__RegisterTypeLib@12  1001f1f8     oleaut32:OLEAUT32.dll
 0002:000001fc       __imp__LoadRegTypeLib@20   1001f1fc     oleaut32:OLEAUT32.dll
 0002:00000200       __imp__LoadTypeLib@8       1001f200     oleaut32:OLEAUT32.dll
 0002:00000204       __imp__VarUI4FromStr@16    1001f204     oleaut32:OLEAUT32.dll
 0002:00000208       __imp__VariantInit@4       1001f208     oleaut32:OLEAUT32.dll
 0002:0000020c       __imp__SysAllocStringByteLen@8 1001f20c     oleaut32:OLEAUT32.dll
 0002:00000210       __imp__SysStringByteLen@4  1001f210     oleaut32:OLEAUT32.dll
 0002:00000214       __imp__VariantChangeType@16 1001f214     oleaut32:OLEAUT32.dll
 0002:00000218       __imp__VariantCopyInd@8    1001f218     oleaut32:OLEAUT32.dll
 0002:0000021c       __imp__VariantClear@4      1001f21c     oleaut32:OLEAUT32.dll
 0002:00000220       __imp__SysStringLen@4      1001f220     oleaut32:OLEAUT32.dll
 0002:00000224       __imp__SysFreeString@4     1001f224     oleaut32:OLEAUT32.dll
 0002:00000228       __imp__SysAllocStringLen@8 1001f228     oleaut32:OLEAUT32.dll
 0002:0000022c       __imp__SysAllocString@4    1001f22c     oleaut32:OLEAUT32.dll
 0002:00000230       \177OLEAUT32_NULL_THUNK_DATA 1001f230     oleaut32:OLEAUT32.dll
 0002:00000234       __imp__UnregisterClassW@8  1001f234     user32:USER32.dll
 0002:00000238       __imp__PostMessageW@16     1001f238     user32:USER32.dll
 0002:0000023c       __imp__DefWindowProcW@16   1001f23c     user32:USER32.dll
 0002:00000240       __imp__CallWindowProcW@20  1001f240     user32:USER32.dll
 0002:00000244       __imp__RegisterClassExW@4  1001f244     user32:USER32.dll
 0002:00000248       __imp__GetClassInfoExW@12  1001f248     user32:USER32.dll
 0002:0000024c       __imp__CreateWindowExW@48  1001f24c     user32:USER32.dll
 0002:00000250       __imp__IsWindow@4          1001f250     user32:USER32.dll
 0002:00000254       __imp__IsChild@8           1001f254     user32:USER32.dll
 0002:00000258       __imp__DestroyWindow@4     1001f258     user32:USER32.dll
 0002:0000025c       __imp__ShowWindow@8        1001f25c     user32:USER32.dll
 0002:00000260       __imp__SetWindowPos@28     1001f260     user32:USER32.dll
 0002:00000264       __imp__CharNextW@4         1001f264     user32:USER32.dll
 0002:00000268       __imp__SetFocus@4          1001f268     user32:USER32.dll
 0002:0000026c       __imp__LoadBitmapW@8       1001f26c     user32:USER32.dll
 0002:00000270       __imp__RegisterClassW@4    1001f270     user32:USER32.dll
 0002:00000274       __imp__PeekMessageW@20     1001f274     user32:USER32.dll
 0002:00000278       __imp__LoadCursorW@8       1001f278     user32:USER32.dll
 0002:0000027c       __imp__GetParent@4         1001f27c     user32:USER32.dll
 0002:00000280       __imp__SetWindowLongW@12   1001f280     user32:USER32.dll
 0002:00000284       __imp__GetWindowLongW@8    1001f284     user32:USER32.dll
 0002:00000288       __imp__PtInRect@12         1001f288     user32:USER32.dll
 0002:0000028c       __imp__EqualRect@8         1001f28c     user32:USER32.dll
 0002:00000290       __imp__OffsetRect@12       1001f290     user32:USER32.dll
 0002:00000294       __imp__UnionRect@12        1001f294     user32:USER32.dll
 0002:00000298       __imp__IntersectRect@12    1001f298     user32:USER32.dll
 0002:0000029c       __imp__GetClientRect@8     1001f29c     user32:USER32.dll
 0002:000002a0       __imp__InvalidateRect@12   1001f2a0     user32:USER32.dll
 0002:000002a4       __imp__SetWindowRgn@12     1001f2a4     user32:USER32.dll
 0002:000002a8       __imp__EndPaint@8          1001f2a8     user32:USER32.dll
 0002:000002ac       __imp__BeginPaint@8        1001f2ac     user32:USER32.dll
 0002:000002b0       __imp__ReleaseDC@8         1001f2b0     user32:USER32.dll
 0002:000002b4       __imp__GetDC@4             1001f2b4     user32:USER32.dll
 0002:000002b8       __imp__GetKeyState@4       1001f2b8     user32:USER32.dll
 0002:000002bc       __imp__GetFocus@0          1001f2bc     user32:USER32.dll
 0002:000002c0       \177USER32_NULL_THUNK_DATA 1001f2c0     user32:USER32.dll
 0002:000002c4       __imp__CoCreateInstance@20 1001f2c4     ole32:ole32.dll
 0002:000002c8       __imp__CoTaskMemAlloc@4    1001f2c8     ole32:ole32.dll
 0002:000002cc       __imp__CoTaskMemRealloc@8  1001f2cc     ole32:ole32.dll
 0002:000002d0       __imp__CoTaskMemFree@4     1001f2d0     ole32:ole32.dll
 0002:000002d4       __imp__ReadClassStm@8      1001f2d4     ole32:ole32.dll
 0002:000002d8       __imp__WriteClassStm@8     1001f2d8     ole32:ole32.dll
 0002:000002dc       __imp__CreateDataAdviseHolder@4 1001f2dc     ole32:ole32.dll
 0002:000002e0       __imp__OleSaveToStream@8   1001f2e0     ole32:ole32.dll
 0002:000002e4       __imp__CreateOleAdviseHolder@4 1001f2e4     ole32:ole32.dll
 0002:000002e8       __imp__OleRegGetUserType@12 1001f2e8     ole32:ole32.dll
 0002:000002ec       __imp__OleRegGetMiscStatus@12 1001f2ec     ole32:ole32.dll
 0002:000002f0       __imp__OleRegEnumVerbs@8   1001f2f0     ole32:ole32.dll
 0002:000002f4       __imp__CLSIDFromProgID@8   1001f2f4     ole32:ole32.dll
 0002:000002f8       __imp__StringFromGUID2@12  1001f2f8     ole32:ole32.dll
 0002:000002fc       \177ole32_NULL_THUNK_DATA  1001f2fc     ole32:ole32.dll
 0002:00000300       ___guard_check_icall_fptr  1001f300     LIBCMT:guard_support.obj
 0002:00000304       ___xc_a                    1001f304     LIBCMT:initializers.obj
 0002:0000031c       ___xc_z                    1001f31c     LIBCMT:initializers.obj
 0002:00000320       ___xi_a                    1001f320     LIBCMT:initializers.obj
 0002:00000328       ___acrt_stdio_initializer  1001f328     libucrt:stdio_initializer.obj
 0002:0000032c       ___acrt_multibyte_initializer 1001f32c     libucrt:multibyte_initializer.obj
 0002:00000330       ___acrt_tran_sse2_initializer 1001f330     libucrt:sse2_initializer.obj
 0002:00000334       ___xi_z                    1001f334     LIBCMT:initializers.obj
 0002:00000338       ___xl_a                    1001f338     LIBCMT:tlssup.obj
 0002:0000033c       ___xl_z                    1001f33c     LIBCMT:tlssup.obj
 0002:00000340       ___xp_a                    1001f340     LIBCMT:initializers.obj
 0002:00000344       ___acrt_locale_terminator  1001f344     libucrt:locale_initializer.obj
 0002:00000348       ___dcrt_console_output_terminator 1001f348     libucrt:console_output_initializer.obj
 0002:0000034c       ___acrt_stdio_terminator   1001f34c     libucrt:stdio_initializer.obj
 0002:00000350       ___xp_z                    1001f350     LIBCMT:initializers.obj
 0002:00000354       ___xt_a                    1001f354     LIBCMT:initializers.obj
 0002:00000358       ___xt_z                    1001f358     LIBCMT:initializers.obj
 0002:00000360       ??_C@_11LOCGONAA@@         1001f360     OposVariant.obj
 0002:00000364       ??_C@_13HADIAKP@?$AAS@     1001f364     OposVariant.obj
 0002:00000368       ??_C@_13LHMFKAAD@?$AAM@    1001f368     OposVariant.obj
 0002:0000036c       ??_C@_13MKMNOPIJ@?$AAD@    1001f36c     OposVariant.obj
 0002:00000370       ??_C@_13OPKGLAFF@?$AAB@    1001f370     OposVariant.obj
 0002:00000374       ??_C@_17LLMMEOJD@?$AAV?$AAa?$AAl@ 1001f374     OposVariant.obj
 0002:0000037c       ??_C@_1BI@JFAIJMHL@?$AAF?$AAo?$AAr?$AAc?$AAe?$AAR?$AAe?$AAm?$AAo?$AAv?$AAe@ 1001f37c     OposVariant.obj
 0002:00000394       ??_C@_1BC@GCKHIPE@?$AAN?$AAo?$AAR?$AAe?$AAm?$AAo?$AAv?$AAe@ 1001f394     OposVariant.obj
 0002:000003a8       ??_C@_1O@JDLOHAN@?$AAD?$AAe?$AAl?$AAe?$AAt?$AAe@ 1001f3a8     OposVariant.obj
 0002:000003b8       __GUID_00000000_0000_0000_c000_000000000046 1001f3b8     Biometrics.obj
 0002:000003c8       __GUID_00020400_0000_0000_c000_000000000046 1001f3c8     Biometrics.obj
 0002:000003d8       ??_C@_1M@KANJNLFF@?$AAC?$AAL?$AAS?$AAI?$AAD@ 1001f3d8     Biometrics.obj
 0002:000003e4       ??_C@_1M@EJNEECMJ@?$AAA?$AAp?$AAp?$AAI?$AAD@ 1001f3e4     Biometrics.obj
 0002:000003f0       ?_entries@?1??_GetEntries@COPOSBiometrics@@SGPBU_ATL_INTMAP_ENTRY@ATL@@XZ@4QBU34@B 1001f3f0     Biometrics.obj
 0002:00000510       ?rgszNeverDelete@CRegParser@ATL@@1QBQB_WB 1001f510     Biometrics.obj
 0002:00000540       __GUID_cf51ed10_62fe_11cf_bf86_00a0c9034836 1001f540     Biometrics.obj
 0002:00000550       __GUID_0000010a_0000_0000_c000_000000000046 1001f550     Biometrics.obj
 0002:00000560       __GUID_b196b283_bab4_101a_b69c_00aa00341d07 1001f560     Biometrics.obj
 0002:00000570       __GUID_cb5bdc81_93c1_11cf_8f20_00805f2cd064 1001f570     Biometrics.obj
 0002:00000580       ?pPropMap@?1??GetPropertyMap@COPOSBiometrics@@SAPBUATL_PROPMAP_ENTRY@ATL@@XZ@4QBU34@B 1001f580     Biometrics.obj
 0002:000005ec       ??_C@_17DGDADEHL@?$AA_?$AAc?$AAx@ 1001f5ec     Biometrics.obj
 0002:000005f4       ??_C@_17IOIMFDBO@?$AA_?$AAc?$AAy@ 1001f5f4     Biometrics.obj
 0002:000005fc       ??_7CRegObject@ATL@@6B@    1001f5fc     Biometrics.obj
 0002:00000614       __GUID_922eada0_3424_11cf_b670_00aa004cd6d8 1001f614     Biometrics.obj
 0002:00000624       __GUID_9c2cad80_3424_11cf_b670_00aa004cd6d8 1001f624     Biometrics.obj
 0002:00000634       __GUID_00000119_0000_0000_c000_000000000046 1001f634     Biometrics.obj
 0002:00000644       __GUID_b196b289_bab4_101a_b69c_00aa00341d07 1001f644     Biometrics.obj
 0002:00000654       __GUID_b196b286_bab4_101a_b69c_00aa00341d07 1001f654     Biometrics.obj
 0002:00000664       ??_C@_1CE@PGFMOFKI@?$AAS?$AAt?$AAa?$AAt?$AAu?$AAs?$AAU?$AAp?$AAd?$AAa?$AAt?$AAe?$AAE?$AAv?$AAe@ 1001f664     Biometrics.obj
 0002:00000688       __GUID_00000117_0000_0000_c000_000000000046 1001f688     Biometrics.obj
 0002:00000698       ??_C@_1BG@LODEBHDD@?$AAE?$AAr?$AAr?$AAo?$AAr?$AAE?$AAv?$AAe?$AAn?$AAt@ 1001f698     Biometrics.obj
 0002:000006b0       ??_C@_1BM@CBGEBBBJ@?$AAD?$AAi?$AAr?$AAe?$AAc?$AAt?$AAI?$AAO?$AAE?$AAv?$AAe?$AAn?$AAt@ 1001f6b0     Biometrics.obj
 0002:000006cc       ??_C@_1BE@IEBMACEM@?$AAD?$AAa?$AAt?$AAa?$AAE?$AAv?$AAe?$AAn?$AAt@ 1001f6cc     Biometrics.obj
 0002:000006e0       ??_C@_1CK@OEKPKBNA@?$AAC?$AAo?$AAm?$AAp?$AAo?$AAn?$AAe?$AAn?$AAt?$AA?5?$AAC?$AAa?$AAt?$AAe?$AAg@ 1001f6e0     Biometrics.obj
 0002:0000070c       ??_C@_1BC@NKMMNMGL@?$AAF?$AAi?$AAl?$AAe?$AAT?$AAy?$AAp?$AAe@ 1001f70c     Biometrics.obj
 0002:00000720       ??_C@_1BE@EKPAFMCP@?$AAI?$AAn?$AAt?$AAe?$AAr?$AAf?$AAa?$AAc?$AAe@ 1001f720     Biometrics.obj
 0002:00000734       ??_C@_1BC@MAICEHGI@?$AAH?$AAa?$AAr?$AAd?$AAw?$AAa?$AAr?$AAe@ 1001f734     Biometrics.obj
 0002:00000748       ??_C@_19HLLLM@?$AAM?$AAi?$AAm?$AAe@ 1001f748     Biometrics.obj
 0002:00000754       ??_C@_17OMAOINJK@?$AAS?$AAA?$AAM@ 1001f754     Biometrics.obj
 0002:0000075c       ??_C@_1BC@IBECJAAI@?$AAS?$AAE?$AAC?$AAU?$AAR?$AAI?$AAT?$AAY@ 1001f75c     Biometrics.obj
 0002:00000770       ??_C@_1O@GBFINDKL@?$AAS?$AAY?$AAS?$AAT?$AAE?$AAM@ 1001f770     Biometrics.obj
 0002:00000780       ??_C@_1BC@EAHCMADO@?$AAS?$AAo?$AAf?$AAt?$AAw?$AAa?$AAr?$AAe@ 1001f780     Biometrics.obj
 0002:00000794       ??_C@_1BA@JIHHIEDE@?$AAT?$AAy?$AAp?$AAe?$AAL?$AAi?$AAb@ 1001f794     Biometrics.obj
 0002:00000818       ??_C@_19NCHLBIN@?$AAH?$AAK?$AAC?$AAR@ 1001f818     Biometrics.obj
 0002:00000824       ??_C@_19JAPAIJDE@?$AAH?$AAK?$AAC?$AAU@ 1001f824     Biometrics.obj
 0002:00000830       ??_C@_19PEALEEJB@?$AAH?$AAK?$AAL?$AAM@ 1001f830     Biometrics.obj
 0002:0000083c       ??_C@_17PJOJPMPB@?$AAH?$AAK?$AAU@ 1001f83c     Biometrics.obj
 0002:00000844       ??_C@_19PNBHMJPL@?$AAH?$AAK?$AAP?$AAD@ 1001f844     Biometrics.obj
 0002:00000850       ??_C@_1BC@ENICKDH@?$AAC?$AAo?$AAn?$AAt?$AAe?$AAn?$AAt?$AAs@ 1001f850     Biometrics.obj
 0002:00000864       ??_C@_19GFFAIJHG@?$AAH?$AAK?$AAD?$AAD@ 1001f864     Biometrics.obj
 0002:00000870       ??_C@_19OFICIBHH@?$AAH?$AAK?$AAC?$AAC@ 1001f870     Biometrics.obj
 0002:0000087c       ??_C@_1CE@PACHPJFI@?$AAH?$AAK?$AAE?$AAY?$AA_?$AAC?$AAL?$AAA?$AAS?$AAS?$AAE?$AAS?$AA_?$AAR?$AAO@ 1001f87c     Biometrics.obj
 0002:000008a0       ??_C@_1CE@HLHNCBPM@?$AAH?$AAK?$AAE?$AAY?$AA_?$AAC?$AAU?$AAR?$AAR?$AAE?$AAN?$AAT?$AA_?$AAU?$AAS@ 1001f8a0     Biometrics.obj
 0002:000008c4       ??_C@_1CG@GFBEANJL@?$AAH?$AAK?$AAE?$AAY?$AA_?$AAL?$AAO?$AAC?$AAA?$AAL?$AA_?$AAM?$AAA?$AAC?$AAH@ 1001f8c4     Biometrics.obj
 0002:000008ec       ??_C@_1BG@BGODANIO@?$AAH?$AAK?$AAE?$AAY?$AA_?$AAU?$AAS?$AAE?$AAR?$AAS@ 1001f8ec     Biometrics.obj
 0002:00000904       ??_C@_1CM@KHNNAOIC@?$AAH?$AAK?$AAE?$AAY?$AA_?$AAP?$AAE?$AAR?$AAF?$AAO?$AAR?$AAM?$AAA?$AAN?$AAC@ 1001f904     Biometrics.obj
 0002:00000930       ??_C@_1BM@HAGMMHIA@?$AAH?$AAK?$AAE?$AAY?$AA_?$AAD?$AAY?$AAN?$AA_?$AAD?$AAA?$AAT?$AAA@ 1001f930     Biometrics.obj
 0002:0000094c       ??_C@_1CI@BBJOACGG@?$AAH?$AAK?$AAE?$AAY?$AA_?$AAC?$AAU?$AAR?$AAR?$AAE?$AAN?$AAT?$AA_?$AAC?$AAO@ 1001f94c     Biometrics.obj
 0002:00000974       ??_7?$CComObject@V?$CComEnum@UIEnumConnectionPoints@@$1?_GUID_b196b285_bab4_101a_b69c_00aa00341d07@@3U__s_GUID@@BPAUIConnectionPoint@@V?$_CopyInterface@UIConnectionPoint@@@ATL@@VCComSingleThreadModel@6@@ATL@@@ATL@@6B@ 1001f974     Biometrics.obj
 0002:00000998       ??_C@_1EA@NHKLICFA@?$AAH?$AAK?$AAC?$AAU?$AA?$AN?$AA?6?$AA?$HL?$AA?7?$AAS?$AAo?$AAf?$AAt?$AAw?$AAa?$AAr@ 1001f998     Biometrics.obj
 0002:000009d8       ??_C@_1BE@LJOLIMEM@?$AA?$AN?$AA?6?$AA?7?$AA?$HN?$AA?$AN?$AA?6?$AA?$HN?$AA?$AN?$AA?6@ 1001f9d8     Biometrics.obj
 0002:000009ec       __GUID_00000109_0000_0000_c000_000000000046 1001f9ec     Biometrics.obj
 0002:000009fc       __GUID_7fd52380_4e07_101b_ae2d_08002b2ec713 1001f9fc     Biometrics.obj
 0002:00000a0c       ??_C@_1O@MNLDABAF@?$AAM?$AAo?$AAd?$AAu?$AAl?$AAe@ 1001fa0c     Biometrics.obj
 0002:00000a1c       ??_C@_1BG@JBACFMF@?$AAM?$AAo?$AAd?$AAu?$AAl?$AAe?$AA_?$AAR?$AAa?$AAw@ 1001fa1c     Biometrics.obj
 0002:00000a34       ??_C@_1BC@KAILKFFG@?$AAR?$AAE?$AAG?$AAI?$AAS?$AAT?$AAR?$AAY@ 1001fa34     Biometrics.obj
 0002:00000a48       __GUID_0000010e_0000_0000_c000_000000000046 1001fa48     Biometrics.obj
 0002:00000a58       __GUID_b196b288_bab4_101a_b69c_00aa00341d07 1001fa58     Biometrics.obj
 0002:00000a68       __GUID_00000113_0000_0000_c000_000000000046 1001fa68     Biometrics.obj
 0002:00000a78       __GUID_1c2056cc_5ef4_101b_8bc8_00aa003e3b29 1001fa78     Biometrics.obj
 0002:00000a88       __GUID_00000112_0000_0000_c000_000000000046 1001fa88     Biometrics.obj
 0002:00000a98       __GUID_3af24292_0c96_11ce_a0cf_00aa00600ab8 1001fa98     Biometrics.obj
 0002:00000aa8       __GUID_00000127_0000_0000_c000_000000000046 1001faa8     Biometrics.obj
 0002:00000ab8       __GUID_0000010d_0000_0000_c000_000000000046 1001fab8     Biometrics.obj
 0002:00000ac8       ??_7?$CComObjectCached@VCComClassFactory@ATL@@@ATL@@6B@ 1001fac8     Biometrics.obj
 0002:00000ae0       __GUID_b196b284_bab4_101a_b69c_00aa00341d07 1001fae0     Biometrics.obj
 0002:00000af0       ??_C@_1M@PPPPCDEP@?$AAA?$AAP?$AAP?$AAI?$AAD@ 1001faf0     Biometrics.obj
 0002:00000afc       ??_7?$CComContainedObject@VCOPOSBiometrics@@@ATL@@6B?$IDispatchImpl@UIOPOSBiometrics@@$1?IID_IOPOSBiometrics@@3U_GUID@@B$1?LIBID_OposBiometrics_CCO@@3U3@B$00$0A@VCComTypeInfoHolder@ATL@@@1@@ 1001fafc     Biometrics.obj
 0002:00000c5c       ??_7?$CComContainedObject@VCOPOSBiometrics@@@ATL@@6BCComControlBase@1@@ 1001fc5c     Biometrics.obj
 0002:00000c70       ??_7?$CComContainedObject@VCOPOSBiometrics@@@ATL@@6B?$CWindowImpl@VCOPOSBiometrics@@VCWindow@ATL@@V?$CWinTraits@$0FGAAAAAA@$0A@@3@@1@@ 1001fc70     Biometrics.obj
 0002:00000c80       ??_7?$CComContainedObject@VCOPOSBiometrics@@@ATL@@6B?$IPersistStreamInitImpl@VCOPOSBiometrics@@@1@@ 1001fc80     Biometrics.obj
 0002:00000ca4       ??_7?$CComContainedObject@VCOPOSBiometrics@@@ATL@@6B?$IOleControlImpl@VCOPOSBiometrics@@@1@@ 1001fca4     Biometrics.obj
 0002:00000cc0       ??_7?$CComContainedObject@VCOPOSBiometrics@@@ATL@@6B?$IOleObjectImpl@VCOPOSBiometrics@@@1@@ 1001fcc0     Biometrics.obj
 0002:00000d20       ??_7?$CComContainedObject@VCOPOSBiometrics@@@ATL@@6B?$IOleInPlaceActiveObjectImpl@VCOPOSBiometrics@@@1@@ 1001fd20     Biometrics.obj
 0002:00000d48       ??_7?$CComContainedObject@VCOPOSBiometrics@@@ATL@@6B?$IViewObjectExImpl@VCOPOSBiometrics@@@1@@ 1001fd48     Biometrics.obj
 0002:00000d84       ??_7?$CComContainedObject@VCOPOSBiometrics@@@ATL@@6B?$IOleInPlaceObjectWindowlessImpl@VCOPOSBiometrics@@@1@@ 1001fd84     Biometrics.obj
 0002:00000db0       ??_7?$CComContainedObject@VCOPOSBiometrics@@@ATL@@6B?$IConnectionPointContainerImpl@VCOPOSBiometrics@@@1@@ 1001fdb0     Biometrics.obj
 0002:00000dc4       ??_7?$CComContainedObject@VCOPOSBiometrics@@@ATL@@6B?$IPersistStorageImpl@VCOPOSBiometrics@@@1@@ 1001fdc4     Biometrics.obj
 0002:00000dec       ??_7?$CComContainedObject@VCOPOSBiometrics@@@ATL@@6B?$ISpecifyPropertyPagesImpl@VCOPOSBiometrics@@@1@@ 1001fdec     Biometrics.obj
 0002:00000dfc       ??_7?$CComContainedObject@VCOPOSBiometrics@@@ATL@@6B?$IQuickActivateImpl@VCOPOSBiometrics@@@1@@ 1001fdfc     Biometrics.obj
 0002:00000e14       ??_7?$CComContainedObject@VCOPOSBiometrics@@@ATL@@6B?$IDataObjectImpl@VCOPOSBiometrics@@@1@@ 1001fe14     Biometrics.obj
 0002:00000e44       ??_7?$CComContainedObject@VCOPOSBiometrics@@@ATL@@6B?$IProvideClassInfo2Impl@$1?CLSID_OPOSBiometrics@@3U_GUID@@B$1?DIID__IOPOSBiometricsEvents@@3U2@B$1?LIBID_OposBiometrics_CCO@@3U2@B$00$0A@VCComTypeInfoHolder@ATL@@@1@@ 1001fe44     Biometrics.obj
 0002:00000e58       ??_7?$CComContainedObject@VCOPOSBiometrics@@@ATL@@6B?$IObjectSafetyImpl@VCOPOSBiometrics@@$02@1@@ 1001fe58     Biometrics.obj
 0002:00000e70       ??_7?$CComContainedObject@VCOPOSBiometrics@@@ATL@@6B?$IPropertyNotifySinkCP@VCOPOSBiometrics@@VCComDynamicUnkArray@ATL@@@1@@ 1001fe70     Biometrics.obj
 0002:00000e90       ??_7?$CComContainedObject@VCOPOSBiometrics@@@ATL@@6B?$CProxy_IOPOSEvents@VCOPOSBiometrics@@@@@ 1001fe90     Biometrics.obj
 0002:00000eb0       ??_7?$CComAggObject@VCOPOSBiometrics@@@ATL@@6B@ 1001feb0     Biometrics.obj
 0002:00000ec0       ??_7?$CComObject@VCOPOSBiometrics@@@ATL@@6B?$IDispatchImpl@UIOPOSBiometrics@@$1?IID_IOPOSBiometrics@@3U_GUID@@B$1?LIBID_OposBiometrics_CCO@@3U3@B$00$0A@VCComTypeInfoHolder@ATL@@@1@@ 1001fec0     Biometrics.obj
 0002:00001020       ??_7?$CComObject@VCOPOSBiometrics@@@ATL@@6BCComControlBase@1@@ 10020020     Biometrics.obj
 0002:00001034       ??_7?$CComObject@VCOPOSBiometrics@@@ATL@@6B?$CWindowImpl@VCOPOSBiometrics@@VCWindow@ATL@@V?$CWinTraits@$0FGAAAAAA@$0A@@3@@1@@ 10020034     Biometrics.obj
 0002:00001044       ??_7?$CComObject@VCOPOSBiometrics@@@ATL@@6B?$IPersistStreamInitImpl@VCOPOSBiometrics@@@1@@ 10020044     Biometrics.obj
 0002:00001068       ??_7?$CComObject@VCOPOSBiometrics@@@ATL@@6B?$IOleControlImpl@VCOPOSBiometrics@@@1@@ 10020068     Biometrics.obj
 0002:00001084       ??_7?$CComObject@VCOPOSBiometrics@@@ATL@@6B?$IOleObjectImpl@VCOPOSBiometrics@@@1@@ 10020084     Biometrics.obj
 0002:000010e4       ??_7?$CComObject@VCOPOSBiometrics@@@ATL@@6B?$IOleInPlaceActiveObjectImpl@VCOPOSBiometrics@@@1@@ 100200e4     Biometrics.obj
 0002:0000110c       ??_7?$CComObject@VCOPOSBiometrics@@@ATL@@6B?$IViewObjectExImpl@VCOPOSBiometrics@@@1@@ 1002010c     Biometrics.obj
 0002:00001148       ??_7?$CComObject@VCOPOSBiometrics@@@ATL@@6B?$IOleInPlaceObjectWindowlessImpl@VCOPOSBiometrics@@@1@@ 10020148     Biometrics.obj
 0002:00001174       ??_7?$CComObject@VCOPOSBiometrics@@@ATL@@6B?$IConnectionPointContainerImpl@VCOPOSBiometrics@@@1@@ 10020174     Biometrics.obj
 0002:00001188       ??_7?$CComObject@VCOPOSBiometrics@@@ATL@@6B?$IPersistStorageImpl@VCOPOSBiometrics@@@1@@ 10020188     Biometrics.obj
 0002:000011b0       ??_7?$CComObject@VCOPOSBiometrics@@@ATL@@6B?$ISpecifyPropertyPagesImpl@VCOPOSBiometrics@@@1@@ 100201b0     Biometrics.obj
 0002:000011c0       ??_7?$CComObject@VCOPOSBiometrics@@@ATL@@6B?$IQuickActivateImpl@VCOPOSBiometrics@@@1@@ 100201c0     Biometrics.obj
 0002:000011d8       ??_7?$CComObject@VCOPOSBiometrics@@@ATL@@6B?$IDataObjectImpl@VCOPOSBiometrics@@@1@@ 100201d8     Biometrics.obj
 0002:00001208       ??_7?$CComObject@VCOPOSBiometrics@@@ATL@@6B?$IProvideClassInfo2Impl@$1?CLSID_OPOSBiometrics@@3U_GUID@@B$1?DIID__IOPOSBiometricsEvents@@3U2@B$1?LIBID_OposBiometrics_CCO@@3U2@B$00$0A@VCComTypeInfoHolder@ATL@@@1@@ 10020208     Biometrics.obj
 0002:0000121c       ??_7?$CComObject@VCOPOSBiometrics@@@ATL@@6B?$IObjectSafetyImpl@VCOPOSBiometrics@@$02@1@@ 1002021c     Biometrics.obj
 0002:00001234       ??_7?$CComObject@VCOPOSBiometrics@@@ATL@@6B?$IPropertyNotifySinkCP@VCOPOSBiometrics@@VCComDynamicUnkArray@ATL@@@1@@ 10020234     Biometrics.obj
 0002:00001254       ??_7?$CComObject@VCOPOSBiometrics@@@ATL@@6B?$CProxy_IOPOSEvents@VCOPOSBiometrics@@@@@ 10020254     Biometrics.obj
 0002:00001274       ??_C@_1O@GBFKGNEO@?$AAA?$AAT?$AAL?$AA?3?$AA?$CF?$AAp@ 10020274     Biometrics.obj
 0002:00001284       ??_C@_1BA@PICGEGJB@?$AAD?$AAI?$AAS?$AAP?$AAL?$AAA?$AAY@ 10020284     Biometrics.obj
 0002:00001294       __GUID_9bfbbc02_eff1_101a_84ed_00aa00341d07 10020294     Biometrics.obj
 0002:000012a4       ?_entries@?1??_GetEntries@?$CComEnum@UIEnumConnectionPoints@@$1?_GUID_b196b285_bab4_101a_b69c_00aa00341d07@@3U__s_GUID@@BPAUIConnectionPoint@@V?$_CopyInterface@UIConnectionPoint@@@ATL@@VCComSingleThreadModel@6@@ATL@@SGPBU_ATL_INTMAP_ENTRY@3@XZ@4QBU43@B 100202a4     Biometrics.obj
 0002:000012bc       __GUID_00020412_0000_0000_c000_000000000046 100202bc     Biometrics.obj
 0002:000012cc       __GUID_00020401_0000_0000_c000_000000000046 100202cc     Biometrics.obj
 0002:000012dc       ??_7CComClassFactory@ATL@@6B@ 100202dc     Biometrics.obj
 0002:000012f4       ?_entries@?1??_GetEntries@CComClassFactory@ATL@@SGPBU_ATL_INTMAP_ENTRY@3@XZ@4QBU43@B 100202f4     Biometrics.obj
 0002:0000130c       __GUID_00000001_0000_0000_c000_000000000046 1002030c     Biometrics.obj
 0002:0000131c       __GUID_55980ba0_35aa_11cf_b671_00aa004cd6d8 1002031c     Biometrics.obj
 0002:0000132c       ??_7?$CComObject@V?$CComEnum@UIEnumConnections@@$1?_GUID_b196b287_bab4_101a_b69c_00aa00341d07@@3U__s_GUID@@BUtagCONNECTDATA@@V?$_Copy@UtagCONNECTDATA@@@ATL@@VCComSingleThreadModel@6@@ATL@@@ATL@@6B@ 1002032c     Biometrics.obj
 0002:0000134c       __GUID_b196b28b_bab4_101a_b69c_00aa00341d07 1002034c     Biometrics.obj
 0002:0000135c       ?_entries@?1??_GetEntries@?$CComEnum@UIEnumConnections@@$1?_GUID_b196b287_bab4_101a_b69c_00aa00341d07@@3U__s_GUID@@BUtagCONNECTDATA@@V?$_Copy@UtagCONNECTDATA@@@ATL@@VCComSingleThreadModel@6@@ATL@@SGPBU_ATL_INTMAP_ENTRY@3@XZ@4QBU43@B 1002035c     Biometrics.obj
 0002:00001374       ??_C@_1BK@BIGILECK@?$AAA?$AAd?$AAv?$AAa?$AAp?$AAi?$AA3?$AA2?$AA?4?$AAd?$AAl?$AAl@ 10020374     Biometrics.obj
 0002:00001390       ??_C@_0BI@MNCFCPFK@RegCreateKeyTransactedW@ 10020390     Biometrics.obj
 0002:000013a8       __GUID_b196b287_bab4_101a_b69c_00aa00341d07 100203a8     Biometrics.obj
 0002:000013b8       __GUID_b196b285_bab4_101a_b69c_00aa00341d07 100203b8     Biometrics.obj
 0002:000013c8       __GUID_a6bc3ac0_dbaa_11ce_9de3_00aa004bb851 100203c8     Biometrics.obj
 0002:000013d8       _IID_IOPOSBiometrics_1_10  100203d8     Biometrics.obj
 0002:000013e8       __GUID_0000010c_0000_0000_c000_000000000046 100203e8     Biometrics.obj
 0002:000013f8       __GUID_00000146_0000_0000_c000_000000000046 100203f8     Biometrics.obj
 0002:00001408       _IID_IOPOSBiometrics       10020408     Biometrics.obj
 0002:00001418       _LIBID_OposBiometrics_CCO  10020418     Biometrics.obj
 0002:00001428       _DIID__IOPOSBiometricsEvents 10020428     Biometrics.obj
 0002:00001438       _CLSID_OPOSBiometrics      10020438     Biometrics.obj
 0002:00001448       __GUID_00000114_0000_0000_c000_000000000046 10020448     Biometrics.obj
 0002:00001458       ??_7CComModule@ATL@@6B@    10020458     Biometrics.obj
 0002:00001480       ??_C@_0BG@EKFFMJIO@RegOpenKeyTransactedW@ 10020480     Biometrics.obj
 0002:00001498       ??_C@_0BI@HAKLOOGP@RegDeleteKeyTransactedW@ 10020498     Biometrics.obj
 0002:000014b0       ??_C@_19ILOCMLCJ@?$AA?4?$AAt?$AAl?$AAb@ 100204b0     Biometrics.obj
 0002:000014bc       __GUID_0002e012_0000_0000_c000_000000000046 100204bc     Biometrics.obj
 0002:000014cc       ??_C@_1O@FHBGLCIO@?$AAC?$AAL?$AAS?$AAI?$AAD?$AA?2@ 100204cc     Biometrics.obj
 0002:000014dc       ??_C@_1CK@IFBKBFAA@?$AA?2?$AAR?$AAe?$AAq?$AAu?$AAi?$AAr?$AAe?$AAd?$AA?5?$AAC?$AAa?$AAt?$AAe?$AAg@ 100204dc     Biometrics.obj
 0002:00001508       ??_C@_1DA@BIHALFED@?$AA?2?$AAI?$AAm?$AAp?$AAl?$AAe?$AAm?$AAe?$AAn?$AAt?$AAe?$AAd?$AA?5?$AAC?$AAa@ 10020508     Biometrics.obj
 0002:00001538       ??_C@_1BK@EDKOLFBJ@?$AAO?$AAL?$AAE?$AAA?$AAU?$AAT?$AA3?$AA2?$AA?4?$AAD?$AAL?$AAL@ 10020538     Biometrics.obj
 0002:00001554       ??_C@_0BJ@CNLFOMHB@UnRegisterTypeLibForUser@ 10020554     Biometrics.obj
 0002:00001570       ??_C@_0BH@LBOMMKPJ@RegisterTypeLibForUser@ 10020570     Biometrics.obj
 0002:00001588       ??_C@_0P@MMNMMLGK@COFreezeEvents@ 10020588     BiometricsImpl.obj
 0002:00001598       ??_C@_0BC@OGCGGIMP@GetPropertyNumber@ 10020598     BiometricsImpl.obj
 0002:000015ac       ??_C@_0BC@MDCNODNB@SetPropertyNumber@ 100205ac     BiometricsImpl.obj
 0002:000015c0       ??_C@_0BC@CFCCMIMD@GetPropertyString@ 100205c0     BiometricsImpl.obj
 0002:000015d4       ??_C@_0BC@CJEDNN@SetPropertyString@ 100205d4     BiometricsImpl.obj
 0002:000015e8       ??_C@_0M@LNPKKKDA@OpenService@ 100205e8     BiometricsImpl.obj
 0002:000015f4       ??_C@_0M@PCMCHHMH@CheckHealth@ 100205f4     BiometricsImpl.obj
 0002:00001600       ??_C@_0M@JGMIDNEK@ClaimDevice@ 10020600     BiometricsImpl.obj
 0002:0000160c       ??_C@_0L@BNEIFEJC@ClearInput@ 1002060c     BiometricsImpl.obj
 0002:00001618       ??_C@_0N@DDFIIBMP@CloseService@ 10020618     BiometricsImpl.obj
 0002:00001628       ??_C@_08EEIHICPC@DirectIO@ 10020628     BiometricsImpl.obj
 0002:00001634       ??_C@_0O@BCPMENMJ@ReleaseDevice@ 10020634     BiometricsImpl.obj
 0002:00001644       ??_C@_0BA@GFABKEEE@ResetStatistics@ 10020644     BiometricsImpl.obj
 0002:00001654       ??_C@_0BD@DPALHJGC@RetrieveStatistics@ 10020654     BiometricsImpl.obj
 0002:00001668       ??_C@_0BB@KOHIKNFC@UpdateStatistics@ 10020668     BiometricsImpl.obj
 0002:0000167c       ??_C@_0BH@PBKBNMGB@CompareFirmwareVersion@ 1002067c     BiometricsImpl.obj
 0002:00001694       ??_C@_0P@FBPDPIPA@UpdateFirmware@ 10020694     BiometricsImpl.obj
 0002:000016a4       ??_C@_0BF@CMAPCJGM@ClearInputProperties@ 100206a4     BiometricsImpl.obj
 0002:000016bc       ??_C@_0BD@NCBJJODO@BeginEnrollCapture@ 100206bc     BiometricsImpl.obj
 0002:000016d0       ??_C@_0BD@DGMDGFJO@BeginVerifyCapture@ 100206d0     BiometricsImpl.obj
 0002:000016e4       ??_C@_0L@GDHLKFDG@EndCapture@ 100206e4     BiometricsImpl.obj
 0002:000016f0       ??_C@_08CMMNHGIP@Identify@ 100206f0     BiometricsImpl.obj
 0002:000016fc       ??_C@_0O@MJNIFCOM@IdentifyMatch@ 100206fc     BiometricsImpl.obj
 0002:0000170c       ??_C@_0BE@CCPPGGAJ@ProcessPrematchData@ 1002070c     BiometricsImpl.obj
 0002:00001720       ??_C@_06NDEBMOO@Verify@    10020720     BiometricsImpl.obj
 0002:00001728       ??_C@_0M@PJLEGMK@VerifyMatch@ 10020728     BiometricsImpl.obj
 0002:00001734       ??_7?$CProxy_IOPOSEvents@VCOPOSBiometrics@@@@6B@ 10020734     BiometricsImpl.obj
 0002:00001754       ??_C@_1BA@IFHENID@?$AA?$FL?$AAE?$AAr?$AAr?$AAo?$AAr?$AA?$FN@ 10020754     BiometricsImpl.obj
 0002:00001764       ??_C@_0CN@LNAAFFHC@SOFTWARE?2OLEforRetail?2ServiceOP@ 10020764     BiometricsImpl.obj
 0002:00001794       ??_C@_1M@IAIJHCCH@?$AAC?$AAl?$AAo?$AAs?$AAe@ 10020794     BiometricsImpl.obj
 0002:000017a0       ??_C@_1M@PCPKGJAH@?$AAC?$AAl?$AAa?$AAi?$AAm@ 100207a0     BiometricsImpl.obj
 0002:000017ac       ??_C@_1BA@NDFKIOCP@?$AAR?$AAe?$AAl?$AAe?$AAa?$AAs?$AAe@ 100207ac     BiometricsImpl.obj
 0002:000017bc       ??_C@_0L@DNBIECGH@Biometrics@ 100207bc     BiometricsImpl.obj
 0002:000017c8       ??_C@_1BM@IJMNMBPK@?$AAG?$AAe?$AAt?$AAO?$AAp?$AAe?$AAn?$AAR?$AAe?$AAs?$AAu?$AAl?$AAt@ 100207c8     BiometricsImpl.obj
 0002:000017e4       _GUID_NULL                 100207e4     uuid:cguid_i.obj
 0002:000017f4       _CLSID_StdGlobalInterfaceTable 100207f4     uuid:cguid_i.obj
 0002:00001804       _IID_IDispatch             10020804     uuid:oaidl_i.obj
 0002:00001814       _IID_IPropertyNotifySink   10020814     uuid:ocidl_i.obj
 0002:00001824       _CLSID_StdComponentCategoriesMgr 10020824     uuid:ieguids.obj
 0002:00001834       _IID_IUnknown              10020834     uuid:unknwn_i.obj
 0002:00001848       ??_C@_1EC@JIJBPKFM@?$AAa?$AAp?$AAi?$AA?9?$AAm?$AAs?$AA?9?$AAw?$AAi?$AAn?$AA?9?$AAc?$AAo?$AAr?$AAe@ 10020848     LIBCMT:thread_safe_statics.obj
 0002:0000188c       ??_C@_1BK@MGMFAEKH@?$AAk?$AAe?$AAr?$AAn?$AAe?$AAl?$AA3?$AA2?$AA?4?$AAd?$AAl?$AAl@ 1002088c     LIBCMT:thread_safe_statics.obj
 0002:000018a8       ??_C@_0BM@HLJJNPAH@InitializeConditionVariable@ 100208a8     LIBCMT:thread_safe_statics.obj
 0002:000018c4       ??_C@_0BJ@JEBJOJFJ@SleepConditionVariableCS@ 100208c4     LIBCMT:thread_safe_statics.obj
 0002:000018e0       ??_C@_0BJ@PGPPEPCC@WakeAllConditionVariable@ 100208e0     LIBCMT:thread_safe_statics.obj
 0002:000018f9       ?nothrow@std@@3Unothrow_t@1@B 100208f9     LIBCMT:std_nothrow.obj
 0002:00001904       __pRawDllMain              10020904     LIBCMT:dll_dllmain.obj
 0002:00001904       __pDefaultRawDllMain       10020904     LIBCMT:dll_dllmain.obj
 0002:0000190c       ??_7exception@std@@6B@     1002090c     LIBCMT:throw_bad_alloc.obj
 0002:00001914       ??_C@_0BC@EOODALEL@Unknown?5exception@ 10020914     LIBCMT:throw_bad_alloc.obj
 0002:0000192c       ??_7bad_alloc@std@@6B@     1002092c     LIBCMT:throw_bad_alloc.obj
 0002:00001934       ??_C@_0P@GHFPNOJB@bad?5allocation@ 10020934     LIBCMT:throw_bad_alloc.obj
 0002:00001948       ??_7bad_array_new_length@std@@6B@ 10020948     LIBCMT:throw_bad_alloc.obj
 0002:00001950       ??_C@_0BF@KINCDENJ@bad?5array?5new?5length@ 10020950     LIBCMT:throw_bad_alloc.obj
 0002:0000196c       ??_7type_info@@6B@         1002096c     LIBCMT:std_type_info_static.obj
 0002:00001970       _GUID_ATLVer110            10020970     atls:atlbase.obj
 0002:00001980       ??_C@_1IC@ONKHOIDK@?$AAE?$AAR?$AAR?$AAO?$AAR?$AA?5?$AA?3?$AA?5?$AAU?$AAn?$AAa?$AAb?$AAl?$AAe?$AA?5@ 10020980     atls:atlbase.obj
 0002:00001a04       ??_C@_0N@FJEPLCIH@atlthunk?4dll@ 10020a04     atls:atlthunk.obj
 0002:00001a14       ??_C@_0BG@GAKFHCBM@AtlThunk_AllocateData@ 10020a14     atls:atlthunk.obj
 0002:00001a2c       ??_C@_0BC@JKONFIAH@AtlThunk_InitData@ 10020a2c     atls:atlthunk.obj
 0002:00001a40       ??_C@_0BE@IAOEELAK@AtlThunk_DataToCode@ 10020a40     atls:atlthunk.obj
 0002:00001a54       ??_C@_0BC@GBGKAIPI@AtlThunk_FreeData@ 10020a54     atls:atlthunk.obj
 0002:00001a94       ??_C@_1DM@KHCHBNEB@?$AAa?$AAp?$AAi?$AA?9?$AAm?$AAs?$AA?9?$AAw?$AAi?$AAn?$AA?9?$AAc?$AAo?$AAr?$AAe@ 10020a94     libvcruntime:winapi_downlevel.obj
 0002:00001ad0       ??_C@_1DK@LPPGFMPP@?$AAa?$AAp?$AAi?$AA?9?$AAm?$AAs?$AA?9?$AAw?$AAi?$AAn?$AA?9?$AAc?$AAo?$AAr?$AAe@ 10020ad0     libvcruntime:winapi_downlevel.obj
 0002:00001b0c       ??_C@_1BC@GDMECMAK@?$AAk?$AAe?$AAr?$AAn?$AAe?$AAl?$AA3?$AA2@ 10020b0c     libvcruntime:winapi_downlevel.obj
 0002:00001b20       ??_C@_1BA@PFFKHIOG@?$AAa?$AAp?$AAi?$AA?9?$AAm?$AAs?$AA?9@ 10020b20     libvcruntime:winapi_downlevel.obj
 0002:00001b30       ??_C@_1BA@IAIFMGEF@?$AAe?$AAx?$AAt?$AA?9?$AAm?$AAs?$AA?9@ 10020b30     libvcruntime:winapi_downlevel.obj
 0002:00001b48       ??_C@_08KNHFBNJ@FlsAlloc@  10020b48     libvcruntime:winapi_downlevel.obj
 0002:00001b5c       ??_C@_07PEJMOBNF@FlsFree@  10020b5c     libvcruntime:winapi_downlevel.obj
 0002:00001b6c       ??_C@_0M@GDNOONDI@FlsGetValue@ 10020b6c     libvcruntime:winapi_downlevel.obj
 0002:00001b80       ??_C@_0M@JCPCPOEF@FlsSetValue@ 10020b80     libvcruntime:winapi_downlevel.obj
 0002:00001b94       ??_C@_0BM@HCFOFFN@InitializeCriticalSectionEx@ 10020b94     libvcruntime:winapi_downlevel.obj
 0002:00001bb4       ??_7bad_exception@std@@6B@ 10020bb4     libvcruntime:frame.obj
 0002:00001bbc       ??_C@_0O@DPKOEFFH@bad?5exception@ 10020bbc     libvcruntime:frame.obj
 0002:00001d6c       ??_C@_08EHJDFFNH@__based?$CI@ 10020d6c     libvcruntime:undname.obj
 0002:00001d78       ??_C@_07KOLFKCDI@__cdecl@  10020d78     libvcruntime:undname.obj
 0002:00001d80       ??_C@_08GHMPAG@__pascal@   10020d80     libvcruntime:undname.obj
 0002:00001d8c       ??_C@_09IFJBGAPI@__stdcall@ 10020d8c     libvcruntime:undname.obj
 0002:00001d98       ??_C@_0L@NPHFGOKO@__thiscall@ 10020d98     libvcruntime:undname.obj
 0002:00001da4       ??_C@_0L@JMKHOMEK@__fastcall@ 10020da4     libvcruntime:undname.obj
 0002:00001db0       ??_C@_0N@BCKKPABJ@__vectorcall@ 10020db0     libvcruntime:undname.obj
 0002:00001dc0       ??_C@_09HIJEGCPM@__clrcall@ 10020dc0     libvcruntime:undname.obj
 0002:00001dcc       ??_C@_06GHPCKEAG@__eabi@   10020dcc     libvcruntime:undname.obj
 0002:00001dd4       ??_C@_09IOPIDJLG@__swift_1@ 10020dd4     libvcruntime:undname.obj
 0002:00001de0       ??_C@_09KFNFGKHF@__swift_2@ 10020de0     libvcruntime:undname.obj
 0002:00001dec       ??_C@_07JOMMBBKO@__ptr64@  10020dec     libvcruntime:undname.obj
 0002:00001df4       ??_C@_0L@PILCLIHE@__restrict@ 10020df4     libvcruntime:undname.obj
 0002:00001e00       ??_C@_0M@GFIIJFMG@__unaligned@ 10020e00     libvcruntime:undname.obj
 0002:00001e0c       ??_C@_09DHDLOLLB@restrict?$CI@ 10020e0c     libvcruntime:undname.obj
 0002:00001e16       ??_C@_00CNPNBAHC@@         10020e16     libvcruntime:undname.obj
 0002:00001e18       ??_C@_04NIHEBCM@?5new@     10020e18     libvcruntime:undname.obj
 0002:00001e20       ??_C@_07FPCDHGMM@?5delete@ 10020e20     libvcruntime:undname.obj
 0002:00001e28       ??_C@_01NEMOKFLO@?$DN@     10020e28     libvcruntime:undname.obj
 0002:00001e2c       ??_C@_02GPIOPFAK@?$DO?$DO@ 10020e2c     libvcruntime:undname.obj
 0002:00001e30       ??_C@_02FODMEDOG@?$DM?$DM@ 10020e30     libvcruntime:undname.obj
 0002:00001e34       ??_C@_01DCLJPIOD@?$CB@     10020e34     libvcruntime:undname.obj
 0002:00001e38       ??_C@_02EGOFBIJA@?$DN?$DN@ 10020e38     libvcruntime:undname.obj
 0002:00001e3c       ??_C@_02FDNJECIE@?$CB?$DN@ 10020e3c     libvcruntime:undname.obj
 0002:00001e40       ??_C@_02GPECMEKF@?$FL?$FN@ 10020e40     libvcruntime:undname.obj
 0002:00001e44       ??_C@_08LHJFAFGD@operator@ 10020e44     libvcruntime:undname.obj
 0002:00001e50       ??_C@_02HBOOOICD@?9?$DO@   10020e50     libvcruntime:undname.obj
 0002:00001e54       ??_C@_01NBENCBCI@?$CK@     10020e54     libvcruntime:undname.obj
 0002:00001e58       ??_C@_02ECNGHCIF@?$CL?$CL@ 10020e58     libvcruntime:undname.obj
 0002:00001e5c       ??_C@_02BAABKJLB@?9?9@     10020e5c     libvcruntime:undname.obj
 0002:00001e60       ??_C@_01JOAMLHOP@?9@       10020e60     libvcruntime:undname.obj
 0002:00001e64       ??_C@_01MIFGBAGJ@?$CL@     10020e64     libvcruntime:undname.obj
 0002:00001e68       ??_C@_01HNPIGOCE@?$CG@     10020e68     libvcruntime:undname.obj
 0002:00001e6c       ??_C@_03MNHNFDLC@?9?$DO?$CK@ 10020e6c     libvcruntime:undname.obj
 0002:00001e70       ??_C@_01KMDKNFGN@?1@       10020e70     libvcruntime:undname.obj
 0002:00001e74       ??_C@_01FGNFDNOH@?$CF@     10020e74     libvcruntime:undname.obj
 0002:00001e78       ??_C@_01MNNFJEPP@?$DM@     10020e78     libvcruntime:undname.obj
 0002:00001e7c       ??_C@_02EHCHHCKH@?$DM?$DN@ 10020e7c     libvcruntime:undname.obj
 0002:00001e80       ??_C@_01PPODPGHN@?$DO@     10020e80     libvcruntime:undname.obj
 0002:00001e84       ??_C@_02EEKDKGMJ@?$DO?$DN@ 10020e84     libvcruntime:undname.obj
 0002:00001e88       ??_C@_01IHBHIGKO@?0@       10020e88     libvcruntime:undname.obj
 0002:00001e8c       ??_C@_02HCKGKOFO@?$CI?$CJ@ 10020e8c     libvcruntime:undname.obj
 0002:00001e90       ??_C@_01PJKLJHI@?$HO@      10020e90     libvcruntime:undname.obj
 0002:00001e94       ??_C@_01JKBOJNNK@?$FO@     10020e94     libvcruntime:undname.obj
 0002:00001e98       ??_C@_01DNKMNLPK@?$HM@     10020e98     libvcruntime:undname.obj
 0002:00001e9c       ??_C@_02PPKAJPJL@?$CG?$CG@ 10020e9c     libvcruntime:undname.obj
 0002:00001ea0       ??_C@_02NONPIBCD@?$HM?$HM@ 10020ea0     libvcruntime:undname.obj
 0002:00001ea4       ??_C@_02FPIMKNGF@?$CK?$DN@ 10020ea4     libvcruntime:undname.obj
 0002:00001ea8       ??_C@_02FOEOMHFC@?$CL?$DN@ 10020ea8     libvcruntime:undname.obj
 0002:00001eac       ??_C@_02FKMDLLOA@?9?$DN@   10020eac     libvcruntime:undname.obj
 0002:00001eb0       ??_C@_02FJEHGPIO@?1?$DN@   10020eb0     libvcruntime:undname.obj
 0002:00001eb4       ??_C@_02FENAOKFI@?$CF?$DN@ 10020eb4     libvcruntime:undname.obj
 0002:00001eb8       ??_C@_03IKFCCPFF@?$DO?$DO?$DN@ 10020eb8     libvcruntime:undname.obj
 0002:00001ebc       ??_C@_03CDNPDDLA@?$DM?$DM?$DN@ 10020ebc     libvcruntime:undname.obj
 0002:00001ec0       ??_C@_02FGJGFEAB@?$CG?$DN@ 10020ec0     libvcruntime:undname.obj
 0002:00001ec4       ??_C@_02DHLNPPGH@?$HM?$DN@ 10020ec4     libvcruntime:undname.obj
 0002:00001ec8       ??_C@_02MHEGNOJ@?$FO?$DN@  10020ec8     libvcruntime:undname.obj
 0002:00001ecc       ??_C@_09IFPLHPGF@?$GAvftable?8@ 10020ecc     libvcruntime:undname.obj
 0002:00001ed8       ??_C@_09BLBHBJP@?$GAvbtable?8@ 10020ed8     libvcruntime:undname.obj
 0002:00001ee4       ??_C@_07FEEIOKP@?$GAvcall?8@ 10020ee4     libvcruntime:undname.obj
 0002:00001eec       ??_C@_08LLFFHHDJ@?$GAtypeof?8@ 10020eec     libvcruntime:undname.obj
 0002:00001ef8       ??_C@_0BF@KDPPACIK@?$GAlocal?5static?5guard?8@ 10020ef8     libvcruntime:undname.obj
 0002:00001f10       ??_C@_08OBABFOLI@?$GAstring?8@ 10020f10     libvcruntime:undname.obj
 0002:00001f1c       ??_C@_0BD@JDLKDPAB@?$GAvbase?5destructor?8@ 10020f1c     libvcruntime:undname.obj
 0002:00001f30       ??_C@_0BN@DEGPLNFK@?$GAvector?5deleting?5destructor?8@ 10020f30     libvcruntime:undname.obj
 0002:00001f50       ??_C@_0BO@OBMKPJIG@?$GAdefault?5constructor?5closure?8@ 10020f50     libvcruntime:undname.obj
 0002:00001f70       ??_C@_0BN@IMDCHIKM@?$GAscalar?5deleting?5destructor?8@ 10020f70     libvcruntime:undname.obj
 0002:00001f90       ??_C@_0BO@PFGOCPJJ@?$GAvector?5constructor?5iterator?8@ 10020f90     libvcruntime:undname.obj
 0002:00001fb0       ??_C@_0BN@LFPFMEDL@?$GAvector?5destructor?5iterator?8@ 10020fb0     libvcruntime:undname.obj
 0002:00001fd0       ??_C@_0CE@IKBNEHA@?$GAvector?5vbase?5constructor?5itera@ 10020fd0     libvcruntime:undname.obj
 0002:00001ff4       ??_C@_0BL@NILFHHPC@?$GAvirtual?5displacement?5map?8@ 10020ff4     libvcruntime:undname.obj
 0002:00002010       ??_C@_0CB@JONCMFFK@?$GAeh?5vector?5constructor?5iterator@ 10021010     libvcruntime:undname.obj
 0002:00002034       ??_C@_0CA@GCEOPDGL@?$GAeh?5vector?5destructor?5iterator?8@ 10021034     libvcruntime:undname.obj
 0002:00002054       ??_C@_0CH@OOJPLCPH@?$GAeh?5vector?5vbase?5constructor?5it@ 10021054     libvcruntime:undname.obj
 0002:0000207c       ??_C@_0BL@LLKPOHJI@?$GAcopy?5constructor?5closure?8@ 1002107c     libvcruntime:undname.obj
 0002:00002098       ??_C@_0BA@KBCDOMBN@?$GAudt?5returning?8@ 10021098     libvcruntime:undname.obj
 0002:000020a8       ??_C@_03KLGMFNMG@?$GAEH@   100210a8     libvcruntime:undname.obj
 0002:000020ac       ??_C@_05KHLCHHI@?$GARTTI@  100210ac     libvcruntime:undname.obj
 0002:000020b4       ??_C@_0BA@KKLDJDLB@?$GAlocal?5vftable?8@ 100210b4     libvcruntime:undname.obj
 0002:000020c4       ??_C@_0CE@IIHCMGGL@?$GAlocal?5vftable?5constructor?5clos@ 100210c4     libvcruntime:undname.obj
 0002:000020e8       ??_C@_06FHBGPFGH@?5new?$FL?$FN@ 100210e8     libvcruntime:undname.obj
 0002:000020f0       ??_C@_09LBNFPBCA@?5delete?$FL?$FN@ 100210f0     libvcruntime:undname.obj
 0002:000020fc       ??_C@_0P@HJKNJFNN@?$GAomni?5callsig?8@ 100210fc     libvcruntime:undname.obj
 0002:0000210c       ??_C@_0BL@CNOONJFP@?$GAplacement?5delete?5closure?8@ 1002110c     libvcruntime:undname.obj
 0002:00002128       ??_C@_0BN@CKNJLHMB@?$GAplacement?5delete?$FL?$FN?5closure?8@ 10021128     libvcruntime:undname.obj
 0002:00002148       ??_C@_0CG@CFDHKGGD@?$GAmanaged?5vector?5constructor?5ite@ 10021148     libvcruntime:undname.obj
 0002:00002170       ??_C@_0CF@IMGKMJNO@?$GAmanaged?5vector?5destructor?5iter@ 10021170     libvcruntime:undname.obj
 0002:00002198       ??_C@_0CG@HLDDJMAG@?$GAeh?5vector?5copy?5constructor?5ite@ 10021198     libvcruntime:undname.obj
 0002:000021c0       ??_C@_0CM@FCBBDIGB@?$GAeh?5vector?5vbase?5copy?5construct@ 100211c0     libvcruntime:undname.obj
 0002:000021ec       ??_C@_0BL@CLIPGLGB@?$GAdynamic?5initializer?5for?5?8@ 100211ec     libvcruntime:undname.obj
 0002:00002208       ??_C@_0CB@PDBIFEP@?$GAdynamic?5atexit?5destructor?5for?5@ 10021208     libvcruntime:undname.obj
 0002:0000222c       ??_C@_0CD@CGAJBKEJ@?$GAvector?5copy?5constructor?5iterat@ 1002122c     libvcruntime:undname.obj
 0002:00002250       ??_C@_0CJ@GJELGAMM@?$GAvector?5vbase?5copy?5constructor?5@ 10021250     libvcruntime:undname.obj
 0002:0000227c       ??_C@_0CL@FGIJHLCE@?$GAmanaged?5vector?5copy?5constructo@ 1002127c     libvcruntime:undname.obj
 0002:000022a8       ??_C@_0BM@PMGGMLDN@?$GAlocal?5static?5thread?5guard?8@ 100212a8     libvcruntime:undname.obj
 0002:000022c4       ??_C@_0N@BDNMDMOL@operator?5?$CC?$CC?5@ 100212c4     libvcruntime:undname.obj
 0002:000022d4       ??_C@_0BC@GGEBGALA@operator?5co_await@ 100212d4     libvcruntime:undname.obj
 0002:000022e8       ??_C@_0BC@DAFEJGAK@?5Type?5Descriptor?8@ 100212e8     libvcruntime:undname.obj
 0002:000022fc       ??_C@_0BM@LDKODKLH@?5Base?5Class?5Descriptor?5at?5?$CI@ 100212fc     libvcruntime:undname.obj
 0002:00002318       ??_C@_0BD@LGICGFMM@?5Base?5Class?5Array?8@ 10021318     libvcruntime:undname.obj
 0002:0000232c       ??_C@_0BN@MECKDCOJ@?5Class?5Hierarchy?5Descriptor?8@ 1002132c     libvcruntime:undname.obj
 0002:0000234c       ??_C@_0BK@CFCOFLF@?5Complete?5Object?5Locator?8@ 1002134c     libvcruntime:undname.obj
 0002:00002368       __pDestructExceptionObject 10021368     libvcruntime:ehhelpers.obj
 0002:000024d0       _format_validation_lookup_table 100214d0     libucrt:output.obj
 0002:0000252c       ??_C@_1O@CEDCILHN@?$AA?$CI?$AAn?$AAu?$AAl?$AAl?$AA?$CJ?$AA?$AA@ 1002152c     libucrt:output.obj
 0002:0000253c       ??_C@_06OJHGLDPL@?$CInull?$CJ?$AA@ 1002153c     libucrt:output.obj
 0002:00002548       ___acrt_exception_action_table 10021548     libucrt:exception_filter.obj
 0002:000025d8       ___acrt_signal_action_table_count 100215d8     libucrt:exception_filter.obj
 0002:000025dc       ___acrt_signal_action_first_fpe_index 100215dc     libucrt:exception_filter.obj
 0002:000025e0       ___acrt_signal_action_fpe_count 100215e0     libucrt:exception_filter.obj
 0002:000025e4       ??_C@_1BI@BGOHAHKC@?$AAm?$AAs?$AAc?$AAo?$AAr?$AAe?$AAe?$AA?4?$AAd?$AAl?$AAl?$AA?$AA@ 100215e4     libucrt:exit.obj
 0002:000025fc       ??_C@_0P@MIGLKIOC@CorExitProcess?$AA@ 100215fc     libucrt:exit.obj
 0002:000026d8       ??_C@_1EA@JGEFHKEI@?$AAa?$AAp?$AAi?$AA?9?$AAm?$AAs?$AA?9?$AAw?$AAi?$AAn?$AA?9?$AAc?$AAo?$AAr?$AAe?$AA?9?$AAd?$AAa?$AAt?$AAe?$AAt?$AAi?$AAm?$AAe?$AA?9?$AAl?$AA1?$AA?9?$AA1?$AA?9?$AA1?$AA?$AA@ 100216d8     libucrt:winapi_thunks.obj
 0002:00002718       ??_C@_1DM@KHCHBNEB@?$AAa?$AAp?$AAi?$AA?9?$AAm?$AAs?$AA?9?$AAw?$AAi?$AAn?$AA?9?$AAc?$AAo?$AAr?$AAe?$AA?9?$AAf?$AAi?$AAb?$AAe?$AAr?$AAs?$AA?9?$AAl?$AA1?$AA?9?$AA1?$AA?9?$AA1?$AA?$AA@ 10021718     libucrt:winapi_thunks.obj
 0002:00002758       ??_C@_1EI@MPIAOHOC@?$AAa?$AAp?$AAi?$AA?9?$AAm?$AAs?$AA?9?$AAw?$AAi?$AAn?$AA?9?$AAc?$AAo?$AAr?$AAe?$AA?9?$AAl?$AAo?$AAc?$AAa?$AAl?$AAi?$AAz?$AAa?$AAt?$AAi?$AAo?$AAn?$AA?9?$AAl?$AA1?$AA?9@ 10021758     libucrt:winapi_thunks.obj
 0002:000027a0       ??_C@_1FK@FPHCKFIE@?$AAa?$AAp?$AAi?$AA?9?$AAm?$AAs?$AA?9?$AAw?$AAi?$AAn?$AA?9?$AAc?$AAo?$AAr?$AAe?$AA?9?$AAl?$AAo?$AAc?$AAa?$AAl?$AAi?$AAz?$AAa?$AAt?$AAi?$AAo?$AAn?$AA?9?$AAo?$AAb?$AAs@ 100217a0     libucrt:winapi_thunks.obj
 0002:00002800       ??_C@_1EM@DILCGIIO@?$AAa?$AAp?$AAi?$AA?9?$AAm?$AAs?$AA?9?$AAw?$AAi?$AAn?$AA?9?$AAc?$AAo?$AAr?$AAe?$AA?9?$AAp?$AAr?$AAo?$AAc?$AAe?$AAs?$AAs?$AAt?$AAh?$AAr?$AAe?$AAa?$AAd?$AAs?$AA?9?$AAl@ 10021800     libucrt:winapi_thunks.obj
 0002:0000284c       ??_C@_1DM@LNCGDDPN@?$AAa?$AAp?$AAi?$AA?9?$AAm?$AAs?$AA?9?$AAw?$AAi?$AAn?$AA?9?$AAc?$AAo?$AAr?$AAe?$AA?9?$AAs?$AAt?$AAr?$AAi?$AAn?$AAg?$AA?9?$AAl?$AA1?$AA?9?$AA1?$AA?9?$AA0?$AA?$AA@ 1002184c     libucrt:winapi_thunks.obj
 0002:00002888       ??_C@_1DK@LPPGFMPP@?$AAa?$AAp?$AAi?$AA?9?$AAm?$AAs?$AA?9?$AAw?$AAi?$AAn?$AA?9?$AAc?$AAo?$AAr?$AAe?$AA?9?$AAs?$AAy?$AAn?$AAc?$AAh?$AA?9?$AAl?$AA1?$AA?9?$AA2?$AA?9?$AA0?$AA?$AA@ 10021888     libucrt:winapi_thunks.obj
 0002:000028c4       ??_C@_1DO@FPAPJEMD@?$AAa?$AAp?$AAi?$AA?9?$AAm?$AAs?$AA?9?$AAw?$AAi?$AAn?$AA?9?$AAc?$AAo?$AAr?$AAe?$AA?9?$AAs?$AAy?$AAs?$AAi?$AAn?$AAf?$AAo?$AA?9?$AAl?$AA1?$AA?9?$AA2?$AA?9?$AA1?$AA?$AA@ 100218c4     libucrt:winapi_thunks.obj
 0002:00002904       ??_C@_1DK@NDHNAHIO@?$AAa?$AAp?$AAi?$AA?9?$AAm?$AAs?$AA?9?$AAw?$AAi?$AAn?$AA?9?$AAc?$AAo?$AAr?$AAe?$AA?9?$AAw?$AAi?$AAn?$AAr?$AAt?$AA?9?$AAl?$AA1?$AA?9?$AA1?$AA?9?$AA0?$AA?$AA@ 10021904     libucrt:winapi_thunks.obj
 0002:00002940       ??_C@_1DM@KGHDGBCM@?$AAa?$AAp?$AAi?$AA?9?$AAm?$AAs?$AA?9?$AAw?$AAi?$AAn?$AA?9?$AAc?$AAo?$AAr?$AAe?$AA?9?$AAx?$AAs?$AAt?$AAa?$AAt?$AAe?$AA?9?$AAl?$AA2?$AA?9?$AA1?$AA?9?$AA0?$AA?$AA@ 10021940     libucrt:winapi_thunks.obj
 0002:00002980       ??_C@_1EO@IJIOEFOH@?$AAa?$AAp?$AAi?$AA?9?$AAm?$AAs?$AA?9?$AAw?$AAi?$AAn?$AA?9?$AAr?$AAt?$AAc?$AAo?$AAr?$AAe?$AA?9?$AAn?$AAt?$AAu?$AAs?$AAe?$AAr?$AA?9?$AAw?$AAi?$AAn?$AAd?$AAo?$AAw?$AA?9@ 10021980     libucrt:winapi_thunks.obj
 0002:000029d0       ??_C@_1FG@HHGEKANL@?$AAa?$AAp?$AAi?$AA?9?$AAm?$AAs?$AA?9?$AAw?$AAi?$AAn?$AA?9?$AAs?$AAe?$AAc?$AAu?$AAr?$AAi?$AAt?$AAy?$AA?9?$AAs?$AAy?$AAs?$AAt?$AAe?$AAm?$AAf?$AAu?$AAn?$AAc?$AAt?$AAi@ 100219d0     libucrt:winapi_thunks.obj
 0002:00002a28       ??_C@_1EG@DBIOJECG@?$AAe?$AAx?$AAt?$AA?9?$AAm?$AAs?$AA?9?$AAw?$AAi?$AAn?$AA?9?$AAn?$AAt?$AAu?$AAs?$AAe?$AAr?$AA?9?$AAd?$AAi?$AAa?$AAl?$AAo?$AAg?$AAb?$AAo?$AAx?$AA?9?$AAl?$AA1?$AA?9?$AA1@ 10021a28     libucrt:winapi_thunks.obj
 0002:00002a70       ??_C@_1EO@FIHMJCLF@?$AAe?$AAx?$AAt?$AA?9?$AAm?$AAs?$AA?9?$AAw?$AAi?$AAn?$AA?9?$AAn?$AAt?$AAu?$AAs?$AAe?$AAr?$AA?9?$AAw?$AAi?$AAn?$AAd?$AAo?$AAw?$AAs?$AAt?$AAa?$AAt?$AAi?$AAo?$AAn?$AA?9@ 10021a70     libucrt:winapi_thunks.obj
 0002:00002ac0       ??_C@_1BC@DNHGCMLG@?$AAa?$AAd?$AAv?$AAa?$AAp?$AAi?$AA3?$AA2?$AA?$AA@ 10021ac0     libucrt:winapi_thunks.obj
 0002:00002ad4       ??_C@_1BC@GDMECMAK@?$AAk?$AAe?$AAr?$AAn?$AAe?$AAl?$AA3?$AA2?$AA?$AA@ 10021ad4     libucrt:winapi_thunks.obj
 0002:00002ae8       ??_C@_1M@OAIMIKLP@?$AAn?$AAt?$AAd?$AAl?$AAl?$AA?$AA@ 10021ae8     libucrt:winapi_thunks.obj
 0002:00002af8       ??_C@_1EG@DPGNFKGC@?$AAa?$AAp?$AAi?$AA?9?$AAm?$AAs?$AA?9?$AAw?$AAi?$AAn?$AA?9?$AAa?$AAp?$AAp?$AAm?$AAo?$AAd?$AAe?$AAl?$AA?9?$AAr?$AAu?$AAn?$AAt?$AAi?$AAm?$AAe?$AA?9?$AAl?$AA1?$AA?9?$AA1@ 10021af8     libucrt:winapi_thunks.obj
 0002:00002b40       ??_C@_1O@BCCLBEOE@?$AAu?$AAs?$AAe?$AAr?$AA3?$AA2?$AA?$AA@ 10021b40     libucrt:winapi_thunks.obj
 0002:00002b50       ??_C@_1BA@PFFKHIOG@?$AAa?$AAp?$AAi?$AA?9?$AAm?$AAs?$AA?9?$AA?$AA@ 10021b50     libucrt:winapi_thunks.obj
 0002:00002b60       ??_C@_1BA@IAIFMGEF@?$AAe?$AAx?$AAt?$AA?9?$AAm?$AAs?$AA?9?$AA?$AA@ 10021b60     libucrt:winapi_thunks.obj
 0002:00002b78       ??_C@_08KNHFBNJ@FlsAlloc?$AA@ 10021b78     libucrt:winapi_thunks.obj
 0002:00002b8c       ??_C@_07PEJMOBNF@FlsFree?$AA@ 10021b8c     libucrt:winapi_thunks.obj
 0002:00002b9c       ??_C@_0M@GDNOONDI@FlsGetValue?$AA@ 10021b9c     libucrt:winapi_thunks.obj
 0002:00002bb0       ??_C@_0M@JCPCPOEF@FlsSetValue?$AA@ 10021bb0     libucrt:winapi_thunks.obj
 0002:00002bc4       ??_C@_0BM@HCFOFFN@InitializeCriticalSectionEx?$AA@ 10021bc4     libucrt:winapi_thunks.obj
 0002:00002be8       ??_C@_0O@KKBNKAPF@LCMapStringEx?$AA@ 10021be8     libucrt:winapi_thunks.obj
 0002:00002c00       ??_C@_0BB@HBDEELFH@LocaleNameToLCID?$AA@ 10021c00     libucrt:winapi_thunks.obj
 0002:00002c18       ??_C@_0CF@OJOFEIGO@AppPolicyGetProcessTerminationMe@ 10021c18     libucrt:winapi_thunks.obj
 0002:00002c48       ??_C@_0BI@BKLFFAPO@SetThreadStackGuarantee?$AA@ 10021c48     libucrt:winapi_thunks.obj
 0002:00002c60       ??_C@_03OEIAHPBN@INF?$AA@  10021c60     libucrt:cvt.obj
 0002:00002c64       ??_C@_03OJHLLCGB@inf?$AA@  10021c64     libucrt:cvt.obj
 0002:00002c68       ??_C@_03LKNCIKJB@NAN?$AA@  10021c68     libucrt:cvt.obj
 0002:00002c6c       ??_C@_03LHCJEHON@nan?$AA@  10021c6c     libucrt:cvt.obj
 0002:00002c70       ??_C@_09OFJJIMPC@NAN?$CISNAN?$CJ?$AA@ 10021c70     libucrt:cvt.obj
 0002:00002c7c       ??_C@_09IPFBKMDL@nan?$CIsnan?$CJ?$AA@ 10021c7c     libucrt:cvt.obj
 0002:00002c88       ??_C@_08IKHNHAJ@NAN?$CIIND?$CJ?$AA@ 10021c88     libucrt:cvt.obj
 0002:00002c94       ??_C@_08OFCDMILK@nan?$CIind?$CJ?$AA@ 10021c94     libucrt:cvt.obj
 0002:00002ca0       ??_C@_05KLBDPFGC@e?$CL000?$AA@ 10021ca0     libucrt:cvt.obj
 0002:00002ca8       ??_C@_03KOEHGMDN@Sun?$AA@  10021ca8     libucrt:nlsdata.obj
 0002:00002cac       ??_C@_03PDAGKDH@Mon?$AA@   10021cac     libucrt:nlsdata.obj
 0002:00002cb0       ??_C@_03NAGEINEP@Tue?$AA@  10021cb0     libucrt:nlsdata.obj
 0002:00002cb4       ??_C@_03MHOMLAJA@Wed?$AA@  10021cb4     libucrt:nlsdata.obj
 0002:00002cb8       ??_C@_03IOFIKPDN@Thu?$AA@  10021cb8     libucrt:nlsdata.obj
 0002:00002cbc       ??_C@_03IDIOELNC@Fri?$AA@  10021cbc     libucrt:nlsdata.obj
 0002:00002cc0       ??_C@_03FEFJNEK@Sat?$AA@   10021cc0     libucrt:nlsdata.obj
 0002:00002cc4       ??_C@_06OOPIFAJ@Sunday?$AA@ 10021cc4     libucrt:nlsdata.obj
 0002:00002ccc       ??_C@_06JLEDEDGH@Monday?$AA@ 10021ccc     libucrt:nlsdata.obj
 0002:00002cd4       ??_C@_07BAAGCFCM@Tuesday?$AA@ 10021cd4     libucrt:nlsdata.obj
 0002:00002cdc       ??_C@_09DLIGFAKA@Wednesday?$AA@ 10021cdc     libucrt:nlsdata.obj
 0002:00002ce8       ??_C@_08HACCIKIA@Thursday?$AA@ 10021ce8     libucrt:nlsdata.obj
 0002:00002cf4       ??_C@_06JECMNKMI@Friday?$AA@ 10021cf4     libucrt:nlsdata.obj
 0002:00002cfc       ??_C@_08INBOOONO@Saturday?$AA@ 10021cfc     libucrt:nlsdata.obj
 0002:00002d08       ??_C@_03JIHJHPIE@Jan?$AA@  10021d08     libucrt:nlsdata.obj
 0002:00002d0c       ??_C@_03HJBDCHOM@Feb?$AA@  10021d0c     libucrt:nlsdata.obj
 0002:00002d10       ??_C@_03ODNJBKGA@Mar?$AA@  10021d10     libucrt:nlsdata.obj
 0002:00002d14       ??_C@_03LEOLGMJP@Apr?$AA@  10021d14     libucrt:nlsdata.obj
 0002:00002d18       ??_C@_03CNMDKL@May?$AA@    10021d18     libucrt:nlsdata.obj
 0002:00002d1c       ??_C@_03IDFGHECI@Jun?$AA@  10021d1c     libucrt:nlsdata.obj
 0002:00002d20       ??_C@_03LBGABGKK@Jul?$AA@  10021d20     libucrt:nlsdata.obj
 0002:00002d24       ??_C@_03IFJFEIGA@Aug?$AA@  10021d24     libucrt:nlsdata.obj
 0002:00002d28       ??_C@_03GGCAPAJC@Sep?$AA@  10021d28     libucrt:nlsdata.obj
 0002:00002d2c       ??_C@_03BMAOKBAD@Oct?$AA@  10021d2c     libucrt:nlsdata.obj
 0002:00002d30       ??_C@_03JPJOFNIA@Nov?$AA@  10021d30     libucrt:nlsdata.obj
 0002:00002d34       ??_C@_03MKABNOCG@Dec?$AA@  10021d34     libucrt:nlsdata.obj
 0002:00002d38       ??_C@_07CGJPFGJA@January?$AA@ 10021d38     libucrt:nlsdata.obj
 0002:00002d40       ??_C@_08GNJGEPFN@February?$AA@ 10021d40     libucrt:nlsdata.obj
 0002:00002d4c       ??_C@_05HPCKOFNC@March?$AA@ 10021d4c     libucrt:nlsdata.obj
 0002:00002d54       ??_C@_05DMJDNLEJ@April?$AA@ 10021d54     libucrt:nlsdata.obj
 0002:00002d5c       ??_C@_04CNLMGBGM@June?$AA@ 10021d5c     libucrt:nlsdata.obj
 0002:00002d64       ??_C@_04MIEPOIFP@July?$AA@ 10021d64     libucrt:nlsdata.obj
 0002:00002d6c       ??_C@_06LBBHFDDG@August?$AA@ 10021d6c     libucrt:nlsdata.obj
 0002:00002d74       ??_C@_09BHHEALKD@September?$AA@ 10021d74     libucrt:nlsdata.obj
 0002:00002d80       ??_C@_07JJNFCEND@October?$AA@ 10021d80     libucrt:nlsdata.obj
 0002:00002d88       ??_C@_08HCHEGEOA@November?$AA@ 10021d88     libucrt:nlsdata.obj
 0002:00002d94       ??_C@_08EDHMEBNP@December?$AA@ 10021d94     libucrt:nlsdata.obj
 0002:00002da0       ??_C@_02DEDBPAFC@AM?$AA@   10021da0     libucrt:nlsdata.obj
 0002:00002da4       ??_C@_02CJNFDJBF@PM?$AA@   10021da4     libucrt:nlsdata.obj
 0002:00002da8       ??_C@_08BPBNCDIB@MM?1dd?1yy?$AA@ 10021da8     libucrt:nlsdata.obj
 0002:00002db4       ??_C@_0BE@CKGJFCPC@dddd?0?5MMMM?5dd?0?5yyyy?$AA@ 10021db4     libucrt:nlsdata.obj
 0002:00002dc8       ??_C@_08JCCMCCIL@HH?3mm?3ss?$AA@ 10021dc8     libucrt:nlsdata.obj
 0002:00002dd4       ??_C@_17MBGCMIPB@?$AAS?$AAu?$AAn?$AA?$AA@ 10021dd4     libucrt:nlsdata.obj
 0002:00002ddc       ??_C@_17KBOMKBF@?$AAM?$AAo?$AAn?$AA?$AA@ 10021ddc     libucrt:nlsdata.obj
 0002:00002de4       ??_C@_17BMKGEGOJ@?$AAT?$AAu?$AAe?$AA?$AA@ 10021de4     libucrt:nlsdata.obj
 0002:00002dec       ??_C@_17CJEDCEPE@?$AAW?$AAe?$AAd?$AA?$AA@ 10021dec     libucrt:nlsdata.obj
 0002:00002df4       ??_C@_17PDPHAADD@?$AAT?$AAh?$AAu?$AA?$AA@ 10021df4     libucrt:nlsdata.obj
 0002:00002dfc       ??_C@_17HFOLPPLP@?$AAF?$AAr?$AAi?$AA?$AA@ 10021dfc     libucrt:nlsdata.obj
 0002:00002e04       ??_C@_17GGIBDPIH@?$AAS?$AAa?$AAt?$AA?$AA@ 10021e04     libucrt:nlsdata.obj
 0002:00002e0c       ??_C@_1O@IHNHDHPB@?$AAS?$AAu?$AAn?$AAd?$AAa?$AAy?$AA?$AA@ 10021e0c     libucrt:nlsdata.obj
 0002:00002e1c       ??_C@_1O@MMNBFLIA@?$AAM?$AAo?$AAn?$AAd?$AAa?$AAy?$AA?$AA@ 10021e1c     libucrt:nlsdata.obj
 0002:00002e2c       ??_C@_1BA@ENFBFFEK@?$AAT?$AAu?$AAe?$AAs?$AAd?$AAa?$AAy?$AA?$AA@ 10021e2c     libucrt:nlsdata.obj
 0002:00002e3c       ??_C@_1BE@EBOGMDOH@?$AAW?$AAe?$AAd?$AAn?$AAe?$AAs?$AAd?$AAa?$AAy?$AA?$AA@ 10021e3c     libucrt:nlsdata.obj
 0002:00002e50       ??_C@_1BC@HHMNLIHE@?$AAT?$AAh?$AAu?$AAr?$AAs?$AAd?$AAa?$AAy?$AA?$AA@ 10021e50     libucrt:nlsdata.obj
 0002:00002e64       ??_C@_1O@PDICJHAG@?$AAF?$AAr?$AAi?$AAd?$AAa?$AAy?$AA?$AA@ 10021e64     libucrt:nlsdata.obj
 0002:00002e74       ??_C@_1BC@ENMNNPAJ@?$AAS?$AAa?$AAt?$AAu?$AAr?$AAd?$AAa?$AAy?$AA?$AA@ 10021e74     libucrt:nlsdata.obj
 0002:00002e88       ??_C@_17DKNBKCHM@?$AAJ?$AAa?$AAn?$AA?$AA@ 10021e88     libucrt:nlsdata.obj
 0002:00002e90       ??_C@_17LMDJEKJN@?$AAF?$AAe?$AAb?$AA?$AA@ 10021e90     libucrt:nlsdata.obj
 0002:00002e98       ??_C@_17CKNLEDEC@?$AAM?$AAa?$AAr?$AA?$AA@ 10021e98     libucrt:nlsdata.obj
 0002:00002ea0       ??_C@_17LFPOIHDD@?$AAA?$AAp?$AAr?$AA?$AA@ 10021ea0     libucrt:nlsdata.obj
 0002:00002ea8       ??_C@_17PNNKMEED@?$AAM?$AAa?$AAy?$AA?$AA@ 10021ea8     libucrt:nlsdata.obj
 0002:00002eb0       ??_C@_17KCJGOCPB@?$AAJ?$AAu?$AAn?$AA?$AA@ 10021eb0     libucrt:nlsdata.obj
 0002:00002eb8       ??_C@_17IJPCKHK@?$AAJ?$AAu?$AAl?$AA?$AA@ 10021eb8     libucrt:nlsdata.obj
 0002:00002ec0       ??_C@_17ICPELBCN@?$AAA?$AAu?$AAg?$AA?$AA@ 10021ec0     libucrt:nlsdata.obj
 0002:00002ec8       ??_C@_17HCHCOKMG@?$AAS?$AAe?$AAp?$AA?$AA@ 10021ec8     libucrt:nlsdata.obj
 0002:00002ed0       ??_C@_17FNLKOI@?$AAO?$AAc?$AAt?$AA?$AA@ 10021ed0     libucrt:nlsdata.obj
 0002:00002ed8       ??_C@_17BBDMLCIG@?$AAN?$AAo?$AAv?$AA?$AA@ 10021ed8     libucrt:nlsdata.obj
 0002:00002ee0       ??_C@_17EGKACKIF@?$AAD?$AAe?$AAc?$AA?$AA@ 10021ee0     libucrt:nlsdata.obj
 0002:00002ee8       ??_C@_1BA@EFMEIEBA@?$AAJ?$AAa?$AAn?$AAu?$AAa?$AAr?$AAy?$AA?$AA@ 10021ee8     libucrt:nlsdata.obj
 0002:00002ef8       ??_C@_1BC@JGDDFFAM@?$AAF?$AAe?$AAb?$AAr?$AAu?$AAa?$AAr?$AAy?$AA?$AA@ 10021ef8     libucrt:nlsdata.obj
 0002:00002f0c       ??_C@_1M@IKEENEDF@?$AAM?$AAa?$AAr?$AAc?$AAh?$AA?$AA@ 10021f0c     libucrt:nlsdata.obj
 0002:00002f18       ??_C@_1M@GJNLMHFD@?$AAA?$AAp?$AAr?$AAi?$AAl?$AA?$AA@ 10021f18     libucrt:nlsdata.obj
 0002:00002f24       ??_C@_19EPFLPGAP@?$AAJ?$AAu?$AAn?$AAe?$AA?$AA@ 10021f24     libucrt:nlsdata.obj
 0002:00002f30       ??_C@_19BIFMLPCD@?$AAJ?$AAu?$AAl?$AAy?$AA?$AA@ 10021f30     libucrt:nlsdata.obj
 0002:00002f3c       ??_C@_1O@PAHLKOAC@?$AAA?$AAu?$AAg?$AAu?$AAs?$AAt?$AA?$AA@ 10021f3c     libucrt:nlsdata.obj
 0002:00002f4c       ??_C@_1BE@DKAAMBJL@?$AAS?$AAe?$AAp?$AAt?$AAe?$AAm?$AAb?$AAe?$AAr?$AA?$AA@ 10021f4c     libucrt:nlsdata.obj
 0002:00002f60       ??_C@_1BA@EPANDLNG@?$AAO?$AAc?$AAt?$AAo?$AAb?$AAe?$AAr?$AA?$AA@ 10021f60     libucrt:nlsdata.obj
 0002:00002f70       ??_C@_1BC@BGLIFPF@?$AAN?$AAo?$AAv?$AAe?$AAm?$AAb?$AAe?$AAr?$AA?$AA@ 10021f70     libucrt:nlsdata.obj
 0002:00002f84       ??_C@_1BC@FEMKIFH@?$AAD?$AAe?$AAc?$AAe?$AAm?$AAb?$AAe?$AAr?$AA?$AA@ 10021f84     libucrt:nlsdata.obj
 0002:00002f98       ??_C@_15ODEHAHHF@?$AAA?$AAM?$AA?$AA@ 10021f98     libucrt:nlsdata.obj
 0002:00002fa0       ??_C@_15CLMNNGEL@?$AAP?$AAM?$AA?$AA@ 10021fa0     libucrt:nlsdata.obj
 0002:00002fa8       ??_C@_1BC@IEBCMHCM@?$AAM?$AAM?$AA?1?$AAd?$AAd?$AA?1?$AAy?$AAy?$AA?$AA@ 10021fa8     libucrt:nlsdata.obj
 0002:00002fbc       ??_C@_1CI@KNAKOEBC@?$AAd?$AAd?$AAd?$AAd?$AA?0?$AA?5?$AAM?$AAM?$AAM?$AAM?$AA?5?$AAd?$AAd?$AA?0?$AA?5?$AAy?$AAy?$AAy?$AAy?$AA?$AA@ 10021fbc     libucrt:nlsdata.obj
 0002:00002fe4       ??_C@_1BC@GDGBMEMK@?$AAH?$AAH?$AA?3?$AAm?$AAm?$AA?3?$AAs?$AAs?$AA?$AA@ 10021fe4     libucrt:nlsdata.obj
 0002:00002ff8       ??_C@_1M@BMHNFIME@?$AAe?$AAn?$AA?9?$AAU?$AAS?$AA?$AA@ 10021ff8     libucrt:nlsdata.obj
 0002:00003008       ___lc_time_c               10022008     libucrt:nlsdata.obj
 0002:0000317c       ??_C@_1M@HPNHIDJI@?$AAj?$AAa?$AA?9?$AAJ?$AAP?$AA?$AA@ 1002217c     libucrt:mbctype.obj
 0002:00003188       ??_C@_1M@BIBDDEMK@?$AAz?$AAh?$AA?9?$AAC?$AAN?$AA?$AA@ 10022188     libucrt:mbctype.obj
 0002:00003194       ??_C@_1M@JLOOOEGK@?$AAk?$AAo?$AA?9?$AAK?$AAR?$AA?$AA@ 10022194     libucrt:mbctype.obj
 0002:000031a0       ??_C@_1M@CLNBBOPM@?$AAz?$AAh?$AA?9?$AAT?$AAW?$AA?$AA@ 100221a0     libucrt:mbctype.obj
 0002:000031b0       __wctype                   100221b0     libucrt:ctype.obj
 0002:000033b8       ___newctype                100223b8     libucrt:ctype.obj
 0002:000036b8       ___newclmap                100226b8     libucrt:ctype.obj
 0002:00003838       ___newcumap                10022838     libucrt:ctype.obj
 0002:000040d8       ??_C@_15EMKDOKLE@?$AAa?$AAr?$AA?$AA@ 100230d8     libucrt:lcidtoname_downlevel.obj
 0002:000040e0       ??_C@_15KNPADPLH@?$AAb?$AAg?$AA?$AA@ 100230e0     libucrt:lcidtoname_downlevel.obj
 0002:000040e8       ??_C@_15EDMHLDMO@?$AAc?$AAa?$AA?$AA@ 100230e8     libucrt:lcidtoname_downlevel.obj
 0002:000040f0       ??_C@_1O@BPEAJADD@?$AAz?$AAh?$AA?9?$AAC?$AAH?$AAS?$AA?$AA@ 100230f0     libucrt:lcidtoname_downlevel.obj
 0002:00004100       ??_C@_15LJNHCMNK@?$AAc?$AAs?$AA?$AA@ 10023100     libucrt:lcidtoname_downlevel.obj
 0002:00004108       ??_C@_15FOMCIDHG@?$AAd?$AAa?$AA?$AA@ 10023108     libucrt:lcidtoname_downlevel.obj
 0002:00004110       ??_C@_15NBKABECB@?$AAd?$AAe?$AA?$AA@ 10023110     libucrt:lcidtoname_downlevel.obj
 0002:00004118       ??_C@_15GHPEIIAO@?$AAe?$AAl?$AA?$AA@ 10023118     libucrt:lcidtoname_downlevel.obj
 0002:00004120       ??_C@_15MNPNEAIF@?$AAe?$AAn?$AA?$AA@ 10023120     libucrt:lcidtoname_downlevel.obj
 0002:00004128       ??_C@_15GPIOMPMH@?$AAe?$AAs?$AA?$AA@ 10023128     libucrt:lcidtoname_downlevel.obj
 0002:00004130       ??_C@_15NGLOAKJC@?$AAf?$AAi?$AA?$AA@ 10023130     libucrt:lcidtoname_downlevel.obj
 0002:00004138       ??_C@_15FBKGNKAM@?$AAf?$AAr?$AA?$AA@ 10023138     libucrt:lcidtoname_downlevel.obj
 0002:00004140       ??_C@_15KGGCNEFK@?$AAh?$AAe?$AA?$AA@ 10023140     libucrt:lcidtoname_downlevel.obj
 0002:00004148       ??_C@_15PGHLIDMF@?$AAh?$AAu?$AA?$AA@ 10023148     libucrt:lcidtoname_downlevel.obj
 0002:00004150       ??_C@_15BIEMAPLM@?$AAi?$AAs?$AA?$AA@ 10023150     libucrt:lcidtoname_downlevel.obj
 0002:00004158       ??_C@_15IFJLDHAF@?$AAi?$AAt?$AA?$AA@ 10023158     libucrt:lcidtoname_downlevel.obj
 0002:00004160       ??_C@_15GEMIOCAG@?$AAj?$AAa?$AA?$AA@ 10023160     libucrt:lcidtoname_downlevel.obj
 0002:00004168       ??_C@_15EPELEGJA@?$AAk?$AAo?$AA?$AA@ 10023168     libucrt:lcidtoname_downlevel.obj
 0002:00004170       ??_C@_15NDDHIMN@?$AAn?$AAl?$AA?$AA@ 10023170     libucrt:lcidtoname_downlevel.obj
 0002:00004178       ??_C@_15BPIGNHCD@?$AAn?$AAo?$AA?$AA@ 10023178     libucrt:lcidtoname_downlevel.obj
 0002:00004180       ??_C@_15DEOPBLCG@?$AAp?$AAl?$AA?$AA@ 10023180     libucrt:lcidtoname_downlevel.obj
 0002:00004188       ??_C@_15KBECGEFG@?$AAp?$AAt?$AA?$AA@ 10023188     libucrt:lcidtoname_downlevel.obj
 0002:00004190       ??_C@_15GLJCBFMD@?$AAr?$AAo?$AA?$AA@ 10023190     libucrt:lcidtoname_downlevel.obj
 0002:00004198       ??_C@_15FEDGKCDI@?$AAr?$AAu?$AA?$AA@ 10023198     libucrt:lcidtoname_downlevel.obj
 0002:000041a0       ??_C@_15GLKMLLHM@?$AAh?$AAr?$AA?$AA@ 100231a0     libucrt:lcidtoname_downlevel.obj
 0002:000041a8       ??_C@_15CPKMFBDB@?$AAs?$AAk?$AA?$AA@ 100231a8     libucrt:lcidtoname_downlevel.obj
 0002:000041b0       ??_C@_15BAAIOGMK@?$AAs?$AAq?$AA?$AA@ 100231b0     libucrt:lcidtoname_downlevel.obj
 0002:000041b8       ??_C@_15INNPNOHD@?$AAs?$AAv?$AA?$AA@ 100231b8     libucrt:lcidtoname_downlevel.obj
 0002:000041c0       ??_C@_15CABMMOGH@?$AAt?$AAh?$AA?$AA@ 100231c0     libucrt:lcidtoname_downlevel.obj
 0002:000041c8       ??_C@_15BPLIHJJM@?$AAt?$AAr?$AA?$AA@ 100231c8     libucrt:lcidtoname_downlevel.obj
 0002:000041d0       ??_C@_15NEOEKKDJ@?$AAu?$AAr?$AA?$AA@ 100231d0     libucrt:lcidtoname_downlevel.obj
 0002:000041d8       ??_C@_15NFICGAJK@?$AAi?$AAd?$AA?$AA@ 100231d8     libucrt:lcidtoname_downlevel.obj
 0002:000041e0       ??_C@_15PJPFLCCM@?$AAu?$AAk?$AA?$AA@ 100231e0     libucrt:lcidtoname_downlevel.obj
 0002:000041e8       ??_C@_15HPJPHDM@?$AAb?$AAe?$AA?$AA@ 100231e8     libucrt:lcidtoname_downlevel.obj
 0002:000041f0       ??_C@_15LCHLGJII@?$AAs?$AAl?$AA?$AA@ 100231f0     libucrt:lcidtoname_downlevel.obj
 0002:000041f8       ??_C@_15PCFJPHHO@?$AAe?$AAt?$AA?$AA@ 100231f8     libucrt:lcidtoname_downlevel.obj
 0002:00004200       ??_C@_15HPFPGODN@?$AAl?$AAv?$AA?$AA@ 10023200     libucrt:lcidtoname_downlevel.obj
 0002:00004208       ??_C@_15NFFGKGLG@?$AAl?$AAt?$AA?$AA@ 10023208     libucrt:lcidtoname_downlevel.obj
 0002:00004210       ??_C@_15BDAKCCHN@?$AAf?$AAa?$AA?$AA@ 10023210     libucrt:lcidtoname_downlevel.obj
 0002:00004218       ??_C@_15NFGIAIAJ@?$AAv?$AAi?$AA?$AA@ 10023218     libucrt:lcidtoname_downlevel.obj
 0002:00004220       ??_C@_15LMKNDMHN@?$AAh?$AAy?$AA?$AA@ 10023220     libucrt:lcidtoname_downlevel.obj
 0002:00004228       ??_C@_15IJBHMCFL@?$AAa?$AAz?$AA?$AA@ 10023228     libucrt:lcidtoname_downlevel.obj
 0002:00004230       ??_C@_15EKOFJABL@?$AAe?$AAu?$AA?$AA@ 10023230     libucrt:lcidtoname_downlevel.obj
 0002:00004238       ??_C@_15BGHADCNK@?$AAm?$AAk?$AA?$AA@ 10023238     libucrt:lcidtoname_downlevel.obj
 0002:00004240       ??_C@_15JDNICKHM@?$AAa?$AAf?$AA?$AA@ 10023240     libucrt:lcidtoname_downlevel.obj
 0002:00004248       ??_C@_15KPJEDBKD@?$AAk?$AAa?$AA?$AA@ 10023248     libucrt:lcidtoname_downlevel.obj
 0002:00004250       ??_C@_15PDNFFFEO@?$AAf?$AAo?$AA?$AA@ 10023250     libucrt:lcidtoname_downlevel.obj
 0002:00004258       ??_C@_15OMLEGLOC@?$AAh?$AAi?$AA?$AA@ 10023258     libucrt:lcidtoname_downlevel.obj
 0002:00004260       ??_C@_15IDNNENKK@?$AAm?$AAs?$AA?$AA@ 10023260     libucrt:lcidtoname_downlevel.obj
 0002:00004268       ??_C@_15MACJNBMH@?$AAk?$AAk?$AA?$AA@ 10023268     libucrt:lcidtoname_downlevel.obj
 0002:00004270       ??_C@_15DKDJEOND@?$AAk?$AAy?$AA?$AA@ 10023270     libucrt:lcidtoname_downlevel.obj
 0002:00004278       ??_C@_15DFGDLJBG@?$AAs?$AAw?$AA?$AA@ 10023278     libucrt:lcidtoname_downlevel.obj
 0002:00004280       ??_C@_15BBFAICNG@?$AAu?$AAz?$AA?$AA@ 10023280     libucrt:lcidtoname_downlevel.obj
 0002:00004288       ??_C@_15DKNDCGEA@?$AAt?$AAt?$AA?$AA@ 10023288     libucrt:lcidtoname_downlevel.obj
 0002:00004290       ??_C@_15MGIFMDPL@?$AAp?$AAa?$AA?$AA@ 10023290     libucrt:lcidtoname_downlevel.obj
 0002:00004298       ??_C@_15HCNDBBA@?$AAg?$AAu?$AA?$AA@ 10023298     libucrt:lcidtoname_downlevel.obj
 0002:000042a0       ??_C@_15FNBEIBON@?$AAt?$AAa?$AA?$AA@ 100232a0     libucrt:lcidtoname_downlevel.obj
 0002:000042a8       ??_C@_15NCHGBGLK@?$AAt?$AAe?$AA?$AA@ 100232a8     libucrt:lcidtoname_downlevel.obj
 0002:000042b0       ??_C@_15PHPHCBPF@?$AAk?$AAn?$AA?$AA@ 100232b0     libucrt:lcidtoname_downlevel.obj
 0002:000042b8       ??_C@_15DLGBCKMP@?$AAm?$AAr?$AA?$AA@ 100232b8     libucrt:lcidtoname_downlevel.obj
 0002:000042c0       ??_C@_15EABBLBFF@?$AAs?$AAa?$AA?$AA@ 100232c0     libucrt:lcidtoname_downlevel.obj
 0002:000042c8       ??_C@_15CBKOMCOI@?$AAm?$AAn?$AA?$AA@ 100232c8     libucrt:lcidtoname_downlevel.obj
 0002:000042d0       ??_C@_15CKDMCJAF@?$AAg?$AAl?$AA?$AA@ 100232d0     libucrt:lcidtoname_downlevel.obj
 0002:000042d8       ??_C@_17CNJFBPG@?$AAk?$AAo?$AAk?$AA?$AA@ 100232d8     libucrt:lcidtoname_downlevel.obj
 0002:000042e0       ??_C@_17FFBJICPL@?$AAs?$AAy?$AAr?$AA?$AA@ 100232e0     libucrt:lcidtoname_downlevel.obj
 0002:000042e8       ??_C@_17KPNDCPAF@?$AAd?$AAi?$AAv?$AA?$AA@ 100232e8     libucrt:lcidtoname_downlevel.obj
 0002:000042f0       ??_C@_11LOCGONAA@?$AA?$AA@ 100232f0     libucrt:lcidtoname_downlevel.obj
 0002:000042f4       ??_C@_1M@OKAHONE@?$AAa?$AAr?$AA?9?$AAS?$AAA?$AA?$AA@ 100232f4     libucrt:lcidtoname_downlevel.obj
 0002:00004300       ??_C@_1M@FFFIGIGK@?$AAb?$AAg?$AA?9?$AAB?$AAG?$AA?$AA@ 10023300     libucrt:lcidtoname_downlevel.obj
 0002:0000430c       ??_C@_1M@BJNKEDC@?$AAc?$AAa?$AA?9?$AAE?$AAS?$AA?$AA@ 1002330c     libucrt:lcidtoname_downlevel.obj
 0002:00004318       ??_C@_1M@IJJHFJHA@?$AAc?$AAs?$AA?9?$AAC?$AAZ?$AA?$AA@ 10023318     libucrt:lcidtoname_downlevel.obj
 0002:00004324       ??_C@_1M@CLPEOBGI@?$AAd?$AAa?$AA?9?$AAD?$AAK?$AA?$AA@ 10023324     libucrt:lcidtoname_downlevel.obj
 0002:00004330       ??_C@_1M@MCMADGCB@?$AAd?$AAe?$AA?9?$AAD?$AAE?$AA?$AA@ 10023330     libucrt:lcidtoname_downlevel.obj
 0002:0000433c       ??_C@_1M@OOCKEMAM@?$AAe?$AAl?$AA?9?$AAG?$AAR?$AA?$AA@ 1002333c     libucrt:lcidtoname_downlevel.obj
 0002:00004348       ??_C@_1M@DDNJFGID@?$AAf?$AAi?$AA?9?$AAF?$AAI?$AA?$AA@ 10023348     libucrt:lcidtoname_downlevel.obj
 0002:00004354       ??_C@_1M@GLIPPMAC@?$AAf?$AAr?$AA?9?$AAF?$AAR?$AA?$AA@ 10023354     libucrt:lcidtoname_downlevel.obj
 0002:00004360       ??_C@_1M@GFMCHPE@?$AAh?$AAe?$AA?9?$AAI?$AAL?$AA?$AA@ 10023360     libucrt:lcidtoname_downlevel.obj
 0002:0000436c       ??_C@_1M@MHLPGNKM@?$AAh?$AAu?$AA?9?$AAH?$AAU?$AA?$AA@ 1002336c     libucrt:lcidtoname_downlevel.obj
 0002:00004378       ??_C@_1M@LPDDNNPN@?$AAi?$AAs?$AA?9?$AAI?$AAS?$AA?$AA@ 10023378     libucrt:lcidtoname_downlevel.obj
 0002:00004384       ??_C@_1M@MADIPODN@?$AAi?$AAt?$AA?9?$AAI?$AAT?$AA?$AA@ 10023384     libucrt:lcidtoname_downlevel.obj
 0002:00004390       ??_C@_1M@IHBJJGG@?$AAn?$AAl?$AA?9?$AAN?$AAL?$AA?$AA@ 10023390     libucrt:lcidtoname_downlevel.obj
 0002:0000439c       ??_C@_1M@EANAGDL@?$AAn?$AAb?$AA?9?$AAN?$AAO?$AA?$AA@ 1002339c     libucrt:lcidtoname_downlevel.obj
 0002:000043a8       ??_C@_1M@NEIEMEGP@?$AAp?$AAl?$AA?9?$AAP?$AAL?$AA?$AA@ 100233a8     libucrt:lcidtoname_downlevel.obj
 0002:000043b4       ??_C@_1M@BOCFIGEP@?$AAp?$AAt?$AA?9?$AAB?$AAR?$AA?$AA@ 100233b4     libucrt:lcidtoname_downlevel.obj
 0002:000043c0       ??_C@_1M@IMPFOPBG@?$AAr?$AAo?$AA?9?$AAR?$AAO?$AA?$AA@ 100233c0     libucrt:lcidtoname_downlevel.obj
 0002:000043cc       ??_C@_1M@IDNNEJMM@?$AAr?$AAu?$AA?9?$AAR?$AAU?$AA?$AA@ 100233cc     libucrt:lcidtoname_downlevel.obj
 0002:000043d8       ??_C@_1M@LILEEOGM@?$AAh?$AAr?$AA?9?$AAH?$AAR?$AA?$AA@ 100233d8     libucrt:lcidtoname_downlevel.obj
 0002:000043e4       ??_C@_1M@FKIFEHPB@?$AAs?$AAk?$AA?9?$AAS?$AAK?$AA?$AA@ 100233e4     libucrt:lcidtoname_downlevel.obj
 0002:000043f0       ??_C@_1M@LJMAMNPJ@?$AAs?$AAq?$AA?9?$AAA?$AAL?$AA?$AA@ 100233f0     libucrt:lcidtoname_downlevel.obj
 0002:000043fc       ??_C@_1M@GIAKDKJK@?$AAs?$AAv?$AA?9?$AAS?$AAE?$AA?$AA@ 100233fc     libucrt:lcidtoname_downlevel.obj
 0002:00004408       ??_C@_1M@MKJKIKCL@?$AAt?$AAh?$AA?9?$AAT?$AAH?$AA?$AA@ 10023408     libucrt:lcidtoname_downlevel.obj
 0002:00004414       ??_C@_1M@MFLCCMPB@?$AAt?$AAr?$AA?9?$AAT?$AAR?$AA?$AA@ 10023414     libucrt:lcidtoname_downlevel.obj
 0002:00004420       ??_C@_1M@OIJHDKJN@?$AAu?$AAr?$AA?9?$AAP?$AAK?$AA?$AA@ 10023420     libucrt:lcidtoname_downlevel.obj
 0002:0000442c       ??_C@_1M@LHIPCIEK@?$AAi?$AAd?$AA?9?$AAI?$AAD?$AA?$AA@ 1002342c     libucrt:lcidtoname_downlevel.obj
 0002:00004438       ??_C@_1M@MFMOBGI@?$AAu?$AAk?$AA?9?$AAU?$AAA?$AA?$AA@ 10023438     libucrt:lcidtoname_downlevel.obj
 0002:00004444       ??_C@_1M@OBGLJIPL@?$AAb?$AAe?$AA?9?$AAB?$AAY?$AA?$AA@ 10023444     libucrt:lcidtoname_downlevel.obj
 0002:00004450       ??_C@_1M@BCFAJEAD@?$AAs?$AAl?$AA?9?$AAS?$AAI?$AA?$AA@ 10023450     libucrt:lcidtoname_downlevel.obj
 0002:0000445c       ??_C@_1M@FKFFEDDN@?$AAe?$AAt?$AA?9?$AAE?$AAE?$AA?$AA@ 1002345c     libucrt:lcidtoname_downlevel.obj
 0002:00004468       ??_C@_1M@KGKKAACI@?$AAl?$AAv?$AA?9?$AAL?$AAV?$AA?$AA@ 10023468     libucrt:lcidtoname_downlevel.obj
 0002:00004474       ??_C@_1M@IFGBIJO@?$AAl?$AAt?$AA?9?$AAL?$AAT?$AA?$AA@ 10023474     libucrt:lcidtoname_downlevel.obj
 0002:00004480       ??_C@_1M@FGEAHEDM@?$AAf?$AAa?$AA?9?$AAI?$AAR?$AA?$AA@ 10023480     libucrt:lcidtoname_downlevel.obj
 0002:0000448c       ??_C@_1M@KBMAIBFN@?$AAv?$AAi?$AA?9?$AAV?$AAN?$AA?$AA@ 1002348c     libucrt:lcidtoname_downlevel.obj
 0002:00004498       ??_C@_1M@GPCBKDJK@?$AAh?$AAy?$AA?9?$AAA?$AAM?$AA?$AA@ 10023498     libucrt:lcidtoname_downlevel.obj
 0002:000044a4       ??_C@_1BG@BECMDDJB@?$AAa?$AAz?$AA?9?$AAA?$AAZ?$AA?9?$AAL?$AAa?$AAt?$AAn?$AA?$AA@ 100234a4     libucrt:lcidtoname_downlevel.obj
 0002:000044bc       ??_C@_1M@MAOFCAEA@?$AAe?$AAu?$AA?9?$AAE?$AAS?$AA?$AA@ 100234bc     libucrt:lcidtoname_downlevel.obj
 0002:000044c8       ??_C@_1M@IGHABKPI@?$AAm?$AAk?$AA?9?$AAM?$AAK?$AA?$AA@ 100234c8     libucrt:lcidtoname_downlevel.obj
 0002:000044d4       ??_C@_1M@IAIGNEJG@?$AAt?$AAn?$AA?9?$AAZ?$AAA?$AA?$AA@ 100234d4     libucrt:lcidtoname_downlevel.obj
 0002:000044e0       ??_C@_1M@IIJCOJFA@?$AAx?$AAh?$AA?9?$AAZ?$AAA?$AA?$AA@ 100234e0     libucrt:lcidtoname_downlevel.obj
 0002:000044ec       ??_C@_1M@LGPJHNJH@?$AAz?$AAu?$AA?9?$AAZ?$AAA?$AA?$AA@ 100234ec     libucrt:lcidtoname_downlevel.obj
 0002:000044f8       ??_C@_1M@HOKAOIO@?$AAa?$AAf?$AA?9?$AAZ?$AAA?$AA?$AA@ 100234f8     libucrt:lcidtoname_downlevel.obj
 0002:00004504       ??_C@_1M@DPCLHLIE@?$AAk?$AAa?$AA?9?$AAG?$AAE?$AA?$AA@ 10023504     libucrt:lcidtoname_downlevel.obj
 0002:00004510       ??_C@_1M@BLKMHJBI@?$AAf?$AAo?$AA?9?$AAF?$AAO?$AA?$AA@ 10023510     libucrt:lcidtoname_downlevel.obj
 0002:0000451c       ??_C@_1M@LGGJAPPB@?$AAh?$AAi?$AA?9?$AAI?$AAN?$AA?$AA@ 1002351c     libucrt:lcidtoname_downlevel.obj
 0002:00004528       ??_C@_1M@FIKPIHFE@?$AAm?$AAt?$AA?9?$AAM?$AAT?$AA?$AA@ 10023528     libucrt:lcidtoname_downlevel.obj
 0002:00004534       ??_C@_1M@HEGGPBFA@?$AAs?$AAe?$AA?9?$AAN?$AAO?$AA?$AA@ 10023534     libucrt:lcidtoname_downlevel.obj
 0002:00004540       ??_C@_1M@EIBJEEPA@?$AAm?$AAs?$AA?9?$AAM?$AAY?$AA?$AA@ 10023540     libucrt:lcidtoname_downlevel.obj
 0002:0000454c       ??_C@_1M@FHLBGMPP@?$AAk?$AAk?$AA?9?$AAK?$AAZ?$AA?$AA@ 1002354c     libucrt:lcidtoname_downlevel.obj
 0002:00004558       ??_C@_1M@NGJJLCGI@?$AAk?$AAy?$AA?9?$AAK?$AAG?$AA?$AA@ 10023558     libucrt:lcidtoname_downlevel.obj
 0002:00004564       ??_C@_1M@GIENNBFC@?$AAs?$AAw?$AA?9?$AAK?$AAE?$AA?$AA@ 10023564     libucrt:lcidtoname_downlevel.obj
 0002:00004570       ??_C@_1BG@NDGMJIMJ@?$AAu?$AAz?$AA?9?$AAU?$AAZ?$AA?9?$AAL?$AAa?$AAt?$AAn?$AA?$AA@ 10023570     libucrt:lcidtoname_downlevel.obj
 0002:00004588       ??_C@_1M@IDCCIHBC@?$AAt?$AAt?$AA?9?$AAR?$AAU?$AA?$AA@ 10023588     libucrt:lcidtoname_downlevel.obj
 0002:00004594       ??_C@_1M@LOICPMOJ@?$AAb?$AAn?$AA?9?$AAI?$AAN?$AA?$AA@ 10023594     libucrt:lcidtoname_downlevel.obj
 0002:000045a0       ??_C@_1M@KPKKNEAH@?$AAp?$AAa?$AA?9?$AAI?$AAN?$AA?$AA@ 100235a0     libucrt:lcidtoname_downlevel.obj
 0002:000045ac       ??_C@_1M@PJGPPBOG@?$AAg?$AAu?$AA?9?$AAI?$AAN?$AA?$AA@ 100235ac     libucrt:lcidtoname_downlevel.obj
 0002:000045b8       ??_C@_1M@KMKMOPHI@?$AAt?$AAa?$AA?9?$AAI?$AAN?$AA?$AA@ 100235b8     libucrt:lcidtoname_downlevel.obj
 0002:000045c4       ??_C@_1M@KFEHEPAC@?$AAt?$AAe?$AA?9?$AAI?$AAN?$AA?$AA@ 100235c4     libucrt:lcidtoname_downlevel.obj
 0002:000045d0       ??_C@_1M@CDCLMGHI@?$AAk?$AAn?$AA?9?$AAI?$AAN?$AA?$AA@ 100235d0     libucrt:lcidtoname_downlevel.obj
 0002:000045dc       ??_C@_1M@MIODLDKF@?$AAm?$AAl?$AA?9?$AAI?$AAN?$AA?$AA@ 100235dc     libucrt:lcidtoname_downlevel.obj
 0002:000045e8       ??_C@_1M@PBIEACPO@?$AAm?$AAr?$AA?9?$AAI?$AAN?$AA?$AA@ 100235e8     libucrt:lcidtoname_downlevel.obj
 0002:000045f4       ??_C@_1M@NIDEAGPH@?$AAs?$AAa?$AA?9?$AAI?$AAN?$AA?$AA@ 100235f4     libucrt:lcidtoname_downlevel.obj
 0002:00004600       ??_C@_1M@FHIHCBIO@?$AAm?$AAn?$AA?9?$AAM?$AAN?$AA?$AA@ 10023600     libucrt:lcidtoname_downlevel.obj
 0002:0000460c       ??_C@_1M@JAIJPENP@?$AAc?$AAy?$AA?9?$AAG?$AAB?$AA?$AA@ 1002360c     libucrt:lcidtoname_downlevel.obj
 0002:00004618       ??_C@_1M@PHGFBEPN@?$AAg?$AAl?$AA?9?$AAE?$AAS?$AA?$AA@ 10023618     libucrt:lcidtoname_downlevel.obj
 0002:00004624       ??_C@_1O@KPIPDNCP@?$AAk?$AAo?$AAk?$AA?9?$AAI?$AAN?$AA?$AA@ 10023624     libucrt:lcidtoname_downlevel.obj
 0002:00004634       ??_C@_1O@KNHJLDJA@?$AAs?$AAy?$AAr?$AA?9?$AAS?$AAY?$AA?$AA@ 10023634     libucrt:lcidtoname_downlevel.obj
 0002:00004644       ??_C@_1O@MKEKBLAH@?$AAd?$AAi?$AAv?$AA?9?$AAM?$AAV?$AA?$AA@ 10023644     libucrt:lcidtoname_downlevel.obj
 0002:00004654       ??_C@_1O@OHDCKDDF@?$AAq?$AAu?$AAz?$AA?9?$AAB?$AAO?$AA?$AA@ 10023654     libucrt:lcidtoname_downlevel.obj
 0002:00004664       ??_C@_1M@LEPJNLFD@?$AAn?$AAs?$AA?9?$AAZ?$AAA?$AA?$AA@ 10023664     libucrt:lcidtoname_downlevel.obj
 0002:00004670       ??_C@_1M@OMLEIIJB@?$AAm?$AAi?$AA?9?$AAN?$AAZ?$AA?$AA@ 10023670     libucrt:lcidtoname_downlevel.obj
 0002:0000467c       ??_C@_1M@PMPEAILG@?$AAa?$AAr?$AA?9?$AAI?$AAQ?$AA?$AA@ 1002367c     libucrt:lcidtoname_downlevel.obj
 0002:00004688       ??_C@_1M@CNKPNOEE@?$AAd?$AAe?$AA?9?$AAC?$AAH?$AA?$AA@ 10023688     libucrt:lcidtoname_downlevel.obj
 0002:00004694       ??_C@_1M@LKMGMLKO@?$AAe?$AAn?$AA?9?$AAG?$AAB?$AA?$AA@ 10023694     libucrt:lcidtoname_downlevel.obj
 0002:000046a0       ??_C@_1M@PGKJFFGL@?$AAe?$AAs?$AA?9?$AAM?$AAX?$AA?$AA@ 100236a0     libucrt:lcidtoname_downlevel.obj
 0002:000046ac       ??_C@_1M@DNNANBDC@?$AAf?$AAr?$AA?9?$AAB?$AAE?$AA?$AA@ 100236ac     libucrt:lcidtoname_downlevel.obj
 0002:000046b8       ??_C@_1M@HLGMDFHM@?$AAi?$AAt?$AA?9?$AAC?$AAH?$AA?$AA@ 100236b8     libucrt:lcidtoname_downlevel.obj
 0002:000046c4       ??_C@_1M@CLLBGJH@?$AAn?$AAl?$AA?9?$AAB?$AAE?$AA?$AA@ 100236c4     libucrt:lcidtoname_downlevel.obj
 0002:000046d0       ??_C@_1M@BODBOGLF@?$AAn?$AAn?$AA?9?$AAN?$AAO?$AA?$AA@ 100236d0     libucrt:lcidtoname_downlevel.obj
 0002:000046dc       ??_C@_1M@HFFAHKAD@?$AAp?$AAt?$AA?9?$AAP?$AAT?$AA?$AA@ 100236dc     libucrt:lcidtoname_downlevel.obj
 0002:000046e8       ??_C@_1BG@LNOAKHIE@?$AAs?$AAr?$AA?9?$AAS?$AAP?$AA?9?$AAL?$AAa?$AAt?$AAn?$AA?$AA@ 100236e8     libucrt:lcidtoname_downlevel.obj
 0002:00004700       ??_C@_1M@HBMHBGAK@?$AAs?$AAv?$AA?9?$AAF?$AAI?$AA?$AA@ 10023700     libucrt:lcidtoname_downlevel.obj
 0002:0000470c       ??_C@_1BG@DGCJGJBE@?$AAa?$AAz?$AA?9?$AAA?$AAZ?$AA?9?$AAC?$AAy?$AAr?$AAl?$AA?$AA@ 1002370c     libucrt:lcidtoname_downlevel.obj
 0002:00004724       ??_C@_1M@KEJDAAHB@?$AAs?$AAe?$AA?9?$AAS?$AAE?$AA?$AA@ 10023724     libucrt:lcidtoname_downlevel.obj
 0002:00004730       ??_C@_1M@HEIBJJAD@?$AAm?$AAs?$AA?9?$AAB?$AAN?$AA?$AA@ 10023730     libucrt:lcidtoname_downlevel.obj
 0002:0000473c       ??_C@_1BG@PBGJMCEM@?$AAu?$AAz?$AA?9?$AAU?$AAZ?$AA?9?$AAC?$AAy?$AAr?$AAl?$AA?$AA@ 1002373c     libucrt:lcidtoname_downlevel.obj
 0002:00004754       ??_C@_1O@LAOBCMDF@?$AAq?$AAu?$AAz?$AA?9?$AAE?$AAC?$AA?$AA@ 10023754     libucrt:lcidtoname_downlevel.obj
 0002:00004764       ??_C@_1M@POEEMAIO@?$AAa?$AAr?$AA?9?$AAE?$AAG?$AA?$AA@ 10023764     libucrt:lcidtoname_downlevel.obj
 0002:00004770       ??_C@_1M@EFAKDEDL@?$AAz?$AAh?$AA?9?$AAH?$AAK?$AA?$AA@ 10023770     libucrt:lcidtoname_downlevel.obj
 0002:0000477c       ??_C@_1M@HKKIJHGI@?$AAd?$AAe?$AA?9?$AAA?$AAT?$AA?$AA@ 1002377c     libucrt:lcidtoname_downlevel.obj
 0002:00004788       ??_C@_1M@KBFBEHJF@?$AAe?$AAn?$AA?9?$AAA?$AAU?$AA?$AA@ 10023788     libucrt:lcidtoname_downlevel.obj
 0002:00004794       ??_C@_1M@MNPLFAAH@?$AAe?$AAs?$AA?9?$AAE?$AAS?$AA?$AA@ 10023794     libucrt:lcidtoname_downlevel.obj
 0002:000047a0       ??_C@_1M@HJOOJFMA@?$AAf?$AAr?$AA?9?$AAC?$AAA?$AA?$AA@ 100237a0     libucrt:lcidtoname_downlevel.obj
 0002:000047ac       ??_C@_1BG@JPOFPNAB@?$AAs?$AAr?$AA?9?$AAS?$AAP?$AA?9?$AAC?$AAy?$AAr?$AAl?$AA?$AA@ 100237ac     libucrt:lcidtoname_downlevel.obj
 0002:000047c4       ??_C@_1M@LNFOCMOB@?$AAs?$AAe?$AA?9?$AAF?$AAI?$AA?$AA@ 100237c4     libucrt:lcidtoname_downlevel.obj
 0002:000047d0       ??_C@_1O@MGJBOAMB@?$AAq?$AAu?$AAz?$AA?9?$AAP?$AAE?$AA?$AA@ 100237d0     libucrt:lcidtoname_downlevel.obj
 0002:000047e0       ??_C@_1M@GJINLBOK@?$AAa?$AAr?$AA?9?$AAL?$AAY?$AA?$AA@ 100237e0     libucrt:lcidtoname_downlevel.obj
 0002:000047ec       ??_C@_1M@GGMNHJNL@?$AAz?$AAh?$AA?9?$AAS?$AAG?$AA?$AA@ 100237ec     libucrt:lcidtoname_downlevel.obj
 0002:000047f8       ??_C@_1M@HOIKODND@?$AAd?$AAe?$AA?9?$AAL?$AAU?$AA?$AA@ 100237f8     libucrt:lcidtoname_downlevel.obj
 0002:00004804       ??_C@_1M@DDOCCGFG@?$AAe?$AAn?$AA?9?$AAC?$AAA?$AA?$AA@ 10023804     libucrt:lcidtoname_downlevel.obj
 0002:00004810       ??_C@_1M@BNOEMJLF@?$AAe?$AAs?$AA?9?$AAG?$AAT?$AA?$AA@ 10023810     libucrt:lcidtoname_downlevel.obj
 0002:0000481c       ??_C@_1M@EOGNKEK@?$AAf?$AAr?$AA?9?$AAC?$AAH?$AA?$AA@ 1002381c     libucrt:lcidtoname_downlevel.obj
 0002:00004828       ??_C@_1M@FLIDJFHL@?$AAh?$AAr?$AA?9?$AAB?$AAA?$AA?$AA@ 10023828     libucrt:lcidtoname_downlevel.obj
 0002:00004834       ??_C@_1O@FMCELNAJ@?$AAs?$AAm?$AAj?$AA?9?$AAN?$AAO?$AA?$AA@ 10023834     libucrt:lcidtoname_downlevel.obj
 0002:00004844       ??_C@_1M@JHGLJMGJ@?$AAa?$AAr?$AA?9?$AAD?$AAZ?$AA?$AA@ 10023844     libucrt:lcidtoname_downlevel.obj
 0002:00004850       ??_C@_1M@JKKFDCNP@?$AAz?$AAh?$AA?9?$AAM?$AAO?$AA?$AA@ 10023850     libucrt:lcidtoname_downlevel.obj
 0002:0000485c       ??_C@_1M@GEEFALPE@?$AAd?$AAe?$AA?9?$AAL?$AAI?$AA?$AA@ 1002385c     libucrt:lcidtoname_downlevel.obj
 0002:00004868       ??_C@_1M@IGEOFBG@?$AAe?$AAn?$AA?9?$AAN?$AAZ?$AA?$AA@ 10023868     libucrt:lcidtoname_downlevel.obj
 0002:00004874       ??_C@_1M@KDBONEHP@?$AAe?$AAs?$AA?9?$AAC?$AAR?$AA?$AA@ 10023874     libucrt:lcidtoname_downlevel.obj
 0002:00004880       ??_C@_1M@FHMDOHNN@?$AAf?$AAr?$AA?9?$AAL?$AAU?$AA?$AA@ 10023880     libucrt:lcidtoname_downlevel.obj
 0002:0000488c       ??_C@_1BG@NFKKMAFG@?$AAb?$AAs?$AA?9?$AAB?$AAA?$AA?9?$AAL?$AAa?$AAt?$AAn?$AA?$AA@ 1002388c     libucrt:lcidtoname_downlevel.obj
 0002:000048a4       ??_C@_1O@IMNBEMCI@?$AAs?$AAm?$AAj?$AA?9?$AAS?$AAE?$AA?$AA@ 100238a4     libucrt:lcidtoname_downlevel.obj
 0002:000048b4       ??_C@_1M@DHHMBNDP@?$AAa?$AAr?$AA?9?$AAM?$AAA?$AA?$AA@ 100238b4     libucrt:lcidtoname_downlevel.obj
 0002:000048c0       ??_C@_1M@BNBLJCGH@?$AAe?$AAn?$AA?9?$AAI?$AAE?$AA?$AA@ 100238c0     libucrt:lcidtoname_downlevel.obj
 0002:000048cc       ??_C@_1M@GEPAFMDL@?$AAe?$AAs?$AA?9?$AAP?$AAA?$AA?$AA@ 100238cc     libucrt:lcidtoname_downlevel.obj
 0002:000048d8       ??_C@_1M@OJONDMDL@?$AAf?$AAr?$AA?9?$AAM?$AAC?$AA?$AA@ 100238d8     libucrt:lcidtoname_downlevel.obj
 0002:000048e4       ??_C@_1BG@OBCNFJB@?$AAs?$AAr?$AA?9?$AAB?$AAA?$AA?9?$AAL?$AAa?$AAt?$AAn?$AA?$AA@ 100238e4     libucrt:lcidtoname_downlevel.obj
 0002:000048fc       ??_C@_1O@KEMEEGPO@?$AAs?$AAm?$AAa?$AA?9?$AAN?$AAO?$AA?$AA@ 100238fc     libucrt:lcidtoname_downlevel.obj
 0002:0000490c       ??_C@_1M@ELMGFODK@?$AAa?$AAr?$AA?9?$AAT?$AAN?$AA?$AA@ 1002390c     libucrt:lcidtoname_downlevel.obj
 0002:00004918       ??_C@_1M@BHDLHFAF@?$AAe?$AAn?$AA?9?$AAZ?$AAA?$AA?$AA@ 10023918     libucrt:lcidtoname_downlevel.obj
 0002:00004924       ??_C@_1M@BMGIGLIF@?$AAe?$AAs?$AA?9?$AAD?$AAO?$AA?$AA@ 10023924     libucrt:lcidtoname_downlevel.obj
 0002:00004930       ??_C@_1BG@CMBHIPBE@?$AAs?$AAr?$AA?9?$AAB?$AAA?$AA?9?$AAC?$AAy?$AAr?$AAl?$AA?$AA@ 10023930     libucrt:lcidtoname_downlevel.obj
 0002:00004948       ??_C@_1O@HEDBLHNP@?$AAs?$AAm?$AAa?$AA?9?$AAS?$AAE?$AA?$AA@ 10023948     libucrt:lcidtoname_downlevel.obj
 0002:00004958       ??_C@_1M@DAGCADIM@?$AAa?$AAr?$AA?9?$AAO?$AAM?$AA?$AA@ 10023958     libucrt:lcidtoname_downlevel.obj
 0002:00004964       ??_C@_1M@FODLMICG@?$AAe?$AAn?$AA?9?$AAJ?$AAM?$AA?$AA@ 10023964     libucrt:lcidtoname_downlevel.obj
 0002:00004970       ??_C@_1M@DNMLCIHB@?$AAe?$AAs?$AA?9?$AAV?$AAE?$AA?$AA@ 10023970     libucrt:lcidtoname_downlevel.obj
 0002:0000497c       ??_C@_1O@EOKHMKJK@?$AAs?$AAm?$AAs?$AA?9?$AAF?$AAI?$AA?$AA@ 1002397c     libucrt:lcidtoname_downlevel.obj
 0002:0000498c       ??_C@_1M@CAFJMKOF@?$AAa?$AAr?$AA?9?$AAY?$AAE?$AA?$AA@ 1002398c     libucrt:lcidtoname_downlevel.obj
 0002:00004998       ??_C@_1M@CBFHIJLI@?$AAe?$AAn?$AA?9?$AAC?$AAB?$AA?$AA@ 10023998     libucrt:lcidtoname_downlevel.obj
 0002:000049a4       ??_C@_1M@BGNFLDN@?$AAe?$AAs?$AA?9?$AAC?$AAO?$AA?$AA@ 100239a4     libucrt:lcidtoname_downlevel.obj
 0002:000049b0       ??_C@_1O@JMPHMAMC@?$AAs?$AAm?$AAn?$AA?9?$AAF?$AAI?$AA?$AA@ 100239b0     libucrt:lcidtoname_downlevel.obj
 0002:000049c0       ??_C@_1M@JLANABKE@?$AAa?$AAr?$AA?9?$AAS?$AAY?$AA?$AA@ 100239c0     libucrt:lcidtoname_downlevel.obj
 0002:000049cc       ??_C@_1M@HPKGCFGN@?$AAe?$AAn?$AA?9?$AAB?$AAZ?$AA?$AA@ 100239cc     libucrt:lcidtoname_downlevel.obj
 0002:000049d8       ??_C@_1M@OLJCMLGM@?$AAe?$AAs?$AA?9?$AAP?$AAE?$AA?$AA@ 100239d8     libucrt:lcidtoname_downlevel.obj
 0002:000049e4       ??_C@_1M@MKKGFKLE@?$AAa?$AAr?$AA?9?$AAJ?$AAO?$AA?$AA@ 100239e4     libucrt:lcidtoname_downlevel.obj
 0002:000049f0       ??_C@_1M@EKPGLDNI@?$AAe?$AAn?$AA?9?$AAT?$AAT?$AA?$AA@ 100239f0     libucrt:lcidtoname_downlevel.obj
 0002:000049fc       ??_C@_1M@OONGHFHE@?$AAe?$AAs?$AA?9?$AAA?$AAR?$AA?$AA@ 100239fc     libucrt:lcidtoname_downlevel.obj
 0002:00004a08       ??_C@_1M@OOJFGBHE@?$AAa?$AAr?$AA?9?$AAL?$AAB?$AA?$AA@ 10023a08     libucrt:lcidtoname_downlevel.obj
 0002:00004a14       ??_C@_1M@GCEJHNEG@?$AAe?$AAn?$AA?9?$AAZ?$AAW?$AA?$AA@ 10023a14     libucrt:lcidtoname_downlevel.obj
 0002:00004a20       ??_C@_1M@JNOCAHJI@?$AAe?$AAs?$AA?9?$AAE?$AAC?$AA?$AA@ 10023a20     libucrt:lcidtoname_downlevel.obj
 0002:00004a2c       ??_C@_1M@JEFHPGGB@?$AAa?$AAr?$AA?9?$AAK?$AAW?$AA?$AA@ 10023a2c     libucrt:lcidtoname_downlevel.obj
 0002:00004a38       ??_C@_1M@MLKIBJOJ@?$AAe?$AAn?$AA?9?$AAP?$AAH?$AA?$AA@ 10023a38     libucrt:lcidtoname_downlevel.obj
 0002:00004a44       ??_C@_1M@BDNIPEND@?$AAe?$AAs?$AA?9?$AAC?$AAL?$AA?$AA@ 10023a44     libucrt:lcidtoname_downlevel.obj
 0002:00004a50       ??_C@_1M@MPNMEKBD@?$AAa?$AAr?$AA?9?$AAA?$AAE?$AA?$AA@ 10023a50     libucrt:lcidtoname_downlevel.obj
 0002:00004a5c       ??_C@_1M@KBJALCPI@?$AAe?$AAs?$AA?9?$AAU?$AAY?$AA?$AA@ 10023a5c     libucrt:lcidtoname_downlevel.obj
 0002:00004a68       ??_C@_1M@LLCCOAGA@?$AAa?$AAr?$AA?9?$AAB?$AAH?$AA?$AA@ 10023a68     libucrt:lcidtoname_downlevel.obj
 0002:00004a74       ??_C@_1M@PBFNCDEL@?$AAe?$AAs?$AA?9?$AAP?$AAY?$AA?$AA@ 10023a74     libucrt:lcidtoname_downlevel.obj
 0002:00004a80       ??_C@_1M@EDGINPNP@?$AAa?$AAr?$AA?9?$AAQ?$AAA?$AA?$AA@ 10023a80     libucrt:lcidtoname_downlevel.obj
 0002:00004a8c       ??_C@_1M@MKDBIIJI@?$AAe?$AAs?$AA?9?$AAB?$AAO?$AA?$AA@ 10023a8c     libucrt:lcidtoname_downlevel.obj
 0002:00004a98       ??_C@_1M@CPKKEBLD@?$AAe?$AAs?$AA?9?$AAS?$AAV?$AA?$AA@ 10023a98     libucrt:lcidtoname_downlevel.obj
 0002:00004aa4       ??_C@_1M@NDBGMMJL@?$AAe?$AAs?$AA?9?$AAH?$AAN?$AA?$AA@ 10023aa4     libucrt:lcidtoname_downlevel.obj
 0002:00004ab0       ??_C@_1M@JIJIBHDP@?$AAe?$AAs?$AA?9?$AAN?$AAI?$AA?$AA@ 10023ab0     libucrt:lcidtoname_downlevel.obj
 0002:00004abc       ??_C@_1M@CGFMKEEK@?$AAe?$AAs?$AA?9?$AAP?$AAR?$AA?$AA@ 10023abc     libucrt:lcidtoname_downlevel.obj
 0002:00004ac8       ??_C@_1O@ICJHKIIK@?$AAz?$AAh?$AA?9?$AAC?$AAH?$AAT?$AA?$AA@ 10023ac8     libucrt:lcidtoname_downlevel.obj
 0002:00004ad8       ??_C@_15CLNEJCE@?$AAs?$AAr?$AA?$AA@ 10023ad8     libucrt:lcidtoname_downlevel.obj
 0002:00005200       ??_C@_1M@KAHEKEIG@?$AAa?$AAf?$AA?9?$AAz?$AAa?$AA?$AA@ 10024200     libucrt:lcidtoname_downlevel.obj
 0002:0000520c       ??_C@_1M@GIECOABL@?$AAa?$AAr?$AA?9?$AAa?$AAe?$AA?$AA@ 1002420c     libucrt:lcidtoname_downlevel.obj
 0002:00005218       ??_C@_1M@BMLMEKGI@?$AAa?$AAr?$AA?9?$AAb?$AAh?$AA?$AA@ 10024218     libucrt:lcidtoname_downlevel.obj
 0002:00005224       ??_C@_1M@DAPFDGGB@?$AAa?$AAr?$AA?9?$AAd?$AAz?$AA?$AA@ 10024224     libucrt:lcidtoname_downlevel.obj
 0002:00005230       ??_C@_1M@FJNKGKIG@?$AAa?$AAr?$AA?9?$AAe?$AAg?$AA?$AA@ 10024230     libucrt:lcidtoname_downlevel.obj
 0002:0000523c       ??_C@_1M@FLGKKCLO@?$AAa?$AAr?$AA?9?$AAi?$AAq?$AA?$AA@ 1002423c     libucrt:lcidtoname_downlevel.obj
 0002:00005248       ??_C@_1M@GNDIPALM@?$AAa?$AAr?$AA?9?$AAj?$AAo?$AA?$AA@ 10024248     libucrt:lcidtoname_downlevel.obj
 0002:00005254       ??_C@_1M@DDMJFMGJ@?$AAa?$AAr?$AA?9?$AAk?$AAw?$AA?$AA@ 10024254     libucrt:lcidtoname_downlevel.obj
 0002:00005260       ??_C@_1M@EJALMLHM@?$AAa?$AAr?$AA?9?$AAl?$AAb?$AA?$AA@ 10024260     libucrt:lcidtoname_downlevel.obj
 0002:0000526c       ??_C@_1M@MOBDBLOC@?$AAa?$AAr?$AA?9?$AAl?$AAy?$AA?$AA@ 1002426c     libucrt:lcidtoname_downlevel.obj
 0002:00005278       ??_C@_1M@JAOCLHDH@?$AAa?$AAr?$AA?9?$AAm?$AAa?$AA?$AA@ 10024278     libucrt:lcidtoname_downlevel.obj
 0002:00005284       ??_C@_1M@JHPMKJIE@?$AAa?$AAr?$AA?9?$AAo?$AAm?$AA?$AA@ 10024284     libucrt:lcidtoname_downlevel.obj
 0002:00005290       ??_C@_1M@OEPGHFNH@?$AAa?$AAr?$AA?9?$AAq?$AAa?$AA?$AA@ 10024290     libucrt:lcidtoname_downlevel.obj
 0002:0000529c       ??_C@_1M@KJDONENM@?$AAa?$AAr?$AA?9?$AAs?$AAa?$AA?$AA@ 1002429c     libucrt:lcidtoname_downlevel.obj
 0002:000052a8       ??_C@_1M@DMJDKLKM@?$AAa?$AAr?$AA?9?$AAs?$AAy?$AA?$AA@ 100242a8     libucrt:lcidtoname_downlevel.obj
 0002:000052b4       ??_C@_1M@OMFIPEDC@?$AAa?$AAr?$AA?9?$AAt?$AAn?$AA?$AA@ 100242b4     libucrt:lcidtoname_downlevel.obj
 0002:000052c0       ??_C@_1M@IHMHGAON@?$AAa?$AAr?$AA?9?$AAy?$AAe?$AA?$AA@ 100242c0     libucrt:lcidtoname_downlevel.obj
 0002:000052cc       ??_C@_1BG@KDCPGJGB@?$AAa?$AAz?$AA?9?$AAa?$AAz?$AA?9?$AAc?$AAy?$AAr?$AAl?$AA?$AA@ 100242cc     libucrt:lcidtoname_downlevel.obj
 0002:000052e4       ??_C@_1BG@IBCKDDOE@?$AAa?$AAz?$AA?9?$AAa?$AAz?$AA?9?$AAl?$AAa?$AAt?$AAn?$AA?$AA@ 100242e4     libucrt:lcidtoname_downlevel.obj
 0002:000052fc       ??_C@_1M@EGPFDCPD@?$AAb?$AAe?$AA?9?$AAb?$AAy?$AA?$AA@ 100242fc     libucrt:lcidtoname_downlevel.obj
 0002:00005308       ??_C@_1M@PCMGMCGC@?$AAb?$AAg?$AA?9?$AAb?$AAg?$AA?$AA@ 10024308     libucrt:lcidtoname_downlevel.obj
 0002:00005314       ??_C@_1M@BJBMFGOB@?$AAb?$AAn?$AA?9?$AAi?$AAn?$AA?$AA@ 10024314     libucrt:lcidtoname_downlevel.obj
 0002:00005320       ??_C@_1BG@EAKMMACD@?$AAb?$AAs?$AA?9?$AAb?$AAa?$AA?9?$AAl?$AAa?$AAt?$AAn?$AA?$AA@ 10024320     libucrt:lcidtoname_downlevel.obj
 0002:00005338       ??_C@_1M@KGADAODK@?$AAc?$AAa?$AA?9?$AAe?$AAs?$AA?$AA@ 10024338     libucrt:lcidtoname_downlevel.obj
 0002:00005344       ??_C@_1M@COAJPDHI@?$AAc?$AAs?$AA?9?$AAc?$AAz?$AA?$AA@ 10024344     libucrt:lcidtoname_downlevel.obj
 0002:00005350       ??_C@_1M@DHBHFONH@?$AAc?$AAy?$AA?9?$AAg?$AAb?$AA?$AA@ 10024350     libucrt:lcidtoname_downlevel.obj
 0002:0000535c       ??_C@_1M@IMGKELGA@?$AAd?$AAa?$AA?9?$AAd?$AAk?$AA?$AA@ 1002435c     libucrt:lcidtoname_downlevel.obj
 0002:00005368       ??_C@_1M@NNDGDNGA@?$AAd?$AAe?$AA?9?$AAa?$AAt?$AA?$AA@ 10024368     libucrt:lcidtoname_downlevel.obj
 0002:00005374       ??_C@_1M@IKDBHEEM@?$AAd?$AAe?$AA?9?$AAc?$AAh?$AA?$AA@ 10024374     libucrt:lcidtoname_downlevel.obj
 0002:00005380       ??_C@_1M@GFFOJMCJ@?$AAd?$AAe?$AA?9?$AAd?$AAe?$AA?$AA@ 10024380     libucrt:lcidtoname_downlevel.obj
 0002:0000538c       ??_C@_1M@MDNLKBPM@?$AAd?$AAe?$AA?9?$AAl?$AAi?$AA?$AA@ 1002438c     libucrt:lcidtoname_downlevel.obj
 0002:00005398       ??_C@_1M@NJBEEJNL@?$AAd?$AAe?$AA?9?$AAl?$AAu?$AA?$AA@ 10024398     libucrt:lcidtoname_downlevel.obj
 0002:000053a4       ??_C@_1O@GNNELBAP@?$AAd?$AAi?$AAv?$AA?9?$AAm?$AAv?$AA?$AA@ 100243a4     libucrt:lcidtoname_downlevel.obj
 0002:000053b4       ??_C@_1M@EJLEOGAE@?$AAe?$AAl?$AA?9?$AAg?$AAr?$AA?$AA@ 100243b4     libucrt:lcidtoname_downlevel.obj
 0002:000053c0       ??_C@_1M@GMPONJN@?$AAe?$AAn?$AA?9?$AAa?$AAu?$AA?$AA@ 100243c0     libucrt:lcidtoname_downlevel.obj
 0002:000053cc       ??_C@_1M@NIDIIPGF@?$AAe?$AAn?$AA?9?$AAb?$AAz?$AA?$AA@ 100243cc     libucrt:lcidtoname_downlevel.obj
 0002:000053d8       ??_C@_1M@JEHMIMFO@?$AAe?$AAn?$AA?9?$AAc?$AAa?$AA?$AA@ 100243d8     libucrt:lcidtoname_downlevel.obj
 0002:000053e4       ??_C@_1M@IGMJCDLA@?$AAe?$AAn?$AA?9?$AAc?$AAb?$AA?$AA@ 100243e4     libucrt:lcidtoname_downlevel.obj
 0002:000053f0       ??_C@_1M@BNFIGBKG@?$AAe?$AAn?$AA?9?$AAg?$AAb?$AA?$AA@ 100243f0     libucrt:lcidtoname_downlevel.obj
 0002:000053fc       ??_C@_1M@LKIFDIGP@?$AAe?$AAn?$AA?9?$AAi?$AAe?$AA?$AA@ 100243fc     libucrt:lcidtoname_downlevel.obj
 0002:00005408       ??_C@_1M@PJKFGCCO@?$AAe?$AAn?$AA?9?$AAj?$AAm?$AA?$AA@ 10024408     libucrt:lcidtoname_downlevel.obj
 0002:00005414       ??_C@_1M@KPPKEPBO@?$AAe?$AAn?$AA?9?$AAn?$AAz?$AA?$AA@ 10024414     libucrt:lcidtoname_downlevel.obj
 0002:00005420       ??_C@_1M@GMDGLDOB@?$AAe?$AAn?$AA?9?$AAp?$AAh?$AA?$AA@ 10024420     libucrt:lcidtoname_downlevel.obj
 0002:0000542c       ??_C@_1M@ONGIBJNA@?$AAe?$AAn?$AA?9?$AAt?$AAt?$AA?$AA@ 1002442c     libucrt:lcidtoname_downlevel.obj
 0002:00005438       ??_C@_1M@LLODPCMM@?$AAe?$AAn?$AA?9?$AAu?$AAs?$AA?$AA@ 10024438     libucrt:lcidtoname_downlevel.obj
 0002:00005444       ??_C@_1M@LAKFNPAN@?$AAe?$AAn?$AA?9?$AAz?$AAa?$AA?$AA@ 10024444     libucrt:lcidtoname_downlevel.obj
 0002:00005450       ??_C@_1M@MFNHNHEO@?$AAe?$AAn?$AA?9?$AAz?$AAw?$AA?$AA@ 10024450     libucrt:lcidtoname_downlevel.obj
 0002:0000545c       ??_C@_1M@EJEINPHM@?$AAe?$AAs?$AA?9?$AAa?$AAr?$AA?$AA@ 1002445c     libucrt:lcidtoname_downlevel.obj
 0002:00005468       ??_C@_1M@GNKPCCJA@?$AAe?$AAs?$AA?9?$AAb?$AAo?$AA?$AA@ 10024468     libucrt:lcidtoname_downlevel.obj
 0002:00005474       ??_C@_1M@LEEGFONL@?$AAe?$AAs?$AA?9?$AAc?$AAl?$AA?$AA@ 10024474     libucrt:lcidtoname_downlevel.obj
 0002:00005480       ??_C@_1M@KGPDPBDF@?$AAe?$AAs?$AA?9?$AAc?$AAo?$AA?$AA@ 10024480     libucrt:lcidtoname_downlevel.obj
 0002:0000548c       ??_C@_1M@EIAHOHH@?$AAe?$AAs?$AA?9?$AAc?$AAr?$AA?$AA@ 1002448c     libucrt:lcidtoname_downlevel.obj
 0002:00005498       ??_C@_1M@LLPGMBIN@?$AAe?$AAs?$AA?9?$AAd?$AAo?$AA?$AA@ 10024498     libucrt:lcidtoname_downlevel.obj
 0002:000054a4       ??_C@_1M@DKHMKNJA@?$AAe?$AAs?$AA?9?$AAe?$AAc?$AA?$AA@ 100244a4     libucrt:lcidtoname_downlevel.obj
 0002:000054b0       ??_C@_1M@GKGFPKAP@?$AAe?$AAs?$AA?9?$AAe?$AAs?$AA?$AA@ 100244b0     libucrt:lcidtoname_downlevel.obj
 0002:000054bc       ??_C@_1M@LKHKGDLN@?$AAe?$AAs?$AA?9?$AAg?$AAt?$AA?$AA@ 100244bc     libucrt:lcidtoname_downlevel.obj
 0002:000054c8       ??_C@_1M@HEIIGGJD@?$AAe?$AAs?$AA?9?$AAh?$AAn?$AA?$AA@ 100244c8     libucrt:lcidtoname_downlevel.obj
 0002:000054d4       ??_C@_1M@FBDHPPGD@?$AAe?$AAs?$AA?9?$AAm?$AAx?$AA?$AA@ 100244d4     libucrt:lcidtoname_downlevel.obj
 0002:000054e0       ??_C@_1M@DPAGLNDH@?$AAe?$AAs?$AA?9?$AAn?$AAi?$AA?$AA@ 100244e0     libucrt:lcidtoname_downlevel.obj
 0002:000054ec       ??_C@_1M@MDGOPGDD@?$AAe?$AAs?$AA?9?$AAp?$AAa?$AA?$AA@ 100244ec     libucrt:lcidtoname_downlevel.obj
 0002:000054f8       ??_C@_1M@EMAMGBGE@?$AAe?$AAs?$AA?9?$AAp?$AAe?$AA?$AA@ 100244f8     libucrt:lcidtoname_downlevel.obj
 0002:00005504       ??_C@_1M@IBMCAOEC@?$AAe?$AAs?$AA?9?$AAp?$AAr?$AA?$AA@ 10024504     libucrt:lcidtoname_downlevel.obj
 0002:00005510       ??_C@_1M@FGMDIJED@?$AAe?$AAs?$AA?9?$AAp?$AAy?$AA?$AA@ 10024510     libucrt:lcidtoname_downlevel.obj
 0002:0000551c       ??_C@_1M@IIDEOLLL@?$AAe?$AAs?$AA?9?$AAs?$AAv?$AA?$AA@ 1002451c     libucrt:lcidtoname_downlevel.obj
 0002:00005528       ??_C@_1M@GAOBIPA@?$AAe?$AAs?$AA?9?$AAu?$AAy?$AA?$AA@ 10024528     libucrt:lcidtoname_downlevel.obj
 0002:00005534       ??_C@_1M@JKFFICHJ@?$AAe?$AAs?$AA?9?$AAv?$AAe?$AA?$AA@ 10024534     libucrt:lcidtoname_downlevel.obj
 0002:00005540       ??_C@_1M@PNMLOJDF@?$AAe?$AAt?$AA?9?$AAe?$AAe?$AA?$AA@ 10024540     libucrt:lcidtoname_downlevel.obj
 0002:0000554c       ??_C@_1M@GHHLIKEI@?$AAe?$AAu?$AA?9?$AAe?$AAs?$AA?$AA@ 1002454c     libucrt:lcidtoname_downlevel.obj
 0002:00005558       ??_C@_1M@PBNONODE@?$AAf?$AAa?$AA?9?$AAi?$AAr?$AA?$AA@ 10024558     libucrt:lcidtoname_downlevel.obj
 0002:00005564       ??_C@_1M@JEEHPMIL@?$AAf?$AAi?$AA?9?$AAf?$AAi?$AA?$AA@ 10024564     libucrt:lcidtoname_downlevel.obj
 0002:00005570       ??_C@_1M@LMDCNDBA@?$AAf?$AAo?$AA?9?$AAf?$AAo?$AA?$AA@ 10024570     libucrt:lcidtoname_downlevel.obj
 0002:0000557c       ??_C@_1M@JKEOHLDK@?$AAf?$AAr?$AA?9?$AAb?$AAe?$AA?$AA@ 1002457c     libucrt:lcidtoname_downlevel.obj
 0002:00005588       ??_C@_1M@NOHADPMI@?$AAf?$AAr?$AA?9?$AAc?$AAa?$AA?$AA@ 10024588     libucrt:lcidtoname_downlevel.obj
 0002:00005594       ??_C@_1M@KDHIHAEC@?$AAf?$AAr?$AA?9?$AAc?$AAh?$AA?$AA@ 10024594     libucrt:lcidtoname_downlevel.obj
 0002:000055a0       ??_C@_1M@MMBBFGAK@?$AAf?$AAr?$AA?9?$AAf?$AAr?$AA?$AA@ 100245a0     libucrt:lcidtoname_downlevel.obj
 0002:000055ac       ??_C@_1M@PAFNENNF@?$AAf?$AAr?$AA?9?$AAl?$AAu?$AA?$AA@ 100245ac     libucrt:lcidtoname_downlevel.obj
 0002:000055b8       ??_C@_1M@EOHDJGDD@?$AAf?$AAr?$AA?9?$AAm?$AAc?$AA?$AA@ 100245b8     libucrt:lcidtoname_downlevel.obj
 0002:000055c4       ??_C@_1M@FAPLLOPF@?$AAg?$AAl?$AA?9?$AAe?$AAs?$AA?$AA@ 100245c4     libucrt:lcidtoname_downlevel.obj
 0002:000055d0       ??_C@_1M@FOPBFLOO@?$AAg?$AAu?$AA?9?$AAi?$AAn?$AA?$AA@ 100245d0     libucrt:lcidtoname_downlevel.obj
 0002:000055dc       ??_C@_1M@KBMCINPM@?$AAh?$AAe?$AA?9?$AAi?$AAl?$AA?$AA@ 100245dc     libucrt:lcidtoname_downlevel.obj
 0002:000055e8       ??_C@_1M@BBPHKFPJ@?$AAh?$AAi?$AA?9?$AAi?$AAn?$AA?$AA@ 100245e8     libucrt:lcidtoname_downlevel.obj
 0002:000055f4       ??_C@_1M@PMBNDPHD@?$AAh?$AAr?$AA?9?$AAb?$AAa?$AA?$AA@ 100245f4     libucrt:lcidtoname_downlevel.obj
 0002:00005600       ??_C@_1M@BPCKOEGE@?$AAh?$AAr?$AA?9?$AAh?$AAr?$AA?$AA@ 10024600     libucrt:lcidtoname_downlevel.obj
 0002:0000560c       ??_C@_1M@GACBMHKE@?$AAh?$AAu?$AA?9?$AAh?$AAu?$AA?$AA@ 1002460c     libucrt:lcidtoname_downlevel.obj
 0002:00005618       ??_C@_1M@MILPAJJC@?$AAh?$AAy?$AA?9?$AAa?$AAm?$AA?$AA@ 10024618     libucrt:lcidtoname_downlevel.obj
 0002:00005624       ??_C@_1M@BABBICEC@?$AAi?$AAd?$AA?9?$AAi?$AAd?$AA?$AA@ 10024624     libucrt:lcidtoname_downlevel.obj
 0002:00005630       ??_C@_1M@BIKNHHPF@?$AAi?$AAs?$AA?9?$AAi?$AAs?$AA?$AA@ 10024630     libucrt:lcidtoname_downlevel.obj
 0002:0000563c       ??_C@_1M@NMPCJPHE@?$AAi?$AAt?$AA?9?$AAc?$AAh?$AA?$AA@ 1002463c     libucrt:lcidtoname_downlevel.obj
 0002:00005648       ??_C@_1M@GHKGFEDF@?$AAi?$AAt?$AA?9?$AAi?$AAt?$AA?$AA@ 10024648     libucrt:lcidtoname_downlevel.obj
 0002:00005654       ??_C@_1M@NIEJCJJA@?$AAj?$AAa?$AA?9?$AAj?$AAp?$AA?$AA@ 10024654     libucrt:lcidtoname_downlevel.obj
 0002:00005660       ??_C@_1M@JILFNBIM@?$AAk?$AAa?$AA?9?$AAg?$AAe?$AA?$AA@ 10024660     libucrt:lcidtoname_downlevel.obj
 0002:0000566c       ??_C@_1M@PACPMGPH@?$AAk?$AAk?$AA?9?$AAk?$AAz?$AA?$AA@ 1002466c     libucrt:lcidtoname_downlevel.obj
 0002:00005678       ??_C@_1M@IELFGMHA@?$AAk?$AAn?$AA?9?$AAi?$AAn?$AA?$AA@ 10024678     libucrt:lcidtoname_downlevel.obj
 0002:00005684       ??_C@_1O@IBBJHCH@?$AAk?$AAo?$AAk?$AA?9?$AAi?$AAn?$AA?$AA@ 10024684     libucrt:lcidtoname_downlevel.obj
 0002:00005694       ??_C@_1M@DMHAEOGC@?$AAk?$AAo?$AA?9?$AAk?$AAr?$AA?$AA@ 10024694     libucrt:lcidtoname_downlevel.obj
 0002:000056a0       ??_C@_1M@HBAHBIGA@?$AAk?$AAy?$AA?9?$AAk?$AAg?$AA?$AA@ 100246a0     libucrt:lcidtoname_downlevel.obj
 0002:000056ac       ??_C@_1M@KPMILCJG@?$AAl?$AAt?$AA?9?$AAl?$AAt?$AA?$AA@ 100246ac     libucrt:lcidtoname_downlevel.obj
 0002:000056b8       ??_C@_1M@BDEKKCA@?$AAl?$AAv?$AA?9?$AAl?$AAv?$AA?$AA@ 100246b8     libucrt:lcidtoname_downlevel.obj
 0002:000056c4       ??_C@_1M@ELCKCCJJ@?$AAm?$AAi?$AA?9?$AAn?$AAz?$AA?$AA@ 100246c4     libucrt:lcidtoname_downlevel.obj
 0002:000056d0       ??_C@_1M@CBOOLAPA@?$AAm?$AAk?$AA?9?$AAm?$AAk?$AA?$AA@ 100246d0     libucrt:lcidtoname_downlevel.obj
 0002:000056dc       ??_C@_1M@GPHNBJKN@?$AAm?$AAl?$AA?9?$AAi?$AAn?$AA?$AA@ 100246dc     libucrt:lcidtoname_downlevel.obj
 0002:000056e8       ??_C@_1M@PABJILIG@?$AAm?$AAn?$AA?9?$AAm?$AAn?$AA?$AA@ 100246e8     libucrt:lcidtoname_downlevel.obj
 0002:000056f4       ??_C@_1M@FGBKKIPG@?$AAm?$AAr?$AA?9?$AAi?$AAn?$AA?$AA@ 100246f4     libucrt:lcidtoname_downlevel.obj
 0002:00005700       ??_C@_1M@NDBPDDAL@?$AAm?$AAs?$AA?9?$AAb?$AAn?$AA?$AA@ 10024700     libucrt:lcidtoname_downlevel.obj
 0002:0000570c       ??_C@_1M@OPIHOOPI@?$AAm?$AAs?$AA?9?$AAm?$AAy?$AA?$AA@ 1002470c     libucrt:lcidtoname_downlevel.obj
 0002:00005718       ??_C@_1M@PPDBCNFM@?$AAm?$AAt?$AA?9?$AAm?$AAt?$AA?$AA@ 10024718     libucrt:lcidtoname_downlevel.obj
 0002:00005724       ??_C@_1M@KDJDKMDD@?$AAn?$AAb?$AA?9?$AAn?$AAo?$AA?$AA@ 10024724     libucrt:lcidtoname_downlevel.obj
 0002:00005730       ??_C@_1M@KFCFLMJP@?$AAn?$AAl?$AA?9?$AAb?$AAe?$AA?$AA@ 10024730     libucrt:lcidtoname_downlevel.obj
 0002:0000573c       ??_C@_1M@KPOPDDGO@?$AAn?$AAl?$AA?9?$AAn?$AAl?$AA?$AA@ 1002473c     libucrt:lcidtoname_downlevel.obj
 0002:00005748       ??_C@_1M@LJKPEMLN@?$AAn?$AAn?$AA?9?$AAn?$AAo?$AA?$AA@ 10024748     libucrt:lcidtoname_downlevel.obj
 0002:00005754       ??_C@_1M@BDGHHBFL@?$AAn?$AAs?$AA?9?$AAz?$AAa?$AA?$AA@ 10024754     libucrt:lcidtoname_downlevel.obj
 0002:00005760       ??_C@_1M@IDEHOAP@?$AAp?$AAa?$AA?9?$AAi?$AAn?$AA?$AA@ 10024760     libucrt:lcidtoname_downlevel.obj
 0002:0000576c       ??_C@_1M@HDBKGOGH@?$AAp?$AAl?$AA?9?$AAp?$AAl?$AA?$AA@ 1002476c     libucrt:lcidtoname_downlevel.obj
 0002:00005778       ??_C@_1M@LJLLCMEH@?$AAp?$AAt?$AA?9?$AAb?$AAr?$AA?$AA@ 10024778     libucrt:lcidtoname_downlevel.obj
 0002:00005784       ??_C@_1M@NCMONAAL@?$AAp?$AAt?$AA?9?$AAp?$AAt?$AA?$AA@ 10024784     libucrt:lcidtoname_downlevel.obj
 0002:00005790       ??_C@_1O@EAKMAJDN@?$AAq?$AAu?$AAz?$AA?9?$AAb?$AAo?$AA?$AA@ 10024790     libucrt:lcidtoname_downlevel.obj
 0002:000057a0       ??_C@_1O@BHHPIGDN@?$AAq?$AAu?$AAz?$AA?9?$AAe?$AAc?$AA?$AA@ 100247a0     libucrt:lcidtoname_downlevel.obj
 0002:000057b0       ??_C@_1O@GBAPEKMJ@?$AAq?$AAu?$AAz?$AA?9?$AAp?$AAe?$AA?$AA@ 100247b0     libucrt:lcidtoname_downlevel.obj
 0002:000057c0       ??_C@_1M@CLGLEFBO@?$AAr?$AAo?$AA?9?$AAr?$AAo?$AA?$AA@ 100247c0     libucrt:lcidtoname_downlevel.obj
 0002:000057cc       ??_C@_1M@CEEDODME@?$AAr?$AAu?$AA?9?$AAr?$AAu?$AA?$AA@ 100247cc     libucrt:lcidtoname_downlevel.obj
 0002:000057d8       ??_C@_1M@HPKKKMPP@?$AAs?$AAa?$AA?9?$AAi?$AAn?$AA?$AA@ 100247d8     libucrt:lcidtoname_downlevel.obj
 0002:000057e4       ??_C@_1M@BKMAIGOJ@?$AAs?$AAe?$AA?9?$AAf?$AAi?$AA?$AA@ 100247e4     libucrt:lcidtoname_downlevel.obj
 0002:000057f0       ??_C@_1M@NDPIFLFI@?$AAs?$AAe?$AA?9?$AAn?$AAo?$AA?$AA@ 100247f0     libucrt:lcidtoname_downlevel.obj
 0002:000057fc       ??_C@_1M@DANKKHJ@?$AAs?$AAe?$AA?9?$AAs?$AAe?$AA?$AA@ 100247fc     libucrt:lcidtoname_downlevel.obj
 0002:00005808       ??_C@_1M@PNBLONPJ@?$AAs?$AAk?$AA?9?$AAs?$AAk?$AA?$AA@ 10024808     libucrt:lcidtoname_downlevel.obj
 0002:00005814       ??_C@_1M@LFMODOAL@?$AAs?$AAl?$AA?9?$AAs?$AAi?$AA?$AA@ 10024814     libucrt:lcidtoname_downlevel.obj
 0002:00005820       ??_C@_1O@DFKOMPG@?$AAs?$AAm?$AAa?$AA?9?$AAn?$AAo?$AA?$AA@ 10024820     libucrt:lcidtoname_downlevel.obj
 0002:00005830       ??_C@_1O@NDKPBNNH@?$AAs?$AAm?$AAa?$AA?9?$AAs?$AAe?$AA?$AA@ 10024830     libucrt:lcidtoname_downlevel.obj
 0002:00005840       ??_C@_1O@PLLKBHAB@?$AAs?$AAm?$AAj?$AA?9?$AAn?$AAo?$AA?$AA@ 10024840     libucrt:lcidtoname_downlevel.obj
 0002:00005850       ??_C@_1O@CLEPOGCA@?$AAs?$AAm?$AAj?$AA?9?$AAs?$AAe?$AA?$AA@ 10024850     libucrt:lcidtoname_downlevel.obj
 0002:00005860       ??_C@_1O@DLGJGKMK@?$AAs?$AAm?$AAn?$AA?9?$AAf?$AAi?$AA?$AA@ 10024860     libucrt:lcidtoname_downlevel.obj
 0002:00005870       ??_C@_1O@OJDJGAJC@?$AAs?$AAm?$AAs?$AA?9?$AAf?$AAi?$AA?$AA@ 10024870     libucrt:lcidtoname_downlevel.obj
 0002:00005880       ??_C@_1M@BOFOGHPB@?$AAs?$AAq?$AA?9?$AAa?$AAl?$AA?$AA@ 10024880     libucrt:lcidtoname_downlevel.obj
 0002:0000588c       ??_C@_1BG@LJBBIPGB@?$AAs?$AAr?$AA?9?$AAb?$AAa?$AA?9?$AAc?$AAy?$AAr?$AAl?$AA?$AA@ 1002488c     libucrt:lcidtoname_downlevel.obj
 0002:000058a4       ??_C@_1BG@JLBENFOE@?$AAs?$AAr?$AA?9?$AAb?$AAa?$AA?9?$AAl?$AAa?$AAt?$AAn?$AA?$AA@ 100248a4     libucrt:lcidtoname_downlevel.obj
 0002:000058bc       ??_C@_1BG@KODPNHE@?$AAs?$AAr?$AA?9?$AAs?$AAp?$AA?9?$AAc?$AAy?$AAr?$AAl?$AA?$AA@ 100248bc     libucrt:lcidtoname_downlevel.obj
 0002:000058d4       ??_C@_1BG@CIOGKHPB@?$AAs?$AAr?$AA?9?$AAs?$AAp?$AA?9?$AAl?$AAa?$AAt?$AAn?$AA?$AA@ 100248d4     libucrt:lcidtoname_downlevel.obj
 0002:000058ec       ??_C@_1M@NGFJLMAC@?$AAs?$AAv?$AA?9?$AAf?$AAi?$AA?$AA@ 100248ec     libucrt:lcidtoname_downlevel.obj
 0002:000058f8       ??_C@_1M@MPJEJAJC@?$AAs?$AAv?$AA?9?$AAs?$AAe?$AA?$AA@ 100248f8     libucrt:lcidtoname_downlevel.obj
 0002:00005904       ??_C@_1M@MPNDHLFK@?$AAs?$AAw?$AA?9?$AAk?$AAe?$AA?$AA@ 10024904     libucrt:lcidtoname_downlevel.obj
 0002:00005910       ??_C@_1O@KOHBJJI@?$AAs?$AAy?$AAr?$AA?9?$AAs?$AAy?$AA?$AA@ 10024910     libucrt:lcidtoname_downlevel.obj
 0002:00005920       ??_C@_1M@LDCEFHA@?$AAt?$AAa?$AA?9?$AAi?$AAn?$AA?$AA@ 10024920     libucrt:lcidtoname_downlevel.obj
 0002:0000592c       ??_C@_1M@CNJOFAK@?$AAt?$AAe?$AA?9?$AAi?$AAn?$AA?$AA@ 1002492c     libucrt:lcidtoname_downlevel.obj
 0002:00005938       ??_C@_1M@GNAECACD@?$AAt?$AAh?$AA?9?$AAt?$AAh?$AA?$AA@ 10024938     libucrt:lcidtoname_downlevel.obj
 0002:00005944       ??_C@_1M@CHBIHOJO@?$AAt?$AAn?$AA?9?$AAz?$AAa?$AA?$AA@ 10024944     libucrt:lcidtoname_downlevel.obj
 0002:00005950       ??_C@_1M@GCCMIGPJ@?$AAt?$AAr?$AA?9?$AAt?$AAr?$AA?$AA@ 10024950     libucrt:lcidtoname_downlevel.obj
 0002:0000595c       ??_C@_1M@CELMCNBK@?$AAt?$AAt?$AA?9?$AAr?$AAu?$AA?$AA@ 1002495c     libucrt:lcidtoname_downlevel.obj
 0002:00005968       ??_C@_1M@KLMCELGA@?$AAu?$AAk?$AA?9?$AAu?$AAa?$AA?$AA@ 10024968     libucrt:lcidtoname_downlevel.obj
 0002:00005974       ??_C@_1M@EPAJJAJF@?$AAu?$AAr?$AA?9?$AAp?$AAk?$AA?$AA@ 10024974     libucrt:lcidtoname_downlevel.obj
 0002:00005980       ??_C@_1BG@GEGPMCDJ@?$AAu?$AAz?$AA?9?$AAu?$AAz?$AA?9?$AAc?$AAy?$AAr?$AAl?$AA?$AA@ 10024980     libucrt:lcidtoname_downlevel.obj
 0002:00005998       ??_C@_1BG@EGGKJILM@?$AAu?$AAz?$AA?9?$AAu?$AAz?$AA?9?$AAl?$AAa?$AAt?$AAn?$AA?$AA@ 10024998     libucrt:lcidtoname_downlevel.obj
 0002:000059b0       ??_C@_1M@GFOCLFF@?$AAv?$AAi?$AA?9?$AAv?$AAn?$AA?$AA@ 100249b0     libucrt:lcidtoname_downlevel.obj
 0002:000059bc       ??_C@_1M@CPAMEDFI@?$AAx?$AAh?$AA?9?$AAz?$AAa?$AA?$AA@ 100249bc     libucrt:lcidtoname_downlevel.obj
 0002:000059c8       ??_C@_1O@EBKIFIGN@?$AAz?$AAh?$AA?9?$AAc?$AAh?$AAs?$AA?$AA@ 100249c8     libucrt:lcidtoname_downlevel.obj
 0002:000059d8       ??_C@_1O@NMHPGANE@?$AAz?$AAh?$AA?9?$AAc?$AAh?$AAt?$AA?$AA@ 100249d8     libucrt:lcidtoname_downlevel.obj
 0002:000059e8       ??_C@_1M@LPINJOMC@?$AAz?$AAh?$AA?9?$AAc?$AAn?$AA?$AA@ 100249e8     libucrt:lcidtoname_downlevel.obj
 0002:000059f4       ??_C@_1M@OCJEJODD@?$AAz?$AAh?$AA?9?$AAh?$AAk?$AA?$AA@ 100249f4     libucrt:lcidtoname_downlevel.obj
 0002:00005a00       ??_C@_1M@DNDLJINH@?$AAz?$AAh?$AA?9?$AAm?$AAo?$AA?$AA@ 10024a00     libucrt:lcidtoname_downlevel.obj
 0002:00005a0c       ??_C@_1M@MBFDNDND@?$AAz?$AAh?$AA?9?$AAs?$AAg?$AA?$AA@ 10024a0c     libucrt:lcidtoname_downlevel.obj
 0002:00005a18       ??_C@_1M@IMEPLEPE@?$AAz?$AAh?$AA?9?$AAt?$AAw?$AA?$AA@ 10024a18     libucrt:lcidtoname_downlevel.obj
 0002:00005a24       ??_C@_1M@BBGHNHJP@?$AAz?$AAu?$AA?9?$AAz?$AAa?$AA?$AA@ 10024a24     libucrt:lcidtoname_downlevel.obj
 0002:00005a30       ?large_power_data@?1??multiply_by_power_of_ten@__crt_strtox@@YA_NAAUbig_integer@2@I@Z@4QBIB 10024a30     libucrt:cfout.obj
 0002:00006338       ?large_power_indices@?1??multiply_by_power_of_ten@__crt_strtox@@YA_NAAUbig_integer@2@I@Z@4QBUunpack_index@?1??12@YA_N0I@Z@B 10025338     libucrt:cfout.obj
 0002:000063d0       ?small_powers_of_ten@?1??multiply_by_power_of_ten@__crt_strtox@@YA_NAAUbig_integer@2@I@Z@4QBIB 100253d0     libucrt:cfout.obj
 0002:000063f4       ??_C@_01GBGANLPD@0?$AA@    100253f4     libucrt:cfout.obj
 0002:000063f8       ??_C@_05DNEBIAHO@1?$CDINF?$AA@ 100253f8     libucrt:cfout.obj
 0002:00006400       ??_C@_06IMKFLFPG@1?$CDQNAN?$AA@ 10025400     libucrt:cfout.obj
 0002:00006408       ??_C@_06PGGFOGJG@1?$CDSNAN?$AA@ 10025408     libucrt:cfout.obj
 0002:00006410       ??_C@_05PHHOCPM@1?$CDIND?$AA@ 10025410     libucrt:cfout.obj
 0002:00006580       __infinity                 10025580     libucrt:87tran.obj
 0002:0000658a       __minfinity                1002558a     libucrt:87tran.obj
 0002:00006594       __logemax                  10025594     libucrt:87tran.obj
 0002:000065ba       __OP_EXPjmptab             100255ba     libucrt:87tran.obj
 0002:000065e0       __indefinite               100255e0     libucrt:87disp.obj
 0002:000065ea       __piby2                    100255ea     libucrt:87disp.obj
 0002:000065f4       __piby4                    100255f4     libucrt:87disp.obj
 0002:00006628       __DEFAULT_CW_in_mem        10025628     libucrt:common.obj
 0002:0000662a       __pi_by_2_to_61            1002562a     libucrt:common.obj
 0002:00006664       ??_C@_03MGHMBJCF@log?$AA@  10025664     libucrt:libm_error.obj
 0002:00006668       ??_C@_05HGHHAHAP@log10?$AA@ 10025668     libucrt:libm_error.obj
 0002:00006670       ??_C@_03KHJOGHMM@exp?$AA@  10025670     libucrt:libm_error.obj
 0002:00006674       ??_C@_03JGHBODFD@pow?$AA@  10025674     libucrt:libm_error.obj
 0002:00006678       ??_C@_04FIHNOPOL@asin?$AA@ 10025678     libucrt:libm_error.obj
 0002:00006680       ??_C@_04PDIFKINK@acos?$AA@ 10025680     libucrt:libm_error.obj
 0002:00006688       ??_C@_04EIAKFFMI@sqrt?$AA@ 10025688     libucrt:libm_error.obj
 0002:00006690       __real@3ff0000000000000    10025690     libucrt:libm_error.obj
 0002:000066b0       ___acrt_log10_table_t      100256b0     libucrt:log10_tables.obj
 0002:00006ac0       ___acrt_log10_table_cb     10025ac0     libucrt:log10_tables.obj
 0002:00006ed0       __real@3fe0000000000000    10025ed0     libucrt:powhlp.obj
 0002:00006fc0       ??_C@_04COOMCNPB@sinh?$AA@ 10025fc0     libucrt:fpexcept.obj
 0002:00006fc8       ??_C@_04HPJJNFIM@cosh?$AA@ 10025fc8     libucrt:fpexcept.obj
 0002:00006fd0       ??_C@_04FJHINJAO@tanh?$AA@ 10025fd0     libucrt:fpexcept.obj
 0002:00006fd8       ??_C@_04MLLJIGOK@atan?$AA@ 10025fd8     libucrt:fpexcept.obj
 0002:00006fe0       ??_C@_05KNGEOGJB@atan2?$AA@ 10025fe0     libucrt:fpexcept.obj
 0002:00006fe8       ??_C@_03BLEJJJBH@sin?$AA@  10025fe8     libucrt:fpexcept.obj
 0002:00006fec       ??_C@_03LALBNOCG@cos?$AA@  10025fec     libucrt:fpexcept.obj
 0002:00006ff0       ??_C@_03IIINPABG@tan?$AA@  10025ff0     libucrt:fpexcept.obj
 0002:00006ff4       ??_C@_04GFPJNGEK@ceil?$AA@ 10025ff4     libucrt:fpexcept.obj
 0002:00006ffc       ??_C@_05PBJFFIGL@floor?$AA@ 10025ffc     libucrt:fpexcept.obj
 0002:00007004       ??_C@_04ODHECPBC@fabs?$AA@ 10026004     libucrt:fpexcept.obj
 0002:0000700c       ??_C@_04EHEDPDJG@modf?$AA@ 1002600c     libucrt:fpexcept.obj
 0002:00007014       ??_C@_05CEJMAHNP@ldexp?$AA@ 10026014     libucrt:fpexcept.obj
 0002:0000701c       ??_C@_05KBKMEMPO@_cabs?$AA@ 1002601c     libucrt:fpexcept.obj
 0002:00007024       ??_C@_06MEIMCGCF@_hypot?$AA@ 10026024     libucrt:fpexcept.obj
 0002:0000702c       ??_C@_04KEPJIHGP@fmod?$AA@ 1002602c     libucrt:fpexcept.obj
 0002:00007034       ??_C@_05GKKHEGJL@frexp?$AA@ 10026034     libucrt:fpexcept.obj
 0002:0000703c       ??_C@_03MJLDFKDL@_y0?$AA@  1002603c     libucrt:fpexcept.obj
 0002:00007040       ??_C@_03NAKIGLHK@_y1?$AA@  10026040     libucrt:fpexcept.obj
 0002:00007044       ??_C@_03ONILCKOB@_yn?$AA@  10026044     libucrt:fpexcept.obj
 0002:00007048       ??_C@_05JGDBENOH@_logb?$AA@ 10026048     libucrt:fpexcept.obj
 0002:00007050       ??_C@_0L@KDOEJCKC@_nextafter?$AA@ 10026050     libucrt:fpexcept.obj
 0002:00007060       __d_inf                    10026060     libucrt:util.obj
 0002:00007068       __d_max                    10026068     libucrt:util.obj
 0002:00007070       __d_mzero                  10026070     libucrt:util.obj
 0002:00007078       ??_C@_1BA@BALFACEM@?$AAC?$AAO?$AAN?$AAO?$AAU?$AAT?$AA$?$AA?$AA@ 10026078     libucrt:initcon.obj
 0002:000070e8       __load_config_used         100260e8     LIBCMT:loadcfg.obj
 0002:00007188       __tls_used                 10026188     LIBCMT:tlssup.obj
 0002:000071a0       ??_R4exception@std@@6B@    100261a0     LIBCMT:throw_bad_alloc.obj
 0002:000071b4       ??_R3exception@std@@8      100261b4     LIBCMT:throw_bad_alloc.obj
 0002:000071c4       ??_R2exception@std@@8      100261c4     LIBCMT:throw_bad_alloc.obj
 0002:000071cc       ??_R1A@?0A@EA@exception@std@@8 100261cc     LIBCMT:throw_bad_alloc.obj
 0002:000071e8       ??_R4bad_alloc@std@@6B@    100261e8     LIBCMT:throw_bad_alloc.obj
 0002:000071fc       ??_R3bad_alloc@std@@8      100261fc     LIBCMT:throw_bad_alloc.obj
 0002:0000720c       ??_R2bad_alloc@std@@8      1002620c     LIBCMT:throw_bad_alloc.obj
 0002:00007218       ??_R1A@?0A@EA@bad_alloc@std@@8 10026218     LIBCMT:throw_bad_alloc.obj
 0002:00007234       ??_R4bad_array_new_length@std@@6B@ 10026234     LIBCMT:throw_bad_alloc.obj
 0002:00007248       ??_R3bad_array_new_length@std@@8 10026248     LIBCMT:throw_bad_alloc.obj
 0002:00007258       ??_R2bad_array_new_length@std@@8 10026258     LIBCMT:throw_bad_alloc.obj
 0002:00007268       ??_R1A@?0A@EA@bad_array_new_length@std@@8 10026268     LIBCMT:throw_bad_alloc.obj
 0002:00007284       ??_R4type_info@@6B@        10026284     LIBCMT:std_type_info_static.obj
 0002:00007298       ??_R3type_info@@8          10026298     LIBCMT:std_type_info_static.obj
 0002:000072a8       ??_R2type_info@@8          100262a8     LIBCMT:std_type_info_static.obj
 0002:000072b0       ??_R1A@?0A@EA@type_info@@8 100262b0     LIBCMT:std_type_info_static.obj
 0002:000072cc       ??_R4bad_exception@std@@6B@ 100262cc     libvcruntime:frame.obj
 0002:000072e0       ??_R3bad_exception@std@@8  100262e0     libvcruntime:frame.obj
 0002:000072f0       ??_R2bad_exception@std@@8  100262f0     libvcruntime:frame.obj
 0002:000072fc       ??_R1A@?0A@EA@bad_exception@std@@8 100262fc     libvcruntime:frame.obj
 0002:00007320       ___safe_se_handler_table   10026320     <linker-defined>
 0002:00007720       ___rtc_iaa                 10026720     LIBCMT:_initsect_.obj
 0002:00007724       ___rtc_izz                 10026724     LIBCMT:_initsect_.obj
 0002:00007728       ___rtc_taa                 10026728     LIBCMT:_initsect_.obj
 0002:0000772c       ___rtc_tzz                 1002672c     LIBCMT:_initsect_.obj
 0002:00007730       __tls_start                10026730     LIBCMT:tlssup.obj
 0002:00007734       __Init_thread_epoch        10026734     LIBCMT:thread_safe_statics.obj
 0002:00007738       __tls_end                  10026738     LIBCMT:tlssup.obj
 0002:00007854       __TI2?AVbad_alloc@std@@    10026854     LIBCMT:throw_bad_alloc.obj
 0002:00007864       __CTA2?AVbad_alloc@std@@   10026864     LIBCMT:throw_bad_alloc.obj
 0002:00007870       __CT??_R0?AVbad_alloc@std@@@8??0bad_alloc@std@@QAE@ABV01@@Z12 10026870     LIBCMT:throw_bad_alloc.obj
 0002:0000788c       __CT??_R0?AVexception@std@@@8??0exception@std@@QAE@ABV01@@Z12 1002688c     LIBCMT:throw_bad_alloc.obj
 0002:000078a8       __TI3?AVbad_array_new_length@std@@ 100268a8     LIBCMT:throw_bad_alloc.obj
 0002:000078b8       __CTA3?AVbad_array_new_length@std@@ 100268b8     LIBCMT:throw_bad_alloc.obj
 0002:000078c8       __CT??_R0?AVbad_array_new_length@std@@@8??0bad_array_new_length@std@@QAE@ABV01@@Z12 100268c8     LIBCMT:throw_bad_alloc.obj
 0002:000079cc       __TI2?AVbad_exception@std@@ 100269cc     libvcruntime:frame.obj
 0002:000079dc       __CTA2?AVbad_exception@std@@ 100269dc     libvcruntime:frame.obj
 0002:000079e8       __CT??_R0?AVbad_exception@std@@@8??0bad_exception@std@@QAE@ABV01@@Z12 100269e8     libvcruntime:frame.obj
 0002:00007d64       ___pobjMapEntryFirst       10026d64     OposVariant.obj
 0002:00007d68       ___pobjMapEntryLast        10026d68     OposVariant.obj
 0002:00007e1c       __IMPORT_DESCRIPTOR_KERNEL32 10026e1c     kernel32:KERNEL32.dll
 0002:00007e30       __IMPORT_DESCRIPTOR_USER32 10026e30     user32:USER32.dll
 0002:00007e44       __IMPORT_DESCRIPTOR_GDI32  10026e44     gdi32:GDI32.dll
 0002:00007e58       __IMPORT_DESCRIPTOR_ADVAPI32 10026e58     advapi32:ADVAPI32.dll
 0002:00007e6c       __IMPORT_DESCRIPTOR_ole32  10026e6c     ole32:ole32.dll
 0002:00007e80       __IMPORT_DESCRIPTOR_OLEAUT32 10026e80     oleaut32:OLEAUT32.dll
 0002:00007e94       __NULL_IMPORT_DESCRIPTOR   10026e94     kernel32:KERNEL32.dll
 0003:00000000       ?_tih@?$IProvideClassInfo2Impl@$1?CLSID_OPOSBiometrics@@3U_GUID@@B$1?DIID__IOPOSBiometricsEvents@@3U2@B$1?LIBID_OposBiometrics_CCO@@3U2@B$00$0A@VCComTypeInfoHolder@ATL@@@ATL@@1VCComTypeInfoHolder@2@A 10028000     Biometrics.obj
 0003:0000001c       ?vszContents@?6??Save@?$IPersistStorageImpl@VCOPOSBiometrics@@@ATL@@UAGJPAUIStorage@@H@Z@4PB_WB 1002801c     Biometrics.obj
 0003:00000020       ?wc@?1??GetWndClassInfo@?$CWindowImpl@VCOPOSBiometrics@@VCWindow@ATL@@V?$CWinTraits@$0FGAAAAAA@$0A@@3@@ATL@@SAAAU_ATL_WNDCLASSINFOW@3@XZ@4U43@A 10028020     Biometrics.obj
 0003:000000ac       ?s_Claim@?7??GetIDsOfNames@CComTypeInfoHolder@ATL@@QAEJABU_GUID@@PAPA_WIKPAJ@Z@4PA_WA 100280ac     Biometrics.obj
 0003:000000c4       ?s_Release@?7??GetIDsOfNames@CComTypeInfoHolder@ATL@@QAEJABU_GUID@@PAPA_WIKPAJ@Z@4PA_WA 100280c4     Biometrics.obj
 0003:000000e0       ?rcDefault@CWindow@ATL@@2UtagRECT@@A 100280e0     Biometrics.obj
 0003:000000f0       ?_tih@?$IDispatchImpl@UIOPOSBiometrics@@$1?IID_IOPOSBiometrics@@3U_GUID@@B$1?LIBID_OposBiometrics_CCO@@3U3@B$00$0A@VCComTypeInfoHolder@ATL@@@ATL@@1VCComTypeInfoHolder@2@A 100280f0     Biometrics.obj
 0003:00000158       ?g_ControlVersion@@3JA     10028158     BiometricsImpl.obj
 0003:0000015c       ?g_WindowName@@3PA_WA      1002815c     BiometricsImpl.obj
 0003:00000180       ?g_ControlDescription@@3PADA 10028180     BiometricsImpl.obj
 0003:00000228       ___scrt_native_dllmain_reason 10028228     LIBCMT:utility.obj
 0003:0000022c       __Init_global_epoch        1002822c     LIBCMT:thread_safe_statics.obj
 0003:00000230       ___security_cookie_complement 10028230     LIBCMT:gs_cookie.obj
 0003:00000234       ___security_cookie         10028234     LIBCMT:gs_cookie.obj
 0003:00000238       ___isa_enabled             10028238     LIBCMT:_cpu_disp_.obj
 0003:00000250       __NLG_Destination          10028250     libvcruntime:_exsup_.obj
 0003:00000268       ___abort_behavior          10028268     libucrt:abort.obj
 0003:00000278       __iob                      10028278     libucrt:_file.obj
 0003:00000320       ___acrt_initial_locale_data 10028320     libucrt:nlsdata.obj
 0003:000003d8       ___acrt_initial_locale_pointers 100283d8     libucrt:nlsdata.obj
 0003:000003e0       ___acrt_wide_c_locale_string 100283e0     libucrt:nlsdata.obj
 0003:000006e8       ___acrt_initial_multibyte_data 100286e8     libucrt:mbctype.obj
 0003:00000908       __pwctype                  10028908     libucrt:ctype.obj
 0003:0000090c       ___globallocalestatus      1002890c     libucrt:glstatus.obj
 0003:00000910       ___acrt_lconv_static_decimal 10028910     libucrt:localeconv.obj
 0003:00000914       ___acrt_lconv_static_W_decimal 10028914     libucrt:localeconv.obj
 0003:00000918       ___acrt_lconv_c            10028918     libucrt:localeconv.obj
 0003:00000970       ___dcrt_lowio_console_output_handle 10028970     libucrt:initcon.obj
 0003:00000980       __fltused                  10028980     LIBCMT:fltused.obj
 0003:00000990       ??_R0?AVbad_alloc@std@@@8  10028990     LIBCMT:throw_bad_alloc.obj
 0003:000009ac       ??_R0?AVexception@std@@@8  100289ac     LIBCMT:throw_bad_alloc.obj
 0003:000009c8       ??_R0?AVbad_array_new_length@std@@@8 100289c8     LIBCMT:throw_bad_alloc.obj
 0003:000009f0       ??_R0?AVtype_info@@@8      100289f0     LIBCMT:std_type_info_static.obj
 0003:00000a08       ??_R0?AVbad_exception@std@@@8 10028a08     libvcruntime:frame.obj
 0003:00000a28       ?m_bInitFailed@CAtlBaseModule@ATL@@2_NA 10028a28     OposVariant.obj
 0003:00000a2c       ?_pPerfRegFunc@ATL@@3P6AJPAUHINSTANCE__@@@ZA 10028a2c     OposVariant.obj
 0003:00000a30       ?_pPerfUnRegFunc@ATL@@3P6AJXZA 10028a30     OposVariant.obj
 0003:00000a34       ?_AtlRegisterPerUser@ATL@@3_NA 10028a34     OposVariant.obj
 0003:00000a38       ?_pAtlModule@ATL@@3PAVCAtlModule@1@A 10028a38     OposVariant.obj
 0003:00000a3c       ?_pModule@ATL@@3PAVCComModule@1@A 10028a3c     OposVariant.obj
 0003:00000a40       ?_AtlComModule@ATL@@3VCAtlComModule@1@A 10028a40     OposVariant.obj
 0003:00000a68       ?_AtlWinModule@ATL@@3VCAtlWinModule@1@A 10028a68     OposVariant.obj
 0003:00000a94       ?_entries@?1??GetConnMap@COPOSBiometrics@@SAPBU_ATL_CONNMAP_ENTRY@ATL@@PAH@Z@4QBU34@B 10028a94     Biometrics.obj
 0003:00000aa0       ?$TSS0@?1??GetConnMap@COPOSBiometrics@@SAPBU_ATL_CONNMAP_ENTRY@ATL@@PAH@Z@4HA 10028aa0     Biometrics.obj
 0003:00000aa8       ?_OptionsStorage@?1??__local_stdio_printf_options@@9@4_KA 10028aa8     Biometrics.obj
 0003:00000ab0       ?m_libid@CAtlModule@ATL@@2U_GUID@@A 10028ab0     Biometrics.obj
 0003:00000ac0       ?_Module@@3VCComModule@ATL@@A 10028ac0     Biometrics.obj
 0003:00000af0       ?pConnMap@?$IConnectionPointContainerImpl@VCOPOSBiometrics@@@ATL@@0PBU_ATL_CONNMAP_ENTRY@2@B 10028af0     Biometrics.obj
 0003:00000af4       ?s_nInstances@COPOSBiometrics@@1HA 10028af4     BiometricsImpl.obj
 0003:00000af8       ___scrt_current_native_startup_state 10028af8     LIBCMT:utility.obj
 0003:00000afc       ___scrt_native_startup_lock 10028afc     LIBCMT:utility.obj
 0003:00000e64       __tls_index                10028e64     LIBCMT:tlssup.obj
 0003:00000e6c       ___isa_available           10028e6c     LIBCMT:_cpu_disp_.obj
 0003:00000e70       ___favor                   10028e70     LIBCMT:_cpu_disp_.obj
 0003:00000e74       ___scrt_debugger_hook_flag 10028e74     LIBCMT:utility_desktop.obj
 0003:00000e78       ?__type_info_root_node@@3U__type_info_node@@A 10028e78     LIBCMT:tncleanup.obj
 0003:00000e80       ?_OptionsStorage@?1??__local_stdio_scanf_options@@9@4_KA 10028e80     LIBCMT:default_local_stdio_options.obj
 0003:00000e88       ?_AtlBaseModule@ATL@@3VCAtlBaseModule@1@A 10028e88     atls:atlbase.obj
 0003:00000ec0       ?__AtlThunkPool@@3PAT_SLIST_HEADER@@A 10028ec0     atls:atlthunk.obj
 0003:00000ed8       ___@@_PchSym_@00@UyrmzirvhUrmgvinvwrzgvUexgllohUzgohOmzgrevkilqPBACIAJCBDBUlyqiUcIGUhgwzucOlyq@4B2008FD98C1DD4 10028ed8     atls:stdafx.obj
 0003:00000edc       ___pPurecall               10028edc     libvcruntime:purevirt_data.obj
 0003:00000f44       ?pArgList@UnDecorator@@0PAVReplicator@@A 10028f44     libvcruntime:undname.obj
 0003:00000f48       ?pZNameList@UnDecorator@@0PAVReplicator@@A 10028f48     libvcruntime:undname.obj
 0003:00000f4c       ?pTemplateArgList@UnDecorator@@0PAVReplicator@@A 10028f4c     libvcruntime:undname.obj
 0003:00000f50       ?gName@UnDecorator@@0PBDB  10028f50     libvcruntime:undname.obj
 0003:00000f54       ?name@UnDecorator@@0PBDB   10028f54     libvcruntime:undname.obj
 0003:00000f58       ?disableFlags@UnDecorator@@0KA 10028f58     libvcruntime:undname.obj
 0003:00000f5c       ?fExplicitTemplateParams@UnDecorator@@0_NA 10028f5c     libvcruntime:undname.obj
 0003:00000f5d       ?fGetTemplateArgumentList@UnDecorator@@0_NA 10028f5d     libvcruntime:undname.obj
 0003:00000f60       ?m_pGetParameter@UnDecorator@@0P6APADJ@ZA 10028f60     libvcruntime:undname.obj
 0003:00000f64       ?m_CHPENameOffset@UnDecorator@@0KA 10028f64     libvcruntime:undname.obj
 0003:00000f68       ?m_recursionLevel@UnDecorator@@0KA 10028f68     libvcruntime:undname.obj
 0003:00000f80       ?__WinRTOutOfMemoryExceptionCallback@@3P6GPAXXZA 10028f80     libvcruntime:ehhelpers.obj
 0003:00000f90       ?c_exit_complete@?1???R<lambda_6e4b09c48022b2350581041d5f6b0c4c>@@QBE@XZ@4_NA 10028f90     libucrt:exit.obj
 0003:000010a0       __environ_table            100290a0     libucrt:environment_initialization.obj
 0003:000010a4       __wenviron_table           100290a4     libucrt:environment_initialization.obj
 0003:000010a8       ___dcrt_initial_wide_environment 100290a8     libucrt:environment_initialization.obj
 0003:000010ac       ___dcrt_initial_narrow_environment 100290ac     libucrt:environment_initialization.obj
 0003:000010b0       ___acrt_atexit_table       100290b0     libucrt:onexit.obj
 0003:000010bc       ___acrt_at_quick_exit_table 100290bc     libucrt:onexit.obj
 0003:000011a8       __nstream                  100291a8     libucrt:_file.obj
 0003:000011ac       ___piob                    100291ac     libucrt:_file.obj
 0003:000011b4       ___acrt_stdout_buffer      100291b4     libucrt:_sftbuf.obj
 0003:000011b8       ___acrt_stderr_buffer      100291b8     libucrt:_sftbuf.obj
 0003:000011bc       ___acrt_locale_changed_data 100291bc     libucrt:wsetlocale.obj
 0003:000011c0       ___acrt_current_locale_data 100291c0     libucrt:nlsdata.obj
 0003:000011c8       ___pioinfo                 100291c8     libucrt:ioinit.obj
 0003:000013c8       __nhandle                  100293c8     libucrt:ioinit.obj
 0003:00001524       __mbctype                  10029524     libucrt:mbctype.obj
 0003:00001528       __mbcasemap                10029528     libucrt:mbctype.obj
 0003:0000152c       ___acrt_current_multibyte_data 1002952c     libucrt:mbctype.obj
 0003:00001538       ___argc                    10029538     libucrt:argv_data.obj
 0003:0000153c       ___argv                    1002953c     libucrt:argv_data.obj
 0003:00001540       ___wargv                   10029540     libucrt:argv_data.obj
 0003:00001544       __acmdln                   10029544     libucrt:argv_data.obj
 0003:00001548       __wcmdln                   10029548     libucrt:argv_data.obj
 0003:0000154c       __pgmptr                   1002954c     libucrt:argv_data.obj
 0003:00001550       ___acrt_heap               10029550     libucrt:heap_handle.obj
 0003:0000156c       ___acrt_lconv_static_null  1002956c     libucrt:localeconv.obj
 0003:00001570       ___acrt_lconv_static_W_null 10029570     libucrt:localeconv.obj
 0003:00001578       ___fastflag                10029578     libucrt:fp_flags.obj
 0003:00001580       ___dyn_tls_init_callback   10029580     <common>
 0003:00001584       ___scrt_ucrt_dll_is_in_use 10029584     <common>
 0003:00001588       __pmatherr                 10029588     <common>
 0003:0000158c       ___use_sse2_mathfcns       1002958c     <common>

 entry point at        0001:0000c38d

 Static symbols

 0000:fffcf000       .debug$S                   10000000     kernel32:KERNEL32.dll
 0000:fffcf000       .debug$S                   10000000     kernel32:KERNEL32.dll
 0000:fffcf000       .debug$S                   10000000     kernel32:KERNEL32.dll
 0000:fffcf000       .debug$S                   10000000     kernel32:KERNEL32.dll
 0000:fffcf000       .debug$S                   10000000     kernel32:KERNEL32.dll
 0000:fffcf000       .debug$S                   10000000     kernel32:KERNEL32.dll
 0000:fffcf000       .debug$S                   10000000     kernel32:KERNEL32.dll
 0000:fffcf000       .debug$S                   10000000     kernel32:KERNEL32.dll
 0000:fffcf000       .debug$S                   10000000     kernel32:KERNEL32.dll
 0000:fffcf000       .debug$S                   10000000     kernel32:KERNEL32.dll
 0000:fffcf000       .debug$S                   10000000     kernel32:KERNEL32.dll
 0000:fffcf000       .debug$S                   10000000     kernel32:KERNEL32.dll
 0000:fffcf000       .debug$S                   10000000     kernel32:KERNEL32.dll
 0000:fffcf000       .debug$S                   10000000     kernel32:KERNEL32.dll
 0000:fffcf000       .debug$S                   10000000     kernel32:KERNEL32.dll
 0000:fffcf000       .debug$S                   10000000     OPOSBiometrics.exp
 0000:fffcf000       .debug$S                   10000000     kernel32:KERNEL32.dll
 0000:fffcf000       .debug$S                   10000000     kernel32:KERNEL32.dll
 0000:fffcf000       .debug$S                   10000000     kernel32:KERNEL32.dll
 0000:fffcf000       .debug$S                   10000000     kernel32:KERNEL32.dll
 0000:fffcf000       .debug$S                   10000000     kernel32:KERNEL32.dll
 0000:fffcf000       .debug$S                   10000000     kernel32:KERNEL32.dll
 0000:fffcf000       .debug$S                   10000000     kernel32:KERNEL32.dll
 0000:fffcf000       .debug$S                   10000000     kernel32:KERNEL32.dll
 0000:fffcf000       .debug$S                   10000000     kernel32:KERNEL32.dll
 0000:fffcf000       .debug$S                   10000000     kernel32:KERNEL32.dll
 0000:fffcf000       .debug$S                   10000000     kernel32:KERNEL32.dll
 0000:fffcf000       .debug$S                   10000000     kernel32:KERNEL32.dll
 0000:fffcf000       .debug$S                   10000000     kernel32:KERNEL32.dll
 0000:fffcf000       .debug$S                   10000000     kernel32:KERNEL32.dll
 0000:fffcf000       .debug$S                   10000000     kernel32:KERNEL32.dll
 0000:fffcf000       .debug$S                   10000000     kernel32:KERNEL32.dll
 0000:fffcf000       .debug$S                   10000000     kernel32:KERNEL32.dll
 0000:fffcf000       .debug$S                   10000000     kernel32:KERNEL32.dll
 0000:fffcf000       .debug$S                   10000000     kernel32:KERNEL32.dll
 0000:fffcf000       .debug$S                   10000000     kernel32:KERNEL32.dll
 0000:fffcf000       .debug$S                   10000000     kernel32:KERNEL32.dll
 0000:fffcf000       .debug$S                   10000000     kernel32:KERNEL32.dll
 0000:fffcf000       .debug$S                   10000000     kernel32:KERNEL32.dll
 0000:fffcf000       .debug$S                   10000000     kernel32:KERNEL32.dll
 0000:fffcf000       .debug$S                   10000000     kernel32:KERNEL32.dll
 0000:fffcf000       .debug$S                   10000000     kernel32:KERNEL32.dll
 0000:fffcf000       .debug$S                   10000000     kernel32:KERNEL32.dll
 0000:fffcf000       .debug$S                   10000000     kernel32:KERNEL32.dll
 0000:fffcf000       .debug$S                   10000000     kernel32:KERNEL32.dll
 0000:fffcf000       .debug$S                   10000000     kernel32:KERNEL32.dll
 0000:fffcf000       .debug$S                   10000000     kernel32:KERNEL32.dll
 0000:fffcf000       .debug$S                   10000000     kernel32:KERNEL32.dll
 0000:fffcf000       .debug$S                   10000000     kernel32:KERNEL32.dll
 0000:fffcf000       .debug$S                   10000000     kernel32:KERNEL32.dll
 0000:fffcf000       .debug$S                   10000000     kernel32:KERNEL32.dll
 0000:fffcf000       .debug$S                   10000000     kernel32:KERNEL32.dll
 0000:fffcf000       .debug$S                   10000000     kernel32:KERNEL32.dll
 0000:fffcf000       .debug$S                   10000000     kernel32:KERNEL32.dll
 0000:fffcf000       .debug$S                   10000000     kernel32:KERNEL32.dll
 0000:fffcf000       .debug$S                   10000000     kernel32:KERNEL32.dll
 0000:fffcf000       .debug$S                   10000000     kernel32:KERNEL32.dll
 0000:fffcf000       .debug$S                   10000000     kernel32:KERNEL32.dll
 0000:fffcf000       .debug$S                   10000000     kernel32:KERNEL32.dll
 0000:fffcf000       .debug$S                   10000000     kernel32:KERNEL32.dll
 0000:fffcf000       .debug$S                   10000000     kernel32:KERNEL32.dll
 0000:fffcf000       .debug$S                   10000000     kernel32:KERNEL32.dll
 0000:fffcf000       .debug$S                   10000000     kernel32:KERNEL32.dll
 0000:fffcf000       .debug$S                   10000000     kernel32:KERNEL32.dll
 0000:fffcf000       .debug$S                   10000000     kernel32:KERNEL32.dll
 0000:fffcf000       .debug$S                   10000000     kernel32:KERNEL32.dll
 0000:fffcf000       .debug$S                   10000000     kernel32:KERNEL32.dll
 0000:fffcf000       .debug$S                   10000000     kernel32:KERNEL32.dll
 0000:fffcf000       .debug$S                   10000000     kernel32:KERNEL32.dll
 0000:fffcf000       .debug$S                   10000000     kernel32:KERNEL32.dll
 0000:fffcf000       .debug$S                   10000000     kernel32:KERNEL32.dll
 0000:fffcf000       .debug$S                   10000000     kernel32:KERNEL32.dll
 0000:fffcf000       .debug$S                   10000000     kernel32:KERNEL32.dll
 0000:fffcf000       .debug$S                   10000000     kernel32:KERNEL32.dll
 0000:fffcf000       .debug$S                   10000000     kernel32:KERNEL32.dll
 0000:fffcf000       .debug$S                   10000000     kernel32:KERNEL32.dll
 0000:fffcf000       .debug$S                   10000000     kernel32:KERNEL32.dll
 0000:fffcf000       .debug$S                   10000000     kernel32:KERNEL32.dll
 0000:fffcf000       .debug$S                   10000000     kernel32:KERNEL32.dll
 0000:fffcf000       .debug$S                   10000000     kernel32:KERNEL32.dll
 0000:fffcf000       .debug$S                   10000000     kernel32:KERNEL32.dll
 0000:fffcf000       .debug$S                   10000000     kernel32:KERNEL32.dll
 0000:fffcf000       .debug$S                   10000000     kernel32:KERNEL32.dll
 0000:fffcf000       .debug$S                   10000000     kernel32:KERNEL32.dll
 0000:fffcf000       .debug$S                   10000000     kernel32:KERNEL32.dll
 0000:fffcf000       .debug$S                   10000000     kernel32:KERNEL32.dll
 0000:fffcf000       .debug$S                   10000000     kernel32:KERNEL32.dll
 0000:fffcf000       .debug$S                   10000000     kernel32:KERNEL32.dll
 0000:fffcf000       .debug$S                   10000000     kernel32:KERNEL32.dll
 0000:fffcf000       .debug$S                   10000000     kernel32:KERNEL32.dll
 0000:fffcf000       .debug$S                   10000000     kernel32:KERNEL32.dll
 0000:fffcf000       .debug$S                   10000000     kernel32:KERNEL32.dll
 0000:fffcf000       .debug$S                   10000000     kernel32:KERNEL32.dll
 0000:fffcf000       .debug$S                   10000000     kernel32:KERNEL32.dll
 0000:fffcf000       .debug$S                   10000000     kernel32:KERNEL32.dll
 0000:fffcf000       .debug$S                   10000000     kernel32:KERNEL32.dll
 0000:fffcf000       .debug$S                   10000000     kernel32:KERNEL32.dll
 0000:fffcf000       .debug$S                   10000000     kernel32:KERNEL32.dll
 0000:fffcf000       .debug$S                   10000000     kernel32:KERNEL32.dll
 0000:fffcf000       .debug$S                   10000000     kernel32:KERNEL32.dll
 0000:fffcf000       .debug$S                   10000000     kernel32:KERNEL32.dll
 0000:fffcf000       .debug$S                   10000000     kernel32:KERNEL32.dll
 0000:fffcf000       .debug$S                   10000000     kernel32:KERNEL32.dll
 0000:fffcf000       .debug$S                   10000000     kernel32:KERNEL32.dll
 0000:fffcf000       .debug$S                   10000000     kernel32:KERNEL32.dll
 0000:fffcf000       .debug$S                   10000000     kernel32:KERNEL32.dll
 0000:fffcf000       .debug$S                   10000000     kernel32:KERNEL32.dll
 0000:fffcf000       .debug$S                   10000000     kernel32:KERNEL32.dll
 0000:fffcf000       .debug$S                   10000000     user32:USER32.dll
 0000:fffcf000       .debug$S                   10000000     user32:USER32.dll
 0000:fffcf000       .debug$S                   10000000     user32:USER32.dll
 0000:fffcf000       .debug$S                   10000000     user32:USER32.dll
 0000:fffcf000       .debug$S                   10000000     user32:USER32.dll
 0000:fffcf000       .debug$S                   10000000     user32:USER32.dll
 0000:fffcf000       .debug$S                   10000000     user32:USER32.dll
 0000:fffcf000       .debug$S                   10000000     user32:USER32.dll
 0000:fffcf000       .debug$S                   10000000     user32:USER32.dll
 0000:fffcf000       .debug$S                   10000000     user32:USER32.dll
 0000:fffcf000       .debug$S                   10000000     user32:USER32.dll
 0000:fffcf000       .debug$S                   10000000     user32:USER32.dll
 0000:fffcf000       .debug$S                   10000000     user32:USER32.dll
 0000:fffcf000       .debug$S                   10000000     user32:USER32.dll
 0000:fffcf000       .debug$S                   10000000     user32:USER32.dll
 0000:fffcf000       .debug$S                   10000000     user32:USER32.dll
 0000:fffcf000       .debug$S                   10000000     user32:USER32.dll
 0000:fffcf000       .debug$S                   10000000     user32:USER32.dll
 0000:fffcf000       .debug$S                   10000000     user32:USER32.dll
 0000:fffcf000       .debug$S                   10000000     user32:USER32.dll
 0000:fffcf000       .debug$S                   10000000     user32:USER32.dll
 0000:fffcf000       .debug$S                   10000000     user32:USER32.dll
 0000:fffcf000       .debug$S                   10000000     user32:USER32.dll
 0000:fffcf000       .debug$S                   10000000     user32:USER32.dll
 0000:fffcf000       .debug$S                   10000000     user32:USER32.dll
 0000:fffcf000       .debug$S                   10000000     user32:USER32.dll
 0000:fffcf000       .debug$S                   10000000     user32:USER32.dll
 0000:fffcf000       .debug$S                   10000000     user32:USER32.dll
 0000:fffcf000       .debug$S                   10000000     user32:USER32.dll
 0000:fffcf000       .debug$S                   10000000     user32:USER32.dll
 0000:fffcf000       .debug$S                   10000000     user32:USER32.dll
 0000:fffcf000       .debug$S                   10000000     user32:USER32.dll
 0000:fffcf000       .debug$S                   10000000     user32:USER32.dll
 0000:fffcf000       .debug$S                   10000000     user32:USER32.dll
 0000:fffcf000       .debug$S                   10000000     user32:USER32.dll
 0000:fffcf000       .debug$S                   10000000     gdi32:GDI32.dll
 0000:fffcf000       .debug$S                   10000000     gdi32:GDI32.dll
 0000:fffcf000       .debug$S                   10000000     gdi32:GDI32.dll
 0000:fffcf000       .debug$S                   10000000     gdi32:GDI32.dll
 0000:fffcf000       .debug$S                   10000000     gdi32:GDI32.dll
 0000:fffcf000       .debug$S                   10000000     gdi32:GDI32.dll
 0000:fffcf000       .debug$S                   10000000     gdi32:GDI32.dll
 0000:fffcf000       .debug$S                   10000000     gdi32:GDI32.dll
 0000:fffcf000       .debug$S                   10000000     gdi32:GDI32.dll
 0000:fffcf000       .debug$S                   10000000     gdi32:GDI32.dll
 0000:fffcf000       .debug$S                   10000000     gdi32:GDI32.dll
 0000:fffcf000       .debug$S                   10000000     gdi32:GDI32.dll
 0000:fffcf000       .debug$S                   10000000     gdi32:GDI32.dll
 0000:fffcf000       .debug$S                   10000000     gdi32:GDI32.dll
 0000:fffcf000       .debug$S                   10000000     gdi32:GDI32.dll
 0000:fffcf000       .debug$S                   10000000     gdi32:GDI32.dll
 0000:fffcf000       .debug$S                   10000000     gdi32:GDI32.dll
 0000:fffcf000       .debug$S                   10000000     gdi32:GDI32.dll
 0000:fffcf000       .debug$S                   10000000     gdi32:GDI32.dll
 0000:fffcf000       .debug$S                   10000000     advapi32:ADVAPI32.dll
 0000:fffcf000       .debug$S                   10000000     advapi32:ADVAPI32.dll
 0000:fffcf000       .debug$S                   10000000     advapi32:ADVAPI32.dll
 0000:fffcf000       .debug$S                   10000000     advapi32:ADVAPI32.dll
 0000:fffcf000       .debug$S                   10000000     advapi32:ADVAPI32.dll
 0000:fffcf000       .debug$S                   10000000     advapi32:ADVAPI32.dll
 0000:fffcf000       .debug$S                   10000000     advapi32:ADVAPI32.dll
 0000:fffcf000       .debug$S                   10000000     advapi32:ADVAPI32.dll
 0000:fffcf000       .debug$S                   10000000     advapi32:ADVAPI32.dll
 0000:fffcf000       .debug$S                   10000000     ole32:ole32.dll
 0000:fffcf000       .debug$S                   10000000     ole32:ole32.dll
 0000:fffcf000       .debug$S                   10000000     ole32:ole32.dll
 0000:fffcf000       .debug$S                   10000000     ole32:ole32.dll
 0000:fffcf000       .debug$S                   10000000     ole32:ole32.dll
 0000:fffcf000       .debug$S                   10000000     ole32:ole32.dll
 0000:fffcf000       .debug$S                   10000000     ole32:ole32.dll
 0000:fffcf000       .debug$S                   10000000     ole32:ole32.dll
 0000:fffcf000       .debug$S                   10000000     ole32:ole32.dll
 0000:fffcf000       .debug$S                   10000000     ole32:ole32.dll
 0000:fffcf000       .debug$S                   10000000     ole32:ole32.dll
 0000:fffcf000       .debug$S                   10000000     ole32:ole32.dll
 0000:fffcf000       .debug$S                   10000000     ole32:ole32.dll
 0000:fffcf000       .debug$S                   10000000     ole32:ole32.dll
 0000:fffcf000       .debug$S                   10000000     oleaut32:OLEAUT32.dll
 0000:fffcf000       .debug$S                   10000000     oleaut32:OLEAUT32.dll
 0000:fffcf000       .debug$S                   10000000     oleaut32:OLEAUT32.dll
 0000:fffcf000       .debug$S                   10000000     oleaut32:OLEAUT32.dll
 0000:fffcf000       .debug$S                   10000000     oleaut32:OLEAUT32.dll
 0000:fffcf000       .debug$S                   10000000     oleaut32:OLEAUT32.dll
 0000:fffcf000       .debug$S                   10000000     oleaut32:OLEAUT32.dll
 0000:fffcf000       .debug$S                   10000000     oleaut32:OLEAUT32.dll
 0000:fffcf000       .debug$S                   10000000     oleaut32:OLEAUT32.dll
 0000:fffcf000       .debug$S                   10000000     oleaut32:OLEAUT32.dll
 0000:fffcf000       .debug$S                   10000000     oleaut32:OLEAUT32.dll
 0000:fffcf000       .debug$S                   10000000     oleaut32:OLEAUT32.dll
 0000:fffcf000       .debug$S                   10000000     oleaut32:OLEAUT32.dll
 0000:fffcf000       .debug$S                   10000000     oleaut32:OLEAUT32.dll
 0000:fffcf000       .debug$S                   10000000     oleaut32:OLEAUT32.dll
 0000:fffcf000       .debug$S                   10000000     oleaut32:OLEAUT32.dll
 0001:00000000       ??__E_AtlComModule@ATL@@YAXXZ 10001000 f   OposVariant.obj
 0001:00000016       ??__E_AtlWinModule@ATL@@YAXXZ 10001016 f   OposVariant.obj
 0001:0000002c       ??__E?pConnMap@?$IConnectionPointContainerImpl@VCOPOSBiometrics@@@ATL@@0PBU_ATL_CONNMAP_ENTRY@2@B@@YAXXZ 1000102c f   Biometrics.obj
 0001:0000003a       ??__E_Module@@YAXXZ        1000103a f   Biometrics.obj
 0001:00000064       ??__E_AtlBaseModule@ATL@@YAXXZ 10001064 f   atls:atlbase.obj
 0001:0000288e       $LN37                      1000388e     Biometrics.obj
 0001:00005d7f       $LN53                      10006d7f     Biometrics.obj
 0001:00005d97       $LN49                      10006d97     Biometrics.obj
 0001:00007bcf       $LN45                      10008bcf     Biometrics.obj
 0001:00007be7       $LN36                      10008be7     Biometrics.obj
 0001:0000919a       $LN87                      1000a19a     Biometrics.obj
 0001:000091b2       $LN81                      1000a1b2     Biometrics.obj
 0001:00009490       _memcpy_s                  1000a490 f   Biometrics.obj
 0001:0000b78b       ?find_pe_section@@YAPAU_IMAGE_SECTION_HEADER@@QAEI@Z 1000c78b f   LIBCMT:utility.obj
 0001:0000bad6       ?__scrt_initialize_thread_safe_statics@@YAHXZ 1000cad6 f   LIBCMT:thread_safe_statics.obj
 0001:0000bafd       ?__scrt_initialize_thread_safe_statics_platform_specific@@YAXXZ 1000cafd f   LIBCMT:thread_safe_statics.obj
 0001:0000bbec       ?__scrt_uninitialize_thread_safe_statics@@YAXXZ 1000cbec f   LIBCMT:thread_safe_statics.obj
 0001:0000bf79       __catch$??2@YAPAXIABUnothrow_t@std@@@Z$0 1000cf79 f   LIBCMT:new_scalar_nothrow.obj
 0001:0000bfb0       $$000000                   1000cfb0     LIBCMT:_sehprolg4gs_.obj
 0001:0000c010       $$000000                   1000d010     LIBCMT:alloca16.obj
 0001:0000c040       $$000000                   1000d040     LIBCMT:chkstk.obj
 0001:0000c06d       ?dllmain_crt_dispatch@@YGHQAUHINSTANCE__@@KQAX@Z 1000d06d f   LIBCMT:dll_dllmain.obj
 0001:0000c0c0       ?dllmain_crt_process_attach@@YAHQAUHINSTANCE__@@QAX@Z 1000d0c0 f   LIBCMT:dll_dllmain.obj
 0001:0000c1ca       ?dllmain_crt_process_detach@@YAH_N@Z 1000d1ca f   LIBCMT:dll_dllmain.obj
 0001:0000c25c       ?dllmain_dispatch@@YAHQAUHINSTANCE__@@KQAX@Z 1000d25c f   LIBCMT:dll_dllmain.obj
 0001:0000c362       ?dllmain_raw@@YGHQAUHINSTANCE__@@KQAX@Z 1000d362 f   LIBCMT:dll_dllmain.obj
 0001:0000c6b0       $$000000                   1000d6b0     LIBCMT:_sehprolg4_.obj
 0001:0000c70c       ___get_entropy             1000d70c f   LIBCMT:gs_support.obj
 0001:0000ca03       ??$GetProcAddressAll@P6GXPAUAtlThunkData_t@@@Z@@YAP6GXPAUAtlThunkData_t@@@ZPAP6GX0@Z@Z 1000da03 f   atls:atlthunk.obj
 0001:0000ca03       ??$GetProcAddressAll@P6GP6GJPAUHWND__@@IIJ@ZPAUAtlThunkData_t@@@Z@@YAP6GP6GJPAUHWND__@@IIJ@ZPAUAtlThunkData_t@@@ZPAP6GP6GJ0IIJ@Z1@Z@Z 1000da03 f   atls:atlthunk.obj
 0001:0000ca03       ??$GetProcAddressAll@P6GXPAUAtlThunkData_t@@PAXI@Z@@YAP6GXPAUAtlThunkData_t@@PAXI@ZPAP6GX01I@Z@Z 1000da03 f   atls:atlthunk.obj
 0001:0000ca03       ??$GetProcAddressAll@P6GPAUAtlThunkData_t@@XZ@@YAP6GPAUAtlThunkData_t@@XZPAP6GPAU0@XZ@Z 1000da03 f   atls:atlthunk.obj
 0001:0000cab3       ?GetProcAddressSingle@@YA_NPAUHINSTANCE__@@PBDPAPAX@Z 1000dab3 f   atls:atlthunk.obj
 0001:0000cc05       ?__InitializeThunkPool@@YAHXZ 1000dc05 f   atls:atlthunk.obj
 0001:0000d070       _ValidateLocalCookies      1000e070 f   libvcruntime:_chandler4_.obj
 0001:0000e12b       $LN1285                    1000f12b     libvcruntime:_memcmp_.obj
 0001:0000e1b0       $$000000                   1000f1b0     libvcruntime:memcpy.obj
 0001:0000e414       TrailingUpVec              1000f414     libvcruntime:memcpy.obj
 0001:0000e4c0       TrailingDownVec            1000f4c0     libvcruntime:memcpy.obj
 0001:0000e730       $$000000                   1000f730     libvcruntime:memset.obj
 0001:0000edf0       $$000000                   1000fdf0     libvcruntime:memmove.obj
 0001:0000f054       TrailingUpVec              10010054     libvcruntime:memmove.obj
 0001:0000f100       TrailingDownVec            10010100     libvcruntime:memmove.obj
 0001:0000f370       $$000000                   10010370     libvcruntime:_exsup4_.obj
 0001:0000f400       __unwind_handler4          10010400 f   libvcruntime:_exsup4_.obj
 0001:0000f6df       ?try_get_first_available_module@@YAPAUHINSTANCE__@@QBW4module_id@?A0x03f7da57@@0@Z 100106df f   libvcruntime:winapi_downlevel.obj
 0001:0000f7a3       ?try_get_function@@YAPAXW4function_id@?A0x03f7da57@@QBDQBW4module_id@2@2@Z 100107a3 f   libvcruntime:winapi_downlevel.obj
 0001:0000f9a3       ??$BuildCatchObjectHelperInternal@$$CBU_s_HandlerType@@@@YAHPAUEHExceptionRecord@@PAXPBU_s_HandlerType@@PBU_s_CatchableType@@@Z 100109a3 f   libvcruntime:frame.obj
 0001:0000fae2       ??$BuildCatchObjectInternal@$$CBU_s_HandlerType@@@@YAXPAUEHExceptionRecord@@PAXPBU_s_HandlerType@@PBU_s_CatchableType@@@Z 10010ae2 f   libvcruntime:frame.obj
 0001:0000fb7b       ??$CatchIt@V__FrameHandler3@@@@YAXPAUEHExceptionRecord@@PAUEHRegistrationNode@@PAU_CONTEXT@@PAXPBU_s_FuncInfo@@PBU_s_HandlerType@@PBU_s_CatchableType@@PBU_s_TryBlockMapEntry@@H1E@Z 10010b7b f   libvcruntime:frame.obj
 0001:0000fbfb       ??$FindHandler@V__FrameHandler3@@@@YAXPAUEHExceptionRecord@@PAUEHRegistrationNode@@PAU_CONTEXT@@PAXPBU_s_FuncInfo@@EH1@Z 10010bfb f   libvcruntime:frame.obj
 0001:0000ff89       ??$FindHandlerForForeignException@V__FrameHandler3@@@@YAXPAUEHExceptionRecord@@PAUEHRegistrationNode@@PAU_CONTEXT@@PAXPBU_s_FuncInfo@@HH1@Z 10010f89 f   libvcruntime:frame.obj
 0001:0001027c       ?CallCatchBlock@@YAPAXPAUEHExceptionRecord@@PAUEHRegistrationNode@@PAU_CONTEXT@@PBU_s_FuncInfo@@PAXHK@Z 1001127c f   libvcruntime:frame.obj
 0001:00010440       ?CallUnexpected@@YAXPBU_s_ESTypeList@@@Z 10011440 f   libvcruntime:frame.obj
 0001:00010460       __catch$?CallUnexpected@@YAXPBU_s_ESTypeList@@@Z$0 10011460 f   libvcruntime:frame.obj
 0001:0001047a       ?ExFilterRethrow@@YAHPAU_EXCEPTION_POINTERS@@@Z 1001147a f   libvcruntime:frame.obj
 0001:000105c4       ?IsInExceptionSpec@@YAEPAUEHExceptionRecord@@PBU_s_ESTypeList@@@Z 100115c4 f   libvcruntime:frame.obj
 0001:00010690       $$000000                   10011690     libvcruntime:lowhelpr.obj
 0001:000106e0       $$000000                   100116e0     libvcruntime:_exsup_.obj
 0001:00010701       __unwind_handler           10011701 f   libvcruntime:_exsup_.obj
 0001:00010e8c       ??$common_tcsncpy_s@_W@@YAHQA_WIQB_WI@Z 10011e8c f   libucrt:wcsncpy_s.obj
 0001:00010f64       ??$common_vsprintf@Vformat_validation_base@__crt_stdio_output@@_W@@YAH_KQA_WIQB_WQAU__crt_locale_pointers@@QAD@Z 10011f64 f   libucrt:output.obj
 0001:000110ed       ??$common_vsprintf_s@_W@@YAH_KQA_WIQB_WQAU__crt_locale_pointers@@QAD@Z 100120ed f   libucrt:output.obj
 0001:0001179a       $LN52                      1001279a     libucrt:output.obj
 0001:00011c8c       $LN19                      10012c8c     libucrt:output.obj
 0001:0001257d       ??R<lambda_6e4b09c48022b2350581041d5f6b0c4c>@@QBE@XZ 1001357d f   libucrt:exit.obj
 0001:00012659       ?atexit_exception_filter@@YAHK@Z 10013659 f   libucrt:exit.obj
 0001:0001266c       ?common_exit@@YAXHW4_crt_exit_cleanup_mode@@W4_crt_exit_return_mode@@@Z 1001366c f   libucrt:exit.obj
 0001:000126c2       ?exit_or_terminate_process@@YAXI@Z 100136c2 f   libucrt:exit.obj
 0001:00012704       ?is_managed_app@@YA_NXZ    10013704 f   libucrt:exit.obj
 0001:00012748       ?try_cor_exit_process@@YAXI@Z 10013748 f   libucrt:exit.obj
 0001:000127ec       ??$common_configure_argv@D@@YAHW4_crt_argv_mode@@@Z 100137ec f   libucrt:argv_parsing.obj
 0001:00012922       ??$parse_command_line@D@@YAXPADPAPAD0PAI2@Z 10013922 f   libucrt:argv_parsing.obj
 0001:00012af7       ??$common_initialize_environment_nolock@D@@YAHXZ 10013af7 f   libucrt:environment_initialization.obj
 0001:00012b50       ??$create_environment@D@@YAQAPADQAD@Z 10013b50 f   libucrt:environment_initialization.obj
 0001:00012c21       ??$free_environment@_W@@YAXQAPA_W@Z 10013c21 f   libucrt:environment_initialization.obj
 0001:00012c21       ??$free_environment@D@@YAXQAPAD@Z 10013c21 f   libucrt:environment_initialization.obj
 0001:00012c90       ??$uninitialize_environment_internal@D@@YAXAAPAPAD@Z 10013c90 f   libucrt:environment_initialization.obj
 0001:00012cab       ??$uninitialize_environment_internal@_W@@YAXAAPAPA_W@Z 10013cab f   libucrt:environment_initialization.obj
 0001:00012e44       ??R<lambda_22ebabd17bc4fa466a2aca6d8deb888d>@@QBEHXZ 10013e44 f   libucrt:onexit.obj
 0001:00012f85       ??R<lambda_f03950bc5685219e0bcd2087efbe011e>@@QBEHXZ 10013f85 f   libucrt:onexit.obj
 0001:00013137       _initialize_global_variables 10014137 f   libucrt:initialization.obj
 0001:00013149       _initialize_c              10014149 f   libucrt:initialization.obj
 0001:00013163       _initialize_environment    10014163 f   libucrt:initialization.obj
 0001:00013163       _uninitialize_global_state_isolation 10014163 f   libucrt:initialization.obj
 0001:00013163       _initialize_global_state_isolation 10014163 f   libucrt:initialization.obj
 0001:00013163       _report_memory_leaks       10014163 f   libucrt:initialization.obj
 0001:00013163       _uninitialize_c            10014163 f   libucrt:initialization.obj
 0001:00013166       _uninitialize_environment  10014166 f   libucrt:initialization.obj
 0001:0001316e       _initialize_pointers       1001416e f   libucrt:initialization.obj
 0001:000131ab       _uninitialize_vcruntime    100141ab f   libucrt:initialization.obj
 0001:000131b4       _uninitialize_allocated_memory 100141b4 f   libucrt:initialization.obj
 0001:00013218       ??R<lambda_af42a3ee9806e9a7305d451646e05244>@@QBEXAAPAU__crt_multibyte_data@@@Z 10014218 f   libucrt:initialization.obj
 0001:00013c90       $$000000                   10014c90     libucrt:strncmp.obj
 0001:00013f26       ?construct_ptd@@YAXQAU__acrt_ptd@@QAPAU__crt_locale_data@@@Z 10014f26 f   libucrt:per_thread_data.obj
 0001:00013f9f       ?destroy_fls@@YGXPAX@Z     10014f9f f   libucrt:per_thread_data.obj
 0001:00013fc0       ?destroy_ptd@@YAXQAU__acrt_ptd@@@Z 10014fc0 f   libucrt:per_thread_data.obj
 0001:00014069       ?replace_current_thread_locale_nolock@@YAXQAU__acrt_ptd@@QAU__crt_locale_data@@@Z 10015069 f   libucrt:per_thread_data.obj
 0001:00014479       ?try_get_LCMapStringEx@@YAP6GHPB_WK0HPA_WHPAU_nlsversioninfo@@PAXJ@ZXZ 10015479 f   libucrt:winapi_thunks.obj
 0001:00014493       ?try_get_LocaleNameToLCID@@YAP6GKPB_WK@ZXZ 10015493 f   libucrt:winapi_thunks.obj
 0001:000144ad       ?try_get_first_available_module@@YAPAUHINSTANCE__@@QBW4module_id@?A0x391cf84c@@0@Z 100154ad f   libucrt:winapi_thunks.obj
 0001:00014575       ?try_get_function@@YAPAXW4function_id@?A0x391cf84c@@QBDQBW4module_id@2@2@Z 10015575 f   libucrt:winapi_thunks.obj
 0001:000149da       ??$common_tox_l@$1?internal_isupper_l@@YA_NHQAU__crt_locale_pointers@@@Z$1?internal_map_lower@@YAHH0@Z@@YAHHKQAU__crt_locale_pointers@@@Z 100159da f   libucrt:tolower_toupper.obj
 0001:00014b24       ?internal_isupper_l@@YA_NHQAU__crt_locale_pointers@@@Z 10015b24 f   libucrt:tolower_toupper.obj
 0001:00014f7d       ?fp_format_a@@YAHQBNPADIQADIH_NIQAU__crt_locale_pointers@@@Z 10015f7d f   libucrt:cvt.obj
 0001:00015291       ?fp_format_e@@YAHQBNQADI1IH_NIQAU__crt_locale_pointers@@@Z 10016291 f   libucrt:cvt.obj
 0001:0001532c       ?fp_format_e_internal@@YAHQADIH_NIQAU_strflt@@1QAU__crt_locale_pointers@@@Z 1001632c f   libucrt:cvt.obj
 0001:00015477       ?fp_format_f@@YAHQBNQADI1IHQAU__crt_locale_pointers@@@Z 10016477 f   libucrt:cvt.obj
 0001:00015504       ?fp_format_f_internal@@YAHQADIHQAU_strflt@@_NQAU__crt_locale_pointers@@@Z 10016504 f   libucrt:cvt.obj
 0001:000155db       ?fp_format_g@@YAHQBNQADI1IH_NIQAU__crt_locale_pointers@@@Z 100165db f   libucrt:cvt.obj
 0001:000156a3       ?fp_format_nan_or_infinity@@YAHW4__acrt_fp_class@@_NPADI1@Z 100166a3 f   libucrt:cvt.obj
 0001:0001579b       ?shift_bytes@@YAXQADI0H@Z  1001679b f   libucrt:cvt.obj
 0001:00015b52       ?initialize_inherited_file_handles_nolock@@YAXXZ 10016b52 f   libucrt:ioinit.obj
 0001:00015c08       ?initialize_stdio_handles_nolock@@YAXXZ 10016c08 f   libucrt:ioinit.obj
 0001:00015dfe       ?<lambda_invoker_cdecl>@<lambda_86056e3c024bff449830248dc1621ed2>@@CAHPBX0@Z 10016dfe f   libucrt:argv_wildcards.obj
 0001:00015e16       ??$common_expand_argv_wildcards@D@@YAHQAPADQAPAPAD@Z 10016e16 f   libucrt:argv_wildcards.obj
 0001:00015ff6       ??$copy_and_add_argument_to_buffer@D@@YAHQBD0IAAV?$argument_list@D@?A0x5f5c8891@@@Z 10016ff6 f   libucrt:argv_wildcards.obj
 0001:000160aa       ??$expand_argument_wildcards@D@@YAHQAD0AAV?$argument_list@D@?A0x5f5c8891@@@Z 100170aa f   libucrt:argv_wildcards.obj
 0001:0001622e       ?expand_if_necessary@?$argument_list@D@?A0x5f5c8891@@AAEHXZ 1001722e f   libucrt:argv_wildcards.obj
 0001:0001632b       ??R<lambda_ae742caa10f662c28703da3d2ea5e57e>@@QBEXXZ 1001732b f   libucrt:mbctype.obj
 0001:000163ae       ?CPtoLocaleName@@YAPB_WH@Z 100173ae f   libucrt:mbctype.obj
 0001:000163ec       ?getSystemCP@@YAHH@Z       100173ec f   libucrt:mbctype.obj
 0001:0001645f       ?setSBCS@@YAXPAU__crt_multibyte_data@@@Z 1001745f f   libucrt:mbctype.obj
 0001:000164c4       ?setSBUpLow@@YAXPAU__crt_multibyte_data@@@Z 100174c4 f   libucrt:mbctype.obj
 0001:00016658       ?setmbcp_internal@@YAHH_NQAU__acrt_ptd@@QAPAU__crt_multibyte_data@@@Z 10017658 f   libucrt:mbctype.obj
 0001:00016765       ?update_thread_multibyte_data_internal@@YAPAU__crt_multibyte_data@@QAU__acrt_ptd@@QAU1@@Z 10017765 f   libucrt:mbctype.obj
 0001:00016a4a       _memcpy_s                  10017a4a f   libucrt:mbctype.obj
 0001:00016a4a       _memcpy_s                  10017a4a f   libucrt:cfout.obj
 0001:00016acb       ?x_ismbbtype_l@@YAHPAU__crt_locale_pointers@@IHH@Z 10017acb f   libucrt:ismbbyte.obj
 0001:00016b55       ?find_end_of_double_null_terminated_sequence@@YAPB_WQB_W@Z 10017b55 f   libucrt:get_environment_from_os.obj
 0001:00016d7c       ?get_global_action_nolock@@YAPAP6AXH@ZH@Z 10017d7c f   libucrt:signal.obj
 0001:00016dbe       ?siglookup@@YAPAU__crt_signal_action_t@@HQAU1@@Z 10017dbe f   libucrt:signal.obj
 0001:000175ad       ?GetTableIndexFromLocaleName@@YAHPB_W@Z 100185ad f   libucrt:lcidtoname_downlevel.obj
 0001:000176ce       ?__acrt_LCMapStringA_stat@@YAHPAU__crt_locale_pointers@@PB_WKPBDHPADHHH@Z 100186ce f   libucrt:lcmapstringa.obj
 0001:000194c6       ?common_flush_all@@YAH_N@Z 1001a4c6 f   libucrt:fflush.obj
 0001:00019505       ?common_flush_all_should_try_to_flush_stream@@YA_NV__crt_stdio_stream@@QAH@Z 1001a505 f   libucrt:fflush.obj
 0001:00019537       ?is_stream_flushable_or_commitable@@YA_NJ@Z 1001a537 f   libucrt:fflush.obj
 0001:00019808       ?free_crt_array_internal@@YAXQAPBXI@Z 1001a808 f   libucrt:inittime.obj
 0001:00019cd0       ?shortsort@@YAXPAD0IP6AHPBX1@Z@Z 1001acd0 f   libucrt:qsort.obj
 0001:00019d70       ?swap@@YAXPAD0I@Z          1001ad70 f   libucrt:qsort.obj
 0001:0001a14a       ??$common_tcsncpy_s@D@@YAHQADIQBDI@Z 1001b14a f   libucrt:strncpy_s.obj
 0001:0001a210       $$000000                   1001b210     libucrt:strpbrk.obj
 0001:0001a2f4       ?initialize_multibyte@@YAHXZ 1001b2f4 f   libucrt:multibyte_initializer.obj
 0001:0001a3e0       $$000000                   1001b3e0     libucrt:log10.obj
 0001:0001a530       $$000000                   1001b530     libucrt:ceil_pentium4.obj
 0001:0001a64d       ?write_double_translated_ansi_nolock@@YA?AUwrite_result@?A0x17268360@@HQBDI@Z 1001b64d f   libucrt:write.obj
 0001:0001a812       ?write_double_translated_unicode_nolock@@YA?AUwrite_result@?A0x17268360@@QBDI@Z 1001b812 f   libucrt:write.obj
 0001:0001a87f       ?write_requires_double_translation_nolock@@YA_NH@Z 1001b87f f   libucrt:write.obj
 0001:0001a8f5       ?write_text_ansi_nolock@@YA?AUwrite_result@?A0x17268360@@HQBDI@Z 1001b8f5 f   libucrt:write.obj
 0001:0001a9d4       ?write_text_utf16le_nolock@@YA?AUwrite_result@?A0x17268360@@HQBDI@Z 1001b9d4 f   libucrt:write.obj
 0001:0001aac2       ?write_text_utf8_nolock@@YA?AUwrite_result@?A0x17268360@@HQBDI@Z 1001bac2 f   libucrt:write.obj
 0001:0001aef3       ??$common_lseek_nolock@_J@@YA_JH_JH@Z 1001bef3 f   libucrt:lseek.obj
 0001:0001b1b7       ___get_abstract_control_sse2 1001c1b7 f   libucrt:_fenvutils.obj
 0001:0001b234       ___get_abstract_control_x87 1001c234 f   libucrt:_fenvutils.obj
 0001:0001b2a7       ___get_machine_control     1001c2a7 f   libucrt:_fenvutils.obj
 0001:0001b318       ___get_machine_control_sse2 1001c318 f   libucrt:_fenvutils.obj
 0001:0001b398       ___get_machine_status_sse2 1001c398 f   libucrt:_fenvutils.obj
 0001:0001b3f9       ___get_machine_status_x87  1001c3f9 f   libucrt:_fenvutils.obj
 0001:0001b740       $$000000                   1001c740     libucrt:log10_pentium4.obj
 0001:0001b9d0       $$000000                   1001c9d0     libucrt:87tran.obj
 0001:0001bbd0       $$000000                   1001cbd0     libucrt:87disp.obj
 0001:0001bdd0       $$000000                   1001cdd0     libucrt:common.obj
 0001:0001bf60       $$000000                   1001cf60     libucrt:genexcep.obj
 0001:0001c4d0       $$000000                   1001d4d0     libucrt:_strnicm.obj
 0001:0001d320       $$000000                   1001e320     LIBCMT:ulldvrm.obj
 0001:0001d3c0       $$000000                   1001e3c0     LIBCMT:llmul.obj
 0001:0001d400       $$000000                   1001e400     LIBCMT:lldvrm.obj
 0001:0001d4e0       $$000000                   1001e4e0     LIBCMT:ullshr.obj
 0001:0001d500       $$000000                   1001e500     LIBCMT:llshl.obj
 0001:0001d520       $$000000                   1001e520     LIBCMT:_ftol2_.obj
 0001:0001d5e0       $$000000                   1001e5e0     libvcruntime:strrchr.obj
 0001:0001d720       $$000000                   1001e720     libvcruntime:strchr.obj
 0001:0001d84b       __ehhandler$?__scrt_initialize_thread_safe_statics_platform_specific@@YAXXZ 1001e84b f   LIBCMT:thread_safe_statics.obj
 0001:0001d866       __ehhandler$??2@YAPAXIABUnothrow_t@std@@@Z 1001e866 f   LIBCMT:new_scalar_nothrow.obj
 0001:0001d881       __ehhandler$?CallUnexpected@@YAXPBU_s_ESTypeList@@@Z 1001e881 f   libvcruntime:frame.obj
 0001:0001d89c       ??__F_AtlComModule@ATL@@YAXXZ 1001e89c f   OposVariant.obj
 0001:0001d8a6       ??__F_AtlWinModule@ATL@@YAXXZ 1001e8a6 f   OposVariant.obj
 0001:0001d8c0       ??__F_Module@@YAXXZ        1001e8c0 f   Biometrics.obj
 0001:0001d8d4       ??__F_AtlBaseModule@ATL@@YAXXZ 1001e8d4 f   atls:atlbase.obj
 0002:00000308       ?_AtlBaseModule$initializer$@ATL@@3P6AXXZA 1001f308     atls:atlbase.obj
 0002:0000030c       ?_AtlComModule$initializer$@ATL@@3P6AXXZA 1001f30c     OposVariant.obj
 0002:00000310       ?_AtlWinModule$initializer$@ATL@@3P6AXXZA 1001f310     OposVariant.obj
 0002:00000314       ?_Module$initializer$@@3P6AXXZA 1001f314     Biometrics.obj
 0002:00000318       ??pConnMap$initializer$@?$IConnectionPointContainerImpl@VCOPOSBiometrics@@@ATL@@0P6AXXZA@@3P6AXXZA 1001f318     Biometrics.obj
 0002:00000324       ?__scrt_initialize_tss_var@@3P6AHXZA 1001f324     LIBCMT:thread_safe_statics.obj
 0002:000007a8       ?map@?1??HKeyFromString@CRegParser@ATL@@KAPAUHKEY__@@PA_W@Z@4QBUkeymap@?1??123@KAPAU4@0@Z@B 1001f7a8     Biometrics.obj
 0002:000018fc       _GS_ExceptionPointers      100208fc     LIBCMT:gs_report.obj
 0002:00001a68       ?ExceptionTemplate@?1??_CxxThrowException@@9@8@4UEHExceptionRecord@@B 10020a68     libvcruntime:throw.obj
 0002:00001a88       ?module_names@?A0x03f7da57@@3QBQB_WB 10020a88     libvcruntime:winapi_downlevel.obj
 0002:00001b40       ?candidate_modules@?1??try_get_FlsAlloc@@YAP6GKP6GXPAX@Z@ZXZ@4QBW4module_id@?A0x03f7da57@@B 10020b40     libvcruntime:winapi_downlevel.obj
 0002:00001b54       ?candidate_modules@?1??try_get_FlsFree@@YAP6GHK@ZXZ@4QBW4module_id@?A0x03f7da57@@B 10020b54     libvcruntime:winapi_downlevel.obj
 0002:00001b64       ?candidate_modules@?1??try_get_FlsGetValue@@YAP6GPAXK@ZXZ@4QBW4module_id@?A0x03f7da57@@B 10020b64     libvcruntime:winapi_downlevel.obj
 0002:00001b78       ?candidate_modules@?1??try_get_FlsSetValue@@YAP6GHKPAX@ZXZ@4QBW4module_id@?A0x03f7da57@@B 10020b78     libvcruntime:winapi_downlevel.obj
 0002:00001b8c       ?candidate_modules@?1??try_get_InitializeCriticalSectionEx@@YAP6GHPAU_RTL_CRITICAL_SECTION@@KK@ZXZ@4QBW4module_id@?A0x03f7da57@@B 10020b8c     libvcruntime:winapi_downlevel.obj
 0002:00001bd0       ?tokenTable@@3QBQBDB       10020bd0     libvcruntime:undname.obj
 0002:00001c10       ?nameTable@@3QBQBDB        10020c10     libvcruntime:undname.obj
 0002:00001d58       ?rttiTable@@3QBQBDB        10020d58     libvcruntime:undname.obj
 0002:00002370       ?errtable@@3QBUerrentry@?A0x31fdb9ec@@B 10021370     libucrt:errno.obj
 0002:00002610       ___acrt_initializers       10021610     libucrt:initialization.obj
 0002:00002688       ?module_names@?A0x391cf84c@@3QBQB_WB 10021688     libucrt:winapi_thunks.obj
 0002:00002b70       ?candidate_modules@?1??try_get_FlsAlloc@@YAP6GKP6GXPAX@Z@ZXZ@4QBW4module_id@?A0x391cf84c@@B 10021b70     libucrt:winapi_thunks.obj
 0002:00002b84       ?candidate_modules@?1??try_get_FlsFree@@YAP6GHK@ZXZ@4QBW4module_id@?A0x391cf84c@@B 10021b84     libucrt:winapi_thunks.obj
 0002:00002b94       ?candidate_modules@?1??try_get_FlsGetValue@@YAP6GPAXK@ZXZ@4QBW4module_id@?A0x391cf84c@@B 10021b94     libucrt:winapi_thunks.obj
 0002:00002ba8       ?candidate_modules@?1??try_get_FlsSetValue@@YAP6GHKPAX@ZXZ@4QBW4module_id@?A0x391cf84c@@B 10021ba8     libucrt:winapi_thunks.obj
 0002:00002bbc       ?candidate_modules@?1??try_get_InitializeCriticalSectionEx@@YAP6GHPAU_RTL_CRITICAL_SECTION@@KK@ZXZ@4QBW4module_id@?A0x391cf84c@@B 10021bbc     libucrt:winapi_thunks.obj
 0002:00002be0       ?candidate_modules@?1??try_get_LCMapStringEx@@YAP6GHPB_WK0HPA_WHPAU_nlsversioninfo@@PAXJ@ZXZ@4QBW4module_id@?A0x391cf84c@@B 10021be0     libucrt:winapi_thunks.obj
 0002:00002bf8       ?candidate_modules@?1??try_get_LocaleNameToLCID@@YAP6GKPB_WK@ZXZ@4QBW4module_id@?A0x391cf84c@@B 10021bf8     libucrt:winapi_thunks.obj
 0002:00002c14       ?candidate_modules@?1??try_get_AppPolicyGetProcessTerminationMethod@@YAP6GJPAXPAW4AppPolicyProcessTerminationMethod@@@ZXZ@4QBW4module_id@?A0x391cf84c@@B 10021c14     libucrt:winapi_thunks.obj
 0002:00002c40       ?candidate_modules@?1??try_get_SetThreadStackGuarantee@@YAP6GHPAK@ZXZ@4QBW4module_id@?A0x391cf84c@@B 10021c40     libucrt:winapi_thunks.obj
 0002:0000316c       ?_mb_locale_names@@3QBQB_WB 1002216c     libucrt:mbctype.obj
 0002:000039b8       ?LcidToLocaleNameTable@?A0x881e4c05@@3QBULcidToLocaleName@1@B 100229b8     libucrt:lcidtoname_downlevel.obj
 0002:00004ae0       ?LocaleNameToIndexTable@?A0x881e4c05@@3QBULocaleNameIndex@1@B 10023ae0     libucrt:lcidtoname_downlevel.obj
 0002:00006420       LOG_name                   10025420     libucrt:log10.obj
 0002:00006430       _One                       10025430     libucrt:ceil_pentium4.obj
 0002:00006440       _Bns                       10025440     libucrt:ceil_pentium4.obj
 0002:00006450       _Zero                      10025450     libucrt:ceil_pentium4.obj
 0002:00006460       _S                         10025460     libucrt:ceil_pentium4.obj
 0002:00006470       _NegZero                   10025470     libucrt:ceil_pentium4.obj
 0002:00006480       emask                      10025480     libucrt:log10_pentium4.obj
 0002:00006490       CC                         10025490     libucrt:log10_pentium4.obj
 0002:000064a0       Magic                      100254a0     libucrt:log10_pentium4.obj
 0002:000064b0       hi_mask                    100254b0     libucrt:log10_pentium4.obj
 0002:000064c0       LOG10_2                    100254c0     libucrt:log10_pentium4.obj
 0002:000064d0       place_L                    100254d0     libucrt:log10_pentium4.obj
 0002:000064f0       One                        100254f0     libucrt:log10_pentium4.obj
 0002:00006500       Zero                       10025500     libucrt:log10_pentium4.obj
 0002:00006510       Two52                      10025510     libucrt:log10_pentium4.obj
 0002:00006520       Infs                       10025520     libucrt:log10_pentium4.obj
 0002:00006530       NaN                        10025530     libucrt:log10_pentium4.obj
 0002:00006540       coeff                      10025540     libucrt:log10_pentium4.obj
 0002:0000659e       _log2max                   1002559e     libucrt:87tran.obj
 0002:000065a8       _smallarg                  100255a8     libucrt:87tran.obj
 0002:000065b2       _half                      100255b2     libucrt:87tran.obj
 0002:000065fe       One                        100255fe     libucrt:87disp.obj
 0002:00006606       Three                      10025606     libucrt:87disp.obj
 0002:0000660e       XAMtoTagTab                1002560e     libucrt:87disp.obj
 0002:00006620       One                        10025620     libucrt:common.obj
 0002:00006634       DblMax                     10025634     libucrt:common.obj
 0002:0000663c       DblMin                     1002563c     libucrt:common.obj
 0002:00006644       IeeeAdjO                   10025644     libucrt:common.obj
 0002:0000664c       IeeeAdjU                   1002564c     libucrt:common.obj
 0002:00006654       _infinity                  10025654     libucrt:common.obj
 0002:0000665c       _zero                      1002565c     libucrt:common.obj
 0002:00006698       _over                      10025698     libucrt:fpctrl.obj
 0002:000066a4       _under                     100256a4     libucrt:fpctrl.obj
 0002:00006ed8       ?_names@?1??_get_fname@@9@9 10025ed8     libucrt:fpexcept.obj
 0002:00007740       __sehtable$?_AtlVerifyStackAvailable@_ATL_SAFE_ALLOCA_IMPL@ATL@@YA_NK@Z 10026740     Biometrics.obj
 0002:00007760       __sehtable$___scrt_is_nonwritable_in_current_image 10026760     LIBCMT:utility.obj
 0002:0000777c       __ehfuncinfo$?__scrt_initialize_thread_safe_statics_platform_specific@@YAXXZ 1002677c     LIBCMT:thread_safe_statics.obj
 0002:000077a0       __catchsym$??2@YAPAXIABUnothrow_t@std@@@Z$2 100267a0     LIBCMT:new_scalar_nothrow.obj
 0002:000077b0       __unwindtable$??2@YAPAXIABUnothrow_t@std@@@Z 100267b0     LIBCMT:new_scalar_nothrow.obj
 0002:000077c0       __tryblocktable$??2@YAPAXIABUnothrow_t@std@@@Z 100267c0     LIBCMT:new_scalar_nothrow.obj
 0002:000077d4       __ehfuncinfo$??2@YAPAXIABUnothrow_t@std@@@Z 100267d4     LIBCMT:new_scalar_nothrow.obj
 0002:000077f8       __sehtable$?dllmain_crt_process_attach@@YAHQAUHINSTANCE__@@QAX@Z 100267f8     LIBCMT:dll_dllmain.obj
 0002:00007818       __sehtable$?dllmain_crt_process_detach@@YAH_N@Z 10026818     LIBCMT:dll_dllmain.obj
 0002:00007838       __sehtable$?dllmain_dispatch@@YAHQAUHINSTANCE__@@KQAX@Z 10026838     LIBCMT:dll_dllmain.obj
 0002:000078e8       __sehtable$?FrameUnwindToState@__FrameHandler3@@SAXPAUEHRegistrationNode@@PAXPBU_s_FuncInfo@@H@Z 100268e8     libvcruntime:frame.obj
 0002:00007910       __sehtable$?CallCatchBlock@@YAPAXPAUEHExceptionRecord@@PAUEHRegistrationNode@@PAU_CONTEXT@@PBU_s_FuncInfo@@PAXHK@Z 10026910     libvcruntime:frame.obj
 0002:00007938       __catchsym$?CallUnexpected@@YAXPBU_s_ESTypeList@@@Z$2 10026938     libvcruntime:frame.obj
 0002:00007948       __unwindtable$?CallUnexpected@@YAXPBU_s_ESTypeList@@@Z 10026948     libvcruntime:frame.obj
 0002:00007958       __tryblocktable$?CallUnexpected@@YAXPBU_s_ESTypeList@@@Z 10026958     libvcruntime:frame.obj
 0002:0000796c       __ehfuncinfo$?CallUnexpected@@YAXPBU_s_ESTypeList@@@Z 1002696c     libvcruntime:frame.obj
 0002:00007990       __sehtable$??$BuildCatchObjectHelperInternal@$$CBU_s_HandlerType@@@@YAHPAUEHExceptionRecord@@PAXPBU_s_HandlerType@@PBU_s_CatchableType@@@Z 10026990     libvcruntime:frame.obj
 0002:000079b0       __sehtable$??$BuildCatchObjectInternal@$$CBU_s_HandlerType@@@@YAXPAUEHExceptionRecord@@PAXPBU_s_HandlerType@@PBU_s_CatchableType@@@Z 100269b0     libvcruntime:frame.obj
 0002:00007a08       __sehtable$___DestructExceptionObject 10026a08     libvcruntime:ehhelpers.obj
 0002:00007a28       __sehtable$??R<lambda_6e4b09c48022b2350581041d5f6b0c4c>@@QBE@XZ 10026a28     libucrt:exit.obj
 0002:00007a48       __sehtable$??$?RV<lambda_03b1d95aef87969028cfba75ccab2455>@@AAV<lambda_6e4b09c48022b2350581041d5f6b0c4c>@@V<lambda_22bdf7517842c4b3e53723af5aa32b9e>@@@?$__crt_seh_guarded_call@X@@QAEX$$QAV<lambda_03b1d95aef87969028cfba75ccab2455>@@AAV<lambda_6e4b09c48022b2350581041d5f6b0c4c>@@$$QAV<lambda_22bdf7517842c4b3e53723af5aa32b9e>@@@Z 10026a48     libucrt:exit.obj
 0002:00007a68       __sehtable$??$?RV<lambda_8e746cf0007f6ed984d6f78af1fec997>@@AAV<lambda_22ebabd17bc4fa466a2aca6d8deb888d>@@V<lambda_18ed0c0b38a6dc0daf1e7ac6d6adf05e>@@@?$__crt_seh_guarded_call@H@@QAEH$$QAV<lambda_8e746cf0007f6ed984d6f78af1fec997>@@AAV<lambda_22ebabd17bc4fa466a2aca6d8deb888d>@@$$QAV<lambda_18ed0c0b38a6dc0daf1e7ac6d6adf05e>@@@Z 10026a68     libucrt:onexit.obj
 0002:00007a88       __sehtable$??$?RV<lambda_69a2805e680e0e292e8ba93315fe43a8>@@AAV<lambda_f03950bc5685219e0bcd2087efbe011e>@@V<lambda_03fcd07e894ec930e3f35da366ca99d6>@@@?$__crt_seh_guarded_call@H@@QAEH$$QAV<lambda_69a2805e680e0e292e8ba93315fe43a8>@@AAV<lambda_f03950bc5685219e0bcd2087efbe011e>@@$$QAV<lambda_03fcd07e894ec930e3f35da366ca99d6>@@@Z 10026a88     libucrt:onexit.obj
 0002:00007aa8       __sehtable$__query_new_handler 10026aa8     libucrt:new_handler.obj
 0002:00007ac8       __sehtable$_terminate      10026ac8     libucrt:terminate.obj
 0002:00007ae8       __sehtable$??$?RV<lambda_15ade71b0218206bbe3333a0c9b79046>@@AAV<lambda_da44e0f8b0f19ba52fefafb335991732>@@V<lambda_207f2d024fc103971653565357d6cd41>@@@?$__crt_seh_guarded_call@X@@QAEX$$QAV<lambda_15ade71b0218206bbe3333a0c9b79046>@@AAV<lambda_da44e0f8b0f19ba52fefafb335991732>@@$$QAV<lambda_207f2d024fc103971653565357d6cd41>@@@Z 10026ae8     libucrt:per_thread_data.obj
 0002:00007b08       __sehtable$??$?RV<lambda_a7e850c220f1c8d1e6efeecdedd162c6>@@AAV<lambda_46720907175c18b6c9d2717bc0d2d362>@@V<lambda_9048902d66e8d99359bc9897bbb930a8>@@@?$__crt_seh_guarded_call@X@@QAEX$$QAV<lambda_a7e850c220f1c8d1e6efeecdedd162c6>@@AAV<lambda_46720907175c18b6c9d2717bc0d2d362>@@$$QAV<lambda_9048902d66e8d99359bc9897bbb930a8>@@@Z 10026b08     libucrt:per_thread_data.obj
 0002:00007b28       __sehtable$??$?RV<lambda_38edbb1296d33220d7e4dd0ed76b244a>@@AAV<lambda_5ce1d447e08cb34b2473517608e21441>@@V<lambda_fb385d3da700c9147fc39e65dd577a8c>@@@?$__crt_seh_guarded_call@X@@QAEX$$QAV<lambda_38edbb1296d33220d7e4dd0ed76b244a>@@AAV<lambda_5ce1d447e08cb34b2473517608e21441>@@$$QAV<lambda_fb385d3da700c9147fc39e65dd577a8c>@@@Z 10026b28     libucrt:per_thread_data.obj
 0002:00007b48       __sehtable$??$?RV<lambda_6affb1475c98b40b75cdec977db92e3c>@@AAV<lambda_b8d4b9c228a6ecc3f80208dbb4b4a104>@@V<lambda_608742c3c92a14382c1684fc64f96c88>@@@?$__crt_seh_guarded_call@X@@QAEX$$QAV<lambda_6affb1475c98b40b75cdec977db92e3c>@@AAV<lambda_b8d4b9c228a6ecc3f80208dbb4b4a104>@@$$QAV<lambda_608742c3c92a14382c1684fc64f96c88>@@@Z 10026b48     libucrt:per_thread_data.obj
 0002:00007b68       __sehtable$??$?RV<lambda_e5124f882df8998aaf41531e079ba474>@@AAV<lambda_3e16ef9562a7dcce91392c22ab16ea36>@@V<lambda_e25ca0880e6ef98be67edffd8c599615>@@@?$__crt_seh_guarded_call@X@@QAEX$$QAV<lambda_e5124f882df8998aaf41531e079ba474>@@AAV<lambda_3e16ef9562a7dcce91392c22ab16ea36>@@$$QAV<lambda_e25ca0880e6ef98be67edffd8c599615>@@@Z 10026b68     libucrt:wsetlocale.obj
 0002:00007b88       __sehtable$___acrt_initialize_lowio 10026b88     libucrt:ioinit.obj
 0002:00007ba8       __sehtable$?update_thread_multibyte_data_internal@@YAPAU__crt_multibyte_data@@QAU__acrt_ptd@@QAU1@@Z 10026ba8     libucrt:mbctype.obj
 0002:00007bc8       __sehtable$??$?RV<lambda_ceb1ee4838e85a9d631eb091e2fbe199>@@AAV<lambda_ae742caa10f662c28703da3d2ea5e57e>@@V<lambda_cd08b5d6af4937fe54fc07d0c9bf6b37>@@@?$__crt_seh_guarded_call@X@@QAEX$$QAV<lambda_ceb1ee4838e85a9d631eb091e2fbe199>@@AAV<lambda_ae742caa10f662c28703da3d2ea5e57e>@@$$QAV<lambda_cd08b5d6af4937fe54fc07d0c9bf6b37>@@@Z 10026bc8     libucrt:mbctype.obj
 0002:00007be8       __sehtable$_raise          10026be8     libucrt:signal.obj
 0002:00007c08       __sehtable$??$?RV<lambda_cbab9ec6f41b0180b23cc171c22676b0>@@AAV<lambda_44731a7d0e6d81c3e6aa82d741081786>@@V<lambda_4b292cb8dd18144e164572427af410ab>@@@?$__crt_seh_guarded_call@P6AXH@Z@@QAEP6AXH@Z$$QAV<lambda_cbab9ec6f41b0180b23cc171c22676b0>@@AAV<lambda_44731a7d0e6d81c3e6aa82d741081786>@@$$QAV<lambda_4b292cb8dd18144e164572427af410ab>@@@Z 10026c08     libucrt:signal.obj
 0002:00007c28       __sehtable$___acrt_update_thread_locale_data 10026c28     libucrt:locale_refcounting.obj
 0002:00007c48       __sehtable$__fcloseall     10026c48     libucrt:closeall.obj
 0002:00007c68       __sehtable$??$?RV<lambda_2866be3712abc81a800a822484c830d8>@@AAV<lambda_39ca0ed439415581b5b15c265174cece>@@V<lambda_2b24c74d71094a6cd0cb82e44167d71b>@@@?$__crt_seh_guarded_call@X@@QAEX$$QAV<lambda_2866be3712abc81a800a822484c830d8>@@AAV<lambda_39ca0ed439415581b5b15c265174cece>@@$$QAV<lambda_2b24c74d71094a6cd0cb82e44167d71b>@@@Z 10026c68     libucrt:fflush.obj
 0002:00007c88       __sehtable$??$?RV<lambda_2cc53f568c5a2bb6f192f930a45d44ea>@@AAV<lambda_ab61a845afdef5b7c387490eaf3616ee>@@V<lambda_c2ffc0b7726aa6be21d5f0026187e748>@@@?$__crt_seh_guarded_call@X@@QAEX$$QAV<lambda_2cc53f568c5a2bb6f192f930a45d44ea>@@AAV<lambda_ab61a845afdef5b7c387490eaf3616ee>@@$$QAV<lambda_c2ffc0b7726aa6be21d5f0026187e748>@@@Z 10026c88     libucrt:fflush.obj
 0002:00007ca8       __sehtable$___acrt_lowio_ensure_fh_exists 10026ca8     libucrt:osfinfo.obj
 0002:00007cc8       __sehtable$__write         10026cc8     libucrt:write.obj
 0002:00007ce8       __sehtable$_fclose         10026ce8     libucrt:fclose.obj
 0002:00007d08       __sehtable$??$?RV<lambda_9e9de3de5fa147e2223d7db92bc10aa6>@@AAV<lambda_38ce7e780aa69e748d6df282ebc68efe>@@V<lambda_8ca6da459f0f6780f1cff60fdc3d00e5>@@@?$__crt_seh_guarded_call@H@@QAEH$$QAV<lambda_9e9de3de5fa147e2223d7db92bc10aa6>@@AAV<lambda_38ce7e780aa69e748d6df282ebc68efe>@@$$QAV<lambda_8ca6da459f0f6780f1cff60fdc3d00e5>@@@Z 10026d08     libucrt:commit.obj
 0002:00007d28       __sehtable$??$?RV<lambda_218ce3db14220d0be481dae8ef3383b6>@@AAV<lambda_628dfdc04ba53c8bfc02c9951375f3f5>@@V<lambda_57dc472bd5c9d5f3b2cbca59b8a843ae>@@@?$__crt_seh_guarded_call@H@@QAEH$$QAV<lambda_218ce3db14220d0be481dae8ef3383b6>@@AAV<lambda_628dfdc04ba53c8bfc02c9951375f3f5>@@$$QAV<lambda_57dc472bd5c9d5f3b2cbca59b8a843ae>@@@Z 10026d28     libucrt:close.obj
 0002:00007d48       __sehtable$__IsNonwritableInCurrentImage 10026d48     LIBCMT:pesect.obj
 0002:00007d70       .edata                     10026d70     OPOSBiometrics.exp
 0002:00007d98       rgpv                       10026d98     OPOSBiometrics.exp
 0002:00007da8       rgszName                   10026da8     OPOSBiometrics.exp
 0002:00007db8       rgwOrd                     10026db8     OPOSBiometrics.exp
 0002:00007dc0       szName                     10026dc0     OPOSBiometrics.exp
 0002:00007dd3       $N00001                    10026dd3     OPOSBiometrics.exp
 0002:00007de3       $N00002                    10026de3     OPOSBiometrics.exp
 0002:00007df5       $N00003                    10026df5     OPOSBiometrics.exp
 0002:00007e07       $N00004                    10026e07     OPOSBiometrics.exp
 0002:00008424       .idata$6                   10027424     kernel32:KERNEL32.dll
 0002:00008638       .idata$6                   10027638     user32:USER32.dll
 0002:0000876c       .idata$6                   1002776c     gdi32:GDI32.dll
 0002:00008812       .idata$6                   10027812     advapi32:ADVAPI32.dll
 0002:0000892e       .idata$6                   1002792e     ole32:ole32.dll
 0002:00008938       .idata$6                   10027938     oleaut32:OLEAUT32.dll
 0003:00000110       ?ObjectMap@@3PAU_ATL_OBJMAP_ENTRY30@ATL@@A 10028110     Biometrics.obj
 0003:000001b8       ?s_SOMethodNames@@3PAPADA  100281b8     BiometricsImpl.obj
 0003:00000224       ?s_RequiredMethodsPerRelease@@3PAHA 10028224     BiometricsImpl.obj
 0003:00000240       ?__vcrt_flsindex@@3KA      10028240     libvcruntime:per_thread_data.obj
 0003:00000260       ?errno_no_memory@@3HA      10028260     libucrt:errno.obj
 0003:00000264       ?doserrno_no_memory@@3KA   10028264     libucrt:errno.obj
 0003:00000270       ?__acrt_flsindex@@3KA      10028270     libucrt:per_thread_data.obj
 0003:000003e8       __mbctypes                 100283e8     libucrt:mbctype.obj
 0003:000004f0       __mbcasemaps               100284f0     libucrt:mbctype.obj
 0003:000005f0       ?__rgctypeflag@@3PADA      100285f0     libucrt:mbctype.obj
 0003:000005f8       ?__rgcode_page_info@@3PAUcode_page_info@@A 100285f8     libucrt:mbctype.obj
 0003:00000b00       ?is_initialized_as_dll@@3_NA 10028b00     LIBCMT:utility.obj
 0003:00000b01       ?module_local_atexit_table_initialized@@3_NA 10028b01     LIBCMT:utility.obj
 0003:00000b04       ?module_local_atexit_table@@3U_onexit_table_t@@A 10028b04     LIBCMT:utility.obj
 0003:00000b10       ?module_local_at_quick_exit_table@@3U_onexit_table_t@@A 10028b10     LIBCMT:utility.obj
 0003:00000b1c       ?_Tss_mutex@@3U_RTL_CRITICAL_SECTION@@A 10028b1c     LIBCMT:thread_safe_statics.obj
 0003:00000b34       ?_Tss_cv@@3U_RTL_CONDITION_VARIABLE@@A 10028b34     LIBCMT:thread_safe_statics.obj
 0003:00000b38       ?_Tss_event@@3PAXA         10028b38     LIBCMT:thread_safe_statics.obj
 0003:00000b3c       ?encoded_sleep_condition_variable_cs@@3P6GHPAU_RTL_CONDITION_VARIABLE@@PAU_RTL_CRITICAL_SECTION@@K@ZA 10028b3c     LIBCMT:thread_safe_statics.obj
 0003:00000b40       ?encoded_wake_all_condition_variable@@3P6GXPAU_RTL_CONDITION_VARIABLE@@@ZA 10028b40     LIBCMT:thread_safe_statics.obj
 0003:00000b48       _GS_ExceptionRecord        10028b48     LIBCMT:gs_report.obj
 0003:00000b98       _GS_ContextRecord          10028b98     LIBCMT:gs_report.obj
 0003:00000e68       ?__proc_attached@@3HA      10028e68     LIBCMT:dll_dllmain.obj
 0003:00000ec4       ?AllocateData@@3P6GPAUAtlThunkData_t@@XZA 10028ec4     atls:atlthunk.obj
 0003:00000ec8       ?InitData@@3P6GXPAUAtlThunkData_t@@PAXI@ZA 10028ec8     atls:atlthunk.obj
 0003:00000ecc       ?DataToCode@@3P6GP6GJPAUHWND__@@IIJ@ZPAUAtlThunkData_t@@@ZA 10028ecc     atls:atlthunk.obj
 0003:00000ed0       ?FreeData@@3P6GXPAUAtlThunkData_t@@@ZA 10028ed0     atls:atlthunk.obj
 0003:00000ed4       ?Initialized@@3_NA         10028ed4     atls:atlthunk.obj
 0003:00000ee0       ?__vcrt_startup_thread_ptd@@3U__vcrt_ptd@@A 10028ee0     libvcruntime:per_thread_data.obj
 0003:00000f08       ___vcrt_lock_table         10028f08     libvcruntime:locks.obj
 0003:00000f20       ___vcrt_locks_initialized  10028f20     libvcruntime:locks.obj
 0003:00000f24       ?module_handles@@3PAPAUHINSTANCE__@@A 10028f24     libvcruntime:winapi_downlevel.obj
 0003:00000f30       ?encoded_function_pointers@@3PAPAXA 10028f30     libvcruntime:winapi_downlevel.obj
 0003:00000f6c       ?heap@@3V_HeapManager@@A   10028f6c     libvcruntime:undname.obj
 0003:00000f84       ?__acrt_invalid_parameter_handler@@3V?$dual_state_global@P6AXPB_W00II@Z@__crt_state_management@@A 10028f84     libucrt:invalid_parameter.obj
 0003:00000f88       ?c_termination_complete@@3JA 10028f88     libucrt:exit.obj
 0003:00000f8c       ?thread_local_exit_callback_func@@3P6GXPAXK0@ZA 10028f8c     libucrt:exit.obj
 0003:00000f98       ?program_name@?1???$common_configure_argv@D@@YAHW4_crt_argv_mode@@@Z@4PADA 10028f98     libucrt:argv_parsing.obj
 0003:000010c8       ?__acrt_new_handler@@3V?$dual_state_global@P6AHI@Z@__crt_state_management@@A 100290c8     libucrt:new_handler.obj
 0003:000010d0       ?module_handles@@3PAPAUHINSTANCE__@@A 100290d0     libucrt:winapi_thunks.obj
 0003:00001120       ?encoded_function_pointers@@3PAPAXA 10029120     libucrt:winapi_thunks.obj
 0003:000011b0       ?enable_percent_n@@3IA     100291b0     libucrt:printf_count_output.obj
 0003:000013d0       ?__acrt_lock_table@@3PAU_RTL_CRITICAL_SECTION@@A 100293d0     libucrt:locks.obj
 0003:00001520       ?__acrt_locks_initialized@@3IA 10029520     libucrt:locks.obj
 0003:00001530       ?fSystemSet@@3HA           10029530     libucrt:mbctype.obj
 0003:00001534       ?initialized@?1??__acrt_initialize_multibyte@@9@4_NA 10029534     libucrt:mbctype.obj
 0003:00001554       ?ctrlc_action@@3V?$dual_state_global@P6AXH@Z@__crt_state_management@@A 10029554     libucrt:signal.obj
 0003:00001558       ?ctrlbreak_action@@3V?$dual_state_global@P6AXH@Z@__crt_state_management@@A 10029558     libucrt:signal.obj
 0003:0000155c       ?abort_action@@3V?$dual_state_global@P6AXH@Z@__crt_state_management@@A 1002955c     libucrt:signal.obj
 0003:00001560       ?term_action@@3V?$dual_state_global@P6AXH@Z@__crt_state_management@@A 10029560     libucrt:signal.obj
 0003:00001564       ?user_matherr@@3V?$dual_state_global@P6AHPAU_exception@@@Z@__crt_state_management@@A 10029564     libucrt:matherr.obj
 0003:00001568       ?__acrt_global_new_mode@@3V?$dual_state_global@J@__crt_state_management@@A 10029568     libucrt:new_mode.obj
 0003:00001574       ?__acrt_app_type@@3W4_crt_app_type@@A 10029574     libucrt:report_runtime_error.obj
 0003:0000157c       __pmatherr_set             1002957c     libucrt:libm_error.obj
 0004:00000220       $R000000                   1002a220     Biometrics.res
 0004:00000b90       $R000970                   1002ab90     Biometrics.res
 0004:00000c78       $R000A58                   1002ac78     Biometrics.res
 0004:00000ee0       $R000CC0                   1002aee0     Biometrics.res
 0004:000013b0       $R001190                   1002b3b0     Biometrics.res
 0004:00004898       $R004678                   1002e898     Biometrics.res
 0004:000048d0       $R0046B0                   1002e8d0     Biometrics.res
