 OPOSGate

 Timestamp is 5ed45829 (Mon Jun  1 10:21:45 2020)

 Preferred load address is 10000000

 Start         Length     Name                   Class
 0001:00000000 00000080H .text$di                CODE
 0001:00000080 0001dd33H .text$mn                CODE
 0001:0001ddb3 00000036H .text$x                 CODE
 0001:0001dde9 00000042H .text$yd                CODE
 0002:00000000 000002fcH .idata$5                DATA
 0002:000002fc 00000004H .00cfg                  DATA
 0002:00000300 00000004H .CRT$XCA                DATA
 0002:00000304 00000004H .CRT$XCL                DATA
 0002:00000308 00000010H .CRT$XCU                DATA
 0002:00000318 00000004H .CRT$XCZ                DATA
 0002:0000031c 00000004H .CRT$XIA                DATA
 0002:00000320 00000010H .CRT$XIC                DATA
 0002:00000330 00000004H .CRT$XIZ                DATA
 0002:00000334 00000004H .CRT$XLA                DATA
 0002:00000338 00000004H .CRT$XLZ                DATA
 0002:0000033c 00000004H .CRT$XPA                DATA
 0002:00000340 00000008H .CRT$XPX                DATA
 0002:00000348 00000004H .CRT$XPXA               DATA
 0002:0000034c 00000004H .CRT$XPZ                DATA
 0002:00000350 00000004H .CRT$XTA                DATA
 0002:00000354 0000000cH .CRT$XTZ                DATA
 0002:00000358 00000000H .gfids$y                DATA
 0002:00000360 00007198H .rdata                  DATA
 0002:000074f8 00000018H .rdata$T                DATA
 0002:00007510 00000178H .rdata$r                DATA
 0002:00007688 0000001cH .rdata$sxdata           DATA
 0002:000076a4 000003d8H .rdata$zzzdbg           DATA
 0002:00007a7c 00000004H .rtc$IAA                DATA
 0002:00007a80 00000004H .rtc$IZZ                DATA
 0002:00007a84 00000004H .rtc$TAA                DATA
 0002:00007a88 00000004H .rtc$TZZ                DATA
 0002:00007a8c 00000004H .tls                    DATA
 0002:00007a90 00000004H .tls$                   DATA
 0002:00007a94 00000004H .tls$ZZZ                DATA
 0002:00007a98 0000062cH .xdata$x                DATA
 0002:000080c4 00000004H ATL$__a                 DATA
 0002:000080c8 00000008H ATL$__z                 DATA
 0002:000080d0 000000a8H .edata                  DATA
 0002:00008178 00000078H .idata$2                DATA
 0002:000081f0 00000014H .idata$3                DATA
 0002:00008204 000002fcH .idata$4                DATA
 0002:00008500 00000bceH .idata$6                DATA
 0003:00000000 00000a70H .data                   DATA
 0003:00000a70 00000098H .data$r                 DATA
 0003:00000b08 00000b80H .bss                    DATA
 0004:00000000 00000220H .rsrc$01                DATA
 0004:00000220 000034f8H .rsrc$02                DATA

  Address         Publics by Value              Rva+Base       Lib:Object

 0000:00000000       ___arm64x_redirection_metadata 00000000     <absolute>
 0000:00000000       ___x64_code_ranges_to_entry_points 00000000     <absolute>
 0000:00000000       ___guard_fids_count        00000000     <absolute>
 0000:00000000       ___guard_longjmp_table     00000000     <absolute>
 0000:00000000       ___hybrid_code_map_count   00000000     <absolute>
 0000:00000000       ___hybrid_auxiliary_iat    00000000     <absolute>
 0000:00000000       ___arm64x_native_entrypoint 00000000     <absolute>
 0000:00000000       ___guard_iat_count         00000000     <absolute>
 0000:00000000       ___guard_fids_table        00000000     <absolute>
 0000:00000000       ___guard_eh_cont_count     00000000     <absolute>
 0000:00000000       __except_list              00000000     <absolute>
 0000:00000000       ___volatile_metadata       00000000     <absolute>
 0000:00000000       ___guard_iat_table         00000000     <absolute>
 0000:00000000       ___AbsoluteZero            00000000     <absolute>
 0000:00000000       ___dynamic_value_reloc_table 00000000     <absolute>
 0000:00000000       ___enclave_config          00000000     <absolute>
 0000:00000000       ___guard_longjmp_count     00000000     <absolute>
 0000:00000000       ___guard_eh_cont_table     00000000     <absolute>
 0000:00000000       ___hybrid_code_map         00000000     <absolute>
 0000:00000007       ___safe_se_handler_count   00000007     <absolute>
 0000:0000002c       __tls_array                0000002c     <absolute>
 0000:00000100       ___guard_flags             00000100     <absolute>
 0000:00000000       ___ImageBase               10000000     <linker-defined>
 0001:00000080       ?DupWide@_CW@@AAEXXZ       10001080 f   CWString.obj
 0001:0000009c       ?cw_dup@@YGXPBDAAHAAPA_W1@Z 1000109c f   CWString.obj
 0001:00000124       ?cw_memcpy@@YGHPA_WPBDH@Z  10001124 f   CWString.obj
 0001:00000150       ?cw_strcpy@@YAHPA_WPBD@Z   10001150 f   CWString.obj
 0001:00000163       ?cw_strlen@@YAHPBD@Z       10001163 f   CWString.obj
 0001:0000017c       ??0CAtlComModule@ATL@@QAE@XZ 1000117c f i OposVariant.obj
 0001:000001c1       ??0CAtlWinModule@ATL@@QAE@XZ 100011c1 f i OposVariant.obj
 0001:000001f8       ??0OposDispParms@@QAE@PAVOposVariant@@H@Z 100011f8 f   OposVariant.obj
 0001:00000269       ??1OposDispParms@@QAE@XZ   10001269 f   OposVariant.obj
 0001:00000277       ??A?$CSimpleArray@GV?$CSimpleArrayEqualHelper@G@ATL@@@ATL@@QAEAAGH@Z 10001277 f i OposVariant.obj
 0001:0000029c       ??_Estringdispid@CComTypeInfoHolder@ATL@@QAEPAXI@Z 1000129c f i OposVariant.obj
 0001:00000308       ?AtlWinModuleInit@ATL@@YGJPAU_ATL_WIN_MODULE70@1@@Z 10001308 f i OposVariant.obj
 0001:0000032e       ?AtlWinModuleTerm@ATL@@YGJPAU_ATL_WIN_MODULE70@1@PAUHINSTANCE__@@@Z 1000132e f i OposVariant.obj
 0001:00000391       ?ChangeBSTR@OposVariant@@QAEXPAPA_WAAJ@Z 10001391 f   OposVariant.obj
 0001:000003d2       ?ChangeLONG@OposVariant@@QAEXPAJAAJ@Z 100013d2 f   OposVariant.obj
 0001:00000413       ?GetLONG@OposVariant@@QAEJXZ 10001413 f   OposVariant.obj
 0001:0000042e       ?Init@CComCriticalSection@ATL@@QAEJXZ 1000142e f i OposVariant.obj
 0001:00000456       ?RemoveAll@?$CSimpleArray@GV?$CSimpleArrayEqualHelper@G@ATL@@@ATL@@QAEXXZ 10001456 f i OposVariant.obj
 0001:00000456       ?RemoveAll@?$CSimpleArray@PAUHINSTANCE__@@V?$CSimpleArrayEqualHelper@PAUHINSTANCE__@@@ATL@@@ATL@@QAEXXZ 10001456 f i atls:atlbase.obj
 0001:00000473       ?SetBSTR@OposVariant@@QAEXPA_WAAJ@Z 10001473 f   OposVariant.obj
 0001:000004a7       ?SetBSTR_Copy@OposVariant@@QAEXPA_WAAJ@Z 100014a7 f   OposVariant.obj
 0001:000004f7       ?SetBSTR_InOutPtr@OposVariant@@QAE_NPAPA_WAAJ@Z 100014f7 f   OposVariant.obj
 0001:0000052e       ?SetDispatch_Ptr@OposVariant@@QAEXPAUIDispatch@@AAJ@Z 1000152e f   OposVariant.obj
 0001:00000569       ?SetLONG@OposVariant@@QAEXJ@Z 10001569 f   OposVariant.obj
 0001:0000058b       ?SetLONG_Ptr@OposVariant@@QAEXPAJAAJ@Z 1000158b f   OposVariant.obj
 0001:000005be       ?SetString@OposVariant@@QAEXPB_WAAJ@Z 100015be f   OposVariant.obj
 0001:00000604       ?SetVARIANT_BOOL@OposVariant@@QAEXF@Z 10001604 f   OposVariant.obj
 0001:0000062e       ?Term@CAtlComModule@ATL@@QAEXXZ 1000162e f i OposVariant.obj
 0001:00000678       ?_AtlRaiseException@ATL@@YAXKK@Z 10001678 f i OposVariant.obj
 0001:0000068d       ?CreateInstance@CComClassFactory@ATL@@UAGJPAUIUnknown@@ABU_GUID@@PAPAX@Z 1000168d f i Gate.obj
 0001:000006cb       ?LockServer@CComClassFactory@ATL@@UAGJH@Z 100016cb f i Gate.obj
 0001:000006ea       ??_ECComClassFactory@ATL@@UAEPAXI@Z 100016ea f i Gate.obj
 0001:000006ea       ??_GCComClassFactory@ATL@@UAEPAXI@Z 100016ea f i Gate.obj
 0001:00000715       ?GetWindowProc@?$CWindowImplBaseT@VCWindow@ATL@@V?$CWinTraits@$0FGAAAAAA@$0A@@2@@ATL@@UAEP6GJPAUHWND__@@IIJ@ZXZ 10001715 f i Gate.obj
 0001:0000071b       ?StartWindowProc@?$CWindowImplBaseT@VCWindow@ATL@@V?$CWinTraits@$0FGAAAAAA@$0A@@2@@ATL@@SGJPAUHWND__@@IIJ@Z 1000171b f i Gate.obj
 0001:0000076f       ?ObjectMain@CComObjectRootBase@ATL@@SGX_N@Z 1000176f f i Gate.obj
 0001:0000076f       ?OnFinalMessage@?$CWindowImplBaseT@VCWindow@ATL@@V?$CWinTraits@$0FGAAAAAA@$0A@@2@@ATL@@UAEXPAUHWND__@@@Z 1000176f f i Gate.obj
 0001:00000772       ?GetTypeInfoCount@?$IDispatchImpl@UIOPOSGate@@$1?IID_IOPOSGate@@3U_GUID@@B$1?LIBID_OposGate_CCO@@3U3@B$00$0A@VCComTypeInfoHolder@ATL@@@ATL@@UAGJPAI@Z 10001772 f i Gate.obj
 0001:0000078f       ?GetTypeInfo@?$IDispatchImpl@UIOPOSGate@@$1?IID_IOPOSGate@@3U_GUID@@B$1?LIBID_OposGate_CCO@@3U3@B$00$0A@VCComTypeInfoHolder@ATL@@@ATL@@UAGJIKPAPAUITypeInfo@@@Z 1000178f f i Gate.obj
 0001:000007b3       ?GetIDsOfNames@?$IDispatchImpl@UIOPOSGate@@$1?IID_IOPOSGate@@3U_GUID@@B$1?LIBID_OposGate_CCO@@3U3@B$00$0A@VCComTypeInfoHolder@ATL@@@ATL@@UAGJABU_GUID@@PAPA_WIKPAJ@Z 100017b3 f i Gate.obj
 0001:000007d3       ?Invoke@?$IDispatchImpl@UIOPOSGate@@$1?IID_IOPOSGate@@3U_GUID@@B$1?LIBID_OposGate_CCO@@3U3@B$00$0A@VCComTypeInfoHolder@ATL@@@ATL@@UAGJJABU_GUID@@KGPAUtagDISPPARAMS@@PAUtagVARIANT@@PAUtagEXCEPINFO@@PAI@Z 100017d3 f i Gate.obj
 0001:000007e1       ?CreateControlWindow@?$CComControl@VCOPOSGate@@V?$CWindowImpl@VCOPOSGate@@VCWindow@ATL@@V?$CWinTraits@$0FGAAAAAA@$0A@@3@@ATL@@@ATL@@UAEPAUHWND__@@PAU3@AAUtagRECT@@@Z 100017e1 f i Gate.obj
 0001:00000810       ?ControlQueryInterface@?$CComControl@VCOPOSGate@@V?$CWindowImpl@VCOPOSGate@@VCWindow@ATL@@V?$CWinTraits@$0FGAAAAAA@$0A@@3@@ATL@@@ATL@@UAEJABU_GUID@@PAPAX@Z 10001810 f i Gate.obj
 0001:0000082b       ?GetClassID@?$IPersistStreamInitImpl@VCOPOSGate@@@ATL@@UAGJPAU_GUID@@@Z 1000182b f i Gate.obj
 0001:0000082b       ?GetClassID@?$IPersistStorageImpl@VCOPOSGate@@@ATL@@UAGJPAU_GUID@@@Z 1000182b f i Gate.obj
 0001:0000082b       ?GetUserClassID@?$IOleObjectImpl@VCOPOSGate@@@ATL@@UAGJPAU_GUID@@@Z 1000182b f i Gate.obj
 0001:0000084f       ?IsDirty@?$IPersistStreamInitImpl@VCOPOSGate@@@ATL@@UAGJXZ 1000184f f i Gate.obj
 0001:0000086e       ?Load@?$IPersistStreamInitImpl@VCOPOSGate@@@ATL@@UAGJPAUIStream@@@Z 1000186e f i Gate.obj
 0001:0000088d       ?Save@?$IPersistStreamInitImpl@VCOPOSGate@@@ATL@@UAGJPAUIStream@@H@Z 1000188d f i Gate.obj
 0001:000008af       ?GetSizeMax@?$IPersistStreamInitImpl@VCOPOSGate@@@ATL@@UAGJPAT_ULARGE_INTEGER@@@Z 100018af f i Gate.obj
 0001:00000a8e       ?InitNew@?$IPersistStreamInitImpl@VCOPOSGate@@@ATL@@UAGJXZ 10001a8e f i Gate.obj
 0001:00000aab       ?SOOutputCompleteDummy@COPOSGate@@MAGJJ@Z 10001aab f i Gate.obj
 0001:00000aab       ?SODataDummy@COPOSGate@@MAGJJ@Z 10001aab f i Gate.obj
 0001:00000aab       ?GetControlInfo@?$IOleControlImpl@VCOPOSGate@@@ATL@@UAGJPAUtagCONTROLINFO@@@Z 10001aab f i Gate.obj
 0001:00000aab       ?ContextSensitiveHelp@?$IOleInPlaceObjectWindowlessImpl@VCOPOSGate@@@ATL@@UAGJH@Z 10001aab f i Gate.obj
 0001:00000aab       ?QueryGetData@?$IDataObjectImpl@VCOPOSGate@@@ATL@@UAGJPAUtagFORMATETC@@@Z 10001aab f i Gate.obj
 0001:00000aab       ?OnMnemonic@?$IOleControlImpl@VCOPOSGate@@@ATL@@UAGJPAUtagMSG@@@Z 10001aab f i Gate.obj
 0001:00000aab       ?ContextSensitiveHelp@?$IOleInPlaceActiveObjectImpl@VCOPOSGate@@@ATL@@UAGJH@Z 10001aab f i Gate.obj
 0001:00000aab       ?Unfreeze@?$IViewObjectExImpl@VCOPOSGate@@@ATL@@UAGJK@Z 10001aab f i Gate.obj
 0001:00000aab       ?GetDropTarget@?$IOleInPlaceObjectWindowlessImpl@VCOPOSGate@@@ATL@@UAGJPAPAUIDropTarget@@@Z 10001aab f i Gate.obj
 0001:00000aab       ?SetColorScheme@?$IOleObjectImpl@VCOPOSGate@@@ATL@@UAGJPAUtagLOGPALETTE@@@Z 10001aab f i Gate.obj
 0001:00000ab3       ?OnAmbientPropertyChange@?$IOleControlImpl@VCOPOSGate@@@ATL@@UAGJJ@Z 10001ab3 f i Gate.obj
 0001:00000ab3       ?EnableModeless@?$IOleInPlaceActiveObjectImpl@VCOPOSGate@@@ATL@@UAGJH@Z 10001ab3 f i Gate.obj
 0001:00000ab3       ?OnFrameWindowActivate@?$IOleInPlaceActiveObjectImpl@VCOPOSGate@@@ATL@@UAGJH@Z 10001ab3 f i Gate.obj
 0001:00000ab3       ?SaveCompleted@?$IPersistStorageImpl@VCOPOSGate@@@ATL@@UAGJPAUIStorage@@@Z 10001ab3 f i Gate.obj
 0001:00000ab8       ?SetClientSite@?$IOleObjectImpl@VCOPOSGate@@@ATL@@UAGJPAUIOleClientSite@@@Z 10001ab8 f i Gate.obj
 0001:00000ad5       ?GetClientSite@?$IOleObjectImpl@VCOPOSGate@@@ATL@@UAGJPAPAUIOleClientSite@@@Z 10001ad5 f i Gate.obj
 0001:00000af2       ?SetHostNames@?$IOleObjectImpl@VCOPOSGate@@@ATL@@UAGJPB_W0@Z 10001af2 f i Gate.obj
 0001:00000af7       ?Close@?$IOleObjectImpl@VCOPOSGate@@@ATL@@UAGJK@Z 10001af7 f i Gate.obj
 0001:00000b14       ?QueryInterface@CRegObject@ATL@@UAGJABU_GUID@@PAPAX@Z 10001b14 f i Gate.obj
 0001:00000b14       ?SetMoniker@?$IOleObjectImpl@VCOPOSGate@@@ATL@@UAGJKPAUIMoniker@@@Z 10001b14 f i Gate.obj
 0001:00000b14       ?GetDataHere@?$IDataObjectImpl@VCOPOSGate@@@ATL@@UAGJPAUtagFORMATETC@@PAUtagSTGMEDIUM@@@Z 10001b14 f i Gate.obj
 0001:00000b14       ?EnumFormatEtc@?$IDataObjectImpl@VCOPOSGate@@@ATL@@UAGJKPAPAUIEnumFORMATETC@@@Z 10001b14 f i Gate.obj
 0001:00000b14       ?GetCanonicalFormatEtc@?$IDataObjectImpl@VCOPOSGate@@@ATL@@UAGJPAUtagFORMATETC@@0@Z 10001b14 f i Gate.obj
 0001:00000b14       ?GetClipboardData@?$IOleObjectImpl@VCOPOSGate@@@ATL@@UAGJKPAPAUIDataObject@@@Z 10001b14 f i Gate.obj
 0001:00000b14       ?GetRect@?$IViewObjectExImpl@VCOPOSGate@@@ATL@@UAGJKPAU_RECTL@@@Z 10001b14 f i Gate.obj
 0001:00000b1c       ?SetData@?$IDataObjectImpl@VCOPOSGate@@@ATL@@UAGJPAUtagFORMATETC@@PAUtagSTGMEDIUM@@H@Z 10001b1c f i Gate.obj
 0001:00000b1c       ?InitFromData@?$IOleObjectImpl@VCOPOSGate@@@ATL@@UAGJPAUIDataObject@@HK@Z 10001b1c f i Gate.obj
 0001:00000b1c       ?GetMoniker@?$IOleObjectImpl@VCOPOSGate@@@ATL@@UAGJKKPAPAUIMoniker@@@Z 10001b1c f i Gate.obj
 0001:00000b24       ?DoVerb@?$IOleObjectImpl@VCOPOSGate@@@ATL@@UAGJJPAUtagMSG@@PAUIOleClientSite@@JPAUHWND__@@PBUtagRECT@@@Z 10001b24 f i Gate.obj
 0001:00000c18       ?EnumVerbs@?$IOleObjectImpl@VCOPOSGate@@@ATL@@UAGJPAPAUIEnumOLEVERB@@@Z 10001c18 f i Gate.obj
 0001:00000c3a       ?HandsOffStorage@?$IPersistStorageImpl@VCOPOSGate@@@ATL@@UAGJXZ 10001c3a f i Gate.obj
 0001:00000c3a       ?IsUpToDate@?$IOleObjectImpl@VCOPOSGate@@@ATL@@UAGJXZ 10001c3a f i Gate.obj
 0001:00000c3a       ?Update@?$IOleObjectImpl@VCOPOSGate@@@ATL@@UAGJXZ 10001c3a f i Gate.obj
 0001:00000c3a       ?Release@CRegObject@ATL@@UAGKXZ 10001c3a f i Gate.obj
 0001:00000c3f       ?GetUserType@?$IOleObjectImpl@VCOPOSGate@@@ATL@@UAGJKPAPA_W@Z 10001c3f f i Gate.obj
 0001:00000c57       ?SetExtent@?$IOleObjectImpl@VCOPOSGate@@@ATL@@UAGJKPAUtagSIZE@@@Z 10001c57 f i Gate.obj
 0001:00000c77       ?GetExtent@?$IOleObjectImpl@VCOPOSGate@@@ATL@@UAGJKPAUtagSIZE@@@Z 10001c77 f i Gate.obj
 0001:00000cb5       ?Advise@?$IOleObjectImpl@VCOPOSGate@@@ATL@@UAGJPAUIAdviseSink@@PAK@Z 10001cb5 f i Gate.obj
 0001:00000cd5       ?Unadvise@?$IOleObjectImpl@VCOPOSGate@@@ATL@@UAGJK@Z 10001cd5 f i Gate.obj
 0001:00000d04       ?EnumAdvise@?$IOleObjectImpl@VCOPOSGate@@@ATL@@UAGJPAPAUIEnumSTATDATA@@@Z 10001d04 f i Gate.obj
 0001:00000d44       ?GetMiscStatus@?$IOleObjectImpl@VCOPOSGate@@@ATL@@UAGJKPAK@Z 10001d44 f i Gate.obj
 0001:00000d5c       ?GetWindow@?$IOleInPlaceActiveObjectImpl@VCOPOSGate@@@ATL@@UAGJPAPAUHWND__@@@Z 10001d5c f i Gate.obj
 0001:00000da9       ?TranslateAcceleratorW@?$IOleInPlaceActiveObjectImpl@VCOPOSGate@@@ATL@@UAGJPAUtagMSG@@@Z 10001da9 f i Gate.obj
 0001:00000e57       ?OnDocWindowActivate@?$IOleInPlaceActiveObjectImpl@VCOPOSGate@@@ATL@@UAGJH@Z 10001e57 f i Gate.obj
 0001:00000e79       ?ResizeBorder@?$IOleInPlaceActiveObjectImpl@VCOPOSGate@@@ATL@@UAGJPBUtagRECT@@PAUIOleInPlaceUIWindow@@H@Z 10001e79 f i Gate.obj
 0001:00000e7e       ?Draw@?$IViewObjectExImpl@VCOPOSGate@@@ATL@@UAGJKJPAXPAUtagDVTARGETDEVICE@@PAUHDC__@@2PBU_RECTL@@3P6GHK@ZK@Z 10001e7e f i Gate.obj
 0001:00000eb0       ?GetColorSet@?$IViewObjectExImpl@VCOPOSGate@@@ATL@@UAGJKJPAXPAUtagDVTARGETDEVICE@@PAUHDC__@@PAPAUtagLOGPALETTE@@@Z 10001eb0 f i Gate.obj
 0001:00000eb8       ?SOErrorDummy@COPOSGate@@MAGJJJJPAJ@Z 10001eb8 f i Gate.obj
 0001:00000eb8       ?Freeze@?$IViewObjectExImpl@VCOPOSGate@@@ATL@@UAGJKJPAXPAK@Z 10001eb8 f i Gate.obj
 0001:00000ec0       ?SetAdvise@?$IViewObjectExImpl@VCOPOSGate@@@ATL@@UAGJKKPAUIAdviseSink@@@Z 10001ec0 f i Gate.obj
 0001:00000edf       ?GetAdvise@?$IViewObjectExImpl@VCOPOSGate@@@ATL@@UAGJPAK0PAPAUIAdviseSink@@@Z 10001edf f i Gate.obj
 0001:00000f14       ?GetExtent@?$IViewObjectExImpl@VCOPOSGate@@@ATL@@UAGJKJPAUtagDVTARGETDEVICE@@PAUtagSIZE@@@Z 10001f14 f i Gate.obj
 0001:00000f45       ?GetViewStatus@?$IViewObjectExImpl@VCOPOSGate@@@ATL@@UAGJPAK@Z 10001f45 f i Gate.obj
 0001:00000f62       ?QueryHitPoint@?$IViewObjectExImpl@VCOPOSGate@@@ATL@@UAGJKPBUtagRECT@@UtagPOINT@@JPAK@Z 10001f62 f i Gate.obj
 0001:00000fa3       ?QueryHitRect@?$IViewObjectExImpl@VCOPOSGate@@@ATL@@UAGJKPBUtagRECT@@0JPAK@Z 10001fa3 f i Gate.obj
 0001:00000ffe       ?GetNaturalExtent@?$IViewObjectExImpl@VCOPOSGate@@@ATL@@UAGJKJPAUtagDVTARGETDEVICE@@PAUHDC__@@PAUtagExtentInfo@@PAUtagSIZE@@@Z 10001ffe f i Gate.obj
 0001:00001049       ?GetWindow@?$IOleInPlaceObjectWindowlessImpl@VCOPOSGate@@@ATL@@UAGJPAPAUHWND__@@@Z 10002049 f i Gate.obj
 0001:00001096       ?InPlaceDeactivate@?$IOleInPlaceObjectWindowlessImpl@VCOPOSGate@@@ATL@@UAGJXZ 10002096 f i Gate.obj
 0001:000010b0       ?UIDeactivate@?$IOleInPlaceObjectWindowlessImpl@VCOPOSGate@@@ATL@@UAGJXZ 100020b0 f i Gate.obj
 0001:000010ca       ?SetObjectRects@?$IOleInPlaceObjectWindowlessImpl@VCOPOSGate@@@ATL@@UAGJPBUtagRECT@@0@Z 100020ca f i Gate.obj
 0001:000010ea       ?ReactivateAndUndo@?$IOleInPlaceObjectWindowlessImpl@VCOPOSGate@@@ATL@@UAGJXZ 100020ea f i Gate.obj
 0001:000010f2       ?OnWindowMessage@?$IOleInPlaceObjectWindowlessImpl@VCOPOSGate@@@ATL@@UAGJIIJPAJ@Z 100020f2 f i Gate.obj
 0001:00001162       ?EnumConnectionPoints@?$IConnectionPointContainerImpl@VCOPOSGate@@@ATL@@UAGJPAPAUIEnumConnectionPoints@@@Z 10002162 f i Gate.obj
 0001:000012ee       ?FindConnectionPoint@?$IConnectionPointContainerImpl@VCOPOSGate@@@ATL@@UAGJABU_GUID@@PAPAUIConnectionPoint@@@Z 100022ee f i Gate.obj
 0001:00001391       ?IsDirty@?$IPersistStorageImpl@VCOPOSGate@@@ATL@@UAGJXZ 10002391 f i Gate.obj
 0001:000013c1       ?InitNew@?$IPersistStorageImpl@VCOPOSGate@@@ATL@@UAGJPAUIStorage@@@Z 100023c1 f i Gate.obj
 0001:000013f1       ?Load@?$IPersistStorageImpl@VCOPOSGate@@@ATL@@UAGJPAUIStorage@@@Z 100023f1 f i Gate.obj
 0001:0000145d       ?Save@?$IPersistStorageImpl@VCOPOSGate@@@ATL@@UAGJPAUIStorage@@H@Z 1000245d f i Gate.obj
 0001:000014d0       ?GetPages@?$ISpecifyPropertyPagesImpl@VCOPOSGate@@@ATL@@UAGJPAUtagCAUUID@@@Z 100024d0 f i Gate.obj
 0001:000014e7       ?QuickActivate@?$IQuickActivateImpl@VCOPOSGate@@@ATL@@UAGJPAUtagQACONTAINER@@PAUtagQACONTROL@@@Z 100024e7 f i Gate.obj
 0001:0000150a       ?SetContentExtent@?$IQuickActivateImpl@VCOPOSGate@@@ATL@@UAGJPAUtagSIZE@@@Z 1000250a f i Gate.obj
 0001:00001536       ?GetContentExtent@?$IQuickActivateImpl@VCOPOSGate@@@ATL@@UAGJPAUtagSIZE@@@Z 10002536 f i Gate.obj
 0001:00001570       ?GetData@?$IDataObjectImpl@VCOPOSGate@@@ATL@@UAGJPAUtagFORMATETC@@PAUtagSTGMEDIUM@@@Z 10002570 f i Gate.obj
 0001:00001593       ?DAdvise@?$IDataObjectImpl@VCOPOSGate@@@ATL@@UAGJPAUtagFORMATETC@@KPAUIAdviseSink@@PAK@Z 10002593 f i Gate.obj
 0001:000015d4       ?DUnadvise@?$IDataObjectImpl@VCOPOSGate@@@ATL@@UAGJK@Z 100025d4 f i Gate.obj
 0001:00001602       ?EnumDAdvise@?$IDataObjectImpl@VCOPOSGate@@@ATL@@UAGJPAPAUIEnumSTATDATA@@@Z 10002602 f i Gate.obj
 0001:00001641       ?GetClassInfoW@?$IProvideClassInfo2Impl@$1?CLSID_OPOSGate@@3U_GUID@@B$1?DIID__IOPOSGateEvents@@3U2@B$1?LIBID_OposGate_CCO@@3U2@B$00$0A@VCComTypeInfoHolder@ATL@@@ATL@@UAGJPAPAUITypeInfo@@@Z 10002641 f i Gate.obj
 0001:00001657       ?GetGUID@?$IProvideClassInfo2Impl@$1?CLSID_OPOSGate@@3U_GUID@@B$1?DIID__IOPOSGateEvents@@3U2@B$1?LIBID_OposGate_CCO@@3U2@B$00$0A@VCComTypeInfoHolder@ATL@@@ATL@@UAGJKPAU_GUID@@@Z 10002657 f i Gate.obj
 0001:00001695       __get_startup_argv_mode    10002695 f i LIBCMT:argv_mode.obj
 0001:00001695       ?FAccessAllowed@?$IObjectSafetyImpl@VCOPOSGate@@$02@ATL@@MAEHXZ 10002695 f i Gate.obj
 0001:00001699       ?GetInterfaceSafetyOptions@?$IObjectSafetyImpl@VCOPOSGate@@$02@ATL@@UAGJABU_GUID@@PAK1@Z 10002699 f i Gate.obj
 0001:0000170d       ?SetInterfaceSafetyOptions@?$IObjectSafetyImpl@VCOPOSGate@@$02@ATL@@UAGJABU_GUID@@KK@Z 1000270d f i Gate.obj
 0001:00001787       ?_LocCPQueryInterface@?$IConnectionPointImpl@VCOPOSGate@@$1?IID_IPropertyNotifySink@@3U_GUID@@BVCComDynamicUnkArray@ATL@@@ATL@@UAGJABU_GUID@@PAPAX@Z 10002787 f i Gate.obj
 0001:00001787       ?_LocCPQueryInterface@?$IConnectionPointImpl@VCOPOSGate@@$1?DIID__IOPOSGateEvents@@3U_GUID@@BVCComDynamicUnkArray@ATL@@@ATL@@UAGJABU_GUID@@PAPAX@Z 10002787 f i Gate.obj
 0001:000017d4       ?GetConnectionInterface@?$IConnectionPointImpl@VCOPOSGate@@$1?IID_IPropertyNotifySink@@3U_GUID@@BVCComDynamicUnkArray@ATL@@@ATL@@UAGJPAU_GUID@@@Z 100027d4 f i Gate.obj
 0001:000017f8       ?GetConnectionPointContainer@?$IConnectionPointImpl@VCOPOSGate@@$1?IID_IPropertyNotifySink@@3U_GUID@@BVCComDynamicUnkArray@ATL@@@ATL@@UAGJPAPAUIConnectionPointContainer@@@Z 100027f8 f i Gate.obj
 0001:0000181b       ?Advise@?$IConnectionPointImpl@VCOPOSGate@@$1?IID_IPropertyNotifySink@@3U_GUID@@BVCComDynamicUnkArray@ATL@@@ATL@@UAGJPAUIUnknown@@PAK@Z 1000281b f i Gate.obj
 0001:0000181b       ?Advise@?$IConnectionPointImpl@VCOPOSGate@@$1?DIID__IOPOSGateEvents@@3U_GUID@@BVCComDynamicUnkArray@ATL@@@ATL@@UAGJPAUIUnknown@@PAK@Z 1000281b f i Gate.obj
 0001:000018bb       ?Unadvise@?$IConnectionPointImpl@VCOPOSGate@@$1?IID_IPropertyNotifySink@@3U_GUID@@BVCComDynamicUnkArray@ATL@@@ATL@@UAGJK@Z 100028bb f i Gate.obj
 0001:000018bb       ?Unadvise@?$IConnectionPointImpl@VCOPOSGate@@$1?DIID__IOPOSGateEvents@@3U_GUID@@BVCComDynamicUnkArray@ATL@@@ATL@@UAGJK@Z 100028bb f i Gate.obj
 0001:000018fb       ?EnumConnections@?$IConnectionPointImpl@VCOPOSGate@@$1?IID_IPropertyNotifySink@@3U_GUID@@BVCComDynamicUnkArray@ATL@@@ATL@@UAGJPAPAUIEnumConnections@@@Z 100028fb f i Gate.obj
 0001:000018fb       ?EnumConnections@?$IConnectionPointImpl@VCOPOSGate@@$1?DIID__IOPOSGateEvents@@3U_GUID@@BVCComDynamicUnkArray@ATL@@@ATL@@UAGJPAPAUIEnumConnections@@@Z 100028fb f i Gate.obj
 0001:000019f6       ?GetCategoryMap@CComObjectRootBase@ATL@@SAPBU_ATL_CATMAP_ENTRY@2@XZ 100029f6 f i Gate.obj
 0001:000019f6       ?GetObjectDescription@?$CComCoClass@VCOPOSGate@@$1?CLSID_OPOSGate@@3U_GUID@@B@ATL@@SGPB_WXZ 100029f6 f i Gate.obj
 0001:000019f9       ?GetConnectionInterface@?$IConnectionPointImpl@VCOPOSGate@@$1?DIID__IOPOSGateEvents@@3U_GUID@@BVCComDynamicUnkArray@ATL@@@ATL@@UAGJPAU_GUID@@@Z 100029f9 f i Gate.obj
 0001:00001a1d       ?GetConnectionPointContainer@?$IConnectionPointImpl@VCOPOSGate@@$1?DIID__IOPOSGateEvents@@3U_GUID@@BVCComDynamicUnkArray@ATL@@@ATL@@UAGJPAPAUIConnectionPointContainer@@@Z 10002a1d f i Gate.obj
 0001:00001a40       ?UpdateRegistry@COPOSGate@@SGJH@Z 10002a40 f i Gate.obj
 0001:00001a58       ?ProcessWindowMessage@COPOSGate@@UAEHPAUHWND__@@IIJAAJK@Z 10002a58 f i Gate.obj
 0001:00001aa1       ?SODirectIO@COPOSGate@@MAGJJPAJPAPA_W@Z 10002aa1 f i Gate.obj
 0001:00001aea       ?SOStatusUpdate@COPOSGate@@MAGJJ@Z 10002aea f i Gate.obj
 0001:00001b23       ?Lock@CAtlModule@ATL@@UAEJXZ 10002b23 f i Gate.obj
 0001:00001b2d       ?Unlock@CAtlModule@ATL@@UAEJXZ 10002b2d f i Gate.obj
 0001:00001b37       ?GetLockCount@CAtlModule@ATL@@UAEJXZ 10002b37 f i Gate.obj
 0001:00001b3b       ?GetGITPtr@CAtlModule@ATL@@UAEJPAPAUIGlobalInterfaceTable@@@Z 10002b3b f i Gate.obj
 0001:00001b87       ?AddCommonRGSReplacements@?$CAtlModuleT@VCComModule@ATL@@@ATL@@UAEJPAUIRegistrarBase@@@Z 10002b87 f i Gate.obj
 0001:00001ba1       ?CreateInstance@?$CComCreator@V?$CComObjectCached@VCComClassFactory@ATL@@@ATL@@@ATL@@SGJPAXABU_GUID@@PAPAX@Z 10002ba1 f i Gate.obj
 0001:00001c41       ?CreateInstance@?$CComCreator2@V?$CComCreator@V?$CComObject@VCOPOSGate@@@ATL@@@ATL@@V?$CComCreator@V?$CComAggObject@VCOPOSGate@@@ATL@@@2@@ATL@@SGJPAXABU_GUID@@PAPAX@Z 10002c41 f i Gate.obj
 0001:00001c61       ?UpdateRegistryFromResourceD@CComModule@ATL@@UAGJPB_WHPAU_ATL_REGMAP_ENTRY@2@@Z 10002c61 f i Gate.obj
 0001:00001c61       ?UpdateRegistryFromResourceD@CComModule@ATL@@UAGJIHPAU_ATL_REGMAP_ENTRY@2@@Z 10002c61 f i Gate.obj
 0001:00001c69       ?UpdateRegistryFromResource@CComModule@ATL@@UAGJPB_WHPAU_ATL_REGMAP_ENTRY@2@@Z 10002c69 f i Gate.obj
 0001:00001c72       ?UpdateRegistryFromResource@CComModule@ATL@@UAGJIHPAU_ATL_REGMAP_ENTRY@2@@Z 10002c72 f i Gate.obj
 0001:00001c7b       ?AddRef@?$CComObjectCached@VCComClassFactory@ATL@@@ATL@@UAGKXZ 10002c7b f i Gate.obj
 0001:00001ca2       ?Release@?$CComObjectCached@VCComClassFactory@ATL@@@ATL@@UAGKXZ 10002ca2 f i Gate.obj
 0001:00001cd8       ?QueryInterface@?$CComObjectCached@VCComClassFactory@ATL@@@ATL@@UAGJABU_GUID@@PAPAX@Z 10002cd8 f i Gate.obj
 0001:00001cf2       ??_E?$CComObjectCached@VCComClassFactory@ATL@@@ATL@@UAEPAXI@Z 10002cf2 f i Gate.obj
 0001:00001cf2       ??_G?$CComObjectCached@VCComClassFactory@ATL@@@ATL@@UAEPAXI@Z 10002cf2 f i Gate.obj
 0001:00001d14       ??_GCComModule@ATL@@UAEPAXI@Z 10002d14 f i Gate.obj
 0001:00001d14       ??_ECComModule@ATL@@UAEPAXI@Z 10002d14 f i Gate.obj
 0001:00001d3c       ?Next@?$CComEnumImpl@UIEnumConnectionPoints@@$1?_GUID_b196b285_bab4_101a_b69c_00aa00341d07@@3U__s_GUID@@BPAUIConnectionPoint@@V?$_CopyInterface@UIConnectionPoint@@@ATL@@@ATL@@UAGJKPAPAUIConnectionPoint@@PAK@Z 10002d3c f i Gate.obj
 0001:00001e13       ?Skip@?$CComEnumImpl@UIEnumConnectionPoints@@$1?_GUID_b196b285_bab4_101a_b69c_00aa00341d07@@3U__s_GUID@@BPAUIConnectionPoint@@V?$_CopyInterface@UIConnectionPoint@@@ATL@@@ATL@@UAGJK@Z 10002e13 f i Gate.obj
 0001:00001e40       ?Reset@?$CComEnumImpl@UIEnumConnections@@$1?_GUID_b196b287_bab4_101a_b69c_00aa00341d07@@3U__s_GUID@@BUtagCONNECTDATA@@V?$_Copy@UtagCONNECTDATA@@@ATL@@@ATL@@UAGJXZ 10002e40 f i Gate.obj
 0001:00001e40       ?Reset@?$CComEnumImpl@UIEnumConnectionPoints@@$1?_GUID_b196b285_bab4_101a_b69c_00aa00341d07@@3U__s_GUID@@BPAUIConnectionPoint@@V?$_CopyInterface@UIConnectionPoint@@@ATL@@@ATL@@UAGJXZ 10002e40 f i Gate.obj
 0001:00001e52       ?Clone@?$CComEnumImpl@UIEnumConnectionPoints@@$1?_GUID_b196b285_bab4_101a_b69c_00aa00341d07@@3U__s_GUID@@BPAUIConnectionPoint@@V?$_CopyInterface@UIConnectionPoint@@@ATL@@@ATL@@UAGJPAPAUIEnumConnectionPoints@@@Z 10002e52 f i Gate.obj
 0001:00001f33       ?AddRef@?$CComObject@V?$CComEnum@UIEnumConnections@@$1?_GUID_b196b287_bab4_101a_b69c_00aa00341d07@@3U__s_GUID@@BUtagCONNECTDATA@@V?$_Copy@UtagCONNECTDATA@@@ATL@@VCComSingleThreadModel@6@@ATL@@@ATL@@UAGKXZ 10002f33 f i Gate.obj
 0001:00001f33       ?AddRef@?$CComObject@V?$CComEnum@UIEnumConnectionPoints@@$1?_GUID_b196b285_bab4_101a_b69c_00aa00341d07@@3U__s_GUID@@BPAUIConnectionPoint@@V?$_CopyInterface@UIConnectionPoint@@@ATL@@VCComSingleThreadModel@6@@ATL@@@ATL@@UAGKXZ 10002f33 f i Gate.obj
 0001:00001f44       ?Release@?$CComObject@V?$CComEnum@UIEnumConnections@@$1?_GUID_b196b287_bab4_101a_b69c_00aa00341d07@@3U__s_GUID@@BUtagCONNECTDATA@@V?$_Copy@UtagCONNECTDATA@@@ATL@@VCComSingleThreadModel@6@@ATL@@@ATL@@UAGKXZ 10002f44 f i Gate.obj
 0001:00001f44       ?Release@?$CComObject@V?$CComEnum@UIEnumConnectionPoints@@$1?_GUID_b196b285_bab4_101a_b69c_00aa00341d07@@3U__s_GUID@@BPAUIConnectionPoint@@V?$_CopyInterface@UIConnectionPoint@@@ATL@@VCComSingleThreadModel@6@@ATL@@@ATL@@UAGKXZ 10002f44 f i Gate.obj
 0001:00001f80       ?QueryInterface@?$CComObject@V?$CComEnum@UIEnumConnectionPoints@@$1?_GUID_b196b285_bab4_101a_b69c_00aa00341d07@@3U__s_GUID@@BPAUIConnectionPoint@@V?$_CopyInterface@UIConnectionPoint@@@ATL@@VCComSingleThreadModel@6@@ATL@@@ATL@@UAGJABU_GUID@@PAPAX@Z 10002f80 f i Gate.obj
 0001:00001f9a       ??_E?$CComObject@V?$CComEnum@UIEnumConnectionPoints@@$1?_GUID_b196b285_bab4_101a_b69c_00aa00341d07@@3U__s_GUID@@BPAUIConnectionPoint@@V?$_CopyInterface@UIConnectionPoint@@@ATL@@VCComSingleThreadModel@6@@ATL@@@ATL@@UAEPAXI@Z 10002f9a f i Gate.obj
 0001:00001f9a       ??_G?$CComObject@V?$CComEnum@UIEnumConnectionPoints@@$1?_GUID_b196b285_bab4_101a_b69c_00aa00341d07@@3U__s_GUID@@BPAUIConnectionPoint@@V?$_CopyInterface@UIConnectionPoint@@@ATL@@VCComSingleThreadModel@6@@ATL@@@ATL@@UAEPAXI@Z 10002f9a f i Gate.obj
 0001:00001fbc       ?AddRef@CRegObject@ATL@@UAGKXZ 10002fbc f i Gate.obj
 0001:00001fc2       ?AddReplacement@CRegObject@ATL@@UAGJPB_W0@Z 10002fc2 f i Gate.obj
 0001:00001ffb       ?ClearReplacements@CRegObject@ATL@@UAGJXZ 10002ffb f i Gate.obj
 0001:0000200d       ??_ECRegObject@ATL@@UAEPAXI@Z 1000300d f i Gate.obj
 0001:0000200d       ??_GCRegObject@ATL@@UAEPAXI@Z 1000300d f i Gate.obj
 0001:0000202f       ?AddRef@?$CComAggObject@VCOPOSGate@@@ATL@@UAGKXZ 1000302f f i Gate.obj
 0001:00002040       ?Release@?$CComAggObject@VCOPOSGate@@@ATL@@UAGKXZ 10003040 f i Gate.obj
 0001:0000207c       ?QueryInterface@?$CComAggObject@VCOPOSGate@@@ATL@@UAGJABU_GUID@@PAPAX@Z 1000307c f i Gate.obj
 0001:000020cb       ?AddRef@?$CComContainedObject@VCOPOSGate@@@ATL@@UAGKXZ 100030cb f i Gate.obj
 0001:000020e1       ?Release@?$CComContainedObject@VCOPOSGate@@@ATL@@UAGKXZ 100030e1 f i Gate.obj
 0001:000020f7       ?QueryInterface@?$CComContainedObject@VCOPOSGate@@@ATL@@UAGJABU_GUID@@PAPAX@Z 100030f7 f i Gate.obj
 0001:00002112       ??_G?$CComAggObject@VCOPOSGate@@@ATL@@UAEPAXI@Z 10003112 f i Gate.obj
 0001:00002112       ??_E?$CComAggObject@VCOPOSGate@@@ATL@@UAEPAXI@Z 10003112 f i Gate.obj
 0001:00002137       ?AddRef@?$CComObject@VCOPOSGate@@@ATL@@UAGKXZ 10003137 f i Gate.obj
 0001:0000214e       ?Release@?$CComObject@VCOPOSGate@@@ATL@@UAGKXZ 1000314e f i Gate.obj
 0001:00002190       ?QueryInterface@?$CComObject@VCOPOSGate@@@ATL@@UAGJABU_GUID@@PAPAX@Z 10003190 f i Gate.obj
 0001:000021aa       ?OnDrawAdvanced@CComControlBase@ATL@@UAEJAAUATL_DRAWINFO@@@Z 100031aa f i Gate.obj
 0001:0000229d       ?Next@?$CComEnumImpl@UIEnumConnections@@$1?_GUID_b196b287_bab4_101a_b69c_00aa00341d07@@3U__s_GUID@@BUtagCONNECTDATA@@V?$_Copy@UtagCONNECTDATA@@@ATL@@@ATL@@UAGJKPAUtagCONNECTDATA@@PAK@Z 1000329d f i Gate.obj
 0001:00002374       ?Skip@?$CComEnumImpl@UIEnumConnections@@$1?_GUID_b196b287_bab4_101a_b69c_00aa00341d07@@3U__s_GUID@@BUtagCONNECTDATA@@V?$_Copy@UtagCONNECTDATA@@@ATL@@@ATL@@UAGJK@Z 10003374 f i Gate.obj
 0001:000023a1       ?Clone@?$CComEnumImpl@UIEnumConnections@@$1?_GUID_b196b287_bab4_101a_b69c_00aa00341d07@@3U__s_GUID@@BUtagCONNECTDATA@@V?$_Copy@UtagCONNECTDATA@@@ATL@@@ATL@@UAGJPAPAUIEnumConnections@@@Z 100033a1 f i Gate.obj
 0001:00002482       ?QueryInterface@?$CComObject@V?$CComEnum@UIEnumConnections@@$1?_GUID_b196b287_bab4_101a_b69c_00aa00341d07@@3U__s_GUID@@BUtagCONNECTDATA@@V?$_Copy@UtagCONNECTDATA@@@ATL@@VCComSingleThreadModel@6@@ATL@@@ATL@@UAGJABU_GUID@@PAPAX@Z 10003482 f i Gate.obj
 0001:0000249c       ??_E?$CComObject@V?$CComEnum@UIEnumConnections@@$1?_GUID_b196b287_bab4_101a_b69c_00aa00341d07@@3U__s_GUID@@BUtagCONNECTDATA@@V?$_Copy@UtagCONNECTDATA@@@ATL@@VCComSingleThreadModel@6@@ATL@@@ATL@@UAEPAXI@Z 1000349c f i Gate.obj
 0001:0000249c       ??_G?$CComObject@V?$CComEnum@UIEnumConnections@@$1?_GUID_b196b287_bab4_101a_b69c_00aa00341d07@@3U__s_GUID@@BUtagCONNECTDATA@@V?$_Copy@UtagCONNECTDATA@@@ATL@@VCComSingleThreadModel@6@@ATL@@@ATL@@UAEPAXI@Z 1000349c f i Gate.obj
 0001:000024be       ??_E?$CComObject@VCOPOSGate@@@ATL@@W3AEPAXI@Z 100034be f i Gate.obj
 0001:000024c6       ??_E?$CComObject@VCOPOSGate@@@ATL@@WEM@AEPAXI@Z 100034c6 f i Gate.obj
 0001:000024ce       ?QueryInterface@?$CComObject@VCOPOSGate@@@ATL@@WHA@AGJABU_GUID@@PAPAX@Z 100034ce f i Gate.obj
 0001:000024d8       ?AddRef@?$CComObject@VCOPOSGate@@@ATL@@WHA@AGKXZ 100034d8 f i Gate.obj
 0001:000024e2       ?Release@?$CComObject@VCOPOSGate@@@ATL@@WHA@AGKXZ 100034e2 f i Gate.obj
 0001:000024ec       ?QueryInterface@?$CComObject@VCOPOSGate@@@ATL@@WHE@AGJABU_GUID@@PAPAX@Z 100034ec f i Gate.obj
 0001:000024f6       ?AddRef@?$CComObject@VCOPOSGate@@@ATL@@WHE@AGKXZ 100034f6 f i Gate.obj
 0001:00002500       ?Release@?$CComObject@VCOPOSGate@@@ATL@@WHE@AGKXZ 10003500 f i Gate.obj
 0001:0000250a       ?QueryInterface@?$CComObject@VCOPOSGate@@@ATL@@WHI@AGJABU_GUID@@PAPAX@Z 1000350a f i Gate.obj
 0001:00002514       ?AddRef@?$CComObject@VCOPOSGate@@@ATL@@WHI@AGKXZ 10003514 f i Gate.obj
 0001:0000251e       ?Release@?$CComObject@VCOPOSGate@@@ATL@@WHI@AGKXZ 1000351e f i Gate.obj
 0001:00002528       ?QueryInterface@?$CComObject@VCOPOSGate@@@ATL@@WHM@AGJABU_GUID@@PAPAX@Z 10003528 f i Gate.obj
 0001:00002532       ?AddRef@?$CComObject@VCOPOSGate@@@ATL@@WHM@AGKXZ 10003532 f i Gate.obj
 0001:0000253c       ?Release@?$CComObject@VCOPOSGate@@@ATL@@WHM@AGKXZ 1000353c f i Gate.obj
 0001:00002546       ?QueryInterface@?$CComObject@VCOPOSGate@@@ATL@@WIA@AGJABU_GUID@@PAPAX@Z 10003546 f i Gate.obj
 0001:00002553       ?AddRef@?$CComObject@VCOPOSGate@@@ATL@@WIA@AGKXZ 10003553 f i Gate.obj
 0001:00002560       ?Release@?$CComObject@VCOPOSGate@@@ATL@@WIA@AGKXZ 10003560 f i Gate.obj
 0001:0000256d       ?QueryInterface@?$CComObject@VCOPOSGate@@@ATL@@WIE@AGJABU_GUID@@PAPAX@Z 1000356d f i Gate.obj
 0001:0000257a       ?AddRef@?$CComObject@VCOPOSGate@@@ATL@@WIE@AGKXZ 1000357a f i Gate.obj
 0001:00002587       ?Release@?$CComObject@VCOPOSGate@@@ATL@@WIE@AGKXZ 10003587 f i Gate.obj
 0001:00002594       ?QueryInterface@?$CComObject@VCOPOSGate@@@ATL@@WII@AGJABU_GUID@@PAPAX@Z 10003594 f i Gate.obj
 0001:000025a1       ?AddRef@?$CComObject@VCOPOSGate@@@ATL@@WII@AGKXZ 100035a1 f i Gate.obj
 0001:000025ae       ?Release@?$CComObject@VCOPOSGate@@@ATL@@WII@AGKXZ 100035ae f i Gate.obj
 0001:000025bb       ?QueryInterface@?$CComObject@VCOPOSGate@@@ATL@@WIM@AGJABU_GUID@@PAPAX@Z 100035bb f i Gate.obj
 0001:000025c8       ?AddRef@?$CComObject@VCOPOSGate@@@ATL@@WIM@AGKXZ 100035c8 f i Gate.obj
 0001:000025d5       ?Release@?$CComObject@VCOPOSGate@@@ATL@@WIM@AGKXZ 100035d5 f i Gate.obj
 0001:000025e2       ?QueryInterface@?$CComObject@VCOPOSGate@@@ATL@@WJA@AGJABU_GUID@@PAPAX@Z 100035e2 f i Gate.obj
 0001:000025ef       ?AddRef@?$CComObject@VCOPOSGate@@@ATL@@WJA@AGKXZ 100035ef f i Gate.obj
 0001:000025fc       ?Release@?$CComObject@VCOPOSGate@@@ATL@@WJA@AGKXZ 100035fc f i Gate.obj
 0001:00002609       ?QueryInterface@?$CComObject@VCOPOSGate@@@ATL@@WJE@AGJABU_GUID@@PAPAX@Z 10003609 f i Gate.obj
 0001:00002616       ?AddRef@?$CComObject@VCOPOSGate@@@ATL@@WJE@AGKXZ 10003616 f i Gate.obj
 0001:00002623       ?Release@?$CComObject@VCOPOSGate@@@ATL@@WJE@AGKXZ 10003623 f i Gate.obj
 0001:00002630       ?QueryInterface@?$CComObject@VCOPOSGate@@@ATL@@WJI@AGJABU_GUID@@PAPAX@Z 10003630 f i Gate.obj
 0001:0000263d       ?AddRef@?$CComObject@VCOPOSGate@@@ATL@@WJI@AGKXZ 1000363d f i Gate.obj
 0001:0000264a       ?Release@?$CComObject@VCOPOSGate@@@ATL@@WJI@AGKXZ 1000364a f i Gate.obj
 0001:00002657       ?QueryInterface@?$CComObject@VCOPOSGate@@@ATL@@WJM@AGJABU_GUID@@PAPAX@Z 10003657 f i Gate.obj
 0001:00002664       ?AddRef@?$CComObject@VCOPOSGate@@@ATL@@WJM@AGKXZ 10003664 f i Gate.obj
 0001:00002671       ?Release@?$CComObject@VCOPOSGate@@@ATL@@WJM@AGKXZ 10003671 f i Gate.obj
 0001:0000267e       ?QueryInterface@?$CComObject@VCOPOSGate@@@ATL@@WKA@AGJABU_GUID@@PAPAX@Z 1000367e f i Gate.obj
 0001:0000268b       ?AddRef@?$CComObject@VCOPOSGate@@@ATL@@WKA@AGKXZ 1000368b f i Gate.obj
 0001:00002698       ?Release@?$CComObject@VCOPOSGate@@@ATL@@WKA@AGKXZ 10003698 f i Gate.obj
 0001:000026a5       ?AddRef@?$CComObject@VCOPOSGate@@@ATL@@WKI@AGKXZ 100036a5 f i Gate.obj
 0001:000026b2       ?Release@?$CComObject@VCOPOSGate@@@ATL@@WKI@AGKXZ 100036b2 f i Gate.obj
 0001:000026bf       ?AddRef@?$CComObject@VCOPOSGate@@@ATL@@WLE@AGKXZ 100036bf f i Gate.obj
 0001:000026cc       ?Release@?$CComObject@VCOPOSGate@@@ATL@@WLE@AGKXZ 100036cc f i Gate.obj
 0001:000026d9       ??_E?$CComContainedObject@VCOPOSGate@@@ATL@@W3AEPAXI@Z 100036d9 f i Gate.obj
 0001:000026e1       ??_E?$CComContainedObject@VCOPOSGate@@@ATL@@WEM@AEPAXI@Z 100036e1 f i Gate.obj
 0001:000026e9       ?QueryInterface@?$CComContainedObject@VCOPOSGate@@@ATL@@WHA@AGJABU_GUID@@PAPAX@Z 100036e9 f i Gate.obj
 0001:000026f3       ?AddRef@?$CComContainedObject@VCOPOSGate@@@ATL@@WHA@AGKXZ 100036f3 f i Gate.obj
 0001:000026fd       ?Release@?$CComContainedObject@VCOPOSGate@@@ATL@@WHA@AGKXZ 100036fd f i Gate.obj
 0001:00002707       ?QueryInterface@?$CComContainedObject@VCOPOSGate@@@ATL@@WHE@AGJABU_GUID@@PAPAX@Z 10003707 f i Gate.obj
 0001:00002711       ?AddRef@?$CComContainedObject@VCOPOSGate@@@ATL@@WHE@AGKXZ 10003711 f i Gate.obj
 0001:0000271b       ?Release@?$CComContainedObject@VCOPOSGate@@@ATL@@WHE@AGKXZ 1000371b f i Gate.obj
 0001:00002725       ?QueryInterface@?$CComContainedObject@VCOPOSGate@@@ATL@@WHI@AGJABU_GUID@@PAPAX@Z 10003725 f i Gate.obj
 0001:0000272f       ?AddRef@?$CComContainedObject@VCOPOSGate@@@ATL@@WHI@AGKXZ 1000372f f i Gate.obj
 0001:00002739       ?Release@?$CComContainedObject@VCOPOSGate@@@ATL@@WHI@AGKXZ 10003739 f i Gate.obj
 0001:00002743       ?QueryInterface@?$CComContainedObject@VCOPOSGate@@@ATL@@WHM@AGJABU_GUID@@PAPAX@Z 10003743 f i Gate.obj
 0001:0000274d       ?AddRef@?$CComContainedObject@VCOPOSGate@@@ATL@@WHM@AGKXZ 1000374d f i Gate.obj
 0001:00002757       ?Release@?$CComContainedObject@VCOPOSGate@@@ATL@@WHM@AGKXZ 10003757 f i Gate.obj
 0001:00002761       ?QueryInterface@?$CComContainedObject@VCOPOSGate@@@ATL@@WIA@AGJABU_GUID@@PAPAX@Z 10003761 f i Gate.obj
 0001:0000276e       ?AddRef@?$CComContainedObject@VCOPOSGate@@@ATL@@WIA@AGKXZ 1000376e f i Gate.obj
 0001:0000277b       ?Release@?$CComContainedObject@VCOPOSGate@@@ATL@@WIA@AGKXZ 1000377b f i Gate.obj
 0001:00002788       ?QueryInterface@?$CComContainedObject@VCOPOSGate@@@ATL@@WIE@AGJABU_GUID@@PAPAX@Z 10003788 f i Gate.obj
 0001:00002795       ?AddRef@?$CComContainedObject@VCOPOSGate@@@ATL@@WIE@AGKXZ 10003795 f i Gate.obj
 0001:000027a2       ?Release@?$CComContainedObject@VCOPOSGate@@@ATL@@WIE@AGKXZ 100037a2 f i Gate.obj
 0001:000027af       ?QueryInterface@?$CComContainedObject@VCOPOSGate@@@ATL@@WII@AGJABU_GUID@@PAPAX@Z 100037af f i Gate.obj
 0001:000027bc       ?AddRef@?$CComContainedObject@VCOPOSGate@@@ATL@@WII@AGKXZ 100037bc f i Gate.obj
 0001:000027c9       ?Release@?$CComContainedObject@VCOPOSGate@@@ATL@@WII@AGKXZ 100037c9 f i Gate.obj
 0001:000027d6       ?QueryInterface@?$CComContainedObject@VCOPOSGate@@@ATL@@WIM@AGJABU_GUID@@PAPAX@Z 100037d6 f i Gate.obj
 0001:000027e3       ?AddRef@?$CComContainedObject@VCOPOSGate@@@ATL@@WIM@AGKXZ 100037e3 f i Gate.obj
 0001:000027f0       ?Release@?$CComContainedObject@VCOPOSGate@@@ATL@@WIM@AGKXZ 100037f0 f i Gate.obj
 0001:000027fd       ?QueryInterface@?$CComContainedObject@VCOPOSGate@@@ATL@@WJA@AGJABU_GUID@@PAPAX@Z 100037fd f i Gate.obj
 0001:0000280a       ?AddRef@?$CComContainedObject@VCOPOSGate@@@ATL@@WJA@AGKXZ 1000380a f i Gate.obj
 0001:00002817       ?Release@?$CComContainedObject@VCOPOSGate@@@ATL@@WJA@AGKXZ 10003817 f i Gate.obj
 0001:00002824       ?QueryInterface@?$CComContainedObject@VCOPOSGate@@@ATL@@WJE@AGJABU_GUID@@PAPAX@Z 10003824 f i Gate.obj
 0001:00002831       ?AddRef@?$CComContainedObject@VCOPOSGate@@@ATL@@WJE@AGKXZ 10003831 f i Gate.obj
 0001:0000283e       ?Release@?$CComContainedObject@VCOPOSGate@@@ATL@@WJE@AGKXZ 1000383e f i Gate.obj
 0001:0000284b       ?QueryInterface@?$CComContainedObject@VCOPOSGate@@@ATL@@WJI@AGJABU_GUID@@PAPAX@Z 1000384b f i Gate.obj
 0001:00002858       ?AddRef@?$CComContainedObject@VCOPOSGate@@@ATL@@WJI@AGKXZ 10003858 f i Gate.obj
 0001:00002865       ?Release@?$CComContainedObject@VCOPOSGate@@@ATL@@WJI@AGKXZ 10003865 f i Gate.obj
 0001:00002872       ?QueryInterface@?$CComContainedObject@VCOPOSGate@@@ATL@@WJM@AGJABU_GUID@@PAPAX@Z 10003872 f i Gate.obj
 0001:0000287f       ?AddRef@?$CComContainedObject@VCOPOSGate@@@ATL@@WJM@AGKXZ 1000387f f i Gate.obj
 0001:0000288c       ?Release@?$CComContainedObject@VCOPOSGate@@@ATL@@WJM@AGKXZ 1000388c f i Gate.obj
 0001:00002899       ?QueryInterface@?$CComContainedObject@VCOPOSGate@@@ATL@@WKA@AGJABU_GUID@@PAPAX@Z 10003899 f i Gate.obj
 0001:000028a6       ?AddRef@?$CComContainedObject@VCOPOSGate@@@ATL@@WKA@AGKXZ 100038a6 f i Gate.obj
 0001:000028b3       ?Release@?$CComContainedObject@VCOPOSGate@@@ATL@@WKA@AGKXZ 100038b3 f i Gate.obj
 0001:000028c0       ?AddRef@?$CComContainedObject@VCOPOSGate@@@ATL@@WKI@AGKXZ 100038c0 f i Gate.obj
 0001:000028cd       ?Release@?$CComContainedObject@VCOPOSGate@@@ATL@@WKI@AGKXZ 100038cd f i Gate.obj
 0001:000028da       ?AddRef@?$CComContainedObject@VCOPOSGate@@@ATL@@WLE@AGKXZ 100038da f i Gate.obj
 0001:000028e7       ?Release@?$CComContainedObject@VCOPOSGate@@@ATL@@WLE@AGKXZ 100038e7 f i Gate.obj
 0001:000028f4       ??$?4UITypeInfo2@@@?$CComPtr@UITypeInfo@@@ATL@@QAEPAUITypeInfo@@ABV?$CComPtr@UITypeInfo2@@@1@@Z 100038f4 f i Gate.obj
 0001:00002921       ??$AtlAdd@K@ATL@@YAJPAKKK@Z 10003921 f i Gate.obj
 0001:00002944       ??$AtlAdd@_K@ATL@@YAJPA_K_K1@Z 10003944 f i Gate.obj
 0001:0000297c       ??$AtlAddThrow@K@ATL@@YAKKK@Z 1000397c f i Gate.obj
 0001:000029a2       ??$AtlModuleRegisterWndClassInfoT@VAtlModuleRegisterWndClassInfoParamW@ATL@@@ATL@@YAGPAU_ATL_BASE_MODULE70@0@PAU_ATL_WIN_MODULE70@0@PAU_ATL_WNDCLASSINFOW@0@PAP6GJPAUHWND__@@IIJ@ZVAtlModuleRegisterWndClassInfoParamW@0@@Z 100039a2 f i Gate.obj
 0001:00002af0       ??$AtlMultiply@H@ATL@@YAJPAHHH@Z 10003af0 f i Gate.obj
 0001:00002b28       ??$AtlMultiply@K@ATL@@YAJPAKKK@Z 10003b28 f i Gate.obj
 0001:00002b28       ??$AtlMultiply@I@ATL@@YAJPAIII@Z 10003b28 f i Gate.obj
 0001:00002b4a       ??$AtlMultiplyThrow@I@ATL@@YAIII@Z 10003b4a f i Gate.obj
 0001:00002b70       ??0?$CComAggObject@VCOPOSGate@@@ATL@@QAE@PAX@Z 10003b70 f i Gate.obj
 0001:00002b9d       ??0?$CComContainedObject@VCOPOSGate@@@ATL@@QAE@PAX@Z 10003b9d f i Gate.obj
 0001:00002c56       ??0?$CComObject@V?$CComEnum@UIEnumConnectionPoints@@$1?_GUID_b196b285_bab4_101a_b69c_00aa00341d07@@3U__s_GUID@@BPAUIConnectionPoint@@V?$_CopyInterface@UIConnectionPoint@@@ATL@@VCComSingleThreadModel@6@@ATL@@@ATL@@QAE@PAX@Z 10003c56 f i Gate.obj
 0001:00002c84       ??0?$CComObject@V?$CComEnum@UIEnumConnections@@$1?_GUID_b196b287_bab4_101a_b69c_00aa00341d07@@3U__s_GUID@@BUtagCONNECTDATA@@V?$_Copy@UtagCONNECTDATA@@@ATL@@VCComSingleThreadModel@6@@ATL@@@ATL@@QAE@PAX@Z 10003c84 f i Gate.obj
 0001:00002cb2       ??0?$CComObject@VCOPOSGate@@@ATL@@QAE@PAX@Z 10003cb2 f i Gate.obj
 0001:00002d69       ??0?$CComQIPtr@UIOleControlSite@@$1?_GUID_b196b289_bab4_101a_b69c_00aa00341d07@@3U__s_GUID@@B@ATL@@QAE@PAUIUnknown@@@Z 10003d69 f i Gate.obj
 0001:00002d92       ??0CAtlModule@ATL@@QAE@XZ  10003d92 f i Gate.obj
 0001:00002dd3       ??0CParseBuffer@CRegParser@ATL@@QAE@H@Z 10003dd3 f i Gate.obj
 0001:00002e09       ??0_ATL_MSG@ATL@@QAE@PAUHWND__@@IIJH@Z 10003e09 f i Gate.obj
 0001:00002e41       ??1?$CComAggObject@VCOPOSGate@@@ATL@@UAE@XZ 10003e41 f i Gate.obj
 0001:00002e65       ??1?$CComEnumImpl@UIEnumConnectionPoints@@$1?_GUID_b196b285_bab4_101a_b69c_00aa00341d07@@3U__s_GUID@@BPAUIConnectionPoint@@V?$_CopyInterface@UIConnectionPoint@@@ATL@@@ATL@@UAE@XZ 10003e65 f i Gate.obj
 0001:00002ea5       ??1?$CComEnumImpl@UIEnumConnections@@$1?_GUID_b196b287_bab4_101a_b69c_00aa00341d07@@3U__s_GUID@@BUtagCONNECTDATA@@V?$_Copy@UtagCONNECTDATA@@@ATL@@@ATL@@UAE@XZ 10003ea5 f i Gate.obj
 0001:00002ee5       ??1?$CComObject@V?$CComEnum@UIEnumConnectionPoints@@$1?_GUID_b196b285_bab4_101a_b69c_00aa00341d07@@3U__s_GUID@@BPAUIConnectionPoint@@V?$_CopyInterface@UIConnectionPoint@@@ATL@@VCComSingleThreadModel@6@@ATL@@@ATL@@UAE@XZ 10003ee5 f i Gate.obj
 0001:00002f08       ??1?$CComObject@V?$CComEnum@UIEnumConnections@@$1?_GUID_b196b287_bab4_101a_b69c_00aa00341d07@@3U__s_GUID@@BUtagCONNECTDATA@@V?$_Copy@UtagCONNECTDATA@@@ATL@@VCComSingleThreadModel@6@@ATL@@@ATL@@UAE@XZ 10003f08 f i Gate.obj
 0001:00002f2b       ??1?$CComObject@VCOPOSGate@@@ATL@@UAE@XZ 10003f2b f i Gate.obj
 0001:00002fe9       ??1?$CComObjectCached@VCComClassFactory@ATL@@@ATL@@UAE@XZ 10003fe9 f i Gate.obj
 0001:00002fff       ??1?$CComObjectRootEx@VCComMultiThreadModel@ATL@@@ATL@@QAE@XZ 10003fff f i Gate.obj
 0001:00003014       ??1CRegObject@ATL@@UAE@XZ  10004014 f i Gate.obj
 0001:00003034       ??4?$CComPtr@UIAdviseSink@@@ATL@@QAEPAUIAdviseSink@@PAU2@@Z 10004034 f i Gate.obj
 0001:00003034       ??4?$CComPtr@UIOleClientSite@@@ATL@@QAEPAUIOleClientSite@@PAU2@@Z 10004034 f i Gate.obj
 0001:00003034       ??4?$CComPtr@UIUnknown@@@ATL@@QAEPAUIUnknown@@PAU2@@Z 10004034 f i Gate.obj
 0001:00003068       ??_E?$CComContainedObject@VCOPOSGate@@@ATL@@UAEPAXI@Z 10004068 f i Gate.obj
 0001:00003068       ??_G?$CComContainedObject@VCOPOSGate@@@ATL@@UAEPAXI@Z 10004068 f i Gate.obj
 0001:0000308d       ??_G?$CComObject@VCOPOSGate@@@ATL@@UAEPAXI@Z 1000408d f i Gate.obj
 0001:0000308d       ??_E?$CComObject@VCOPOSGate@@@ATL@@UAEPAXI@Z 1000408d f i Gate.obj
 0001:000030b2       ?Add@?$CSimpleArray@GV?$CSimpleArrayEqualHelper@G@ATL@@@ATL@@QAEHABG@Z 100040b2 f i Gate.obj
 0001:00003136       ?Add@?$CSimpleMap@PA_WPA_WVCExpansionVectorEqualHelper@ATL@@@ATL@@QAEHABQA_W0@Z 10004136 f i Gate.obj
 0001:0000318b       ?Add@CComDynamicUnkArray@ATL@@QAEKPAUIUnknown@@@Z 1000418b f i Gate.obj
 0001:00003241       ?Add@CExpansionVector@ATL@@QAEHPB_W0@Z 10004241 f i Gate.obj
 0001:0000334a       ?AddString@CParseBuffer@CRegParser@ATL@@QAEHPB_W@Z 1000434a f i Gate.obj
 0001:0000337f       ?AddTermFunc@CAtlModule@ATL@@QAEJP6GXK@ZK@Z 1000437f f i Gate.obj
 0001:000033e2       ?AddValue@CRegParser@ATL@@IAEJAAVCRegKey@2@PB_WPA_W@Z 100043e2 f i Gate.obj
 0001:000036fc       ?Allocate@?$CAtlSafeAllocBufferManager@VCCRTAllocator@ATL@@@_ATL_SAFE_ALLOCA_IMPL@ATL@@QAEPAXK@Z 100046fc f i Gate.obj
 0001:00003729       ?Allocate@?$CTempBuffer@E$0BAA@VCCRTAllocator@ATL@@@ATL@@QAEPAEI@Z 10004729 f i Gate.obj
 0001:00003758       ?Allocate@?$CTempBuffer@_W$0BAA@VCCRTAllocator@ATL@@@ATL@@QAEPA_WI@Z 10004758 f i Gate.obj
 0001:00003787       ?Allocate@?$CTempBuffer@_W$0EAA@VCCRTAllocator@ATL@@@ATL@@QAEPA_WI@Z 10004787 f i Gate.obj
 0001:000037b6       ?AllocateHeap@?$CTempBuffer@_W$0EAA@VCCRTAllocator@ATL@@@ATL@@AAEXI@Z 100047b6 f i Gate.obj
 0001:000037b6       ?AllocateHeap@?$CTempBuffer@E$0BAA@VCCRTAllocator@ATL@@@ATL@@AAEXI@Z 100047b6 f i Gate.obj
 0001:000037b6       ?AllocateHeap@?$CTempBuffer@_W$0BAA@VCCRTAllocator@ATL@@@ATL@@AAEXI@Z 100047b6 f i Gate.obj
 0001:000037db       ?Append@CParseBuffer@CRegParser@ATL@@QAEHPB_WH@Z 100047db f i Gate.obj
 0001:00003869       ?AtlCoTaskMemCAlloc@ATL@@YAPAXKK@Z 10004869 f i Gate.obj
 0001:00003896       ?AtlCoTaskMemRecalloc@ATL@@YAPAXPAXKK@Z 10004896 f i Gate.obj
 0001:000038c6       ?AtlComModuleGetClassObject@ATL@@YGJPAU_ATL_COM_MODULE70@1@ABU_GUID@@1PAPAX@Z 100048c6 f i Gate.obj
 0001:000039b9       ?AtlComModuleRegisterServer@ATL@@YGJPAU_ATL_COM_MODULE70@1@HPBU_GUID@@@Z 100049b9 f i Gate.obj
 0001:00003a41       ?AtlComModuleUnregisterServer@ATL@@YGJPAU_ATL_COM_MODULE70@1@HPBU_GUID@@@Z 10004a41 f i Gate.obj
 0001:00003ac9       ?AtlComQIPtrAssign2@ATL@@YAXPAPAUIUnknown@@PAU2@ABU_GUID@@@Z 10004ac9 f i Gate.obj
 0001:00003af8       ?AtlCreateTargetDC@ATL@@YGPAUHDC__@@PAU2@PAUtagDVTARGETDEVICE@@@Z 10004af8 f i Gate.obj
 0001:00003b61       ?AtlCrtErrorCheck@ATL@@YAHH@Z 10004b61 f i Gate.obj
 0001:00003b9c       ?AtlHiMetricToPixel@ATL@@YGXPBUtagSIZE@@PAU2@@Z 10004b9c f i Gate.obj
 0001:00003c11       ?AtlHresultFromLastError@ATL@@YAJXZ 10004c11 f i Gate.obj
 0001:00003c28       ?AtlHresultFromWin32@ATL@@YAJK@Z 10004c28 f i Gate.obj
 0001:00003c3d       ?AtlInternalOleLoadFromStream@ATL@@YAJPAUIStream@@ABU_GUID@@PAPAXTClassesAllowedInStream@1@K@Z 10004c3d f i Gate.obj
 0001:00003d5b       ?AtlInternalQueryInterface@ATL@@YGJPAXPBU_ATL_INTMAP_ENTRY@1@ABU_GUID@@PAPAX@Z 10004d5b f i Gate.obj
 0001:00003dfe       ?AtlLoadTypeLib@ATL@@YGJPAUHINSTANCE__@@PB_WPAPA_WPAPAUITypeLib@@@Z 10004dfe f i Gate.obj
 0001:00003fdc       ?AtlRegisterClassCategoriesHelper@ATL@@YGJABU_GUID@@PBU_ATL_CATMAP_ENTRY@1@H@Z 10004fdc f i Gate.obj
 0001:000042d8       ?AtlRegisterTypeLib@ATL@@YGJPAUHINSTANCE__@@PB_W@Z 100052d8 f i Gate.obj
 0001:00004460       ?AtlThrowImpl@ATL@@YGXJ@Z  10005460 f i Gate.obj
 0001:0000447e       ?AtlUnRegisterTypeLib@ATL@@YGJPAUHINSTANCE__@@PB_W@Z 1000547e f i Gate.obj
 0001:00004529       ?AtlWinModuleAddCreateWndData@ATL@@YGXPAU_ATL_WIN_MODULE70@1@PAU_AtlCreateWndData@1@PAX@Z 10005529 f i Gate.obj
 0001:0000457d       ?AtlWinModuleExtractCreateWndData@ATL@@YGPAXPAU_ATL_WIN_MODULE70@1@@Z 1000557d f i Gate.obj
 0001:000045e0       ?AtlWinModuleRegisterClassExW@ATL@@YGGPAU_ATL_WIN_MODULE70@1@PBUtagWNDCLASSEXW@@@Z 100055e0 f i Gate.obj
 0001:0000461f       ?CanForceRemoveKey@CRegParser@ATL@@IAEHPB_W@Z 1000561f f i Gate.obj
 0001:0000464e       ?ChToByte@CRegParser@ATL@@KAE_W@Z 1000564e f i Gate.obj
 0001:00004681       ?Cleanup@CComTypeInfoHolder@ATL@@SGXK@Z 10005681 f i Gate.obj
 0001:000046b4       ?ClearReplacements@CExpansionVector@ATL@@QAEJXZ 100056b4 f i Gate.obj
 0001:000046f1       ?Close@CRegKey@ATL@@QAEJXZ 100056f1 f i Gate.obj
 0001:0000470b       ?CreateInstance@?$CComCreator@V?$CComAggObject@VCOPOSGate@@@ATL@@@ATL@@SGJPAXABU_GUID@@PAPAX@Z 1000570b f i Gate.obj
 0001:00004780       ?CreateInstance@?$CComCreator@V?$CComObject@VCOPOSGate@@@ATL@@@ATL@@SGJPAXABU_GUID@@PAPAX@Z 10005780 f i Gate.obj
 0001:00004800       ?CreateInstance@?$CComObject@V?$CComEnum@UIEnumConnectionPoints@@$1?_GUID_b196b285_bab4_101a_b69c_00aa00341d07@@3U__s_GUID@@BPAUIConnectionPoint@@V?$_CopyInterface@UIConnectionPoint@@@ATL@@VCComSingleThreadModel@6@@ATL@@@ATL@@SGJPAPAV12@@Z 10005800 f i Gate.obj
 0001:0000484a       ?CreateInstance@?$CComObject@V?$CComEnum@UIEnumConnections@@$1?_GUID_b196b287_bab4_101a_b69c_00aa00341d07@@3U__s_GUID@@BUtagCONNECTDATA@@V?$_Copy@UtagCONNECTDATA@@@ATL@@VCComSingleThreadModel@6@@ATL@@@ATL@@SGJPAPAV12@@Z 1000584a f i Gate.obj
 0001:00004894       ?DefaultReflectionHandler@?$CWindowImplRoot@VCWindow@ATL@@@ATL@@SAHPAUHWND__@@IIJAAJ@Z 10005894 f i Gate.obj
 0001:00004907       ?DeleteSubKey@CRegKey@ATL@@QAEJPB_W@Z 10005907 f i Gate.obj
 0001:00004980       ?DoEvent@COPOSGate@@IAEXIIJ@Z 10005980 f i Gate.obj
 0001:00004a00       ?DoVerbHide@?$IOleObjectImpl@VCOPOSGate@@@ATL@@QAEJPBUtagRECT@@PAUHWND__@@@Z 10005a00 f i Gate.obj
 0001:00004a36       ?DoVerbInPlaceActivate@?$IOleObjectImpl@VCOPOSGate@@@ATL@@QAEJPBUtagRECT@@PAUHWND__@@@Z 10005a36 f i Gate.obj
 0001:00004a69       ?DoVerbPrimary@?$IOleObjectImpl@VCOPOSGate@@@ATL@@QAEJPBUtagRECT@@PAUHWND__@@@Z 10005a69 f i Gate.obj
 0001:00004af5       ?DoVerbProperties@CComControlBase@ATL@@QAEJPBUtagRECT@@PAUHWND__@@@Z 10005af5 f i Gate.obj
 0001:00004c74       ?DoVerbUIActivate@?$IOleObjectImpl@VCOPOSGate@@@ATL@@QAEJPBUtagRECT@@PAUHWND__@@@Z 10005c74 f i Gate.obj
 0001:00004cb1       ?DoesVerbActivate@CComControlBase@ATL@@QAEHJ@Z 10005cb1 f i Gate.obj
 0001:00004cd2       ?DoesVerbUIActivate@CComControlBase@ATL@@QAEHJ@Z 10005cd2 f i Gate.obj
 0001:00004d07       ?EndOfVar@CRegParser@ATL@@IAEHXZ 10005d07 f i Gate.obj
 0001:00004d27       ?EscapeSingleQuote@CAtlModule@ATL@@SAXPA_WIPB_W@Z 10005d27 f i Gate.obj
 0001:00004d76       ?FindKey@?$CSimpleMap@PA_WPA_WVCExpansionVectorEqualHelper@ATL@@@ATL@@QBEHABQA_W@Z 10005d76 f i Gate.obj
 0001:00004dad       ?FireTheEvent@?$CProxy_IOPOSEvents@VCOPOSGate@@@@IAEXPAVOposVariant@@IAAJPB_WJ@Z 10005dad f i Gate.obj
 0001:00004e3f       ?FireViewChange@CComControlBase@ATL@@QAEJXZ 10005e3f f i Gate.obj
 0001:00004e88       ?Fire_DirectIOEvent@?$CProxy_IOPOSEvents@VCOPOSGate@@@@QAEXJPAJPAPA_W@Z 10005e88 f i Gate.obj
 0001:00004f74       ?Fire_StatusUpdateEvent@?$CProxy_IOPOSEvents@VCOPOSGate@@@@QAEXJ@Z 10005f74 f i Gate.obj
 0001:0000500a       ?FreeHeap@?$CTempBuffer@_W$0EAA@VCCRTAllocator@ATL@@@ATL@@AAEXXZ 1000600a f i Gate.obj
 0001:0000500a       ?FreeHeap@?$CTempBuffer@_W$0BAA@VCCRTAllocator@ATL@@@ATL@@AAEXXZ 1000600a f i Gate.obj
 0001:0000500a       ?FreeHeap@?$CTempBuffer@E$0BAA@VCCRTAllocator@ATL@@@ATL@@AAEXXZ 1000600a f i Gate.obj
 0001:00005013       ?GetAmbientLocaleID@CComControlBase@ATL@@QAEJAAK@Z 10006013 f i Gate.obj
 0001:0000506f       ?GetAmbientUserMode@CComControlBase@ATL@@QAEJAAH@Z 1000606f f i Gate.obj
 0001:000050df       ?GetAt@CComDynamicUnkArray@ATL@@QAEPAUIUnknown@@H@Z 100060df f i Gate.obj
 0001:000050fb       ?GetClassObject@CComModule@ATL@@QAEJABU_GUID@@0PAPAX@Z 100060fb f i Gate.obj
 0001:0000519d       ?GetConnMap@COPOSGate@@SAPBU_ATL_CONNMAP_ENTRY@ATL@@PAH@Z 1000619d f i Gate.obj
 0001:0000520d       ?GetCookie@CComDynamicUnkArray@ATL@@QAGKPAPAUIUnknown@@@Z 1000620d f i Gate.obj
 0001:00005245       ?GetIDsOfNames@CComTypeInfoHolder@ATL@@QAEJABU_GUID@@PAPA_WIKPAJ@Z 10006245 f i Gate.obj
 0001:0000536c       ?GetKeyAt@?$CSimpleMap@PA_WPA_WVCExpansionVectorEqualHelper@ATL@@@ATL@@QBEAAPA_WH@Z 1000636c f i Gate.obj
 0001:00005391       ?GetPagesHelper@?$ISpecifyPropertyPagesImpl@VCOPOSGate@@@ATL@@IAEJPAUtagCAUUID@@PBUATL_PROPMAP_ENTRY@2@@Z 10006391 f i Gate.obj
 0001:000054b8       ?GetProperty@?$CComPtr@UIDispatch@@@ATL@@SAJPAUIDispatch@@JPAUtagVARIANT@@@Z 100064b8 f i Gate.obj
 0001:00005507       ?GetSizeMax@CComVariant@ATL@@QBEJPAT_ULARGE_INTEGER@@@Z 10006507 f i Gate.obj
 0001:000056c9       ?GetTI@CComTypeInfoHolder@ATL@@QAEJK@Z 100066c9 f i Gate.obj
 0001:000058a8       ?GetTI@CComTypeInfoHolder@ATL@@QAEJKPAPAUITypeInfo@@@Z 100068a8 f i Gate.obj
 0001:000058ea       ?GetUnknown@CComDynamicUnkArray@ATL@@QAGPAUIUnknown@@K@Z 100068ea f i Gate.obj
 0001:0000590b       ?GetValueAt@?$CSimpleMap@PA_WPA_WVCExpansionVectorEqualHelper@ATL@@@ATL@@QBEAAPA_WH@Z 1000690b f i Gate.obj
 0001:00005931       ?GetZoomInfo@CComControlBase@ATL@@QAEXAAUATL_DRAWINFO@@@Z 10006931 f i Gate.obj
 0001:000059c4       ?HKeyFromString@CRegParser@ATL@@KAPAUHKEY__@@PA_W@Z 100069c4 f i Gate.obj
 0001:000059f2       ?HasSubKeys@CRegParser@ATL@@IAEHPAUHKEY__@@@Z 100069f2 f i Gate.obj
 0001:00005a27       ?IDataObject_GetData@CComControlBase@ATL@@QAEJPAUtagFORMATETC@@PAUtagSTGMEDIUM@@@Z 10006a27 f i Gate.obj
 0001:00005bcd       ?IOleInPlaceObject_InPlaceDeactivate@CComControlBase@ATL@@QAEJXZ 10006bcd f i Gate.obj
 0001:00005c54       ?IOleInPlaceObject_SetObjectRects@CComControlBase@ATL@@QAEJPBUtagRECT@@0@Z 10006c54 f i Gate.obj
 0001:00005d21       ?IOleInPlaceObject_UIDeactivate@CComControlBase@ATL@@QAEJXZ 10006d21 f i Gate.obj
 0001:00005de3       ?IOleObject_Advise@CComControlBase@ATL@@QAEJPAUIAdviseSink@@PAK@Z 10006de3 f i Gate.obj
 0001:00005e0d       ?IOleObject_Close@CComControlBase@ATL@@QAEJK@Z 10006e0d f i Gate.obj
 0001:00005ef1       ?IOleObject_GetClientSite@CComControlBase@ATL@@QAEJPAPAUIOleClientSite@@@Z 10006ef1 f i Gate.obj
 0001:00005f1a       ?IOleObject_SetClientSite@CComControlBase@ATL@@QAEJPAUIOleClientSite@@@Z 10006f1a f i Gate.obj
 0001:00005f59       ?IOleObject_SetExtent@CComControlBase@ATL@@QAEJKPAUtagSIZE@@@Z 10006f59 f i Gate.obj
 0001:0000600d       ?IPSI_GetIPersistStreamInit@?$IPersistStorageImpl@VCOPOSGate@@@ATL@@AAEPAUIPersistStreamInit@@XZ 1000700d f i Gate.obj
 0001:000060b5       ?IPersistStreamInit_Load@?$IPersistStreamInitImpl@VCOPOSGate@@@ATL@@QAEJPAUIStream@@PBUATL_PROPMAP_ENTRY@2@@Z 100070b5 f i Gate.obj
 0001:0000632a       ?IPersistStreamInit_Save@?$IPersistStreamInitImpl@VCOPOSGate@@@ATL@@QAEJPAUIStream@@HPBUATL_PROPMAP_ENTRY@2@@Z 1000732a f i Gate.obj
 0001:00006518       ?IQuickActivate_QuickActivate@CComControlBase@ATL@@QAEJPAUtagQACONTAINER@@PAUtagQACONTROL@@@Z 10007518 f i Gate.obj
 0001:0000675a       ?IViewObject_Draw@CComControlBase@ATL@@QAEJKJPAXPAUtagDVTARGETDEVICE@@PAUHDC__@@2PBU_RECTL@@3@Z 1000775a f i Gate.obj
 0001:00006802       ?InPlaceActivate@CComControlBase@ATL@@QAEJJPBUtagRECT@@@Z 10007802 f i Gate.obj
 0001:00006a73       ?Init@?$CComEnumImpl@UIEnumConnectionPoints@@$1?_GUID_b196b285_bab4_101a_b69c_00aa00341d07@@3U__s_GUID@@BPAUIConnectionPoint@@V?$_CopyInterface@UIConnectionPoint@@@ATL@@@ATL@@QAEJPAPAUIConnectionPoint@@0PAUIUnknown@@W4CComEnumFlags@2@@Z 10007a73 f i Gate.obj
 0001:00006b52       ?Init@?$CComEnumImpl@UIEnumConnections@@$1?_GUID_b196b287_bab4_101a_b69c_00aa00341d07@@3U__s_GUID@@BUtagCONNECTDATA@@V?$_Copy@UtagCONNECTDATA@@@ATL@@@ATL@@QAEJPAUtagCONNECTDATA@@0PAUIUnknown@@W4CComEnumFlags@2@@Z 10007b52 f i Gate.obj
 0001:00006c31       ?Init@CComModule@ATL@@QAEJPAU_ATL_OBJMAP_ENTRY30@2@PAUHINSTANCE__@@PBU_GUID@@@Z 10007c31 f i Gate.obj
 0001:00006c90       ?Init@CDynamicStdCallThunk2@ATL@@QAEHKPAX@Z 10007c90 f i Gate.obj
 0001:00006cbb       ?InlineIsEqualUnknown@ATL@@YGHABU_GUID@@@Z 10007cbb f i Gate.obj
 0001:00006ce3       ?InternalSetAtIndex@?$CSimpleMap@PA_WPA_WVCExpansionVectorEqualHelper@ATL@@@ATL@@QAEXHABQA_W0@Z 10007ce3 f i Gate.obj
 0001:00006d0d       ?Invoke@CComTypeInfoHolder@ATL@@QAEJPAUIDispatch@@JABU_GUID@@KGPAUtagDISPPARAMS@@PAUtagVARIANT@@PAUtagEXCEPINFO@@PAI@Z 10007d0d f i Gate.obj
 0001:00006d50       ?IsEqualObject@?$CComPtrBase@UIOleClientSite@@@ATL@@QAE_NPAUIUnknown@@@Z 10007d50 f i Gate.obj
 0001:00006d50       ?IsEqualObject@?$CComPtrBase@UITypeInfo@@@ATL@@QAE_NPAUIUnknown@@@Z 10007d50 f i Gate.obj
 0001:00006dbd       ?IsSpace@CRegParser@ATL@@IAEH_W@Z 10007dbd f i Gate.obj
 0001:00006de7       ?LoadNameCache@CComTypeInfoHolder@ATL@@QAEJPAUITypeInfo@@@Z 10007de7 f i Gate.obj
 0001:00006f1c       ?Lookup@?$CSimpleMap@PA_WPA_WVCExpansionVectorEqualHelper@ATL@@@ATL@@QBEPA_WABQA_W@Z 10007f1c f i Gate.obj
 0001:00006f42       ?NextToken@CRegParser@ATL@@IAEJPA_W@Z 10007f42 f i Gate.obj
 0001:0000707a       ?OnKillFocus@CComControlBase@ATL@@QAEJIIJAAH@Z 1000807a f i Gate.obj
 0001:000070d5       ?OnMouseActivate@CComControlBase@ATL@@QAEJIIJAAH@Z 100080d5 f i Gate.obj
 0001:00007143       ?OnPaint@CComControlBase@ATL@@QAEJIIJAAH@Z 10008143 f i Gate.obj
 0001:000071f5       ?OnSetFocus@CComControlBase@ATL@@QAEJIIJAAH@Z 100081f5 f i Gate.obj
 0001:0000727e       ?Open@CRegKey@ATL@@QAEJPAUHKEY__@@PB_WK@Z 1000827e f i Gate.obj
 0001:000072d3       ?PreProcessBuffer@CRegParser@ATL@@QAEJPA_WPAPA_W@Z 100082d3 f i Gate.obj
 0001:00007542       ?ProcessWindowMessage@?$CComControl@VCOPOSGate@@V?$CWindowImpl@VCOPOSGate@@VCWindow@ATL@@V?$CWinTraits@$0FGAAAAAA@$0A@@3@@ATL@@@ATL@@UAEHPAUHWND__@@IIJAAJK@Z 10008542 f i Gate.obj
 0001:000075e1       ?ReadFromStream@CComBSTR@ATL@@QAEJPAUIStream@@@Z 100085e1 f i Gate.obj
 0001:00007704       ?ReadFromStream@CComVariant@ATL@@QAEJPAUIStream@@GTClassesAllowedInStream@2@K@Z 10008704 f i Gate.obj
 0001:0000788e       ?RecurseDeleteKey@CRegKey@ATL@@QAEJPB_W@Z 1000888e f i Gate.obj
 0001:0000797c       ?RegCreateKeyExW@CAtlTransactionManager@ATL@@QAEJPAUHKEY__@@PB_WKPA_WKKQAU_SECURITY_ATTRIBUTES@@PAPAU3@PAK@Z 1000897c f i Gate.obj
 0001:000079df       ?RegDeleteKeyW@CAtlTransactionManager@ATL@@QAEJPAUHKEY__@@PB_W@Z 100089df f i Gate.obj
 0001:00007a31       ?RegOpenKeyExW@CAtlTransactionManager@ATL@@QAEJPAUHKEY__@@PB_WKKPAPAU3@@Z 10008a31 f i Gate.obj
 0001:00007a88       ?Register@_ATL_WNDCLASSINFOW@ATL@@QAEGPAP6GJPAUHWND__@@IIJ@Z@Z 10008a88 f i Gate.obj
 0001:00007aa8       ?RegisterBuffer@CRegParser@ATL@@QAEJPA_WH@Z 10008aa8 f i Gate.obj
 0001:00007bef       ?RegisterFromResource@CRegObject@ATL@@IAEJPB_W00H@Z 10008bef f i Gate.obj
 0001:00007d25       ?RegisterServer@?$CAtlModuleT@VCComModule@ATL@@@ATL@@QAEJHPBU_GUID@@@Z 10008d25 f i Gate.obj
 0001:00007d53       ?RegisterServer@CComModule@ATL@@QAEJHPBU_GUID@@@Z 10008d53 f i Gate.obj
 0001:00007dc9       ?RegisterSubkeys@CRegParser@ATL@@IAEJPA_WPAUHKEY__@@HH@Z 10008dc9 f i Gate.obj
 0001:00008476       ?Remove@CComDynamicUnkArray@ATL@@QAEHK@Z 10009476 f i Gate.obj
 0001:0000849f       ?RemoveAll@?$CSimpleMap@PA_WPA_WVCExpansionVectorEqualHelper@ATL@@@ATL@@QAEXXZ 1000949f f i Gate.obj
 0001:000084cb       ?ResourceRegisterSz@CRegObject@ATL@@QAGJPB_W00@Z 100094cb f i Gate.obj
 0001:000084f8       ?ResourceUnregisterSz@CRegObject@ATL@@QAGJPB_W00@Z 100094f8 f i Gate.obj
 0001:00008525       ?SendOnDataChange@CComControlBase@ATL@@QAEJK@Z 10009525 f i Gate.obj
 0001:00008572       ?SetControlFocus@CComControlBase@ATL@@QAEHH@Z 10009572 f i Gate.obj
 0001:0000860f       ?SetMultiStringValue@CRegKey@ATL@@QAEJPB_W0@Z 1000960f f i Gate.obj
 0001:0000866b       ?SetStringValue@CRegKey@ATL@@QAEJPB_W0K@Z 1000966b f i Gate.obj
 0001:000086b4       ?SkipAssignment@CRegParser@ATL@@IAEJPA_W@Z 100096b4 f i Gate.obj
 0001:00008719       ?SkipWhiteSpace@CRegParser@ATL@@IAEXXZ 10009719 f i Gate.obj
 0001:0000873b       ?StrChrW@CRegParser@ATL@@KAPA_WPA_W_W@Z 1000973b f i Gate.obj
 0001:00008778       ?Term@CAtlModule@ATL@@QAEXXZ 10009778 f i Gate.obj
 0001:000087cb       ?Term@CComModule@ATL@@QAEXXZ 100097cb f i Gate.obj
 0001:00008823       ?UnregisterServer@?$CAtlModuleT@VCComModule@ATL@@@ATL@@QAEJHPBU_GUID@@@Z 10009823 f i Gate.obj
 0001:00008849       ?UnregisterServer@CComModule@ATL@@QAEJHPBU_GUID@@@Z 10009849 f i Gate.obj
 0001:000088bf       ?UpdateRegistryFromResource@CAtlModule@ATL@@QAGJIHPAU_ATL_REGMAP_ENTRY@2@@Z 100098bf f i Gate.obj
 0001:00008a8a       ?UpdateRegistryFromResource@CAtlModule@ATL@@QAGJPB_WHPAU_ATL_REGMAP_ENTRY@2@@Z 10009a8a f i Gate.obj
 0001:00008c5b       ?VTFromRegType@CRegParser@ATL@@KAHPB_WAAG@Z 10009c5b f i Gate.obj
 0001:00008cc8       ?WindowProc@?$CWindowImplBaseT@VCWindow@ATL@@V?$CWinTraits@$0FGAAAAAA@$0A@@2@@ATL@@SGJPAUHWND__@@IIJ@Z 10009cc8 f i Gate.obj
 0001:00008dba       ?WriteToStream@CComBSTR@ATL@@QAEJPAUIStream@@@Z 10009dba f i Gate.obj
 0001:00008e1c       ?WriteToStream@CComVariant@ATL@@QAEJPAUIStream@@@Z 10009e1c f i Gate.obj
 0001:00008f96       ?WriteToStream@CComVariant@ATL@@QAEJPAUIStream@@G@Z 10009f96 f i Gate.obj
 0001:00008fff       ?_AtlInitialConstruct@?$CComObjectRootEx@VCComMultiThreadModel@ATL@@@ATL@@QAEJXZ 10009fff f i Gate.obj
 0001:00009014       ?_AtlVerifyStackAvailable@_ATL_SAFE_ALLOCA_IMPL@ATL@@YA_NK@Z 1000a014 f i Gate.obj
 0001:00009092       ?atlCreate@?$CWindowImpl@VCOPOSGate@@VCWindow@ATL@@V?$CWinTraits@$0FGAAAAAA@$0A@@3@@ATL@@QAEPAUHWND__@@PAU3@V_U_RECT@2@PB_WKKV_U_MENUorID@2@PAX@Z 1000a092 f i Gate.obj
 0001:000090d6       ?atlCreate@?$CWindowImplBaseT@VCWindow@ATL@@V?$CWinTraits@$0FGAAAAAA@$0A@@2@@ATL@@QAEPAUHWND__@@PAU3@V_U_RECT@2@PB_WKKV_U_MENUorID@2@GPAX@Z 1000a0d6 f i Gate.obj
 0001:00009172       ?copy@?$_Copy@UtagCONNECTDATA@@@ATL@@SAJPAUtagCONNECTDATA@@PBU3@@Z 1000a172 f i Gate.obj
 0001:000091a8       ?copy@?$_CopyInterface@UIConnectionPoint@@@ATL@@SAJPAPAUIConnectionPoint@@PBQAU3@@Z 1000a1a8 f i Gate.obj
 0001:000091d6       ?memcpy_s@Checked@ATL@@YAXPAXIPBXI@Z 1000a1d6 f i Gate.obj
 0001:000091f5       ?ocscpy_s@@YA_NPA_WIPB_W@Z 1000a1f5 f i Gate.obj
 0001:0000923f       ?wcscpy_s@Checked@ATL@@YAXPA_WIPB_W@Z 1000a23f f i Gate.obj
 0001:0000925b       _DllCanUnloadNow@0         1000a25b f   Gate.obj
 0001:00009267       _DllGetClassObject@12      1000a267 f   Gate.obj
 0001:00009275       _DllMain@12                1000a275 f   Gate.obj
 0001:000092b7       _DllRegisterServer@0       1000a2b7 f   Gate.obj
 0001:000092c6       _DllUnregisterServer@0     1000a2c6 f   Gate.obj
 0001:000092d5       _InlineIsEqualGUID         1000a2d5 f i Gate.obj
 0001:00009305       ___local_stdio_printf_options 1000a305 f i Gate.obj
 0001:0000930b       __vswprintf_s_l            1000a30b f i Gate.obj
 0001:000093b8       _swprintf_s                1000a3b8 f i Gate.obj
 0001:000093d4       ??0?$CComControl@VCOPOSGate@@V?$CWindowImpl@VCOPOSGate@@VCWindow@ATL@@V?$CWinTraits@$0FGAAAAAA@$0A@@3@@ATL@@@ATL@@QAE@XZ 1000a3d4 f i GateImpl.obj
 0001:000093fb       ??0CComControlBase@ATL@@QAE@AAPAUHWND__@@@Z 1000a3fb f i GateImpl.obj
 0001:00009445       ??0COPOSGate@@QAE@XZ       1000a445 f   GateImpl.obj
 0001:00009494       ??1?$CComControl@VCOPOSGate@@V?$CWindowImpl@VCOPOSGate@@VCWindow@ATL@@V?$CWinTraits@$0FGAAAAAA@$0A@@3@@ATL@@@ATL@@UAE@XZ 1000a494 f i GateImpl.obj
 0001:000094ad       ??1?$IConnectionPointImpl@VCOPOSGate@@$1?IID_IPropertyNotifySink@@3U_GUID@@BVCComDynamicUnkArray@ATL@@@ATL@@QAE@XZ 1000a4ad f i GateImpl.obj
 0001:000094ad       ??1?$IConnectionPointImpl@VCOPOSGate@@$1?DIID__IOPOSGateEvents@@3U_GUID@@BVCComDynamicUnkArray@ATL@@@ATL@@QAE@XZ 1000a4ad f i GateImpl.obj
 0001:000094ea       ??1CComControlBase@ATL@@UAE@XZ 1000a4ea f i GateImpl.obj
 0001:0000954d       ??1COPOSGate@@UAE@XZ       1000a54d f   GateImpl.obj
 0001:00009595       ?CheckHealth@COPOSGate@@UAGJJPAJ@Z 1000a595 f   GateImpl.obj
 0001:000095e4       ?ClaimDevice@COPOSGate@@UAGJJPAJ@Z 1000a5e4 f   GateImpl.obj
 0001:00009652       ?Close@COPOSGate@@UAGJPAJ@Z 1000a652 f   GateImpl.obj
 0001:000096c0       ?CompareFirmwareVersion@COPOSGate@@UAGJPA_WPAJ1@Z 1000a6c0 f   GateImpl.obj
 0001:00009740       ?DirectIO@COPOSGate@@UAGJJPAJPAPA_W0@Z 1000a740 f   GateImpl.obj
 0001:000097ee       ?DoInvoke@COPOSGate@@IAEJJPAVOposVariant@@IHPAJ_N@Z 1000a7ee f   GateImpl.obj
 0001:000098ca       ?EventClose@COPOSGate@@IAEXXZ 1000a8ca f i GateImpl.obj
 0001:000098fd       ?EventInit@COPOSGate@@IAEJXZ 1000a8fd f i GateImpl.obj
 0001:000099c9       ?EventUninit@COPOSGate@@IAEXXZ 1000a9c9 f i GateImpl.obj
 0001:00009a1b       ?EventWindowProc@COPOSGate@@IAGJIIJ@Z 1000aa1b f i GateImpl.obj
 0001:00009a92       ?FinalConstruct@COPOSGate@@QAEJXZ 1000aa92 f   GateImpl.obj
 0001:00009acb       ?FireEventCleanup@COPOSGate@@IAEXXZ 1000aacb f i GateImpl.obj
 0001:00009ae1       ?FireEventSetup@COPOSGate@@IAE_NXZ 1000aae1 f i GateImpl.obj
 0001:00009b15       ?FreezeEvents@COPOSGate@@MAGJH@Z 1000ab15 f   GateImpl.obj
 0001:00009b66       ?GetOposProp@COPOSGate@@IAEJJPAFJ@Z 1000ab66 f   GateImpl.obj
 0001:00009b89       ?GetOposProp@COPOSGate@@IAEJJPAJJ@Z 1000ab89 f   GateImpl.obj
 0001:00009c58       ?GetOposProp@COPOSGate@@IAEJJPAPA_WJ@Z 1000ac58 f   GateImpl.obj
 0001:00009d34       ?OnDraw@COPOSGate@@MAEJAAUATL_DRAWINFO@@@Z 1000ad34 f   GateImpl.obj
 0001:00009dd4       ?Open@COPOSGate@@UAGJPA_WPAJ@Z 1000add4 f   GateImpl.obj
 0001:0000a616       ?OpenGate@COPOSGate@@UAGJPAJ@Z 1000b616 f   GateImpl.obj
 0001:0000a631       ?ReleaseDevice@COPOSGate@@UAGJPAJ@Z 1000b631 f   GateImpl.obj
 0001:0000a668       ?ResetStatistics@COPOSGate@@UAGJPA_WPAJ@Z 1000b668 f   GateImpl.obj
 0001:0000a6bf       ?RetrieveStatistics@COPOSGate@@UAGJPAPA_WPAJ@Z 1000b6bf f   GateImpl.obj
 0001:0000a716       ?SOProcessID@COPOSGate@@UAGJPAJ@Z 1000b716 f   GateImpl.obj
 0001:0000a72a       ?SetCOFreezeEvents@COPOSGate@@IAEXF@Z 1000b72a f   GateImpl.obj
 0001:0000a7ca       ?SetOposProp@COPOSGate@@IAEJJJJ@Z 1000b7ca f   GateImpl.obj
 0001:0000a8c1       ?UpdateFirmware@COPOSGate@@UAGJPA_WPAJ@Z 1000b8c1 f   GateImpl.obj
 0001:0000a918       ?UpdateStatistics@COPOSGate@@UAGJPA_WPAJ@Z 1000b918 f   GateImpl.obj
 0001:0000a96f       ?WaitForGateClose@COPOSGate@@UAGJJPAJ@Z 1000b96f f   GateImpl.obj
 0001:0000a9be       ?get_BinaryConversion@COPOSGate@@UAGJPAJ@Z 1000b9be f   GateImpl.obj
 0001:0000a9d4       ?get_CapCompareFirmwareVersion@COPOSGate@@UAGJPAF@Z 1000b9d4 f   GateImpl.obj
 0001:0000a9ed       ?get_CapGateStatus@COPOSGate@@UAGJPAF@Z 1000b9ed f   GateImpl.obj
 0001:0000aa06       ?get_CapPowerReporting@COPOSGate@@UAGJPAJ@Z 1000ba06 f   GateImpl.obj
 0001:0000aa1f       ?get_CapStatisticsReporting@COPOSGate@@UAGJPAF@Z 1000ba1f f   GateImpl.obj
 0001:0000aa38       ?get_CapUpdateFirmware@COPOSGate@@UAGJPAF@Z 1000ba38 f   GateImpl.obj
 0001:0000aa51       ?get_CapUpdateStatistics@COPOSGate@@UAGJPAF@Z 1000ba51 f   GateImpl.obj
 0001:0000aa6a       ?get_CheckHealthText@COPOSGate@@UAGJPAPA_W@Z 1000ba6a f   GateImpl.obj
 0001:0000aa83       ?get_Claimed@COPOSGate@@UAGJPAF@Z 1000ba83 f   GateImpl.obj
 0001:0000aa99       ?get_ControlObjectDescription@COPOSGate@@UAGJPAPA_W@Z 1000ba99 f   GateImpl.obj
 0001:0000aae7       ?get_ControlObjectVersion@COPOSGate@@UAGJPAJ@Z 1000bae7 f   GateImpl.obj
 0001:0000aafa       ?get_DeviceDescription@COPOSGate@@UAGJPAPA_W@Z 1000bafa f   GateImpl.obj
 0001:0000ab13       ?get_DeviceEnabled@COPOSGate@@UAGJPAF@Z 1000bb13 f   GateImpl.obj
 0001:0000ab29       ?get_DeviceName@COPOSGate@@UAGJPAPA_W@Z 1000bb29 f   GateImpl.obj
 0001:0000ab42       ?get_FreezeEvents@COPOSGate@@UAGJPAF@Z 1000bb42 f   GateImpl.obj
 0001:0000ab58       ?get_GateStatus@COPOSGate@@UAGJPAJ@Z 1000bb58 f   GateImpl.obj
 0001:0000ab71       ?get_OpenResult@COPOSGate@@UAGJPAJ@Z 1000bb71 f   GateImpl.obj
 0001:0000ab88       ?get_PowerNotify@COPOSGate@@UAGJPAJ@Z 1000bb88 f   GateImpl.obj
 0001:0000ab9e       ?get_PowerState@COPOSGate@@UAGJPAJ@Z 1000bb9e f   GateImpl.obj
 0001:0000abb4       ?get_ResultCode@COPOSGate@@UAGJPAJ@Z 1000bbb4 f   GateImpl.obj
 0001:0000abf2       ?get_ResultCodeExtended@COPOSGate@@UAGJPAJ@Z 1000bbf2 f   GateImpl.obj
 0001:0000ac08       ?get_ServiceObjectDescription@COPOSGate@@UAGJPAPA_W@Z 1000bc08 f   GateImpl.obj
 0001:0000ac21       ?get_ServiceObjectVersion@COPOSGate@@UAGJPAJ@Z 1000bc21 f   GateImpl.obj
 0001:0000ac37       ?get_State@COPOSGate@@UAGJPAJ@Z 1000bc37 f   GateImpl.obj
 0001:0000ac63       ?put_BinaryConversion@COPOSGate@@UAGJJ@Z 1000bc63 f   GateImpl.obj
 0001:0000ac79       ?put_DeviceEnabled@COPOSGate@@UAGJF@Z 1000bc79 f   GateImpl.obj
 0001:0000ac96       ?put_FreezeEvents@COPOSGate@@UAGJF@Z 1000bc96 f   GateImpl.obj
 0001:0000ace2       ?put_PowerNotify@COPOSGate@@UAGJJ@Z 1000bce2 f   GateImpl.obj
 0001:0000acf8       ?s_EventWindowProc@COPOSGate@@KGJPAUHWND__@@IIJ@Z 1000bcf8 f i GateImpl.obj
 0001:0000ad4a       ??_U@YAPAXI@Z              1000bd4a f   LIBCMT:new_array.obj
 0001:0000ad53       ??3@YAXPAXI@Z              1000bd53 f   LIBCMT:delete_scalar_size.obj
 0001:0000ad61       ??_V@YAXPAX@Z              1000bd61 f   LIBCMT:delete_array.obj
 0001:0000ad66       ??_V@YAXPAXI@Z             1000bd66 f   LIBCMT:delete_array_size.obj
 0001:0000adb8       ___scrt_acquire_startup_lock 1000bdb8 f   LIBCMT:utility.obj
 0001:0000adea       ___scrt_dllmain_after_initialize_c 1000bdea f   LIBCMT:utility.obj
 0001:0000ae15       ___scrt_dllmain_before_initialize_c 1000be15 f   LIBCMT:utility.obj
 0001:0000ae23       ___scrt_dllmain_crt_thread_attach 1000be23 f   LIBCMT:utility.obj
 0001:0000ae42       ___scrt_dllmain_crt_thread_detach 1000be42 f   LIBCMT:utility.obj
 0001:0000ae4f       ___scrt_dllmain_exception_filter 1000be4f f   LIBCMT:utility.obj
 0001:0000ae83       ___scrt_dllmain_uninitialize_c 1000be83 f   LIBCMT:utility.obj
 0001:0000aea6       ___scrt_dllmain_uninitialize_critical 1000bea6 f   LIBCMT:utility.obj
 0001:0000aeb3       ___scrt_initialize_crt     1000beb3 f   LIBCMT:utility.obj
 0001:0000aeec       ___scrt_initialize_onexit_tables 1000beec f   LIBCMT:utility.obj
 0001:0000af73       ___scrt_is_nonwritable_in_current_image 1000bf73 f   LIBCMT:utility.obj
 0001:0000b007       ___scrt_release_startup_lock 1000c007 f   LIBCMT:utility.obj
 0001:0000b024       ___scrt_uninitialize_crt   1000c024 f   LIBCMT:utility.obj
 0001:0000b04c       __onexit                   1000c04c f   LIBCMT:utility.obj
 0001:0000b079       _atexit                    1000c079 f   LIBCMT:utility.obj
 0001:0000b08e       ??3@YAXPAX@Z               1000c08e f   LIBCMT:delete_scalar.obj
 0001:0000b158       __Init_thread_footer       1000c158 f   LIBCMT:thread_safe_statics.obj
 0001:0000b1a2       __Init_thread_header       1000c1a2 f   LIBCMT:thread_safe_statics.obj
 0001:0000b1f4       __Init_thread_notify       1000c1f4 f   LIBCMT:thread_safe_statics.obj
 0001:0000b22a       __Init_thread_wait         1000c22a f   LIBCMT:thread_safe_statics.obj
 0001:0000b278       ___raise_securityfailure   1000c278 f   LIBCMT:gs_report.obj
 0001:0000b2a0       ___report_gsfailure        1000c2a0 f   LIBCMT:gs_report.obj
 0001:0000b399       ___report_rangecheckfailure 1000c399 f   LIBCMT:gs_report.obj
 0001:0000b3a5       ___report_securityfailure  1000c3a5 f   LIBCMT:gs_report.obj
 0001:0000b473       ??2@YAPAXIABUnothrow_t@std@@@Z 1000c473 f   LIBCMT:new_scalar_nothrow.obj
 0001:0000b4c3       ??_U@YAPAXIABUnothrow_t@std@@@Z 1000c4c3 f   LIBCMT:new_array_nothrow.obj
 0001:0000b4cc       @__security_check_cookie@4 1000c4cc f   LIBCMT:secchk.obj
 0001:0000b4e0       __SEH_prolog4_GS           1000c4e0 f   LIBCMT:sehprolg4gs.obj
 0001:0000b529       __SEH_epilog4_GS           1000c529 f   LIBCMT:sehprolg4gs.obj
 0001:0000b540       __alloca_probe_16          1000c540 f   LIBCMT:alloca16.obj
 0001:0000b556       __alloca_probe_8           1000c556     LIBCMT:alloca16.obj
 0001:0000b570       __alloca_probe             1000c570 f   LIBCMT:chkstk.obj
 0001:0000b570       __chkstk                   1000c570 f   LIBCMT:chkstk.obj
 0001:0000b8dd       __DllMainCRTStartup@12     1000c8dd f   LIBCMT:dll_dllmain.obj
 0001:0000b900       ??2@YAPAXI@Z               1000c900 f   LIBCMT:new_scalar.obj
 0001:0000b930       ___isa_available_init      1000c930 f   LIBCMT:cpu_disp.obj
 0001:0000bb00       ___scrt_is_ucrt_dll_in_use 1000cb00 f   LIBCMT:ucrt_detection.obj
 0001:0000bb0c       ___scrt_fastfail           1000cb0c f   LIBCMT:utility_desktop.obj
 0001:0000bc26       __crt_debugger_hook        1000cc26 f   LIBCMT:utility_desktop.obj
 0001:0000bc30       __SEH_prolog4              1000cc30 f   LIBCMT:sehprolg4.obj
 0001:0000bc76       __SEH_epilog4              1000cc76 f   LIBCMT:sehprolg4.obj
 0001:0000bc8b       @_guard_check_icall_nop@4  1000cc8b f i LIBCMT:guard_support.obj
 0001:0000bcd9       ___security_init_cookie    1000ccd9 f   LIBCMT:gs_support.obj
 0001:0000bd24       ?__scrt_initialize_type_info@@YAXXZ 1000cd24 f   LIBCMT:tncleanup.obj
 0001:0000bd30       ?__scrt_uninitialize_type_info@@YAXXZ 1000cd30 f   LIBCMT:tncleanup.obj
 0001:0000bd3c       ___local_stdio_scanf_options 1000cd3c f i LIBCMT:default_local_stdio_options.obj
 0001:0000bd42       ___scrt_initialize_default_local_stdio_options 1000cd42 f   LIBCMT:default_local_stdio_options.obj
 0001:0000bd5f       ___scrt_get_dyn_tls_init_callback 1000cd5f f   LIBCMT:dyn_tls_init.obj
 0001:0000bd65       __RTC_Initialize           1000cd65 f   LIBCMT:initsect.obj
 0001:0000bd91       __RTC_Terminate            1000cd91 f   LIBCMT:initsect.obj
 0001:0000bdbd       ??0bad_alloc@std@@QAE@ABV01@@Z 1000cdbd f i LIBCMT:throw_bad_alloc.obj
 0001:0000bdd8       ??0bad_alloc@std@@QAE@XZ   1000cdd8 f i LIBCMT:throw_bad_alloc.obj
 0001:0000bdf0       ??0bad_array_new_length@std@@QAE@ABV01@@Z 1000cdf0 f i LIBCMT:throw_bad_alloc.obj
 0001:0000be0b       ??0bad_array_new_length@std@@QAE@XZ 1000ce0b f i LIBCMT:throw_bad_alloc.obj
 0001:0000be23       ??0exception@std@@QAE@ABV01@@Z 1000ce23 f i LIBCMT:throw_bad_alloc.obj
 0001:0000be4f       ??1bad_array_new_length@std@@UAE@XZ 1000ce4f f i LIBCMT:throw_bad_alloc.obj
 0001:0000be4f       ??1bad_exception@std@@UAE@XZ 1000ce4f f i libvcruntime:frame.obj
 0001:0000be4f       ??1bad_alloc@std@@UAE@XZ   1000ce4f f i LIBCMT:throw_bad_alloc.obj
 0001:0000be60       ??_Gbad_alloc@std@@UAEPAXI@Z 1000ce60 f i LIBCMT:throw_bad_alloc.obj
 0001:0000be60       ??_Gbad_array_new_length@std@@UAEPAXI@Z 1000ce60 f i LIBCMT:throw_bad_alloc.obj
 0001:0000be60       ??_Ebad_alloc@std@@UAEPAXI@Z 1000ce60 f i LIBCMT:throw_bad_alloc.obj
 0001:0000be60       ??_Ebad_array_new_length@std@@UAEPAXI@Z 1000ce60 f i LIBCMT:throw_bad_alloc.obj
 0001:0000be60       ??_Gbad_exception@std@@UAEPAXI@Z 1000ce60 f i libvcruntime:frame.obj
 0001:0000be60       ??_Gexception@std@@UAEPAXI@Z 1000ce60 f i LIBCMT:throw_bad_alloc.obj
 0001:0000be60       ??_Eexception@std@@UAEPAXI@Z 1000ce60 f i LIBCMT:throw_bad_alloc.obj
 0001:0000be60       ??_Ebad_exception@std@@UAEPAXI@Z 1000ce60 f i libvcruntime:frame.obj
 0001:0000be8d       ?__scrt_throw_std_bad_alloc@@YAXXZ 1000ce8d f   LIBCMT:throw_bad_alloc.obj
 0001:0000beaa       ?__scrt_throw_std_bad_array_new_length@@YAXXZ 1000ceaa f   LIBCMT:throw_bad_alloc.obj
 0001:0000bec7       ?what@exception@std@@UBEPBDXZ 1000cec7 f i LIBCMT:throw_bad_alloc.obj
 0001:0000bed4       ??_Gtype_info@@UAEPAXI@Z   1000ced4 f i LIBCMT:std_type_info_static.obj
 0001:0000bed4       ??_Etype_info@@UAEPAXI@Z   1000ced4 f i LIBCMT:std_type_info_static.obj
 0001:0000bef7       ??0CAtlBaseModule@ATL@@QAE@XZ 1000cef7 f   atls:atlbase.obj
 0001:0000bf4a       ??0_ATL_BASE_MODULE70@ATL@@QAE@XZ 1000cf4a f i atls:atlbase.obj
 0001:0000bf6d       ??1CAtlBaseModule@ATL@@QAE@XZ 1000cf6d f   atls:atlbase.obj
 0001:0000c05a       ?Init@_stdcallthunk@ATL@@QAEHKPAX@Z 1000d05a f i atls:atlthunk.obj
 0001:0000c08f       ?__AllocStdCallThunk_cmn@@YAPAXXZ 1000d08f f   atls:atlthunk.obj
 0001:0000c155       ?__FreeStdCallThunk_cmn@@YAXPAX@Z 1000d155 f   atls:atlthunk.obj
 0001:0000c1f0       _AtlThunk_AllocateData@0   1000d1f0 f   atls:atlthunk.obj
 0001:0000c255       _AtlThunk_DataToCode@4     1000d255 f   atls:atlthunk.obj
 0001:0000c29c       _AtlThunk_FreeData@4       1000d29c f   atls:atlthunk.obj
 0001:0000c2f2       _AtlThunk_InitData@12      1000d2f2 f   atls:atlthunk.obj
 0001:0000c341       __get_purecall_handler     1000d341 f   libvcruntime:purevirt.obj
 0001:0000c347       __purecall                 1000d347 f   libvcruntime:purevirt.obj
 0001:0000c363       _wcsstr                    1000d363 f   libvcruntime:wcsstr.obj
 0001:0000c610       __except_handler4          1000d610 f   libvcruntime:chandler4.obj
 0001:0000c76e       _memcmp                    1000d76e f   libvcruntime:memcmp.obj
 0001:0000d680       _memcpy                    1000e680 f   libvcruntime:memcpy.obj
 0001:0000dc00       _memset                    1000ec00 f   libvcruntime:memset.obj
 0001:0000dd5a       ___vcrt_initialize         1000ed5a f   libvcruntime:initialization.obj
 0001:0000dd79       ___vcrt_thread_attach      1000ed79 f   libvcruntime:initialization.obj
 0001:0000dd84       ___vcrt_thread_detach      1000ed84 f   libvcruntime:initialization.obj
 0001:0000dd8f       ___vcrt_uninitialize       1000ed8f f   libvcruntime:initialization.obj
 0001:0000dda6       ___vcrt_uninitialize_critical 1000eda6 f   libvcruntime:initialization.obj
 0001:0000ddae       ?GetRangeOfTrysToCheck@__FrameHandler3@@SA?AU?$pair@Viterator@TryBlockMap@__FrameHandler3@@V123@@std@@AAVTryBlockMap@1@HPAXPBU_s_FuncInfo@@H@Z 1000edae f   libvcruntime:trnsctrl.obj
 0001:0000de1e       ?_CallCatchBlock2@@YAPAXPAUEHRegistrationNode@@PBU_s_FuncInfo@@PAXHK@Z 1000ee1e f   libvcruntime:trnsctrl.obj
 0001:0000de7c       ?_CallSETranslator@@YAHPAUEHExceptionRecord@@PAUEHRegistrationNode@@PAX2PBU_s_FuncInfo@@H1@Z 1000ee7c f   libvcruntime:trnsctrl.obj
 0001:0000df62       ?_JumpToContinuation@@YGXPAXPAUEHRegistrationNode@@@Z 1000ef62 f   libvcruntime:trnsctrl.obj
 0001:0000df92       ?_UnwindNestedFrames@@YGXPAUEHRegistrationNode@@PAUEHExceptionRecord@@@Z 1000ef92 f   libvcruntime:trnsctrl.obj
 0001:0000dfe5       __CatchGuardHandler        1000efe5 f   libvcruntime:trnsctrl.obj
 0001:0000e016       __CreateFrameInfo          1000f016 f   libvcruntime:trnsctrl.obj
 0001:0000e03a       __FindAndUnlinkFrame       1000f03a f   libvcruntime:trnsctrl.obj
 0001:0000e082       __TranslatorGuardHandler   1000f082 f   libvcruntime:trnsctrl.obj
 0001:0000e11f       ___CxxFrameHandler3        1000f11f f   libvcruntime:trnsctrl.obj
 0001:0000e155       ___DestructExceptionObject 1000f155 f   libvcruntime:ehhelpers.obj
 0001:0000e1f6       ?_CallMemberFunction0@@YGXQAX0@Z 1000f1f6 f i libvcruntime:ehhelpers.obj
 0001:0000e25b       __IsExceptionObjectToBeDestroyed 1000f25b f   libvcruntime:ehhelpers.obj
 0001:0000e281       ___AdjustPointer           1000f281 f   libvcruntime:ehhelpers.obj
 0001:0000e2a6       ___FrameUnwindFilter       1000f2a6 f   libvcruntime:ehhelpers.obj
 0001:0000e2fc       ___std_type_info_compare   1000f2fc f   libvcruntime:std_type_info.obj
 0001:0000e338       ___std_type_info_destroy_list 1000f338 f   libvcruntime:std_type_info.obj
 0001:0000e35b       ___std_exception_copy      1000f35b f   libvcruntime:std_exception.obj
 0001:0000e3be       ___std_exception_destroy   1000f3be f   libvcruntime:std_exception.obj
 0001:0000e3dd       __CxxThrowException@8      1000f3dd f   libvcruntime:throw.obj
 0001:0000e450       _memmove                   1000f450 f   libvcruntime:memmove.obj
 0001:0000e9d0       __local_unwind4            1000f9d0 f   libvcruntime:exsup4.obj
 0001:0000eaa8       __seh_longjmp_unwind4@4    1000faa8 f   libvcruntime:exsup4.obj
 0001:0000ead0       @_EH4_CallFilterFunc@8     1000fad0 f   libvcruntime:exsup4.obj
 0001:0000eae8       @_EH4_TransferToHandler@8  1000fae8 f   libvcruntime:exsup4.obj
 0001:0000eb04       @_EH4_GlobalUnwind2@8      1000fb04 f   libvcruntime:exsup4.obj
 0001:0000eb20       @_EH4_LocalUnwind@16       1000fb20 f   libvcruntime:exsup4.obj
 0001:0000eb37       ___except_validate_context_record 1000fb37 f   libvcruntime:jbcxrval.obj
 0001:0000eb67       ___except_validate_jump_buffer 1000fb67 f   libvcruntime:jbcxrval.obj
 0001:0000eb94       ___vcrt_freefls@4          1000fb94 f   libvcruntime:per_thread_data.obj
 0001:0000ebb0       ___vcrt_freeptd            1000fbb0 f   libvcruntime:per_thread_data.obj
 0001:0000ebe6       ___vcrt_getptd             1000fbe6 f   libvcruntime:per_thread_data.obj
 0001:0000ebf4       ___vcrt_getptd_noexit      1000fbf4 f   libvcruntime:per_thread_data.obj
 0001:0000ec86       ___vcrt_initialize_ptd     1000fc86 f   libvcruntime:per_thread_data.obj
 0001:0000ecb9       ___vcrt_uninitialize_ptd   1000fcb9 f   libvcruntime:per_thread_data.obj
 0001:0000ecd4       ___vcrt_initialize_locks   1000fcd4 f   libvcruntime:locks.obj
 0001:0000ed10       ___vcrt_uninitialize_locks 1000fd10 f   libvcruntime:locks.obj
 0001:0000f482       ??$TypeMatchHelper@V__FrameHandler3@@@@YAHPBU_s_HandlerType@@PBU_s_CatchableType@@PBU_s_ThrowInfo@@@Z 10010482 f i libvcruntime:frame.obj
 0001:0000f510       ??$__InternalCxxFrameHandler@V__FrameHandler3@@@@YA?AW4_EXCEPTION_DISPOSITION@@PAUEHExceptionRecord@@PAUEHRegistrationNode@@PAU_CONTEXT@@PAXPBU_s_FuncInfo@@H1E@Z 10010510 f i libvcruntime:frame.obj
 0001:0000f612       ??0bad_exception@std@@QAE@ABV01@@Z 10010612 f i libvcruntime:frame.obj
 0001:0000f62d       ??0bad_exception@std@@QAE@XZ 1001062d f i libvcruntime:frame.obj
 0001:0000f645       ??8type_info@@QBE_NABV0@@Z 10010645 f i libvcruntime:frame.obj
 0001:0000f8ac       ?FrameUnwindToEmptyState@__FrameHandler3@@SAXPAUEHRegistrationNode@@PAXPBU_s_FuncInfo@@@Z 100108ac f   libvcruntime:frame.obj
 0001:0000f8c4       ?FrameUnwindToState@__FrameHandler3@@SAXPAUEHRegistrationNode@@PAXPBU_s_FuncInfo@@H@Z 100108c4 f   libvcruntime:frame.obj
 0001:0000fa46       ?_CallMemberFunction1@@YGXQAX00@Z 10010a46 f i libvcruntime:frame.obj
 0001:0000fa56       ?_CallMemberFunction2@@YGXQAX00H@Z 10010a56 f i libvcruntime:frame.obj
 0001:0000fa69       ?getESTypes@__FrameHandler3@@SAPBU_s_ESTypeList@@PBU_s_FuncInfo@@@Z 10010a69 f i libvcruntime:frame.obj
 0001:0000fa80       __CallSettingFrame@12      10010a80 f   libvcruntime:lowhelpr.obj
 0001:0000faa7       __NLG_Return               10010aa7     libvcruntime:lowhelpr.obj
 0001:0000fad0       __global_unwind2           10010ad0 f   libvcruntime:exsup.obj
 0001:0000fb36       __local_unwind2            10010b36 f   libvcruntime:exsup.obj
 0001:0000fbba       __abnormal_termination     10010bba f   libvcruntime:exsup.obj
 0001:0000fbe0       __NLG_Notify1              10010be0 f   libvcruntime:exsup.obj
 0001:0000fbec       __NLG_Notify               10010bec f   libvcruntime:exsup.obj
 0001:0000fc03       __NLG_Dispatch2            10010c03     libvcruntime:exsup.obj
 0001:0000fc03       __NLG_Dispatch             10010c03     libvcruntime:exsup.obj
 0001:0000fc0b       __NLG_Call                 10010c0b f   libvcruntime:exsup.obj
 0001:0000fc0d       __NLG_Return2              10010c0d     libvcruntime:exsup.obj
 0001:0000fcf1       ___vcrt_FlsAlloc           10010cf1 f   libvcruntime:winapi_downlevel.obj
 0001:0000fd2c       ___vcrt_FlsFree            10010d2c f   libvcruntime:winapi_downlevel.obj
 0001:0000fd67       ___vcrt_FlsGetValue        10010d67 f   libvcruntime:winapi_downlevel.obj
 0001:0000fda2       ___vcrt_FlsSetValue        10010da2 f   libvcruntime:winapi_downlevel.obj
 0001:0000fde0       ___vcrt_InitializeCriticalSectionEx 10010de0 f   libvcruntime:winapi_downlevel.obj
 0001:0000fe27       _unexpected                10010e27 f   libvcruntime:unexpected.obj
 0001:0000fe44       ?GetCurrentState@__FrameHandler3@@SAHPAUEHRegistrationNode@@PAXPBU_s_FuncInfo@@@Z 10010e44 f   libvcruntime:ehstate.obj
 0001:0000fe61       ?SetState@__FrameHandler3@@SAXPAUEHRegistrationNode@@PBU_s_FuncInfo@@H@Z 10010e61 f   libvcruntime:ehstate.obj
 0001:0000fe6f       _free                      10010e6f f   libucrt:free.obj
 0001:0000fe8a       ___acrt_call_reportfault   10010e8a f   libucrt:invalid_parameter.obj
 0001:0000ffc3       ___acrt_initialize_invalid_parameter_handler 10010fc3 f   libucrt:invalid_parameter.obj
 0001:0000ffd2       __invalid_parameter        10010fd2 f   libucrt:invalid_parameter.obj
 0001:00010036       __invalid_parameter_noinfo 10011036 f   libucrt:invalid_parameter.obj
 0001:00010046       __invoke_watson            10011046 f   libucrt:invalid_parameter.obj
 0001:0001007a       ___acrt_errno_from_os_error 1001107a f   libucrt:errno.obj
 0001:000100bd       ___acrt_errno_map_os_error 100110bd f   libucrt:errno.obj
 0001:000100e0       ___doserrno                100110e0 f   libucrt:errno.obj
 0001:000100f3       __errno                    100110f3 f   libucrt:errno.obj
 0001:00010106       _calloc                    10011106 f   libucrt:calloc.obj
 0001:00010111       _malloc                    10011111 f   libucrt:malloc.obj
 0001:0001011c       __recalloc                 1001111c f   libucrt:recalloc.obj
 0001:00010127       __recalloc_base            10011127 f   libucrt:recalloc.obj
 0001:00010194       __resetstkoflw             10011194 f   libucrt:resetstk.obj
 0001:00010259       _wcscat_s                  10011259 f   libucrt:wcscat_s.obj
 0001:000102ce       _wcscpy_s                  100112ce f   libucrt:wcscpy_s.obj
 0001:000103fd       _wcsncpy_s                 100113fd f   libucrt:wcsncpy_s.obj
 0001:00010609       ??$count@D@formatting_buffer@__crt_stdio_output@@QBEIXZ 10011609 f i libucrt:output.obj
 0001:00010621       ??$count@_W@formatting_buffer@__crt_stdio_output@@QBEIXZ 10011621 f i libucrt:output.obj
 0001:0001063a       ??$ensure_buffer_is_big_enough@D@formatting_buffer@__crt_stdio_output@@QAE_NI@Z 1001163a f i libucrt:output.obj
 0001:000106b7       ??$ensure_buffer_is_big_enough@_W@formatting_buffer@__crt_stdio_output@@QAE_NI@Z 100116b7 f i libucrt:output.obj
 0001:00010735       ??$is_wide_character_specifier@_W@__crt_stdio_output@@YA_N_K_WW4length_modifier@0@@Z 10011735 f i libucrt:output.obj
 0001:00010783       ??$scratch_data@D@formatting_buffer@__crt_stdio_output@@QAEPADXZ 10011783 f i libucrt:output.obj
 0001:000107a1       ??$type_case_integer_parse_into_buffer@I@?$output_processor@_WV?$string_output_adapter@_W@__crt_stdio_output@@V?$format_validation_base@_WV?$string_output_adapter@_W@__crt_stdio_output@@@2@@__crt_stdio_output@@AAEXII_N@Z 100117a1 f i libucrt:output.obj
 0001:00010828       ??$type_case_integer_parse_into_buffer@_K@?$output_processor@_WV?$string_output_adapter@_W@__crt_stdio_output@@V?$format_validation_base@_WV?$string_output_adapter@_W@__crt_stdio_output@@@2@@__crt_stdio_output@@AAEX_KI_N@Z 10011828 f i libucrt:output.obj
 0001:000108ca       ??$write_multiple_characters@V?$string_output_adapter@_W@__crt_stdio_output@@D@__crt_stdio_output@@YAXABV?$string_output_adapter@_W@0@DHQAH@Z 100118ca f i libucrt:output.obj
 0001:000108fb       ??0?$common_data@_W@__crt_stdio_output@@IAE@XZ 100118fb f i libucrt:output.obj
 0001:00010945       ??0?$output_adapter_data@_WV?$string_output_adapter@_W@__crt_stdio_output@@@__crt_stdio_output@@IAE@ABV?$string_output_adapter@_W@1@_KQB_WQAU__crt_locale_pointers@@QAD@Z 10011945 f i libucrt:output.obj
 0001:00010981       ??0_LocaleUpdate@@QAE@QAU__crt_locale_pointers@@@Z 10011981 f i libucrt:output.obj
 0001:00010a04       ??1formatting_buffer@__crt_stdio_output@@QAE@XZ 10011a04 f i libucrt:output.obj
 0001:00010a1e       ??4?$__crt_unique_heap_ptr@DU__crt_internal_free_policy@@@@QAEAAV0@$$QAV0@@Z 10011a1e f i libucrt:output.obj
 0001:00010a50       ?crop_zeroes@__crt_stdio_output@@YAXPADQAU__crt_locale_pointers@@@Z 10011a50 f i libucrt:output.obj
 0001:00010ad1       ?find_next_state@?$output_processor@_WV?$string_output_adapter@_W@__crt_stdio_output@@V?$format_validation_base@_WV?$string_output_adapter@_W@__crt_stdio_output@@@2@@__crt_stdio_output@@ABE?AW4state@2@_WW432@@Z 10011ad1 f i libucrt:output.obj
 0001:00010b10       ?force_decimal_point@__crt_stdio_output@@YAXPADQAU__crt_locale_pointers@@@Z 10011b10 f i libucrt:output.obj
 0001:00010b75       ?parse_int_from_format_string@?$output_processor@_WV?$string_output_adapter@_W@__crt_stdio_output@@V?$format_validation_base@_WV?$string_output_adapter@_W@__crt_stdio_output@@@2@@__crt_stdio_output@@AAE_NQAH@Z 10011b75 f i libucrt:output.obj
 0001:00010beb       ?process@?$output_processor@_WV?$string_output_adapter@_W@__crt_stdio_output@@V?$format_validation_base@_WV?$string_output_adapter@_W@__crt_stdio_output@@@2@@__crt_stdio_output@@QAEHXZ 10011beb f i libucrt:output.obj
 0001:00010d13       ?state_case_flag@?$output_processor@_WV?$string_output_adapter@_W@__crt_stdio_output@@V?$format_validation_base@_WV?$string_output_adapter@_W@__crt_stdio_output@@@2@@__crt_stdio_output@@AAE_NXZ 10011d13 f i libucrt:output.obj
 0001:00010d50       ?state_case_normal@?$output_processor@_WV?$string_output_adapter@_W@__crt_stdio_output@@V?$format_validation_base@_WV?$string_output_adapter@_W@__crt_stdio_output@@@2@@__crt_stdio_output@@AAE_NXZ 10011d50 f i libucrt:output.obj
 0001:00010d6f       ?state_case_normal_common@?$output_processor@_WV?$string_output_adapter@_W@__crt_stdio_output@@V?$format_validation_base@_WV?$string_output_adapter@_W@__crt_stdio_output@@@2@@__crt_stdio_output@@AAE_NXZ 10011d6f f i libucrt:output.obj
 0001:00010d8a       ?state_case_precision@?$output_processor@_WV?$string_output_adapter@_W@__crt_stdio_output@@V?$format_validation_base@_WV?$string_output_adapter@_W@__crt_stdio_output@@@2@@__crt_stdio_output@@AAE_NXZ 10011d8a f i libucrt:output.obj
 0001:00010db1       ?state_case_size@?$output_processor@_WV?$string_output_adapter@_W@__crt_stdio_output@@V?$format_validation_base@_WV?$string_output_adapter@_W@__crt_stdio_output@@@2@@__crt_stdio_output@@AAE_NXZ 10011db1 f i libucrt:output.obj
 0001:00010f29       ?state_case_type@?$output_processor@_WV?$string_output_adapter@_W@__crt_stdio_output@@V?$format_validation_base@_WV?$string_output_adapter@_W@__crt_stdio_output@@@2@@__crt_stdio_output@@AAE_NXZ 10011f29 f i libucrt:output.obj
 0001:00011186       ?state_case_width@?$output_processor@_WV?$string_output_adapter@_W@__crt_stdio_output@@V?$format_validation_base@_WV?$string_output_adapter@_W@__crt_stdio_output@@@2@@__crt_stdio_output@@AAE_NXZ 10012186 f i libucrt:output.obj
 0001:000111c0       ?to_integer_size@__crt_stdio_output@@YAIW4length_modifier@1@@Z 100121c0 f i libucrt:output.obj
 0001:0001121c       ?type_case_Z@?$output_processor@_WV?$string_output_adapter@_W@__crt_stdio_output@@V?$format_validation_base@_WV?$string_output_adapter@_W@__crt_stdio_output@@@2@@__crt_stdio_output@@AAE_NXZ 1001221c f i libucrt:output.obj
 0001:00011276       ?type_case_a@?$output_processor@_WV?$string_output_adapter@_W@__crt_stdio_output@@V?$format_validation_base@_WV?$string_output_adapter@_W@__crt_stdio_output@@@2@@__crt_stdio_output@@AAE_NXZ 10012276 f i libucrt:output.obj
 0001:000113dd       ?type_case_c_tchar@?$output_processor@_WV?$string_output_adapter@_W@__crt_stdio_output@@V?$format_validation_base@_WV?$string_output_adapter@_W@__crt_stdio_output@@@2@@__crt_stdio_output@@AAE_N_W@Z 100123dd f i libucrt:output.obj
 0001:00011473       ?type_case_integer@?$output_processor@_WV?$string_output_adapter@_W@__crt_stdio_output@@V?$format_validation_base@_WV?$string_output_adapter@_W@__crt_stdio_output@@@2@@__crt_stdio_output@@AAE_NI_N@Z 10012473 f i libucrt:output.obj
 0001:000115c8       ?type_case_n@?$output_processor@_WV?$string_output_adapter@_W@__crt_stdio_output@@V?$format_validation_base@_WV?$string_output_adapter@_W@__crt_stdio_output@@@2@@__crt_stdio_output@@AAE_NXZ 100125c8 f i libucrt:output.obj
 0001:0001163c       ?type_case_o@?$output_processor@_WV?$string_output_adapter@_W@__crt_stdio_output@@V?$format_validation_base@_WV?$string_output_adapter@_W@__crt_stdio_output@@@2@@__crt_stdio_output@@AAE_NXZ 1001263c f i libucrt:output.obj
 0001:0001165b       ?type_case_p@?$output_processor@_WV?$string_output_adapter@_W@__crt_stdio_output@@V?$format_validation_base@_WV?$string_output_adapter@_W@__crt_stdio_output@@@2@@__crt_stdio_output@@AAE_NXZ 1001265b f i libucrt:output.obj
 0001:00011673       ?type_case_s@?$output_processor@_WV?$string_output_adapter@_W@__crt_stdio_output@@V?$format_validation_base@_WV?$string_output_adapter@_W@__crt_stdio_output@@@2@@__crt_stdio_output@@AAE_NXZ 10012673 f i libucrt:output.obj
 0001:000116e6       ?type_case_s_compute_narrow_string_length@?$output_processor@_WV?$string_output_adapter@_W@__crt_stdio_output@@V?$format_validation_base@_WV?$string_output_adapter@_W@__crt_stdio_output@@@2@@__crt_stdio_output@@ABEHH_W@Z 100126e6 f i libucrt:output.obj
 0001:0001172d       ?validate@?$string_output_adapter@_W@__crt_stdio_output@@QBE_NXZ 1001272d f i libucrt:output.obj
 0001:0001172d       ?validate@?$c_string_character_source@_W@__crt_strtox@@QBE_NXZ 1001272d f i libucrt:atox.obj
 0001:00011748       ?validate_and_update_state_at_end_of_format_string@?$format_validation_base@_WV?$string_output_adapter@_W@__crt_stdio_output@@@__crt_stdio_output@@IBE_NXZ 10012748 f i libucrt:output.obj
 0001:0001176a       ?write_character@?$string_output_adapter@_W@__crt_stdio_output@@QBE_N_WQAH@Z 1001276a f i libucrt:output.obj
 0001:000117af       ?write_stored_string_tchar@?$output_processor@_WV?$string_output_adapter@_W@__crt_stdio_output@@V?$format_validation_base@_WV?$string_output_adapter@_W@__crt_stdio_output@@@2@@__crt_stdio_output@@AAE_N_W@Z 100127af f i libucrt:output.obj
 0001:0001183c       ?write_string@?$string_output_adapter@_W@__crt_stdio_output@@QBEXQB_WHQAHAAV__crt_deferred_errno_cache@@@Z 1001283c f i libucrt:output.obj
 0001:000118ad       ___acrt_locale_get_ctype_array_value 100128ad f i libucrt:output.obj
 0001:000118cf       ___stdio_common_vswprintf_s 100128cf f   libucrt:output.obj
 0001:000118f3       __seh_filter_dll           100128f3 f   libucrt:exception_filter.obj
 0001:00011913       __seh_filter_exe           10012913 f   libucrt:exception_filter.obj
 0001:00011ce1       ___acrt_initialize_thread_local_exit_callback 10012ce1 f   libucrt:exit.obj
 0001:00011cf0       __cexit                    10012cf0 f   libucrt:exit.obj
 0001:00011cff       __exit                     10012cff f   libucrt:exit.obj
 0001:00011d15       __is_c_termination_complete 10012d15 f   libucrt:exit.obj
 0001:00011fc6       ___acrt_allocate_buffer_for_argv 10012fc6 f   libucrt:argv_parsing.obj
 0001:00012015       __configure_narrow_argv    10013015 f   libucrt:argv_parsing.obj
 0001:00012172       ??$uninitialize@A6AXAAPAPAD@Z@?$dual_state_global@PAPAD@__crt_state_management@@QAEXA6AXAAPAPAD@Z@Z 10013172 f i libucrt:environment_initialization.obj
 0001:00012172       ??$uninitialize@A6AXAAPAPA_W@Z@?$dual_state_global@PAPA_W@__crt_state_management@@QAEXA6AXAAPAPA_W@Z@Z 10013172 f i libucrt:environment_initialization.obj
 0001:000121d1       ___dcrt_uninitialize_environments_nolock 100131d1 f   libucrt:environment_initialization.obj
 0001:00012208       __initialize_narrow_environment 10013208 f   libucrt:environment_initialization.obj
 0001:000122c3       ??$__crt_fast_encode_pointer@PAP6AXXZ@@YAPAP6AXXZQAP6AXXZ@Z 100132c3 f i libucrt:onexit.obj
 0001:000122c3       ??$__crt_fast_encode_pointer@P6AHXZ@@YAP6AHXZQ6AHXZ@Z 100132c3 f i libucrt:onexit.obj
 0001:000122c3       ??$__crt_fast_encode_pointer@PAX@@YAPAXQAX@Z 100132c3 f i libucrt:initialization.obj
 0001:000124e5       __crt_atexit               100134e5 f   libucrt:onexit.obj
 0001:000124fb       __execute_onexit_table     100134fb f   libucrt:onexit.obj
 0001:00012528       __initialize_onexit_table  10013528 f   libucrt:onexit.obj
 0001:00012551       __register_onexit_function 10013551 f   libucrt:onexit.obj
 0001:000125ab       ___acrt_uninitialize_command_line 100135ab f   libucrt:argv_data.obj
 0001:00012682       ___acrt_initialize         10013682 f   libucrt:initialization.obj
 0001:00012694       ___acrt_thread_attach      10013694 f   libucrt:initialization.obj
 0001:0001269f       ___acrt_thread_detach      1001369f f   libucrt:initialization.obj
 0001:000126a7       ___acrt_uninitialize       100136a7 f   libucrt:initialization.obj
 0001:000126d7       ___acrt_uninitialize_critical 100136d7 f   libucrt:initialization.obj
 0001:000126e9       __initterm                 100136e9 f   libucrt:initterm.obj
 0001:0001272e       __initterm_e               1001372e f   libucrt:initterm.obj
 0001:0001275c       ___acrt_initialize_new_handler 1001375c f   libucrt:new_handler.obj
 0001:0001276b       __callnewh                 1001376b f   libucrt:new_handler.obj
 0001:00012798       __query_new_handler        10013798 f   libucrt:new_handler.obj
 0001:000127f4       _terminate                 100137f4 f   libucrt:terminate.obj
 0001:00012830       _abort                     10013830 f   libucrt:abort.obj
 0001:00012874       _strcpy_s                  10013874 f   libucrt:strcpy_s.obj
 0001:000128ce       ??$is_overflow_condition@K@__crt_strtox@@YA_NIK@Z 100138ce f i libucrt:atox.obj
 0001:000128ff       ??$parse_integer@KV?$c_string_character_source@_W@__crt_strtox@@@__crt_strtox@@YAKQAU__crt_locale_pointers@@V?$c_string_character_source@_W@0@H_N@Z 100138ff f i libucrt:atox.obj
 0001:00012f07       ?unget@?$c_string_character_source@_W@__crt_strtox@@QAEX_W@Z 10013f07 f i libucrt:atox.obj
 0001:00012f40       _strncmp                   10013f40 f   libucrt:strncmp.obj
 0001:00012fb8       _wcsncmp                   10013fb8 f   libucrt:wcsncmp.obj
 0001:00012ff2       __free_base                10013ff2 f   libucrt:free_base.obj
 0001:0001336a       ___acrt_freeptd            1001436a f   libucrt:per_thread_data.obj
 0001:00013396       ___acrt_getptd             10014396 f   libucrt:per_thread_data.obj
 0001:00013453       ___acrt_getptd_head        10014453 f   libucrt:per_thread_data.obj
 0001:000134ed       ___acrt_getptd_noexit      100144ed f   libucrt:per_thread_data.obj
 0001:000135a2       ___acrt_initialize_ptd     100145a2 f   libucrt:per_thread_data.obj
 0001:000135ce       ___acrt_uninitialize_ptd   100145ce f   libucrt:per_thread_data.obj
 0001:000135e8       __calloc_base              100145e8 f   libucrt:calloc_base.obj
 0001:00013645       __malloc_base              10014645 f   libucrt:malloc_base.obj
 0001:00013693       __msize_base               10014693 f   libucrt:msize.obj
 0001:000136c6       __realloc_base             100146c6 f   libucrt:realloc_base.obj
 0001:000138c7       ___acrt_AppPolicyGetProcessTerminationMethodInternal@4 100148c7 f   libucrt:winapi_thunks.obj
 0001:00013907       ___acrt_AreFileApisANSI@0  10014907 f   libucrt:winapi_thunks.obj
 0001:00013926       ___acrt_FlsAlloc@4         10014926 f   libucrt:winapi_thunks.obj
 0001:00013965       ___acrt_FlsFree@4          10014965 f   libucrt:winapi_thunks.obj
 0001:000139a4       ___acrt_FlsGetValue@4      100149a4 f   libucrt:winapi_thunks.obj
 0001:000139e3       ___acrt_FlsSetValue@8      100149e3 f   libucrt:winapi_thunks.obj
 0001:00013a25       ___acrt_InitializeCriticalSectionEx@12 10014a25 f   libucrt:winapi_thunks.obj
 0001:00013a70       ___acrt_LCMapStringEx@36   10014a70 f   libucrt:winapi_thunks.obj
 0001:00013acd       ___acrt_LocaleNameToLCID@8 10014acd f   libucrt:winapi_thunks.obj
 0001:00013afe       ___acrt_SetThreadStackGuarantee@4 10014afe f   libucrt:winapi_thunks.obj
 0001:00013b39       ___acrt_initialize_winapi_thunks 10014b39 f   libucrt:winapi_thunks.obj
 0001:00013b64       ___acrt_uninitialize_winapi_thunks 10014b64 f   libucrt:winapi_thunks.obj
 0001:00013b9a       ??$make_c_string_character_source@_WPAPA_W@__crt_strtox@@YA?AV?$c_string_character_source@_W@0@QB_WQAPA_W@Z 10014b9a f i libucrt:strtox.obj
 0001:00013bb5       _wcstol                    10014bb5 f   libucrt:strtox.obj
 0001:00013bdf       __mbtowc_l                 10014bdf f   libucrt:mbtowc.obj
 0001:00013d21       _mbtowc                    10014d21 f   libucrt:mbtowc.obj
 0001:00013d3b       _wcsnlen                   10014d3b f   libucrt:strnlen.obj
 0001:00013eeb       ___acrt_update_locale_info 10014eeb f   libucrt:locale_update.obj
 0001:00013f18       ___acrt_update_multibyte_info 10014f18 f   libucrt:locale_update.obj
 0001:00013f45       ?__acrt_fp_classify@@YA?AW4__acrt_fp_class@@ABN@Z 10014f45 f i libucrt:cvt.obj
 0001:000148f7       ___acrt_fp_format          100158f7 f   libucrt:cvt.obj
 0001:00014a55       __fileno                   10015a55 f   libucrt:fileno.obj
 0001:00014a7c       ___acrt_initialize_stdio   10015a7c f   libucrt:_file.obj
 0001:00014b44       ___acrt_uninitialize_stdio 10015b44 f   libucrt:_file.obj
 0001:00014b90       __lock_file                10015b90 f   libucrt:_file.obj
 0001:00014ba4       __unlock_file              10015ba4 f   libucrt:_file.obj
 0001:00014bb8       __get_printf_count_output  10015bb8 f   libucrt:printf_count_output.obj
 0001:00014c3b       ___acrt_set_locale_changed 10015c3b f   libucrt:wsetlocale.obj
 0001:00014c46       ___acrt_uninitialize_locale 10015c46 f   libucrt:wsetlocale.obj
 0001:00014dd7       ___acrt_initialize_lowio   10015dd7 f   libucrt:ioinit.obj
 0001:00014e37       ___acrt_uninitialize_lowio 10015e37 f   libucrt:ioinit.obj
 0001:00014e63       ___acrt_initialize_locks   10015e63 f   libucrt:locks.obj
 0001:00014ea4       ___acrt_lock               10015ea4 f   libucrt:locks.obj
 0001:00014ebb       ___acrt_uninitialize_locks 10015ebb f   libucrt:locks.obj
 0001:00014eec       ___acrt_unlock             10015eec f   libucrt:locks.obj
 0001:00014f03       ___acrt_get_process_end_policy 10015f03 f   libucrt:win_policies.obj
 0001:000150cd       ??$__acrt_mbs_to_wcs_cp@U__crt_win32_buffer_internal_dynamic_resizing@@@@YAHQBDAAV?$__crt_win32_buffer@_WU__crt_win32_buffer_internal_dynamic_resizing@@@@I@Z 100160cd f i libucrt:argv_wildcards.obj
 0001:000155e1       ?__acrt_get_utf8_acp_compatibility_codepage@@YAIXZ 100165e1 f i libucrt:argv_wildcards.obj
 0001:00015620       ?_deallocate@?$__crt_win32_buffer@_WU__crt_win32_buffer_internal_dynamic_resizing@@@@AAEXXZ 10016620 f i libucrt:argv_wildcards.obj
 0001:00015620       ?_deallocate@?$__crt_win32_buffer@DU__crt_win32_buffer_internal_dynamic_resizing@@@@AAEXXZ 10016620 f i libucrt:argv_wildcards.obj
 0001:0001563a       ?allocate@?$__crt_win32_buffer@DU__crt_win32_buffer_internal_dynamic_resizing@@@@QAEHI@Z 1001663a f i libucrt:argv_wildcards.obj
 0001:00015676       ?allocate@?$__crt_win32_buffer@_WU__crt_win32_buffer_internal_dynamic_resizing@@@@QAEHI@Z 10016676 f i libucrt:argv_wildcards.obj
 0001:000156b5       ?allocate@__crt_win32_buffer_internal_dynamic_resizing@@SAHQAPAXIABV__crt_win32_buffer_empty_debug_info@@@Z 100166b5 f i libucrt:argv_wildcards.obj
 0001:0001575b       ___acrt_expand_narrow_argv_wildcards 1001675b f   libucrt:argv_wildcards.obj
 0001:0001582d       ?allocate@?$__crt_win32_buffer@DU__crt_win32_buffer_no_resizing@@@@QAEHI@Z 1001682d f i libucrt:getmodulefilenamea.obj
 0001:00015854       ?set_to_nullptr@?$__crt_win32_buffer@DU__crt_win32_buffer_no_resizing@@@@QAEXXZ 10016854 f i libucrt:getmodulefilenamea.obj
 0001:00015868       ___acrt_GetModuleFileNameA 10016868 f   libucrt:getmodulefilenamea.obj
 0001:00015e21       ___acrt_initialize_multibyte 10016e21 f   libucrt:mbctype.obj
 0001:00015e69       ___acrt_update_thread_multibyte_data 10016e69 f   libucrt:mbctype.obj
 0001:00015e7c       __setmbcp_nolock           10016e7c f   libucrt:mbctype.obj
 0001:00016147       __ismbblead                10017147 f   libucrt:ismbbyte.obj
 0001:0001615f       ___acrt_initialize_command_line 1001715f f   libucrt:argv_data.obj
 0001:00016178       ___acrt_MultiByteToWideChar 10017178 f   libucrt:multibytetowidechar.obj
 0001:000161f4       ___acrt_WideCharToMultiByte 100171f4 f   libucrt:widechartomultibyte.obj
 0001:000162e2       ___dcrt_get_narrow_environment_from_os 100172e2 f   libucrt:get_environment_from_os.obj
 0001:00016366       ___acrt_initialize_heap    10017366 f   libucrt:heap_handle.obj
 0001:00016377       ___acrt_uninitialize_heap  10017377 f   libucrt:heap_handle.obj
 0001:00016381       ___acrt_execute_initializers 10017381 f   libucrt:shared_initialization.obj
 0001:000163e9       ___acrt_execute_uninitializers 100173e9 f   libucrt:shared_initialization.obj
 0001:000164e8       ___acrt_get_sigabrt_handler 100174e8 f   libucrt:signal.obj
 0001:0001650f       ___acrt_initialize_signal_handlers 1001750f f   libucrt:signal.obj
 0001:0001652d       _raise                     1001752d f   libucrt:signal.obj
 0001:00016720       ___acrt_has_user_matherr   10017720 f   libucrt:matherr.obj
 0001:00016738       ___acrt_initialize_user_matherr 10017738 f   libucrt:matherr.obj
 0001:00016747       ___acrt_invoke_user_matherr 10017747 f   libucrt:matherr.obj
 0001:00016956       ___acrt_stdio_flush_nolock 10017956 f   libucrt:fflush.obj
 0001:000169bb       __fflush_nolock            100179bb f   libucrt:fflush.obj
 0001:00016a03       __flushall                 10017a03 f   libucrt:fflush.obj
 0001:00016a0c       ___pctype_func             10017a0c f   libucrt:ctype.obj
 0001:00016a30       _iswctype                  10017a30 f   libucrt:iswctype.obj
 0001:00016a99       ___acrt_add_locale_ref     10017a99 f   libucrt:locale_refcounting.obj
 0001:00016b16       ___acrt_free_locale        10017b16 f   libucrt:locale_refcounting.obj
 0001:00016c5e       ___acrt_locale_add_lc_time_reference 10017c5e f   libucrt:locale_refcounting.obj
 0001:00016c87       ___acrt_locale_free_lc_time_if_unreferenced 10017c87 f   libucrt:locale_refcounting.obj
 0001:00016cb8       ___acrt_locale_release_lc_time_reference 10017cb8 f   libucrt:locale_refcounting.obj
 0001:00016ce1       ___acrt_release_locale_ref 10017ce1 f   libucrt:locale_refcounting.obj
 0001:00016d62       ___acrt_update_thread_locale_data 10017d62 f   libucrt:locale_refcounting.obj
 0001:00016de3       __updatetlocinfoEx_nolock  10017de3 f   libucrt:locale_refcounting.obj
 0001:00016e33       __query_new_mode           10017e33 f   libucrt:new_mode.obj
 0001:00016e8a       ___acrt_DownlevelLocaleNameToLCID 10017e8a f   libucrt:lcidtoname_downlevel.obj
 0001:00016eb6       __isleadbyte_l             10017eb6 f i libucrt:_wctype.obj
 0001:00016f1c       ?__mbrtowc_utf8@__crt_mbstring@@YAIPA_WPBDIPAU_Mbstatet@@@Z 10017f1c f   libucrt:mbrtowc.obj
 0001:00016f5c       ?__mbsrtowcs_utf8@__crt_mbstring@@YAIPA_WPAPBDIPAU_Mbstatet@@@Z 10017f5c f   libucrt:mbrtowc.obj
 0001:00017057       ?return_illegal_sequence@__crt_mbstring@@YAIPAU_Mbstatet@@@Z 10018057 f i libucrt:c32rtomb.obj
 0001:000170e1       ___acrt_fp_strflt_to_string 100180e1 f   libucrt:_fptostr.obj
 0001:000171c0       ?divide@__crt_strtox@@YA_KAAUbig_integer@1@ABU21@@Z 100181c0 f i libucrt:cfout.obj
 0001:00017658       ___acrt_fltout             10018658 f   libucrt:cfout.obj
 0001:00018b5f       _fegetround                10019b5f f   libucrt:fegetround.obj
 0001:00018b6c       __fcloseall                10019b6c f   libucrt:closeall.obj
 0001:00018c17       ___acrt_stdio_free_buffer_nolock 10019c17 f   libucrt:_freebuf.obj
 0001:00018c57       __isatty                   10019c57 f   libucrt:isatty.obj
 0001:00018cad       ___acrt_locale_free_monetary 10019cad f   libucrt:initmon.obj
 0001:00018dab       ___acrt_locale_free_numeric 10019dab f   libucrt:initnum.obj
 0001:00018e4c       ___acrt_locale_free_time   10019e4c f   libucrt:inittime.obj
 0001:00018f30       ___acrt_GetStringTypeA     10019f30 f   libucrt:getstringtypea.obj
 0001:00019033       __freea_crt                1001a033 f i libucrt:getstringtypea.obj
 0001:00019053       ___acrt_lowio_create_handle_array 1001a053 f   libucrt:osfinfo.obj
 0001:000190ce       ___acrt_lowio_destroy_handle_array 1001a0ce f   libucrt:osfinfo.obj
 0001:00019103       ___acrt_lowio_ensure_fh_exists 1001a103 f   libucrt:osfinfo.obj
 0001:000191a1       ___acrt_lowio_lock_fh      1001a1a1 f   libucrt:osfinfo.obj
 0001:000191c4       ___acrt_lowio_unlock_fh    1001a1c4 f   libucrt:osfinfo.obj
 0001:000191e7       __free_osfhnd              1001a1e7 f   libucrt:osfinfo.obj
 0001:00019278       __get_osfhandle            1001a278 f   libucrt:osfinfo.obj
 0001:000192f0       _qsort                     1001a2f0 f   libucrt:qsort.obj
 0001:00019891       _strncpy_s                 1001a891 f   libucrt:strncpy_s.obj
 0001:000198a0       _strpbrk                   1001a8a0 f   libucrt:strpbrk.obj
 0001:000198e0       __mbsdec                   1001a8e0 f   libucrt:mbsdec.obj
 0001:000198f7       __mbsdec_l                 1001a8f7 f   libucrt:mbsdec.obj
 0001:00019b6e       ___acrt_LCMapStringA       1001ab6e f   libucrt:lcmapstringa.obj
 0001:00019c68       __commit                   1001ac68 f   libucrt:commit.obj
 0001:0001a460       __write                    1001b460 f   libucrt:write.obj
 0001:0001a552       __write_nolock             1001b552 f   libucrt:write.obj
 0001:0001a72c       ___acrt_GetStringTypeW     1001b72c f   libucrt:getstringtypew.obj
 0001:0001a745       ___ascii_wcsnicmp          1001b745 f   libucrt:wcsnicmp.obj
 0001:0001a794       ?__mbrtoc32_utf8@__crt_mbstring@@YAIPA_UPBDIPAU_Mbstatet@@@Z 1001b794 f   libucrt:mbrtoc32.obj
 0001:0001a93b       __controlfp_s              1001b93b f   libucrt:contrlfp.obj
 0001:0001a99a       _fegetenv                  1001b99a f   libucrt:fegetenv.obj
 0001:0001a9b7       _fesetenv                  1001b9b7 f   libucrt:fesetenv.obj
 0001:0001aa02       _feholdexcept              1001ba02 f   libucrt:feholdexcept.obj
 0001:0001aa50       __CIlog10                  1001ba50 f   libucrt:log10_impl.obj
 0001:0001aa8b       __CIlog10_default          1001ba8b f   libucrt:log10_impl.obj
 0001:0001aa9f       __log10_default            1001ba9f     libucrt:log10_impl.obj
 0001:0001ab60       _ceil                      1001bb60 f   libucrt:ceil_pentium4.obj
 0001:0001aba0       __ceil_pentium4            1001bba0 f   libucrt:ceil_pentium4.obj
 0001:0001af9a       ___acrt_fenv_get_common_round_control 1001bf9a f   libucrt:_fenvutils.obj
 0001:0001afbc       ___acrt_fenv_get_control   1001bfbc f   libucrt:_fenvutils.obj
 0001:0001b03c       ___acrt_fenv_get_status    1001c03c f   libucrt:_fenvutils.obj
 0001:0001b0f4       ___acrt_fenv_set_control   1001c0f4 f   libucrt:_fenvutils.obj
 0001:0001b15c       ___acrt_fenv_set_status    1001c15c f   libucrt:_fenvutils.obj
 0001:0001b2cf       __lseeki64_nolock          1001c2cf f   libucrt:lseek.obj
 0001:0001b2ea       __fclose_nolock            1001c2ea f   libucrt:fclose.obj
 0001:0001b361       _fclose                    1001c361 f   libucrt:fclose.obj
 0001:0001b3e5       __query_app_type           1001c3e5 f   libucrt:report_runtime_error.obj
 0001:0001b3eb       ___strncnt                 1001c3eb f   libucrt:strncnt.obj
 0001:0001b407       __putwch_nolock            1001c407 f   libucrt:putwch.obj
 0001:0001b4e0       __clearfp                  1001c4e0 f   libucrt:ieee87.obj
 0001:0001b5be       __control87                1001c5be f   libucrt:ieee87.obj
 0001:0001b95d       ___acrt_initialize_sse2    1001c95d f   libucrt:mathfcns.obj
 0001:0001b970       __CIlog10_pentium4         1001c970 f   libucrt:log10_pentium4.obj
 0001:0001b988       __log10_pentium4           1001c988     libucrt:log10_pentium4.obj
 0001:0001bc20       __fFEXP                    1001cc20 f   libucrt:87tran.obj
 0001:0001bc77       __rtinfpopse               1001cc77     libucrt:87tran.obj
 0001:0001bc79       __rtinfnpopse              1001cc79     libucrt:87tran.obj
 0001:0001bc89       __fFLN                     1001cc89     libucrt:87tran.obj
 0001:0001bd3e       __rtinfpop                 1001cd3e     libucrt:87tran.obj
 0001:0001bd40       __rtinfnpop                1001cd40     libucrt:87tran.obj
 0001:0001bd50       __rtforexpinf              1001cd50 f   libucrt:87tran.obj
 0001:0001bd5d       __ffexpm1                  1001cd5d     libucrt:87tran.obj
 0001:0001be10       __trandisp1                1001ce10 f   libucrt:87disp.obj
 0001:0001be85       __trandisp2                1001ce85 f   libucrt:87disp.obj
 0001:0001bf1f       __rttospopde               1001cf1f     libucrt:87disp.obj
 0001:0001bf24       __rttospop                 1001cf24     libucrt:87disp.obj
 0001:0001bf30       __rtnospop                 1001cf30 f   libucrt:87disp.obj
 0001:0001bf40       __rttosnpop                1001cf40 f   libucrt:87disp.obj
 0001:0001bf41       __rtnospopde               1001cf41     libucrt:87disp.obj
 0001:0001bf48       __rtzeropop                1001cf48     libucrt:87disp.obj
 0001:0001bf4a       __rtzeronpop               1001cf4a     libucrt:87disp.obj
 0001:0001bf50       __rtzerospop               1001cf50 f   libucrt:87disp.obj
 0001:0001bf5d       __rtonepop                 1001cf5d     libucrt:87disp.obj
 0001:0001bf60       __rtonenpop                1001cf60 f   libucrt:87disp.obj
 0001:0001bf70       __tosnan1                  1001cf70 f   libucrt:87disp.obj
 0001:0001bfa0       __nosnan2                  1001cfa0 f   libucrt:87disp.obj
 0001:0001bfb0       __tosnan2                  1001cfb0 f   libucrt:87disp.obj
 0001:0001bfe0       __nan2                     1001cfe0 f   libucrt:87disp.obj
 0001:0001c020       __rtindfpop                1001d020 f   libucrt:87disp.obj
 0001:0001c022       __rtindfnpop               1001d022     libucrt:87disp.obj
 0001:0001c033       __rttosnpopde              1001d033     libucrt:87disp.obj
 0001:0001c040       __rtatan2inf               1001d040 f   libucrt:87disp.obj
 0001:0001c05d       __rtchsifneg               1001d05d     libucrt:87disp.obj
 0001:0001c070       __twoToTOS                 1001d070 f   libucrt:common.obj
 0001:0001c085       __load_CW                  1001d085 f   libucrt:common.obj
 0001:0001c09c       __convertTOStoQNaN         1001d09c f   libucrt:common.obj
 0001:0001c0b5       __fload_withFB             1001d0b5 f   libucrt:common.obj
 0001:0001c0f8       __checkTOS_withFB          1001d0f8 f   libucrt:common.obj
 0001:0001c10e       __fast_exit                1001d10e f   libucrt:common.obj
 0001:0001c11b       __math_exit                1001d11b f   libucrt:common.obj
 0001:0001c145       __check_overflow_exit      1001d145 f   libucrt:common.obj
 0001:0001c159       __check_range_exit         1001d159 f   libucrt:common.obj
 0001:0001c200       __startTwoArgErrorHandling 1001d200 f   libucrt:genexcep.obj
 0001:0001c217       __startOneArgErrorHandling 1001d217 f   libucrt:genexcep.obj
 0001:0001c253       ___libm_error_support      1001d253 f   libucrt:libm_error.obj
 0001:0001c447       __ceil_default             1001d447 f   libucrt:ceil.obj
 0001:0001c588       __close                    1001d588 f   libucrt:close.obj
 0001:0001c615       __close_nolock             1001d615 f   libucrt:close.obj
 0001:0001c6b1       ?__acrt_stdio_free_stream@@YAXV__crt_stdio_stream@@@Z 1001d6b1 f   libucrt:stream.obj
 0001:0001c6f0       ___ascii_strnicmp          1001d6f0 f   libucrt:_strnicm.obj
 0001:0001c770       ___dcrt_lowio_ensure_console_output_initialized 1001d770 f   libucrt:initcon.obj
 0001:0001c78f       ___dcrt_terminate_console_output 1001d78f f   libucrt:initcon.obj
 0001:0001c7a6       ___dcrt_write_console      1001d7a6 f   libucrt:initcon.obj
 0001:0001c7fb       ___set_fpsr_sse2           1001d7fb f   libucrt:fpctrl.obj
 0001:0001c87b       __clrfp                    1001d87b f   libucrt:fpctrl.obj
 0001:0001c88c       __ctrlfp                   1001d88c f   libucrt:fpctrl.obj
 0001:0001c8b6       __set_statfp               1001d8b6 f   libucrt:fpctrl.obj
 0001:0001c90f       __statfp                   1001d90f f   libucrt:fpctrl.obj
 0001:0001c91f       __d_inttype                1001d91f f   libucrt:powhlp.obj
 0001:0001c987       __powhlp                   1001d987 f   libucrt:powhlp.obj
 0001:0001cab2       __87except                 1001dab2 f   libucrt:87except.obj
 0001:0001cbbc       __frnd                     1001dbbc f   libucrt:frnd.obj
 0001:0001cbd0       __errcode                  1001dbd0 f   libucrt:fpexcept.obj
 0001:0001cc04       __except1                  1001dc04 f   libucrt:fpexcept.obj
 0001:0001ccd2       __handle_exc               1001dcd2 f   libucrt:fpexcept.obj
 0001:0001cebd       __raise_exc                1001debd f   libucrt:fpexcept.obj
 0001:0001cee0       __raise_exc_ex             1001dee0 f   libucrt:fpexcept.obj
 0001:0001d1d6       __set_errno_from_matherr   1001e1d6 f   libucrt:fpexcept.obj
 0001:0001d205       __umatherr                 1001e205 f   libucrt:fpexcept.obj
 0001:0001d2a5       __decomp                   1001e2a5 f   libucrt:util.obj
 0001:0001d377       __set_exp                  1001e377 f   libucrt:util.obj
 0001:0001d3a4       __sptype                   1001e3a4 f   libucrt:util.obj
 0001:0001d402       __fpclass                  1001e402 f   libucrt:ieeemisc.obj
 0001:0001d4a6       _IsProcessorFeaturePresent@4 1001e4a6 f   kernel32:KERNEL32.dll
 0001:0001d4b0       __FindPESection            1001e4b0 f   LIBCMT:pesect.obj
 0001:0001d500       __IsNonwritableInCurrentImage 1001e500 f   LIBCMT:pesect.obj
 0001:0001d5c0       __ValidateImageBase        1001e5c0 f   LIBCMT:pesect.obj
 0001:0001d5f3       __EH_prolog3_catch         1001e5f3 f   LIBCMT:ehprolg3.obj
 0001:0001d630       __aulldvrm                 1001e630 f   LIBCMT:ulldvrm.obj
 0001:0001d6d0       __allmul                   1001e6d0 f   LIBCMT:llmul.obj
 0001:0001d710       __alldvrm                  1001e710 f   LIBCMT:lldvrm.obj
 0001:0001d7f0       __allshl                   1001e7f0 f   LIBCMT:llshl.obj
 0001:0001d810       __aullshr                  1001e810 f   LIBCMT:ullshr.obj
 0001:0001d830       __ftoi2                    1001e830 f   LIBCMT:ftol2.obj
 0001:0001d830       __ftol2_sse_excpt          1001e830     LIBCMT:ftol2.obj
 0001:0001d830       __ftol2_sse                1001e830     LIBCMT:ftol2.obj
 0001:0001d8b0       __ftoui2                   1001e8b0 f   LIBCMT:ftol2.obj
 0001:0001d960       __ftol2                    1001e960 f   LIBCMT:ftol2.obj
 0001:0001da10       __ftoul2                   1001ea10 f   LIBCMT:ftol2.obj
 0001:0001dad0       _strrchr                   1001ead0 f   libvcruntime:strrchr.obj
 0001:0001dc10       _strchr                    1001ec10 f   libvcruntime:strchr.obj
 0001:0001dc7e       ___from_strstr_to_strchr   1001ec7e     libvcruntime:strchr.obj
 0001:0001dd3b       __filter_x86_sse2_floating_point_exception_default 1001ed3b f   LIBCMT:x86_exception_filter.obj
 0001:0001dd3b       __filter_x86_sse2_floating_point_exception 1001ed3b f   LIBCMT:x86_exception_filter.obj
 0002:00000000       __imp__RegQueryValueExW@24 1001f000     advapi32:ADVAPI32.dll
 0002:00000004       __imp__RegSetValueExW@24   1001f004     advapi32:ADVAPI32.dll
 0002:00000008       __imp__RegQueryInfoKeyW@48 1001f008     advapi32:ADVAPI32.dll
 0002:0000000c       __imp__RegOpenKeyExW@20    1001f00c     advapi32:ADVAPI32.dll
 0002:00000010       __imp__RegEnumKeyExW@32    1001f010     advapi32:ADVAPI32.dll
 0002:00000014       __imp__RegDeleteValueW@8   1001f014     advapi32:ADVAPI32.dll
 0002:00000018       __imp__RegDeleteKeyW@8     1001f018     advapi32:ADVAPI32.dll
 0002:0000001c       __imp__RegCreateKeyExW@36  1001f01c     advapi32:ADVAPI32.dll
 0002:00000020       __imp__RegCloseKey@4       1001f020     advapi32:ADVAPI32.dll
 0002:00000024       \177ADVAPI32_NULL_THUNK_DATA 1001f024     advapi32:ADVAPI32.dll
 0002:00000028       __imp__GetObjectW@12       1001f028     gdi32:GDI32.dll
 0002:0000002c       __imp__SelectObject@8      1001f02c     gdi32:GDI32.dll
 0002:00000030       __imp__DeleteObject@4      1001f030     gdi32:GDI32.dll
 0002:00000034       __imp__CreateCompatibleDC@4 1001f034     gdi32:GDI32.dll
 0002:00000038       __imp__BitBlt@36           1001f038     gdi32:GDI32.dll
 0002:0000003c       __imp__SetWindowOrgEx@16   1001f03c     gdi32:GDI32.dll
 0002:00000040       __imp__SetWindowExtEx@16   1001f040     gdi32:GDI32.dll
 0002:00000044       __imp__SetViewportOrgEx@16 1001f044     gdi32:GDI32.dll
 0002:00000048       __imp__LPtoDP@12           1001f048     gdi32:GDI32.dll
 0002:0000004c       __imp__SetMapMode@8        1001f04c     gdi32:GDI32.dll
 0002:00000050       __imp__SaveDC@4            1001f050     gdi32:GDI32.dll
 0002:00000054       __imp__RestoreDC@8         1001f054     gdi32:GDI32.dll
 0002:00000058       __imp__GetDeviceCaps@8     1001f058     gdi32:GDI32.dll
 0002:0000005c       __imp__DeleteMetaFile@4    1001f05c     gdi32:GDI32.dll
 0002:00000060       __imp__DeleteDC@4          1001f060     gdi32:GDI32.dll
 0002:00000064       __imp__CreateRectRgnIndirect@4 1001f064     gdi32:GDI32.dll
 0002:00000068       __imp__CreateMetaFileW@4   1001f068     gdi32:GDI32.dll
 0002:0000006c       __imp__CreateDCW@16        1001f06c     gdi32:GDI32.dll
 0002:00000070       __imp__CloseMetaFile@4     1001f070     gdi32:GDI32.dll
 0002:00000074       \177GDI32_NULL_THUNK_DATA  1001f074     gdi32:GDI32.dll
 0002:00000078       __imp__CloseHandle@4       1001f078     kernel32:KERNEL32.dll
 0002:0000007c       __imp__SetEvent@4          1001f07c     kernel32:KERNEL32.dll
 0002:00000080       __imp__CreateMutexW@12     1001f080     kernel32:KERNEL32.dll
 0002:00000084       __imp__CreateEventW@16     1001f084     kernel32:KERNEL32.dll
 0002:00000088       __imp__GetCurrentProcessId@0 1001f088     kernel32:KERNEL32.dll
 0002:0000008c       __imp__CreateFileW@28      1001f08c     kernel32:KERNEL32.dll
 0002:00000090       __imp__GetConsoleMode@8    1001f090     kernel32:KERNEL32.dll
 0002:00000094       __imp__GetConsoleOutputCP@0 1001f094     kernel32:KERNEL32.dll
 0002:00000098       __imp__WriteFile@20        1001f098     kernel32:KERNEL32.dll
 0002:0000009c       __imp__FlushFileBuffers@4  1001f09c     kernel32:KERNEL32.dll
 0002:000000a0       __imp__SetStdHandle@8      1001f0a0     kernel32:KERNEL32.dll
 0002:000000a4       __imp__GetStringTypeW@16   1001f0a4     kernel32:KERNEL32.dll
 0002:000000a8       __imp__SetFilePointerEx@20 1001f0a8     kernel32:KERNEL32.dll
 0002:000000ac       __imp__FreeEnvironmentStringsW@4 1001f0ac     kernel32:KERNEL32.dll
 0002:000000b0       __imp__GetEnvironmentStringsW@0 1001f0b0     kernel32:KERNEL32.dll
 0002:000000b4       __imp__lstrcmpiW@8         1001f0b4     kernel32:KERNEL32.dll
 0002:000000b8       __imp__GetCommandLineA@0   1001f0b8     kernel32:KERNEL32.dll
 0002:000000bc       __imp__GetCPInfo@8         1001f0bc     kernel32:KERNEL32.dll
 0002:000000c0       __imp__GetOEMCP@0          1001f0c0     kernel32:KERNEL32.dll
 0002:000000c4       __imp__GetACP@0            1001f0c4     kernel32:KERNEL32.dll
 0002:000000c8       __imp__IsValidCodePage@4   1001f0c8     kernel32:KERNEL32.dll
 0002:000000cc       __imp__FindNextFileW@8     1001f0cc     kernel32:KERNEL32.dll
 0002:000000d0       __imp__FindFirstFileExW@24 1001f0d0     kernel32:KERNEL32.dll
 0002:000000d4       __imp__FindClose@4         1001f0d4     kernel32:KERNEL32.dll
 0002:000000d8       __imp__GetFileType@4       1001f0d8     kernel32:KERNEL32.dll
 0002:000000dc       __imp__GetStdHandle@4      1001f0dc     kernel32:KERNEL32.dll
 0002:000000e0       __imp__LCMapStringW@24     1001f0e0     kernel32:KERNEL32.dll
 0002:000000e4       __imp__HeapReAlloc@16      1001f0e4     kernel32:KERNEL32.dll
 0002:000000e8       __imp__HeapSize@12         1001f0e8     kernel32:KERNEL32.dll
 0002:000000ec       __imp__MulDiv@12           1001f0ec     kernel32:KERNEL32.dll
 0002:000000f0       __imp__GlobalLock@4        1001f0f0     kernel32:KERNEL32.dll
 0002:000000f4       __imp__GlobalUnlock@4      1001f0f4     kernel32:KERNEL32.dll
 0002:000000f8       __imp__GlobalAlloc@8       1001f0f8     kernel32:KERNEL32.dll
 0002:000000fc       __imp__FindResourceW@12    1001f0fc     kernel32:KERNEL32.dll
 0002:00000100       __imp__SizeofResource@8    1001f100     kernel32:KERNEL32.dll
 0002:00000104       __imp__LoadResource@8      1001f104     kernel32:KERNEL32.dll
 0002:00000108       __imp__LoadLibraryExW@12   1001f108     kernel32:KERNEL32.dll
 0002:0000010c       __imp__GetProcAddress@8    1001f10c     kernel32:KERNEL32.dll
 0002:00000110       __imp__GetModuleHandleW@4  1001f110     kernel32:KERNEL32.dll
 0002:00000114       __imp__GetModuleFileNameW@12 1001f114     kernel32:KERNEL32.dll
 0002:00000118       __imp__FreeLibrary@4       1001f118     kernel32:KERNEL32.dll
 0002:0000011c       __imp__DisableThreadLibraryCalls@4 1001f11c     kernel32:KERNEL32.dll
 0002:00000120       __imp__GetCurrentThreadId@0 1001f120     kernel32:KERNEL32.dll
 0002:00000124       __imp__Sleep@4             1001f124     kernel32:KERNEL32.dll
 0002:00000128       __imp__WaitForSingleObject@8 1001f128     kernel32:KERNEL32.dll
 0002:0000012c       __imp__ReleaseMutex@4      1001f12c     kernel32:KERNEL32.dll
 0002:00000130       __imp__ResetEvent@4        1001f130     kernel32:KERNEL32.dll
 0002:00000134       __imp__EnterCriticalSection@4 1001f134     kernel32:KERNEL32.dll
 0002:00000138       __imp__LeaveCriticalSection@4 1001f138     kernel32:KERNEL32.dll
 0002:0000013c       __imp__SetLastError@4      1001f13c     kernel32:KERNEL32.dll
 0002:00000140       __imp__EncodePointer@4     1001f140     kernel32:KERNEL32.dll
 0002:00000144       __imp__DeleteCriticalSection@4 1001f144     kernel32:KERNEL32.dll
 0002:00000148       __imp__InitializeCriticalSectionEx@12 1001f148     kernel32:KERNEL32.dll
 0002:0000014c       __imp__GetLastError@0      1001f14c     kernel32:KERNEL32.dll
 0002:00000150       __imp__RaiseException@16   1001f150     kernel32:KERNEL32.dll
 0002:00000154       __imp__DecodePointer@4     1001f154     kernel32:KERNEL32.dll
 0002:00000158       __imp__WideCharToMultiByte@32 1001f158     kernel32:KERNEL32.dll
 0002:0000015c       __imp__GetCommandLineW@0   1001f15c     kernel32:KERNEL32.dll
 0002:00000160       __imp__MultiByteToWideChar@24 1001f160     kernel32:KERNEL32.dll
 0002:00000164       __imp__WriteConsoleW@20    1001f164     kernel32:KERNEL32.dll
 0002:00000168       __imp__GetModuleHandleExW@12 1001f168     kernel32:KERNEL32.dll
 0002:0000016c       __imp__ExitProcess@4       1001f16c     kernel32:KERNEL32.dll
 0002:00000170       __imp__VirtualQuery@12     1001f170     kernel32:KERNEL32.dll
 0002:00000174       __imp__VirtualProtect@16   1001f174     kernel32:KERNEL32.dll
 0002:00000178       __imp__GetSystemInfo@4     1001f178     kernel32:KERNEL32.dll
 0002:0000017c       __imp__TlsFree@4           1001f17c     kernel32:KERNEL32.dll
 0002:00000180       __imp__TlsSetValue@8       1001f180     kernel32:KERNEL32.dll
 0002:00000184       __imp__TlsGetValue@4       1001f184     kernel32:KERNEL32.dll
 0002:00000188       __imp__TlsAlloc@0          1001f188     kernel32:KERNEL32.dll
 0002:0000018c       __imp__InterlockedFlushSList@4 1001f18c     kernel32:KERNEL32.dll
 0002:00000190       __imp__RtlUnwind@16        1001f190     kernel32:KERNEL32.dll
 0002:00000194       __imp__LoadLibraryExA@12   1001f194     kernel32:KERNEL32.dll
 0002:00000198       __imp__VirtualFree@12      1001f198     kernel32:KERNEL32.dll
 0002:0000019c       __imp__VirtualAlloc@16     1001f19c     kernel32:KERNEL32.dll
 0002:000001a0       __imp__FlushInstructionCache@12 1001f1a0     kernel32:KERNEL32.dll
 0002:000001a4       __imp__InterlockedPushEntrySList@8 1001f1a4     kernel32:KERNEL32.dll
 0002:000001a8       __imp__InterlockedPopEntrySList@4 1001f1a8     kernel32:KERNEL32.dll
 0002:000001ac       __imp__GetProcessHeap@0    1001f1ac     kernel32:KERNEL32.dll
 0002:000001b0       __imp__HeapFree@12         1001f1b0     kernel32:KERNEL32.dll
 0002:000001b4       __imp__HeapAlloc@12        1001f1b4     kernel32:KERNEL32.dll
 0002:000001b8       __imp__OutputDebugStringW@4 1001f1b8     kernel32:KERNEL32.dll
 0002:000001bc       __imp__InitializeSListHead@4 1001f1bc     kernel32:KERNEL32.dll
 0002:000001c0       __imp__GetSystemTimeAsFileTime@4 1001f1c0     kernel32:KERNEL32.dll
 0002:000001c4       __imp__QueryPerformanceCounter@4 1001f1c4     kernel32:KERNEL32.dll
 0002:000001c8       __imp__GetStartupInfoW@4   1001f1c8     kernel32:KERNEL32.dll
 0002:000001cc       __imp__IsDebuggerPresent@0 1001f1cc     kernel32:KERNEL32.dll
 0002:000001d0       __imp__IsProcessorFeaturePresent@4 1001f1d0     kernel32:KERNEL32.dll
 0002:000001d4       __imp__TerminateProcess@8  1001f1d4     kernel32:KERNEL32.dll
 0002:000001d8       __imp__GetCurrentProcess@0 1001f1d8     kernel32:KERNEL32.dll
 0002:000001dc       __imp__SetUnhandledExceptionFilter@4 1001f1dc     kernel32:KERNEL32.dll
 0002:000001e0       __imp__UnhandledExceptionFilter@4 1001f1e0     kernel32:KERNEL32.dll
 0002:000001e4       __imp__InitializeCriticalSectionAndSpinCount@8 1001f1e4     kernel32:KERNEL32.dll
 0002:000001e8       __imp__WaitForSingleObjectEx@12 1001f1e8     kernel32:KERNEL32.dll
 0002:000001ec       \177KERNEL32_NULL_THUNK_DATA 1001f1ec     kernel32:KERNEL32.dll
 0002:000001f0       __imp__OleCreatePropertyFrame@44 1001f1f0     oleaut32:OLEAUT32.dll
 0002:000001f4       __imp__UnRegisterTypeLib@20 1001f1f4     oleaut32:OLEAUT32.dll
 0002:000001f8       __imp__RegisterTypeLib@12  1001f1f8     oleaut32:OLEAUT32.dll
 0002:000001fc       __imp__LoadRegTypeLib@20   1001f1fc     oleaut32:OLEAUT32.dll
 0002:00000200       __imp__LoadTypeLib@8       1001f200     oleaut32:OLEAUT32.dll
 0002:00000204       __imp__VarUI4FromStr@16    1001f204     oleaut32:OLEAUT32.dll
 0002:00000208       __imp__VariantInit@4       1001f208     oleaut32:OLEAUT32.dll
 0002:0000020c       __imp__SysAllocStringByteLen@8 1001f20c     oleaut32:OLEAUT32.dll
 0002:00000210       __imp__SysStringByteLen@4  1001f210     oleaut32:OLEAUT32.dll
 0002:00000214       __imp__VariantChangeType@16 1001f214     oleaut32:OLEAUT32.dll
 0002:00000218       __imp__VariantClear@4      1001f218     oleaut32:OLEAUT32.dll
 0002:0000021c       __imp__SysStringLen@4      1001f21c     oleaut32:OLEAUT32.dll
 0002:00000220       __imp__SysFreeString@4     1001f220     oleaut32:OLEAUT32.dll
 0002:00000224       __imp__SysAllocStringLen@8 1001f224     oleaut32:OLEAUT32.dll
 0002:00000228       __imp__SysAllocString@4    1001f228     oleaut32:OLEAUT32.dll
 0002:0000022c       \177OLEAUT32_NULL_THUNK_DATA 1001f22c     oleaut32:OLEAUT32.dll
 0002:00000230       __imp__UnregisterClassW@8  1001f230     user32:USER32.dll
 0002:00000234       __imp__PostMessageW@16     1001f234     user32:USER32.dll
 0002:00000238       __imp__DefWindowProcW@16   1001f238     user32:USER32.dll
 0002:0000023c       __imp__CallWindowProcW@20  1001f23c     user32:USER32.dll
 0002:00000240       __imp__RegisterClassExW@4  1001f240     user32:USER32.dll
 0002:00000244       __imp__GetClassInfoExW@12  1001f244     user32:USER32.dll
 0002:00000248       __imp__CreateWindowExW@48  1001f248     user32:USER32.dll
 0002:0000024c       __imp__IsWindow@4          1001f24c     user32:USER32.dll
 0002:00000250       __imp__IsChild@8           1001f250     user32:USER32.dll
 0002:00000254       __imp__DestroyWindow@4     1001f254     user32:USER32.dll
 0002:00000258       __imp__ShowWindow@8        1001f258     user32:USER32.dll
 0002:0000025c       __imp__SetWindowPos@28     1001f25c     user32:USER32.dll
 0002:00000260       __imp__CharNextW@4         1001f260     user32:USER32.dll
 0002:00000264       __imp__SetFocus@4          1001f264     user32:USER32.dll
 0002:00000268       __imp__LoadBitmapW@8       1001f268     user32:USER32.dll
 0002:0000026c       __imp__RegisterClassW@4    1001f26c     user32:USER32.dll
 0002:00000270       __imp__PeekMessageW@20     1001f270     user32:USER32.dll
 0002:00000274       __imp__LoadCursorW@8       1001f274     user32:USER32.dll
 0002:00000278       __imp__GetParent@4         1001f278     user32:USER32.dll
 0002:0000027c       __imp__SetWindowLongW@12   1001f27c     user32:USER32.dll
 0002:00000280       __imp__GetWindowLongW@8    1001f280     user32:USER32.dll
 0002:00000284       __imp__PtInRect@12         1001f284     user32:USER32.dll
 0002:00000288       __imp__EqualRect@8         1001f288     user32:USER32.dll
 0002:0000028c       __imp__OffsetRect@12       1001f28c     user32:USER32.dll
 0002:00000290       __imp__UnionRect@12        1001f290     user32:USER32.dll
 0002:00000294       __imp__IntersectRect@12    1001f294     user32:USER32.dll
 0002:00000298       __imp__GetClientRect@8     1001f298     user32:USER32.dll
 0002:0000029c       __imp__InvalidateRect@12   1001f29c     user32:USER32.dll
 0002:000002a0       __imp__SetWindowRgn@12     1001f2a0     user32:USER32.dll
 0002:000002a4       __imp__EndPaint@8          1001f2a4     user32:USER32.dll
 0002:000002a8       __imp__BeginPaint@8        1001f2a8     user32:USER32.dll
 0002:000002ac       __imp__ReleaseDC@8         1001f2ac     user32:USER32.dll
 0002:000002b0       __imp__GetDC@4             1001f2b0     user32:USER32.dll
 0002:000002b4       __imp__GetKeyState@4       1001f2b4     user32:USER32.dll
 0002:000002b8       __imp__GetFocus@0          1001f2b8     user32:USER32.dll
 0002:000002bc       \177USER32_NULL_THUNK_DATA 1001f2bc     user32:USER32.dll
 0002:000002c0       __imp__StringFromGUID2@12  1001f2c0     ole32:ole32.dll
 0002:000002c4       __imp__CoTaskMemAlloc@4    1001f2c4     ole32:ole32.dll
 0002:000002c8       __imp__CoTaskMemRealloc@8  1001f2c8     ole32:ole32.dll
 0002:000002cc       __imp__CoTaskMemFree@4     1001f2cc     ole32:ole32.dll
 0002:000002d0       __imp__ReadClassStm@8      1001f2d0     ole32:ole32.dll
 0002:000002d4       __imp__WriteClassStm@8     1001f2d4     ole32:ole32.dll
 0002:000002d8       __imp__CreateDataAdviseHolder@4 1001f2d8     ole32:ole32.dll
 0002:000002dc       __imp__OleSaveToStream@8   1001f2dc     ole32:ole32.dll
 0002:000002e0       __imp__CreateOleAdviseHolder@4 1001f2e0     ole32:ole32.dll
 0002:000002e4       __imp__OleRegGetUserType@12 1001f2e4     ole32:ole32.dll
 0002:000002e8       __imp__OleRegGetMiscStatus@12 1001f2e8     ole32:ole32.dll
 0002:000002ec       __imp__OleRegEnumVerbs@8   1001f2ec     ole32:ole32.dll
 0002:000002f0       __imp__CLSIDFromProgID@8   1001f2f0     ole32:ole32.dll
 0002:000002f4       __imp__CoCreateInstance@20 1001f2f4     ole32:ole32.dll
 0002:000002f8       \177ole32_NULL_THUNK_DATA  1001f2f8     ole32:ole32.dll
 0002:000002fc       ___guard_check_icall_fptr  1001f2fc     LIBCMT:guard_support.obj
 0002:00000300       ___xc_a                    1001f300     LIBCMT:initializers.obj
 0002:00000318       ___xc_z                    1001f318     LIBCMT:initializers.obj
 0002:0000031c       ___xi_a                    1001f31c     LIBCMT:initializers.obj
 0002:00000324       ___acrt_stdio_initializer  1001f324     libucrt:stdio_initializer.obj
 0002:00000328       ___acrt_multibyte_initializer 1001f328     libucrt:multibyte_initializer.obj
 0002:0000032c       ___acrt_tran_sse2_initializer 1001f32c     libucrt:sse2_initializer.obj
 0002:00000330       ___xi_z                    1001f330     LIBCMT:initializers.obj
 0002:00000334       ___xl_a                    1001f334     LIBCMT:tlssup.obj
 0002:00000338       ___xl_z                    1001f338     LIBCMT:tlssup.obj
 0002:0000033c       ___xp_a                    1001f33c     LIBCMT:initializers.obj
 0002:00000340       ___acrt_locale_terminator  1001f340     libucrt:locale_initializer.obj
 0002:00000344       ___dcrt_console_output_terminator 1001f344     libucrt:console_output_initializer.obj
 0002:00000348       ___acrt_stdio_terminator   1001f348     libucrt:stdio_initializer.obj
 0002:0000034c       ___xp_z                    1001f34c     LIBCMT:initializers.obj
 0002:00000350       ___xt_a                    1001f350     LIBCMT:initializers.obj
 0002:00000354       ___xt_z                    1001f354     LIBCMT:initializers.obj
 0002:00000360       ??_C@_13HADIAKP@?$AAS@     1001f360     OposVariant.obj
 0002:00000364       ??_C@_13LHMFKAAD@?$AAM@    1001f364     OposVariant.obj
 0002:00000368       ??_C@_13MKMNOPIJ@?$AAD@    1001f368     OposVariant.obj
 0002:0000036c       ??_C@_13OPKGLAFF@?$AAB@    1001f36c     OposVariant.obj
 0002:00000370       ??_C@_17LLMMEOJD@?$AAV?$AAa?$AAl@ 1001f370     OposVariant.obj
 0002:00000378       ??_C@_1BI@JFAIJMHL@?$AAF?$AAo?$AAr?$AAc?$AAe?$AAR?$AAe?$AAm?$AAo?$AAv?$AAe@ 1001f378     OposVariant.obj
 0002:00000390       ??_C@_1BC@GCKHIPE@?$AAN?$AAo?$AAR?$AAe?$AAm?$AAo?$AAv?$AAe@ 1001f390     OposVariant.obj
 0002:000003a4       ??_C@_1O@JDLOHAN@?$AAD?$AAe?$AAl?$AAe?$AAt?$AAe@ 1001f3a4     OposVariant.obj
 0002:000003b4       ??_C@_11LOCGONAA@@         1001f3b4     OposVariant.obj
 0002:000003b8       ??_7CComClassFactory@ATL@@6B@ 1001f3b8     Gate.obj
 0002:000003d0       ?_entries@?1??_GetEntries@CComClassFactory@ATL@@SGPBU_ATL_INTMAP_ENTRY@3@XZ@4QBU43@B 1001f3d0     Gate.obj
 0002:000003e8       __GUID_00000001_0000_0000_c000_000000000046 1001f3e8     Gate.obj
 0002:000003f8       _IID_IOPOSGate_1_12        1001f3f8     Gate.obj
 0002:00000408       _IID_IOPOSGate             1001f408     Gate.obj
 0002:00000418       _LIBID_OposGate_CCO        1001f418     Gate.obj
 0002:00000428       _DIID__IOPOSGateEvents     1001f428     Gate.obj
 0002:00000438       _CLSID_OPOSGate            1001f438     Gate.obj
 0002:00000448       __GUID_00000114_0000_0000_c000_000000000046 1001f448     Gate.obj
 0002:00000458       ??_C@_1BK@BIGILECK@?$AAA?$AAd?$AAv?$AAa?$AAp?$AAi?$AA3?$AA2?$AA?4?$AAd?$AAl?$AAl@ 1001f458     Gate.obj
 0002:00000474       ??_C@_0BI@MNCFCPFK@RegCreateKeyTransactedW@ 1001f474     Gate.obj
 0002:0000048c       __GUID_b196b287_bab4_101a_b69c_00aa00341d07 1001f48c     Gate.obj
 0002:0000049c       __GUID_b196b285_bab4_101a_b69c_00aa00341d07 1001f49c     Gate.obj
 0002:000004ac       __GUID_a6bc3ac0_dbaa_11ce_9de3_00aa004bb851 1001f4ac     Gate.obj
 0002:000004bc       __GUID_0000010c_0000_0000_c000_000000000046 1001f4bc     Gate.obj
 0002:000004d0       ?_entries@?1??_GetEntries@COPOSGate@@SGPBU_ATL_INTMAP_ENTRY@ATL@@XZ@4QBU34@B 1001f4d0     Gate.obj
 0002:000005f0       __GUID_00000146_0000_0000_c000_000000000046 1001f5f0     Gate.obj
 0002:00000600       __GUID_cf51ed10_62fe_11cf_bf86_00a0c9034836 1001f600     Gate.obj
 0002:00000610       __GUID_0000010a_0000_0000_c000_000000000046 1001f610     Gate.obj
 0002:00000620       __GUID_b196b283_bab4_101a_b69c_00aa00341d07 1001f620     Gate.obj
 0002:00000630       __GUID_cb5bdc81_93c1_11cf_8f20_00805f2cd064 1001f630     Gate.obj
 0002:00000640       ?pPropMap@?1??GetPropertyMap@COPOSGate@@SAPBUATL_PROPMAP_ENTRY@ATL@@XZ@4QBU34@B 1001f640     Gate.obj
 0002:000006ac       ??_C@_17DGDADEHL@?$AA_?$AAc?$AAx@ 1001f6ac     Gate.obj
 0002:000006b4       ??_C@_17IOIMFDBO@?$AA_?$AAc?$AAy@ 1001f6b4     Gate.obj
 0002:000006bc       ??_7?$CComObjectCached@VCComClassFactory@ATL@@@ATL@@6B@ 1001f6bc     Gate.obj
 0002:000006d4       ??_C@_1CE@PGFMOFKI@?$AAS?$AAt?$AAa?$AAt?$AAu?$AAs?$AAU?$AAp?$AAd?$AAa?$AAt?$AAe?$AAE?$AAv?$AAe@ 1001f6d4     Gate.obj
 0002:000006f8       ??_7CComModule@ATL@@6B@    1001f6f8     Gate.obj
 0002:00000720       ??_C@_1BM@CBGEBBBJ@?$AAD?$AAi?$AAr?$AAe?$AAc?$AAt?$AAI?$AAO?$AAE?$AAv?$AAe?$AAn?$AAt@ 1001f720     Gate.obj
 0002:0000073c       __GUID_b196b286_bab4_101a_b69c_00aa00341d07 1001f73c     Gate.obj
 0002:0000074c       __GUID_922eada0_3424_11cf_b670_00aa004cd6d8 1001f74c     Gate.obj
 0002:0000075c       __GUID_9c2cad80_3424_11cf_b670_00aa004cd6d8 1001f75c     Gate.obj
 0002:0000076c       __GUID_00000119_0000_0000_c000_000000000046 1001f76c     Gate.obj
 0002:0000077c       __GUID_b196b289_bab4_101a_b69c_00aa00341d07 1001f77c     Gate.obj
 0002:0000078c       __GUID_00000000_0000_0000_c000_000000000046 1001f78c     Gate.obj
 0002:0000079c       __GUID_00020400_0000_0000_c000_000000000046 1001f79c     Gate.obj
 0002:000007ac       ??_C@_1BC@ENICKDH@?$AAC?$AAo?$AAn?$AAt?$AAe?$AAn?$AAt?$AAs@ 1001f7ac     Gate.obj
 0002:000007c0       __GUID_00000117_0000_0000_c000_000000000046 1001f7c0     Gate.obj
 0002:000007d0       ??_7?$CComObject@V?$CComEnum@UIEnumConnectionPoints@@$1?_GUID_b196b285_bab4_101a_b69c_00aa00341d07@@3U__s_GUID@@BPAUIConnectionPoint@@V?$_CopyInterface@UIConnectionPoint@@@ATL@@VCComSingleThreadModel@6@@ATL@@@ATL@@6B@ 1001f7d0     Gate.obj
 0002:000007f0       ??_C@_1M@KANJNLFF@?$AAC?$AAL?$AAS?$AAI?$AAD@ 1001f7f0     Gate.obj
 0002:000007fc       ??_C@_1M@EJNEECMJ@?$AAA?$AAp?$AAp?$AAI?$AAD@ 1001f7fc     Gate.obj
 0002:00000808       __GUID_0000010e_0000_0000_c000_000000000046 1001f808     Gate.obj
 0002:00000818       __GUID_b196b288_bab4_101a_b69c_00aa00341d07 1001f818     Gate.obj
 0002:00000828       ?rgszNeverDelete@CRegParser@ATL@@1QBQB_WB 1001f828     Gate.obj
 0002:00000858       ??_7CRegObject@ATL@@6B@    1001f858     Gate.obj
 0002:00000870       __GUID_00000113_0000_0000_c000_000000000046 1001f870     Gate.obj
 0002:00000880       __GUID_1c2056cc_5ef4_101b_8bc8_00aa003e3b29 1001f880     Gate.obj
 0002:00000890       ??_C@_1CK@OEKPKBNA@?$AAC?$AAo?$AAm?$AAp?$AAo?$AAn?$AAe?$AAn?$AAt?$AA?5?$AAC?$AAa?$AAt?$AAe?$AAg@ 1001f890     Gate.obj
 0002:000008bc       ??_C@_1BC@NKMMNMGL@?$AAF?$AAi?$AAl?$AAe?$AAT?$AAy?$AAp?$AAe@ 1001f8bc     Gate.obj
 0002:000008d0       ??_C@_1BE@EKPAFMCP@?$AAI?$AAn?$AAt?$AAe?$AAr?$AAf?$AAa?$AAc?$AAe@ 1001f8d0     Gate.obj
 0002:000008e4       ??_C@_1BC@MAICEHGI@?$AAH?$AAa?$AAr?$AAd?$AAw?$AAa?$AAr?$AAe@ 1001f8e4     Gate.obj
 0002:000008f8       ??_C@_19HLLLM@?$AAM?$AAi?$AAm?$AAe@ 1001f8f8     Gate.obj
 0002:00000904       ??_C@_17OMAOINJK@?$AAS?$AAA?$AAM@ 1001f904     Gate.obj
 0002:0000090c       ??_C@_1BC@IBECJAAI@?$AAS?$AAE?$AAC?$AAU?$AAR?$AAI?$AAT?$AAY@ 1001f90c     Gate.obj
 0002:00000920       ??_C@_1O@GBFINDKL@?$AAS?$AAY?$AAS?$AAT?$AAE?$AAM@ 1001f920     Gate.obj
 0002:00000930       ??_C@_1BC@EAHCMADO@?$AAS?$AAo?$AAf?$AAt?$AAw?$AAa?$AAr?$AAe@ 1001f930     Gate.obj
 0002:00000944       ??_C@_1BA@JIHHIEDE@?$AAT?$AAy?$AAp?$AAe?$AAL?$AAi?$AAb@ 1001f944     Gate.obj
 0002:00000958       ?map@?1??HKeyFromString@CRegParser@ATL@@KAPAUHKEY__@@PA_W@Z@4QBUkeymap@?1??123@KAPAU4@0@Z@B 1001f958     Gate.obj
 0002:000009c8       ??_C@_19NCHLBIN@?$AAH?$AAK?$AAC?$AAR@ 1001f9c8     Gate.obj
 0002:000009d4       ??_C@_19JAPAIJDE@?$AAH?$AAK?$AAC?$AAU@ 1001f9d4     Gate.obj
 0002:000009e0       ??_C@_19PEALEEJB@?$AAH?$AAK?$AAL?$AAM@ 1001f9e0     Gate.obj
 0002:000009ec       ??_C@_17PJOJPMPB@?$AAH?$AAK?$AAU@ 1001f9ec     Gate.obj
 0002:000009f4       ??_C@_19PNBHMJPL@?$AAH?$AAK?$AAP?$AAD@ 1001f9f4     Gate.obj
 0002:00000a00       ??_C@_19GFFAIJHG@?$AAH?$AAK?$AAD?$AAD@ 1001fa00     Gate.obj
 0002:00000a0c       ??_C@_19OFICIBHH@?$AAH?$AAK?$AAC?$AAC@ 1001fa0c     Gate.obj
 0002:00000a18       ??_C@_1CE@PACHPJFI@?$AAH?$AAK?$AAE?$AAY?$AA_?$AAC?$AAL?$AAA?$AAS?$AAS?$AAE?$AAS?$AA_?$AAR?$AAO@ 1001fa18     Gate.obj
 0002:00000a3c       ??_C@_1CE@HLHNCBPM@?$AAH?$AAK?$AAE?$AAY?$AA_?$AAC?$AAU?$AAR?$AAR?$AAE?$AAN?$AAT?$AA_?$AAU?$AAS@ 1001fa3c     Gate.obj
 0002:00000a60       ??_C@_1CG@GFBEANJL@?$AAH?$AAK?$AAE?$AAY?$AA_?$AAL?$AAO?$AAC?$AAA?$AAL?$AA_?$AAM?$AAA?$AAC?$AAH@ 1001fa60     Gate.obj
 0002:00000a88       ??_C@_1BG@BGODANIO@?$AAH?$AAK?$AAE?$AAY?$AA_?$AAU?$AAS?$AAE?$AAR?$AAS@ 1001fa88     Gate.obj
 0002:00000aa0       ??_C@_1CM@KHNNAOIC@?$AAH?$AAK?$AAE?$AAY?$AA_?$AAP?$AAE?$AAR?$AAF?$AAO?$AAR?$AAM?$AAA?$AAN?$AAC@ 1001faa0     Gate.obj
 0002:00000acc       ??_C@_1BM@HAGMMHIA@?$AAH?$AAK?$AAE?$AAY?$AA_?$AAD?$AAY?$AAN?$AA_?$AAD?$AAA?$AAT?$AAA@ 1001facc     Gate.obj
 0002:00000ae8       ??_C@_1CI@BBJOACGG@?$AAH?$AAK?$AAE?$AAY?$AA_?$AAC?$AAU?$AAR?$AAR?$AAE?$AAN?$AAT?$AA_?$AAC?$AAO@ 1001fae8     Gate.obj
 0002:00000b10       __GUID_00000112_0000_0000_c000_000000000046 1001fb10     Gate.obj
 0002:00000b20       __GUID_00000109_0000_0000_c000_000000000046 1001fb20     Gate.obj
 0002:00000b30       __GUID_7fd52380_4e07_101b_ae2d_08002b2ec713 1001fb30     Gate.obj
 0002:00000b40       ??_C@_1M@PPPPCDEP@?$AAA?$AAP?$AAP?$AAI?$AAD@ 1001fb40     Gate.obj
 0002:00000b4c       __GUID_3af24292_0c96_11ce_a0cf_00aa00600ab8 1001fb4c     Gate.obj
 0002:00000b5c       __GUID_00000127_0000_0000_c000_000000000046 1001fb5c     Gate.obj
 0002:00000b6c       __GUID_0000010d_0000_0000_c000_000000000046 1001fb6c     Gate.obj
 0002:00000b80       ??_C@_1EA@NHKLICFA@?$AAH?$AAK?$AAC?$AAU?$AA?$AN?$AA?6?$AA?$HL?$AA?7?$AAS?$AAo?$AAf?$AAt?$AAw?$AAa?$AAr@ 1001fb80     Gate.obj
 0002:00000bc0       ??_C@_1BE@LJOLIMEM@?$AA?$AN?$AA?6?$AA?7?$AA?$HN?$AA?$AN?$AA?6?$AA?$HN?$AA?$AN?$AA?6@ 1001fbc0     Gate.obj
 0002:00000bd4       ??_7?$CComContainedObject@VCOPOSGate@@@ATL@@6B?$IDispatchImpl@UIOPOSGate@@$1?IID_IOPOSGate@@3U_GUID@@B$1?LIBID_OposGate_CCO@@3U3@B$00$0A@VCComTypeInfoHolder@ATL@@@1@@ 1001fbd4     Gate.obj
 0002:00000cac       ??_7?$CComContainedObject@VCOPOSGate@@@ATL@@6BCComControlBase@1@@ 1001fcac     Gate.obj
 0002:00000cc0       ??_7?$CComContainedObject@VCOPOSGate@@@ATL@@6B?$CWindowImpl@VCOPOSGate@@VCWindow@ATL@@V?$CWinTraits@$0FGAAAAAA@$0A@@3@@1@@ 1001fcc0     Gate.obj
 0002:00000cd0       ??_7?$CComContainedObject@VCOPOSGate@@@ATL@@6B?$IPersistStreamInitImpl@VCOPOSGate@@@1@@ 1001fcd0     Gate.obj
 0002:00000cf4       ??_7?$CComContainedObject@VCOPOSGate@@@ATL@@6B?$IOleControlImpl@VCOPOSGate@@@1@@ 1001fcf4     Gate.obj
 0002:00000d10       ??_7?$CComContainedObject@VCOPOSGate@@@ATL@@6B?$IOleObjectImpl@VCOPOSGate@@@1@@ 1001fd10     Gate.obj
 0002:00000d70       ??_7?$CComContainedObject@VCOPOSGate@@@ATL@@6B?$IOleInPlaceActiveObjectImpl@VCOPOSGate@@@1@@ 1001fd70     Gate.obj
 0002:00000d98       ??_C@_1O@MNLDABAF@?$AAM?$AAo?$AAd?$AAu?$AAl?$AAe@ 1001fd98     Gate.obj
 0002:00000da8       ??_7?$CComContainedObject@VCOPOSGate@@@ATL@@6B?$IViewObjectExImpl@VCOPOSGate@@@1@@ 1001fda8     Gate.obj
 0002:00000de4       ??_7?$CComContainedObject@VCOPOSGate@@@ATL@@6B?$IOleInPlaceObjectWindowlessImpl@VCOPOSGate@@@1@@ 1001fde4     Gate.obj
 0002:00000e10       ??_C@_1BG@JBACFMF@?$AAM?$AAo?$AAd?$AAu?$AAl?$AAe?$AA_?$AAR?$AAa?$AAw@ 1001fe10     Gate.obj
 0002:00000e28       ??_7?$CComContainedObject@VCOPOSGate@@@ATL@@6B?$IConnectionPointContainerImpl@VCOPOSGate@@@1@@ 1001fe28     Gate.obj
 0002:00000e3c       ??_C@_1BC@KAILKFFG@?$AAR?$AAE?$AAG?$AAI?$AAS?$AAT?$AAR?$AAY@ 1001fe3c     Gate.obj
 0002:00000e50       ??_7?$CComContainedObject@VCOPOSGate@@@ATL@@6B?$IPersistStorageImpl@VCOPOSGate@@@1@@ 1001fe50     Gate.obj
 0002:00000e78       ??_7?$CComContainedObject@VCOPOSGate@@@ATL@@6B?$ISpecifyPropertyPagesImpl@VCOPOSGate@@@1@@ 1001fe78     Gate.obj
 0002:00000e88       ??_7?$CComContainedObject@VCOPOSGate@@@ATL@@6B?$IQuickActivateImpl@VCOPOSGate@@@1@@ 1001fe88     Gate.obj
 0002:00000ea0       ??_7?$CComContainedObject@VCOPOSGate@@@ATL@@6B?$IDataObjectImpl@VCOPOSGate@@@1@@ 1001fea0     Gate.obj
 0002:00000ed0       ??_7?$CComContainedObject@VCOPOSGate@@@ATL@@6B?$IProvideClassInfo2Impl@$1?CLSID_OPOSGate@@3U_GUID@@B$1?DIID__IOPOSGateEvents@@3U2@B$1?LIBID_OposGate_CCO@@3U2@B$00$0A@VCComTypeInfoHolder@ATL@@@1@@ 1001fed0     Gate.obj
 0002:00000ee4       ??_7?$CComContainedObject@VCOPOSGate@@@ATL@@6B?$IObjectSafetyImpl@VCOPOSGate@@$02@1@@ 1001fee4     Gate.obj
 0002:00000efc       ??_7?$CComContainedObject@VCOPOSGate@@@ATL@@6B?$IPropertyNotifySinkCP@VCOPOSGate@@VCComDynamicUnkArray@ATL@@@1@@ 1001fefc     Gate.obj
 0002:00000f1c       ??_7?$CComContainedObject@VCOPOSGate@@@ATL@@6B?$CProxy_IOPOSEvents@VCOPOSGate@@@@@ 1001ff1c     Gate.obj
 0002:00000f3c       ??_7?$CComAggObject@VCOPOSGate@@@ATL@@6B@ 1001ff3c     Gate.obj
 0002:00000f4c       ??_7?$CComObject@VCOPOSGate@@@ATL@@6B?$IDispatchImpl@UIOPOSGate@@$1?IID_IOPOSGate@@3U_GUID@@B$1?LIBID_OposGate_CCO@@3U3@B$00$0A@VCComTypeInfoHolder@ATL@@@1@@ 1001ff4c     Gate.obj
 0002:00001024       ??_7?$CComObject@VCOPOSGate@@@ATL@@6BCComControlBase@1@@ 10020024     Gate.obj
 0002:00001038       ??_7?$CComObject@VCOPOSGate@@@ATL@@6B?$CWindowImpl@VCOPOSGate@@VCWindow@ATL@@V?$CWinTraits@$0FGAAAAAA@$0A@@3@@1@@ 10020038     Gate.obj
 0002:00001048       ??_7?$CComObject@VCOPOSGate@@@ATL@@6B?$IPersistStreamInitImpl@VCOPOSGate@@@1@@ 10020048     Gate.obj
 0002:0000106c       ??_7?$CComObject@VCOPOSGate@@@ATL@@6B?$IOleControlImpl@VCOPOSGate@@@1@@ 1002006c     Gate.obj
 0002:00001088       ??_7?$CComObject@VCOPOSGate@@@ATL@@6B?$IOleObjectImpl@VCOPOSGate@@@1@@ 10020088     Gate.obj
 0002:000010e8       ??_7?$CComObject@VCOPOSGate@@@ATL@@6B?$IOleInPlaceActiveObjectImpl@VCOPOSGate@@@1@@ 100200e8     Gate.obj
 0002:00001110       ??_7?$CComObject@VCOPOSGate@@@ATL@@6B?$IViewObjectExImpl@VCOPOSGate@@@1@@ 10020110     Gate.obj
 0002:0000114c       ??_7?$CComObject@VCOPOSGate@@@ATL@@6B?$IOleInPlaceObjectWindowlessImpl@VCOPOSGate@@@1@@ 1002014c     Gate.obj
 0002:00001178       ??_7?$CComObject@VCOPOSGate@@@ATL@@6B?$IConnectionPointContainerImpl@VCOPOSGate@@@1@@ 10020178     Gate.obj
 0002:0000118c       ??_7?$CComObject@VCOPOSGate@@@ATL@@6B?$IPersistStorageImpl@VCOPOSGate@@@1@@ 1002018c     Gate.obj
 0002:000011b4       ??_7?$CComObject@VCOPOSGate@@@ATL@@6B?$ISpecifyPropertyPagesImpl@VCOPOSGate@@@1@@ 100201b4     Gate.obj
 0002:000011c4       ??_7?$CComObject@VCOPOSGate@@@ATL@@6B?$IQuickActivateImpl@VCOPOSGate@@@1@@ 100201c4     Gate.obj
 0002:000011dc       ??_7?$CComObject@VCOPOSGate@@@ATL@@6B?$IDataObjectImpl@VCOPOSGate@@@1@@ 100201dc     Gate.obj
 0002:0000120c       ??_7?$CComObject@VCOPOSGate@@@ATL@@6B?$IProvideClassInfo2Impl@$1?CLSID_OPOSGate@@3U_GUID@@B$1?DIID__IOPOSGateEvents@@3U2@B$1?LIBID_OposGate_CCO@@3U2@B$00$0A@VCComTypeInfoHolder@ATL@@@1@@ 1002020c     Gate.obj
 0002:00001220       ??_7?$CComObject@VCOPOSGate@@@ATL@@6B?$IObjectSafetyImpl@VCOPOSGate@@$02@1@@ 10020220     Gate.obj
 0002:00001238       ??_7?$CComObject@VCOPOSGate@@@ATL@@6B?$IPropertyNotifySinkCP@VCOPOSGate@@VCComDynamicUnkArray@ATL@@@1@@ 10020238     Gate.obj
 0002:00001258       ??_7?$CComObject@VCOPOSGate@@@ATL@@6B?$CProxy_IOPOSEvents@VCOPOSGate@@@@@ 10020258     Gate.obj
 0002:00001278       ??_C@_1O@GBFKGNEO@?$AAA?$AAT?$AAL?$AA?3?$AA?$CF?$AAp@ 10020278     Gate.obj
 0002:00001288       ??_C@_1BA@PICGEGJB@?$AAD?$AAI?$AAS?$AAP?$AAL?$AAA?$AAY@ 10020288     Gate.obj
 0002:00001298       __GUID_9bfbbc02_eff1_101a_84ed_00aa00341d07 10020298     Gate.obj
 0002:000012a8       ?_entries@?1??_GetEntries@?$CComEnum@UIEnumConnectionPoints@@$1?_GUID_b196b285_bab4_101a_b69c_00aa00341d07@@3U__s_GUID@@BPAUIConnectionPoint@@V?$_CopyInterface@UIConnectionPoint@@@ATL@@VCComSingleThreadModel@6@@ATL@@SGPBU_ATL_INTMAP_ENTRY@3@XZ@4QBU43@B 100202a8     Gate.obj
 0002:000012c0       __GUID_b196b284_bab4_101a_b69c_00aa00341d07 100202c0     Gate.obj
 0002:000012d0       __GUID_00020412_0000_0000_c000_000000000046 100202d0     Gate.obj
 0002:000012e0       __GUID_00020401_0000_0000_c000_000000000046 100202e0     Gate.obj
 0002:000012f0       ??_7?$CComObject@V?$CComEnum@UIEnumConnections@@$1?_GUID_b196b287_bab4_101a_b69c_00aa00341d07@@3U__s_GUID@@BUtagCONNECTDATA@@V?$_Copy@UtagCONNECTDATA@@@ATL@@VCComSingleThreadModel@6@@ATL@@@ATL@@6B@ 100202f0     Gate.obj
 0002:00001310       __GUID_55980ba0_35aa_11cf_b671_00aa004cd6d8 10020310     Gate.obj
 0002:00001320       __GUID_b196b28b_bab4_101a_b69c_00aa00341d07 10020320     Gate.obj
 0002:00001330       ?_entries@?1??_GetEntries@?$CComEnum@UIEnumConnections@@$1?_GUID_b196b287_bab4_101a_b69c_00aa00341d07@@3U__s_GUID@@BUtagCONNECTDATA@@V?$_Copy@UtagCONNECTDATA@@@ATL@@VCComSingleThreadModel@6@@ATL@@SGPBU_ATL_INTMAP_ENTRY@3@XZ@4QBU43@B 10020330     Gate.obj
 0002:00001348       ??_C@_0BG@EKFFMJIO@RegOpenKeyTransactedW@ 10020348     Gate.obj
 0002:00001360       ??_C@_0BI@HAKLOOGP@RegDeleteKeyTransactedW@ 10020360     Gate.obj
 0002:00001378       ??_C@_0BA@LILAPHGE@RegDeleteKeyExW@ 10020378     Gate.obj
 0002:00001388       ??_C@_19ILOCMLCJ@?$AA?4?$AAt?$AAl?$AAb@ 10020388     Gate.obj
 0002:00001394       __GUID_0002e012_0000_0000_c000_000000000046 10020394     Gate.obj
 0002:000013a4       ??_C@_1O@FHBGLCIO@?$AAC?$AAL?$AAS?$AAI?$AAD?$AA?2@ 100203a4     Gate.obj
 0002:000013b4       ??_C@_1CK@IFBKBFAA@?$AA?2?$AAR?$AAe?$AAq?$AAu?$AAi?$AAr?$AAe?$AAd?$AA?5?$AAC?$AAa?$AAt?$AAe?$AAg@ 100203b4     Gate.obj
 0002:000013e0       ??_C@_1DA@BIHALFED@?$AA?2?$AAI?$AAm?$AAp?$AAl?$AAe?$AAm?$AAe?$AAn?$AAt?$AAe?$AAd?$AA?5?$AAC?$AAa@ 100203e0     Gate.obj
 0002:00001410       ??_C@_1BK@EDKOLFBJ@?$AAO?$AAL?$AAE?$AAA?$AAU?$AAT?$AA3?$AA2?$AA?4?$AAD?$AAL?$AAL@ 10020410     Gate.obj
 0002:0000142c       ??_C@_0BJ@CNLFOMHB@UnRegisterTypeLibForUser@ 1002042c     Gate.obj
 0002:00001448       ??_C@_0BH@LBOMMKPJ@RegisterTypeLibForUser@ 10020448     Gate.obj
 0002:00001460       ??_C@_0P@MMNMMLGK@COFreezeEvents@ 10020460     GateImpl.obj
 0002:00001470       ??_C@_0BC@OGCGGIMP@GetPropertyNumber@ 10020470     GateImpl.obj
 0002:00001484       ??_C@_0BC@MDCNODNB@SetPropertyNumber@ 10020484     GateImpl.obj
 0002:00001498       ??_C@_0BC@CFCCMIMD@GetPropertyString@ 10020498     GateImpl.obj
 0002:000014ac       ??_C@_0BC@CJEDNN@SetPropertyString@ 100204ac     GateImpl.obj
 0002:000014c0       ??_C@_0M@LNPKKKDA@OpenService@ 100204c0     GateImpl.obj
 0002:000014cc       ??_C@_0M@PCMCHHMH@CheckHealth@ 100204cc     GateImpl.obj
 0002:000014d8       ??_C@_0M@JGMIDNEK@ClaimDevice@ 100204d8     GateImpl.obj
 0002:000014e4       ??_C@_0N@DDFIIBMP@CloseService@ 100204e4     GateImpl.obj
 0002:000014f4       ??_C@_08EEIHICPC@DirectIO@ 100204f4     GateImpl.obj
 0002:00001500       ??_C@_0O@BCPMENMJ@ReleaseDevice@ 10020500     GateImpl.obj
 0002:00001510       ??_C@_0BA@GFABKEEE@ResetStatistics@ 10020510     GateImpl.obj
 0002:00001520       ??_C@_0BD@DPALHJGC@RetrieveStatistics@ 10020520     GateImpl.obj
 0002:00001534       ??_C@_0BB@KOHIKNFC@UpdateStatistics@ 10020534     GateImpl.obj
 0002:00001548       ??_C@_0BH@PBKBNMGB@CompareFirmwareVersion@ 10020548     GateImpl.obj
 0002:00001560       ??_C@_0P@FBPDPIPA@UpdateFirmware@ 10020560     GateImpl.obj
 0002:00001570       ??_C@_08HNMGPACO@OpenGate@ 10020570     GateImpl.obj
 0002:0000157c       ??_C@_0BB@NDEPJDFP@WaitForGateClose@ 1002057c     GateImpl.obj
 0002:00001590       ??_7?$CProxy_IOPOSEvents@VCOPOSGate@@@@6B@ 10020590     GateImpl.obj
 0002:000015b0       ??_C@_1BA@IFHENID@?$AA?$FL?$AAE?$AAr?$AAr?$AAo?$AAr?$AA?$FN@ 100205b0     GateImpl.obj
 0002:000015c0       ??_C@_0CH@ICEPBEKC@SOFTWARE?2OLEforRetail?2ServiceOP@ 100205c0     GateImpl.obj
 0002:000015e8       ??_C@_1M@IAIJHCCH@?$AAC?$AAl?$AAo?$AAs?$AAe@ 100205e8     GateImpl.obj
 0002:000015f4       ??_C@_1M@PCPKGJAH@?$AAC?$AAl?$AAa?$AAi?$AAm@ 100205f4     GateImpl.obj
 0002:00001600       ??_C@_1BA@NDFKIOCP@?$AAR?$AAe?$AAl?$AAe?$AAa?$AAs?$AAe@ 10020600     GateImpl.obj
 0002:00001610       ??_C@_04BLOGEDLD@Gate@     10020610     GateImpl.obj
 0002:00001618       ??_C@_1BM@IJMNMBPK@?$AAG?$AAe?$AAt?$AAO?$AAp?$AAe?$AAn?$AAR?$AAe?$AAs?$AAu?$AAl?$AAt@ 10020618     GateImpl.obj
 0002:00001634       _IID_IPropertyNotifySink   10020634     uuid:ocidl_i.obj
 0002:00001644       _GUID_NULL                 10020644     uuid:cguid_i.obj
 0002:00001654       _CLSID_StdGlobalInterfaceTable 10020654     uuid:cguid_i.obj
 0002:00001664       _IID_IDispatch             10020664     uuid:oaidl_i.obj
 0002:00001674       _CLSID_StdComponentCategoriesMgr 10020674     uuid:ieguids.obj
 0002:00001684       _IID_IUnknown              10020684     uuid:unknwn_i.obj
 0002:00001698       ??_C@_1EC@JIJBPKFM@?$AAa?$AAp?$AAi?$AA?9?$AAm?$AAs?$AA?9?$AAw?$AAi?$AAn?$AA?9?$AAc?$AAo?$AAr?$AAe@ 10020698     LIBCMT:thread_safe_statics.obj
 0002:000016dc       ??_C@_1BK@MGMFAEKH@?$AAk?$AAe?$AAr?$AAn?$AAe?$AAl?$AA3?$AA2?$AA?4?$AAd?$AAl?$AAl@ 100206dc     LIBCMT:thread_safe_statics.obj
 0002:000016f8       ??_C@_0BJ@JEBJOJFJ@SleepConditionVariableCS@ 100206f8     LIBCMT:thread_safe_statics.obj
 0002:00001714       ??_C@_0BJ@PGPPEPCC@WakeAllConditionVariable@ 10020714     LIBCMT:thread_safe_statics.obj
 0002:0000172d       ?nothrow@std@@3Unothrow_t@1@B 1002072d     LIBCMT:std_nothrow.obj
 0002:00001738       __pRawDllMain              10020738     LIBCMT:dll_dllmain.obj
 0002:00001738       __pDefaultRawDllMain       10020738     LIBCMT:dll_dllmain.obj
 0002:00001740       ??_7exception@std@@6B@     10020740     LIBCMT:throw_bad_alloc.obj
 0002:00001748       ??_C@_0BC@EOODALEL@Unknown?5exception@ 10020748     LIBCMT:throw_bad_alloc.obj
 0002:00001760       ??_7bad_alloc@std@@6B@     10020760     LIBCMT:throw_bad_alloc.obj
 0002:00001768       ??_C@_0P@GHFPNOJB@bad?5allocation@ 10020768     LIBCMT:throw_bad_alloc.obj
 0002:0000177c       ??_7bad_array_new_length@std@@6B@ 1002077c     LIBCMT:throw_bad_alloc.obj
 0002:00001784       ??_C@_0BF@KINCDENJ@bad?5array?5new?5length@ 10020784     LIBCMT:throw_bad_alloc.obj
 0002:000017a0       ??_7type_info@@6B@         100207a0     LIBCMT:std_type_info_static.obj
 0002:000017a4       _GUID_ATLVer110            100207a4     atls:atlbase.obj
 0002:000017b8       ??_C@_1IC@ONKHOIDK@?$AAE?$AAR?$AAR?$AAO?$AAR?$AA?5?$AA?3?$AA?5?$AAU?$AAn?$AAa?$AAb?$AAl?$AAe?$AA?5@ 100207b8     atls:atlbase.obj
 0002:0000183c       ??_C@_0N@FJEPLCIH@atlthunk?4dll@ 1002083c     atls:atlthunk.obj
 0002:0000184c       ??_C@_0BG@GAKFHCBM@AtlThunk_AllocateData@ 1002084c     atls:atlthunk.obj
 0002:00001864       ??_C@_0BC@JKONFIAH@AtlThunk_InitData@ 10020864     atls:atlthunk.obj
 0002:00001878       ??_C@_0BE@IAOEELAK@AtlThunk_DataToCode@ 10020878     atls:atlthunk.obj
 0002:0000188c       ??_C@_0BC@GBGKAIPI@AtlThunk_FreeData@ 1002088c     atls:atlthunk.obj
 0002:000018a0       __pDestructExceptionObject 100208a0     libvcruntime:ehhelpers.obj
 0002:000018a8       ??_7bad_exception@std@@6B@ 100208a8     libvcruntime:frame.obj
 0002:000018b0       ??_C@_0O@DPKOEFFH@bad?5exception@ 100208b0     libvcruntime:frame.obj
 0002:00001c40       ??_C@_08EHJDFFNH@__based?$CI@ 10020c40     libvcruntime:undname.obj
 0002:00001c4c       ??_C@_07KOLFKCDI@__cdecl@  10020c4c     libvcruntime:undname.obj
 0002:00001c54       ??_C@_08GHMPAG@__pascal@   10020c54     libvcruntime:undname.obj
 0002:00001c60       ??_C@_09IFJBGAPI@__stdcall@ 10020c60     libvcruntime:undname.obj
 0002:00001c6c       ??_C@_0L@NPHFGOKO@__thiscall@ 10020c6c     libvcruntime:undname.obj
 0002:00001c78       ??_C@_0L@JMKHOMEK@__fastcall@ 10020c78     libvcruntime:undname.obj
 0002:00001c84       ??_C@_0N@BCKKPABJ@__vectorcall@ 10020c84     libvcruntime:undname.obj
 0002:00001c94       ??_C@_09HIJEGCPM@__clrcall@ 10020c94     libvcruntime:undname.obj
 0002:00001ca0       ??_C@_06GHPCKEAG@__eabi@   10020ca0     libvcruntime:undname.obj
 0002:00001ca8       ??_C@_09IOPIDJLG@__swift_1@ 10020ca8     libvcruntime:undname.obj
 0002:00001cb4       ??_C@_09KFNFGKHF@__swift_2@ 10020cb4     libvcruntime:undname.obj
 0002:00001cc0       ??_C@_07JOMMBBKO@__ptr64@  10020cc0     libvcruntime:undname.obj
 0002:00001cc8       ??_C@_0L@PILCLIHE@__restrict@ 10020cc8     libvcruntime:undname.obj
 0002:00001cd4       ??_C@_0M@GFIIJFMG@__unaligned@ 10020cd4     libvcruntime:undname.obj
 0002:00001ce0       ??_C@_09DHDLOLLB@restrict?$CI@ 10020ce0     libvcruntime:undname.obj
 0002:00001cea       ??_C@_00CNPNBAHC@@         10020cea     libvcruntime:undname.obj
 0002:00001cec       ??_C@_04NIHEBCM@?5new@     10020cec     libvcruntime:undname.obj
 0002:00001cf4       ??_C@_07FPCDHGMM@?5delete@ 10020cf4     libvcruntime:undname.obj
 0002:00001cfc       ??_C@_01NEMOKFLO@?$DN@     10020cfc     libvcruntime:undname.obj
 0002:00001d00       ??_C@_02GPIOPFAK@?$DO?$DO@ 10020d00     libvcruntime:undname.obj
 0002:00001d04       ??_C@_02FODMEDOG@?$DM?$DM@ 10020d04     libvcruntime:undname.obj
 0002:00001d08       ??_C@_01DCLJPIOD@?$CB@     10020d08     libvcruntime:undname.obj
 0002:00001d0c       ??_C@_02EGOFBIJA@?$DN?$DN@ 10020d0c     libvcruntime:undname.obj
 0002:00001d10       ??_C@_02FDNJECIE@?$CB?$DN@ 10020d10     libvcruntime:undname.obj
 0002:00001d14       ??_C@_02GPECMEKF@?$FL?$FN@ 10020d14     libvcruntime:undname.obj
 0002:00001d18       ??_C@_08LHJFAFGD@operator@ 10020d18     libvcruntime:undname.obj
 0002:00001d24       ??_C@_02HBOOOICD@?9?$DO@   10020d24     libvcruntime:undname.obj
 0002:00001d28       ??_C@_01NBENCBCI@?$CK@     10020d28     libvcruntime:undname.obj
 0002:00001d2c       ??_C@_02ECNGHCIF@?$CL?$CL@ 10020d2c     libvcruntime:undname.obj
 0002:00001d30       ??_C@_02BAABKJLB@?9?9@     10020d30     libvcruntime:undname.obj
 0002:00001d34       ??_C@_01JOAMLHOP@?9@       10020d34     libvcruntime:undname.obj
 0002:00001d38       ??_C@_01MIFGBAGJ@?$CL@     10020d38     libvcruntime:undname.obj
 0002:00001d3c       ??_C@_01HNPIGOCE@?$CG@     10020d3c     libvcruntime:undname.obj
 0002:00001d40       ??_C@_03MNHNFDLC@?9?$DO?$CK@ 10020d40     libvcruntime:undname.obj
 0002:00001d44       ??_C@_01KMDKNFGN@?1@       10020d44     libvcruntime:undname.obj
 0002:00001d48       ??_C@_01FGNFDNOH@?$CF@     10020d48     libvcruntime:undname.obj
 0002:00001d4c       ??_C@_01MNNFJEPP@?$DM@     10020d4c     libvcruntime:undname.obj
 0002:00001d50       ??_C@_02EHCHHCKH@?$DM?$DN@ 10020d50     libvcruntime:undname.obj
 0002:00001d54       ??_C@_01PPODPGHN@?$DO@     10020d54     libvcruntime:undname.obj
 0002:00001d58       ??_C@_02EEKDKGMJ@?$DO?$DN@ 10020d58     libvcruntime:undname.obj
 0002:00001d5c       ??_C@_01IHBHIGKO@?0@       10020d5c     libvcruntime:undname.obj
 0002:00001d60       ??_C@_02HCKGKOFO@?$CI?$CJ@ 10020d60     libvcruntime:undname.obj
 0002:00001d64       ??_C@_01PJKLJHI@?$HO@      10020d64     libvcruntime:undname.obj
 0002:00001d68       ??_C@_01JKBOJNNK@?$FO@     10020d68     libvcruntime:undname.obj
 0002:00001d6c       ??_C@_01DNKMNLPK@?$HM@     10020d6c     libvcruntime:undname.obj
 0002:00001d70       ??_C@_02PPKAJPJL@?$CG?$CG@ 10020d70     libvcruntime:undname.obj
 0002:00001d74       ??_C@_02NONPIBCD@?$HM?$HM@ 10020d74     libvcruntime:undname.obj
 0002:00001d78       ??_C@_02FPIMKNGF@?$CK?$DN@ 10020d78     libvcruntime:undname.obj
 0002:00001d7c       ??_C@_02FOEOMHFC@?$CL?$DN@ 10020d7c     libvcruntime:undname.obj
 0002:00001d80       ??_C@_02FKMDLLOA@?9?$DN@   10020d80     libvcruntime:undname.obj
 0002:00001d84       ??_C@_02FJEHGPIO@?1?$DN@   10020d84     libvcruntime:undname.obj
 0002:00001d88       ??_C@_02FENAOKFI@?$CF?$DN@ 10020d88     libvcruntime:undname.obj
 0002:00001d8c       ??_C@_03IKFCCPFF@?$DO?$DO?$DN@ 10020d8c     libvcruntime:undname.obj
 0002:00001d90       ??_C@_03CDNPDDLA@?$DM?$DM?$DN@ 10020d90     libvcruntime:undname.obj
 0002:00001d94       ??_C@_02FGJGFEAB@?$CG?$DN@ 10020d94     libvcruntime:undname.obj
 0002:00001d98       ??_C@_02DHLNPPGH@?$HM?$DN@ 10020d98     libvcruntime:undname.obj
 0002:00001d9c       ??_C@_02MHEGNOJ@?$FO?$DN@  10020d9c     libvcruntime:undname.obj
 0002:00001da0       ??_C@_09IFPLHPGF@?$GAvftable?8@ 10020da0     libvcruntime:undname.obj
 0002:00001dac       ??_C@_09BLBHBJP@?$GAvbtable?8@ 10020dac     libvcruntime:undname.obj
 0002:00001db8       ??_C@_07FEEIOKP@?$GAvcall?8@ 10020db8     libvcruntime:undname.obj
 0002:00001dc0       ??_C@_08LLFFHHDJ@?$GAtypeof?8@ 10020dc0     libvcruntime:undname.obj
 0002:00001dcc       ??_C@_0BF@KDPPACIK@?$GAlocal?5static?5guard?8@ 10020dcc     libvcruntime:undname.obj
 0002:00001de4       ??_C@_08OBABFOLI@?$GAstring?8@ 10020de4     libvcruntime:undname.obj
 0002:00001df0       ??_C@_0BD@JDLKDPAB@?$GAvbase?5destructor?8@ 10020df0     libvcruntime:undname.obj
 0002:00001e04       ??_C@_0BN@DEGPLNFK@?$GAvector?5deleting?5destructor?8@ 10020e04     libvcruntime:undname.obj
 0002:00001e24       ??_C@_0BO@OBMKPJIG@?$GAdefault?5constructor?5closure?8@ 10020e24     libvcruntime:undname.obj
 0002:00001e44       ??_C@_0BN@IMDCHIKM@?$GAscalar?5deleting?5destructor?8@ 10020e44     libvcruntime:undname.obj
 0002:00001e64       ??_C@_0BO@PFGOCPJJ@?$GAvector?5constructor?5iterator?8@ 10020e64     libvcruntime:undname.obj
 0002:00001e84       ??_C@_0BN@LFPFMEDL@?$GAvector?5destructor?5iterator?8@ 10020e84     libvcruntime:undname.obj
 0002:00001ea4       ??_C@_0CE@IKBNEHA@?$GAvector?5vbase?5constructor?5itera@ 10020ea4     libvcruntime:undname.obj
 0002:00001ec8       ??_C@_0BL@NILFHHPC@?$GAvirtual?5displacement?5map?8@ 10020ec8     libvcruntime:undname.obj
 0002:00001ee4       ??_C@_0CB@JONCMFFK@?$GAeh?5vector?5constructor?5iterator@ 10020ee4     libvcruntime:undname.obj
 0002:00001f08       ??_C@_0CA@GCEOPDGL@?$GAeh?5vector?5destructor?5iterator?8@ 10020f08     libvcruntime:undname.obj
 0002:00001f28       ??_C@_0CH@OOJPLCPH@?$GAeh?5vector?5vbase?5constructor?5it@ 10020f28     libvcruntime:undname.obj
 0002:00001f50       ??_C@_0BL@LLKPOHJI@?$GAcopy?5constructor?5closure?8@ 10020f50     libvcruntime:undname.obj
 0002:00001f6c       ??_C@_0BA@KBCDOMBN@?$GAudt?5returning?8@ 10020f6c     libvcruntime:undname.obj
 0002:00001f7c       ??_C@_03KLGMFNMG@?$GAEH@   10020f7c     libvcruntime:undname.obj
 0002:00001f80       ??_C@_05KHLCHHI@?$GARTTI@  10020f80     libvcruntime:undname.obj
 0002:00001f88       ??_C@_0BA@KKLDJDLB@?$GAlocal?5vftable?8@ 10020f88     libvcruntime:undname.obj
 0002:00001f98       ??_C@_0CE@IIHCMGGL@?$GAlocal?5vftable?5constructor?5clos@ 10020f98     libvcruntime:undname.obj
 0002:00001fbc       ??_C@_06FHBGPFGH@?5new?$FL?$FN@ 10020fbc     libvcruntime:undname.obj
 0002:00001fc4       ??_C@_09LBNFPBCA@?5delete?$FL?$FN@ 10020fc4     libvcruntime:undname.obj
 0002:00001fd0       ??_C@_0P@HJKNJFNN@?$GAomni?5callsig?8@ 10020fd0     libvcruntime:undname.obj
 0002:00001fe0       ??_C@_0BL@CNOONJFP@?$GAplacement?5delete?5closure?8@ 10020fe0     libvcruntime:undname.obj
 0002:00001ffc       ??_C@_0BN@CKNJLHMB@?$GAplacement?5delete?$FL?$FN?5closure?8@ 10020ffc     libvcruntime:undname.obj
 0002:0000201c       ??_C@_0CG@CFDHKGGD@?$GAmanaged?5vector?5constructor?5ite@ 1002101c     libvcruntime:undname.obj
 0002:00002044       ??_C@_0CF@IMGKMJNO@?$GAmanaged?5vector?5destructor?5iter@ 10021044     libvcruntime:undname.obj
 0002:0000206c       ??_C@_0CG@HLDDJMAG@?$GAeh?5vector?5copy?5constructor?5ite@ 1002106c     libvcruntime:undname.obj
 0002:00002094       ??_C@_0CM@FCBBDIGB@?$GAeh?5vector?5vbase?5copy?5construct@ 10021094     libvcruntime:undname.obj
 0002:000020c0       ??_C@_0BL@CLIPGLGB@?$GAdynamic?5initializer?5for?5?8@ 100210c0     libvcruntime:undname.obj
 0002:000020dc       ??_C@_0CB@PDBIFEP@?$GAdynamic?5atexit?5destructor?5for?5@ 100210dc     libvcruntime:undname.obj
 0002:00002100       ??_C@_0CD@CGAJBKEJ@?$GAvector?5copy?5constructor?5iterat@ 10021100     libvcruntime:undname.obj
 0002:00002124       ??_C@_0CJ@GJELGAMM@?$GAvector?5vbase?5copy?5constructor?5@ 10021124     libvcruntime:undname.obj
 0002:00002150       ??_C@_0CL@FGIJHLCE@?$GAmanaged?5vector?5copy?5constructo@ 10021150     libvcruntime:undname.obj
 0002:0000217c       ??_C@_0BM@PMGGMLDN@?$GAlocal?5static?5thread?5guard?8@ 1002117c     libvcruntime:undname.obj
 0002:00002198       ??_C@_0N@BDNMDMOL@operator?5?$CC?$CC?5@ 10021198     libvcruntime:undname.obj
 0002:000021a8       ??_C@_0BC@GGEBGALA@operator?5co_await@ 100211a8     libvcruntime:undname.obj
 0002:000021bc       ??_C@_0M@GAAIMMOH@operator?$DM?$DN?$DO@ 100211bc     libvcruntime:undname.obj
 0002:000021c8       ??_C@_0BC@DAFEJGAK@?5Type?5Descriptor?8@ 100211c8     libvcruntime:undname.obj
 0002:000021dc       ??_C@_0BM@LDKODKLH@?5Base?5Class?5Descriptor?5at?5?$CI@ 100211dc     libvcruntime:undname.obj
 0002:000021f8       ??_C@_0BD@LGICGFMM@?5Base?5Class?5Array?8@ 100211f8     libvcruntime:undname.obj
 0002:0000220c       ??_C@_0BN@MECKDCOJ@?5Class?5Hierarchy?5Descriptor?8@ 1002120c     libvcruntime:undname.obj
 0002:0000222c       ??_C@_0BK@CFCOFLF@?5Complete?5Object?5Locator?8@ 1002122c     libvcruntime:undname.obj
 0002:00002248       ??_C@_0BG@JNJLAMPM@?$GAanonymous?5namespace?8@ 10021248     libvcruntime:undname.obj
 0002:0000226c       ??_C@_1DM@KHCHBNEB@?$AAa?$AAp?$AAi?$AA?9?$AAm?$AAs?$AA?9?$AAw?$AAi?$AAn?$AA?9?$AAc?$AAo?$AAr?$AAe@ 1002126c     libvcruntime:winapi_downlevel.obj
 0002:000022a8       ??_C@_1DK@LPPGFMPP@?$AAa?$AAp?$AAi?$AA?9?$AAm?$AAs?$AA?9?$AAw?$AAi?$AAn?$AA?9?$AAc?$AAo?$AAr?$AAe@ 100212a8     libvcruntime:winapi_downlevel.obj
 0002:000022e4       ??_C@_1BC@GDMECMAK@?$AAk?$AAe?$AAr?$AAn?$AAe?$AAl?$AA3?$AA2@ 100212e4     libvcruntime:winapi_downlevel.obj
 0002:000022f8       ??_C@_1BA@PFFKHIOG@?$AAa?$AAp?$AAi?$AA?9?$AAm?$AAs?$AA?9@ 100212f8     libvcruntime:winapi_downlevel.obj
 0002:00002310       ??_C@_08KNHFBNJ@FlsAlloc@  10021310     libvcruntime:winapi_downlevel.obj
 0002:00002324       ??_C@_07PEJMOBNF@FlsFree@  10021324     libvcruntime:winapi_downlevel.obj
 0002:00002334       ??_C@_0M@GDNOONDI@FlsGetValue@ 10021334     libvcruntime:winapi_downlevel.obj
 0002:00002348       ??_C@_0M@JCPCPOEF@FlsSetValue@ 10021348     libvcruntime:winapi_downlevel.obj
 0002:0000235c       ??_C@_0BM@HCFOFFN@InitializeCriticalSectionEx@ 1002135c     libvcruntime:winapi_downlevel.obj
 0002:000024e0       ?format_validation_lookup_table_spectre@__crt_stdio_output@@3V?$spectre_mitigated_lookup_table@Ustate_transition_pair@__crt_stdio_output@@$0IA@@1@B 100214e0     libucrt:output.obj
 0002:000028e0       ??_C@_1O@CEDCILHN@?$AA?$CI?$AAn?$AAu?$AAl?$AAl?$AA?$CJ@ 100218e0     libucrt:output.obj
 0002:000028f0       ??_C@_06OJHGLDPL@?$CInull?$CJ@ 100218f0     libucrt:output.obj
 0002:000028f8       ___acrt_exception_action_table 100218f8     libucrt:exception_filter.obj
 0002:00002988       ___acrt_signal_action_table_count 10021988     libucrt:exception_filter.obj
 0002:0000298c       ___acrt_signal_action_first_fpe_index 1002198c     libucrt:exception_filter.obj
 0002:00002990       ___acrt_signal_action_fpe_count 10021990     libucrt:exception_filter.obj
 0002:00002994       ??_C@_1BI@BGOHAHKC@?$AAm?$AAs?$AAc?$AAo?$AAr?$AAe?$AAe?$AA?4?$AAd?$AAl?$AAl@ 10021994     libucrt:exit.obj
 0002:000029ac       ??_C@_0P@MIGLKIOC@CorExitProcess@ 100219ac     libucrt:exit.obj
 0002:00002a90       ??_C@_1EA@JGEFHKEI@?$AAa?$AAp?$AAi?$AA?9?$AAm?$AAs?$AA?9?$AAw?$AAi?$AAn?$AA?9?$AAc?$AAo?$AAr?$AAe@ 10021a90     libucrt:winapi_thunks.obj
 0002:00002ad0       ??_C@_1DI@IJCEHOCB@?$AAa?$AAp?$AAi?$AA?9?$AAm?$AAs?$AA?9?$AAw?$AAi?$AAn?$AA?9?$AAc?$AAo?$AAr?$AAe@ 10021ad0     libucrt:winapi_thunks.obj
 0002:00002b08       ??_C@_1EI@MPIAOHOC@?$AAa?$AAp?$AAi?$AA?9?$AAm?$AAs?$AA?9?$AAw?$AAi?$AAn?$AA?9?$AAc?$AAo?$AAr?$AAe@ 10021b08     libucrt:winapi_thunks.obj
 0002:00002b50       ??_C@_1FK@FPHCKFIE@?$AAa?$AAp?$AAi?$AA?9?$AAm?$AAs?$AA?9?$AAw?$AAi?$AAn?$AA?9?$AAc?$AAo?$AAr?$AAe@ 10021b50     libucrt:winapi_thunks.obj
 0002:00002bb0       ??_C@_1EM@DILCGIIO@?$AAa?$AAp?$AAi?$AA?9?$AAm?$AAs?$AA?9?$AAw?$AAi?$AAn?$AA?9?$AAc?$AAo?$AAr?$AAe@ 10021bb0     libucrt:winapi_thunks.obj
 0002:00002bfc       ??_C@_1DM@LNCGDDPN@?$AAa?$AAp?$AAi?$AA?9?$AAm?$AAs?$AA?9?$AAw?$AAi?$AAn?$AA?9?$AAc?$AAo?$AAr?$AAe@ 10021bfc     libucrt:winapi_thunks.obj
 0002:00002c38       ??_C@_1DO@FPAPJEMD@?$AAa?$AAp?$AAi?$AA?9?$AAm?$AAs?$AA?9?$AAw?$AAi?$AAn?$AA?9?$AAc?$AAo?$AAr?$AAe@ 10021c38     libucrt:winapi_thunks.obj
 0002:00002c78       ??_C@_1DK@NDHNAHIO@?$AAa?$AAp?$AAi?$AA?9?$AAm?$AAs?$AA?9?$AAw?$AAi?$AAn?$AA?9?$AAc?$AAo?$AAr?$AAe@ 10021c78     libucrt:winapi_thunks.obj
 0002:00002cb4       ??_C@_1DM@KGHDGBCM@?$AAa?$AAp?$AAi?$AA?9?$AAm?$AAs?$AA?9?$AAw?$AAi?$AAn?$AA?9?$AAc?$AAo?$AAr?$AAe@ 10021cb4     libucrt:winapi_thunks.obj
 0002:00002cf0       ??_C@_1EO@IJIOEFOH@?$AAa?$AAp?$AAi?$AA?9?$AAm?$AAs?$AA?9?$AAw?$AAi?$AAn?$AA?9?$AAr?$AAt?$AAc?$AAo@ 10021cf0     libucrt:winapi_thunks.obj
 0002:00002d40       ??_C@_1FG@HHGEKANL@?$AAa?$AAp?$AAi?$AA?9?$AAm?$AAs?$AA?9?$AAw?$AAi?$AAn?$AA?9?$AAs?$AAe?$AAc?$AAu@ 10021d40     libucrt:winapi_thunks.obj
 0002:00002d98       ??_C@_1EG@DBIOJECG@?$AAe?$AAx?$AAt?$AA?9?$AAm?$AAs?$AA?9?$AAw?$AAi?$AAn?$AA?9?$AAn?$AAt?$AAu?$AAs@ 10021d98     libucrt:winapi_thunks.obj
 0002:00002de0       ??_C@_1EO@FIHMJCLF@?$AAe?$AAx?$AAt?$AA?9?$AAm?$AAs?$AA?9?$AAw?$AAi?$AAn?$AA?9?$AAn?$AAt?$AAu?$AAs@ 10021de0     libucrt:winapi_thunks.obj
 0002:00002e30       ??_C@_1BC@DNHGCMLG@?$AAa?$AAd?$AAv?$AAa?$AAp?$AAi?$AA3?$AA2@ 10021e30     libucrt:winapi_thunks.obj
 0002:00002e44       ??_C@_1M@OAIMIKLP@?$AAn?$AAt?$AAd?$AAl?$AAl@ 10021e44     libucrt:winapi_thunks.obj
 0002:00002e50       ??_C@_1EG@DPGNFKGC@?$AAa?$AAp?$AAi?$AA?9?$AAm?$AAs?$AA?9?$AAw?$AAi?$AAn?$AA?9?$AAa?$AAp?$AAp?$AAm@ 10021e50     libucrt:winapi_thunks.obj
 0002:00002e98       ??_C@_1O@BCCLBEOE@?$AAu?$AAs?$AAe?$AAr?$AA3?$AA2@ 10021e98     libucrt:winapi_thunks.obj
 0002:00002ea8       ??_C@_1BA@IAIFMGEF@?$AAe?$AAx?$AAt?$AA?9?$AAm?$AAs?$AA?9@ 10021ea8     libucrt:winapi_thunks.obj
 0002:00002ebc       ??_C@_0BA@FHFNEAED@AreFileApisANSI@ 10021ebc     libucrt:winapi_thunks.obj
 0002:00002efc       ??_C@_0O@KKBNKAPF@LCMapStringEx@ 10021efc     libucrt:winapi_thunks.obj
 0002:00002f14       ??_C@_0BB@HBDEELFH@LocaleNameToLCID@ 10021f14     libucrt:winapi_thunks.obj
 0002:00002f2c       ??_C@_0CF@OJOFEIGO@AppPolicyGetProcessTerminationM@ 10021f2c     libucrt:winapi_thunks.obj
 0002:00002f5c       ??_C@_0BI@BKLFFAPO@SetThreadStackGuarantee@ 10021f5c     libucrt:winapi_thunks.obj
 0002:00002fb8       ??_C@_03OEIAHPBN@INF@      10021fb8     libucrt:cvt.obj
 0002:00002fbc       ??_C@_03OJHLLCGB@inf@      10021fbc     libucrt:cvt.obj
 0002:00002fc0       ??_C@_03LKNCIKJB@NAN@      10021fc0     libucrt:cvt.obj
 0002:00002fc4       ??_C@_03LHCJEHON@nan@      10021fc4     libucrt:cvt.obj
 0002:00002fc8       ??_C@_09OFJJIMPC@NAN?$CISNAN?$CJ@ 10021fc8     libucrt:cvt.obj
 0002:00002fd4       ??_C@_09IPFBKMDL@nan?$CIsnan?$CJ@ 10021fd4     libucrt:cvt.obj
 0002:00002fe0       ??_C@_08IKHNHAJ@NAN?$CIIND?$CJ@ 10021fe0     libucrt:cvt.obj
 0002:00002fec       ??_C@_08OFCDMILK@nan?$CIind?$CJ@ 10021fec     libucrt:cvt.obj
 0002:00002ff8       ??_C@_05KLBDPFGC@e?$CL000@ 10021ff8     libucrt:cvt.obj
 0002:00003000       ___lc_time_c               10022000     libucrt:nlsdata.obj
 0002:00003164       ??_C@_03KOEHGMDN@Sun@      10022164     libucrt:nlsdata.obj
 0002:00003168       ??_C@_03PDAGKDH@Mon@       10022168     libucrt:nlsdata.obj
 0002:0000316c       ??_C@_03NAGEINEP@Tue@      1002216c     libucrt:nlsdata.obj
 0002:00003170       ??_C@_03MHOMLAJA@Wed@      10022170     libucrt:nlsdata.obj
 0002:00003174       ??_C@_03IOFIKPDN@Thu@      10022174     libucrt:nlsdata.obj
 0002:00003178       ??_C@_03IDIOELNC@Fri@      10022178     libucrt:nlsdata.obj
 0002:0000317c       ??_C@_03FEFJNEK@Sat@       1002217c     libucrt:nlsdata.obj
 0002:00003180       ??_C@_06OOPIFAJ@Sunday@    10022180     libucrt:nlsdata.obj
 0002:00003188       ??_C@_06JLEDEDGH@Monday@   10022188     libucrt:nlsdata.obj
 0002:00003190       ??_C@_07BAAGCFCM@Tuesday@  10022190     libucrt:nlsdata.obj
 0002:00003198       ??_C@_09DLIGFAKA@Wednesday@ 10022198     libucrt:nlsdata.obj
 0002:000031a4       ??_C@_08HACCIKIA@Thursday@ 100221a4     libucrt:nlsdata.obj
 0002:000031b0       ??_C@_06JECMNKMI@Friday@   100221b0     libucrt:nlsdata.obj
 0002:000031b8       ??_C@_08INBOOONO@Saturday@ 100221b8     libucrt:nlsdata.obj
 0002:000031c4       ??_C@_03JIHJHPIE@Jan@      100221c4     libucrt:nlsdata.obj
 0002:000031c8       ??_C@_03HJBDCHOM@Feb@      100221c8     libucrt:nlsdata.obj
 0002:000031cc       ??_C@_03ODNJBKGA@Mar@      100221cc     libucrt:nlsdata.obj
 0002:000031d0       ??_C@_03LEOLGMJP@Apr@      100221d0     libucrt:nlsdata.obj
 0002:000031d4       ??_C@_03CNMDKL@May@        100221d4     libucrt:nlsdata.obj
 0002:000031d8       ??_C@_03IDFGHECI@Jun@      100221d8     libucrt:nlsdata.obj
 0002:000031dc       ??_C@_03LBGABGKK@Jul@      100221dc     libucrt:nlsdata.obj
 0002:000031e0       ??_C@_03IFJFEIGA@Aug@      100221e0     libucrt:nlsdata.obj
 0002:000031e4       ??_C@_03GGCAPAJC@Sep@      100221e4     libucrt:nlsdata.obj
 0002:000031e8       ??_C@_03BMAOKBAD@Oct@      100221e8     libucrt:nlsdata.obj
 0002:000031ec       ??_C@_03JPJOFNIA@Nov@      100221ec     libucrt:nlsdata.obj
 0002:000031f0       ??_C@_03MKABNOCG@Dec@      100221f0     libucrt:nlsdata.obj
 0002:000031f4       ??_C@_07CGJPFGJA@January@  100221f4     libucrt:nlsdata.obj
 0002:000031fc       ??_C@_08GNJGEPFN@February@ 100221fc     libucrt:nlsdata.obj
 0002:00003208       ??_C@_05HPCKOFNC@March@    10022208     libucrt:nlsdata.obj
 0002:00003210       ??_C@_05DMJDNLEJ@April@    10022210     libucrt:nlsdata.obj
 0002:00003218       ??_C@_04CNLMGBGM@June@     10022218     libucrt:nlsdata.obj
 0002:00003220       ??_C@_04MIEPOIFP@July@     10022220     libucrt:nlsdata.obj
 0002:00003228       ??_C@_06LBBHFDDG@August@   10022228     libucrt:nlsdata.obj
 0002:00003230       ??_C@_09BHHEALKD@September@ 10022230     libucrt:nlsdata.obj
 0002:0000323c       ??_C@_07JJNFCEND@October@  1002223c     libucrt:nlsdata.obj
 0002:00003244       ??_C@_08HCHEGEOA@November@ 10022244     libucrt:nlsdata.obj
 0002:00003250       ??_C@_08EDHMEBNP@December@ 10022250     libucrt:nlsdata.obj
 0002:0000325c       ??_C@_02DEDBPAFC@AM@       1002225c     libucrt:nlsdata.obj
 0002:00003260       ??_C@_02CJNFDJBF@PM@       10022260     libucrt:nlsdata.obj
 0002:00003264       ??_C@_08BPBNCDIB@MM?1dd?1yy@ 10022264     libucrt:nlsdata.obj
 0002:00003270       ??_C@_0BE@CKGJFCPC@dddd?0?5MMMM?5dd?0?5yyyy@ 10022270     libucrt:nlsdata.obj
 0002:00003284       ??_C@_08JCCMCCIL@HH?3mm?3ss@ 10022284     libucrt:nlsdata.obj
 0002:00003290       ??_C@_17MBGCMIPB@?$AAS?$AAu?$AAn@ 10022290     libucrt:nlsdata.obj
 0002:00003298       ??_C@_17KBOMKBF@?$AAM?$AAo?$AAn@ 10022298     libucrt:nlsdata.obj
 0002:000032a0       ??_C@_17BMKGEGOJ@?$AAT?$AAu?$AAe@ 100222a0     libucrt:nlsdata.obj
 0002:000032a8       ??_C@_17CJEDCEPE@?$AAW?$AAe?$AAd@ 100222a8     libucrt:nlsdata.obj
 0002:000032b0       ??_C@_17PDPHAADD@?$AAT?$AAh?$AAu@ 100222b0     libucrt:nlsdata.obj
 0002:000032b8       ??_C@_17HFOLPPLP@?$AAF?$AAr?$AAi@ 100222b8     libucrt:nlsdata.obj
 0002:000032c0       ??_C@_17GGIBDPIH@?$AAS?$AAa?$AAt@ 100222c0     libucrt:nlsdata.obj
 0002:000032c8       ??_C@_1O@IHNHDHPB@?$AAS?$AAu?$AAn?$AAd?$AAa?$AAy@ 100222c8     libucrt:nlsdata.obj
 0002:000032d8       ??_C@_1O@MMNBFLIA@?$AAM?$AAo?$AAn?$AAd?$AAa?$AAy@ 100222d8     libucrt:nlsdata.obj
 0002:000032e8       ??_C@_1BA@ENFBFFEK@?$AAT?$AAu?$AAe?$AAs?$AAd?$AAa?$AAy@ 100222e8     libucrt:nlsdata.obj
 0002:000032f8       ??_C@_1BE@EBOGMDOH@?$AAW?$AAe?$AAd?$AAn?$AAe?$AAs?$AAd?$AAa?$AAy@ 100222f8     libucrt:nlsdata.obj
 0002:0000330c       ??_C@_1BC@HHMNLIHE@?$AAT?$AAh?$AAu?$AAr?$AAs?$AAd?$AAa?$AAy@ 1002230c     libucrt:nlsdata.obj
 0002:00003320       ??_C@_1O@PDICJHAG@?$AAF?$AAr?$AAi?$AAd?$AAa?$AAy@ 10022320     libucrt:nlsdata.obj
 0002:00003330       ??_C@_1BC@ENMNNPAJ@?$AAS?$AAa?$AAt?$AAu?$AAr?$AAd?$AAa?$AAy@ 10022330     libucrt:nlsdata.obj
 0002:00003344       ??_C@_17DKNBKCHM@?$AAJ?$AAa?$AAn@ 10022344     libucrt:nlsdata.obj
 0002:0000334c       ??_C@_17LMDJEKJN@?$AAF?$AAe?$AAb@ 1002234c     libucrt:nlsdata.obj
 0002:00003354       ??_C@_17CKNLEDEC@?$AAM?$AAa?$AAr@ 10022354     libucrt:nlsdata.obj
 0002:0000335c       ??_C@_17LFPOIHDD@?$AAA?$AAp?$AAr@ 1002235c     libucrt:nlsdata.obj
 0002:00003364       ??_C@_17PNNKMEED@?$AAM?$AAa?$AAy@ 10022364     libucrt:nlsdata.obj
 0002:0000336c       ??_C@_17KCJGOCPB@?$AAJ?$AAu?$AAn@ 1002236c     libucrt:nlsdata.obj
 0002:00003374       ??_C@_17IJPCKHK@?$AAJ?$AAu?$AAl@ 10022374     libucrt:nlsdata.obj
 0002:0000337c       ??_C@_17ICPELBCN@?$AAA?$AAu?$AAg@ 1002237c     libucrt:nlsdata.obj
 0002:00003384       ??_C@_17HCHCOKMG@?$AAS?$AAe?$AAp@ 10022384     libucrt:nlsdata.obj
 0002:0000338c       ??_C@_17FNLKOI@?$AAO?$AAc?$AAt@ 1002238c     libucrt:nlsdata.obj
 0002:00003394       ??_C@_17BBDMLCIG@?$AAN?$AAo?$AAv@ 10022394     libucrt:nlsdata.obj
 0002:0000339c       ??_C@_17EGKACKIF@?$AAD?$AAe?$AAc@ 1002239c     libucrt:nlsdata.obj
 0002:000033a4       ??_C@_1BA@EFMEIEBA@?$AAJ?$AAa?$AAn?$AAu?$AAa?$AAr?$AAy@ 100223a4     libucrt:nlsdata.obj
 0002:000033b4       ??_C@_1BC@JGDDFFAM@?$AAF?$AAe?$AAb?$AAr?$AAu?$AAa?$AAr?$AAy@ 100223b4     libucrt:nlsdata.obj
 0002:000033c8       ??_C@_1M@IKEENEDF@?$AAM?$AAa?$AAr?$AAc?$AAh@ 100223c8     libucrt:nlsdata.obj
 0002:000033d4       ??_C@_1M@GJNLMHFD@?$AAA?$AAp?$AAr?$AAi?$AAl@ 100223d4     libucrt:nlsdata.obj
 0002:000033e0       ??_C@_19EPFLPGAP@?$AAJ?$AAu?$AAn?$AAe@ 100223e0     libucrt:nlsdata.obj
 0002:000033ec       ??_C@_19BIFMLPCD@?$AAJ?$AAu?$AAl?$AAy@ 100223ec     libucrt:nlsdata.obj
 0002:000033f8       ??_C@_1O@PAHLKOAC@?$AAA?$AAu?$AAg?$AAu?$AAs?$AAt@ 100223f8     libucrt:nlsdata.obj
 0002:00003408       ??_C@_1BE@DKAAMBJL@?$AAS?$AAe?$AAp?$AAt?$AAe?$AAm?$AAb?$AAe?$AAr@ 10022408     libucrt:nlsdata.obj
 0002:0000341c       ??_C@_1BA@EPANDLNG@?$AAO?$AAc?$AAt?$AAo?$AAb?$AAe?$AAr@ 1002241c     libucrt:nlsdata.obj
 0002:0000342c       ??_C@_1BC@BGLIFPF@?$AAN?$AAo?$AAv?$AAe?$AAm?$AAb?$AAe?$AAr@ 1002242c     libucrt:nlsdata.obj
 0002:00003440       ??_C@_1BC@FEMKIFH@?$AAD?$AAe?$AAc?$AAe?$AAm?$AAb?$AAe?$AAr@ 10022440     libucrt:nlsdata.obj
 0002:00003454       ??_C@_15ODEHAHHF@?$AAA?$AAM@ 10022454     libucrt:nlsdata.obj
 0002:0000345c       ??_C@_15CLMNNGEL@?$AAP?$AAM@ 1002245c     libucrt:nlsdata.obj
 0002:00003464       ??_C@_1BC@IEBCMHCM@?$AAM?$AAM?$AA?1?$AAd?$AAd?$AA?1?$AAy?$AAy@ 10022464     libucrt:nlsdata.obj
 0002:00003478       ??_C@_1CI@KNAKOEBC@?$AAd?$AAd?$AAd?$AAd?$AA?0?$AA?5?$AAM?$AAM?$AAM?$AAM?$AA?5?$AAd?$AAd?$AA?0?$AA?5@ 10022478     libucrt:nlsdata.obj
 0002:000034a0       ??_C@_1BC@GDGBMEMK@?$AAH?$AAH?$AA?3?$AAm?$AAm?$AA?3?$AAs?$AAs@ 100224a0     libucrt:nlsdata.obj
 0002:000034b4       ??_C@_1M@BMHNFIME@?$AAe?$AAn?$AA?9?$AAU?$AAS@ 100224b4     libucrt:nlsdata.obj
 0002:000034d0       ??_C@_1M@HPNHIDJI@?$AAj?$AAa?$AA?9?$AAJ?$AAP@ 100224d0     libucrt:mbctype.obj
 0002:000034dc       ??_C@_1M@BIBDDEMK@?$AAz?$AAh?$AA?9?$AAC?$AAN@ 100224dc     libucrt:mbctype.obj
 0002:000034e8       ??_C@_1M@JLOOOEGK@?$AAk?$AAo?$AA?9?$AAK?$AAR@ 100224e8     libucrt:mbctype.obj
 0002:000034f4       ??_C@_1M@CLNBBOPM@?$AAz?$AAh?$AA?9?$AAT?$AAW@ 100224f4     libucrt:mbctype.obj
 0002:00003500       ___newctype                10022500     libucrt:ctype.obj
 0002:00003800       ___newclmap                10022800     libucrt:ctype.obj
 0002:00003980       ___newcumap                10022980     libucrt:ctype.obj
 0002:00003b00       __wctype                   10022b00     libucrt:ctype.obj
 0002:00004428       ??_C@_15EMKDOKLE@?$AAa?$AAr@ 10023428     libucrt:lcidtoname_downlevel.obj
 0002:00004430       ??_C@_15KNPADPLH@?$AAb?$AAg@ 10023430     libucrt:lcidtoname_downlevel.obj
 0002:00004438       ??_C@_15EDMHLDMO@?$AAc?$AAa@ 10023438     libucrt:lcidtoname_downlevel.obj
 0002:00004440       ??_C@_1O@BPEAJADD@?$AAz?$AAh?$AA?9?$AAC?$AAH?$AAS@ 10023440     libucrt:lcidtoname_downlevel.obj
 0002:00004450       ??_C@_15LJNHCMNK@?$AAc?$AAs@ 10023450     libucrt:lcidtoname_downlevel.obj
 0002:00004458       ??_C@_15FOMCIDHG@?$AAd?$AAa@ 10023458     libucrt:lcidtoname_downlevel.obj
 0002:00004460       ??_C@_15NBKABECB@?$AAd?$AAe@ 10023460     libucrt:lcidtoname_downlevel.obj
 0002:00004468       ??_C@_15GHPEIIAO@?$AAe?$AAl@ 10023468     libucrt:lcidtoname_downlevel.obj
 0002:00004470       ??_C@_15MNPNEAIF@?$AAe?$AAn@ 10023470     libucrt:lcidtoname_downlevel.obj
 0002:00004478       ??_C@_15GPIOMPMH@?$AAe?$AAs@ 10023478     libucrt:lcidtoname_downlevel.obj
 0002:00004480       ??_C@_15NGLOAKJC@?$AAf?$AAi@ 10023480     libucrt:lcidtoname_downlevel.obj
 0002:00004488       ??_C@_15FBKGNKAM@?$AAf?$AAr@ 10023488     libucrt:lcidtoname_downlevel.obj
 0002:00004490       ??_C@_15KGGCNEFK@?$AAh?$AAe@ 10023490     libucrt:lcidtoname_downlevel.obj
 0002:00004498       ??_C@_15PGHLIDMF@?$AAh?$AAu@ 10023498     libucrt:lcidtoname_downlevel.obj
 0002:000044a0       ??_C@_15BIEMAPLM@?$AAi?$AAs@ 100234a0     libucrt:lcidtoname_downlevel.obj
 0002:000044a8       ??_C@_15IFJLDHAF@?$AAi?$AAt@ 100234a8     libucrt:lcidtoname_downlevel.obj
 0002:000044b0       ??_C@_15GEMIOCAG@?$AAj?$AAa@ 100234b0     libucrt:lcidtoname_downlevel.obj
 0002:000044b8       ??_C@_15EPELEGJA@?$AAk?$AAo@ 100234b8     libucrt:lcidtoname_downlevel.obj
 0002:000044c0       ??_C@_15NDDHIMN@?$AAn?$AAl@ 100234c0     libucrt:lcidtoname_downlevel.obj
 0002:000044c8       ??_C@_15BPIGNHCD@?$AAn?$AAo@ 100234c8     libucrt:lcidtoname_downlevel.obj
 0002:000044d0       ??_C@_15DEOPBLCG@?$AAp?$AAl@ 100234d0     libucrt:lcidtoname_downlevel.obj
 0002:000044d8       ??_C@_15KBECGEFG@?$AAp?$AAt@ 100234d8     libucrt:lcidtoname_downlevel.obj
 0002:000044e0       ??_C@_15GLJCBFMD@?$AAr?$AAo@ 100234e0     libucrt:lcidtoname_downlevel.obj
 0002:000044e8       ??_C@_15FEDGKCDI@?$AAr?$AAu@ 100234e8     libucrt:lcidtoname_downlevel.obj
 0002:000044f0       ??_C@_15GLKMLLHM@?$AAh?$AAr@ 100234f0     libucrt:lcidtoname_downlevel.obj
 0002:000044f8       ??_C@_15CPKMFBDB@?$AAs?$AAk@ 100234f8     libucrt:lcidtoname_downlevel.obj
 0002:00004500       ??_C@_15BAAIOGMK@?$AAs?$AAq@ 10023500     libucrt:lcidtoname_downlevel.obj
 0002:00004508       ??_C@_15INNPNOHD@?$AAs?$AAv@ 10023508     libucrt:lcidtoname_downlevel.obj
 0002:00004510       ??_C@_15CABMMOGH@?$AAt?$AAh@ 10023510     libucrt:lcidtoname_downlevel.obj
 0002:00004518       ??_C@_15BPLIHJJM@?$AAt?$AAr@ 10023518     libucrt:lcidtoname_downlevel.obj
 0002:00004520       ??_C@_15NEOEKKDJ@?$AAu?$AAr@ 10023520     libucrt:lcidtoname_downlevel.obj
 0002:00004528       ??_C@_15NFICGAJK@?$AAi?$AAd@ 10023528     libucrt:lcidtoname_downlevel.obj
 0002:00004530       ??_C@_15PJPFLCCM@?$AAu?$AAk@ 10023530     libucrt:lcidtoname_downlevel.obj
 0002:00004538       ??_C@_15HPJPHDM@?$AAb?$AAe@ 10023538     libucrt:lcidtoname_downlevel.obj
 0002:00004540       ??_C@_15LCHLGJII@?$AAs?$AAl@ 10023540     libucrt:lcidtoname_downlevel.obj
 0002:00004548       ??_C@_15PCFJPHHO@?$AAe?$AAt@ 10023548     libucrt:lcidtoname_downlevel.obj
 0002:00004550       ??_C@_15HPFPGODN@?$AAl?$AAv@ 10023550     libucrt:lcidtoname_downlevel.obj
 0002:00004558       ??_C@_15NFFGKGLG@?$AAl?$AAt@ 10023558     libucrt:lcidtoname_downlevel.obj
 0002:00004560       ??_C@_15BDAKCCHN@?$AAf?$AAa@ 10023560     libucrt:lcidtoname_downlevel.obj
 0002:00004568       ??_C@_15NFGIAIAJ@?$AAv?$AAi@ 10023568     libucrt:lcidtoname_downlevel.obj
 0002:00004570       ??_C@_15LMKNDMHN@?$AAh?$AAy@ 10023570     libucrt:lcidtoname_downlevel.obj
 0002:00004578       ??_C@_15IJBHMCFL@?$AAa?$AAz@ 10023578     libucrt:lcidtoname_downlevel.obj
 0002:00004580       ??_C@_15EKOFJABL@?$AAe?$AAu@ 10023580     libucrt:lcidtoname_downlevel.obj
 0002:00004588       ??_C@_15BGHADCNK@?$AAm?$AAk@ 10023588     libucrt:lcidtoname_downlevel.obj
 0002:00004590       ??_C@_15JDNICKHM@?$AAa?$AAf@ 10023590     libucrt:lcidtoname_downlevel.obj
 0002:00004598       ??_C@_15KPJEDBKD@?$AAk?$AAa@ 10023598     libucrt:lcidtoname_downlevel.obj
 0002:000045a0       ??_C@_15PDNFFFEO@?$AAf?$AAo@ 100235a0     libucrt:lcidtoname_downlevel.obj
 0002:000045a8       ??_C@_15OMLEGLOC@?$AAh?$AAi@ 100235a8     libucrt:lcidtoname_downlevel.obj
 0002:000045b0       ??_C@_15IDNNENKK@?$AAm?$AAs@ 100235b0     libucrt:lcidtoname_downlevel.obj
 0002:000045b8       ??_C@_15MACJNBMH@?$AAk?$AAk@ 100235b8     libucrt:lcidtoname_downlevel.obj
 0002:000045c0       ??_C@_15DKDJEOND@?$AAk?$AAy@ 100235c0     libucrt:lcidtoname_downlevel.obj
 0002:000045c8       ??_C@_15DFGDLJBG@?$AAs?$AAw@ 100235c8     libucrt:lcidtoname_downlevel.obj
 0002:000045d0       ??_C@_15BBFAICNG@?$AAu?$AAz@ 100235d0     libucrt:lcidtoname_downlevel.obj
 0002:000045d8       ??_C@_15DKNDCGEA@?$AAt?$AAt@ 100235d8     libucrt:lcidtoname_downlevel.obj
 0002:000045e0       ??_C@_15MGIFMDPL@?$AAp?$AAa@ 100235e0     libucrt:lcidtoname_downlevel.obj
 0002:000045e8       ??_C@_15HCNDBBA@?$AAg?$AAu@ 100235e8     libucrt:lcidtoname_downlevel.obj
 0002:000045f0       ??_C@_15FNBEIBON@?$AAt?$AAa@ 100235f0     libucrt:lcidtoname_downlevel.obj
 0002:000045f8       ??_C@_15NCHGBGLK@?$AAt?$AAe@ 100235f8     libucrt:lcidtoname_downlevel.obj
 0002:00004600       ??_C@_15PHPHCBPF@?$AAk?$AAn@ 10023600     libucrt:lcidtoname_downlevel.obj
 0002:00004608       ??_C@_15DLGBCKMP@?$AAm?$AAr@ 10023608     libucrt:lcidtoname_downlevel.obj
 0002:00004610       ??_C@_15EABBLBFF@?$AAs?$AAa@ 10023610     libucrt:lcidtoname_downlevel.obj
 0002:00004618       ??_C@_15CBKOMCOI@?$AAm?$AAn@ 10023618     libucrt:lcidtoname_downlevel.obj
 0002:00004620       ??_C@_15CKDMCJAF@?$AAg?$AAl@ 10023620     libucrt:lcidtoname_downlevel.obj
 0002:00004628       ??_C@_17CNJFBPG@?$AAk?$AAo?$AAk@ 10023628     libucrt:lcidtoname_downlevel.obj
 0002:00004630       ??_C@_17FFBJICPL@?$AAs?$AAy?$AAr@ 10023630     libucrt:lcidtoname_downlevel.obj
 0002:00004638       ??_C@_17KPNDCPAF@?$AAd?$AAi?$AAv@ 10023638     libucrt:lcidtoname_downlevel.obj
 0002:00004640       ??_C@_1M@OKAHONE@?$AAa?$AAr?$AA?9?$AAS?$AAA@ 10023640     libucrt:lcidtoname_downlevel.obj
 0002:0000464c       ??_C@_1M@FFFIGIGK@?$AAb?$AAg?$AA?9?$AAB?$AAG@ 1002364c     libucrt:lcidtoname_downlevel.obj
 0002:00004658       ??_C@_1M@BJNKEDC@?$AAc?$AAa?$AA?9?$AAE?$AAS@ 10023658     libucrt:lcidtoname_downlevel.obj
 0002:00004664       ??_C@_1M@IJJHFJHA@?$AAc?$AAs?$AA?9?$AAC?$AAZ@ 10023664     libucrt:lcidtoname_downlevel.obj
 0002:00004670       ??_C@_1M@CLPEOBGI@?$AAd?$AAa?$AA?9?$AAD?$AAK@ 10023670     libucrt:lcidtoname_downlevel.obj
 0002:0000467c       ??_C@_1M@MCMADGCB@?$AAd?$AAe?$AA?9?$AAD?$AAE@ 1002367c     libucrt:lcidtoname_downlevel.obj
 0002:00004688       ??_C@_1M@OOCKEMAM@?$AAe?$AAl?$AA?9?$AAG?$AAR@ 10023688     libucrt:lcidtoname_downlevel.obj
 0002:00004694       ??_C@_1M@DDNJFGID@?$AAf?$AAi?$AA?9?$AAF?$AAI@ 10023694     libucrt:lcidtoname_downlevel.obj
 0002:000046a0       ??_C@_1M@GLIPPMAC@?$AAf?$AAr?$AA?9?$AAF?$AAR@ 100236a0     libucrt:lcidtoname_downlevel.obj
 0002:000046ac       ??_C@_1M@GFMCHPE@?$AAh?$AAe?$AA?9?$AAI?$AAL@ 100236ac     libucrt:lcidtoname_downlevel.obj
 0002:000046b8       ??_C@_1M@MHLPGNKM@?$AAh?$AAu?$AA?9?$AAH?$AAU@ 100236b8     libucrt:lcidtoname_downlevel.obj
 0002:000046c4       ??_C@_1M@LPDDNNPN@?$AAi?$AAs?$AA?9?$AAI?$AAS@ 100236c4     libucrt:lcidtoname_downlevel.obj
 0002:000046d0       ??_C@_1M@MADIPODN@?$AAi?$AAt?$AA?9?$AAI?$AAT@ 100236d0     libucrt:lcidtoname_downlevel.obj
 0002:000046dc       ??_C@_1M@IHBJJGG@?$AAn?$AAl?$AA?9?$AAN?$AAL@ 100236dc     libucrt:lcidtoname_downlevel.obj
 0002:000046e8       ??_C@_1M@EANAGDL@?$AAn?$AAb?$AA?9?$AAN?$AAO@ 100236e8     libucrt:lcidtoname_downlevel.obj
 0002:000046f4       ??_C@_1M@NEIEMEGP@?$AAp?$AAl?$AA?9?$AAP?$AAL@ 100236f4     libucrt:lcidtoname_downlevel.obj
 0002:00004700       ??_C@_1M@BOCFIGEP@?$AAp?$AAt?$AA?9?$AAB?$AAR@ 10023700     libucrt:lcidtoname_downlevel.obj
 0002:0000470c       ??_C@_1M@IMPFOPBG@?$AAr?$AAo?$AA?9?$AAR?$AAO@ 1002370c     libucrt:lcidtoname_downlevel.obj
 0002:00004718       ??_C@_1M@IDNNEJMM@?$AAr?$AAu?$AA?9?$AAR?$AAU@ 10023718     libucrt:lcidtoname_downlevel.obj
 0002:00004724       ??_C@_1M@LILEEOGM@?$AAh?$AAr?$AA?9?$AAH?$AAR@ 10023724     libucrt:lcidtoname_downlevel.obj
 0002:00004730       ??_C@_1M@FKIFEHPB@?$AAs?$AAk?$AA?9?$AAS?$AAK@ 10023730     libucrt:lcidtoname_downlevel.obj
 0002:0000473c       ??_C@_1M@LJMAMNPJ@?$AAs?$AAq?$AA?9?$AAA?$AAL@ 1002373c     libucrt:lcidtoname_downlevel.obj
 0002:00004748       ??_C@_1M@GIAKDKJK@?$AAs?$AAv?$AA?9?$AAS?$AAE@ 10023748     libucrt:lcidtoname_downlevel.obj
 0002:00004754       ??_C@_1M@MKJKIKCL@?$AAt?$AAh?$AA?9?$AAT?$AAH@ 10023754     libucrt:lcidtoname_downlevel.obj
 0002:00004760       ??_C@_1M@MFLCCMPB@?$AAt?$AAr?$AA?9?$AAT?$AAR@ 10023760     libucrt:lcidtoname_downlevel.obj
 0002:0000476c       ??_C@_1M@OIJHDKJN@?$AAu?$AAr?$AA?9?$AAP?$AAK@ 1002376c     libucrt:lcidtoname_downlevel.obj
 0002:00004778       ??_C@_1M@LHIPCIEK@?$AAi?$AAd?$AA?9?$AAI?$AAD@ 10023778     libucrt:lcidtoname_downlevel.obj
 0002:00004784       ??_C@_1M@MFMOBGI@?$AAu?$AAk?$AA?9?$AAU?$AAA@ 10023784     libucrt:lcidtoname_downlevel.obj
 0002:00004790       ??_C@_1M@OBGLJIPL@?$AAb?$AAe?$AA?9?$AAB?$AAY@ 10023790     libucrt:lcidtoname_downlevel.obj
 0002:0000479c       ??_C@_1M@BCFAJEAD@?$AAs?$AAl?$AA?9?$AAS?$AAI@ 1002379c     libucrt:lcidtoname_downlevel.obj
 0002:000047a8       ??_C@_1M@FKFFEDDN@?$AAe?$AAt?$AA?9?$AAE?$AAE@ 100237a8     libucrt:lcidtoname_downlevel.obj
 0002:000047b4       ??_C@_1M@KGKKAACI@?$AAl?$AAv?$AA?9?$AAL?$AAV@ 100237b4     libucrt:lcidtoname_downlevel.obj
 0002:000047c0       ??_C@_1M@IFGBIJO@?$AAl?$AAt?$AA?9?$AAL?$AAT@ 100237c0     libucrt:lcidtoname_downlevel.obj
 0002:000047cc       ??_C@_1M@FGEAHEDM@?$AAf?$AAa?$AA?9?$AAI?$AAR@ 100237cc     libucrt:lcidtoname_downlevel.obj
 0002:000047d8       ??_C@_1M@KBMAIBFN@?$AAv?$AAi?$AA?9?$AAV?$AAN@ 100237d8     libucrt:lcidtoname_downlevel.obj
 0002:000047e4       ??_C@_1M@GPCBKDJK@?$AAh?$AAy?$AA?9?$AAA?$AAM@ 100237e4     libucrt:lcidtoname_downlevel.obj
 0002:000047f0       ??_C@_1BG@BECMDDJB@?$AAa?$AAz?$AA?9?$AAA?$AAZ?$AA?9?$AAL?$AAa?$AAt?$AAn@ 100237f0     libucrt:lcidtoname_downlevel.obj
 0002:00004808       ??_C@_1M@MAOFCAEA@?$AAe?$AAu?$AA?9?$AAE?$AAS@ 10023808     libucrt:lcidtoname_downlevel.obj
 0002:00004814       ??_C@_1M@IGHABKPI@?$AAm?$AAk?$AA?9?$AAM?$AAK@ 10023814     libucrt:lcidtoname_downlevel.obj
 0002:00004820       ??_C@_1M@IAIGNEJG@?$AAt?$AAn?$AA?9?$AAZ?$AAA@ 10023820     libucrt:lcidtoname_downlevel.obj
 0002:0000482c       ??_C@_1M@IIJCOJFA@?$AAx?$AAh?$AA?9?$AAZ?$AAA@ 1002382c     libucrt:lcidtoname_downlevel.obj
 0002:00004838       ??_C@_1M@LGPJHNJH@?$AAz?$AAu?$AA?9?$AAZ?$AAA@ 10023838     libucrt:lcidtoname_downlevel.obj
 0002:00004844       ??_C@_1M@HOKAOIO@?$AAa?$AAf?$AA?9?$AAZ?$AAA@ 10023844     libucrt:lcidtoname_downlevel.obj
 0002:00004850       ??_C@_1M@DPCLHLIE@?$AAk?$AAa?$AA?9?$AAG?$AAE@ 10023850     libucrt:lcidtoname_downlevel.obj
 0002:0000485c       ??_C@_1M@BLKMHJBI@?$AAf?$AAo?$AA?9?$AAF?$AAO@ 1002385c     libucrt:lcidtoname_downlevel.obj
 0002:00004868       ??_C@_1M@LGGJAPPB@?$AAh?$AAi?$AA?9?$AAI?$AAN@ 10023868     libucrt:lcidtoname_downlevel.obj
 0002:00004874       ??_C@_1M@FIKPIHFE@?$AAm?$AAt?$AA?9?$AAM?$AAT@ 10023874     libucrt:lcidtoname_downlevel.obj
 0002:00004880       ??_C@_1M@HEGGPBFA@?$AAs?$AAe?$AA?9?$AAN?$AAO@ 10023880     libucrt:lcidtoname_downlevel.obj
 0002:0000488c       ??_C@_1M@EIBJEEPA@?$AAm?$AAs?$AA?9?$AAM?$AAY@ 1002388c     libucrt:lcidtoname_downlevel.obj
 0002:00004898       ??_C@_1M@FHLBGMPP@?$AAk?$AAk?$AA?9?$AAK?$AAZ@ 10023898     libucrt:lcidtoname_downlevel.obj
 0002:000048a4       ??_C@_1M@NGJJLCGI@?$AAk?$AAy?$AA?9?$AAK?$AAG@ 100238a4     libucrt:lcidtoname_downlevel.obj
 0002:000048b0       ??_C@_1M@GIENNBFC@?$AAs?$AAw?$AA?9?$AAK?$AAE@ 100238b0     libucrt:lcidtoname_downlevel.obj
 0002:000048bc       ??_C@_1BG@NDGMJIMJ@?$AAu?$AAz?$AA?9?$AAU?$AAZ?$AA?9?$AAL?$AAa?$AAt?$AAn@ 100238bc     libucrt:lcidtoname_downlevel.obj
 0002:000048d4       ??_C@_1M@IDCCIHBC@?$AAt?$AAt?$AA?9?$AAR?$AAU@ 100238d4     libucrt:lcidtoname_downlevel.obj
 0002:000048e0       ??_C@_1M@LOICPMOJ@?$AAb?$AAn?$AA?9?$AAI?$AAN@ 100238e0     libucrt:lcidtoname_downlevel.obj
 0002:000048ec       ??_C@_1M@KPKKNEAH@?$AAp?$AAa?$AA?9?$AAI?$AAN@ 100238ec     libucrt:lcidtoname_downlevel.obj
 0002:000048f8       ??_C@_1M@PJGPPBOG@?$AAg?$AAu?$AA?9?$AAI?$AAN@ 100238f8     libucrt:lcidtoname_downlevel.obj
 0002:00004904       ??_C@_1M@KMKMOPHI@?$AAt?$AAa?$AA?9?$AAI?$AAN@ 10023904     libucrt:lcidtoname_downlevel.obj
 0002:00004910       ??_C@_1M@KFEHEPAC@?$AAt?$AAe?$AA?9?$AAI?$AAN@ 10023910     libucrt:lcidtoname_downlevel.obj
 0002:0000491c       ??_C@_1M@CDCLMGHI@?$AAk?$AAn?$AA?9?$AAI?$AAN@ 1002391c     libucrt:lcidtoname_downlevel.obj
 0002:00004928       ??_C@_1M@MIODLDKF@?$AAm?$AAl?$AA?9?$AAI?$AAN@ 10023928     libucrt:lcidtoname_downlevel.obj
 0002:00004934       ??_C@_1M@PBIEACPO@?$AAm?$AAr?$AA?9?$AAI?$AAN@ 10023934     libucrt:lcidtoname_downlevel.obj
 0002:00004940       ??_C@_1M@NIDEAGPH@?$AAs?$AAa?$AA?9?$AAI?$AAN@ 10023940     libucrt:lcidtoname_downlevel.obj
 0002:0000494c       ??_C@_1M@FHIHCBIO@?$AAm?$AAn?$AA?9?$AAM?$AAN@ 1002394c     libucrt:lcidtoname_downlevel.obj
 0002:00004958       ??_C@_1M@JAIJPENP@?$AAc?$AAy?$AA?9?$AAG?$AAB@ 10023958     libucrt:lcidtoname_downlevel.obj
 0002:00004964       ??_C@_1M@PHGFBEPN@?$AAg?$AAl?$AA?9?$AAE?$AAS@ 10023964     libucrt:lcidtoname_downlevel.obj
 0002:00004970       ??_C@_1O@KPIPDNCP@?$AAk?$AAo?$AAk?$AA?9?$AAI?$AAN@ 10023970     libucrt:lcidtoname_downlevel.obj
 0002:00004980       ??_C@_1O@KNHJLDJA@?$AAs?$AAy?$AAr?$AA?9?$AAS?$AAY@ 10023980     libucrt:lcidtoname_downlevel.obj
 0002:00004990       ??_C@_1O@MKEKBLAH@?$AAd?$AAi?$AAv?$AA?9?$AAM?$AAV@ 10023990     libucrt:lcidtoname_downlevel.obj
 0002:000049a0       ??_C@_1O@OHDCKDDF@?$AAq?$AAu?$AAz?$AA?9?$AAB?$AAO@ 100239a0     libucrt:lcidtoname_downlevel.obj
 0002:000049b0       ??_C@_1M@LEPJNLFD@?$AAn?$AAs?$AA?9?$AAZ?$AAA@ 100239b0     libucrt:lcidtoname_downlevel.obj
 0002:000049bc       ??_C@_1M@OMLEIIJB@?$AAm?$AAi?$AA?9?$AAN?$AAZ@ 100239bc     libucrt:lcidtoname_downlevel.obj
 0002:000049c8       ??_C@_1M@PMPEAILG@?$AAa?$AAr?$AA?9?$AAI?$AAQ@ 100239c8     libucrt:lcidtoname_downlevel.obj
 0002:000049d4       ??_C@_1M@CNKPNOEE@?$AAd?$AAe?$AA?9?$AAC?$AAH@ 100239d4     libucrt:lcidtoname_downlevel.obj
 0002:000049e0       ??_C@_1M@LKMGMLKO@?$AAe?$AAn?$AA?9?$AAG?$AAB@ 100239e0     libucrt:lcidtoname_downlevel.obj
 0002:000049ec       ??_C@_1M@PGKJFFGL@?$AAe?$AAs?$AA?9?$AAM?$AAX@ 100239ec     libucrt:lcidtoname_downlevel.obj
 0002:000049f8       ??_C@_1M@DNNANBDC@?$AAf?$AAr?$AA?9?$AAB?$AAE@ 100239f8     libucrt:lcidtoname_downlevel.obj
 0002:00004a04       ??_C@_1M@HLGMDFHM@?$AAi?$AAt?$AA?9?$AAC?$AAH@ 10023a04     libucrt:lcidtoname_downlevel.obj
 0002:00004a10       ??_C@_1M@CLLBGJH@?$AAn?$AAl?$AA?9?$AAB?$AAE@ 10023a10     libucrt:lcidtoname_downlevel.obj
 0002:00004a1c       ??_C@_1M@BODBOGLF@?$AAn?$AAn?$AA?9?$AAN?$AAO@ 10023a1c     libucrt:lcidtoname_downlevel.obj
 0002:00004a28       ??_C@_1M@HFFAHKAD@?$AAp?$AAt?$AA?9?$AAP?$AAT@ 10023a28     libucrt:lcidtoname_downlevel.obj
 0002:00004a34       ??_C@_1BG@LNOAKHIE@?$AAs?$AAr?$AA?9?$AAS?$AAP?$AA?9?$AAL?$AAa?$AAt?$AAn@ 10023a34     libucrt:lcidtoname_downlevel.obj
 0002:00004a4c       ??_C@_1M@HBMHBGAK@?$AAs?$AAv?$AA?9?$AAF?$AAI@ 10023a4c     libucrt:lcidtoname_downlevel.obj
 0002:00004a58       ??_C@_1BG@DGCJGJBE@?$AAa?$AAz?$AA?9?$AAA?$AAZ?$AA?9?$AAC?$AAy?$AAr?$AAl@ 10023a58     libucrt:lcidtoname_downlevel.obj
 0002:00004a70       ??_C@_1M@KEJDAAHB@?$AAs?$AAe?$AA?9?$AAS?$AAE@ 10023a70     libucrt:lcidtoname_downlevel.obj
 0002:00004a7c       ??_C@_1M@HEIBJJAD@?$AAm?$AAs?$AA?9?$AAB?$AAN@ 10023a7c     libucrt:lcidtoname_downlevel.obj
 0002:00004a88       ??_C@_1BG@PBGJMCEM@?$AAu?$AAz?$AA?9?$AAU?$AAZ?$AA?9?$AAC?$AAy?$AAr?$AAl@ 10023a88     libucrt:lcidtoname_downlevel.obj
 0002:00004aa0       ??_C@_1O@LAOBCMDF@?$AAq?$AAu?$AAz?$AA?9?$AAE?$AAC@ 10023aa0     libucrt:lcidtoname_downlevel.obj
 0002:00004ab0       ??_C@_1M@POEEMAIO@?$AAa?$AAr?$AA?9?$AAE?$AAG@ 10023ab0     libucrt:lcidtoname_downlevel.obj
 0002:00004abc       ??_C@_1M@EFAKDEDL@?$AAz?$AAh?$AA?9?$AAH?$AAK@ 10023abc     libucrt:lcidtoname_downlevel.obj
 0002:00004ac8       ??_C@_1M@HKKIJHGI@?$AAd?$AAe?$AA?9?$AAA?$AAT@ 10023ac8     libucrt:lcidtoname_downlevel.obj
 0002:00004ad4       ??_C@_1M@KBFBEHJF@?$AAe?$AAn?$AA?9?$AAA?$AAU@ 10023ad4     libucrt:lcidtoname_downlevel.obj
 0002:00004ae0       ??_C@_1M@MNPLFAAH@?$AAe?$AAs?$AA?9?$AAE?$AAS@ 10023ae0     libucrt:lcidtoname_downlevel.obj
 0002:00004aec       ??_C@_1M@HJOOJFMA@?$AAf?$AAr?$AA?9?$AAC?$AAA@ 10023aec     libucrt:lcidtoname_downlevel.obj
 0002:00004af8       ??_C@_1BG@JPOFPNAB@?$AAs?$AAr?$AA?9?$AAS?$AAP?$AA?9?$AAC?$AAy?$AAr?$AAl@ 10023af8     libucrt:lcidtoname_downlevel.obj
 0002:00004b10       ??_C@_1M@LNFOCMOB@?$AAs?$AAe?$AA?9?$AAF?$AAI@ 10023b10     libucrt:lcidtoname_downlevel.obj
 0002:00004b1c       ??_C@_1O@MGJBOAMB@?$AAq?$AAu?$AAz?$AA?9?$AAP?$AAE@ 10023b1c     libucrt:lcidtoname_downlevel.obj
 0002:00004b2c       ??_C@_1M@GJINLBOK@?$AAa?$AAr?$AA?9?$AAL?$AAY@ 10023b2c     libucrt:lcidtoname_downlevel.obj
 0002:00004b38       ??_C@_1M@GGMNHJNL@?$AAz?$AAh?$AA?9?$AAS?$AAG@ 10023b38     libucrt:lcidtoname_downlevel.obj
 0002:00004b44       ??_C@_1M@HOIKODND@?$AAd?$AAe?$AA?9?$AAL?$AAU@ 10023b44     libucrt:lcidtoname_downlevel.obj
 0002:00004b50       ??_C@_1M@DDOCCGFG@?$AAe?$AAn?$AA?9?$AAC?$AAA@ 10023b50     libucrt:lcidtoname_downlevel.obj
 0002:00004b5c       ??_C@_1M@BNOEMJLF@?$AAe?$AAs?$AA?9?$AAG?$AAT@ 10023b5c     libucrt:lcidtoname_downlevel.obj
 0002:00004b68       ??_C@_1M@EOGNKEK@?$AAf?$AAr?$AA?9?$AAC?$AAH@ 10023b68     libucrt:lcidtoname_downlevel.obj
 0002:00004b74       ??_C@_1M@FLIDJFHL@?$AAh?$AAr?$AA?9?$AAB?$AAA@ 10023b74     libucrt:lcidtoname_downlevel.obj
 0002:00004b80       ??_C@_1O@FMCELNAJ@?$AAs?$AAm?$AAj?$AA?9?$AAN?$AAO@ 10023b80     libucrt:lcidtoname_downlevel.obj
 0002:00004b90       ??_C@_1M@JHGLJMGJ@?$AAa?$AAr?$AA?9?$AAD?$AAZ@ 10023b90     libucrt:lcidtoname_downlevel.obj
 0002:00004b9c       ??_C@_1M@JKKFDCNP@?$AAz?$AAh?$AA?9?$AAM?$AAO@ 10023b9c     libucrt:lcidtoname_downlevel.obj
 0002:00004ba8       ??_C@_1M@GEEFALPE@?$AAd?$AAe?$AA?9?$AAL?$AAI@ 10023ba8     libucrt:lcidtoname_downlevel.obj
 0002:00004bb4       ??_C@_1M@IGEOFBG@?$AAe?$AAn?$AA?9?$AAN?$AAZ@ 10023bb4     libucrt:lcidtoname_downlevel.obj
 0002:00004bc0       ??_C@_1M@KDBONEHP@?$AAe?$AAs?$AA?9?$AAC?$AAR@ 10023bc0     libucrt:lcidtoname_downlevel.obj
 0002:00004bcc       ??_C@_1M@FHMDOHNN@?$AAf?$AAr?$AA?9?$AAL?$AAU@ 10023bcc     libucrt:lcidtoname_downlevel.obj
 0002:00004bd8       ??_C@_1BG@NFKKMAFG@?$AAb?$AAs?$AA?9?$AAB?$AAA?$AA?9?$AAL?$AAa?$AAt?$AAn@ 10023bd8     libucrt:lcidtoname_downlevel.obj
 0002:00004bf0       ??_C@_1O@IMNBEMCI@?$AAs?$AAm?$AAj?$AA?9?$AAS?$AAE@ 10023bf0     libucrt:lcidtoname_downlevel.obj
 0002:00004c00       ??_C@_1M@DHHMBNDP@?$AAa?$AAr?$AA?9?$AAM?$AAA@ 10023c00     libucrt:lcidtoname_downlevel.obj
 0002:00004c0c       ??_C@_1M@BNBLJCGH@?$AAe?$AAn?$AA?9?$AAI?$AAE@ 10023c0c     libucrt:lcidtoname_downlevel.obj
 0002:00004c18       ??_C@_1M@GEPAFMDL@?$AAe?$AAs?$AA?9?$AAP?$AAA@ 10023c18     libucrt:lcidtoname_downlevel.obj
 0002:00004c24       ??_C@_1M@OJONDMDL@?$AAf?$AAr?$AA?9?$AAM?$AAC@ 10023c24     libucrt:lcidtoname_downlevel.obj
 0002:00004c30       ??_C@_1BG@OBCNFJB@?$AAs?$AAr?$AA?9?$AAB?$AAA?$AA?9?$AAL?$AAa?$AAt?$AAn@ 10023c30     libucrt:lcidtoname_downlevel.obj
 0002:00004c48       ??_C@_1O@KEMEEGPO@?$AAs?$AAm?$AAa?$AA?9?$AAN?$AAO@ 10023c48     libucrt:lcidtoname_downlevel.obj
 0002:00004c58       ??_C@_1M@ELMGFODK@?$AAa?$AAr?$AA?9?$AAT?$AAN@ 10023c58     libucrt:lcidtoname_downlevel.obj
 0002:00004c64       ??_C@_1M@BHDLHFAF@?$AAe?$AAn?$AA?9?$AAZ?$AAA@ 10023c64     libucrt:lcidtoname_downlevel.obj
 0002:00004c70       ??_C@_1M@BMGIGLIF@?$AAe?$AAs?$AA?9?$AAD?$AAO@ 10023c70     libucrt:lcidtoname_downlevel.obj
 0002:00004c7c       ??_C@_1BG@CMBHIPBE@?$AAs?$AAr?$AA?9?$AAB?$AAA?$AA?9?$AAC?$AAy?$AAr?$AAl@ 10023c7c     libucrt:lcidtoname_downlevel.obj
 0002:00004c94       ??_C@_1O@HEDBLHNP@?$AAs?$AAm?$AAa?$AA?9?$AAS?$AAE@ 10023c94     libucrt:lcidtoname_downlevel.obj
 0002:00004ca4       ??_C@_1M@DAGCADIM@?$AAa?$AAr?$AA?9?$AAO?$AAM@ 10023ca4     libucrt:lcidtoname_downlevel.obj
 0002:00004cb0       ??_C@_1M@FODLMICG@?$AAe?$AAn?$AA?9?$AAJ?$AAM@ 10023cb0     libucrt:lcidtoname_downlevel.obj
 0002:00004cbc       ??_C@_1M@DNMLCIHB@?$AAe?$AAs?$AA?9?$AAV?$AAE@ 10023cbc     libucrt:lcidtoname_downlevel.obj
 0002:00004cc8       ??_C@_1O@EOKHMKJK@?$AAs?$AAm?$AAs?$AA?9?$AAF?$AAI@ 10023cc8     libucrt:lcidtoname_downlevel.obj
 0002:00004cd8       ??_C@_1M@CAFJMKOF@?$AAa?$AAr?$AA?9?$AAY?$AAE@ 10023cd8     libucrt:lcidtoname_downlevel.obj
 0002:00004ce4       ??_C@_1M@CBFHIJLI@?$AAe?$AAn?$AA?9?$AAC?$AAB@ 10023ce4     libucrt:lcidtoname_downlevel.obj
 0002:00004cf0       ??_C@_1M@BGNFLDN@?$AAe?$AAs?$AA?9?$AAC?$AAO@ 10023cf0     libucrt:lcidtoname_downlevel.obj
 0002:00004cfc       ??_C@_1O@JMPHMAMC@?$AAs?$AAm?$AAn?$AA?9?$AAF?$AAI@ 10023cfc     libucrt:lcidtoname_downlevel.obj
 0002:00004d0c       ??_C@_1M@JLANABKE@?$AAa?$AAr?$AA?9?$AAS?$AAY@ 10023d0c     libucrt:lcidtoname_downlevel.obj
 0002:00004d18       ??_C@_1M@HPKGCFGN@?$AAe?$AAn?$AA?9?$AAB?$AAZ@ 10023d18     libucrt:lcidtoname_downlevel.obj
 0002:00004d24       ??_C@_1M@OLJCMLGM@?$AAe?$AAs?$AA?9?$AAP?$AAE@ 10023d24     libucrt:lcidtoname_downlevel.obj
 0002:00004d30       ??_C@_1M@MKKGFKLE@?$AAa?$AAr?$AA?9?$AAJ?$AAO@ 10023d30     libucrt:lcidtoname_downlevel.obj
 0002:00004d3c       ??_C@_1M@EKPGLDNI@?$AAe?$AAn?$AA?9?$AAT?$AAT@ 10023d3c     libucrt:lcidtoname_downlevel.obj
 0002:00004d48       ??_C@_1M@OONGHFHE@?$AAe?$AAs?$AA?9?$AAA?$AAR@ 10023d48     libucrt:lcidtoname_downlevel.obj
 0002:00004d54       ??_C@_1M@OOJFGBHE@?$AAa?$AAr?$AA?9?$AAL?$AAB@ 10023d54     libucrt:lcidtoname_downlevel.obj
 0002:00004d60       ??_C@_1M@GCEJHNEG@?$AAe?$AAn?$AA?9?$AAZ?$AAW@ 10023d60     libucrt:lcidtoname_downlevel.obj
 0002:00004d6c       ??_C@_1M@JNOCAHJI@?$AAe?$AAs?$AA?9?$AAE?$AAC@ 10023d6c     libucrt:lcidtoname_downlevel.obj
 0002:00004d78       ??_C@_1M@JEFHPGGB@?$AAa?$AAr?$AA?9?$AAK?$AAW@ 10023d78     libucrt:lcidtoname_downlevel.obj
 0002:00004d84       ??_C@_1M@MLKIBJOJ@?$AAe?$AAn?$AA?9?$AAP?$AAH@ 10023d84     libucrt:lcidtoname_downlevel.obj
 0002:00004d90       ??_C@_1M@BDNIPEND@?$AAe?$AAs?$AA?9?$AAC?$AAL@ 10023d90     libucrt:lcidtoname_downlevel.obj
 0002:00004d9c       ??_C@_1M@MPNMEKBD@?$AAa?$AAr?$AA?9?$AAA?$AAE@ 10023d9c     libucrt:lcidtoname_downlevel.obj
 0002:00004da8       ??_C@_1M@KBJALCPI@?$AAe?$AAs?$AA?9?$AAU?$AAY@ 10023da8     libucrt:lcidtoname_downlevel.obj
 0002:00004db4       ??_C@_1M@LLCCOAGA@?$AAa?$AAr?$AA?9?$AAB?$AAH@ 10023db4     libucrt:lcidtoname_downlevel.obj
 0002:00004dc0       ??_C@_1M@PBFNCDEL@?$AAe?$AAs?$AA?9?$AAP?$AAY@ 10023dc0     libucrt:lcidtoname_downlevel.obj
 0002:00004dcc       ??_C@_1M@EDGINPNP@?$AAa?$AAr?$AA?9?$AAQ?$AAA@ 10023dcc     libucrt:lcidtoname_downlevel.obj
 0002:00004dd8       ??_C@_1M@MKDBIIJI@?$AAe?$AAs?$AA?9?$AAB?$AAO@ 10023dd8     libucrt:lcidtoname_downlevel.obj
 0002:00004de4       ??_C@_1M@CPKKEBLD@?$AAe?$AAs?$AA?9?$AAS?$AAV@ 10023de4     libucrt:lcidtoname_downlevel.obj
 0002:00004df0       ??_C@_1M@NDBGMMJL@?$AAe?$AAs?$AA?9?$AAH?$AAN@ 10023df0     libucrt:lcidtoname_downlevel.obj
 0002:00004dfc       ??_C@_1M@JIJIBHDP@?$AAe?$AAs?$AA?9?$AAN?$AAI@ 10023dfc     libucrt:lcidtoname_downlevel.obj
 0002:00004e08       ??_C@_1M@CGFMKEEK@?$AAe?$AAs?$AA?9?$AAP?$AAR@ 10023e08     libucrt:lcidtoname_downlevel.obj
 0002:00004e14       ??_C@_1O@ICJHKIIK@?$AAz?$AAh?$AA?9?$AAC?$AAH?$AAT@ 10023e14     libucrt:lcidtoname_downlevel.obj
 0002:00004e24       ??_C@_15CLNEJCE@?$AAs?$AAr@ 10023e24     libucrt:lcidtoname_downlevel.obj
 0002:00005550       ??_C@_1M@KAHEKEIG@?$AAa?$AAf?$AA?9?$AAz?$AAa@ 10024550     libucrt:lcidtoname_downlevel.obj
 0002:0000555c       ??_C@_1M@GIECOABL@?$AAa?$AAr?$AA?9?$AAa?$AAe@ 1002455c     libucrt:lcidtoname_downlevel.obj
 0002:00005568       ??_C@_1M@BMLMEKGI@?$AAa?$AAr?$AA?9?$AAb?$AAh@ 10024568     libucrt:lcidtoname_downlevel.obj
 0002:00005574       ??_C@_1M@DAPFDGGB@?$AAa?$AAr?$AA?9?$AAd?$AAz@ 10024574     libucrt:lcidtoname_downlevel.obj
 0002:00005580       ??_C@_1M@FJNKGKIG@?$AAa?$AAr?$AA?9?$AAe?$AAg@ 10024580     libucrt:lcidtoname_downlevel.obj
 0002:0000558c       ??_C@_1M@FLGKKCLO@?$AAa?$AAr?$AA?9?$AAi?$AAq@ 1002458c     libucrt:lcidtoname_downlevel.obj
 0002:00005598       ??_C@_1M@GNDIPALM@?$AAa?$AAr?$AA?9?$AAj?$AAo@ 10024598     libucrt:lcidtoname_downlevel.obj
 0002:000055a4       ??_C@_1M@DDMJFMGJ@?$AAa?$AAr?$AA?9?$AAk?$AAw@ 100245a4     libucrt:lcidtoname_downlevel.obj
 0002:000055b0       ??_C@_1M@EJALMLHM@?$AAa?$AAr?$AA?9?$AAl?$AAb@ 100245b0     libucrt:lcidtoname_downlevel.obj
 0002:000055bc       ??_C@_1M@MOBDBLOC@?$AAa?$AAr?$AA?9?$AAl?$AAy@ 100245bc     libucrt:lcidtoname_downlevel.obj
 0002:000055c8       ??_C@_1M@JAOCLHDH@?$AAa?$AAr?$AA?9?$AAm?$AAa@ 100245c8     libucrt:lcidtoname_downlevel.obj
 0002:000055d4       ??_C@_1M@JHPMKJIE@?$AAa?$AAr?$AA?9?$AAo?$AAm@ 100245d4     libucrt:lcidtoname_downlevel.obj
 0002:000055e0       ??_C@_1M@OEPGHFNH@?$AAa?$AAr?$AA?9?$AAq?$AAa@ 100245e0     libucrt:lcidtoname_downlevel.obj
 0002:000055ec       ??_C@_1M@KJDONENM@?$AAa?$AAr?$AA?9?$AAs?$AAa@ 100245ec     libucrt:lcidtoname_downlevel.obj
 0002:000055f8       ??_C@_1M@DMJDKLKM@?$AAa?$AAr?$AA?9?$AAs?$AAy@ 100245f8     libucrt:lcidtoname_downlevel.obj
 0002:00005604       ??_C@_1M@OMFIPEDC@?$AAa?$AAr?$AA?9?$AAt?$AAn@ 10024604     libucrt:lcidtoname_downlevel.obj
 0002:00005610       ??_C@_1M@IHMHGAON@?$AAa?$AAr?$AA?9?$AAy?$AAe@ 10024610     libucrt:lcidtoname_downlevel.obj
 0002:0000561c       ??_C@_1BG@KDCPGJGB@?$AAa?$AAz?$AA?9?$AAa?$AAz?$AA?9?$AAc?$AAy?$AAr?$AAl@ 1002461c     libucrt:lcidtoname_downlevel.obj
 0002:00005634       ??_C@_1BG@IBCKDDOE@?$AAa?$AAz?$AA?9?$AAa?$AAz?$AA?9?$AAl?$AAa?$AAt?$AAn@ 10024634     libucrt:lcidtoname_downlevel.obj
 0002:0000564c       ??_C@_1M@EGPFDCPD@?$AAb?$AAe?$AA?9?$AAb?$AAy@ 1002464c     libucrt:lcidtoname_downlevel.obj
 0002:00005658       ??_C@_1M@PCMGMCGC@?$AAb?$AAg?$AA?9?$AAb?$AAg@ 10024658     libucrt:lcidtoname_downlevel.obj
 0002:00005664       ??_C@_1M@BJBMFGOB@?$AAb?$AAn?$AA?9?$AAi?$AAn@ 10024664     libucrt:lcidtoname_downlevel.obj
 0002:00005670       ??_C@_1BG@EAKMMACD@?$AAb?$AAs?$AA?9?$AAb?$AAa?$AA?9?$AAl?$AAa?$AAt?$AAn@ 10024670     libucrt:lcidtoname_downlevel.obj
 0002:00005688       ??_C@_1M@KGADAODK@?$AAc?$AAa?$AA?9?$AAe?$AAs@ 10024688     libucrt:lcidtoname_downlevel.obj
 0002:00005694       ??_C@_1M@COAJPDHI@?$AAc?$AAs?$AA?9?$AAc?$AAz@ 10024694     libucrt:lcidtoname_downlevel.obj
 0002:000056a0       ??_C@_1M@DHBHFONH@?$AAc?$AAy?$AA?9?$AAg?$AAb@ 100246a0     libucrt:lcidtoname_downlevel.obj
 0002:000056ac       ??_C@_1M@IMGKELGA@?$AAd?$AAa?$AA?9?$AAd?$AAk@ 100246ac     libucrt:lcidtoname_downlevel.obj
 0002:000056b8       ??_C@_1M@NNDGDNGA@?$AAd?$AAe?$AA?9?$AAa?$AAt@ 100246b8     libucrt:lcidtoname_downlevel.obj
 0002:000056c4       ??_C@_1M@IKDBHEEM@?$AAd?$AAe?$AA?9?$AAc?$AAh@ 100246c4     libucrt:lcidtoname_downlevel.obj
 0002:000056d0       ??_C@_1M@GFFOJMCJ@?$AAd?$AAe?$AA?9?$AAd?$AAe@ 100246d0     libucrt:lcidtoname_downlevel.obj
 0002:000056dc       ??_C@_1M@MDNLKBPM@?$AAd?$AAe?$AA?9?$AAl?$AAi@ 100246dc     libucrt:lcidtoname_downlevel.obj
 0002:000056e8       ??_C@_1M@NJBEEJNL@?$AAd?$AAe?$AA?9?$AAl?$AAu@ 100246e8     libucrt:lcidtoname_downlevel.obj
 0002:000056f4       ??_C@_1O@GNNELBAP@?$AAd?$AAi?$AAv?$AA?9?$AAm?$AAv@ 100246f4     libucrt:lcidtoname_downlevel.obj
 0002:00005704       ??_C@_1M@EJLEOGAE@?$AAe?$AAl?$AA?9?$AAg?$AAr@ 10024704     libucrt:lcidtoname_downlevel.obj
 0002:00005710       ??_C@_1M@GMPONJN@?$AAe?$AAn?$AA?9?$AAa?$AAu@ 10024710     libucrt:lcidtoname_downlevel.obj
 0002:0000571c       ??_C@_1M@NIDIIPGF@?$AAe?$AAn?$AA?9?$AAb?$AAz@ 1002471c     libucrt:lcidtoname_downlevel.obj
 0002:00005728       ??_C@_1M@JEHMIMFO@?$AAe?$AAn?$AA?9?$AAc?$AAa@ 10024728     libucrt:lcidtoname_downlevel.obj
 0002:00005734       ??_C@_1M@IGMJCDLA@?$AAe?$AAn?$AA?9?$AAc?$AAb@ 10024734     libucrt:lcidtoname_downlevel.obj
 0002:00005740       ??_C@_1M@BNFIGBKG@?$AAe?$AAn?$AA?9?$AAg?$AAb@ 10024740     libucrt:lcidtoname_downlevel.obj
 0002:0000574c       ??_C@_1M@LKIFDIGP@?$AAe?$AAn?$AA?9?$AAi?$AAe@ 1002474c     libucrt:lcidtoname_downlevel.obj
 0002:00005758       ??_C@_1M@PJKFGCCO@?$AAe?$AAn?$AA?9?$AAj?$AAm@ 10024758     libucrt:lcidtoname_downlevel.obj
 0002:00005764       ??_C@_1M@KPPKEPBO@?$AAe?$AAn?$AA?9?$AAn?$AAz@ 10024764     libucrt:lcidtoname_downlevel.obj
 0002:00005770       ??_C@_1M@GMDGLDOB@?$AAe?$AAn?$AA?9?$AAp?$AAh@ 10024770     libucrt:lcidtoname_downlevel.obj
 0002:0000577c       ??_C@_1M@ONGIBJNA@?$AAe?$AAn?$AA?9?$AAt?$AAt@ 1002477c     libucrt:lcidtoname_downlevel.obj
 0002:00005788       ??_C@_1M@LLODPCMM@?$AAe?$AAn?$AA?9?$AAu?$AAs@ 10024788     libucrt:lcidtoname_downlevel.obj
 0002:00005794       ??_C@_1M@LAKFNPAN@?$AAe?$AAn?$AA?9?$AAz?$AAa@ 10024794     libucrt:lcidtoname_downlevel.obj
 0002:000057a0       ??_C@_1M@MFNHNHEO@?$AAe?$AAn?$AA?9?$AAz?$AAw@ 100247a0     libucrt:lcidtoname_downlevel.obj
 0002:000057ac       ??_C@_1M@EJEINPHM@?$AAe?$AAs?$AA?9?$AAa?$AAr@ 100247ac     libucrt:lcidtoname_downlevel.obj
 0002:000057b8       ??_C@_1M@GNKPCCJA@?$AAe?$AAs?$AA?9?$AAb?$AAo@ 100247b8     libucrt:lcidtoname_downlevel.obj
 0002:000057c4       ??_C@_1M@LEEGFONL@?$AAe?$AAs?$AA?9?$AAc?$AAl@ 100247c4     libucrt:lcidtoname_downlevel.obj
 0002:000057d0       ??_C@_1M@KGPDPBDF@?$AAe?$AAs?$AA?9?$AAc?$AAo@ 100247d0     libucrt:lcidtoname_downlevel.obj
 0002:000057dc       ??_C@_1M@EIAHOHH@?$AAe?$AAs?$AA?9?$AAc?$AAr@ 100247dc     libucrt:lcidtoname_downlevel.obj
 0002:000057e8       ??_C@_1M@LLPGMBIN@?$AAe?$AAs?$AA?9?$AAd?$AAo@ 100247e8     libucrt:lcidtoname_downlevel.obj
 0002:000057f4       ??_C@_1M@DKHMKNJA@?$AAe?$AAs?$AA?9?$AAe?$AAc@ 100247f4     libucrt:lcidtoname_downlevel.obj
 0002:00005800       ??_C@_1M@GKGFPKAP@?$AAe?$AAs?$AA?9?$AAe?$AAs@ 10024800     libucrt:lcidtoname_downlevel.obj
 0002:0000580c       ??_C@_1M@LKHKGDLN@?$AAe?$AAs?$AA?9?$AAg?$AAt@ 1002480c     libucrt:lcidtoname_downlevel.obj
 0002:00005818       ??_C@_1M@HEIIGGJD@?$AAe?$AAs?$AA?9?$AAh?$AAn@ 10024818     libucrt:lcidtoname_downlevel.obj
 0002:00005824       ??_C@_1M@FBDHPPGD@?$AAe?$AAs?$AA?9?$AAm?$AAx@ 10024824     libucrt:lcidtoname_downlevel.obj
 0002:00005830       ??_C@_1M@DPAGLNDH@?$AAe?$AAs?$AA?9?$AAn?$AAi@ 10024830     libucrt:lcidtoname_downlevel.obj
 0002:0000583c       ??_C@_1M@MDGOPGDD@?$AAe?$AAs?$AA?9?$AAp?$AAa@ 1002483c     libucrt:lcidtoname_downlevel.obj
 0002:00005848       ??_C@_1M@EMAMGBGE@?$AAe?$AAs?$AA?9?$AAp?$AAe@ 10024848     libucrt:lcidtoname_downlevel.obj
 0002:00005854       ??_C@_1M@IBMCAOEC@?$AAe?$AAs?$AA?9?$AAp?$AAr@ 10024854     libucrt:lcidtoname_downlevel.obj
 0002:00005860       ??_C@_1M@FGMDIJED@?$AAe?$AAs?$AA?9?$AAp?$AAy@ 10024860     libucrt:lcidtoname_downlevel.obj
 0002:0000586c       ??_C@_1M@IIDEOLLL@?$AAe?$AAs?$AA?9?$AAs?$AAv@ 1002486c     libucrt:lcidtoname_downlevel.obj
 0002:00005878       ??_C@_1M@GAOBIPA@?$AAe?$AAs?$AA?9?$AAu?$AAy@ 10024878     libucrt:lcidtoname_downlevel.obj
 0002:00005884       ??_C@_1M@JKFFICHJ@?$AAe?$AAs?$AA?9?$AAv?$AAe@ 10024884     libucrt:lcidtoname_downlevel.obj
 0002:00005890       ??_C@_1M@PNMLOJDF@?$AAe?$AAt?$AA?9?$AAe?$AAe@ 10024890     libucrt:lcidtoname_downlevel.obj
 0002:0000589c       ??_C@_1M@GHHLIKEI@?$AAe?$AAu?$AA?9?$AAe?$AAs@ 1002489c     libucrt:lcidtoname_downlevel.obj
 0002:000058a8       ??_C@_1M@PBNONODE@?$AAf?$AAa?$AA?9?$AAi?$AAr@ 100248a8     libucrt:lcidtoname_downlevel.obj
 0002:000058b4       ??_C@_1M@JEEHPMIL@?$AAf?$AAi?$AA?9?$AAf?$AAi@ 100248b4     libucrt:lcidtoname_downlevel.obj
 0002:000058c0       ??_C@_1M@LMDCNDBA@?$AAf?$AAo?$AA?9?$AAf?$AAo@ 100248c0     libucrt:lcidtoname_downlevel.obj
 0002:000058cc       ??_C@_1M@JKEOHLDK@?$AAf?$AAr?$AA?9?$AAb?$AAe@ 100248cc     libucrt:lcidtoname_downlevel.obj
 0002:000058d8       ??_C@_1M@NOHADPMI@?$AAf?$AAr?$AA?9?$AAc?$AAa@ 100248d8     libucrt:lcidtoname_downlevel.obj
 0002:000058e4       ??_C@_1M@KDHIHAEC@?$AAf?$AAr?$AA?9?$AAc?$AAh@ 100248e4     libucrt:lcidtoname_downlevel.obj
 0002:000058f0       ??_C@_1M@MMBBFGAK@?$AAf?$AAr?$AA?9?$AAf?$AAr@ 100248f0     libucrt:lcidtoname_downlevel.obj
 0002:000058fc       ??_C@_1M@PAFNENNF@?$AAf?$AAr?$AA?9?$AAl?$AAu@ 100248fc     libucrt:lcidtoname_downlevel.obj
 0002:00005908       ??_C@_1M@EOHDJGDD@?$AAf?$AAr?$AA?9?$AAm?$AAc@ 10024908     libucrt:lcidtoname_downlevel.obj
 0002:00005914       ??_C@_1M@FAPLLOPF@?$AAg?$AAl?$AA?9?$AAe?$AAs@ 10024914     libucrt:lcidtoname_downlevel.obj
 0002:00005920       ??_C@_1M@FOPBFLOO@?$AAg?$AAu?$AA?9?$AAi?$AAn@ 10024920     libucrt:lcidtoname_downlevel.obj
 0002:0000592c       ??_C@_1M@KBMCINPM@?$AAh?$AAe?$AA?9?$AAi?$AAl@ 1002492c     libucrt:lcidtoname_downlevel.obj
 0002:00005938       ??_C@_1M@BBPHKFPJ@?$AAh?$AAi?$AA?9?$AAi?$AAn@ 10024938     libucrt:lcidtoname_downlevel.obj
 0002:00005944       ??_C@_1M@PMBNDPHD@?$AAh?$AAr?$AA?9?$AAb?$AAa@ 10024944     libucrt:lcidtoname_downlevel.obj
 0002:00005950       ??_C@_1M@BPCKOEGE@?$AAh?$AAr?$AA?9?$AAh?$AAr@ 10024950     libucrt:lcidtoname_downlevel.obj
 0002:0000595c       ??_C@_1M@GACBMHKE@?$AAh?$AAu?$AA?9?$AAh?$AAu@ 1002495c     libucrt:lcidtoname_downlevel.obj
 0002:00005968       ??_C@_1M@MILPAJJC@?$AAh?$AAy?$AA?9?$AAa?$AAm@ 10024968     libucrt:lcidtoname_downlevel.obj
 0002:00005974       ??_C@_1M@BABBICEC@?$AAi?$AAd?$AA?9?$AAi?$AAd@ 10024974     libucrt:lcidtoname_downlevel.obj
 0002:00005980       ??_C@_1M@BIKNHHPF@?$AAi?$AAs?$AA?9?$AAi?$AAs@ 10024980     libucrt:lcidtoname_downlevel.obj
 0002:0000598c       ??_C@_1M@NMPCJPHE@?$AAi?$AAt?$AA?9?$AAc?$AAh@ 1002498c     libucrt:lcidtoname_downlevel.obj
 0002:00005998       ??_C@_1M@GHKGFEDF@?$AAi?$AAt?$AA?9?$AAi?$AAt@ 10024998     libucrt:lcidtoname_downlevel.obj
 0002:000059a4       ??_C@_1M@NIEJCJJA@?$AAj?$AAa?$AA?9?$AAj?$AAp@ 100249a4     libucrt:lcidtoname_downlevel.obj
 0002:000059b0       ??_C@_1M@JILFNBIM@?$AAk?$AAa?$AA?9?$AAg?$AAe@ 100249b0     libucrt:lcidtoname_downlevel.obj
 0002:000059bc       ??_C@_1M@PACPMGPH@?$AAk?$AAk?$AA?9?$AAk?$AAz@ 100249bc     libucrt:lcidtoname_downlevel.obj
 0002:000059c8       ??_C@_1M@IELFGMHA@?$AAk?$AAn?$AA?9?$AAi?$AAn@ 100249c8     libucrt:lcidtoname_downlevel.obj
 0002:000059d4       ??_C@_1O@IBBJHCH@?$AAk?$AAo?$AAk?$AA?9?$AAi?$AAn@ 100249d4     libucrt:lcidtoname_downlevel.obj
 0002:000059e4       ??_C@_1M@DMHAEOGC@?$AAk?$AAo?$AA?9?$AAk?$AAr@ 100249e4     libucrt:lcidtoname_downlevel.obj
 0002:000059f0       ??_C@_1M@HBAHBIGA@?$AAk?$AAy?$AA?9?$AAk?$AAg@ 100249f0     libucrt:lcidtoname_downlevel.obj
 0002:000059fc       ??_C@_1M@KPMILCJG@?$AAl?$AAt?$AA?9?$AAl?$AAt@ 100249fc     libucrt:lcidtoname_downlevel.obj
 0002:00005a08       ??_C@_1M@BDEKKCA@?$AAl?$AAv?$AA?9?$AAl?$AAv@ 10024a08     libucrt:lcidtoname_downlevel.obj
 0002:00005a14       ??_C@_1M@ELCKCCJJ@?$AAm?$AAi?$AA?9?$AAn?$AAz@ 10024a14     libucrt:lcidtoname_downlevel.obj
 0002:00005a20       ??_C@_1M@CBOOLAPA@?$AAm?$AAk?$AA?9?$AAm?$AAk@ 10024a20     libucrt:lcidtoname_downlevel.obj
 0002:00005a2c       ??_C@_1M@GPHNBJKN@?$AAm?$AAl?$AA?9?$AAi?$AAn@ 10024a2c     libucrt:lcidtoname_downlevel.obj
 0002:00005a38       ??_C@_1M@PABJILIG@?$AAm?$AAn?$AA?9?$AAm?$AAn@ 10024a38     libucrt:lcidtoname_downlevel.obj
 0002:00005a44       ??_C@_1M@FGBKKIPG@?$AAm?$AAr?$AA?9?$AAi?$AAn@ 10024a44     libucrt:lcidtoname_downlevel.obj
 0002:00005a50       ??_C@_1M@NDBPDDAL@?$AAm?$AAs?$AA?9?$AAb?$AAn@ 10024a50     libucrt:lcidtoname_downlevel.obj
 0002:00005a5c       ??_C@_1M@OPIHOOPI@?$AAm?$AAs?$AA?9?$AAm?$AAy@ 10024a5c     libucrt:lcidtoname_downlevel.obj
 0002:00005a68       ??_C@_1M@PPDBCNFM@?$AAm?$AAt?$AA?9?$AAm?$AAt@ 10024a68     libucrt:lcidtoname_downlevel.obj
 0002:00005a74       ??_C@_1M@KDJDKMDD@?$AAn?$AAb?$AA?9?$AAn?$AAo@ 10024a74     libucrt:lcidtoname_downlevel.obj
 0002:00005a80       ??_C@_1M@KFCFLMJP@?$AAn?$AAl?$AA?9?$AAb?$AAe@ 10024a80     libucrt:lcidtoname_downlevel.obj
 0002:00005a8c       ??_C@_1M@KPOPDDGO@?$AAn?$AAl?$AA?9?$AAn?$AAl@ 10024a8c     libucrt:lcidtoname_downlevel.obj
 0002:00005a98       ??_C@_1M@LJKPEMLN@?$AAn?$AAn?$AA?9?$AAn?$AAo@ 10024a98     libucrt:lcidtoname_downlevel.obj
 0002:00005aa4       ??_C@_1M@BDGHHBFL@?$AAn?$AAs?$AA?9?$AAz?$AAa@ 10024aa4     libucrt:lcidtoname_downlevel.obj
 0002:00005ab0       ??_C@_1M@IDEHOAP@?$AAp?$AAa?$AA?9?$AAi?$AAn@ 10024ab0     libucrt:lcidtoname_downlevel.obj
 0002:00005abc       ??_C@_1M@HDBKGOGH@?$AAp?$AAl?$AA?9?$AAp?$AAl@ 10024abc     libucrt:lcidtoname_downlevel.obj
 0002:00005ac8       ??_C@_1M@LJLLCMEH@?$AAp?$AAt?$AA?9?$AAb?$AAr@ 10024ac8     libucrt:lcidtoname_downlevel.obj
 0002:00005ad4       ??_C@_1M@NCMONAAL@?$AAp?$AAt?$AA?9?$AAp?$AAt@ 10024ad4     libucrt:lcidtoname_downlevel.obj
 0002:00005ae0       ??_C@_1O@EAKMAJDN@?$AAq?$AAu?$AAz?$AA?9?$AAb?$AAo@ 10024ae0     libucrt:lcidtoname_downlevel.obj
 0002:00005af0       ??_C@_1O@BHHPIGDN@?$AAq?$AAu?$AAz?$AA?9?$AAe?$AAc@ 10024af0     libucrt:lcidtoname_downlevel.obj
 0002:00005b00       ??_C@_1O@GBAPEKMJ@?$AAq?$AAu?$AAz?$AA?9?$AAp?$AAe@ 10024b00     libucrt:lcidtoname_downlevel.obj
 0002:00005b10       ??_C@_1M@CLGLEFBO@?$AAr?$AAo?$AA?9?$AAr?$AAo@ 10024b10     libucrt:lcidtoname_downlevel.obj
 0002:00005b1c       ??_C@_1M@CEEDODME@?$AAr?$AAu?$AA?9?$AAr?$AAu@ 10024b1c     libucrt:lcidtoname_downlevel.obj
 0002:00005b28       ??_C@_1M@HPKKKMPP@?$AAs?$AAa?$AA?9?$AAi?$AAn@ 10024b28     libucrt:lcidtoname_downlevel.obj
 0002:00005b34       ??_C@_1M@BKMAIGOJ@?$AAs?$AAe?$AA?9?$AAf?$AAi@ 10024b34     libucrt:lcidtoname_downlevel.obj
 0002:00005b40       ??_C@_1M@NDPIFLFI@?$AAs?$AAe?$AA?9?$AAn?$AAo@ 10024b40     libucrt:lcidtoname_downlevel.obj
 0002:00005b4c       ??_C@_1M@DANKKHJ@?$AAs?$AAe?$AA?9?$AAs?$AAe@ 10024b4c     libucrt:lcidtoname_downlevel.obj
 0002:00005b58       ??_C@_1M@PNBLONPJ@?$AAs?$AAk?$AA?9?$AAs?$AAk@ 10024b58     libucrt:lcidtoname_downlevel.obj
 0002:00005b64       ??_C@_1M@LFMODOAL@?$AAs?$AAl?$AA?9?$AAs?$AAi@ 10024b64     libucrt:lcidtoname_downlevel.obj
 0002:00005b70       ??_C@_1O@DFKOMPG@?$AAs?$AAm?$AAa?$AA?9?$AAn?$AAo@ 10024b70     libucrt:lcidtoname_downlevel.obj
 0002:00005b80       ??_C@_1O@NDKPBNNH@?$AAs?$AAm?$AAa?$AA?9?$AAs?$AAe@ 10024b80     libucrt:lcidtoname_downlevel.obj
 0002:00005b90       ??_C@_1O@PLLKBHAB@?$AAs?$AAm?$AAj?$AA?9?$AAn?$AAo@ 10024b90     libucrt:lcidtoname_downlevel.obj
 0002:00005ba0       ??_C@_1O@CLEPOGCA@?$AAs?$AAm?$AAj?$AA?9?$AAs?$AAe@ 10024ba0     libucrt:lcidtoname_downlevel.obj
 0002:00005bb0       ??_C@_1O@DLGJGKMK@?$AAs?$AAm?$AAn?$AA?9?$AAf?$AAi@ 10024bb0     libucrt:lcidtoname_downlevel.obj
 0002:00005bc0       ??_C@_1O@OJDJGAJC@?$AAs?$AAm?$AAs?$AA?9?$AAf?$AAi@ 10024bc0     libucrt:lcidtoname_downlevel.obj
 0002:00005bd0       ??_C@_1M@BOFOGHPB@?$AAs?$AAq?$AA?9?$AAa?$AAl@ 10024bd0     libucrt:lcidtoname_downlevel.obj
 0002:00005bdc       ??_C@_1BG@LJBBIPGB@?$AAs?$AAr?$AA?9?$AAb?$AAa?$AA?9?$AAc?$AAy?$AAr?$AAl@ 10024bdc     libucrt:lcidtoname_downlevel.obj
 0002:00005bf4       ??_C@_1BG@JLBENFOE@?$AAs?$AAr?$AA?9?$AAb?$AAa?$AA?9?$AAl?$AAa?$AAt?$AAn@ 10024bf4     libucrt:lcidtoname_downlevel.obj
 0002:00005c0c       ??_C@_1BG@KODPNHE@?$AAs?$AAr?$AA?9?$AAs?$AAp?$AA?9?$AAc?$AAy?$AAr?$AAl@ 10024c0c     libucrt:lcidtoname_downlevel.obj
 0002:00005c24       ??_C@_1BG@CIOGKHPB@?$AAs?$AAr?$AA?9?$AAs?$AAp?$AA?9?$AAl?$AAa?$AAt?$AAn@ 10024c24     libucrt:lcidtoname_downlevel.obj
 0002:00005c3c       ??_C@_1M@NGFJLMAC@?$AAs?$AAv?$AA?9?$AAf?$AAi@ 10024c3c     libucrt:lcidtoname_downlevel.obj
 0002:00005c48       ??_C@_1M@MPJEJAJC@?$AAs?$AAv?$AA?9?$AAs?$AAe@ 10024c48     libucrt:lcidtoname_downlevel.obj
 0002:00005c54       ??_C@_1M@MPNDHLFK@?$AAs?$AAw?$AA?9?$AAk?$AAe@ 10024c54     libucrt:lcidtoname_downlevel.obj
 0002:00005c60       ??_C@_1O@KOHBJJI@?$AAs?$AAy?$AAr?$AA?9?$AAs?$AAy@ 10024c60     libucrt:lcidtoname_downlevel.obj
 0002:00005c70       ??_C@_1M@LDCEFHA@?$AAt?$AAa?$AA?9?$AAi?$AAn@ 10024c70     libucrt:lcidtoname_downlevel.obj
 0002:00005c7c       ??_C@_1M@CNJOFAK@?$AAt?$AAe?$AA?9?$AAi?$AAn@ 10024c7c     libucrt:lcidtoname_downlevel.obj
 0002:00005c88       ??_C@_1M@GNAECACD@?$AAt?$AAh?$AA?9?$AAt?$AAh@ 10024c88     libucrt:lcidtoname_downlevel.obj
 0002:00005c94       ??_C@_1M@CHBIHOJO@?$AAt?$AAn?$AA?9?$AAz?$AAa@ 10024c94     libucrt:lcidtoname_downlevel.obj
 0002:00005ca0       ??_C@_1M@GCCMIGPJ@?$AAt?$AAr?$AA?9?$AAt?$AAr@ 10024ca0     libucrt:lcidtoname_downlevel.obj
 0002:00005cac       ??_C@_1M@CELMCNBK@?$AAt?$AAt?$AA?9?$AAr?$AAu@ 10024cac     libucrt:lcidtoname_downlevel.obj
 0002:00005cb8       ??_C@_1M@KLMCELGA@?$AAu?$AAk?$AA?9?$AAu?$AAa@ 10024cb8     libucrt:lcidtoname_downlevel.obj
 0002:00005cc4       ??_C@_1M@EPAJJAJF@?$AAu?$AAr?$AA?9?$AAp?$AAk@ 10024cc4     libucrt:lcidtoname_downlevel.obj
 0002:00005cd0       ??_C@_1BG@GEGPMCDJ@?$AAu?$AAz?$AA?9?$AAu?$AAz?$AA?9?$AAc?$AAy?$AAr?$AAl@ 10024cd0     libucrt:lcidtoname_downlevel.obj
 0002:00005ce8       ??_C@_1BG@EGGKJILM@?$AAu?$AAz?$AA?9?$AAu?$AAz?$AA?9?$AAl?$AAa?$AAt?$AAn@ 10024ce8     libucrt:lcidtoname_downlevel.obj
 0002:00005d00       ??_C@_1M@GFOCLFF@?$AAv?$AAi?$AA?9?$AAv?$AAn@ 10024d00     libucrt:lcidtoname_downlevel.obj
 0002:00005d0c       ??_C@_1M@CPAMEDFI@?$AAx?$AAh?$AA?9?$AAz?$AAa@ 10024d0c     libucrt:lcidtoname_downlevel.obj
 0002:00005d18       ??_C@_1O@EBKIFIGN@?$AAz?$AAh?$AA?9?$AAc?$AAh?$AAs@ 10024d18     libucrt:lcidtoname_downlevel.obj
 0002:00005d28       ??_C@_1O@NMHPGANE@?$AAz?$AAh?$AA?9?$AAc?$AAh?$AAt@ 10024d28     libucrt:lcidtoname_downlevel.obj
 0002:00005d38       ??_C@_1M@LPINJOMC@?$AAz?$AAh?$AA?9?$AAc?$AAn@ 10024d38     libucrt:lcidtoname_downlevel.obj
 0002:00005d44       ??_C@_1M@OCJEJODD@?$AAz?$AAh?$AA?9?$AAh?$AAk@ 10024d44     libucrt:lcidtoname_downlevel.obj
 0002:00005d50       ??_C@_1M@DNDLJINH@?$AAz?$AAh?$AA?9?$AAm?$AAo@ 10024d50     libucrt:lcidtoname_downlevel.obj
 0002:00005d5c       ??_C@_1M@MBFDNDND@?$AAz?$AAh?$AA?9?$AAs?$AAg@ 10024d5c     libucrt:lcidtoname_downlevel.obj
 0002:00005d68       ??_C@_1M@IMEPLEPE@?$AAz?$AAh?$AA?9?$AAt?$AAw@ 10024d68     libucrt:lcidtoname_downlevel.obj
 0002:00005d74       ??_C@_1M@BBGHNHJP@?$AAz?$AAu?$AA?9?$AAz?$AAa@ 10024d74     libucrt:lcidtoname_downlevel.obj
 0002:00005d80       ?large_power_data@?1??multiply_by_power_of_ten@__crt_strtox@@YA_NAAUbig_integer@2@I@Z@4QBIB 10024d80     libucrt:cfout.obj
 0002:00006688       ?large_power_indices@?1??multiply_by_power_of_ten@__crt_strtox@@YA_NAAUbig_integer@2@I@Z@4QBUunpack_index@?1??12@YA_N0I@Z@B 10025688     libucrt:cfout.obj
 0002:00006720       ?small_powers_of_ten@?1??multiply_by_power_of_ten@__crt_strtox@@YA_NAAUbig_integer@2@I@Z@4QBIB 10025720     libucrt:cfout.obj
 0002:00006744       ??_C@_01GBGANLPD@0@        10025744     libucrt:cfout.obj
 0002:00006748       ??_C@_05DNEBIAHO@1?$CDINF@ 10025748     libucrt:cfout.obj
 0002:00006750       ??_C@_06IMKFLFPG@1?$CDQNAN@ 10025750     libucrt:cfout.obj
 0002:00006758       ??_C@_06PGGFOGJG@1?$CDSNAN@ 10025758     libucrt:cfout.obj
 0002:00006760       ??_C@_05PHHOCPM@1?$CDIND@  10025760     libucrt:cfout.obj
 0002:000068d0       __infinity                 100258d0     libucrt:87tran.obj
 0002:000068da       __minfinity                100258da     libucrt:87tran.obj
 0002:000068e4       __logemax                  100258e4     libucrt:87tran.obj
 0002:0000690a       __OP_EXPjmptab             1002590a     libucrt:87tran.obj
 0002:00006930       __indefinite               10025930     libucrt:87disp.obj
 0002:0000693a       __piby2                    1002593a     libucrt:87disp.obj
 0002:00006944       __piby4                    10025944     libucrt:87disp.obj
 0002:00006978       __DEFAULT_CW_in_mem        10025978     libucrt:common.obj
 0002:0000697a       __pi_by_2_to_61            1002597a     libucrt:common.obj
 0002:000069b4       ??_C@_03MGHMBJCF@log@      100259b4     libucrt:libm_error.obj
 0002:000069b8       ??_C@_05HGHHAHAP@log10@    100259b8     libucrt:libm_error.obj
 0002:000069c0       ??_C@_03KHJOGHMM@exp@      100259c0     libucrt:libm_error.obj
 0002:000069c4       ??_C@_03JGHBODFD@pow@      100259c4     libucrt:libm_error.obj
 0002:000069c8       ??_C@_04FIHNOPOL@asin@     100259c8     libucrt:libm_error.obj
 0002:000069d0       ??_C@_04PDIFKINK@acos@     100259d0     libucrt:libm_error.obj
 0002:000069d8       ??_C@_04EIAKFFMI@sqrt@     100259d8     libucrt:libm_error.obj
 0002:000069e0       __real@3ff0000000000000    100259e0     libucrt:libm_error.obj
 0002:000069e8       ??_C@_1BA@BALFACEM@?$AAC?$AAO?$AAN?$AAO?$AAU?$AAT?$AA$@ 100259e8     libucrt:initcon.obj
 0002:00006a10       ___acrt_log10_table_t      10025a10     libucrt:log10_tables.obj
 0002:00006e20       ___acrt_log10_table_cb     10025e20     libucrt:log10_tables.obj
 0002:00007230       __real@3fe0000000000000    10026230     libucrt:powhlp.obj
 0002:00007320       ??_C@_04COOMCNPB@sinh@     10026320     libucrt:fpexcept.obj
 0002:00007328       ??_C@_04HPJJNFIM@cosh@     10026328     libucrt:fpexcept.obj
 0002:00007330       ??_C@_04FJHINJAO@tanh@     10026330     libucrt:fpexcept.obj
 0002:00007338       ??_C@_04MLLJIGOK@atan@     10026338     libucrt:fpexcept.obj
 0002:00007340       ??_C@_05KNGEOGJB@atan2@    10026340     libucrt:fpexcept.obj
 0002:00007348       ??_C@_03BLEJJJBH@sin@      10026348     libucrt:fpexcept.obj
 0002:0000734c       ??_C@_03LALBNOCG@cos@      1002634c     libucrt:fpexcept.obj
 0002:00007350       ??_C@_03IIINPABG@tan@      10026350     libucrt:fpexcept.obj
 0002:00007354       ??_C@_04GFPJNGEK@ceil@     10026354     libucrt:fpexcept.obj
 0002:0000735c       ??_C@_05PBJFFIGL@floor@    1002635c     libucrt:fpexcept.obj
 0002:00007364       ??_C@_04ODHECPBC@fabs@     10026364     libucrt:fpexcept.obj
 0002:0000736c       ??_C@_04EHEDPDJG@modf@     1002636c     libucrt:fpexcept.obj
 0002:00007374       ??_C@_05CEJMAHNP@ldexp@    10026374     libucrt:fpexcept.obj
 0002:0000737c       ??_C@_05KBKMEMPO@_cabs@    1002637c     libucrt:fpexcept.obj
 0002:00007384       ??_C@_06MEIMCGCF@_hypot@   10026384     libucrt:fpexcept.obj
 0002:0000738c       ??_C@_04KEPJIHGP@fmod@     1002638c     libucrt:fpexcept.obj
 0002:00007394       ??_C@_05GKKHEGJL@frexp@    10026394     libucrt:fpexcept.obj
 0002:0000739c       ??_C@_03MJLDFKDL@_y0@      1002639c     libucrt:fpexcept.obj
 0002:000073a0       ??_C@_03NAKIGLHK@_y1@      100263a0     libucrt:fpexcept.obj
 0002:000073a4       ??_C@_03ONILCKOB@_yn@      100263a4     libucrt:fpexcept.obj
 0002:000073a8       ??_C@_05JGDBENOH@_logb@    100263a8     libucrt:fpexcept.obj
 0002:000073b0       ??_C@_0L@KDOEJCKC@_nextafter@ 100263b0     libucrt:fpexcept.obj
 0002:000073c0       __d_inf                    100263c0     libucrt:util.obj
 0002:000073c8       __d_max                    100263c8     libucrt:util.obj
 0002:000073d0       __d_mzero                  100263d0     libucrt:util.obj
 0002:00007440       __load_config_used         10026440     LIBCMT:loadcfg.obj
 0002:000074f8       __tls_used                 100264f8     LIBCMT:tlssup.obj
 0002:00007510       ??_R4exception@std@@6B@    10026510     LIBCMT:throw_bad_alloc.obj
 0002:00007524       ??_R3exception@std@@8      10026524     LIBCMT:throw_bad_alloc.obj
 0002:00007534       ??_R2exception@std@@8      10026534     LIBCMT:throw_bad_alloc.obj
 0002:0000753c       ??_R1A@?0A@EA@exception@std@@8 1002653c     LIBCMT:throw_bad_alloc.obj
 0002:00007558       ??_R4bad_alloc@std@@6B@    10026558     LIBCMT:throw_bad_alloc.obj
 0002:0000756c       ??_R3bad_alloc@std@@8      1002656c     LIBCMT:throw_bad_alloc.obj
 0002:0000757c       ??_R2bad_alloc@std@@8      1002657c     LIBCMT:throw_bad_alloc.obj
 0002:00007588       ??_R1A@?0A@EA@bad_alloc@std@@8 10026588     LIBCMT:throw_bad_alloc.obj
 0002:000075a4       ??_R4bad_array_new_length@std@@6B@ 100265a4     LIBCMT:throw_bad_alloc.obj
 0002:000075b8       ??_R3bad_array_new_length@std@@8 100265b8     LIBCMT:throw_bad_alloc.obj
 0002:000075c8       ??_R2bad_array_new_length@std@@8 100265c8     LIBCMT:throw_bad_alloc.obj
 0002:000075d8       ??_R1A@?0A@EA@bad_array_new_length@std@@8 100265d8     LIBCMT:throw_bad_alloc.obj
 0002:000075f4       ??_R4type_info@@6B@        100265f4     LIBCMT:std_type_info_static.obj
 0002:00007608       ??_R3type_info@@8          10026608     LIBCMT:std_type_info_static.obj
 0002:00007618       ??_R2type_info@@8          10026618     LIBCMT:std_type_info_static.obj
 0002:00007620       ??_R1A@?0A@EA@type_info@@8 10026620     LIBCMT:std_type_info_static.obj
 0002:0000763c       ??_R4bad_exception@std@@6B@ 1002663c     libvcruntime:frame.obj
 0002:00007650       ??_R3bad_exception@std@@8  10026650     libvcruntime:frame.obj
 0002:00007660       ??_R2bad_exception@std@@8  10026660     libvcruntime:frame.obj
 0002:0000766c       ??_R1A@?0A@EA@bad_exception@std@@8 1002666c     libvcruntime:frame.obj
 0002:00007688       ___safe_se_handler_table   10026688     <linker-defined>
 0002:00007a7c       ___rtc_iaa                 10026a7c     LIBCMT:initsect.obj
 0002:00007a80       ___rtc_izz                 10026a80     LIBCMT:initsect.obj
 0002:00007a84       ___rtc_taa                 10026a84     LIBCMT:initsect.obj
 0002:00007a88       ___rtc_tzz                 10026a88     LIBCMT:initsect.obj
 0002:00007a8c       __tls_start                10026a8c     LIBCMT:tlssup.obj
 0002:00007a90       __Init_thread_epoch        10026a90     LIBCMT:thread_safe_statics.obj
 0002:00007a94       __tls_end                  10026a94     LIBCMT:tlssup.obj
 0002:00007b94       __TI2?AVbad_alloc@std@@    10026b94     LIBCMT:throw_bad_alloc.obj
 0002:00007ba4       __CTA2?AVbad_alloc@std@@   10026ba4     LIBCMT:throw_bad_alloc.obj
 0002:00007bb0       __CT??_R0?AVbad_alloc@std@@@8??0bad_alloc@std@@QAE@ABV01@@Z12 10026bb0     LIBCMT:throw_bad_alloc.obj
 0002:00007bcc       __CT??_R0?AVexception@std@@@8??0exception@std@@QAE@ABV01@@Z12 10026bcc     LIBCMT:throw_bad_alloc.obj
 0002:00007be8       __TI3?AVbad_array_new_length@std@@ 10026be8     LIBCMT:throw_bad_alloc.obj
 0002:00007bf8       __CTA3?AVbad_array_new_length@std@@ 10026bf8     LIBCMT:throw_bad_alloc.obj
 0002:00007c08       __CT??_R0?AVbad_array_new_length@std@@@8??0bad_array_new_length@std@@QAE@ABV01@@Z12 10026c08     LIBCMT:throw_bad_alloc.obj
 0002:00007d2c       __TI2?AVbad_exception@std@@ 10026d2c     libvcruntime:frame.obj
 0002:00007d3c       __CTA2?AVbad_exception@std@@ 10026d3c     libvcruntime:frame.obj
 0002:00007d48       __CT??_R0?AVbad_exception@std@@@8??0bad_exception@std@@QAE@ABV01@@Z12 10026d48     libvcruntime:frame.obj
 0002:000080c4       ___pobjMapEntryFirst       100270c4     OposVariant.obj
 0002:000080c8       ___pobjMapEntryLast        100270c8     OposVariant.obj
 0002:00008178       __IMPORT_DESCRIPTOR_KERNEL32 10027178     kernel32:KERNEL32.dll
 0002:0000818c       __IMPORT_DESCRIPTOR_USER32 1002718c     user32:USER32.dll
 0002:000081a0       __IMPORT_DESCRIPTOR_GDI32  100271a0     gdi32:GDI32.dll
 0002:000081b4       __IMPORT_DESCRIPTOR_ADVAPI32 100271b4     advapi32:ADVAPI32.dll
 0002:000081c8       __IMPORT_DESCRIPTOR_ole32  100271c8     ole32:ole32.dll
 0002:000081dc       __IMPORT_DESCRIPTOR_OLEAUT32 100271dc     oleaut32:OLEAUT32.dll
 0002:000081f0       __NULL_IMPORT_DESCRIPTOR   100271f0     kernel32:KERNEL32.dll
 0003:00000000       ?s_Claim@?7??GetIDsOfNames@CComTypeInfoHolder@ATL@@QAEJABU_GUID@@PAPA_WIKPAJ@Z@4PA_WA 10029000     Gate.obj
 0003:00000018       ?s_Release@?7??GetIDsOfNames@CComTypeInfoHolder@ATL@@QAEJABU_GUID@@PAPA_WIKPAJ@Z@4PA_WA 10029018     Gate.obj
 0003:00000034       ?_tih@?$IDispatchImpl@UIOPOSGate@@$1?IID_IOPOSGate@@3U_GUID@@B$1?LIBID_OposGate_CCO@@3U3@B$00$0A@VCComTypeInfoHolder@ATL@@@ATL@@1VCComTypeInfoHolder@2@A 10029034     Gate.obj
 0003:00000050       ?_tih@?$IProvideClassInfo2Impl@$1?CLSID_OPOSGate@@3U_GUID@@B$1?DIID__IOPOSGateEvents@@3U2@B$1?LIBID_OposGate_CCO@@3U2@B$00$0A@VCComTypeInfoHolder@ATL@@@ATL@@1VCComTypeInfoHolder@2@A 10029050     Gate.obj
 0003:0000006c       ?vszContents@?6??Save@?$IPersistStorageImpl@VCOPOSGate@@@ATL@@UAGJPAUIStorage@@H@Z@4PB_WB 1002906c     Gate.obj
 0003:00000070       ?wc@?1??GetWndClassInfo@?$CWindowImpl@VCOPOSGate@@VCWindow@ATL@@V?$CWinTraits@$0FGAAAAAA@$0A@@3@@ATL@@SAAAU_ATL_WNDCLASSINFOW@3@XZ@4U43@A 10029070     Gate.obj
 0003:000000fc       ?rcDefault@CWindow@ATL@@2UtagRECT@@A 100290fc     Gate.obj
 0003:00000158       ?g_WindowName@@3PA_WA      10029158     GateImpl.obj
 0003:00000170       ?g_ControlDescription@@3PADA 10029170     GateImpl.obj
 0003:000001b4       ?g_ControlVersion@@3JA     100291b4     GateImpl.obj
 0003:00000208       ___scrt_native_dllmain_reason 10029208     LIBCMT:utility.obj
 0003:0000020c       __Init_global_epoch        1002920c     LIBCMT:thread_safe_statics.obj
 0003:00000210       ___security_cookie_complement 10029210     LIBCMT:gs_cookie.obj
 0003:00000214       ___security_cookie         10029214     LIBCMT:gs_cookie.obj
 0003:00000218       ___isa_enabled             10029218     LIBCMT:cpu_disp.obj
 0003:00000230       __NLG_Destination          10029230     libvcruntime:exsup.obj
 0003:00000248       ___abort_behavior          10029248     libucrt:abort.obj
 0003:00000258       __iob                      10029258     libucrt:_file.obj
 0003:00000300       ___acrt_initial_locale_data 10029300     libucrt:nlsdata.obj
 0003:000003b8       ___acrt_initial_locale_pointers 100293b8     libucrt:nlsdata.obj
 0003:000003c0       ___acrt_wide_c_locale_string 100293c0     libucrt:nlsdata.obj
 0003:000003c8       ___acrt_initial_multibyte_data 100293c8     libucrt:mbctype.obj
 0003:000008e8       __pwctype                  100298e8     libucrt:ctype.obj
 0003:000008ec       ___globallocalestatus      100298ec     libucrt:glstatus.obj
 0003:000008f0       ___acrt_lconv_c            100298f0     libucrt:localeconv.obj
 0003:00000940       ___acrt_lconv_static_decimal 10029940     libucrt:localeconv.obj
 0003:00000944       ___acrt_lconv_static_W_decimal 10029944     libucrt:localeconv.obj
 0003:00000950       __lookuptrailbytes         10029950     libucrt:read.obj
 0003:00000a60       __fltused                  10029a60     LIBCMT:fltused.obj
 0003:00000a70       ??_R0?AVbad_alloc@std@@@8  10029a70     LIBCMT:throw_bad_alloc.obj
 0003:00000a8c       ??_R0?AVexception@std@@@8  10029a8c     LIBCMT:throw_bad_alloc.obj
 0003:00000aa8       ??_R0?AVbad_array_new_length@std@@@8 10029aa8     LIBCMT:throw_bad_alloc.obj
 0003:00000ad0       ??_R0?AVtype_info@@@8      10029ad0     LIBCMT:std_type_info_static.obj
 0003:00000ae8       ??_R0?AVbad_exception@std@@@8 10029ae8     libvcruntime:frame.obj
 0003:00000b08       ?m_bInitFailed@CAtlBaseModule@ATL@@2_NA 10029b08     OposVariant.obj
 0003:00000b0c       ?_pPerfRegFunc@ATL@@3P6AJPAUHINSTANCE__@@@ZA 10029b0c     OposVariant.obj
 0003:00000b10       ?_pPerfUnRegFunc@ATL@@3P6AJXZA 10029b10     OposVariant.obj
 0003:00000b14       ?_AtlRegisterPerUser@ATL@@3_NA 10029b14     OposVariant.obj
 0003:00000b18       ?_pAtlModule@ATL@@3PAVCAtlModule@1@A 10029b18     OposVariant.obj
 0003:00000b1c       ?_pModule@ATL@@3PAVCComModule@1@A 10029b1c     OposVariant.obj
 0003:00000b20       ?_AtlComModule@ATL@@3VCAtlComModule@1@A 10029b20     OposVariant.obj
 0003:00000b48       ?_AtlWinModule@ATL@@3VCAtlWinModule@1@A 10029b48     OposVariant.obj
 0003:00000b74       ?m_libid@CAtlModule@ATL@@2U_GUID@@A 10029b74     Gate.obj
 0003:00000b84       ?_entries@?1??GetConnMap@COPOSGate@@SAPBU_ATL_CONNMAP_ENTRY@ATL@@PAH@Z@4QBU34@B 10029b84     Gate.obj
 0003:00000b90       ?$TSS0@?1??GetConnMap@COPOSGate@@SAPBU_ATL_CONNMAP_ENTRY@ATL@@PAH@Z@4HA 10029b90     Gate.obj
 0003:00000b98       ?_OptionsStorage@?1??__local_stdio_printf_options@@9@4_KA 10029b98     Gate.obj
 0003:00000ba0       ?pfnRegDeleteKeyEx@?1??DeleteSubKey@CRegKey@ATL@@QAEJPB_W@Z@4P6GJPAUHKEY__@@0KK@ZA 10029ba0     Gate.obj
 0003:00000ba4       ?bInitialized@?1??DeleteSubKey@CRegKey@ATL@@QAEJPB_W@Z@4_NA 10029ba4     Gate.obj
 0003:00000ba8       ?_Module@@3VCComModule@ATL@@A 10029ba8     Gate.obj
 0003:00000bd8       ?pConnMap@?$IConnectionPointContainerImpl@VCOPOSGate@@@ATL@@0PBU_ATL_CONNMAP_ENTRY@2@B 10029bd8     Gate.obj
 0003:00000bdc       ?s_nInstances@COPOSGate@@1HA 10029bdc     GateImpl.obj
 0003:00000be0       ___scrt_current_native_startup_state 10029be0     LIBCMT:utility.obj
 0003:00000be4       ___scrt_native_startup_lock 10029be4     LIBCMT:utility.obj
 0003:00000f4c       __tls_index                10029f4c     LIBCMT:tlssup.obj
 0003:00000f54       ___isa_available           10029f54     LIBCMT:cpu_disp.obj
 0003:00000f58       ___favor                   10029f58     LIBCMT:cpu_disp.obj
 0003:00000f5c       ___scrt_debugger_hook_flag 10029f5c     LIBCMT:utility_desktop.obj
 0003:00000f60       ?__type_info_root_node@@3U__type_info_node@@A 10029f60     LIBCMT:tncleanup.obj
 0003:00000f68       ?_OptionsStorage@?1??__local_stdio_scanf_options@@9@4_KA 10029f68     LIBCMT:default_local_stdio_options.obj
 0003:00000f70       ?_AtlBaseModule@ATL@@3VCAtlBaseModule@1@A 10029f70     atls:atlbase.obj
 0003:00000fa8       ?__AtlThunkPool@@3PAT_SLIST_HEADER@@A 10029fa8     atls:atlthunk.obj
 0003:00000fc0       ___@@_PchSym_@00@UztvmgUPdlipUEUhUrmgvinvwrzgvUexgllohUzgohOmzgrevkilqPBACIAJCBDBUlyqiUcIGUhgwzucOlyq@4B2008FD98C1DD4 10029fc0     atls:stdafx.obj
 0003:00000fc4       ?__WinRTOutOfMemoryExceptionCallback@@3P6GPAXXZA 10029fc4     libvcruntime:ehhelpers.obj
 0003:00000fc8       ___pPurecall               10029fc8     libvcruntime:purevirt_data.obj
 0003:00001010       ?pArgList@UnDecorator@@0PAVReplicator@@A 1002a010     libvcruntime:undname.obj
 0003:00001014       ?pZNameList@UnDecorator@@0PAVReplicator@@A 1002a014     libvcruntime:undname.obj
 0003:00001018       ?pTemplateArgList@UnDecorator@@0PAVReplicator@@A 1002a018     libvcruntime:undname.obj
 0003:0000101c       ?gName@UnDecorator@@0PBDB  1002a01c     libvcruntime:undname.obj
 0003:00001020       ?name@UnDecorator@@0PBDB   1002a020     libvcruntime:undname.obj
 0003:00001024       ?disableFlags@UnDecorator@@0KA 1002a024     libvcruntime:undname.obj
 0003:00001028       ?fExplicitTemplateParams@UnDecorator@@0_NA 1002a028     libvcruntime:undname.obj
 0003:00001029       ?fGetTemplateArgumentList@UnDecorator@@0_NA 1002a029     libvcruntime:undname.obj
 0003:0000102c       ?m_pGetParameter@UnDecorator@@0P6APADJ@ZA 1002a02c     libvcruntime:undname.obj
 0003:00001030       ?m_CHPENameOffset@UnDecorator@@0KA 1002a030     libvcruntime:undname.obj
 0003:00001034       ?m_recursionLevel@UnDecorator@@0KA 1002a034     libvcruntime:undname.obj
 0003:00001078       ?c_exit_complete@?1???R<lambda_6e4b09c48022b2350581041d5f6b0c4c>@@QBE@XZ@4_NA 1002a078     libucrt:exit.obj
 0003:00001188       __environ_table            1002a188     libucrt:environment_initialization.obj
 0003:0000118c       __wenviron_table           1002a18c     libucrt:environment_initialization.obj
 0003:00001190       ___dcrt_initial_wide_environment 1002a190     libucrt:environment_initialization.obj
 0003:00001194       ___dcrt_initial_narrow_environment 1002a194     libucrt:environment_initialization.obj
 0003:00001198       ___acrt_atexit_table       1002a198     libucrt:onexit.obj
 0003:000011a4       ___acrt_at_quick_exit_table 1002a1a4     libucrt:onexit.obj
 0003:00001298       __nstream                  1002a298     libucrt:_file.obj
 0003:0000129c       ___piob                    1002a29c     libucrt:_file.obj
 0003:000012a4       ___acrt_stdout_buffer      1002a2a4     libucrt:_sftbuf.obj
 0003:000012a8       ___acrt_stderr_buffer      1002a2a8     libucrt:_sftbuf.obj
 0003:000012ac       ___acrt_locale_changed_data 1002a2ac     libucrt:wsetlocale.obj
 0003:000012b0       ___acrt_current_locale_data 1002a2b0     libucrt:nlsdata.obj
 0003:000012b8       ___pioinfo                 1002a2b8     libucrt:ioinit.obj
 0003:000014b8       __nhandle                  1002a4b8     libucrt:ioinit.obj
 0003:00001614       __mbctype                  1002a614     libucrt:mbctype.obj
 0003:00001618       __mbcasemap                1002a618     libucrt:mbctype.obj
 0003:0000161c       ___acrt_current_multibyte_data 1002a61c     libucrt:mbctype.obj
 0003:00001628       __pgmptr                   1002a628     libucrt:argv_data.obj
 0003:0000162c       ___argc                    1002a62c     libucrt:argv_data.obj
 0003:00001630       ___argv                    1002a630     libucrt:argv_data.obj
 0003:00001634       ___wargv                   1002a634     libucrt:argv_data.obj
 0003:00001638       __acmdln                   1002a638     libucrt:argv_data.obj
 0003:0000163c       __wcmdln                   1002a63c     libucrt:argv_data.obj
 0003:00001640       ___acrt_heap               1002a640     libucrt:heap_handle.obj
 0003:0000165c       ___acrt_lconv_static_null  1002a65c     libucrt:localeconv.obj
 0003:00001660       ___acrt_lconv_static_W_null 1002a660     libucrt:localeconv.obj
 0003:00001670       ___fastflag                1002a670     libucrt:fp_flags.obj
 0003:00001678       ___dyn_tls_init_callback   1002a678     <common>
 0003:0000167c       ___scrt_ucrt_dll_is_in_use 1002a67c     <common>
 0003:00001680       __pmatherr                 1002a680     <common>
 0003:00001684       ___use_sse2_mathfcns       1002a684     <common>

 entry point at        0001:0000b8dd

 Static symbols

 0000:fffcf000       .debug$S                   10000000     OPOSGate.exp
 0000:fffcf000       .debug$S                   10000000     advapi32:ADVAPI32.dll
 0000:fffcf000       .debug$S                   10000000     advapi32:ADVAPI32.dll
 0000:fffcf000       .debug$S                   10000000     advapi32:ADVAPI32.dll
 0000:fffcf000       .debug$S                   10000000     advapi32:ADVAPI32.dll
 0000:fffcf000       .debug$S                   10000000     advapi32:ADVAPI32.dll
 0000:fffcf000       .debug$S                   10000000     advapi32:ADVAPI32.dll
 0000:fffcf000       .debug$S                   10000000     advapi32:ADVAPI32.dll
 0000:fffcf000       .debug$S                   10000000     advapi32:ADVAPI32.dll
 0000:fffcf000       .debug$S                   10000000     advapi32:ADVAPI32.dll
 0000:fffcf000       .debug$S                   10000000     gdi32:GDI32.dll
 0000:fffcf000       .debug$S                   10000000     gdi32:GDI32.dll
 0000:fffcf000       .debug$S                   10000000     gdi32:GDI32.dll
 0000:fffcf000       .debug$S                   10000000     gdi32:GDI32.dll
 0000:fffcf000       .debug$S                   10000000     gdi32:GDI32.dll
 0000:fffcf000       .debug$S                   10000000     gdi32:GDI32.dll
 0000:fffcf000       .debug$S                   10000000     gdi32:GDI32.dll
 0000:fffcf000       .debug$S                   10000000     gdi32:GDI32.dll
 0000:fffcf000       .debug$S                   10000000     gdi32:GDI32.dll
 0000:fffcf000       .debug$S                   10000000     gdi32:GDI32.dll
 0000:fffcf000       .debug$S                   10000000     gdi32:GDI32.dll
 0000:fffcf000       .debug$S                   10000000     gdi32:GDI32.dll
 0000:fffcf000       .debug$S                   10000000     gdi32:GDI32.dll
 0000:fffcf000       .debug$S                   10000000     gdi32:GDI32.dll
 0000:fffcf000       .debug$S                   10000000     gdi32:GDI32.dll
 0000:fffcf000       .debug$S                   10000000     gdi32:GDI32.dll
 0000:fffcf000       .debug$S                   10000000     gdi32:GDI32.dll
 0000:fffcf000       .debug$S                   10000000     gdi32:GDI32.dll
 0000:fffcf000       .debug$S                   10000000     gdi32:GDI32.dll
 0000:fffcf000       .debug$S                   10000000     kernel32:KERNEL32.dll
 0000:fffcf000       .debug$S                   10000000     kernel32:KERNEL32.dll
 0000:fffcf000       .debug$S                   10000000     kernel32:KERNEL32.dll
 0000:fffcf000       .debug$S                   10000000     kernel32:KERNEL32.dll
 0000:fffcf000       .debug$S                   10000000     kernel32:KERNEL32.dll
 0000:fffcf000       .debug$S                   10000000     kernel32:KERNEL32.dll
 0000:fffcf000       .debug$S                   10000000     kernel32:KERNEL32.dll
 0000:fffcf000       .debug$S                   10000000     kernel32:KERNEL32.dll
 0000:fffcf000       .debug$S                   10000000     kernel32:KERNEL32.dll
 0000:fffcf000       .debug$S                   10000000     kernel32:KERNEL32.dll
 0000:fffcf000       .debug$S                   10000000     kernel32:KERNEL32.dll
 0000:fffcf000       .debug$S                   10000000     kernel32:KERNEL32.dll
 0000:fffcf000       .debug$S                   10000000     kernel32:KERNEL32.dll
 0000:fffcf000       .debug$S                   10000000     kernel32:KERNEL32.dll
 0000:fffcf000       .debug$S                   10000000     kernel32:KERNEL32.dll
 0000:fffcf000       .debug$S                   10000000     kernel32:KERNEL32.dll
 0000:fffcf000       .debug$S                   10000000     kernel32:KERNEL32.dll
 0000:fffcf000       .debug$S                   10000000     kernel32:KERNEL32.dll
 0000:fffcf000       .debug$S                   10000000     kernel32:KERNEL32.dll
 0000:fffcf000       .debug$S                   10000000     kernel32:KERNEL32.dll
 0000:fffcf000       .debug$S                   10000000     kernel32:KERNEL32.dll
 0000:fffcf000       .debug$S                   10000000     kernel32:KERNEL32.dll
 0000:fffcf000       .debug$S                   10000000     kernel32:KERNEL32.dll
 0000:fffcf000       .debug$S                   10000000     kernel32:KERNEL32.dll
 0000:fffcf000       .debug$S                   10000000     kernel32:KERNEL32.dll
 0000:fffcf000       .debug$S                   10000000     kernel32:KERNEL32.dll
 0000:fffcf000       .debug$S                   10000000     kernel32:KERNEL32.dll
 0000:fffcf000       .debug$S                   10000000     kernel32:KERNEL32.dll
 0000:fffcf000       .debug$S                   10000000     kernel32:KERNEL32.dll
 0000:fffcf000       .debug$S                   10000000     kernel32:KERNEL32.dll
 0000:fffcf000       .debug$S                   10000000     kernel32:KERNEL32.dll
 0000:fffcf000       .debug$S                   10000000     kernel32:KERNEL32.dll
 0000:fffcf000       .debug$S                   10000000     kernel32:KERNEL32.dll
 0000:fffcf000       .debug$S                   10000000     kernel32:KERNEL32.dll
 0000:fffcf000       .debug$S                   10000000     kernel32:KERNEL32.dll
 0000:fffcf000       .debug$S                   10000000     kernel32:KERNEL32.dll
 0000:fffcf000       .debug$S                   10000000     kernel32:KERNEL32.dll
 0000:fffcf000       .debug$S                   10000000     kernel32:KERNEL32.dll
 0000:fffcf000       .debug$S                   10000000     kernel32:KERNEL32.dll
 0000:fffcf000       .debug$S                   10000000     kernel32:KERNEL32.dll
 0000:fffcf000       .debug$S                   10000000     kernel32:KERNEL32.dll
 0000:fffcf000       .debug$S                   10000000     kernel32:KERNEL32.dll
 0000:fffcf000       .debug$S                   10000000     kernel32:KERNEL32.dll
 0000:fffcf000       .debug$S                   10000000     kernel32:KERNEL32.dll
 0000:fffcf000       .debug$S                   10000000     kernel32:KERNEL32.dll
 0000:fffcf000       .debug$S                   10000000     kernel32:KERNEL32.dll
 0000:fffcf000       .debug$S                   10000000     kernel32:KERNEL32.dll
 0000:fffcf000       .debug$S                   10000000     kernel32:KERNEL32.dll
 0000:fffcf000       .debug$S                   10000000     kernel32:KERNEL32.dll
 0000:fffcf000       .debug$S                   10000000     kernel32:KERNEL32.dll
 0000:fffcf000       .debug$S                   10000000     kernel32:KERNEL32.dll
 0000:fffcf000       .debug$S                   10000000     kernel32:KERNEL32.dll
 0000:fffcf000       .debug$S                   10000000     kernel32:KERNEL32.dll
 0000:fffcf000       .debug$S                   10000000     kernel32:KERNEL32.dll
 0000:fffcf000       .debug$S                   10000000     kernel32:KERNEL32.dll
 0000:fffcf000       .debug$S                   10000000     kernel32:KERNEL32.dll
 0000:fffcf000       .debug$S                   10000000     kernel32:KERNEL32.dll
 0000:fffcf000       .debug$S                   10000000     kernel32:KERNEL32.dll
 0000:fffcf000       .debug$S                   10000000     kernel32:KERNEL32.dll
 0000:fffcf000       .debug$S                   10000000     kernel32:KERNEL32.dll
 0000:fffcf000       .debug$S                   10000000     kernel32:KERNEL32.dll
 0000:fffcf000       .debug$S                   10000000     kernel32:KERNEL32.dll
 0000:fffcf000       .debug$S                   10000000     kernel32:KERNEL32.dll
 0000:fffcf000       .debug$S                   10000000     kernel32:KERNEL32.dll
 0000:fffcf000       .debug$S                   10000000     kernel32:KERNEL32.dll
 0000:fffcf000       .debug$S                   10000000     kernel32:KERNEL32.dll
 0000:fffcf000       .debug$S                   10000000     kernel32:KERNEL32.dll
 0000:fffcf000       .debug$S                   10000000     kernel32:KERNEL32.dll
 0000:fffcf000       .debug$S                   10000000     kernel32:KERNEL32.dll
 0000:fffcf000       .debug$S                   10000000     kernel32:KERNEL32.dll
 0000:fffcf000       .debug$S                   10000000     kernel32:KERNEL32.dll
 0000:fffcf000       .debug$S                   10000000     kernel32:KERNEL32.dll
 0000:fffcf000       .debug$S                   10000000     kernel32:KERNEL32.dll
 0000:fffcf000       .debug$S                   10000000     kernel32:KERNEL32.dll
 0000:fffcf000       .debug$S                   10000000     kernel32:KERNEL32.dll
 0000:fffcf000       .debug$S                   10000000     kernel32:KERNEL32.dll
 0000:fffcf000       .debug$S                   10000000     kernel32:KERNEL32.dll
 0000:fffcf000       .debug$S                   10000000     kernel32:KERNEL32.dll
 0000:fffcf000       .debug$S                   10000000     kernel32:KERNEL32.dll
 0000:fffcf000       .debug$S                   10000000     kernel32:KERNEL32.dll
 0000:fffcf000       .debug$S                   10000000     kernel32:KERNEL32.dll
 0000:fffcf000       .debug$S                   10000000     kernel32:KERNEL32.dll
 0000:fffcf000       .debug$S                   10000000     kernel32:KERNEL32.dll
 0000:fffcf000       .debug$S                   10000000     kernel32:KERNEL32.dll
 0000:fffcf000       .debug$S                   10000000     kernel32:KERNEL32.dll
 0000:fffcf000       .debug$S                   10000000     kernel32:KERNEL32.dll
 0000:fffcf000       .debug$S                   10000000     kernel32:KERNEL32.dll
 0000:fffcf000       .debug$S                   10000000     kernel32:KERNEL32.dll
 0000:fffcf000       .debug$S                   10000000     kernel32:KERNEL32.dll
 0000:fffcf000       .debug$S                   10000000     kernel32:KERNEL32.dll
 0000:fffcf000       .debug$S                   10000000     kernel32:KERNEL32.dll
 0000:fffcf000       .debug$S                   10000000     kernel32:KERNEL32.dll
 0000:fffcf000       .debug$S                   10000000     kernel32:KERNEL32.dll
 0000:fffcf000       .debug$S                   10000000     kernel32:KERNEL32.dll
 0000:fffcf000       .debug$S                   10000000     kernel32:KERNEL32.dll
 0000:fffcf000       .debug$S                   10000000     kernel32:KERNEL32.dll
 0000:fffcf000       .debug$S                   10000000     kernel32:KERNEL32.dll
 0000:fffcf000       .debug$S                   10000000     kernel32:KERNEL32.dll
 0000:fffcf000       .debug$S                   10000000     kernel32:KERNEL32.dll
 0000:fffcf000       .debug$S                   10000000     kernel32:KERNEL32.dll
 0000:fffcf000       .debug$S                   10000000     kernel32:KERNEL32.dll
 0000:fffcf000       .debug$S                   10000000     kernel32:KERNEL32.dll
 0000:fffcf000       .debug$S                   10000000     kernel32:KERNEL32.dll
 0000:fffcf000       .debug$S                   10000000     kernel32:KERNEL32.dll
 0000:fffcf000       .debug$S                   10000000     kernel32:KERNEL32.dll
 0000:fffcf000       .debug$S                   10000000     kernel32:KERNEL32.dll
 0000:fffcf000       .debug$S                   10000000     ole32:ole32.dll
 0000:fffcf000       .debug$S                   10000000     ole32:ole32.dll
 0000:fffcf000       .debug$S                   10000000     ole32:ole32.dll
 0000:fffcf000       .debug$S                   10000000     ole32:ole32.dll
 0000:fffcf000       .debug$S                   10000000     ole32:ole32.dll
 0000:fffcf000       .debug$S                   10000000     ole32:ole32.dll
 0000:fffcf000       .debug$S                   10000000     ole32:ole32.dll
 0000:fffcf000       .debug$S                   10000000     ole32:ole32.dll
 0000:fffcf000       .debug$S                   10000000     ole32:ole32.dll
 0000:fffcf000       .debug$S                   10000000     ole32:ole32.dll
 0000:fffcf000       .debug$S                   10000000     ole32:ole32.dll
 0000:fffcf000       .debug$S                   10000000     ole32:ole32.dll
 0000:fffcf000       .debug$S                   10000000     ole32:ole32.dll
 0000:fffcf000       .debug$S                   10000000     ole32:ole32.dll
 0000:fffcf000       .debug$S                   10000000     oleaut32:OLEAUT32.dll
 0000:fffcf000       .debug$S                   10000000     oleaut32:OLEAUT32.dll
 0000:fffcf000       .debug$S                   10000000     oleaut32:OLEAUT32.dll
 0000:fffcf000       .debug$S                   10000000     oleaut32:OLEAUT32.dll
 0000:fffcf000       .debug$S                   10000000     oleaut32:OLEAUT32.dll
 0000:fffcf000       .debug$S                   10000000     oleaut32:OLEAUT32.dll
 0000:fffcf000       .debug$S                   10000000     oleaut32:OLEAUT32.dll
 0000:fffcf000       .debug$S                   10000000     oleaut32:OLEAUT32.dll
 0000:fffcf000       .debug$S                   10000000     oleaut32:OLEAUT32.dll
 0000:fffcf000       .debug$S                   10000000     oleaut32:OLEAUT32.dll
 0000:fffcf000       .debug$S                   10000000     oleaut32:OLEAUT32.dll
 0000:fffcf000       .debug$S                   10000000     oleaut32:OLEAUT32.dll
 0000:fffcf000       .debug$S                   10000000     oleaut32:OLEAUT32.dll
 0000:fffcf000       .debug$S                   10000000     oleaut32:OLEAUT32.dll
 0000:fffcf000       .debug$S                   10000000     oleaut32:OLEAUT32.dll
 0000:fffcf000       .debug$S                   10000000     oleaut32:OLEAUT32.dll
 0000:fffcf000       .debug$S                   10000000     user32:USER32.dll
 0000:fffcf000       .debug$S                   10000000     user32:USER32.dll
 0000:fffcf000       .debug$S                   10000000     user32:USER32.dll
 0000:fffcf000       .debug$S                   10000000     user32:USER32.dll
 0000:fffcf000       .debug$S                   10000000     user32:USER32.dll
 0000:fffcf000       .debug$S                   10000000     user32:USER32.dll
 0000:fffcf000       .debug$S                   10000000     user32:USER32.dll
 0000:fffcf000       .debug$S                   10000000     user32:USER32.dll
 0000:fffcf000       .debug$S                   10000000     user32:USER32.dll
 0000:fffcf000       .debug$S                   10000000     user32:USER32.dll
 0000:fffcf000       .debug$S                   10000000     user32:USER32.dll
 0000:fffcf000       .debug$S                   10000000     user32:USER32.dll
 0000:fffcf000       .debug$S                   10000000     user32:USER32.dll
 0000:fffcf000       .debug$S                   10000000     user32:USER32.dll
 0000:fffcf000       .debug$S                   10000000     user32:USER32.dll
 0000:fffcf000       .debug$S                   10000000     user32:USER32.dll
 0000:fffcf000       .debug$S                   10000000     user32:USER32.dll
 0000:fffcf000       .debug$S                   10000000     user32:USER32.dll
 0000:fffcf000       .debug$S                   10000000     user32:USER32.dll
 0000:fffcf000       .debug$S                   10000000     user32:USER32.dll
 0000:fffcf000       .debug$S                   10000000     user32:USER32.dll
 0000:fffcf000       .debug$S                   10000000     user32:USER32.dll
 0000:fffcf000       .debug$S                   10000000     user32:USER32.dll
 0000:fffcf000       .debug$S                   10000000     user32:USER32.dll
 0000:fffcf000       .debug$S                   10000000     user32:USER32.dll
 0000:fffcf000       .debug$S                   10000000     user32:USER32.dll
 0000:fffcf000       .debug$S                   10000000     user32:USER32.dll
 0000:fffcf000       .debug$S                   10000000     user32:USER32.dll
 0000:fffcf000       .debug$S                   10000000     user32:USER32.dll
 0000:fffcf000       .debug$S                   10000000     user32:USER32.dll
 0000:fffcf000       .debug$S                   10000000     user32:USER32.dll
 0000:fffcf000       .debug$S                   10000000     user32:USER32.dll
 0000:fffcf000       .debug$S                   10000000     user32:USER32.dll
 0000:fffcf000       .debug$S                   10000000     user32:USER32.dll
 0000:fffcf000       .debug$S                   10000000     user32:USER32.dll
 0001:00000000       ??__E_AtlComModule@ATL@@YAXXZ 10001000 f   OposVariant.obj
 0001:00000016       ??__E_AtlWinModule@ATL@@YAXXZ 10001016 f   OposVariant.obj
 0001:0000002c       ??__E?pConnMap@?$IConnectionPointContainerImpl@VCOPOSGate@@@ATL@@0PBU_ATL_CONNMAP_ENTRY@2@B@@YAXXZ 1000102c f   Gate.obj
 0001:0000003a       ??__E_Module@@YAXXZ        1000103a f   Gate.obj
 0001:00000064       ??__E_AtlBaseModule@ATL@@YAXXZ 10001064 f   atls:atlbase.obj
 0001:00000bf8       $LN24                      10001bf8     Gate.obj
 0001:0000569b       $LN48                      1000669b     Gate.obj
 0001:000056b3       $LN47                      100066b3     Gate.obj
 0001:00007860       $LN38                      10008860     Gate.obj
 0001:00007878       $LN37                      10008878     Gate.obj
 0001:00008f68       $LN76                      10009f68     Gate.obj
 0001:00008f80       $LN75                      10009f80     Gate.obj
 0001:00009339       _memcpy_s                  1000a339 f   Gate.obj
 0001:0000ad74       ?find_pe_section@@YAPAU_IMAGE_SECTION_HEADER@@QAEI@Z 1000bd74 f   LIBCMT:utility.obj
 0001:0000b093       ?__scrt_initialize_thread_safe_statics@@YAHXZ 1000c093 f   LIBCMT:thread_safe_statics.obj
 0001:0000b0ba       ?__scrt_initialize_thread_safe_statics_platform_specific@@YAXXZ 1000c0ba f   LIBCMT:thread_safe_statics.obj
 0001:0000b13c       ?__scrt_uninitialize_thread_safe_statics@@YAXXZ 1000c13c f   LIBCMT:thread_safe_statics.obj
 0001:0000b4ab       __catch$??2@YAPAXIABUnothrow_t@std@@@Z$0 1000c4ab f   LIBCMT:new_scalar_nothrow.obj
 0001:0000b4e0       $$000000                   1000c4e0     LIBCMT:sehprolg4gs.obj
 0001:0000b540       $$000000                   1000c540     LIBCMT:alloca16.obj
 0001:0000b570       $$000000                   1000c570     LIBCMT:chkstk.obj
 0001:0000b59d       ?dllmain_crt_dispatch@@YGHQAUHINSTANCE__@@KQAX@Z 1000c59d f   LIBCMT:dll_dllmain.obj
 0001:0000b5f0       ?dllmain_crt_process_attach@@YAHQAUHINSTANCE__@@QAX@Z 1000c5f0 f   LIBCMT:dll_dllmain.obj
 0001:0000b6f7       ?dllmain_crt_process_detach@@YAH_N@Z 1000c6f7 f   LIBCMT:dll_dllmain.obj
 0001:0000b7a7       ?dllmain_dispatch@@YAHQAUHINSTANCE__@@KQAX@Z 1000c7a7 f   LIBCMT:dll_dllmain.obj
 0001:0000b8b2       ?dllmain_raw@@YGHQAUHINSTANCE__@@KQAX@Z 1000c8b2 f   LIBCMT:dll_dllmain.obj
 0001:0000bc30       $$000000                   1000cc30     LIBCMT:sehprolg4.obj
 0001:0000bc8c       ___get_entropy             1000cc8c f   LIBCMT:gs_support.obj
 0001:0000bf83       ??$GetProcAddressAll@P6GP6GJPAUHWND__@@IIJ@ZPAUAtlThunkData_t@@@Z@@YAP6GP6GJPAUHWND__@@IIJ@ZPAUAtlThunkData_t@@@ZPAP6GP6GJ0IIJ@Z1@Z@Z 1000cf83 f   atls:atlthunk.obj
 0001:0000bf83       ??$GetProcAddressAll@P6GPAUAtlThunkData_t@@XZ@@YAP6GPAUAtlThunkData_t@@XZPAP6GPAU0@XZ@Z 1000cf83 f   atls:atlthunk.obj
 0001:0000bf83       ??$GetProcAddressAll@P6GXPAUAtlThunkData_t@@@Z@@YAP6GXPAUAtlThunkData_t@@@ZPAP6GX0@Z@Z 1000cf83 f   atls:atlthunk.obj
 0001:0000bf83       ??$GetProcAddressAll@P6GXPAUAtlThunkData_t@@PAXI@Z@@YAP6GXPAUAtlThunkData_t@@PAXI@ZPAP6GX01I@Z@Z 1000cf83 f   atls:atlthunk.obj
 0001:0000c033       ?GetProcAddressSingle@@YA_NPAUHINSTANCE__@@PBDPAPAX@Z 1000d033 f   atls:atlthunk.obj
 0001:0000c185       ?__InitializeThunkPool@@YAHXZ 1000d185 f   atls:atlthunk.obj
 0001:0000c5d0       _ValidateLocalCookies      1000d5d0 f   libvcruntime:chandler4.obj
 0001:0000d5fa       $LN1250                    1000e5fa     libvcruntime:memcmp.obj
 0001:0000d680       $$000000                   1000e680     libvcruntime:memcpy.obj
 0001:0000d8e4       TrailingUpVec              1000e8e4     libvcruntime:memcpy.obj
 0001:0000d990       TrailingDownVec            1000e990     libvcruntime:memcpy.obj
 0001:0000dc00       $$000000                   1000ec00     libvcruntime:memset.obj
 0001:0000e203       ?_FilterSetCurrentException@@YAKPAU_EXCEPTION_POINTERS@@E@Z 1000f203 f   libvcruntime:ehhelpers.obj
 0001:0000e450       $$000000                   1000f450     libvcruntime:memmove.obj
 0001:0000e6b4       TrailingUpVec              1000f6b4     libvcruntime:memmove.obj
 0001:0000e760       TrailingDownVec            1000f760     libvcruntime:memmove.obj
 0001:0000e9d0       $$000000                   1000f9d0     libvcruntime:exsup4.obj
 0001:0000ea60       __unwind_handler4          1000fa60 f   libvcruntime:exsup4.obj
 0001:0000ed3f       ??$BuildCatchObjectHelperInternal@V__FrameHandler3@@@@YAHPAUEHExceptionRecord@@PAXPBU_s_HandlerType@@PBU_s_CatchableType@@@Z 1000fd3f f   libvcruntime:frame.obj
 0001:0000ee7d       ??$BuildCatchObjectInternal@V__FrameHandler3@@@@YAXPAUEHExceptionRecord@@PAXPBU_s_HandlerType@@PBU_s_CatchableType@@@Z 1000fe7d f   libvcruntime:frame.obj
 0001:0000ef16       ??$CatchIt@V__FrameHandler3@@@@YAXPAUEHExceptionRecord@@PAUEHRegistrationNode@@PAU_CONTEXT@@PAXPBU_s_FuncInfo@@PBU_s_HandlerType@@PBU_s_CatchableType@@PBU_s_TryBlockMapEntry@@H1EE@Z 1000ff16 f   libvcruntime:frame.obj
 0001:0000ef96       ??$FindHandler@V__FrameHandler3@@@@YAXPAUEHExceptionRecord@@PAUEHRegistrationNode@@PAU_CONTEXT@@PAXPBU_s_FuncInfo@@EH1@Z 1000ff96 f   libvcruntime:frame.obj
 0001:0000f34c       ??$FindHandlerForForeignException@V__FrameHandler3@@@@YAXPAUEHExceptionRecord@@PAUEHRegistrationNode@@PAU_CONTEXT@@PAXPBU_s_FuncInfo@@HH1@Z 1001034c f   libvcruntime:frame.obj
 0001:0000f664       ?CallCatchBlock@@YAPAXPAUEHExceptionRecord@@PAUEHRegistrationNode@@PAU_CONTEXT@@PBU_s_FuncInfo@@PAXHK@Z 10010664 f   libvcruntime:frame.obj
 0001:0000f828       ?CallUnexpected@@YAXPBU_s_ESTypeList@@@Z 10010828 f   libvcruntime:frame.obj
 0001:0000f848       __catch$?CallUnexpected@@YAXPBU_s_ESTypeList@@@Z$0 10010848 f   libvcruntime:frame.obj
 0001:0000f862       ?ExFilterRethrow@@YAHPAU_EXCEPTION_POINTERS@@@Z 10010862 f   libvcruntime:frame.obj
 0001:0000f9ac       ?IsInExceptionSpec@@YAEPAUEHExceptionRecord@@PBU_s_ESTypeList@@@Z 100109ac f   libvcruntime:frame.obj
 0001:0000fa80       $$000000                   10010a80     libvcruntime:lowhelpr.obj
 0001:0000fad0       $$000000                   10010ad0     libvcruntime:exsup.obj
 0001:0000faf1       __unwind_handler           10010af1 f   libvcruntime:exsup.obj
 0001:0000fc0e       ?try_get_first_available_module@@YAPAUHINSTANCE__@@QBW4module_id@?A0x9d0f8d90@@0@Z 10010c0e f   libvcruntime:winapi_downlevel.obj
 0001:0000fca8       ?try_get_function@@YAPAXW4function_id@?A0x9d0f8d90@@QBDQBW4module_id@2@2@Z 10010ca8 f   libvcruntime:winapi_downlevel.obj
 0001:00010332       ??$common_tcsncpy_s@_W@@YAHQA_WIQB_WI@Z 10011332 f   libucrt:wcsncpy_s.obj
 0001:00010408       ??$common_vsprintf@Vformat_validation_base@__crt_stdio_output@@_W@@YAH_KQA_WIQB_WQAU__crt_locale_pointers@@QAD@Z 10011408 f   libucrt:output.obj
 0001:0001058f       ??$common_vsprintf_s@_W@@YAH_KQA_WIQB_WQAU__crt_locale_pointers@@QAD@Z 1001158f f   libucrt:output.obj
 0001:00010cf3       $LN48                      10011cf3     libucrt:output.obj
 0001:000111fc       $LN18                      100121fc     libucrt:output.obj
 0001:00011210       $LN17                      10012210     libucrt:output.obj
 0001:00011a6b       ??$?RV<lambda_03b1d95aef87969028cfba75ccab2455>@@AAV<lambda_6e4b09c48022b2350581041d5f6b0c4c>@@V<lambda_22bdf7517842c4b3e53723af5aa32b9e>@@@?$__crt_seh_guarded_call@X@@QAEX$$QAV<lambda_03b1d95aef87969028cfba75ccab2455>@@AAV<lambda_6e4b09c48022b2350581041d5f6b0c4c>@@$$QAV<lambda_22bdf7517842c4b3e53723af5aa32b9e>@@@Z 10012a6b f   libucrt:exit.obj
 0001:00011ab8       ??R<lambda_6e4b09c48022b2350581041d5f6b0c4c>@@QBE@XZ 10012ab8 f   libucrt:exit.obj
 0001:00011b92       ?atexit_exception_filter@@YAHK@Z 10012b92 f   libucrt:exit.obj
 0001:00011ba5       ?common_exit@@YAXHW4_crt_exit_cleanup_mode@@W4_crt_exit_return_mode@@@Z 10012ba5 f   libucrt:exit.obj
 0001:00011c09       ?exit_or_terminate_process@@YAXI@Z 10012c09 f   libucrt:exit.obj
 0001:00011c4b       ?is_managed_app@@YA_NXZ    10012c4b f   libucrt:exit.obj
 0001:00011c8e       ?try_cor_exit_process@@YAXI@Z 10012c8e f   libucrt:exit.obj
 0001:00011d1c       ??$common_configure_argv@D@@YAHW4_crt_argv_mode@@@Z 10012d1c f   libucrt:argv_parsing.obj
 0001:00011e52       ??$parse_command_line@D@@YAXPADPAPAD0PAI2@Z 10012e52 f   libucrt:argv_parsing.obj
 0001:00012020       ??$common_initialize_environment_nolock@D@@YAHXZ 10013020 f   libucrt:environment_initialization.obj
 0001:00012073       ??$create_environment@D@@YAQAPADQAD@Z 10013073 f   libucrt:environment_initialization.obj
 0001:00012143       ??$free_environment@D@@YAXQAPAD@Z 10013143 f   libucrt:environment_initialization.obj
 0001:00012143       ??$free_environment@_W@@YAXQAPA_W@Z 10013143 f   libucrt:environment_initialization.obj
 0001:0001219b       ??$uninitialize_environment_internal@D@@YAXAAPAPAD@Z 1001319b f   libucrt:environment_initialization.obj
 0001:000121b6       ??$uninitialize_environment_internal@_W@@YAXAAPAPA_W@Z 100131b6 f   libucrt:environment_initialization.obj
 0001:0001220d       ??$?RV<lambda_69a2805e680e0e292e8ba93315fe43a8>@@AAV<lambda_f03950bc5685219e0bcd2087efbe011e>@@V<lambda_03fcd07e894ec930e3f35da366ca99d6>@@@?$__crt_seh_guarded_call@H@@QAEH$$QAV<lambda_69a2805e680e0e292e8ba93315fe43a8>@@AAV<lambda_f03950bc5685219e0bcd2087efbe011e>@@$$QAV<lambda_03fcd07e894ec930e3f35da366ca99d6>@@@Z 1001320d f   libucrt:onexit.obj
 0001:00012268       ??$?RV<lambda_8e746cf0007f6ed984d6f78af1fec997>@@AAV<lambda_22ebabd17bc4fa466a2aca6d8deb888d>@@V<lambda_18ed0c0b38a6dc0daf1e7ac6d6adf05e>@@@?$__crt_seh_guarded_call@H@@QAEH$$QAV<lambda_8e746cf0007f6ed984d6f78af1fec997>@@AAV<lambda_22ebabd17bc4fa466a2aca6d8deb888d>@@$$QAV<lambda_18ed0c0b38a6dc0daf1e7ac6d6adf05e>@@@Z 10013268 f   libucrt:onexit.obj
 0001:000122e2       ??R<lambda_22ebabd17bc4fa466a2aca6d8deb888d>@@QBEHXZ 100132e2 f   libucrt:onexit.obj
 0001:0001240b       ??R<lambda_f03950bc5685219e0bcd2087efbe011e>@@QBEHXZ 1001340b f   libucrt:onexit.obj
 0001:00012584       _initialize_global_variables 10013584 f   libucrt:initialization.obj
 0001:00012591       _initialize_c              10013591 f   libucrt:initialization.obj
 0001:000125ab       _initialize_environment    100135ab f   libucrt:initialization.obj
 0001:000125ab       _initialize_global_state_isolation 100135ab f   libucrt:initialization.obj
 0001:000125ab       _report_memory_leaks       100135ab f   libucrt:initialization.obj
 0001:000125ab       _uninitialize_c            100135ab f   libucrt:initialization.obj
 0001:000125ab       _uninitialize_global_state_isolation 100135ab f   libucrt:initialization.obj
 0001:000125ae       _uninitialize_environment  100135ae f   libucrt:initialization.obj
 0001:000125b6       _initialize_pointers       100135b6 f   libucrt:initialization.obj
 0001:000125e4       _uninitialize_vcruntime    100135e4 f   libucrt:initialization.obj
 0001:000125ed       _uninitialize_allocated_memory 100135ed f   libucrt:initialization.obj
 0001:00012604       _uninitialize_allocated_io_buffers 10013604 f   libucrt:initialization.obj
 0001:00012654       ??R<lambda_af42a3ee9806e9a7305d451646e05244>@@QBEXAAPAU__crt_multibyte_data@@@Z 10013654 f   libucrt:initialization.obj
 0001:00012f40       $$000000                   10013f40     libucrt:strncmp.obj
 0001:0001302c       ??$?RV<lambda_15ade71b0218206bbe3333a0c9b79046>@@AAV<lambda_da44e0f8b0f19ba52fefafb335991732>@@V<lambda_207f2d024fc103971653565357d6cd41>@@@?$__crt_seh_guarded_call@X@@QAEX$$QAV<lambda_15ade71b0218206bbe3333a0c9b79046>@@AAV<lambda_da44e0f8b0f19ba52fefafb335991732>@@$$QAV<lambda_207f2d024fc103971653565357d6cd41>@@@Z 1001402c f   libucrt:per_thread_data.obj
 0001:0001307e       ??$?RV<lambda_38edbb1296d33220d7e4dd0ed76b244a>@@AAV<lambda_5ce1d447e08cb34b2473517608e21441>@@V<lambda_fb385d3da700c9147fc39e65dd577a8c>@@@?$__crt_seh_guarded_call@X@@QAEX$$QAV<lambda_38edbb1296d33220d7e4dd0ed76b244a>@@AAV<lambda_5ce1d447e08cb34b2473517608e21441>@@$$QAV<lambda_fb385d3da700c9147fc39e65dd577a8c>@@@Z 1001407e f   libucrt:per_thread_data.obj
 0001:000130e9       ??$?RV<lambda_6affb1475c98b40b75cdec977db92e3c>@@AAV<lambda_b8d4b9c228a6ecc3f80208dbb4b4a104>@@V<lambda_608742c3c92a14382c1684fc64f96c88>@@@?$__crt_seh_guarded_call@X@@QAEX$$QAV<lambda_6affb1475c98b40b75cdec977db92e3c>@@AAV<lambda_b8d4b9c228a6ecc3f80208dbb4b4a104>@@$$QAV<lambda_608742c3c92a14382c1684fc64f96c88>@@@Z 100140e9 f   libucrt:per_thread_data.obj
 0001:0001313e       ??$?RV<lambda_a7e850c220f1c8d1e6efeecdedd162c6>@@AAV<lambda_46720907175c18b6c9d2717bc0d2d362>@@V<lambda_9048902d66e8d99359bc9897bbb930a8>@@@?$__crt_seh_guarded_call@X@@QAEX$$QAV<lambda_a7e850c220f1c8d1e6efeecdedd162c6>@@AAV<lambda_46720907175c18b6c9d2717bc0d2d362>@@$$QAV<lambda_9048902d66e8d99359bc9897bbb930a8>@@@Z 1001413e f   libucrt:per_thread_data.obj
 0001:00013198       ?construct_ptd@@YAXQAU__acrt_ptd@@QAPAU__crt_locale_data@@@Z 10014198 f   libucrt:per_thread_data.obj
 0001:00013231       ?destroy_fls@@YGXPAX@Z     10014231 f   libucrt:per_thread_data.obj
 0001:00013252       ?destroy_ptd@@YAXQAU__acrt_ptd@@@Z 10014252 f   libucrt:per_thread_data.obj
 0001:0001331f       ?replace_current_thread_locale_nolock@@YAXQAU__acrt_ptd@@QAU__crt_locale_data@@@Z 1001431f f   libucrt:per_thread_data.obj
 0001:0001372f       ?try_get_AreFileApisANSI@@YAP6GHXZXZ 1001472f f   libucrt:winapi_thunks.obj
 0001:00013749       ?try_get_LCMapStringEx@@YAP6GHPB_WK0HPA_WHPAU_nlsversioninfo@@PAXJ@ZXZ 10014749 f   libucrt:winapi_thunks.obj
 0001:00013763       ?try_get_LocaleNameToLCID@@YAP6GKPB_WK@ZXZ 10014763 f   libucrt:winapi_thunks.obj
 0001:0001377d       ?try_get_first_available_module@@YAPAUHINSTANCE__@@QBW4module_id@?A0x391cf84c@@0@Z 1001477d f   libucrt:winapi_thunks.obj
 0001:00013844       ?try_get_function@@YAPAXW4function_id@?A0x391cf84c@@QBDQBW4module_id@2@2@Z 10014844 f   libucrt:winapi_thunks.obj
 0001:00013fa7       ?fe_to_nearest@@YA_NQBN_KF@Z 10014fa7 f   libucrt:cvt.obj
 0001:0001404a       ?fp_format_a@@YAHQBNPADIQADIH_NIQAU__crt_locale_pointers@@W4__acrt_rounding_mode@@@Z 1001504a f   libucrt:cvt.obj
 0001:00014359       ?fp_format_e@@YAHQBNQADI1IH_NIQAU__crt_locale_pointers@@W4__acrt_rounding_mode@@@Z 10015359 f   libucrt:cvt.obj
 0001:00014401       ?fp_format_e_internal@@YAHQADIH_NIQAU_strflt@@1QAU__crt_locale_pointers@@@Z 10015401 f   libucrt:cvt.obj
 0001:00014549       ?fp_format_f@@YAHQBNQADI1IHQAU__crt_locale_pointers@@W4__acrt_rounding_mode@@@Z 10015549 f   libucrt:cvt.obj
 0001:000145da       ?fp_format_f_internal@@YAHQADIHQAU_strflt@@_NQAU__crt_locale_pointers@@@Z 100155da f   libucrt:cvt.obj
 0001:000146d2       ?fp_format_g@@YAHQBNQADI1IH_NIQAU__crt_locale_pointers@@@Z 100156d2 f   libucrt:cvt.obj
 0001:0001479b       ?fp_format_nan_or_infinity@@YAHW4__acrt_fp_class@@_NPADI1@Z 1001579b f   libucrt:cvt.obj
 0001:00014830       ?shift_bytes@@YAXQADI0H@Z  10015830 f   libucrt:cvt.obj
 0001:00014864       ?should_round_up@@YA_NQBN_KFW4__acrt_rounding_mode@@@Z 10015864 f   libucrt:cvt.obj
 0001:00014bcd       ??$?RV<lambda_e5124f882df8998aaf41531e079ba474>@@AAV<lambda_3e16ef9562a7dcce91392c22ab16ea36>@@V<lambda_e25ca0880e6ef98be67edffd8c599615>@@@?$__crt_seh_guarded_call@X@@QAEX$$QAV<lambda_e5124f882df8998aaf41531e079ba474>@@AAV<lambda_3e16ef9562a7dcce91392c22ab16ea36>@@$$QAV<lambda_e25ca0880e6ef98be67edffd8c599615>@@@Z 10015bcd f   libucrt:wsetlocale.obj
 0001:00014c6d       ?initialize_inherited_file_handles_nolock@@YAXXZ 10015c6d f   libucrt:ioinit.obj
 0001:00014d23       ?initialize_stdio_handles_nolock@@YAXXZ 10015d23 f   libucrt:ioinit.obj
 0001:00014f34       ?<lambda_invoker_cdecl>@<lambda_838c7f62c73c983481e27c09e84b0b5d>@@CAHPBX0@Z 10015f34 f   libucrt:argv_wildcards.obj
 0001:00014f4c       ??$__acrt_convert_wcs_mbs_cp@D_WV<lambda_62f6974d9771e494a5ea317cc32e971c>@@U__crt_win32_buffer_internal_dynamic_resizing@@@@YAHQBDAAV?$__crt_win32_buffer@_WU__crt_win32_buffer_internal_dynamic_resizing@@@@ABV<lambda_62f6974d9771e494a5ea317cc32e971c>@@I@Z 10015f4c f   libucrt:argv_wildcards.obj
 0001:00014ffe       ??$__acrt_convert_wcs_mbs_cp@_WDV<lambda_28bda7af82a03b66c1cb3803a755f95d>@@U__crt_win32_buffer_internal_dynamic_resizing@@@@YAHQB_WAAV?$__crt_win32_buffer@DU__crt_win32_buffer_internal_dynamic_resizing@@@@ABV<lambda_28bda7af82a03b66c1cb3803a755f95d>@@I@Z 10015ffe f   libucrt:argv_wildcards.obj
 0001:000150ea       ??$common_expand_argv_wildcards@D@@YAHQAPADQAPAPAD@Z 100160ea f   libucrt:argv_wildcards.obj
 0001:000152d9       ??$copy_and_add_argument_to_buffer@D@@YAHQBD0IAAV?$argument_list@D@?A0x5f5c8891@@@Z 100162d9 f   libucrt:argv_wildcards.obj
 0001:0001538a       ??$expand_argument_wildcards@D@@YAHQAD0AAV?$argument_list@D@?A0x5f5c8891@@@Z 1001638a f   libucrt:argv_wildcards.obj
 0001:000156d4       ?expand_if_necessary@?$argument_list@D@?A0x5f5c8891@@AAEHXZ 100166d4 f   libucrt:argv_wildcards.obj
 0001:00015766       ??$__acrt_convert_wcs_mbs_cp@_WDV<lambda_0fec1a7b3f42a53036604e18c2d5e07e>@@U__crt_win32_buffer_no_resizing@@@@YAHQB_WAAV?$__crt_win32_buffer@DU__crt_win32_buffer_no_resizing@@@@ABV<lambda_0fec1a7b3f42a53036604e18c2d5e07e>@@I@Z 10016766 f   libucrt:getmodulefilenamea.obj
 0001:00015909       ??$?RV<lambda_ceb1ee4838e85a9d631eb091e2fbe199>@@AAV<lambda_ae742caa10f662c28703da3d2ea5e57e>@@V<lambda_cd08b5d6af4937fe54fc07d0c9bf6b37>@@@?$__crt_seh_guarded_call@X@@QAEX$$QAV<lambda_ceb1ee4838e85a9d631eb091e2fbe199>@@AAV<lambda_ae742caa10f662c28703da3d2ea5e57e>@@$$QAV<lambda_cd08b5d6af4937fe54fc07d0c9bf6b37>@@@Z 10016909 f   libucrt:mbctype.obj
 0001:00015956       ??R<lambda_ae742caa10f662c28703da3d2ea5e57e>@@QBEXXZ 10016956 f   libucrt:mbctype.obj
 0001:000159d9       ?CPtoLocaleName@@YAPB_WH@Z 100169d9 f   libucrt:mbctype.obj
 0001:00015a17       ?getSystemCP@@YAHH@Z       10016a17 f   libucrt:mbctype.obj
 0001:00015a88       ?setSBCS@@YAXPAU__crt_multibyte_data@@@Z 10016a88 f   libucrt:mbctype.obj
 0001:00015aed       ?setSBUpLow@@YAXPAU__crt_multibyte_data@@@Z 10016aed f   libucrt:mbctype.obj
 0001:00015c6d       ?setmbcp_internal@@YAHH_NQAU__acrt_ptd@@QAPAU__crt_multibyte_data@@@Z 10016c6d f   libucrt:mbctype.obj
 0001:00015d81       ?update_thread_multibyte_data_internal@@YAPAU__crt_multibyte_data@@QAU__acrt_ptd@@QAPAU1@@Z 10016d81 f   libucrt:mbctype.obj
 0001:0001606f       _memcpy_s                  1001706f f   libucrt:cfout.obj
 0001:0001606f       _memcpy_s                  1001706f f   libucrt:mbctype.obj
 0001:000160f0       ?x_ismbbtype_l@@YAHPAU__crt_locale_pointers@@IHH@Z 100170f0 f   libucrt:ismbbyte.obj
 0001:000162ab       ?find_end_of_double_null_terminated_sequence@@YAPB_WQB_W@Z 100172ab f   libucrt:get_environment_from_os.obj
 0001:0001641a       ??$?RV<lambda_cbab9ec6f41b0180b23cc171c22676b0>@@AAV<lambda_44731a7d0e6d81c3e6aa82d741081786>@@V<lambda_4b292cb8dd18144e164572427af410ab>@@@?$__crt_seh_guarded_call@P6AXH@Z@@QAEP6AXH@Z$$QAV<lambda_cbab9ec6f41b0180b23cc171c22676b0>@@AAV<lambda_44731a7d0e6d81c3e6aa82d741081786>@@$$QAV<lambda_4b292cb8dd18144e164572427af410ab>@@@Z 1001741a f   libucrt:signal.obj
 0001:0001647e       ?get_global_action_nolock@@YAPAP6AXH@ZH@Z 1001747e f   libucrt:signal.obj
 0001:000164c0       ?siglookup@@YAPAU__crt_signal_action_t@@HQAU1@@Z 100174c0 f   libucrt:signal.obj
 0001:00016779       ??$?RV<lambda_2866be3712abc81a800a822484c830d8>@@AAV<lambda_39ca0ed439415581b5b15c265174cece>@@V<lambda_2b24c74d71094a6cd0cb82e44167d71b>@@@?$__crt_seh_guarded_call@X@@QAEX$$QAV<lambda_2866be3712abc81a800a822484c830d8>@@AAV<lambda_39ca0ed439415581b5b15c265174cece>@@$$QAV<lambda_2b24c74d71094a6cd0cb82e44167d71b>@@@Z 10017779 f   libucrt:fflush.obj
 0001:00016805       ??$?RV<lambda_2cc53f568c5a2bb6f192f930a45d44ea>@@AAV<lambda_ab61a845afdef5b7c387490eaf3616ee>@@V<lambda_c2ffc0b7726aa6be21d5f0026187e748>@@@?$__crt_seh_guarded_call@X@@QAEX$$QAV<lambda_2cc53f568c5a2bb6f192f930a45d44ea>@@AAV<lambda_ab61a845afdef5b7c387490eaf3616ee>@@$$QAV<lambda_c2ffc0b7726aa6be21d5f0026187e748>@@@Z 10017805 f   libucrt:fflush.obj
 0001:000168b1       ?common_flush_all@@YAH_N@Z 100178b1 f   libucrt:fflush.obj
 0001:000168fe       ?common_flush_all_should_try_to_flush_stream@@YA_NV__crt_stdio_stream@@QAH@Z 100178fe f   libucrt:fflush.obj
 0001:00016931       ?is_stream_flushable_or_commitable@@YA_NJ@Z 10017931 f   libucrt:fflush.obj
 0001:00016e3a       ?GetTableIndexFromLocaleName@@YAHPB_W@Z 10017e3a f   libucrt:lcidtoname_downlevel.obj
 0001:00016ef0       ??R<lambda_3d301b9e52f5099be73030e1f0bf487e>@@QBEIPBD@Z 10017ef0 f   libucrt:mbrtowc.obj
 0001:00017076       ?should_round_up@@YA_NQBDHW4__acrt_has_trailing_digits@@W4__acrt_rounding_mode@@@Z 10018076 f   libucrt:_fptostr.obj
 0001:00018e14       ?free_crt_array_internal@@YAXQAPBXI@Z 10019e14 f   libucrt:inittime.obj
 0001:000197de       ??$common_tcsncpy_s@D@@YAHQADIQBDI@Z 1001a7de f   libucrt:strncpy_s.obj
 0001:000198a0       $$000000                   1001a8a0     libucrt:strpbrk.obj
 0001:00019984       ?__acrt_LCMapStringA_stat@@YAHPAU__crt_locale_pointers@@PB_WKPBDHPADHHH@Z 1001a984 f   libucrt:lcmapstringa.obj
 0001:00019bb7       ?initialize_multibyte@@YAHXZ 1001abb7 f   libucrt:multibyte_initializer.obj
 0001:00019bc6       ??$?RV<lambda_9e9de3de5fa147e2223d7db92bc10aa6>@@AAV<lambda_38ce7e780aa69e748d6df282ebc68efe>@@V<lambda_8ca6da459f0f6780f1cff60fdc3d00e5>@@@?$__crt_seh_guarded_call@H@@QAEH$$QAV<lambda_9e9de3de5fa147e2223d7db92bc10aa6>@@AAV<lambda_38ce7e780aa69e748d6df282ebc68efe>@@$$QAV<lambda_8ca6da459f0f6780f1cff60fdc3d00e5>@@@Z 1001abc6 f   libucrt:commit.obj
 0001:00019ce5       ?write_double_translated_ansi_nolock@@YA?AUwrite_result@?A0x17268360@@HQBDI@Z 1001ace5 f   libucrt:write.obj
 0001:0001a091       ?write_double_translated_unicode_nolock@@YA?AUwrite_result@?A0x17268360@@QBDI@Z 1001b091 f   libucrt:write.obj
 0001:0001a0f9       ?write_requires_double_translation_nolock@@YA_NH@Z 1001b0f9 f   libucrt:write.obj
 0001:0001a16a       ?write_text_ansi_nolock@@YA?AUwrite_result@?A0x17268360@@HQBDI@Z 1001b16a f   libucrt:write.obj
 0001:0001a245       ?write_text_utf16le_nolock@@YA?AUwrite_result@?A0x17268360@@HQBDI@Z 1001b245 f   libucrt:write.obj
 0001:0001a32e       ?write_text_utf8_nolock@@YA?AUwrite_result@?A0x17268360@@HQBDI@Z 1001b32e f   libucrt:write.obj
 0001:0001aa50       $$000000                   1001ba50     libucrt:log10_impl.obj
 0001:0001ab60       $$000000                   1001bb60     libucrt:ceil_pentium4.obj
 0001:0001ac7d       ?to_abstract_control@@YA?AW4__acrt_fenv_abstract_control@@W4__acrt_fenv_machine_sse_control@@@Z 1001bc7d f   libucrt:_fenvutils.obj
 0001:0001ad39       ?to_abstract_control@@YA?AW4__acrt_fenv_abstract_control@@W4__acrt_fenv_machine_x87_control@@@Z 1001bd39 f   libucrt:_fenvutils.obj
 0001:0001adf2       ?to_machine_sse_control@@YA?AW4__acrt_fenv_machine_sse_control@@W4__acrt_fenv_abstract_control@@@Z 1001bdf2 f   libucrt:_fenvutils.obj
 0001:0001aebf       ?to_machine_x87_control@@YA?AW4__acrt_fenv_machine_x87_control@@W4__acrt_fenv_abstract_control@@@Z 1001bebf f   libucrt:_fenvutils.obj
 0001:0001b253       ??$common_lseek_nolock@_J@@YA_JH_JH@Z 1001c253 f   libucrt:lseek.obj
 0001:0001b439       ___hw_cw_sse2              1001c439 f   libucrt:ieee87.obj
 0001:0001b8bf       __hw_cw                    1001c8bf f   libucrt:ieee87.obj
 0001:0001b970       $$000000                   1001c970     libucrt:log10_pentium4.obj
 0001:0001bc00       $$000000                   1001cc00     libucrt:87tran.obj
 0001:0001be10       $$000000                   1001ce10     libucrt:87disp.obj
 0001:0001c070       $$000000                   1001d070     libucrt:common.obj
 0001:0001c200       $$000000                   1001d200     libucrt:genexcep.obj
 0001:0001c4fc       ??$?RV<lambda_218ce3db14220d0be481dae8ef3383b6>@@AAV<lambda_628dfdc04ba53c8bfc02c9951375f3f5>@@V<lambda_57dc472bd5c9d5f3b2cbca59b8a843ae>@@@?$__crt_seh_guarded_call@H@@QAEH$$QAV<lambda_218ce3db14220d0be481dae8ef3383b6>@@AAV<lambda_628dfdc04ba53c8bfc02c9951375f3f5>@@$$QAV<lambda_57dc472bd5c9d5f3b2cbca59b8a843ae>@@@Z 1001d4fc f   libucrt:close.obj
 0001:0001c6f0       $$000000                   1001d6f0     libucrt:_strnicm.obj
 0001:0001c751       ?__dcrt_lowio_initialize_console_output@@YAXXZ 1001d751 f   libucrt:initcon.obj
 0001:0001d630       $$000000                   1001e630     LIBCMT:ulldvrm.obj
 0001:0001d6d0       $$000000                   1001e6d0     LIBCMT:llmul.obj
 0001:0001d710       $$000000                   1001e710     LIBCMT:lldvrm.obj
 0001:0001d7f0       $$000000                   1001e7f0     LIBCMT:llshl.obj
 0001:0001d810       $$000000                   1001e810     LIBCMT:ullshr.obj
 0001:0001d830       $$000000                   1001e830     LIBCMT:ftol2.obj
 0001:0001dad0       $$000000                   1001ead0     libvcruntime:strrchr.obj
 0001:0001dc10       $$000000                   1001ec10     libvcruntime:strchr.obj
 0001:0001ddb3       __ehhandler$??2@YAPAXIABUnothrow_t@std@@@Z 1001edb3 f   LIBCMT:new_scalar_nothrow.obj
 0001:0001ddce       __ehhandler$?CallUnexpected@@YAXPBU_s_ESTypeList@@@Z 1001edce f   libvcruntime:frame.obj
 0001:0001dde9       ??__F_AtlComModule@ATL@@YAXXZ 1001ede9 f   OposVariant.obj
 0001:0001ddf3       ??__F_AtlWinModule@ATL@@YAXXZ 1001edf3 f   OposVariant.obj
 0001:0001de0d       ??__F_Module@@YAXXZ        1001ee0d f   Gate.obj
 0001:0001de21       ??__F_AtlBaseModule@ATL@@YAXXZ 1001ee21 f   atls:atlbase.obj
 0002:00000304       ?_AtlBaseModule$initializer$@ATL@@3P6AXXZA 1001f304     atls:atlbase.obj
 0002:00000308       ?_AtlComModule$initializer$@ATL@@3P6AXXZA 1001f308     OposVariant.obj
 0002:0000030c       ?_AtlWinModule$initializer$@ATL@@3P6AXXZA 1001f30c     OposVariant.obj
 0002:00000310       ?_Module$initializer$@@3P6AXXZA 1001f310     Gate.obj
 0002:00000314       ??pConnMap$initializer$@?$IConnectionPointContainerImpl@VCOPOSGate@@@ATL@@0P6AXXZA@@3P6AXXZA 1001f314     Gate.obj
 0002:00000320       ?__scrt_initialize_tss_var@@3P6AHXZA 1001f320     LIBCMT:thread_safe_statics.obj
 0002:00001730       _GS_ExceptionPointers      10020730     LIBCMT:gs_report.obj
 0002:000018c0       ?tokenTable@@3QBUStringLiteral@@B 100208c0     libvcruntime:undname.obj
 0002:00001940       ?nameTable@@3QBUStringLiteral@@B 10020940     libvcruntime:undname.obj
 0002:00001bd8       ?rttiTable@@3QBUStringLiteral@@B 10020bd8     libvcruntime:undname.obj
 0002:00001c00       ?IndirectionName@@3QBUStringLiteral@@B 10020c00     libvcruntime:undname.obj
 0002:00001c30       ?PrefixName@@3QBUStringLiteral@@B 10020c30     libvcruntime:undname.obj
 0002:00002260       ?module_names@?A0x9d0f8d90@@3QBQB_WB 10021260     libvcruntime:winapi_downlevel.obj
 0002:00002308       ?candidate_modules@?1??try_get_FlsAlloc@@YAP6GKP6GXPAX@Z@ZXZ@4QBW4module_id@?A0x9d0f8d90@@B 10021308     libvcruntime:winapi_downlevel.obj
 0002:0000231c       ?candidate_modules@?1??try_get_FlsFree@@YAP6GHK@ZXZ@4QBW4module_id@?A0x9d0f8d90@@B 1002131c     libvcruntime:winapi_downlevel.obj
 0002:0000232c       ?candidate_modules@?1??try_get_FlsGetValue@@YAP6GPAXK@ZXZ@4QBW4module_id@?A0x9d0f8d90@@B 1002132c     libvcruntime:winapi_downlevel.obj
 0002:00002340       ?candidate_modules@?1??try_get_FlsSetValue@@YAP6GHKPAX@ZXZ@4QBW4module_id@?A0x9d0f8d90@@B 10021340     libvcruntime:winapi_downlevel.obj
 0002:00002354       ?candidate_modules@?1??try_get_InitializeCriticalSectionEx@@YAP6GHPAU_RTL_CRITICAL_SECTION@@KK@ZXZ@4QBW4module_id@?A0x9d0f8d90@@B 10021354     libvcruntime:winapi_downlevel.obj
 0002:00002378       ?errtable@@3QBUerrentry@?A0x31fdb9ec@@B 10021378     libucrt:errno.obj
 0002:000029c0       ___acrt_initializers       100219c0     libucrt:initialization.obj
 0002:00002a40       ?module_names@?A0x391cf84c@@3QBQB_WB 10021a40     libucrt:winapi_thunks.obj
 0002:00002eb8       ?candidate_modules@?1??try_get_AreFileApisANSI@@YAP6GHXZXZ@4QBW4module_id@?A0x391cf84c@@B 10021eb8     libucrt:winapi_thunks.obj
 0002:00002ecc       ?candidate_modules@?1??try_get_FlsAlloc@@YAP6GKP6GXPAX@Z@ZXZ@4QBW4module_id@?A0x391cf84c@@B 10021ecc     libucrt:winapi_thunks.obj
 0002:00002ed4       ?candidate_modules@?1??try_get_FlsFree@@YAP6GHK@ZXZ@4QBW4module_id@?A0x391cf84c@@B 10021ed4     libucrt:winapi_thunks.obj
 0002:00002edc       ?candidate_modules@?1??try_get_FlsGetValue@@YAP6GPAXK@ZXZ@4QBW4module_id@?A0x391cf84c@@B 10021edc     libucrt:winapi_thunks.obj
 0002:00002ee4       ?candidate_modules@?1??try_get_FlsSetValue@@YAP6GHKPAX@ZXZ@4QBW4module_id@?A0x391cf84c@@B 10021ee4     libucrt:winapi_thunks.obj
 0002:00002eec       ?candidate_modules@?1??try_get_InitializeCriticalSectionEx@@YAP6GHPAU_RTL_CRITICAL_SECTION@@KK@ZXZ@4QBW4module_id@?A0x391cf84c@@B 10021eec     libucrt:winapi_thunks.obj
 0002:00002ef4       ?candidate_modules@?1??try_get_LCMapStringEx@@YAP6GHPB_WK0HPA_WHPAU_nlsversioninfo@@PAXJ@ZXZ@4QBW4module_id@?A0x391cf84c@@B 10021ef4     libucrt:winapi_thunks.obj
 0002:00002f0c       ?candidate_modules@?1??try_get_LocaleNameToLCID@@YAP6GKPB_WK@ZXZ@4QBW4module_id@?A0x391cf84c@@B 10021f0c     libucrt:winapi_thunks.obj
 0002:00002f28       ?candidate_modules@?1??try_get_AppPolicyGetProcessTerminationMethod@@YAP6GJPAXPAW4AppPolicyProcessTerminationMethod@@@ZXZ@4QBW4module_id@?A0x391cf84c@@B 10021f28     libucrt:winapi_thunks.obj
 0002:00002f54       ?candidate_modules@?1??try_get_SetThreadStackGuarantee@@YAP6GHPAK@ZXZ@4QBW4module_id@?A0x391cf84c@@B 10021f54     libucrt:winapi_thunks.obj
 0002:00002f78       ?strings@?1??fp_format_nan_or_infinity@@YAHW4__acrt_fp_class@@_NPADI1@Z@4QAY03QBDA 10021f78     libucrt:cvt.obj
 0002:000034c0       ?_mb_locale_names@@3QBQB_WB 100224c0     libucrt:mbctype.obj
 0002:00003d08       ?LcidToLocaleNameTable@?A0x881e4c05@@3QBULcidToLocaleName@1@B 10022d08     libucrt:lcidtoname_downlevel.obj
 0002:00004e30       ?LocaleNameToIndexTable@?A0x881e4c05@@3QBULocaleNameIndex@1@B 10023e30     libucrt:lcidtoname_downlevel.obj
 0002:00006770       LOG_name                   10025770     libucrt:log10_impl.obj
 0002:00006780       _One                       10025780     libucrt:ceil_pentium4.obj
 0002:00006790       _Bns                       10025790     libucrt:ceil_pentium4.obj
 0002:000067a0       _Zero                      100257a0     libucrt:ceil_pentium4.obj
 0002:000067b0       _S                         100257b0     libucrt:ceil_pentium4.obj
 0002:000067c0       _NegZero                   100257c0     libucrt:ceil_pentium4.obj
 0002:000067d0       emask                      100257d0     libucrt:log10_pentium4.obj
 0002:000067e0       CC                         100257e0     libucrt:log10_pentium4.obj
 0002:000067f0       Magic                      100257f0     libucrt:log10_pentium4.obj
 0002:00006800       hi_mask                    10025800     libucrt:log10_pentium4.obj
 0002:00006810       LOG10_2                    10025810     libucrt:log10_pentium4.obj
 0002:00006820       place_L                    10025820     libucrt:log10_pentium4.obj
 0002:00006840       One                        10025840     libucrt:log10_pentium4.obj
 0002:00006850       Zero                       10025850     libucrt:log10_pentium4.obj
 0002:00006860       Two52                      10025860     libucrt:log10_pentium4.obj
 0002:00006870       Infs                       10025870     libucrt:log10_pentium4.obj
 0002:00006880       NaN                        10025880     libucrt:log10_pentium4.obj
 0002:00006890       coeff                      10025890     libucrt:log10_pentium4.obj
 0002:000068ee       _log2max                   100258ee     libucrt:87tran.obj
 0002:000068f8       _smallarg                  100258f8     libucrt:87tran.obj
 0002:00006902       _half                      10025902     libucrt:87tran.obj
 0002:0000694e       One                        1002594e     libucrt:87disp.obj
 0002:00006956       Three                      10025956     libucrt:87disp.obj
 0002:0000695e       XAMtoTagTab                1002595e     libucrt:87disp.obj
 0002:00006970       One                        10025970     libucrt:common.obj
 0002:00006984       DblMax                     10025984     libucrt:common.obj
 0002:0000698c       DblMin                     1002598c     libucrt:common.obj
 0002:00006994       IeeeAdjO                   10025994     libucrt:common.obj
 0002:0000699c       IeeeAdjU                   1002599c     libucrt:common.obj
 0002:000069a4       _infinity                  100259a4     libucrt:common.obj
 0002:000069ac       _zero                      100259ac     libucrt:common.obj
 0002:000069f8       _over                      100259f8     libucrt:fpctrl.obj
 0002:00006a04       _under                     10025a04     libucrt:fpctrl.obj
 0002:00007238       ?_names@?1??_get_fname@@9@9 10026238     libucrt:fpexcept.obj
 0002:000073e0       two32                      100263e0     LIBCMT:ftol2.obj
 0002:000073e4       two63                      100263e4     LIBCMT:ftol2.obj
 0002:000073e8       _NaN                       100263e8     LIBCMT:ftol2.obj
 0002:00007a98       __sehtable$?_AtlVerifyStackAvailable@_ATL_SAFE_ALLOCA_IMPL@ATL@@YA_NK@Z 10026a98     Gate.obj
 0002:00007ab8       __sehtable$___scrt_is_nonwritable_in_current_image 10026ab8     LIBCMT:utility.obj
 0002:00007ad4       __catchsym$??2@YAPAXIABUnothrow_t@std@@@Z$2 10026ad4     LIBCMT:new_scalar_nothrow.obj
 0002:00007ae4       __unwindtable$??2@YAPAXIABUnothrow_t@std@@@Z 10026ae4     LIBCMT:new_scalar_nothrow.obj
 0002:00007af4       __tryblocktable$??2@YAPAXIABUnothrow_t@std@@@Z 10026af4     LIBCMT:new_scalar_nothrow.obj
 0002:00007b08       __ehfuncinfo$??2@YAPAXIABUnothrow_t@std@@@Z 10026b08     LIBCMT:new_scalar_nothrow.obj
 0002:00007b30       __sehtable$?dllmain_crt_process_attach@@YAHQAUHINSTANCE__@@QAX@Z 10026b30     LIBCMT:dll_dllmain.obj
 0002:00007b50       __sehtable$?dllmain_crt_process_detach@@YAH_N@Z 10026b50     LIBCMT:dll_dllmain.obj
 0002:00007b78       __sehtable$?dllmain_dispatch@@YAHQAUHINSTANCE__@@KQAX@Z 10026b78     LIBCMT:dll_dllmain.obj
 0002:00007c28       __sehtable$___DestructExceptionObject 10026c28     libvcruntime:ehhelpers.obj
 0002:00007c48       __sehtable$?FrameUnwindToState@__FrameHandler3@@SAXPAUEHRegistrationNode@@PAXPBU_s_FuncInfo@@H@Z 10026c48     libvcruntime:frame.obj
 0002:00007c70       __sehtable$?CallCatchBlock@@YAPAXPAUEHExceptionRecord@@PAUEHRegistrationNode@@PAU_CONTEXT@@PBU_s_FuncInfo@@PAXHK@Z 10026c70     libvcruntime:frame.obj
 0002:00007c98       __catchsym$?CallUnexpected@@YAXPBU_s_ESTypeList@@@Z$2 10026c98     libvcruntime:frame.obj
 0002:00007ca8       __unwindtable$?CallUnexpected@@YAXPBU_s_ESTypeList@@@Z 10026ca8     libvcruntime:frame.obj
 0002:00007cb8       __tryblocktable$?CallUnexpected@@YAXPBU_s_ESTypeList@@@Z 10026cb8     libvcruntime:frame.obj
 0002:00007ccc       __ehfuncinfo$?CallUnexpected@@YAXPBU_s_ESTypeList@@@Z 10026ccc     libvcruntime:frame.obj
 0002:00007cf0       __sehtable$??$BuildCatchObjectHelperInternal@V__FrameHandler3@@@@YAHPAUEHExceptionRecord@@PAXPBU_s_HandlerType@@PBU_s_CatchableType@@@Z 10026cf0     libvcruntime:frame.obj
 0002:00007d10       __sehtable$??$BuildCatchObjectInternal@V__FrameHandler3@@@@YAXPAUEHExceptionRecord@@PAXPBU_s_HandlerType@@PBU_s_CatchableType@@@Z 10026d10     libvcruntime:frame.obj
 0002:00007d68       __sehtable$??R<lambda_6e4b09c48022b2350581041d5f6b0c4c>@@QBE@XZ 10026d68     libucrt:exit.obj
 0002:00007d88       __sehtable$??$?RV<lambda_03b1d95aef87969028cfba75ccab2455>@@AAV<lambda_6e4b09c48022b2350581041d5f6b0c4c>@@V<lambda_22bdf7517842c4b3e53723af5aa32b9e>@@@?$__crt_seh_guarded_call@X@@QAEX$$QAV<lambda_03b1d95aef87969028cfba75ccab2455>@@AAV<lambda_6e4b09c48022b2350581041d5f6b0c4c>@@$$QAV<lambda_22bdf7517842c4b3e53723af5aa32b9e>@@@Z 10026d88     libucrt:exit.obj
 0002:00007da8       __sehtable$??$?RV<lambda_8e746cf0007f6ed984d6f78af1fec997>@@AAV<lambda_22ebabd17bc4fa466a2aca6d8deb888d>@@V<lambda_18ed0c0b38a6dc0daf1e7ac6d6adf05e>@@@?$__crt_seh_guarded_call@H@@QAEH$$QAV<lambda_8e746cf0007f6ed984d6f78af1fec997>@@AAV<lambda_22ebabd17bc4fa466a2aca6d8deb888d>@@$$QAV<lambda_18ed0c0b38a6dc0daf1e7ac6d6adf05e>@@@Z 10026da8     libucrt:onexit.obj
 0002:00007dc8       __sehtable$??$?RV<lambda_69a2805e680e0e292e8ba93315fe43a8>@@AAV<lambda_f03950bc5685219e0bcd2087efbe011e>@@V<lambda_03fcd07e894ec930e3f35da366ca99d6>@@@?$__crt_seh_guarded_call@H@@QAEH$$QAV<lambda_69a2805e680e0e292e8ba93315fe43a8>@@AAV<lambda_f03950bc5685219e0bcd2087efbe011e>@@$$QAV<lambda_03fcd07e894ec930e3f35da366ca99d6>@@@Z 10026dc8     libucrt:onexit.obj
 0002:00007de8       __sehtable$__query_new_handler 10026de8     libucrt:new_handler.obj
 0002:00007e08       __sehtable$_terminate      10026e08     libucrt:terminate.obj
 0002:00007e28       __sehtable$??$?RV<lambda_15ade71b0218206bbe3333a0c9b79046>@@AAV<lambda_da44e0f8b0f19ba52fefafb335991732>@@V<lambda_207f2d024fc103971653565357d6cd41>@@@?$__crt_seh_guarded_call@X@@QAEX$$QAV<lambda_15ade71b0218206bbe3333a0c9b79046>@@AAV<lambda_da44e0f8b0f19ba52fefafb335991732>@@$$QAV<lambda_207f2d024fc103971653565357d6cd41>@@@Z 10026e28     libucrt:per_thread_data.obj
 0002:00007e48       __sehtable$??$?RV<lambda_a7e850c220f1c8d1e6efeecdedd162c6>@@AAV<lambda_46720907175c18b6c9d2717bc0d2d362>@@V<lambda_9048902d66e8d99359bc9897bbb930a8>@@@?$__crt_seh_guarded_call@X@@QAEX$$QAV<lambda_a7e850c220f1c8d1e6efeecdedd162c6>@@AAV<lambda_46720907175c18b6c9d2717bc0d2d362>@@$$QAV<lambda_9048902d66e8d99359bc9897bbb930a8>@@@Z 10026e48     libucrt:per_thread_data.obj
 0002:00007e68       __sehtable$??$?RV<lambda_38edbb1296d33220d7e4dd0ed76b244a>@@AAV<lambda_5ce1d447e08cb34b2473517608e21441>@@V<lambda_fb385d3da700c9147fc39e65dd577a8c>@@@?$__crt_seh_guarded_call@X@@QAEX$$QAV<lambda_38edbb1296d33220d7e4dd0ed76b244a>@@AAV<lambda_5ce1d447e08cb34b2473517608e21441>@@$$QAV<lambda_fb385d3da700c9147fc39e65dd577a8c>@@@Z 10026e68     libucrt:per_thread_data.obj
 0002:00007e88       __sehtable$??$?RV<lambda_6affb1475c98b40b75cdec977db92e3c>@@AAV<lambda_b8d4b9c228a6ecc3f80208dbb4b4a104>@@V<lambda_608742c3c92a14382c1684fc64f96c88>@@@?$__crt_seh_guarded_call@X@@QAEX$$QAV<lambda_6affb1475c98b40b75cdec977db92e3c>@@AAV<lambda_b8d4b9c228a6ecc3f80208dbb4b4a104>@@$$QAV<lambda_608742c3c92a14382c1684fc64f96c88>@@@Z 10026e88     libucrt:per_thread_data.obj
 0002:00007ea8       __sehtable$??$?RV<lambda_e5124f882df8998aaf41531e079ba474>@@AAV<lambda_3e16ef9562a7dcce91392c22ab16ea36>@@V<lambda_e25ca0880e6ef98be67edffd8c599615>@@@?$__crt_seh_guarded_call@X@@QAEX$$QAV<lambda_e5124f882df8998aaf41531e079ba474>@@AAV<lambda_3e16ef9562a7dcce91392c22ab16ea36>@@$$QAV<lambda_e25ca0880e6ef98be67edffd8c599615>@@@Z 10026ea8     libucrt:wsetlocale.obj
 0002:00007ec8       __sehtable$___acrt_initialize_lowio 10026ec8     libucrt:ioinit.obj
 0002:00007ee8       __sehtable$?update_thread_multibyte_data_internal@@YAPAU__crt_multibyte_data@@QAU__acrt_ptd@@QAPAU1@@Z 10026ee8     libucrt:mbctype.obj
 0002:00007f08       __sehtable$??$?RV<lambda_ceb1ee4838e85a9d631eb091e2fbe199>@@AAV<lambda_ae742caa10f662c28703da3d2ea5e57e>@@V<lambda_cd08b5d6af4937fe54fc07d0c9bf6b37>@@@?$__crt_seh_guarded_call@X@@QAEX$$QAV<lambda_ceb1ee4838e85a9d631eb091e2fbe199>@@AAV<lambda_ae742caa10f662c28703da3d2ea5e57e>@@$$QAV<lambda_cd08b5d6af4937fe54fc07d0c9bf6b37>@@@Z 10026f08     libucrt:mbctype.obj
 0002:00007f28       __sehtable$_raise          10026f28     libucrt:signal.obj
 0002:00007f48       __sehtable$??$?RV<lambda_cbab9ec6f41b0180b23cc171c22676b0>@@AAV<lambda_44731a7d0e6d81c3e6aa82d741081786>@@V<lambda_4b292cb8dd18144e164572427af410ab>@@@?$__crt_seh_guarded_call@P6AXH@Z@@QAEP6AXH@Z$$QAV<lambda_cbab9ec6f41b0180b23cc171c22676b0>@@AAV<lambda_44731a7d0e6d81c3e6aa82d741081786>@@$$QAV<lambda_4b292cb8dd18144e164572427af410ab>@@@Z 10026f48     libucrt:signal.obj
 0002:00007f68       __sehtable$??$?RV<lambda_2866be3712abc81a800a822484c830d8>@@AAV<lambda_39ca0ed439415581b5b15c265174cece>@@V<lambda_2b24c74d71094a6cd0cb82e44167d71b>@@@?$__crt_seh_guarded_call@X@@QAEX$$QAV<lambda_2866be3712abc81a800a822484c830d8>@@AAV<lambda_39ca0ed439415581b5b15c265174cece>@@$$QAV<lambda_2b24c74d71094a6cd0cb82e44167d71b>@@@Z 10026f68     libucrt:fflush.obj
 0002:00007f88       __sehtable$??$?RV<lambda_2cc53f568c5a2bb6f192f930a45d44ea>@@AAV<lambda_ab61a845afdef5b7c387490eaf3616ee>@@V<lambda_c2ffc0b7726aa6be21d5f0026187e748>@@@?$__crt_seh_guarded_call@X@@QAEX$$QAV<lambda_2cc53f568c5a2bb6f192f930a45d44ea>@@AAV<lambda_ab61a845afdef5b7c387490eaf3616ee>@@$$QAV<lambda_c2ffc0b7726aa6be21d5f0026187e748>@@@Z 10026f88     libucrt:fflush.obj
 0002:00007fa8       __sehtable$___acrt_update_thread_locale_data 10026fa8     libucrt:locale_refcounting.obj
 0002:00007fc8       __sehtable$__fcloseall     10026fc8     libucrt:closeall.obj
 0002:00007fe8       __sehtable$___acrt_lowio_ensure_fh_exists 10026fe8     libucrt:osfinfo.obj
 0002:00008008       __sehtable$??$?RV<lambda_9e9de3de5fa147e2223d7db92bc10aa6>@@AAV<lambda_38ce7e780aa69e748d6df282ebc68efe>@@V<lambda_8ca6da459f0f6780f1cff60fdc3d00e5>@@@?$__crt_seh_guarded_call@H@@QAEH$$QAV<lambda_9e9de3de5fa147e2223d7db92bc10aa6>@@AAV<lambda_38ce7e780aa69e748d6df282ebc68efe>@@$$QAV<lambda_8ca6da459f0f6780f1cff60fdc3d00e5>@@@Z 10027008     libucrt:commit.obj
 0002:00008028       __sehtable$__write         10027028     libucrt:write.obj
 0002:00008048       __sehtable$_fclose         10027048     libucrt:fclose.obj
 0002:00008068       __sehtable$??$?RV<lambda_218ce3db14220d0be481dae8ef3383b6>@@AAV<lambda_628dfdc04ba53c8bfc02c9951375f3f5>@@V<lambda_57dc472bd5c9d5f3b2cbca59b8a843ae>@@@?$__crt_seh_guarded_call@H@@QAEH$$QAV<lambda_218ce3db14220d0be481dae8ef3383b6>@@AAV<lambda_628dfdc04ba53c8bfc02c9951375f3f5>@@$$QAV<lambda_57dc472bd5c9d5f3b2cbca59b8a843ae>@@@Z 10027068     libucrt:close.obj
 0002:00008088       __sehtable$___set_fpsr_sse2 10027088     libucrt:fpctrl.obj
 0002:000080a8       __sehtable$__IsNonwritableInCurrentImage 100270a8     LIBCMT:pesect.obj
 0002:000080d0       .edata                     100270d0     OPOSGate.exp
 0002:000080f8       rgpv                       100270f8     OPOSGate.exp
 0002:00008108       rgszName                   10027108     OPOSGate.exp
 0002:00008118       rgwOrd                     10027118     OPOSGate.exp
 0002:00008120       szName                     10027120     OPOSGate.exp
 0002:0000812d       $N00001                    1002712d     OPOSGate.exp
 0002:0000813d       $N00002                    1002713d     OPOSGate.exp
 0002:0000814f       $N00003                    1002714f     OPOSGate.exp
 0002:00008161       $N00004                    10027161     OPOSGate.exp
 0002:00008772       .idata$6                   10027772     kernel32:KERNEL32.dll
 0002:00008986       .idata$6                   10027986     user32:USER32.dll
 0002:00008aba       .idata$6                   10027aba     gdi32:GDI32.dll
 0002:00008b60       .idata$6                   10027b60     advapi32:ADVAPI32.dll
 0002:00008c7c       .idata$6                   10027c7c     ole32:ole32.dll
 0002:00008c86       .idata$6                   10027c86     oleaut32:OLEAUT32.dll
 0003:00000110       ?ObjectMap@@3PAU_ATL_OBJMAP_ENTRY30@ATL@@A 10029110     Gate.obj
 0003:000001b8       ?s_SOMethodNames@@3PAPADA  100291b8     GateImpl.obj
 0003:00000204       ?s_RequiredMethodsPerRelease@@3PAHA 10029204     GateImpl.obj
 0003:00000220       ?__vcrt_flsindex@@3KA      10029220     libvcruntime:per_thread_data.obj
 0003:00000240       ?errno_no_memory@@3HA      10029240     libucrt:errno.obj
 0003:00000244       ?doserrno_no_memory@@3KA   10029244     libucrt:errno.obj
 0003:00000250       ?__acrt_flsindex@@3KA      10029250     libucrt:per_thread_data.obj
 0003:000005e8       __mbctypes                 100295e8     libucrt:mbctype.obj
 0003:000006f0       __mbcasemaps               100296f0     libucrt:mbctype.obj
 0003:000007f0       ?__rgctypeflag@@3PADA      100297f0     libucrt:mbctype.obj
 0003:000007f8       ?__rgcode_page_info@@3PAUcode_page_info@@A 100297f8     libucrt:mbctype.obj
 0003:00000a50       ?__dcrt_lowio_console_output_handle@@3PAXA 10029a50     libucrt:initcon.obj
 0003:00000a54       ?__DAZ_ENABLED@?1??__set_fpsr_sse2@@9@9 10029a54     libucrt:fpctrl.obj
 0003:00000be8       ?is_initialized_as_dll@@3_NA 10029be8     LIBCMT:utility.obj
 0003:00000be9       ?module_local_atexit_table_initialized@@3_NA 10029be9     LIBCMT:utility.obj
 0003:00000bec       ?module_local_atexit_table@@3U_onexit_table_t@@A 10029bec     LIBCMT:utility.obj
 0003:00000bf8       ?module_local_at_quick_exit_table@@3U_onexit_table_t@@A 10029bf8     LIBCMT:utility.obj
 0003:00000c04       ?g_tss_cv@@3U_RTL_CONDITION_VARIABLE@@A 10029c04     LIBCMT:thread_safe_statics.obj
 0003:00000c08       ?g_tss_event@@3PAXA        10029c08     LIBCMT:thread_safe_statics.obj
 0003:00000c0c       ?g_tss_mutex@@3U_RTL_CRITICAL_SECTION@@A 10029c0c     LIBCMT:thread_safe_statics.obj
 0003:00000c24       ?g_sleep_condition_variable_cs@@3P6GHPAU_RTL_CONDITION_VARIABLE@@PAU_RTL_CRITICAL_SECTION@@K@ZA 10029c24     LIBCMT:thread_safe_statics.obj
 0003:00000c28       ?g_wake_all_condition_variable@@3P6GXPAU_RTL_CONDITION_VARIABLE@@@ZA 10029c28     LIBCMT:thread_safe_statics.obj
 0003:00000c30       _GS_ExceptionRecord        10029c30     LIBCMT:gs_report.obj
 0003:00000c80       _GS_ContextRecord          10029c80     LIBCMT:gs_report.obj
 0003:00000f50       ?__proc_attached@@3HA      10029f50     LIBCMT:dll_dllmain.obj
 0003:00000fac       ?AllocateData@@3P6GPAUAtlThunkData_t@@XZA 10029fac     atls:atlthunk.obj
 0003:00000fb0       ?InitData@@3P6GXPAUAtlThunkData_t@@PAXI@ZA 10029fb0     atls:atlthunk.obj
 0003:00000fb4       ?DataToCode@@3P6GP6GJPAUHWND__@@IIJ@ZPAUAtlThunkData_t@@@ZA 10029fb4     atls:atlthunk.obj
 0003:00000fb8       ?FreeData@@3P6GXPAUAtlThunkData_t@@@ZA 10029fb8     atls:atlthunk.obj
 0003:00000fbc       ?Initialized@@3_NA         10029fbc     atls:atlthunk.obj
 0003:00000fcc       ?__vcrt_startup_thread_ptd@@3U__vcrt_ptd@@A 10029fcc     libvcruntime:per_thread_data.obj
 0003:00000ff4       ___vcrt_lock_table         10029ff4     libvcruntime:locks.obj
 0003:0000100c       ___vcrt_locks_initialized  1002a00c     libvcruntime:locks.obj
 0003:00001038       ?heap@@3V_HeapManager@@A   1002a038     libvcruntime:undname.obj
 0003:0000104c       ?module_handles@@3PAPAUHINSTANCE__@@A 1002a04c     libvcruntime:winapi_downlevel.obj
 0003:00001058       ?function_pointers@@3PAPAXA 1002a058     libvcruntime:winapi_downlevel.obj
 0003:0000106c       ?__acrt_invalid_parameter_handler@@3V?$dual_state_global@P6AXPB_W00II@Z@__crt_state_management@@A 1002a06c     libucrt:invalid_parameter.obj
 0003:00001070       ?c_termination_complete@@3JA 1002a070     libucrt:exit.obj
 0003:00001074       ?thread_local_exit_callback_func@@3P6GXPAXK0@ZA 1002a074     libucrt:exit.obj
 0003:00001080       ?program_name@?1???$common_configure_argv@D@@YAHW4_crt_argv_mode@@@Z@4PADA 1002a080     libucrt:argv_parsing.obj
 0003:000011b0       ?__acrt_new_handler@@3V?$dual_state_global@P6AHI@Z@__crt_state_management@@A 1002a1b0     libucrt:new_handler.obj
 0003:000011b8       ?module_handles@@3PAPAUHINSTANCE__@@A 1002a1b8     libucrt:winapi_thunks.obj
 0003:00001208       ?encoded_function_pointers@@3PAPAXA 1002a208     libucrt:winapi_thunks.obj
 0003:00001290       ?internal_state@?1??_mbtowc_l@@9@4U_Mbstatet@@A 1002a290     libucrt:mbtowc.obj
 0003:000012a0       ?enable_percent_n@@3IA     1002a2a0     libucrt:printf_count_output.obj
 0003:000014c0       ?__acrt_lock_table@@3PAU_RTL_CRITICAL_SECTION@@A 1002a4c0     libucrt:locks.obj
 0003:00001610       ?__acrt_locks_initialized@@3IA 1002a610     libucrt:locks.obj
 0003:00001620       ?fSystemSet@@3HA           1002a620     libucrt:mbctype.obj
 0003:00001624       ?initialized@?1??__acrt_initialize_multibyte@@9@4_NA 1002a624     libucrt:mbctype.obj
 0003:00001644       ?ctrlc_action@@3V?$dual_state_global@P6AXH@Z@__crt_state_management@@A 1002a644     libucrt:signal.obj
 0003:00001648       ?ctrlbreak_action@@3V?$dual_state_global@P6AXH@Z@__crt_state_management@@A 1002a648     libucrt:signal.obj
 0003:0000164c       ?abort_action@@3V?$dual_state_global@P6AXH@Z@__crt_state_management@@A 1002a64c     libucrt:signal.obj
 0003:00001650       ?term_action@@3V?$dual_state_global@P6AXH@Z@__crt_state_management@@A 1002a650     libucrt:signal.obj
 0003:00001654       ?user_matherr@@3V?$dual_state_global@P6AHPAU_exception@@@Z@__crt_state_management@@A 1002a654     libucrt:matherr.obj
 0003:00001658       ?__acrt_global_new_mode@@3V?$dual_state_global@J@__crt_state_management@@A 1002a658     libucrt:new_mode.obj
 0003:00001664       ?internal_pst@?1??__mbrtoc32_utf8@__crt_mbstring@@YAIPA_UPBDIPAU_Mbstatet@@@Z@4U3@A 1002a664     libucrt:mbrtoc32.obj
 0003:0000166c       ?__acrt_app_type@@3W4_crt_app_type@@A 1002a66c     libucrt:report_runtime_error.obj
 0003:00001674       __pmatherr_set             1002a674     libucrt:libm_error.obj
 0004:00000220       $R000000                   1002b220     Gate.res
 0004:00000b98       $R000978                   1002bb98     Gate.res
 0004:00000c80       $R000A60                   1002bc80     Gate.res
 0004:00000ee8       $R000CC8                   1002bee8     Gate.res
 0004:000013c0       $R0011A0                   1002c3c0     Gate.res
 0004:00003570       $R003350                   1002e570     Gate.res
 0004:00003598       $R003378                   1002e598     Gate.res
