 OPOSFiscalPrinter

 Timestamp is 5defa932 (Tue Dec 10 23:18:26 2019)

 Preferred load address is 10000000

 Start         Length     Name                   Class
 0001:00000000 00000080H .text$di                CODE
 0001:00000080 0001fe73H .text$mn                CODE
 0001:0001fef3 00000036H .text$x                 CODE
 0001:0001ff29 00000042H .text$yd                CODE
 0002:00000000 000002fcH .idata$5                DATA
 0002:000002fc 00000004H .00cfg                  DATA
 0002:00000300 00000004H .CRT$XCA                DATA
 0002:00000304 00000004H .CRT$XCL                DATA
 0002:00000308 00000010H .CRT$XCU                DATA
 0002:00000318 00000004H .CRT$XCZ                DATA
 0002:0000031c 00000004H .CRT$XIA                DATA
 0002:00000320 00000010H .CRT$XIC                DATA
 0002:00000330 00000004H .CRT$XIZ                DATA
 0002:00000334 00000004H .CRT$XLA                DATA
 0002:00000338 00000004H .CRT$XLZ                DATA
 0002:0000033c 00000004H .CRT$XPA                DATA
 0002:00000340 00000008H .CRT$XPX                DATA
 0002:00000348 00000004H .CRT$XPXA               DATA
 0002:0000034c 00000004H .CRT$XPZ                DATA
 0002:00000350 00000004H .CRT$XTA                DATA
 0002:00000354 0000000cH .CRT$XTZ                DATA
 0002:00000358 00000000H .gfids$y                DATA
 0002:00000360 0000784cH .rdata                  DATA
 0002:00007bac 00000018H .rdata$T                DATA
 0002:00007bc4 0000017cH .rdata$r                DATA
 0002:00007d40 0000001cH .rdata$sxdata           DATA
 0002:00007d5c 000003e0H .rdata$zzzdbg           DATA
 0002:0000813c 00000004H .rtc$IAA                DATA
 0002:00008140 00000004H .rtc$IZZ                DATA
 0002:00008144 00000004H .rtc$TAA                DATA
 0002:00008148 00000004H .rtc$TZZ                DATA
 0002:0000814c 00000004H .tls                    DATA
 0002:00008150 00000004H .tls$                   DATA
 0002:00008154 00000004H .tls$ZZZ                DATA
 0002:00008158 0000060cH .xdata$x                DATA
 0002:00008764 00000004H ATL$__a                 DATA
 0002:00008768 00000008H ATL$__z                 DATA
 0002:00008770 000000b0H .edata                  DATA
 0002:00008820 00000078H .idata$2                DATA
 0002:00008898 00000014H .idata$3                DATA
 0002:000088ac 000002fcH .idata$4                DATA
 0002:00008ba8 00000bc8H .idata$6                DATA
 0003:00000000 00000bb0H .data                   DATA
 0003:00000bb0 00000098H .data$r                 DATA
 0003:00000c48 00000b80H .bss                    DATA
 0004:00000000 00000220H .rsrc$01                DATA
 0004:00000220 00009878H .rsrc$02                DATA

  Address         Publics by Value              Rva+Base       Lib:Object

 0000:00000000       ___guard_fids_count        00000000     <absolute>
 0000:00000000       ___hybrid_code_map_count   00000000     <absolute>
 0000:00000000       ___guard_longjmp_count     00000000     <absolute>
 0000:00000000       __except_list              00000000     <absolute>
 0000:00000000       ___volatile_metadata       00000000     <absolute>
 0000:00000000       ___guard_fids_table        00000000     <absolute>
 0000:00000000       ___guard_longjmp_table     00000000     <absolute>
 0000:00000000       ___AbsoluteZero            00000000     <absolute>
 0000:00000000       ___dynamic_value_reloc_table 00000000     <absolute>
 0000:00000000       ___guard_iat_table         00000000     <absolute>
 0000:00000000       ___hybrid_auxiliary_iat    00000000     <absolute>
 0000:00000000       ___guard_iat_count         00000000     <absolute>
 0000:00000000       ___enclave_config          00000000     <absolute>
 0000:00000000       ___hybrid_code_map         00000000     <absolute>
 0000:00000007       ___safe_se_handler_count   00000007     <absolute>
 0000:0000002c       __tls_array                0000002c     <absolute>
 0000:00000100       ___guard_flags             00000100     <absolute>
 0000:00000000       ___ImageBase               10000000     <linker-defined>
 0001:00000080       ?DupWide@_CW@@AAEXXZ       10001080 f   CWString.obj
 0001:0000009c       ?cw_dup@@YGXPBDAAHAAPA_W1@Z 1000109c f   CWString.obj
 0001:00000124       ?cw_memcpy@@YGHPA_WPBDH@Z  10001124 f   CWString.obj
 0001:00000150       ?cw_strcpy@@YAHPA_WPBD@Z   10001150 f   CWString.obj
 0001:00000163       ?cw_strlen@@YAHPBD@Z       10001163 f   CWString.obj
 0001:0000017c       ??0CAtlComModule@ATL@@QAE@XZ 1000117c f i OposVariant.obj
 0001:000001c1       ??0CAtlWinModule@ATL@@QAE@XZ 100011c1 f i OposVariant.obj
 0001:000001f8       ??0OposDispParms@@QAE@PAVOposVariant@@H@Z 100011f8 f   OposVariant.obj
 0001:00000269       ??1OposDispParms@@QAE@XZ   10001269 f   OposVariant.obj
 0001:00000277       ??A?$CSimpleArray@GV?$CSimpleArrayEqualHelper@G@ATL@@@ATL@@QAEAAGH@Z 10001277 f i OposVariant.obj
 0001:0000029c       ??_Estringdispid@CComTypeInfoHolder@ATL@@QAEPAXI@Z 1000129c f i OposVariant.obj
 0001:00000308       ?AtlWinModuleInit@ATL@@YGJPAU_ATL_WIN_MODULE70@1@@Z 10001308 f i OposVariant.obj
 0001:0000032e       ?AtlWinModuleTerm@ATL@@YGJPAU_ATL_WIN_MODULE70@1@PAUHINSTANCE__@@@Z 1000132e f i OposVariant.obj
 0001:00000391       ?ChangeBSTR@OposVariant@@QAEXPAPA_WAAJ@Z 10001391 f   OposVariant.obj
 0001:000003d2       ?ChangeLONG@OposVariant@@QAEXPAJAAJ@Z 100013d2 f   OposVariant.obj
 0001:00000413       ?GetLONG@OposVariant@@QAEJXZ 10001413 f   OposVariant.obj
 0001:0000042e       ?Init@CComCriticalSection@ATL@@QAEJXZ 1000142e f i OposVariant.obj
 0001:00000456       ?RemoveAll@?$CSimpleArray@GV?$CSimpleArrayEqualHelper@G@ATL@@@ATL@@QAEXXZ 10001456 f i OposVariant.obj
 0001:00000456       ?RemoveAll@?$CSimpleArray@PAUHINSTANCE__@@V?$CSimpleArrayEqualHelper@PAUHINSTANCE__@@@ATL@@@ATL@@QAEXXZ 10001456 f i atls:atlbase.obj
 0001:00000473       ?SetBSTR@OposVariant@@QAEXPA_WAAJ@Z 10001473 f   OposVariant.obj
 0001:000004a7       ?SetBSTR_Copy@OposVariant@@QAEXPA_WAAJ@Z 100014a7 f   OposVariant.obj
 0001:000004f7       ?SetBSTR_InOutPtr@OposVariant@@QAE_NPAPA_WAAJ@Z 100014f7 f   OposVariant.obj
 0001:0000052e       ?SetBSTR_OutPtr@OposVariant@@QAE_NPAPA_WAAJ@Z 1000152e f   OposVariant.obj
 0001:0000054a       ?SetCURRENCY@OposVariant@@QAEXTtagCY@@@Z 1000154a f   OposVariant.obj
 0001:00000572       ?SetDispatch_Ptr@OposVariant@@QAEXPAUIDispatch@@AAJ@Z 10001572 f   OposVariant.obj
 0001:000005ad       ?SetLONG@OposVariant@@QAEXJ@Z 100015ad f   OposVariant.obj
 0001:000005cf       ?SetLONG_Ptr@OposVariant@@QAEXPAJAAJ@Z 100015cf f   OposVariant.obj
 0001:00000602       ?SetString@OposVariant@@QAEXPB_WAAJ@Z 10001602 f   OposVariant.obj
 0001:00000648       ?SetVARIANT_BOOL@OposVariant@@QAEXF@Z 10001648 f   OposVariant.obj
 0001:00000672       ?Term@CAtlComModule@ATL@@QAEXXZ 10001672 f i OposVariant.obj
 0001:000006bc       ?_AtlRaiseException@ATL@@YAXKK@Z 100016bc f i OposVariant.obj
 0001:000006d1       ?CreateInstance@CComClassFactory@ATL@@UAGJPAUIUnknown@@ABU_GUID@@PAPAX@Z 100016d1 f i FiscalPrinter.obj
 0001:0000070f       ?LockServer@CComClassFactory@ATL@@UAGJH@Z 1000170f f i FiscalPrinter.obj
 0001:0000072e       ??_GCComClassFactory@ATL@@UAEPAXI@Z 1000172e f i FiscalPrinter.obj
 0001:0000072e       ??_ECComClassFactory@ATL@@UAEPAXI@Z 1000172e f i FiscalPrinter.obj
 0001:00000759       ?Next@?$CComEnumImpl@UIEnumConnections@@$1?_GUID_b196b287_bab4_101a_b69c_00aa00341d07@@3U__s_GUID@@BUtagCONNECTDATA@@V?$_Copy@UtagCONNECTDATA@@@ATL@@@ATL@@UAGJKPAUtagCONNECTDATA@@PAK@Z 10001759 f i FiscalPrinter.obj
 0001:00000830       ?Skip@?$CComEnumImpl@UIEnumConnections@@$1?_GUID_b196b287_bab4_101a_b69c_00aa00341d07@@3U__s_GUID@@BUtagCONNECTDATA@@V?$_Copy@UtagCONNECTDATA@@@ATL@@@ATL@@UAGJK@Z 10001830 f i FiscalPrinter.obj
 0001:0000085d       ?Reset@?$CComEnumImpl@UIEnumConnectionPoints@@$1?_GUID_b196b285_bab4_101a_b69c_00aa00341d07@@3U__s_GUID@@BPAUIConnectionPoint@@V?$_CopyInterface@UIConnectionPoint@@@ATL@@@ATL@@UAGJXZ 1000185d f i FiscalPrinter.obj
 0001:0000085d       ?Reset@?$CComEnumImpl@UIEnumConnections@@$1?_GUID_b196b287_bab4_101a_b69c_00aa00341d07@@3U__s_GUID@@BUtagCONNECTDATA@@V?$_Copy@UtagCONNECTDATA@@@ATL@@@ATL@@UAGJXZ 1000185d f i FiscalPrinter.obj
 0001:0000086f       ?Clone@?$CComEnumImpl@UIEnumConnections@@$1?_GUID_b196b287_bab4_101a_b69c_00aa00341d07@@3U__s_GUID@@BUtagCONNECTDATA@@V?$_Copy@UtagCONNECTDATA@@@ATL@@@ATL@@UAGJPAPAUIEnumConnections@@@Z 1000186f f i FiscalPrinter.obj
 0001:00000950       ?AddRef@?$CComObject@V?$CComEnum@UIEnumConnections@@$1?_GUID_b196b287_bab4_101a_b69c_00aa00341d07@@3U__s_GUID@@BUtagCONNECTDATA@@V?$_Copy@UtagCONNECTDATA@@@ATL@@VCComSingleThreadModel@6@@ATL@@@ATL@@UAGKXZ 10001950 f i FiscalPrinter.obj
 0001:00000950       ?AddRef@?$CComObject@V?$CComEnum@UIEnumConnectionPoints@@$1?_GUID_b196b285_bab4_101a_b69c_00aa00341d07@@3U__s_GUID@@BPAUIConnectionPoint@@V?$_CopyInterface@UIConnectionPoint@@@ATL@@VCComSingleThreadModel@6@@ATL@@@ATL@@UAGKXZ 10001950 f i FiscalPrinter.obj
 0001:00000961       ?Release@?$CComObject@V?$CComEnum@UIEnumConnectionPoints@@$1?_GUID_b196b285_bab4_101a_b69c_00aa00341d07@@3U__s_GUID@@BPAUIConnectionPoint@@V?$_CopyInterface@UIConnectionPoint@@@ATL@@VCComSingleThreadModel@6@@ATL@@@ATL@@UAGKXZ 10001961 f i FiscalPrinter.obj
 0001:00000961       ?Release@?$CComObject@V?$CComEnum@UIEnumConnections@@$1?_GUID_b196b287_bab4_101a_b69c_00aa00341d07@@3U__s_GUID@@BUtagCONNECTDATA@@V?$_Copy@UtagCONNECTDATA@@@ATL@@VCComSingleThreadModel@6@@ATL@@@ATL@@UAGKXZ 10001961 f i FiscalPrinter.obj
 0001:0000099d       ?QueryInterface@?$CComObject@V?$CComEnum@UIEnumConnections@@$1?_GUID_b196b287_bab4_101a_b69c_00aa00341d07@@3U__s_GUID@@BUtagCONNECTDATA@@V?$_Copy@UtagCONNECTDATA@@@ATL@@VCComSingleThreadModel@6@@ATL@@@ATL@@UAGJABU_GUID@@PAPAX@Z 1000199d f i FiscalPrinter.obj
 0001:000009b7       ??_G?$CComObject@V?$CComEnum@UIEnumConnections@@$1?_GUID_b196b287_bab4_101a_b69c_00aa00341d07@@3U__s_GUID@@BUtagCONNECTDATA@@V?$_Copy@UtagCONNECTDATA@@@ATL@@VCComSingleThreadModel@6@@ATL@@@ATL@@UAEPAXI@Z 100019b7 f i FiscalPrinter.obj
 0001:000009b7       ??_E?$CComObject@V?$CComEnum@UIEnumConnections@@$1?_GUID_b196b287_bab4_101a_b69c_00aa00341d07@@3U__s_GUID@@BUtagCONNECTDATA@@V?$_Copy@UtagCONNECTDATA@@@ATL@@VCComSingleThreadModel@6@@ATL@@@ATL@@UAEPAXI@Z 100019b7 f i FiscalPrinter.obj
 0001:000009d9       ?GetWindowProc@?$CWindowImplBaseT@VCWindow@ATL@@V?$CWinTraits@$0FGAAAAAA@$0A@@2@@ATL@@UAEP6GJPAUHWND__@@IIJ@ZXZ 100019d9 f i FiscalPrinter.obj
 0001:000009df       ?StartWindowProc@?$CWindowImplBaseT@VCWindow@ATL@@V?$CWinTraits@$0FGAAAAAA@$0A@@2@@ATL@@SGJPAUHWND__@@IIJ@Z 100019df f i FiscalPrinter.obj
 0001:00000a33       ?ObjectMain@CComObjectRootBase@ATL@@SGX_N@Z 10001a33 f i FiscalPrinter.obj
 0001:00000a33       ?OnFinalMessage@?$CWindowImplBaseT@VCWindow@ATL@@V?$CWinTraits@$0FGAAAAAA@$0A@@2@@ATL@@UAEXPAUHWND__@@@Z 10001a33 f i FiscalPrinter.obj
 0001:00000a36       ??_E?$CComObject@VCOPOSFiscalPrinter@@@ATL@@W3AEPAXI@Z 10001a36 f i FiscalPrinter.obj
 0001:00000a3e       ??_E?$CComObject@VCOPOSFiscalPrinter@@@ATL@@WEM@AEPAXI@Z 10001a3e f i FiscalPrinter.obj
 0001:00000a46       ?QueryInterface@?$CComObject@VCOPOSFiscalPrinter@@@ATL@@WHA@AGJABU_GUID@@PAPAX@Z 10001a46 f i FiscalPrinter.obj
 0001:00000a50       ?AddRef@?$CComObject@VCOPOSFiscalPrinter@@@ATL@@WHA@AGKXZ 10001a50 f i FiscalPrinter.obj
 0001:00000a5a       ?Release@?$CComObject@VCOPOSFiscalPrinter@@@ATL@@WHA@AGKXZ 10001a5a f i FiscalPrinter.obj
 0001:00000a64       ?QueryInterface@?$CComObject@VCOPOSFiscalPrinter@@@ATL@@WHE@AGJABU_GUID@@PAPAX@Z 10001a64 f i FiscalPrinter.obj
 0001:00000a6e       ?AddRef@?$CComObject@VCOPOSFiscalPrinter@@@ATL@@WHE@AGKXZ 10001a6e f i FiscalPrinter.obj
 0001:00000a78       ?Release@?$CComObject@VCOPOSFiscalPrinter@@@ATL@@WHE@AGKXZ 10001a78 f i FiscalPrinter.obj
 0001:00000a82       ?QueryInterface@?$CComObject@VCOPOSFiscalPrinter@@@ATL@@WHI@AGJABU_GUID@@PAPAX@Z 10001a82 f i FiscalPrinter.obj
 0001:00000a8c       ?AddRef@?$CComObject@VCOPOSFiscalPrinter@@@ATL@@WHI@AGKXZ 10001a8c f i FiscalPrinter.obj
 0001:00000a96       ?Release@?$CComObject@VCOPOSFiscalPrinter@@@ATL@@WHI@AGKXZ 10001a96 f i FiscalPrinter.obj
 0001:00000aa0       ?QueryInterface@?$CComObject@VCOPOSFiscalPrinter@@@ATL@@WHM@AGJABU_GUID@@PAPAX@Z 10001aa0 f i FiscalPrinter.obj
 0001:00000aaa       ?AddRef@?$CComObject@VCOPOSFiscalPrinter@@@ATL@@WHM@AGKXZ 10001aaa f i FiscalPrinter.obj
 0001:00000ab4       ?Release@?$CComObject@VCOPOSFiscalPrinter@@@ATL@@WHM@AGKXZ 10001ab4 f i FiscalPrinter.obj
 0001:00000abe       ?QueryInterface@?$CComObject@VCOPOSFiscalPrinter@@@ATL@@WIA@AGJABU_GUID@@PAPAX@Z 10001abe f i FiscalPrinter.obj
 0001:00000acb       ?AddRef@?$CComObject@VCOPOSFiscalPrinter@@@ATL@@WIA@AGKXZ 10001acb f i FiscalPrinter.obj
 0001:00000ad8       ?Release@?$CComObject@VCOPOSFiscalPrinter@@@ATL@@WIA@AGKXZ 10001ad8 f i FiscalPrinter.obj
 0001:00000ae5       ?QueryInterface@?$CComObject@VCOPOSFiscalPrinter@@@ATL@@WIE@AGJABU_GUID@@PAPAX@Z 10001ae5 f i FiscalPrinter.obj
 0001:00000af2       ?AddRef@?$CComObject@VCOPOSFiscalPrinter@@@ATL@@WIE@AGKXZ 10001af2 f i FiscalPrinter.obj
 0001:00000aff       ?Release@?$CComObject@VCOPOSFiscalPrinter@@@ATL@@WIE@AGKXZ 10001aff f i FiscalPrinter.obj
 0001:00000b0c       ?QueryInterface@?$CComObject@VCOPOSFiscalPrinter@@@ATL@@WII@AGJABU_GUID@@PAPAX@Z 10001b0c f i FiscalPrinter.obj
 0001:00000b19       ?AddRef@?$CComObject@VCOPOSFiscalPrinter@@@ATL@@WII@AGKXZ 10001b19 f i FiscalPrinter.obj
 0001:00000b26       ?Release@?$CComObject@VCOPOSFiscalPrinter@@@ATL@@WII@AGKXZ 10001b26 f i FiscalPrinter.obj
 0001:00000b33       ?QueryInterface@?$CComObject@VCOPOSFiscalPrinter@@@ATL@@WIM@AGJABU_GUID@@PAPAX@Z 10001b33 f i FiscalPrinter.obj
 0001:00000b40       ?AddRef@?$CComObject@VCOPOSFiscalPrinter@@@ATL@@WIM@AGKXZ 10001b40 f i FiscalPrinter.obj
 0001:00000b4d       ?Release@?$CComObject@VCOPOSFiscalPrinter@@@ATL@@WIM@AGKXZ 10001b4d f i FiscalPrinter.obj
 0001:00000b5a       ?QueryInterface@?$CComObject@VCOPOSFiscalPrinter@@@ATL@@WJA@AGJABU_GUID@@PAPAX@Z 10001b5a f i FiscalPrinter.obj
 0001:00000b67       ?AddRef@?$CComObject@VCOPOSFiscalPrinter@@@ATL@@WJA@AGKXZ 10001b67 f i FiscalPrinter.obj
 0001:00000b74       ?Release@?$CComObject@VCOPOSFiscalPrinter@@@ATL@@WJA@AGKXZ 10001b74 f i FiscalPrinter.obj
 0001:00000b81       ?QueryInterface@?$CComObject@VCOPOSFiscalPrinter@@@ATL@@WJE@AGJABU_GUID@@PAPAX@Z 10001b81 f i FiscalPrinter.obj
 0001:00000b8e       ?AddRef@?$CComObject@VCOPOSFiscalPrinter@@@ATL@@WJE@AGKXZ 10001b8e f i FiscalPrinter.obj
 0001:00000b9b       ?Release@?$CComObject@VCOPOSFiscalPrinter@@@ATL@@WJE@AGKXZ 10001b9b f i FiscalPrinter.obj
 0001:00000ba8       ?QueryInterface@?$CComObject@VCOPOSFiscalPrinter@@@ATL@@WJI@AGJABU_GUID@@PAPAX@Z 10001ba8 f i FiscalPrinter.obj
 0001:00000bb5       ?AddRef@?$CComObject@VCOPOSFiscalPrinter@@@ATL@@WJI@AGKXZ 10001bb5 f i FiscalPrinter.obj
 0001:00000bc2       ?Release@?$CComObject@VCOPOSFiscalPrinter@@@ATL@@WJI@AGKXZ 10001bc2 f i FiscalPrinter.obj
 0001:00000bcf       ?QueryInterface@?$CComObject@VCOPOSFiscalPrinter@@@ATL@@WJM@AGJABU_GUID@@PAPAX@Z 10001bcf f i FiscalPrinter.obj
 0001:00000bdc       ?AddRef@?$CComObject@VCOPOSFiscalPrinter@@@ATL@@WJM@AGKXZ 10001bdc f i FiscalPrinter.obj
 0001:00000be9       ?Release@?$CComObject@VCOPOSFiscalPrinter@@@ATL@@WJM@AGKXZ 10001be9 f i FiscalPrinter.obj
 0001:00000bf6       ?QueryInterface@?$CComObject@VCOPOSFiscalPrinter@@@ATL@@WKA@AGJABU_GUID@@PAPAX@Z 10001bf6 f i FiscalPrinter.obj
 0001:00000c03       ?AddRef@?$CComObject@VCOPOSFiscalPrinter@@@ATL@@WKA@AGKXZ 10001c03 f i FiscalPrinter.obj
 0001:00000c10       ?Release@?$CComObject@VCOPOSFiscalPrinter@@@ATL@@WKA@AGKXZ 10001c10 f i FiscalPrinter.obj
 0001:00000c1d       ?AddRef@?$CComObject@VCOPOSFiscalPrinter@@@ATL@@WKI@AGKXZ 10001c1d f i FiscalPrinter.obj
 0001:00000c2a       ?Release@?$CComObject@VCOPOSFiscalPrinter@@@ATL@@WKI@AGKXZ 10001c2a f i FiscalPrinter.obj
 0001:00000c37       ?AddRef@?$CComObject@VCOPOSFiscalPrinter@@@ATL@@WLE@AGKXZ 10001c37 f i FiscalPrinter.obj
 0001:00000c44       ?Release@?$CComObject@VCOPOSFiscalPrinter@@@ATL@@WLE@AGKXZ 10001c44 f i FiscalPrinter.obj
 0001:00000c51       ??_E?$CComContainedObject@VCOPOSFiscalPrinter@@@ATL@@W3AEPAXI@Z 10001c51 f i FiscalPrinter.obj
 0001:00000c59       ??_E?$CComContainedObject@VCOPOSFiscalPrinter@@@ATL@@WEM@AEPAXI@Z 10001c59 f i FiscalPrinter.obj
 0001:00000c61       ?QueryInterface@?$CComContainedObject@VCOPOSFiscalPrinter@@@ATL@@WHA@AGJABU_GUID@@PAPAX@Z 10001c61 f i FiscalPrinter.obj
 0001:00000c6b       ?AddRef@?$CComContainedObject@VCOPOSFiscalPrinter@@@ATL@@WHA@AGKXZ 10001c6b f i FiscalPrinter.obj
 0001:00000c75       ?Release@?$CComContainedObject@VCOPOSFiscalPrinter@@@ATL@@WHA@AGKXZ 10001c75 f i FiscalPrinter.obj
 0001:00000c7f       ?QueryInterface@?$CComContainedObject@VCOPOSFiscalPrinter@@@ATL@@WHE@AGJABU_GUID@@PAPAX@Z 10001c7f f i FiscalPrinter.obj
 0001:00000c89       ?AddRef@?$CComContainedObject@VCOPOSFiscalPrinter@@@ATL@@WHE@AGKXZ 10001c89 f i FiscalPrinter.obj
 0001:00000c93       ?Release@?$CComContainedObject@VCOPOSFiscalPrinter@@@ATL@@WHE@AGKXZ 10001c93 f i FiscalPrinter.obj
 0001:00000c9d       ?QueryInterface@?$CComContainedObject@VCOPOSFiscalPrinter@@@ATL@@WHI@AGJABU_GUID@@PAPAX@Z 10001c9d f i FiscalPrinter.obj
 0001:00000ca7       ?AddRef@?$CComContainedObject@VCOPOSFiscalPrinter@@@ATL@@WHI@AGKXZ 10001ca7 f i FiscalPrinter.obj
 0001:00000cb1       ?Release@?$CComContainedObject@VCOPOSFiscalPrinter@@@ATL@@WHI@AGKXZ 10001cb1 f i FiscalPrinter.obj
 0001:00000cbb       ?QueryInterface@?$CComContainedObject@VCOPOSFiscalPrinter@@@ATL@@WHM@AGJABU_GUID@@PAPAX@Z 10001cbb f i FiscalPrinter.obj
 0001:00000cc5       ?AddRef@?$CComContainedObject@VCOPOSFiscalPrinter@@@ATL@@WHM@AGKXZ 10001cc5 f i FiscalPrinter.obj
 0001:00000ccf       ?Release@?$CComContainedObject@VCOPOSFiscalPrinter@@@ATL@@WHM@AGKXZ 10001ccf f i FiscalPrinter.obj
 0001:00000cd9       ?QueryInterface@?$CComContainedObject@VCOPOSFiscalPrinter@@@ATL@@WIA@AGJABU_GUID@@PAPAX@Z 10001cd9 f i FiscalPrinter.obj
 0001:00000ce6       ?AddRef@?$CComContainedObject@VCOPOSFiscalPrinter@@@ATL@@WIA@AGKXZ 10001ce6 f i FiscalPrinter.obj
 0001:00000cf3       ?Release@?$CComContainedObject@VCOPOSFiscalPrinter@@@ATL@@WIA@AGKXZ 10001cf3 f i FiscalPrinter.obj
 0001:00000d00       ?QueryInterface@?$CComContainedObject@VCOPOSFiscalPrinter@@@ATL@@WIE@AGJABU_GUID@@PAPAX@Z 10001d00 f i FiscalPrinter.obj
 0001:00000d0d       ?AddRef@?$CComContainedObject@VCOPOSFiscalPrinter@@@ATL@@WIE@AGKXZ 10001d0d f i FiscalPrinter.obj
 0001:00000d1a       ?Release@?$CComContainedObject@VCOPOSFiscalPrinter@@@ATL@@WIE@AGKXZ 10001d1a f i FiscalPrinter.obj
 0001:00000d27       ?QueryInterface@?$CComContainedObject@VCOPOSFiscalPrinter@@@ATL@@WII@AGJABU_GUID@@PAPAX@Z 10001d27 f i FiscalPrinter.obj
 0001:00000d34       ?AddRef@?$CComContainedObject@VCOPOSFiscalPrinter@@@ATL@@WII@AGKXZ 10001d34 f i FiscalPrinter.obj
 0001:00000d41       ?Release@?$CComContainedObject@VCOPOSFiscalPrinter@@@ATL@@WII@AGKXZ 10001d41 f i FiscalPrinter.obj
 0001:00000d4e       ?QueryInterface@?$CComContainedObject@VCOPOSFiscalPrinter@@@ATL@@WIM@AGJABU_GUID@@PAPAX@Z 10001d4e f i FiscalPrinter.obj
 0001:00000d5b       ?AddRef@?$CComContainedObject@VCOPOSFiscalPrinter@@@ATL@@WIM@AGKXZ 10001d5b f i FiscalPrinter.obj
 0001:00000d68       ?Release@?$CComContainedObject@VCOPOSFiscalPrinter@@@ATL@@WIM@AGKXZ 10001d68 f i FiscalPrinter.obj
 0001:00000d75       ?QueryInterface@?$CComContainedObject@VCOPOSFiscalPrinter@@@ATL@@WJA@AGJABU_GUID@@PAPAX@Z 10001d75 f i FiscalPrinter.obj
 0001:00000d82       ?AddRef@?$CComContainedObject@VCOPOSFiscalPrinter@@@ATL@@WJA@AGKXZ 10001d82 f i FiscalPrinter.obj
 0001:00000d8f       ?Release@?$CComContainedObject@VCOPOSFiscalPrinter@@@ATL@@WJA@AGKXZ 10001d8f f i FiscalPrinter.obj
 0001:00000d9c       ?QueryInterface@?$CComContainedObject@VCOPOSFiscalPrinter@@@ATL@@WJE@AGJABU_GUID@@PAPAX@Z 10001d9c f i FiscalPrinter.obj
 0001:00000da9       ?AddRef@?$CComContainedObject@VCOPOSFiscalPrinter@@@ATL@@WJE@AGKXZ 10001da9 f i FiscalPrinter.obj
 0001:00000db6       ?Release@?$CComContainedObject@VCOPOSFiscalPrinter@@@ATL@@WJE@AGKXZ 10001db6 f i FiscalPrinter.obj
 0001:00000dc3       ?QueryInterface@?$CComContainedObject@VCOPOSFiscalPrinter@@@ATL@@WJI@AGJABU_GUID@@PAPAX@Z 10001dc3 f i FiscalPrinter.obj
 0001:00000dd0       ?AddRef@?$CComContainedObject@VCOPOSFiscalPrinter@@@ATL@@WJI@AGKXZ 10001dd0 f i FiscalPrinter.obj
 0001:00000ddd       ?Release@?$CComContainedObject@VCOPOSFiscalPrinter@@@ATL@@WJI@AGKXZ 10001ddd f i FiscalPrinter.obj
 0001:00000dea       ?QueryInterface@?$CComContainedObject@VCOPOSFiscalPrinter@@@ATL@@WJM@AGJABU_GUID@@PAPAX@Z 10001dea f i FiscalPrinter.obj
 0001:00000df7       ?AddRef@?$CComContainedObject@VCOPOSFiscalPrinter@@@ATL@@WJM@AGKXZ 10001df7 f i FiscalPrinter.obj
 0001:00000e04       ?Release@?$CComContainedObject@VCOPOSFiscalPrinter@@@ATL@@WJM@AGKXZ 10001e04 f i FiscalPrinter.obj
 0001:00000e11       ?QueryInterface@?$CComContainedObject@VCOPOSFiscalPrinter@@@ATL@@WKA@AGJABU_GUID@@PAPAX@Z 10001e11 f i FiscalPrinter.obj
 0001:00000e1e       ?AddRef@?$CComContainedObject@VCOPOSFiscalPrinter@@@ATL@@WKA@AGKXZ 10001e1e f i FiscalPrinter.obj
 0001:00000e2b       ?Release@?$CComContainedObject@VCOPOSFiscalPrinter@@@ATL@@WKA@AGKXZ 10001e2b f i FiscalPrinter.obj
 0001:00000e38       ?AddRef@?$CComContainedObject@VCOPOSFiscalPrinter@@@ATL@@WKI@AGKXZ 10001e38 f i FiscalPrinter.obj
 0001:00000e45       ?Release@?$CComContainedObject@VCOPOSFiscalPrinter@@@ATL@@WKI@AGKXZ 10001e45 f i FiscalPrinter.obj
 0001:00000e52       ?AddRef@?$CComContainedObject@VCOPOSFiscalPrinter@@@ATL@@WLE@AGKXZ 10001e52 f i FiscalPrinter.obj
 0001:00000e5f       ?Release@?$CComContainedObject@VCOPOSFiscalPrinter@@@ATL@@WLE@AGKXZ 10001e5f f i FiscalPrinter.obj
 0001:00000e6c       ?Lock@CAtlModule@ATL@@UAEJXZ 10001e6c f i FiscalPrinter.obj
 0001:00000e76       ?Unlock@CAtlModule@ATL@@UAEJXZ 10001e76 f i FiscalPrinter.obj
 0001:00000e80       ?GetLockCount@CAtlModule@ATL@@UAEJXZ 10001e80 f i FiscalPrinter.obj
 0001:00000e84       ?GetGITPtr@CAtlModule@ATL@@UAEJPAPAUIGlobalInterfaceTable@@@Z 10001e84 f i FiscalPrinter.obj
 0001:00000ed0       ?AddCommonRGSReplacements@?$CAtlModuleT@VCComModule@ATL@@@ATL@@UAEJPAUIRegistrarBase@@@Z 10001ed0 f i FiscalPrinter.obj
 0001:00000eea       ?GetTypeInfoCount@?$IDispatchImpl@UIOPOSFiscalPrinter@@$1?IID_IOPOSFiscalPrinter@@3U_GUID@@B$1?LIBID_OposFiscalPrinter_CCO@@3U3@B$00$0A@VCComTypeInfoHolder@ATL@@@ATL@@UAGJPAI@Z 10001eea f i FiscalPrinter.obj
 0001:00000f07       ?GetTypeInfo@?$IDispatchImpl@UIOPOSFiscalPrinter@@$1?IID_IOPOSFiscalPrinter@@3U_GUID@@B$1?LIBID_OposFiscalPrinter_CCO@@3U3@B$00$0A@VCComTypeInfoHolder@ATL@@@ATL@@UAGJIKPAPAUITypeInfo@@@Z 10001f07 f i FiscalPrinter.obj
 0001:00000f2b       ?GetIDsOfNames@?$IDispatchImpl@UIOPOSFiscalPrinter@@$1?IID_IOPOSFiscalPrinter@@3U_GUID@@B$1?LIBID_OposFiscalPrinter_CCO@@3U3@B$00$0A@VCComTypeInfoHolder@ATL@@@ATL@@UAGJABU_GUID@@PAPA_WIKPAJ@Z 10001f2b f i FiscalPrinter.obj
 0001:00000f4b       ?Invoke@?$IDispatchImpl@UIOPOSFiscalPrinter@@$1?IID_IOPOSFiscalPrinter@@3U_GUID@@B$1?LIBID_OposFiscalPrinter_CCO@@3U3@B$00$0A@VCComTypeInfoHolder@ATL@@@ATL@@UAGJJABU_GUID@@KGPAUtagDISPPARAMS@@PAUtagVARIANT@@PAUtagEXCEPINFO@@PAI@Z 10001f4b f i FiscalPrinter.obj
 0001:00000f59       ?UpdateRegistryFromResourceD@CComModule@ATL@@UAGJPB_WHPAU_ATL_REGMAP_ENTRY@2@@Z 10001f59 f i FiscalPrinter.obj
 0001:00000f59       ?UpdateRegistryFromResourceD@CComModule@ATL@@UAGJIHPAU_ATL_REGMAP_ENTRY@2@@Z 10001f59 f i FiscalPrinter.obj
 0001:00000f61       ?UpdateRegistryFromResource@CComModule@ATL@@UAGJPB_WHPAU_ATL_REGMAP_ENTRY@2@@Z 10001f61 f i FiscalPrinter.obj
 0001:00000f6a       ?UpdateRegistryFromResource@CComModule@ATL@@UAGJIHPAU_ATL_REGMAP_ENTRY@2@@Z 10001f6a f i FiscalPrinter.obj
 0001:00000f73       ?CreateControlWindow@?$CComControl@VCOPOSFiscalPrinter@@V?$CWindowImpl@VCOPOSFiscalPrinter@@VCWindow@ATL@@V?$CWinTraits@$0FGAAAAAA@$0A@@3@@ATL@@@ATL@@UAEPAUHWND__@@PAU3@AAUtagRECT@@@Z 10001f73 f i FiscalPrinter.obj
 0001:00000fa2       ?ControlQueryInterface@?$CComControl@VCOPOSFiscalPrinter@@V?$CWindowImpl@VCOPOSFiscalPrinter@@VCWindow@ATL@@V?$CWinTraits@$0FGAAAAAA@$0A@@3@@ATL@@@ATL@@UAEJABU_GUID@@PAPAX@Z 10001fa2 f i FiscalPrinter.obj
 0001:00000fbd       ??_GCComModule@ATL@@UAEPAXI@Z 10001fbd f i FiscalPrinter.obj
 0001:00000fbd       ??_ECComModule@ATL@@UAEPAXI@Z 10001fbd f i FiscalPrinter.obj
 0001:00000fe5       ?GetClassID@?$IPersistStorageImpl@VCOPOSFiscalPrinter@@@ATL@@UAGJPAU_GUID@@@Z 10001fe5 f i FiscalPrinter.obj
 0001:00000fe5       ?GetClassID@?$IPersistStreamInitImpl@VCOPOSFiscalPrinter@@@ATL@@UAGJPAU_GUID@@@Z 10001fe5 f i FiscalPrinter.obj
 0001:00000fe5       ?GetUserClassID@?$IOleObjectImpl@VCOPOSFiscalPrinter@@@ATL@@UAGJPAU_GUID@@@Z 10001fe5 f i FiscalPrinter.obj
 0001:00001009       ?IsDirty@?$IPersistStreamInitImpl@VCOPOSFiscalPrinter@@@ATL@@UAGJXZ 10002009 f i FiscalPrinter.obj
 0001:00001028       ?Load@?$IPersistStreamInitImpl@VCOPOSFiscalPrinter@@@ATL@@UAGJPAUIStream@@@Z 10002028 f i FiscalPrinter.obj
 0001:00001047       ?Save@?$IPersistStreamInitImpl@VCOPOSFiscalPrinter@@@ATL@@UAGJPAUIStream@@H@Z 10002047 f i FiscalPrinter.obj
 0001:00001069       ?GetSizeMax@?$IPersistStreamInitImpl@VCOPOSFiscalPrinter@@@ATL@@UAGJPAT_ULARGE_INTEGER@@@Z 10002069 f i FiscalPrinter.obj
 0001:00001248       ?InitNew@?$IPersistStreamInitImpl@VCOPOSFiscalPrinter@@@ATL@@UAGJXZ 10002248 f i FiscalPrinter.obj
 0001:00001265       ?SetColorScheme@?$IOleObjectImpl@VCOPOSFiscalPrinter@@@ATL@@UAGJPAUtagLOGPALETTE@@@Z 10002265 f i FiscalPrinter.obj
 0001:00001265       ?GetDropTarget@?$IOleInPlaceObjectWindowlessImpl@VCOPOSFiscalPrinter@@@ATL@@UAGJPAPAUIDropTarget@@@Z 10002265 f i FiscalPrinter.obj
 0001:00001265       ?OnMnemonic@?$IOleControlImpl@VCOPOSFiscalPrinter@@@ATL@@UAGJPAUtagMSG@@@Z 10002265 f i FiscalPrinter.obj
 0001:00001265       ?ContextSensitiveHelp@?$IOleInPlaceActiveObjectImpl@VCOPOSFiscalPrinter@@@ATL@@UAGJH@Z 10002265 f i FiscalPrinter.obj
 0001:00001265       ?Unfreeze@?$IViewObjectExImpl@VCOPOSFiscalPrinter@@@ATL@@UAGJK@Z 10002265 f i FiscalPrinter.obj
 0001:00001265       ?QueryGetData@?$IDataObjectImpl@VCOPOSFiscalPrinter@@@ATL@@UAGJPAUtagFORMATETC@@@Z 10002265 f i FiscalPrinter.obj
 0001:00001265       ?GetControlInfo@?$IOleControlImpl@VCOPOSFiscalPrinter@@@ATL@@UAGJPAUtagCONTROLINFO@@@Z 10002265 f i FiscalPrinter.obj
 0001:00001265       ?SODataDummy@COPOSFiscalPrinter@@MAGJJ@Z 10002265 f i FiscalPrinter.obj
 0001:00001265       ?ContextSensitiveHelp@?$IOleInPlaceObjectWindowlessImpl@VCOPOSFiscalPrinter@@@ATL@@UAGJH@Z 10002265 f i FiscalPrinter.obj
 0001:0000126d       ?OnAmbientPropertyChange@?$IOleControlImpl@VCOPOSFiscalPrinter@@@ATL@@UAGJJ@Z 1000226d f i FiscalPrinter.obj
 0001:0000126d       ?EnableModeless@?$IOleInPlaceActiveObjectImpl@VCOPOSFiscalPrinter@@@ATL@@UAGJH@Z 1000226d f i FiscalPrinter.obj
 0001:0000126d       ?OnFrameWindowActivate@?$IOleInPlaceActiveObjectImpl@VCOPOSFiscalPrinter@@@ATL@@UAGJH@Z 1000226d f i FiscalPrinter.obj
 0001:0000126d       ?SaveCompleted@?$IPersistStorageImpl@VCOPOSFiscalPrinter@@@ATL@@UAGJPAUIStorage@@@Z 1000226d f i FiscalPrinter.obj
 0001:00001272       ?SetClientSite@?$IOleObjectImpl@VCOPOSFiscalPrinter@@@ATL@@UAGJPAUIOleClientSite@@@Z 10002272 f i FiscalPrinter.obj
 0001:0000128f       ?GetClientSite@?$IOleObjectImpl@VCOPOSFiscalPrinter@@@ATL@@UAGJPAPAUIOleClientSite@@@Z 1000228f f i FiscalPrinter.obj
 0001:000012ac       ?SetHostNames@?$IOleObjectImpl@VCOPOSFiscalPrinter@@@ATL@@UAGJPB_W0@Z 100022ac f i FiscalPrinter.obj
 0001:000012b1       ?Close@?$IOleObjectImpl@VCOPOSFiscalPrinter@@@ATL@@UAGJK@Z 100022b1 f i FiscalPrinter.obj
 0001:000012ce       ?EnumFormatEtc@?$IDataObjectImpl@VCOPOSFiscalPrinter@@@ATL@@UAGJKPAPAUIEnumFORMATETC@@@Z 100022ce f i FiscalPrinter.obj
 0001:000012ce       ?GetClipboardData@?$IOleObjectImpl@VCOPOSFiscalPrinter@@@ATL@@UAGJKPAPAUIDataObject@@@Z 100022ce f i FiscalPrinter.obj
 0001:000012ce       ?SetMoniker@?$IOleObjectImpl@VCOPOSFiscalPrinter@@@ATL@@UAGJKPAUIMoniker@@@Z 100022ce f i FiscalPrinter.obj
 0001:000012ce       ?GetDataHere@?$IDataObjectImpl@VCOPOSFiscalPrinter@@@ATL@@UAGJPAUtagFORMATETC@@PAUtagSTGMEDIUM@@@Z 100022ce f i FiscalPrinter.obj
 0001:000012ce       ?GetRect@?$IViewObjectExImpl@VCOPOSFiscalPrinter@@@ATL@@UAGJKPAU_RECTL@@@Z 100022ce f i FiscalPrinter.obj
 0001:000012ce       ?GetCanonicalFormatEtc@?$IDataObjectImpl@VCOPOSFiscalPrinter@@@ATL@@UAGJPAUtagFORMATETC@@0@Z 100022ce f i FiscalPrinter.obj
 0001:000012ce       ?QueryInterface@CRegObject@ATL@@UAGJABU_GUID@@PAPAX@Z 100022ce f i FiscalPrinter.obj
 0001:000012d6       ?InitFromData@?$IOleObjectImpl@VCOPOSFiscalPrinter@@@ATL@@UAGJPAUIDataObject@@HK@Z 100022d6 f i FiscalPrinter.obj
 0001:000012d6       ?SetData@?$IDataObjectImpl@VCOPOSFiscalPrinter@@@ATL@@UAGJPAUtagFORMATETC@@PAUtagSTGMEDIUM@@H@Z 100022d6 f i FiscalPrinter.obj
 0001:000012d6       ?GetMoniker@?$IOleObjectImpl@VCOPOSFiscalPrinter@@@ATL@@UAGJKKPAPAUIMoniker@@@Z 100022d6 f i FiscalPrinter.obj
 0001:000012de       ?DoVerb@?$IOleObjectImpl@VCOPOSFiscalPrinter@@@ATL@@UAGJJPAUtagMSG@@PAUIOleClientSite@@JPAUHWND__@@PBUtagRECT@@@Z 100022de f i FiscalPrinter.obj
 0001:000013d2       ?EnumVerbs@?$IOleObjectImpl@VCOPOSFiscalPrinter@@@ATL@@UAGJPAPAUIEnumOLEVERB@@@Z 100023d2 f i FiscalPrinter.obj
 0001:000013f4       ?HandsOffStorage@?$IPersistStorageImpl@VCOPOSFiscalPrinter@@@ATL@@UAGJXZ 100023f4 f i FiscalPrinter.obj
 0001:000013f4       ?Release@CRegObject@ATL@@UAGKXZ 100023f4 f i FiscalPrinter.obj
 0001:000013f4       ?IsUpToDate@?$IOleObjectImpl@VCOPOSFiscalPrinter@@@ATL@@UAGJXZ 100023f4 f i FiscalPrinter.obj
 0001:000013f4       ?Update@?$IOleObjectImpl@VCOPOSFiscalPrinter@@@ATL@@UAGJXZ 100023f4 f i FiscalPrinter.obj
 0001:000013f9       ?GetUserType@?$IOleObjectImpl@VCOPOSFiscalPrinter@@@ATL@@UAGJKPAPA_W@Z 100023f9 f i FiscalPrinter.obj
 0001:00001411       ?SetExtent@?$IOleObjectImpl@VCOPOSFiscalPrinter@@@ATL@@UAGJKPAUtagSIZE@@@Z 10002411 f i FiscalPrinter.obj
 0001:00001431       ?GetExtent@?$IOleObjectImpl@VCOPOSFiscalPrinter@@@ATL@@UAGJKPAUtagSIZE@@@Z 10002431 f i FiscalPrinter.obj
 0001:0000146f       ?Advise@?$IOleObjectImpl@VCOPOSFiscalPrinter@@@ATL@@UAGJPAUIAdviseSink@@PAK@Z 1000246f f i FiscalPrinter.obj
 0001:0000148f       ?Unadvise@?$IOleObjectImpl@VCOPOSFiscalPrinter@@@ATL@@UAGJK@Z 1000248f f i FiscalPrinter.obj
 0001:000014be       ?EnumAdvise@?$IOleObjectImpl@VCOPOSFiscalPrinter@@@ATL@@UAGJPAPAUIEnumSTATDATA@@@Z 100024be f i FiscalPrinter.obj
 0001:000014fe       ?GetMiscStatus@?$IOleObjectImpl@VCOPOSFiscalPrinter@@@ATL@@UAGJKPAK@Z 100024fe f i FiscalPrinter.obj
 0001:00001516       ?GetWindow@?$IOleInPlaceActiveObjectImpl@VCOPOSFiscalPrinter@@@ATL@@UAGJPAPAUHWND__@@@Z 10002516 f i FiscalPrinter.obj
 0001:00001563       ?TranslateAcceleratorW@?$IOleInPlaceActiveObjectImpl@VCOPOSFiscalPrinter@@@ATL@@UAGJPAUtagMSG@@@Z 10002563 f i FiscalPrinter.obj
 0001:00001611       ?OnDocWindowActivate@?$IOleInPlaceActiveObjectImpl@VCOPOSFiscalPrinter@@@ATL@@UAGJH@Z 10002611 f i FiscalPrinter.obj
 0001:00001633       ?ResizeBorder@?$IOleInPlaceActiveObjectImpl@VCOPOSFiscalPrinter@@@ATL@@UAGJPBUtagRECT@@PAUIOleInPlaceUIWindow@@H@Z 10002633 f i FiscalPrinter.obj
 0001:00001638       ?Draw@?$IViewObjectExImpl@VCOPOSFiscalPrinter@@@ATL@@UAGJKJPAXPAUtagDVTARGETDEVICE@@PAUHDC__@@2PBU_RECTL@@3P6GHK@ZK@Z 10002638 f i FiscalPrinter.obj
 0001:0000166a       ?GetColorSet@?$IViewObjectExImpl@VCOPOSFiscalPrinter@@@ATL@@UAGJKJPAXPAUtagDVTARGETDEVICE@@PAUHDC__@@PAPAUtagLOGPALETTE@@@Z 1000266a f i FiscalPrinter.obj
 0001:00001672       ?Freeze@?$IViewObjectExImpl@VCOPOSFiscalPrinter@@@ATL@@UAGJKJPAXPAK@Z 10002672 f i FiscalPrinter.obj
 0001:0000167a       ?SetAdvise@?$IViewObjectExImpl@VCOPOSFiscalPrinter@@@ATL@@UAGJKKPAUIAdviseSink@@@Z 1000267a f i FiscalPrinter.obj
 0001:00001699       ?GetAdvise@?$IViewObjectExImpl@VCOPOSFiscalPrinter@@@ATL@@UAGJPAK0PAPAUIAdviseSink@@@Z 10002699 f i FiscalPrinter.obj
 0001:000016ce       ?GetExtent@?$IViewObjectExImpl@VCOPOSFiscalPrinter@@@ATL@@UAGJKJPAUtagDVTARGETDEVICE@@PAUtagSIZE@@@Z 100026ce f i FiscalPrinter.obj
 0001:000016ff       ?GetViewStatus@?$IViewObjectExImpl@VCOPOSFiscalPrinter@@@ATL@@UAGJPAK@Z 100026ff f i FiscalPrinter.obj
 0001:0000171c       ?QueryHitPoint@?$IViewObjectExImpl@VCOPOSFiscalPrinter@@@ATL@@UAGJKPBUtagRECT@@UtagPOINT@@JPAK@Z 1000271c f i FiscalPrinter.obj
 0001:0000175d       ?QueryHitRect@?$IViewObjectExImpl@VCOPOSFiscalPrinter@@@ATL@@UAGJKPBUtagRECT@@0JPAK@Z 1000275d f i FiscalPrinter.obj
 0001:000017b8       ?GetNaturalExtent@?$IViewObjectExImpl@VCOPOSFiscalPrinter@@@ATL@@UAGJKJPAUtagDVTARGETDEVICE@@PAUHDC__@@PAUtagExtentInfo@@PAUtagSIZE@@@Z 100027b8 f i FiscalPrinter.obj
 0001:00001803       ?GetWindow@?$IOleInPlaceObjectWindowlessImpl@VCOPOSFiscalPrinter@@@ATL@@UAGJPAPAUHWND__@@@Z 10002803 f i FiscalPrinter.obj
 0001:00001850       ?InPlaceDeactivate@?$IOleInPlaceObjectWindowlessImpl@VCOPOSFiscalPrinter@@@ATL@@UAGJXZ 10002850 f i FiscalPrinter.obj
 0001:0000186a       ?UIDeactivate@?$IOleInPlaceObjectWindowlessImpl@VCOPOSFiscalPrinter@@@ATL@@UAGJXZ 1000286a f i FiscalPrinter.obj
 0001:00001884       ?SetObjectRects@?$IOleInPlaceObjectWindowlessImpl@VCOPOSFiscalPrinter@@@ATL@@UAGJPBUtagRECT@@0@Z 10002884 f i FiscalPrinter.obj
 0001:000018a4       ?ReactivateAndUndo@?$IOleInPlaceObjectWindowlessImpl@VCOPOSFiscalPrinter@@@ATL@@UAGJXZ 100028a4 f i FiscalPrinter.obj
 0001:000018ac       ?OnWindowMessage@?$IOleInPlaceObjectWindowlessImpl@VCOPOSFiscalPrinter@@@ATL@@UAGJIIJPAJ@Z 100028ac f i FiscalPrinter.obj
 0001:0000191c       ?EnumConnectionPoints@?$IConnectionPointContainerImpl@VCOPOSFiscalPrinter@@@ATL@@UAGJPAPAUIEnumConnectionPoints@@@Z 1000291c f i FiscalPrinter.obj
 0001:00001a96       ?FindConnectionPoint@?$IConnectionPointContainerImpl@VCOPOSFiscalPrinter@@@ATL@@UAGJABU_GUID@@PAPAUIConnectionPoint@@@Z 10002a96 f i FiscalPrinter.obj
 0001:00001b39       ?IsDirty@?$IPersistStorageImpl@VCOPOSFiscalPrinter@@@ATL@@UAGJXZ 10002b39 f i FiscalPrinter.obj
 0001:00001b6d       ?InitNew@?$IPersistStorageImpl@VCOPOSFiscalPrinter@@@ATL@@UAGJPAUIStorage@@@Z 10002b6d f i FiscalPrinter.obj
 0001:00001ba1       ?Load@?$IPersistStorageImpl@VCOPOSFiscalPrinter@@@ATL@@UAGJPAUIStorage@@@Z 10002ba1 f i FiscalPrinter.obj
 0001:00001c0d       ?Save@?$IPersistStorageImpl@VCOPOSFiscalPrinter@@@ATL@@UAGJPAUIStorage@@H@Z 10002c0d f i FiscalPrinter.obj
 0001:00001c80       ?GetPages@?$ISpecifyPropertyPagesImpl@VCOPOSFiscalPrinter@@@ATL@@UAGJPAUtagCAUUID@@@Z 10002c80 f i FiscalPrinter.obj
 0001:00001c97       ?QuickActivate@?$IQuickActivateImpl@VCOPOSFiscalPrinter@@@ATL@@UAGJPAUtagQACONTAINER@@PAUtagQACONTROL@@@Z 10002c97 f i FiscalPrinter.obj
 0001:00001cba       ?SetContentExtent@?$IQuickActivateImpl@VCOPOSFiscalPrinter@@@ATL@@UAGJPAUtagSIZE@@@Z 10002cba f i FiscalPrinter.obj
 0001:00001ce6       ?GetContentExtent@?$IQuickActivateImpl@VCOPOSFiscalPrinter@@@ATL@@UAGJPAUtagSIZE@@@Z 10002ce6 f i FiscalPrinter.obj
 0001:00001d20       ?GetData@?$IDataObjectImpl@VCOPOSFiscalPrinter@@@ATL@@UAGJPAUtagFORMATETC@@PAUtagSTGMEDIUM@@@Z 10002d20 f i FiscalPrinter.obj
 0001:00001d43       ?DAdvise@?$IDataObjectImpl@VCOPOSFiscalPrinter@@@ATL@@UAGJPAUtagFORMATETC@@KPAUIAdviseSink@@PAK@Z 10002d43 f i FiscalPrinter.obj
 0001:00001d84       ?DUnadvise@?$IDataObjectImpl@VCOPOSFiscalPrinter@@@ATL@@UAGJK@Z 10002d84 f i FiscalPrinter.obj
 0001:00001db2       ?EnumDAdvise@?$IDataObjectImpl@VCOPOSFiscalPrinter@@@ATL@@UAGJPAPAUIEnumSTATDATA@@@Z 10002db2 f i FiscalPrinter.obj
 0001:00001df1       ?GetClassInfoW@?$IProvideClassInfo2Impl@$1?CLSID_OPOSFiscalPrinter@@3U_GUID@@B$1?DIID__IOPOSFiscalPrinterEvents@@3U2@B$1?LIBID_OposFiscalPrinter_CCO@@3U2@B$00$0A@VCComTypeInfoHolder@ATL@@@ATL@@UAGJPAPAUITypeInfo@@@Z 10002df1 f i FiscalPrinter.obj
 0001:00001e07       ?GetGUID@?$IProvideClassInfo2Impl@$1?CLSID_OPOSFiscalPrinter@@3U_GUID@@B$1?DIID__IOPOSFiscalPrinterEvents@@3U2@B$1?LIBID_OposFiscalPrinter_CCO@@3U2@B$00$0A@VCComTypeInfoHolder@ATL@@@ATL@@UAGJKPAU_GUID@@@Z 10002e07 f i FiscalPrinter.obj
 0001:00001e45       __get_startup_argv_mode    10002e45 f i LIBCMT:argv_mode.obj
 0001:00001e45       ?FAccessAllowed@?$IObjectSafetyImpl@VCOPOSFiscalPrinter@@$02@ATL@@MAEHXZ 10002e45 f i FiscalPrinter.obj
 0001:00001e49       ?GetInterfaceSafetyOptions@?$IObjectSafetyImpl@VCOPOSFiscalPrinter@@$02@ATL@@UAGJABU_GUID@@PAK1@Z 10002e49 f i FiscalPrinter.obj
 0001:00001ebd       ?SetInterfaceSafetyOptions@?$IObjectSafetyImpl@VCOPOSFiscalPrinter@@$02@ATL@@UAGJABU_GUID@@KK@Z 10002ebd f i FiscalPrinter.obj
 0001:00001f37       ?_LocCPQueryInterface@?$IConnectionPointImpl@VCOPOSFiscalPrinter@@$1?DIID__IOPOSFiscalPrinterEvents@@3U_GUID@@BVCComDynamicUnkArray@ATL@@@ATL@@UAGJABU_GUID@@PAPAX@Z 10002f37 f i FiscalPrinter.obj
 0001:00001f37       ?_LocCPQueryInterface@?$IConnectionPointImpl@VCOPOSFiscalPrinter@@$1?IID_IPropertyNotifySink@@3U_GUID@@BVCComDynamicUnkArray@ATL@@@ATL@@UAGJABU_GUID@@PAPAX@Z 10002f37 f i FiscalPrinter.obj
 0001:00001f84       ?GetConnectionInterface@?$IConnectionPointImpl@VCOPOSFiscalPrinter@@$1?IID_IPropertyNotifySink@@3U_GUID@@BVCComDynamicUnkArray@ATL@@@ATL@@UAGJPAU_GUID@@@Z 10002f84 f i FiscalPrinter.obj
 0001:00001fa8       ?GetConnectionPointContainer@?$IConnectionPointImpl@VCOPOSFiscalPrinter@@$1?IID_IPropertyNotifySink@@3U_GUID@@BVCComDynamicUnkArray@ATL@@@ATL@@UAGJPAPAUIConnectionPointContainer@@@Z 10002fa8 f i FiscalPrinter.obj
 0001:00001fcb       ?Advise@?$IConnectionPointImpl@VCOPOSFiscalPrinter@@$1?DIID__IOPOSFiscalPrinterEvents@@3U_GUID@@BVCComDynamicUnkArray@ATL@@@ATL@@UAGJPAUIUnknown@@PAK@Z 10002fcb f i FiscalPrinter.obj
 0001:00001fcb       ?Advise@?$IConnectionPointImpl@VCOPOSFiscalPrinter@@$1?IID_IPropertyNotifySink@@3U_GUID@@BVCComDynamicUnkArray@ATL@@@ATL@@UAGJPAUIUnknown@@PAK@Z 10002fcb f i FiscalPrinter.obj
 0001:0000206c       ?Unadvise@?$IConnectionPointImpl@VCOPOSFiscalPrinter@@$1?DIID__IOPOSFiscalPrinterEvents@@3U_GUID@@BVCComDynamicUnkArray@ATL@@@ATL@@UAGJK@Z 1000306c f i FiscalPrinter.obj
 0001:0000206c       ?Unadvise@?$IConnectionPointImpl@VCOPOSFiscalPrinter@@$1?IID_IPropertyNotifySink@@3U_GUID@@BVCComDynamicUnkArray@ATL@@@ATL@@UAGJK@Z 1000306c f i FiscalPrinter.obj
 0001:000020ac       ?EnumConnections@?$IConnectionPointImpl@VCOPOSFiscalPrinter@@$1?DIID__IOPOSFiscalPrinterEvents@@3U_GUID@@BVCComDynamicUnkArray@ATL@@@ATL@@UAGJPAPAUIEnumConnections@@@Z 100030ac f i FiscalPrinter.obj
 0001:000020ac       ?EnumConnections@?$IConnectionPointImpl@VCOPOSFiscalPrinter@@$1?IID_IPropertyNotifySink@@3U_GUID@@BVCComDynamicUnkArray@ATL@@@ATL@@UAGJPAPAUIEnumConnections@@@Z 100030ac f i FiscalPrinter.obj
 0001:000021b2       ?GetCategoryMap@CComObjectRootBase@ATL@@SAPBU_ATL_CATMAP_ENTRY@2@XZ 100031b2 f i FiscalPrinter.obj
 0001:000021b2       ?GetObjectDescription@?$CComCoClass@VCOPOSFiscalPrinter@@$1?CLSID_OPOSFiscalPrinter@@3U_GUID@@B@ATL@@SGPB_WXZ 100031b2 f i FiscalPrinter.obj
 0001:000021b5       ?GetConnectionInterface@?$IConnectionPointImpl@VCOPOSFiscalPrinter@@$1?DIID__IOPOSFiscalPrinterEvents@@3U_GUID@@BVCComDynamicUnkArray@ATL@@@ATL@@UAGJPAU_GUID@@@Z 100031b5 f i FiscalPrinter.obj
 0001:000021d9       ?GetConnectionPointContainer@?$IConnectionPointImpl@VCOPOSFiscalPrinter@@$1?DIID__IOPOSFiscalPrinterEvents@@3U_GUID@@BVCComDynamicUnkArray@ATL@@@ATL@@UAGJPAPAUIConnectionPointContainer@@@Z 100031d9 f i FiscalPrinter.obj
 0001:000021fc       ?UpdateRegistry@COPOSFiscalPrinter@@SGJH@Z 100031fc f i FiscalPrinter.obj
 0001:00002214       ?ProcessWindowMessage@COPOSFiscalPrinter@@UAEHPAUHWND__@@IIJAAJK@Z 10003214 f i FiscalPrinter.obj
 0001:0000225d       ?SODirectIO@COPOSFiscalPrinter@@MAGJJPAJPAPA_W@Z 1000325d f i FiscalPrinter.obj
 0001:000022a6       ?SOError@COPOSFiscalPrinter@@MAGJJJJPAJ@Z 100032a6 f i FiscalPrinter.obj
 0001:000022fb       ?SOOutputComplete@COPOSFiscalPrinter@@MAGJJ@Z 100032fb f i FiscalPrinter.obj
 0001:00002334       ?SOStatusUpdate@COPOSFiscalPrinter@@MAGJJ@Z 10003334 f i FiscalPrinter.obj
 0001:0000236d       ?AddRef@CRegObject@ATL@@UAGKXZ 1000336d f i FiscalPrinter.obj
 0001:00002373       ?AddReplacement@CRegObject@ATL@@UAGJPB_W0@Z 10003373 f i FiscalPrinter.obj
 0001:000023ac       ?ClearReplacements@CRegObject@ATL@@UAGJXZ 100033ac f i FiscalPrinter.obj
 0001:000023be       ??_ECRegObject@ATL@@UAEPAXI@Z 100033be f i FiscalPrinter.obj
 0001:000023be       ??_GCRegObject@ATL@@UAEPAXI@Z 100033be f i FiscalPrinter.obj
 0001:000023e0       ?CreateInstance@?$CComCreator@V?$CComObjectCached@VCComClassFactory@ATL@@@ATL@@@ATL@@SGJPAXABU_GUID@@PAPAX@Z 100033e0 f i FiscalPrinter.obj
 0001:0000248c       ?CreateInstance@?$CComCreator2@V?$CComCreator@V?$CComObject@VCOPOSFiscalPrinter@@@ATL@@@ATL@@V?$CComCreator@V?$CComAggObject@VCOPOSFiscalPrinter@@@ATL@@@2@@ATL@@SGJPAXABU_GUID@@PAPAX@Z 1000348c f i FiscalPrinter.obj
 0001:000024ac       ?AddRef@?$CComObjectCached@VCComClassFactory@ATL@@@ATL@@UAGKXZ 100034ac f i FiscalPrinter.obj
 0001:000024d3       ?Release@?$CComObjectCached@VCComClassFactory@ATL@@@ATL@@UAGKXZ 100034d3 f i FiscalPrinter.obj
 0001:00002509       ?QueryInterface@?$CComObjectCached@VCComClassFactory@ATL@@@ATL@@UAGJABU_GUID@@PAPAX@Z 10003509 f i FiscalPrinter.obj
 0001:00002523       ??_E?$CComObjectCached@VCComClassFactory@ATL@@@ATL@@UAEPAXI@Z 10003523 f i FiscalPrinter.obj
 0001:00002523       ??_G?$CComObjectCached@VCComClassFactory@ATL@@@ATL@@UAEPAXI@Z 10003523 f i FiscalPrinter.obj
 0001:00002545       ?Next@?$CComEnumImpl@UIEnumConnectionPoints@@$1?_GUID_b196b285_bab4_101a_b69c_00aa00341d07@@3U__s_GUID@@BPAUIConnectionPoint@@V?$_CopyInterface@UIConnectionPoint@@@ATL@@@ATL@@UAGJKPAPAUIConnectionPoint@@PAK@Z 10003545 f i FiscalPrinter.obj
 0001:0000261c       ?Skip@?$CComEnumImpl@UIEnumConnectionPoints@@$1?_GUID_b196b285_bab4_101a_b69c_00aa00341d07@@3U__s_GUID@@BPAUIConnectionPoint@@V?$_CopyInterface@UIConnectionPoint@@@ATL@@@ATL@@UAGJK@Z 1000361c f i FiscalPrinter.obj
 0001:00002649       ?Clone@?$CComEnumImpl@UIEnumConnectionPoints@@$1?_GUID_b196b285_bab4_101a_b69c_00aa00341d07@@3U__s_GUID@@BPAUIConnectionPoint@@V?$_CopyInterface@UIConnectionPoint@@@ATL@@@ATL@@UAGJPAPAUIEnumConnectionPoints@@@Z 10003649 f i FiscalPrinter.obj
 0001:0000272a       ?QueryInterface@?$CComObject@V?$CComEnum@UIEnumConnectionPoints@@$1?_GUID_b196b285_bab4_101a_b69c_00aa00341d07@@3U__s_GUID@@BPAUIConnectionPoint@@V?$_CopyInterface@UIConnectionPoint@@@ATL@@VCComSingleThreadModel@6@@ATL@@@ATL@@UAGJABU_GUID@@PAPAX@Z 1000372a f i FiscalPrinter.obj
 0001:00002744       ??_G?$CComObject@V?$CComEnum@UIEnumConnectionPoints@@$1?_GUID_b196b285_bab4_101a_b69c_00aa00341d07@@3U__s_GUID@@BPAUIConnectionPoint@@V?$_CopyInterface@UIConnectionPoint@@@ATL@@VCComSingleThreadModel@6@@ATL@@@ATL@@UAEPAXI@Z 10003744 f i FiscalPrinter.obj
 0001:00002744       ??_E?$CComObject@V?$CComEnum@UIEnumConnectionPoints@@$1?_GUID_b196b285_bab4_101a_b69c_00aa00341d07@@3U__s_GUID@@BPAUIConnectionPoint@@V?$_CopyInterface@UIConnectionPoint@@@ATL@@VCComSingleThreadModel@6@@ATL@@@ATL@@UAEPAXI@Z 10003744 f i FiscalPrinter.obj
 0001:00002766       ?OnDrawAdvanced@CComControlBase@ATL@@UAEJAAUATL_DRAWINFO@@@Z 10003766 f i FiscalPrinter.obj
 0001:00002859       ?AddRef@?$CComAggObject@VCOPOSFiscalPrinter@@@ATL@@UAGKXZ 10003859 f i FiscalPrinter.obj
 0001:0000286a       ?Release@?$CComAggObject@VCOPOSFiscalPrinter@@@ATL@@UAGKXZ 1000386a f i FiscalPrinter.obj
 0001:000028a6       ?QueryInterface@?$CComAggObject@VCOPOSFiscalPrinter@@@ATL@@UAGJABU_GUID@@PAPAX@Z 100038a6 f i FiscalPrinter.obj
 0001:000028f5       ?AddRef@?$CComContainedObject@VCOPOSFiscalPrinter@@@ATL@@UAGKXZ 100038f5 f i FiscalPrinter.obj
 0001:0000290b       ?Release@?$CComContainedObject@VCOPOSFiscalPrinter@@@ATL@@UAGKXZ 1000390b f i FiscalPrinter.obj
 0001:00002921       ?QueryInterface@?$CComContainedObject@VCOPOSFiscalPrinter@@@ATL@@UAGJABU_GUID@@PAPAX@Z 10003921 f i FiscalPrinter.obj
 0001:0000293c       ??_E?$CComAggObject@VCOPOSFiscalPrinter@@@ATL@@UAEPAXI@Z 1000393c f i FiscalPrinter.obj
 0001:0000293c       ??_G?$CComAggObject@VCOPOSFiscalPrinter@@@ATL@@UAEPAXI@Z 1000393c f i FiscalPrinter.obj
 0001:00002961       ?AddRef@?$CComObject@VCOPOSFiscalPrinter@@@ATL@@UAGKXZ 10003961 f i FiscalPrinter.obj
 0001:00002978       ?Release@?$CComObject@VCOPOSFiscalPrinter@@@ATL@@UAGKXZ 10003978 f i FiscalPrinter.obj
 0001:000029ba       ?QueryInterface@?$CComObject@VCOPOSFiscalPrinter@@@ATL@@UAGJABU_GUID@@PAPAX@Z 100039ba f i FiscalPrinter.obj
 0001:000029d4       ??$?4UITypeInfo2@@@?$CComPtr@UITypeInfo@@@ATL@@QAEPAUITypeInfo@@ABV?$CComPtr@UITypeInfo2@@@1@@Z 100039d4 f i FiscalPrinter.obj
 0001:00002a01       ??$AtlAdd@K@ATL@@YAJPAKKK@Z 10003a01 f i FiscalPrinter.obj
 0001:00002a24       ??$AtlAdd@_K@ATL@@YAJPA_K_K1@Z 10003a24 f i FiscalPrinter.obj
 0001:00002a5c       ??$AtlAddThrow@K@ATL@@YAKKK@Z 10003a5c f i FiscalPrinter.obj
 0001:00002a82       ??$AtlModuleRegisterWndClassInfoT@VAtlModuleRegisterWndClassInfoParamW@ATL@@@ATL@@YAGPAU_ATL_BASE_MODULE70@0@PAU_ATL_WIN_MODULE70@0@PAU_ATL_WNDCLASSINFOW@0@PAP6GJPAUHWND__@@IIJ@ZVAtlModuleRegisterWndClassInfoParamW@0@@Z 10003a82 f i FiscalPrinter.obj
 0001:00002bd0       ??$AtlMultiply@H@ATL@@YAJPAHHH@Z 10003bd0 f i FiscalPrinter.obj
 0001:00002c08       ??$AtlMultiply@I@ATL@@YAJPAIII@Z 10003c08 f i FiscalPrinter.obj
 0001:00002c08       ??$AtlMultiply@K@ATL@@YAJPAKKK@Z 10003c08 f i FiscalPrinter.obj
 0001:00002c2a       ??$AtlMultiplyThrow@I@ATL@@YAIII@Z 10003c2a f i FiscalPrinter.obj
 0001:00002c50       ??0?$CComAggObject@VCOPOSFiscalPrinter@@@ATL@@QAE@PAX@Z 10003c50 f i FiscalPrinter.obj
 0001:00002c7d       ??0?$CComContainedObject@VCOPOSFiscalPrinter@@@ATL@@QAE@PAX@Z 10003c7d f i FiscalPrinter.obj
 0001:00002d36       ??0?$CComObject@V?$CComEnum@UIEnumConnectionPoints@@$1?_GUID_b196b285_bab4_101a_b69c_00aa00341d07@@3U__s_GUID@@BPAUIConnectionPoint@@V?$_CopyInterface@UIConnectionPoint@@@ATL@@VCComSingleThreadModel@6@@ATL@@@ATL@@QAE@PAX@Z 10003d36 f i FiscalPrinter.obj
 0001:00002d64       ??0?$CComObject@V?$CComEnum@UIEnumConnections@@$1?_GUID_b196b287_bab4_101a_b69c_00aa00341d07@@3U__s_GUID@@BUtagCONNECTDATA@@V?$_Copy@UtagCONNECTDATA@@@ATL@@VCComSingleThreadModel@6@@ATL@@@ATL@@QAE@PAX@Z 10003d64 f i FiscalPrinter.obj
 0001:00002d92       ??0?$CComObject@VCOPOSFiscalPrinter@@@ATL@@QAE@PAX@Z 10003d92 f i FiscalPrinter.obj
 0001:00002e49       ??0?$CComQIPtr@UIOleControlSite@@$1?_GUID_b196b289_bab4_101a_b69c_00aa00341d07@@3U__s_GUID@@B@ATL@@QAE@PAUIUnknown@@@Z 10003e49 f i FiscalPrinter.obj
 0001:00002e72       ??0CAtlModule@ATL@@QAE@XZ  10003e72 f i FiscalPrinter.obj
 0001:00002eb3       ??0CParseBuffer@CRegParser@ATL@@QAE@H@Z 10003eb3 f i FiscalPrinter.obj
 0001:00002ee9       ??0_ATL_MSG@ATL@@QAE@PAUHWND__@@IIJH@Z 10003ee9 f i FiscalPrinter.obj
 0001:00002f21       ??1?$CComAggObject@VCOPOSFiscalPrinter@@@ATL@@UAE@XZ 10003f21 f i FiscalPrinter.obj
 0001:00002f45       ??1?$CComEnumImpl@UIEnumConnectionPoints@@$1?_GUID_b196b285_bab4_101a_b69c_00aa00341d07@@3U__s_GUID@@BPAUIConnectionPoint@@V?$_CopyInterface@UIConnectionPoint@@@ATL@@@ATL@@UAE@XZ 10003f45 f i FiscalPrinter.obj
 0001:00002f85       ??1?$CComEnumImpl@UIEnumConnections@@$1?_GUID_b196b287_bab4_101a_b69c_00aa00341d07@@3U__s_GUID@@BUtagCONNECTDATA@@V?$_Copy@UtagCONNECTDATA@@@ATL@@@ATL@@UAE@XZ 10003f85 f i FiscalPrinter.obj
 0001:00002fc5       ??1?$CComObject@V?$CComEnum@UIEnumConnectionPoints@@$1?_GUID_b196b285_bab4_101a_b69c_00aa00341d07@@3U__s_GUID@@BPAUIConnectionPoint@@V?$_CopyInterface@UIConnectionPoint@@@ATL@@VCComSingleThreadModel@6@@ATL@@@ATL@@UAE@XZ 10003fc5 f i FiscalPrinter.obj
 0001:00002fe8       ??1?$CComObject@V?$CComEnum@UIEnumConnections@@$1?_GUID_b196b287_bab4_101a_b69c_00aa00341d07@@3U__s_GUID@@BUtagCONNECTDATA@@V?$_Copy@UtagCONNECTDATA@@@ATL@@VCComSingleThreadModel@6@@ATL@@@ATL@@UAE@XZ 10003fe8 f i FiscalPrinter.obj
 0001:0000300b       ??1?$CComObject@VCOPOSFiscalPrinter@@@ATL@@UAE@XZ 1000400b f i FiscalPrinter.obj
 0001:000030c9       ??1?$CComObjectCached@VCComClassFactory@ATL@@@ATL@@UAE@XZ 100040c9 f i FiscalPrinter.obj
 0001:000030df       ??1?$CComObjectRootEx@VCComMultiThreadModel@ATL@@@ATL@@QAE@XZ 100040df f i FiscalPrinter.obj
 0001:000030f4       ??1CRegObject@ATL@@UAE@XZ  100040f4 f i FiscalPrinter.obj
 0001:00003114       ??4?$CComPtr@UIOleClientSite@@@ATL@@QAEPAUIOleClientSite@@PAU2@@Z 10004114 f i FiscalPrinter.obj
 0001:00003114       ??4?$CComPtr@UIUnknown@@@ATL@@QAEPAUIUnknown@@PAU2@@Z 10004114 f i FiscalPrinter.obj
 0001:00003114       ??4?$CComPtr@UIAdviseSink@@@ATL@@QAEPAUIAdviseSink@@PAU2@@Z 10004114 f i FiscalPrinter.obj
 0001:00003148       ??_G?$CComContainedObject@VCOPOSFiscalPrinter@@@ATL@@UAEPAXI@Z 10004148 f i FiscalPrinter.obj
 0001:00003148       ??_E?$CComContainedObject@VCOPOSFiscalPrinter@@@ATL@@UAEPAXI@Z 10004148 f i FiscalPrinter.obj
 0001:0000316d       ??_G?$CComObject@VCOPOSFiscalPrinter@@@ATL@@UAEPAXI@Z 1000416d f i FiscalPrinter.obj
 0001:0000316d       ??_E?$CComObject@VCOPOSFiscalPrinter@@@ATL@@UAEPAXI@Z 1000416d f i FiscalPrinter.obj
 0001:00003192       ?Add@?$CSimpleArray@GV?$CSimpleArrayEqualHelper@G@ATL@@@ATL@@QAEHABG@Z 10004192 f i FiscalPrinter.obj
 0001:00003216       ?Add@?$CSimpleMap@PA_WPA_WVCExpansionVectorEqualHelper@ATL@@@ATL@@QAEHABQA_W0@Z 10004216 f i FiscalPrinter.obj
 0001:0000326b       ?Add@CComDynamicUnkArray@ATL@@QAEKPAUIUnknown@@@Z 1000426b f i FiscalPrinter.obj
 0001:00003321       ?Add@CExpansionVector@ATL@@QAEHPB_W0@Z 10004321 f i FiscalPrinter.obj
 0001:0000342a       ?AddString@CParseBuffer@CRegParser@ATL@@QAEHPB_W@Z 1000442a f i FiscalPrinter.obj
 0001:0000345f       ?AddTermFunc@CAtlModule@ATL@@QAEJP6GXK@ZK@Z 1000445f f i FiscalPrinter.obj
 0001:000034c2       ?AddValue@CRegParser@ATL@@IAEJAAVCRegKey@2@PB_WPA_W@Z 100044c2 f i FiscalPrinter.obj
 0001:000037dc       ?Allocate@?$CAtlSafeAllocBufferManager@VCCRTAllocator@ATL@@@_ATL_SAFE_ALLOCA_IMPL@ATL@@QAEPAXK@Z 100047dc f i FiscalPrinter.obj
 0001:00003809       ?Allocate@?$CTempBuffer@E$0BAA@VCCRTAllocator@ATL@@@ATL@@QAEPAEI@Z 10004809 f i FiscalPrinter.obj
 0001:00003838       ?Allocate@?$CTempBuffer@_W$0BAA@VCCRTAllocator@ATL@@@ATL@@QAEPA_WI@Z 10004838 f i FiscalPrinter.obj
 0001:00003867       ?Allocate@?$CTempBuffer@_W$0EAA@VCCRTAllocator@ATL@@@ATL@@QAEPA_WI@Z 10004867 f i FiscalPrinter.obj
 0001:00003896       ?AllocateHeap@?$CTempBuffer@E$0BAA@VCCRTAllocator@ATL@@@ATL@@AAEXI@Z 10004896 f i FiscalPrinter.obj
 0001:00003896       ?AllocateHeap@?$CTempBuffer@_W$0BAA@VCCRTAllocator@ATL@@@ATL@@AAEXI@Z 10004896 f i FiscalPrinter.obj
 0001:00003896       ?AllocateHeap@?$CTempBuffer@_W$0EAA@VCCRTAllocator@ATL@@@ATL@@AAEXI@Z 10004896 f i FiscalPrinter.obj
 0001:000038bb       ?Append@CParseBuffer@CRegParser@ATL@@QAEHPB_WH@Z 100048bb f i FiscalPrinter.obj
 0001:00003949       ?AtlCoTaskMemCAlloc@ATL@@YAPAXKK@Z 10004949 f i FiscalPrinter.obj
 0001:00003976       ?AtlCoTaskMemRecalloc@ATL@@YAPAXPAXKK@Z 10004976 f i FiscalPrinter.obj
 0001:000039a6       ?AtlComModuleGetClassObject@ATL@@YGJPAU_ATL_COM_MODULE70@1@ABU_GUID@@1PAPAX@Z 100049a6 f i FiscalPrinter.obj
 0001:00003a99       ?AtlComModuleRegisterServer@ATL@@YGJPAU_ATL_COM_MODULE70@1@HPBU_GUID@@@Z 10004a99 f i FiscalPrinter.obj
 0001:00003b21       ?AtlComModuleUnregisterServer@ATL@@YGJPAU_ATL_COM_MODULE70@1@HPBU_GUID@@@Z 10004b21 f i FiscalPrinter.obj
 0001:00003ba9       ?AtlComQIPtrAssign2@ATL@@YAXPAPAUIUnknown@@PAU2@ABU_GUID@@@Z 10004ba9 f i FiscalPrinter.obj
 0001:00003bd8       ?AtlCreateTargetDC@ATL@@YGPAUHDC__@@PAU2@PAUtagDVTARGETDEVICE@@@Z 10004bd8 f i FiscalPrinter.obj
 0001:00003c41       ?AtlCrtErrorCheck@ATL@@YAHH@Z 10004c41 f i FiscalPrinter.obj
 0001:00003c7c       ?AtlHiMetricToPixel@ATL@@YGXPBUtagSIZE@@PAU2@@Z 10004c7c f i FiscalPrinter.obj
 0001:00003cf1       ?AtlHresultFromLastError@ATL@@YAJXZ 10004cf1 f i FiscalPrinter.obj
 0001:00003d08       ?AtlHresultFromWin32@ATL@@YAJK@Z 10004d08 f i FiscalPrinter.obj
 0001:00003d1d       ?AtlInternalOleLoadFromStream@ATL@@YAJPAUIStream@@ABU_GUID@@PAPAXTClassesAllowedInStream@1@K@Z 10004d1d f i FiscalPrinter.obj
 0001:00003e43       ?AtlInternalQueryInterface@ATL@@YGJPAXPBU_ATL_INTMAP_ENTRY@1@ABU_GUID@@PAPAX@Z 10004e43 f i FiscalPrinter.obj
 0001:00003ee6       ?AtlLoadTypeLib@ATL@@YGJPAUHINSTANCE__@@PB_WPAPA_WPAPAUITypeLib@@@Z 10004ee6 f i FiscalPrinter.obj
 0001:000040c4       ?AtlRegisterClassCategoriesHelper@ATL@@YGJABU_GUID@@PBU_ATL_CATMAP_ENTRY@1@H@Z 100050c4 f i FiscalPrinter.obj
 0001:000043c0       ?AtlRegisterTypeLib@ATL@@YGJPAUHINSTANCE__@@PB_W@Z 100053c0 f i FiscalPrinter.obj
 0001:00004548       ?AtlThrowImpl@ATL@@YGXJ@Z  10005548 f i FiscalPrinter.obj
 0001:00004566       ?AtlUnRegisterTypeLib@ATL@@YGJPAUHINSTANCE__@@PB_W@Z 10005566 f i FiscalPrinter.obj
 0001:00004611       ?AtlWinModuleAddCreateWndData@ATL@@YGXPAU_ATL_WIN_MODULE70@1@PAU_AtlCreateWndData@1@PAX@Z 10005611 f i FiscalPrinter.obj
 0001:00004665       ?AtlWinModuleExtractCreateWndData@ATL@@YGPAXPAU_ATL_WIN_MODULE70@1@@Z 10005665 f i FiscalPrinter.obj
 0001:000046c8       ?AtlWinModuleRegisterClassExW@ATL@@YGGPAU_ATL_WIN_MODULE70@1@PBUtagWNDCLASSEXW@@@Z 100056c8 f i FiscalPrinter.obj
 0001:00004707       ?CanForceRemoveKey@CRegParser@ATL@@IAEHPB_W@Z 10005707 f i FiscalPrinter.obj
 0001:00004736       ?ChToByte@CRegParser@ATL@@KAE_W@Z 10005736 f i FiscalPrinter.obj
 0001:00004769       ?Cleanup@CComTypeInfoHolder@ATL@@SGXK@Z 10005769 f i FiscalPrinter.obj
 0001:0000479c       ?ClearReplacements@CExpansionVector@ATL@@QAEJXZ 1000579c f i FiscalPrinter.obj
 0001:000047d9       ?Close@CRegKey@ATL@@QAEJXZ 100057d9 f i FiscalPrinter.obj
 0001:000047f3       ?CreateInstance@?$CComCreator@V?$CComAggObject@VCOPOSFiscalPrinter@@@ATL@@@ATL@@SGJPAXABU_GUID@@PAPAX@Z 100057f3 f i FiscalPrinter.obj
 0001:00004869       ?CreateInstance@?$CComCreator@V?$CComObject@VCOPOSFiscalPrinter@@@ATL@@@ATL@@SGJPAXABU_GUID@@PAPAX@Z 10005869 f i FiscalPrinter.obj
 0001:000048ea       ?CreateInstance@?$CComObject@V?$CComEnum@UIEnumConnectionPoints@@$1?_GUID_b196b285_bab4_101a_b69c_00aa00341d07@@3U__s_GUID@@BPAUIConnectionPoint@@V?$_CopyInterface@UIConnectionPoint@@@ATL@@VCComSingleThreadModel@6@@ATL@@@ATL@@SGJPAPAV12@@Z 100058ea f i FiscalPrinter.obj
 0001:00004931       ?CreateInstance@?$CComObject@V?$CComEnum@UIEnumConnections@@$1?_GUID_b196b287_bab4_101a_b69c_00aa00341d07@@3U__s_GUID@@BUtagCONNECTDATA@@V?$_Copy@UtagCONNECTDATA@@@ATL@@VCComSingleThreadModel@6@@ATL@@@ATL@@SGJPAPAV12@@Z 10005931 f i FiscalPrinter.obj
 0001:00004978       ?DefaultReflectionHandler@?$CWindowImplRoot@VCWindow@ATL@@@ATL@@SAHPAUHWND__@@IIJAAJ@Z 10005978 f i FiscalPrinter.obj
 0001:000049eb       ?DeleteSubKey@CRegKey@ATL@@QAEJPB_W@Z 100059eb f i FiscalPrinter.obj
 0001:00004a64       ?DoEvent@COPOSFiscalPrinter@@IAEXIIJ@Z 10005a64 f i FiscalPrinter.obj
 0001:00004ae4       ?DoVerbHide@?$IOleObjectImpl@VCOPOSFiscalPrinter@@@ATL@@QAEJPBUtagRECT@@PAUHWND__@@@Z 10005ae4 f i FiscalPrinter.obj
 0001:00004b1a       ?DoVerbInPlaceActivate@?$IOleObjectImpl@VCOPOSFiscalPrinter@@@ATL@@QAEJPBUtagRECT@@PAUHWND__@@@Z 10005b1a f i FiscalPrinter.obj
 0001:00004b4d       ?DoVerbPrimary@?$IOleObjectImpl@VCOPOSFiscalPrinter@@@ATL@@QAEJPBUtagRECT@@PAUHWND__@@@Z 10005b4d f i FiscalPrinter.obj
 0001:00004bd9       ?DoVerbProperties@CComControlBase@ATL@@QAEJPBUtagRECT@@PAUHWND__@@@Z 10005bd9 f i FiscalPrinter.obj
 0001:00004d58       ?DoVerbUIActivate@?$IOleObjectImpl@VCOPOSFiscalPrinter@@@ATL@@QAEJPBUtagRECT@@PAUHWND__@@@Z 10005d58 f i FiscalPrinter.obj
 0001:00004d95       ?DoesVerbActivate@CComControlBase@ATL@@QAEHJ@Z 10005d95 f i FiscalPrinter.obj
 0001:00004db6       ?DoesVerbUIActivate@CComControlBase@ATL@@QAEHJ@Z 10005db6 f i FiscalPrinter.obj
 0001:00004deb       ?EndOfVar@CRegParser@ATL@@IAEHXZ 10005deb f i FiscalPrinter.obj
 0001:00004e0b       ?EscapeSingleQuote@CAtlModule@ATL@@SAXPA_WIPB_W@Z 10005e0b f i FiscalPrinter.obj
 0001:00004e5a       ?FindKey@?$CSimpleMap@PA_WPA_WVCExpansionVectorEqualHelper@ATL@@@ATL@@QBEHABQA_W@Z 10005e5a f i FiscalPrinter.obj
 0001:00004e91       ?FireTheEvent@?$CProxy_IOPOSEvents@VCOPOSFiscalPrinter@@@@IAEXPAVOposVariant@@IAAJPB_WJ@Z 10005e91 f i FiscalPrinter.obj
 0001:00004f23       ?FireViewChange@CComControlBase@ATL@@QAEJXZ 10005f23 f i FiscalPrinter.obj
 0001:00004f6c       ?Fire_DirectIOEvent@?$CProxy_IOPOSEvents@VCOPOSFiscalPrinter@@@@QAEXJPAJPAPA_W@Z 10005f6c f i FiscalPrinter.obj
 0001:00005055       ?Fire_ErrorEvent@?$CProxy_IOPOSEvents@VCOPOSFiscalPrinter@@@@QAEXJJJPAJ@Z 10006055 f i FiscalPrinter.obj
 0001:0000513f       ?Fire_OutputCompleteEvent@?$CProxy_IOPOSEvents@VCOPOSFiscalPrinter@@@@QAEXJ@Z 1000613f f i FiscalPrinter.obj
 0001:000051d2       ?Fire_StatusUpdateEvent@?$CProxy_IOPOSEvents@VCOPOSFiscalPrinter@@@@QAEXJ@Z 100061d2 f i FiscalPrinter.obj
 0001:00005265       ?FreeHeap@?$CTempBuffer@_W$0BAA@VCCRTAllocator@ATL@@@ATL@@AAEXXZ 10006265 f i FiscalPrinter.obj
 0001:00005265       ?FreeHeap@?$CTempBuffer@E$0BAA@VCCRTAllocator@ATL@@@ATL@@AAEXXZ 10006265 f i FiscalPrinter.obj
 0001:00005265       ?FreeHeap@?$CTempBuffer@_W$0EAA@VCCRTAllocator@ATL@@@ATL@@AAEXXZ 10006265 f i FiscalPrinter.obj
 0001:0000526e       ?GetAmbientLocaleID@CComControlBase@ATL@@QAEJAAK@Z 1000626e f i FiscalPrinter.obj
 0001:000052ca       ?GetAmbientUserMode@CComControlBase@ATL@@QAEJAAH@Z 100062ca f i FiscalPrinter.obj
 0001:0000533a       ?GetAt@CComDynamicUnkArray@ATL@@QAEPAUIUnknown@@H@Z 1000633a f i FiscalPrinter.obj
 0001:00005356       ?GetClassObject@CComModule@ATL@@QAEJABU_GUID@@0PAPAX@Z 10006356 f i FiscalPrinter.obj
 0001:000053f8       ?GetConnMap@COPOSFiscalPrinter@@SAPBU_ATL_CONNMAP_ENTRY@ATL@@PAH@Z 100063f8 f i FiscalPrinter.obj
 0001:00005468       ?GetCookie@CComDynamicUnkArray@ATL@@QAGKPAPAUIUnknown@@@Z 10006468 f i FiscalPrinter.obj
 0001:000054a0       ?GetIDsOfNames@CComTypeInfoHolder@ATL@@QAEJABU_GUID@@PAPA_WIKPAJ@Z 100064a0 f i FiscalPrinter.obj
 0001:000055c7       ?GetKeyAt@?$CSimpleMap@PA_WPA_WVCExpansionVectorEqualHelper@ATL@@@ATL@@QBEAAPA_WH@Z 100065c7 f i FiscalPrinter.obj
 0001:000055ec       ?GetPagesHelper@?$ISpecifyPropertyPagesImpl@VCOPOSFiscalPrinter@@@ATL@@IAEJPAUtagCAUUID@@PBUATL_PROPMAP_ENTRY@2@@Z 100065ec f i FiscalPrinter.obj
 0001:00005713       ?GetProperty@?$CComPtr@UIDispatch@@@ATL@@SAJPAUIDispatch@@JPAUtagVARIANT@@@Z 10006713 f i FiscalPrinter.obj
 0001:00005762       ?GetSizeMax@CComVariant@ATL@@QBEJPAT_ULARGE_INTEGER@@@Z 10006762 f i FiscalPrinter.obj
 0001:00005928       ?GetTI@CComTypeInfoHolder@ATL@@QAEJK@Z 10006928 f i FiscalPrinter.obj
 0001:00005b07       ?GetTI@CComTypeInfoHolder@ATL@@QAEJKPAPAUITypeInfo@@@Z 10006b07 f i FiscalPrinter.obj
 0001:00005b49       ?GetUnknown@CComDynamicUnkArray@ATL@@QAGPAUIUnknown@@K@Z 10006b49 f i FiscalPrinter.obj
 0001:00005b6a       ?GetValueAt@?$CSimpleMap@PA_WPA_WVCExpansionVectorEqualHelper@ATL@@@ATL@@QBEAAPA_WH@Z 10006b6a f i FiscalPrinter.obj
 0001:00005b90       ?GetZoomInfo@CComControlBase@ATL@@QAEXAAUATL_DRAWINFO@@@Z 10006b90 f i FiscalPrinter.obj
 0001:00005c23       ?HKeyFromString@CRegParser@ATL@@KAPAUHKEY__@@PA_W@Z 10006c23 f i FiscalPrinter.obj
 0001:00005c51       ?HasSubKeys@CRegParser@ATL@@IAEHPAUHKEY__@@@Z 10006c51 f i FiscalPrinter.obj
 0001:00005c86       ?IDataObject_GetData@CComControlBase@ATL@@QAEJPAUtagFORMATETC@@PAUtagSTGMEDIUM@@@Z 10006c86 f i FiscalPrinter.obj
 0001:00005e2c       ?IOleInPlaceObject_InPlaceDeactivate@CComControlBase@ATL@@QAEJXZ 10006e2c f i FiscalPrinter.obj
 0001:00005eb3       ?IOleInPlaceObject_SetObjectRects@CComControlBase@ATL@@QAEJPBUtagRECT@@0@Z 10006eb3 f i FiscalPrinter.obj
 0001:00005f80       ?IOleInPlaceObject_UIDeactivate@CComControlBase@ATL@@QAEJXZ 10006f80 f i FiscalPrinter.obj
 0001:00006042       ?IOleObject_Advise@CComControlBase@ATL@@QAEJPAUIAdviseSink@@PAK@Z 10007042 f i FiscalPrinter.obj
 0001:0000606c       ?IOleObject_Close@CComControlBase@ATL@@QAEJK@Z 1000706c f i FiscalPrinter.obj
 0001:00006150       ?IOleObject_GetClientSite@CComControlBase@ATL@@QAEJPAPAUIOleClientSite@@@Z 10007150 f i FiscalPrinter.obj
 0001:00006179       ?IOleObject_SetClientSite@CComControlBase@ATL@@QAEJPAUIOleClientSite@@@Z 10007179 f i FiscalPrinter.obj
 0001:000061b8       ?IOleObject_SetExtent@CComControlBase@ATL@@QAEJKPAUtagSIZE@@@Z 100071b8 f i FiscalPrinter.obj
 0001:0000626c       ?IPSI_GetIPersistStreamInit@?$IPersistStorageImpl@VCOPOSFiscalPrinter@@@ATL@@AAEPAUIPersistStreamInit@@XZ 1000726c f i FiscalPrinter.obj
 0001:00006314       ?IPersistStreamInit_Load@?$IPersistStreamInitImpl@VCOPOSFiscalPrinter@@@ATL@@QAEJPAUIStream@@PBUATL_PROPMAP_ENTRY@2@@Z 10007314 f i FiscalPrinter.obj
 0001:00006590       ?IPersistStreamInit_Save@?$IPersistStreamInitImpl@VCOPOSFiscalPrinter@@@ATL@@QAEJPAUIStream@@HPBUATL_PROPMAP_ENTRY@2@@Z 10007590 f i FiscalPrinter.obj
 0001:0000677e       ?IQuickActivate_QuickActivate@CComControlBase@ATL@@QAEJPAUtagQACONTAINER@@PAUtagQACONTROL@@@Z 1000777e f i FiscalPrinter.obj
 0001:000069c0       ?IViewObject_Draw@CComControlBase@ATL@@QAEJKJPAXPAUtagDVTARGETDEVICE@@PAUHDC__@@2PBU_RECTL@@3@Z 100079c0 f i FiscalPrinter.obj
 0001:00006a68       ?InPlaceActivate@CComControlBase@ATL@@QAEJJPBUtagRECT@@@Z 10007a68 f i FiscalPrinter.obj
 0001:00006cd9       ?Init@?$CComEnumImpl@UIEnumConnectionPoints@@$1?_GUID_b196b285_bab4_101a_b69c_00aa00341d07@@3U__s_GUID@@BPAUIConnectionPoint@@V?$_CopyInterface@UIConnectionPoint@@@ATL@@@ATL@@QAEJPAPAUIConnectionPoint@@0PAUIUnknown@@W4CComEnumFlags@2@@Z 10007cd9 f i FiscalPrinter.obj
 0001:00006db8       ?Init@?$CComEnumImpl@UIEnumConnections@@$1?_GUID_b196b287_bab4_101a_b69c_00aa00341d07@@3U__s_GUID@@BUtagCONNECTDATA@@V?$_Copy@UtagCONNECTDATA@@@ATL@@@ATL@@QAEJPAUtagCONNECTDATA@@0PAUIUnknown@@W4CComEnumFlags@2@@Z 10007db8 f i FiscalPrinter.obj
 0001:00006e97       ?Init@CComModule@ATL@@QAEJPAU_ATL_OBJMAP_ENTRY30@2@PAUHINSTANCE__@@PBU_GUID@@@Z 10007e97 f i FiscalPrinter.obj
 0001:00006ef6       ?Init@CDynamicStdCallThunk2@ATL@@QAEHKPAX@Z 10007ef6 f i FiscalPrinter.obj
 0001:00006f21       ?InlineIsEqualUnknown@ATL@@YGHABU_GUID@@@Z 10007f21 f i FiscalPrinter.obj
 0001:00006f49       ?InternalSetAtIndex@?$CSimpleMap@PA_WPA_WVCExpansionVectorEqualHelper@ATL@@@ATL@@QAEXHABQA_W0@Z 10007f49 f i FiscalPrinter.obj
 0001:00006f73       ?Invoke@CComTypeInfoHolder@ATL@@QAEJPAUIDispatch@@JABU_GUID@@KGPAUtagDISPPARAMS@@PAUtagVARIANT@@PAUtagEXCEPINFO@@PAI@Z 10007f73 f i FiscalPrinter.obj
 0001:00006fb6       ?IsEqualObject@?$CComPtrBase@UITypeInfo@@@ATL@@QAE_NPAUIUnknown@@@Z 10007fb6 f i FiscalPrinter.obj
 0001:00006fb6       ?IsEqualObject@?$CComPtrBase@UIOleClientSite@@@ATL@@QAE_NPAUIUnknown@@@Z 10007fb6 f i FiscalPrinter.obj
 0001:00007023       ?IsSpace@CRegParser@ATL@@IAEH_W@Z 10008023 f i FiscalPrinter.obj
 0001:0000704d       ?LoadNameCache@CComTypeInfoHolder@ATL@@QAEJPAUITypeInfo@@@Z 1000804d f i FiscalPrinter.obj
 0001:00007199       ?Lookup@?$CSimpleMap@PA_WPA_WVCExpansionVectorEqualHelper@ATL@@@ATL@@QBEPA_WABQA_W@Z 10008199 f i FiscalPrinter.obj
 0001:000071bf       ?NextToken@CRegParser@ATL@@IAEJPA_W@Z 100081bf f i FiscalPrinter.obj
 0001:000072f7       ?OnKillFocus@CComControlBase@ATL@@QAEJIIJAAH@Z 100082f7 f i FiscalPrinter.obj
 0001:00007352       ?OnMouseActivate@CComControlBase@ATL@@QAEJIIJAAH@Z 10008352 f i FiscalPrinter.obj
 0001:000073c0       ?OnPaint@CComControlBase@ATL@@QAEJIIJAAH@Z 100083c0 f i FiscalPrinter.obj
 0001:00007472       ?OnSetFocus@CComControlBase@ATL@@QAEJIIJAAH@Z 10008472 f i FiscalPrinter.obj
 0001:000074fb       ?Open@CRegKey@ATL@@QAEJPAUHKEY__@@PB_WK@Z 100084fb f i FiscalPrinter.obj
 0001:00007550       ?PreProcessBuffer@CRegParser@ATL@@QAEJPA_WPAPA_W@Z 10008550 f i FiscalPrinter.obj
 0001:000077ba       ?ProcessWindowMessage@?$CComControl@VCOPOSFiscalPrinter@@V?$CWindowImpl@VCOPOSFiscalPrinter@@VCWindow@ATL@@V?$CWinTraits@$0FGAAAAAA@$0A@@3@@ATL@@@ATL@@UAEHPAUHWND__@@IIJAAJK@Z 100087ba f i FiscalPrinter.obj
 0001:00007859       ?ReadFromStream@CComBSTR@ATL@@QAEJPAUIStream@@@Z 10008859 f i FiscalPrinter.obj
 0001:00007987       ?ReadFromStream@CComVariant@ATL@@QAEJPAUIStream@@GTClassesAllowedInStream@2@K@Z 10008987 f i FiscalPrinter.obj
 0001:00007b0d       ?RecurseDeleteKey@CRegKey@ATL@@QAEJPB_W@Z 10008b0d f i FiscalPrinter.obj
 0001:00007bfb       ?RegCreateKeyExW@CAtlTransactionManager@ATL@@QAEJPAUHKEY__@@PB_WKPA_WKKQAU_SECURITY_ATTRIBUTES@@PAPAU3@PAK@Z 10008bfb f i FiscalPrinter.obj
 0001:00007c5e       ?RegDeleteKeyW@CAtlTransactionManager@ATL@@QAEJPAUHKEY__@@PB_W@Z 10008c5e f i FiscalPrinter.obj
 0001:00007cb0       ?RegOpenKeyExW@CAtlTransactionManager@ATL@@QAEJPAUHKEY__@@PB_WKKPAPAU3@@Z 10008cb0 f i FiscalPrinter.obj
 0001:00007d07       ?Register@_ATL_WNDCLASSINFOW@ATL@@QAEGPAP6GJPAUHWND__@@IIJ@Z@Z 10008d07 f i FiscalPrinter.obj
 0001:00007d27       ?RegisterBuffer@CRegParser@ATL@@QAEJPA_WH@Z 10008d27 f i FiscalPrinter.obj
 0001:00007e60       ?RegisterFromResource@CRegObject@ATL@@IAEJPB_W00H@Z 10008e60 f i FiscalPrinter.obj
 0001:00007f96       ?RegisterServer@?$CAtlModuleT@VCComModule@ATL@@@ATL@@QAEJHPBU_GUID@@@Z 10008f96 f i FiscalPrinter.obj
 0001:00007fc4       ?RegisterServer@CComModule@ATL@@QAEJHPBU_GUID@@@Z 10008fc4 f i FiscalPrinter.obj
 0001:0000803a       ?RegisterSubkeys@CRegParser@ATL@@IAEJPA_WPAUHKEY__@@HH@Z 1000903a f i FiscalPrinter.obj
 0001:000086e1       ?Remove@CComDynamicUnkArray@ATL@@QAEHK@Z 100096e1 f i FiscalPrinter.obj
 0001:0000870a       ?RemoveAll@?$CSimpleMap@PA_WPA_WVCExpansionVectorEqualHelper@ATL@@@ATL@@QAEXXZ 1000970a f i FiscalPrinter.obj
 0001:00008736       ?ResourceRegisterSz@CRegObject@ATL@@QAGJPB_W00@Z 10009736 f i FiscalPrinter.obj
 0001:00008763       ?ResourceUnregisterSz@CRegObject@ATL@@QAGJPB_W00@Z 10009763 f i FiscalPrinter.obj
 0001:00008790       ?SendOnDataChange@CComControlBase@ATL@@QAEJK@Z 10009790 f i FiscalPrinter.obj
 0001:000087dd       ?SetControlFocus@CComControlBase@ATL@@QAEHH@Z 100097dd f i FiscalPrinter.obj
 0001:0000887a       ?SetMultiStringValue@CRegKey@ATL@@QAEJPB_W0@Z 1000987a f i FiscalPrinter.obj
 0001:000088d6       ?SetStringValue@CRegKey@ATL@@QAEJPB_W0K@Z 100098d6 f i FiscalPrinter.obj
 0001:0000891f       ?SkipAssignment@CRegParser@ATL@@IAEJPA_W@Z 1000991f f i FiscalPrinter.obj
 0001:00008984       ?SkipWhiteSpace@CRegParser@ATL@@IAEXXZ 10009984 f i FiscalPrinter.obj
 0001:000089a6       ?StrChrW@CRegParser@ATL@@KAPA_WPA_W_W@Z 100099a6 f i FiscalPrinter.obj
 0001:000089e3       ?Term@CAtlModule@ATL@@QAEXXZ 100099e3 f i FiscalPrinter.obj
 0001:00008a36       ?Term@CComModule@ATL@@QAEXXZ 10009a36 f i FiscalPrinter.obj
 0001:00008a8e       ?UnregisterServer@?$CAtlModuleT@VCComModule@ATL@@@ATL@@QAEJHPBU_GUID@@@Z 10009a8e f i FiscalPrinter.obj
 0001:00008ab4       ?UnregisterServer@CComModule@ATL@@QAEJHPBU_GUID@@@Z 10009ab4 f i FiscalPrinter.obj
 0001:00008b2a       ?UpdateRegistryFromResource@CAtlModule@ATL@@QAGJIHPAU_ATL_REGMAP_ENTRY@2@@Z 10009b2a f i FiscalPrinter.obj
 0001:00008cf5       ?UpdateRegistryFromResource@CAtlModule@ATL@@QAGJPB_WHPAU_ATL_REGMAP_ENTRY@2@@Z 10009cf5 f i FiscalPrinter.obj
 0001:00008ec6       ?VTFromRegType@CRegParser@ATL@@KAHPB_WAAG@Z 10009ec6 f i FiscalPrinter.obj
 0001:00008f33       ?WindowProc@?$CWindowImplBaseT@VCWindow@ATL@@V?$CWinTraits@$0FGAAAAAA@$0A@@2@@ATL@@SGJPAUHWND__@@IIJ@Z 10009f33 f i FiscalPrinter.obj
 0001:00009025       ?WriteToStream@CComBSTR@ATL@@QAEJPAUIStream@@@Z 1000a025 f i FiscalPrinter.obj
 0001:00009087       ?WriteToStream@CComVariant@ATL@@QAEJPAUIStream@@@Z 1000a087 f i FiscalPrinter.obj
 0001:00009201       ?WriteToStream@CComVariant@ATL@@QAEJPAUIStream@@G@Z 1000a201 f i FiscalPrinter.obj
 0001:0000926a       ?_AtlInitialConstruct@?$CComObjectRootEx@VCComMultiThreadModel@ATL@@@ATL@@QAEJXZ 1000a26a f i FiscalPrinter.obj
 0001:0000927f       ?_AtlVerifyStackAvailable@_ATL_SAFE_ALLOCA_IMPL@ATL@@YA_NK@Z 1000a27f f i FiscalPrinter.obj
 0001:000092fd       ?atlCreate@?$CWindowImpl@VCOPOSFiscalPrinter@@VCWindow@ATL@@V?$CWinTraits@$0FGAAAAAA@$0A@@3@@ATL@@QAEPAUHWND__@@PAU3@V_U_RECT@2@PB_WKKV_U_MENUorID@2@PAX@Z 1000a2fd f i FiscalPrinter.obj
 0001:00009341       ?atlCreate@?$CWindowImplBaseT@VCWindow@ATL@@V?$CWinTraits@$0FGAAAAAA@$0A@@2@@ATL@@QAEPAUHWND__@@PAU3@V_U_RECT@2@PB_WKKV_U_MENUorID@2@GPAX@Z 1000a341 f i FiscalPrinter.obj
 0001:000093dd       ?copy@?$_Copy@UtagCONNECTDATA@@@ATL@@SAJPAUtagCONNECTDATA@@PBU3@@Z 1000a3dd f i FiscalPrinter.obj
 0001:00009413       ?copy@?$_CopyInterface@UIConnectionPoint@@@ATL@@SAJPAPAUIConnectionPoint@@PBQAU3@@Z 1000a413 f i FiscalPrinter.obj
 0001:00009441       ?memcpy_s@Checked@ATL@@YAXPAXIPBXI@Z 1000a441 f i FiscalPrinter.obj
 0001:00009460       ?ocscpy_s@@YA_NPA_WIPB_W@Z 1000a460 f i FiscalPrinter.obj
 0001:000094aa       ?wcscpy_s@Checked@ATL@@YAXPA_WIPB_W@Z 1000a4aa f i FiscalPrinter.obj
 0001:000094c6       _DllCanUnloadNow@0         1000a4c6 f   FiscalPrinter.obj
 0001:000094d2       _DllGetClassObject@12      1000a4d2 f   FiscalPrinter.obj
 0001:000094e0       _DllMain@12                1000a4e0 f   FiscalPrinter.obj
 0001:00009522       _DllRegisterServer@0       1000a522 f   FiscalPrinter.obj
 0001:00009531       _DllUnregisterServer@0     1000a531 f   FiscalPrinter.obj
 0001:00009540       _InlineIsEqualGUID         1000a540 f i FiscalPrinter.obj
 0001:00009570       ___local_stdio_printf_options 1000a570 f i FiscalPrinter.obj
 0001:00009576       __vswprintf_s_l            1000a576 f i FiscalPrinter.obj
 0001:00009623       _swprintf_s                1000a623 f i FiscalPrinter.obj
 0001:0000963f       ??0?$CComControl@VCOPOSFiscalPrinter@@V?$CWindowImpl@VCOPOSFiscalPrinter@@VCWindow@ATL@@V?$CWinTraits@$0FGAAAAAA@$0A@@3@@ATL@@@ATL@@QAE@XZ 1000a63f f i FiscalPrinterImpl.obj
 0001:00009666       ??0?$CProxy_IOPOSEvents@VCOPOSFiscalPrinter@@@@QAE@XZ 1000a666 f i FiscalPrinterImpl.obj
 0001:00009686       ??0CComControlBase@ATL@@QAE@AAPAUHWND__@@@Z 1000a686 f i FiscalPrinterImpl.obj
 0001:000096d0       ??0COPOSFiscalPrinter@@QAE@XZ 1000a6d0 f   FiscalPrinterImpl.obj
 0001:00009706       ??1?$CComControl@VCOPOSFiscalPrinter@@V?$CWindowImpl@VCOPOSFiscalPrinter@@VCWindow@ATL@@V?$CWinTraits@$0FGAAAAAA@$0A@@3@@ATL@@@ATL@@UAE@XZ 1000a706 f i FiscalPrinterImpl.obj
 0001:0000971f       ??1?$IConnectionPointImpl@VCOPOSFiscalPrinter@@$1?IID_IPropertyNotifySink@@3U_GUID@@BVCComDynamicUnkArray@ATL@@@ATL@@QAE@XZ 1000a71f f i FiscalPrinterImpl.obj
 0001:0000971f       ??1?$IConnectionPointImpl@VCOPOSFiscalPrinter@@$1?DIID__IOPOSFiscalPrinterEvents@@3U_GUID@@BVCComDynamicUnkArray@ATL@@@ATL@@QAE@XZ 1000a71f f i FiscalPrinterImpl.obj
 0001:0000975c       ??1CComControlBase@ATL@@UAE@XZ 1000a75c f i FiscalPrinterImpl.obj
 0001:000097bf       ??1COPOSFiscalPrinter@@UAE@XZ 1000a7bf f   FiscalPrinterImpl.obj
 0001:00009807       ?BeginFiscalDocument@COPOSFiscalPrinter@@UAGJJPAJ@Z 1000a807 f   FiscalPrinterImpl.obj
 0001:00009856       ?BeginFiscalReceipt@COPOSFiscalPrinter@@UAGJFPAJ@Z 1000a856 f   FiscalPrinterImpl.obj
 0001:000098a5       ?BeginFixedOutput@COPOSFiscalPrinter@@UAGJJJPAJ@Z 1000a8a5 f   FiscalPrinterImpl.obj
 0001:00009919       ?BeginInsertion@COPOSFiscalPrinter@@UAGJJPAJ@Z 1000a919 f   FiscalPrinterImpl.obj
 0001:00009968       ?BeginItemList@COPOSFiscalPrinter@@UAGJJPAJ@Z 1000a968 f   FiscalPrinterImpl.obj
 0001:000099b7       ?BeginNonFiscal@COPOSFiscalPrinter@@UAGJPAJ@Z 1000a9b7 f   FiscalPrinterImpl.obj
 0001:000099d2       ?BeginRemoval@COPOSFiscalPrinter@@UAGJJPAJ@Z 1000a9d2 f   FiscalPrinterImpl.obj
 0001:00009a21       ?BeginTraining@COPOSFiscalPrinter@@UAGJPAJ@Z 1000aa21 f   FiscalPrinterImpl.obj
 0001:00009a3c       ?CheckHealth@COPOSFiscalPrinter@@UAGJJPAJ@Z 1000aa3c f   FiscalPrinterImpl.obj
 0001:00009a8b       ?ClaimDevice@COPOSFiscalPrinter@@UAGJJPAJ@Z 1000aa8b f   FiscalPrinterImpl.obj
 0001:00009b00       ?ClearError@COPOSFiscalPrinter@@UAGJPAJ@Z 1000ab00 f   FiscalPrinterImpl.obj
 0001:00009b1b       ?ClearOutput@COPOSFiscalPrinter@@UAGJPAJ@Z 1000ab1b f   FiscalPrinterImpl.obj
 0001:00009b36       ?Close@COPOSFiscalPrinter@@UAGJPAJ@Z 1000ab36 f   FiscalPrinterImpl.obj
 0001:00009ba4       ?CompareFirmwareVersion@COPOSFiscalPrinter@@UAGJPA_WPAJ1@Z 1000aba4 f   FiscalPrinterImpl.obj
 0001:00009c24       ?DirectIO@COPOSFiscalPrinter@@UAGJJPAJPAPA_W0@Z 1000ac24 f   FiscalPrinterImpl.obj
 0001:00009cd2       ?DoInvoke@COPOSFiscalPrinter@@IAEJJPAVOposVariant@@IHPAJ_N@Z 1000acd2 f   FiscalPrinterImpl.obj
 0001:00009dae       ?EndFiscalDocument@COPOSFiscalPrinter@@UAGJPAJ@Z 1000adae f   FiscalPrinterImpl.obj
 0001:00009dc9       ?EndFiscalReceipt@COPOSFiscalPrinter@@UAGJFPAJ@Z 1000adc9 f   FiscalPrinterImpl.obj
 0001:00009e18       ?EndFixedOutput@COPOSFiscalPrinter@@UAGJPAJ@Z 1000ae18 f   FiscalPrinterImpl.obj
 0001:00009e33       ?EndInsertion@COPOSFiscalPrinter@@UAGJPAJ@Z 1000ae33 f   FiscalPrinterImpl.obj
 0001:00009e4e       ?EndItemList@COPOSFiscalPrinter@@UAGJPAJ@Z 1000ae4e f   FiscalPrinterImpl.obj
 0001:00009e69       ?EndNonFiscal@COPOSFiscalPrinter@@UAGJPAJ@Z 1000ae69 f   FiscalPrinterImpl.obj
 0001:00009e84       ?EndRemoval@COPOSFiscalPrinter@@UAGJPAJ@Z 1000ae84 f   FiscalPrinterImpl.obj
 0001:00009e9f       ?EndTraining@COPOSFiscalPrinter@@UAGJPAJ@Z 1000ae9f f   FiscalPrinterImpl.obj
 0001:00009eba       ?EventClose@COPOSFiscalPrinter@@IAEXXZ 1000aeba f i FiscalPrinterImpl.obj
 0001:00009eed       ?EventInit@COPOSFiscalPrinter@@IAEJXZ 1000aeed f i FiscalPrinterImpl.obj
 0001:00009fb9       ?EventUninit@COPOSFiscalPrinter@@IAEXXZ 1000afb9 f i FiscalPrinterImpl.obj
 0001:0000a00b       ?EventWindowProc@COPOSFiscalPrinter@@IAGJIIJ@Z 1000b00b f i FiscalPrinterImpl.obj
 0001:0000a0de       ?FinalConstruct@COPOSFiscalPrinter@@QAEJXZ 1000b0de f   FiscalPrinterImpl.obj
 0001:0000a117       ?FireEventCleanup@COPOSFiscalPrinter@@IAEXXZ 1000b117 f i FiscalPrinterImpl.obj
 0001:0000a12d       ?FireEventSetup@COPOSFiscalPrinter@@IAE_NXZ 1000b12d f i FiscalPrinterImpl.obj
 0001:0000a161       ?FreezeEvents@COPOSFiscalPrinter@@MAGJH@Z 1000b161 f   FiscalPrinterImpl.obj
 0001:0000a1c1       ?GetData@COPOSFiscalPrinter@@UAGJJPAJPAPA_W0@Z 1000b1c1 f   FiscalPrinterImpl.obj
 0001:0000a26f       ?GetDate@COPOSFiscalPrinter@@UAGJPAPA_WPAJ@Z 1000b26f f   FiscalPrinterImpl.obj
 0001:0000a2c6       ?GetOposProp@COPOSFiscalPrinter@@IAEJJPAFJ@Z 1000b2c6 f   FiscalPrinterImpl.obj
 0001:0000a2e9       ?GetOposProp@COPOSFiscalPrinter@@IAEJJPAJJ@Z 1000b2e9 f   FiscalPrinterImpl.obj
 0001:0000a3b8       ?GetOposProp@COPOSFiscalPrinter@@IAEJJPAPA_WJ@Z 1000b3b8 f   FiscalPrinterImpl.obj
 0001:0000a494       ?GetTotalizer@COPOSFiscalPrinter@@UAGJJJPAPA_WPAJ@Z 1000b494 f   FiscalPrinterImpl.obj
 0001:0000a538       ?GetVatEntry@COPOSFiscalPrinter@@UAGJJJPAJ0@Z 1000b538 f   FiscalPrinterImpl.obj
 0001:0000a5dc       ?OnDraw@COPOSFiscalPrinter@@MAEJAAUATL_DRAWINFO@@@Z 1000b5dc f   FiscalPrinterImpl.obj
 0001:0000a67c       ?Open@COPOSFiscalPrinter@@UAGJPA_WPAJ@Z 1000b67c f   FiscalPrinterImpl.obj
 0001:0000aec2       ?PrintDuplicateReceipt@COPOSFiscalPrinter@@UAGJPAJ@Z 1000bec2 f   FiscalPrinterImpl.obj
 0001:0000aedd       ?PrintFiscalDocumentLine@COPOSFiscalPrinter@@UAGJPA_WPAJ@Z 1000bedd f   FiscalPrinterImpl.obj
 0001:0000af34       ?PrintFixedOutput@COPOSFiscalPrinter@@UAGJJJPA_WPAJ@Z 1000bf34 f   FiscalPrinterImpl.obj
 0001:0000afd8       ?PrintNormal@COPOSFiscalPrinter@@UAGJJPA_WPAJ@Z 1000bfd8 f   FiscalPrinterImpl.obj
 0001:0000b054       ?PrintPeriodicTotalsReport@COPOSFiscalPrinter@@UAGJPA_W0PAJ@Z 1000c054 f   FiscalPrinterImpl.obj
 0001:0000b0d4       ?PrintPowerLossReport@COPOSFiscalPrinter@@UAGJPAJ@Z 1000c0d4 f   FiscalPrinterImpl.obj
 0001:0000b0ef       ?PrintRecCash@COPOSFiscalPrinter@@UAGJTtagCY@@PAJ@Z 1000c0ef f   FiscalPrinterImpl.obj
 0001:0000b141       ?PrintRecItem@COPOSFiscalPrinter@@UAGJPA_WTtagCY@@JJ10PAJ@Z 1000c141 f   FiscalPrinterImpl.obj
 0001:0000b23a       ?PrintRecItemAdjustment@COPOSFiscalPrinter@@UAGJJPA_WTtagCY@@JPAJ@Z 1000c23a f   FiscalPrinterImpl.obj
 0001:0000b2ec       ?PrintRecItemAdjustmentVoid@COPOSFiscalPrinter@@UAGJJPA_WTtagCY@@JPAJ@Z 1000c2ec f   FiscalPrinterImpl.obj
 0001:0000b39e       ?PrintRecItemFuel@COPOSFiscalPrinter@@UAGJPA_WTtagCY@@JJ1010PAJ@Z 1000c39e f   FiscalPrinterImpl.obj
 0001:0000b4c9       ?PrintRecItemFuelVoid@COPOSFiscalPrinter@@UAGJPA_WTtagCY@@J1PAJ@Z 1000c4c9 f   FiscalPrinterImpl.obj
 0001:0000b57e       ?PrintRecItemRefund@COPOSFiscalPrinter@@UAGJPA_WTtagCY@@JJ10PAJ@Z 1000c57e f   FiscalPrinterImpl.obj
 0001:0000b677       ?PrintRecItemRefundVoid@COPOSFiscalPrinter@@UAGJPA_WTtagCY@@JJ10PAJ@Z 1000c677 f   FiscalPrinterImpl.obj
 0001:0000b770       ?PrintRecItemVoid@COPOSFiscalPrinter@@UAGJPA_WTtagCY@@JJ10PAJ@Z 1000c770 f   FiscalPrinterImpl.obj
 0001:0000b869       ?PrintRecMessage@COPOSFiscalPrinter@@UAGJPA_WPAJ@Z 1000c869 f   FiscalPrinterImpl.obj
 0001:0000b8c0       ?PrintRecNotPaid@COPOSFiscalPrinter@@UAGJPA_WTtagCY@@PAJ@Z 1000c8c0 f   FiscalPrinterImpl.obj
 0001:0000b93f       ?PrintRecPackageAdjustVoid@COPOSFiscalPrinter@@UAGJJPA_WPAJ@Z 1000c93f f   FiscalPrinterImpl.obj
 0001:0000b9bb       ?PrintRecPackageAdjustment@COPOSFiscalPrinter@@UAGJJPA_W0PAJ@Z 1000c9bb f   FiscalPrinterImpl.obj
 0001:0000ba69       ?PrintRecRefund@COPOSFiscalPrinter@@UAGJPA_WTtagCY@@JPAJ@Z 1000ca69 f   FiscalPrinterImpl.obj
 0001:0000bb10       ?PrintRecRefundVoid@COPOSFiscalPrinter@@UAGJPA_WTtagCY@@JPAJ@Z 1000cb10 f   FiscalPrinterImpl.obj
 0001:0000bbb7       ?PrintRecSubtotal@COPOSFiscalPrinter@@UAGJTtagCY@@PAJ@Z 1000cbb7 f   FiscalPrinterImpl.obj
 0001:0000bc09       ?PrintRecSubtotalAdjustVoid@COPOSFiscalPrinter@@UAGJJTtagCY@@PAJ@Z 1000cc09 f   FiscalPrinterImpl.obj
 0001:0000bc80       ?PrintRecSubtotalAdjustment@COPOSFiscalPrinter@@UAGJJPA_WTtagCY@@PAJ@Z 1000cc80 f   FiscalPrinterImpl.obj
 0001:0000bd27       ?PrintRecTaxID@COPOSFiscalPrinter@@UAGJPA_WPAJ@Z 1000cd27 f   FiscalPrinterImpl.obj
 0001:0000bd7e       ?PrintRecTotal@COPOSFiscalPrinter@@UAGJTtagCY@@0PA_WPAJ@Z 1000cd7e f   FiscalPrinterImpl.obj
 0001:0000be28       ?PrintRecVoid@COPOSFiscalPrinter@@UAGJPA_WPAJ@Z 1000ce28 f   FiscalPrinterImpl.obj
 0001:0000be7f       ?PrintRecVoidItem@COPOSFiscalPrinter@@UAGJPA_WTtagCY@@JJ1JPAJ@Z 1000ce7f f   FiscalPrinterImpl.obj
 0001:0000bf65       ?PrintReport@COPOSFiscalPrinter@@UAGJJPA_W0PAJ@Z 1000cf65 f   FiscalPrinterImpl.obj
 0001:0000c013       ?PrintXReport@COPOSFiscalPrinter@@UAGJPAJ@Z 1000d013 f   FiscalPrinterImpl.obj
 0001:0000c02e       ?PrintZReport@COPOSFiscalPrinter@@UAGJPAJ@Z 1000d02e f   FiscalPrinterImpl.obj
 0001:0000c049       ?ReleaseDevice@COPOSFiscalPrinter@@UAGJPAJ@Z 1000d049 f   FiscalPrinterImpl.obj
 0001:0000c098       ?ResetPrinterW@COPOSFiscalPrinter@@UAGJPAJ@Z 1000d098 f   FiscalPrinterImpl.obj
 0001:0000c0b3       ?ResetStatistics@COPOSFiscalPrinter@@UAGJPA_WPAJ@Z 1000d0b3 f   FiscalPrinterImpl.obj
 0001:0000c10a       ?RetrieveStatistics@COPOSFiscalPrinter@@UAGJPAPA_WPAJ@Z 1000d10a f   FiscalPrinterImpl.obj
 0001:0000c161       ?SOProcessID@COPOSFiscalPrinter@@UAGJPAJ@Z 1000d161 f   FiscalPrinterImpl.obj
 0001:0000c175       ?SetCOFreezeEvents@COPOSFiscalPrinter@@IAEXF@Z 1000d175 f   FiscalPrinterImpl.obj
 0001:0000c215       ?SetCurrency@COPOSFiscalPrinter@@UAGJJPAJ@Z 1000d215 f   FiscalPrinterImpl.obj
 0001:0000c264       ?SetDate@COPOSFiscalPrinter@@UAGJPA_WPAJ@Z 1000d264 f   FiscalPrinterImpl.obj
 0001:0000c2bb       ?SetHeaderLine@COPOSFiscalPrinter@@UAGJJPA_WFPAJ@Z 1000d2bb f   FiscalPrinterImpl.obj
 0001:0000c35f       ?SetOposProp@COPOSFiscalPrinter@@IAEJJJJ@Z 1000d35f f   FiscalPrinterImpl.obj
 0001:0000c456       ?SetOposProp@COPOSFiscalPrinter@@IAEJJPA_WJ@Z 1000d456 f   FiscalPrinterImpl.obj
 0001:0000c557       ?SetPOSID@COPOSFiscalPrinter@@UAGJPA_W0PAJ@Z 1000d557 f   FiscalPrinterImpl.obj
 0001:0000c5d7       ?SetStoreFiscalID@COPOSFiscalPrinter@@UAGJPA_WPAJ@Z 1000d5d7 f   FiscalPrinterImpl.obj
 0001:0000c62e       ?SetTrailerLine@COPOSFiscalPrinter@@UAGJJPA_WFPAJ@Z 1000d62e f   FiscalPrinterImpl.obj
 0001:0000c6d2       ?SetVatTable@COPOSFiscalPrinter@@UAGJPAJ@Z 1000d6d2 f   FiscalPrinterImpl.obj
 0001:0000c6ed       ?SetVatValue@COPOSFiscalPrinter@@UAGJJPA_WPAJ@Z 1000d6ed f   FiscalPrinterImpl.obj
 0001:0000c769       ?UpdateFirmware@COPOSFiscalPrinter@@UAGJPA_WPAJ@Z 1000d769 f   FiscalPrinterImpl.obj
 0001:0000c7c0       ?UpdateStatistics@COPOSFiscalPrinter@@UAGJPA_WPAJ@Z 1000d7c0 f   FiscalPrinterImpl.obj
 0001:0000c817       ?VerifyItem@COPOSFiscalPrinter@@UAGJPA_WJPAJ@Z 1000d817 f   FiscalPrinterImpl.obj
 0001:0000c893       ?get_ActualCurrency@COPOSFiscalPrinter@@UAGJPAJ@Z 1000d893 f   FiscalPrinterImpl.obj
 0001:0000c8ac       ?get_AdditionalHeader@COPOSFiscalPrinter@@UAGJPAPA_W@Z 1000d8ac f   FiscalPrinterImpl.obj
 0001:0000c8c5       ?get_AdditionalTrailer@COPOSFiscalPrinter@@UAGJPAPA_W@Z 1000d8c5 f   FiscalPrinterImpl.obj
 0001:0000c8de       ?get_AmountDecimalPlaces@COPOSFiscalPrinter@@UAGJPAJ@Z 1000d8de f   FiscalPrinterImpl.obj
 0001:0000c8f7       ?get_AsyncMode@COPOSFiscalPrinter@@UAGJPAF@Z 1000d8f7 f   FiscalPrinterImpl.obj
 0001:0000c910       ?get_BinaryConversion@COPOSFiscalPrinter@@UAGJPAJ@Z 1000d910 f   FiscalPrinterImpl.obj
 0001:0000c926       ?get_CapAdditionalHeader@COPOSFiscalPrinter@@UAGJPAF@Z 1000d926 f   FiscalPrinterImpl.obj
 0001:0000c93f       ?get_CapAdditionalLines@COPOSFiscalPrinter@@UAGJPAF@Z 1000d93f f   FiscalPrinterImpl.obj
 0001:0000c958       ?get_CapAdditionalTrailer@COPOSFiscalPrinter@@UAGJPAF@Z 1000d958 f   FiscalPrinterImpl.obj
 0001:0000c971       ?get_CapAmountAdjustment@COPOSFiscalPrinter@@UAGJPAF@Z 1000d971 f   FiscalPrinterImpl.obj
 0001:0000c98a       ?get_CapAmountNotPaid@COPOSFiscalPrinter@@UAGJPAF@Z 1000d98a f   FiscalPrinterImpl.obj
 0001:0000c9a3       ?get_CapChangeDue@COPOSFiscalPrinter@@UAGJPAF@Z 1000d9a3 f   FiscalPrinterImpl.obj
 0001:0000c9bc       ?get_CapCheckTotal@COPOSFiscalPrinter@@UAGJPAF@Z 1000d9bc f   FiscalPrinterImpl.obj
 0001:0000c9d5       ?get_CapCompareFirmwareVersion@COPOSFiscalPrinter@@UAGJPAF@Z 1000d9d5 f   FiscalPrinterImpl.obj
 0001:0000c9ee       ?get_CapCoverSensor@COPOSFiscalPrinter@@UAGJPAF@Z 1000d9ee f   FiscalPrinterImpl.obj
 0001:0000ca07       ?get_CapDoubleWidth@COPOSFiscalPrinter@@UAGJPAF@Z 1000da07 f   FiscalPrinterImpl.obj
 0001:0000ca20       ?get_CapDuplicateReceipt@COPOSFiscalPrinter@@UAGJPAF@Z 1000da20 f   FiscalPrinterImpl.obj
 0001:0000ca39       ?get_CapEmptyReceiptIsVoidable@COPOSFiscalPrinter@@UAGJPAF@Z 1000da39 f   FiscalPrinterImpl.obj
 0001:0000ca52       ?get_CapFiscalReceiptStation@COPOSFiscalPrinter@@UAGJPAF@Z 1000da52 f   FiscalPrinterImpl.obj
 0001:0000ca6b       ?get_CapFiscalReceiptType@COPOSFiscalPrinter@@UAGJPAF@Z 1000da6b f   FiscalPrinterImpl.obj
 0001:0000ca84       ?get_CapFixedOutput@COPOSFiscalPrinter@@UAGJPAF@Z 1000da84 f   FiscalPrinterImpl.obj
 0001:0000ca9d       ?get_CapHasVatTable@COPOSFiscalPrinter@@UAGJPAF@Z 1000da9d f   FiscalPrinterImpl.obj
 0001:0000cab6       ?get_CapIndependentHeader@COPOSFiscalPrinter@@UAGJPAF@Z 1000dab6 f   FiscalPrinterImpl.obj
 0001:0000cacf       ?get_CapItemList@COPOSFiscalPrinter@@UAGJPAF@Z 1000dacf f   FiscalPrinterImpl.obj
 0001:0000cae8       ?get_CapJrnEmptySensor@COPOSFiscalPrinter@@UAGJPAF@Z 1000dae8 f   FiscalPrinterImpl.obj
 0001:0000cb01       ?get_CapJrnNearEndSensor@COPOSFiscalPrinter@@UAGJPAF@Z 1000db01 f   FiscalPrinterImpl.obj
 0001:0000cb1a       ?get_CapJrnPresent@COPOSFiscalPrinter@@UAGJPAF@Z 1000db1a f   FiscalPrinterImpl.obj
 0001:0000cb33       ?get_CapMultiContractor@COPOSFiscalPrinter@@UAGJPAF@Z 1000db33 f   FiscalPrinterImpl.obj
 0001:0000cb4c       ?get_CapNonFiscalMode@COPOSFiscalPrinter@@UAGJPAF@Z 1000db4c f   FiscalPrinterImpl.obj
 0001:0000cb65       ?get_CapOnlyVoidLastItem@COPOSFiscalPrinter@@UAGJPAF@Z 1000db65 f   FiscalPrinterImpl.obj
 0001:0000cb7e       ?get_CapOrderAdjustmentFirst@COPOSFiscalPrinter@@UAGJPAF@Z 1000db7e f   FiscalPrinterImpl.obj
 0001:0000cb97       ?get_CapPackageAdjustment@COPOSFiscalPrinter@@UAGJPAF@Z 1000db97 f   FiscalPrinterImpl.obj
 0001:0000cbb0       ?get_CapPercentAdjustment@COPOSFiscalPrinter@@UAGJPAF@Z 1000dbb0 f   FiscalPrinterImpl.obj
 0001:0000cbc9       ?get_CapPositiveAdjustment@COPOSFiscalPrinter@@UAGJPAF@Z 1000dbc9 f   FiscalPrinterImpl.obj
 0001:0000cbe2       ?get_CapPositiveSubtotalAdjustment@COPOSFiscalPrinter@@UAGJPAF@Z 1000dbe2 f   FiscalPrinterImpl.obj
 0001:0000cbfb       ?get_CapPostPreLine@COPOSFiscalPrinter@@UAGJPAF@Z 1000dbfb f   FiscalPrinterImpl.obj
 0001:0000cc14       ?get_CapPowerLossReport@COPOSFiscalPrinter@@UAGJPAF@Z 1000dc14 f   FiscalPrinterImpl.obj
 0001:0000cc2d       ?get_CapPowerReporting@COPOSFiscalPrinter@@UAGJPAJ@Z 1000dc2d f   FiscalPrinterImpl.obj
 0001:0000cc46       ?get_CapPredefinedPaymentLines@COPOSFiscalPrinter@@UAGJPAF@Z 1000dc46 f   FiscalPrinterImpl.obj
 0001:0000cc5f       ?get_CapRecEmptySensor@COPOSFiscalPrinter@@UAGJPAF@Z 1000dc5f f   FiscalPrinterImpl.obj
 0001:0000cc78       ?get_CapRecNearEndSensor@COPOSFiscalPrinter@@UAGJPAF@Z 1000dc78 f   FiscalPrinterImpl.obj
 0001:0000cc91       ?get_CapRecPresent@COPOSFiscalPrinter@@UAGJPAF@Z 1000dc91 f   FiscalPrinterImpl.obj
 0001:0000ccaa       ?get_CapReceiptNotPaid@COPOSFiscalPrinter@@UAGJPAF@Z 1000dcaa f   FiscalPrinterImpl.obj
 0001:0000ccc3       ?get_CapRemainingFiscalMemory@COPOSFiscalPrinter@@UAGJPAF@Z 1000dcc3 f   FiscalPrinterImpl.obj
 0001:0000ccdc       ?get_CapReservedWord@COPOSFiscalPrinter@@UAGJPAF@Z 1000dcdc f   FiscalPrinterImpl.obj
 0001:0000ccf5       ?get_CapSetCurrency@COPOSFiscalPrinter@@UAGJPAF@Z 1000dcf5 f   FiscalPrinterImpl.obj
 0001:0000cd0e       ?get_CapSetHeader@COPOSFiscalPrinter@@UAGJPAF@Z 1000dd0e f   FiscalPrinterImpl.obj
 0001:0000cd27       ?get_CapSetPOSID@COPOSFiscalPrinter@@UAGJPAF@Z 1000dd27 f   FiscalPrinterImpl.obj
 0001:0000cd40       ?get_CapSetStoreFiscalID@COPOSFiscalPrinter@@UAGJPAF@Z 1000dd40 f   FiscalPrinterImpl.obj
 0001:0000cd59       ?get_CapSetTrailer@COPOSFiscalPrinter@@UAGJPAF@Z 1000dd59 f   FiscalPrinterImpl.obj
 0001:0000cd72       ?get_CapSetVatTable@COPOSFiscalPrinter@@UAGJPAF@Z 1000dd72 f   FiscalPrinterImpl.obj
 0001:0000cd8b       ?get_CapSlpEmptySensor@COPOSFiscalPrinter@@UAGJPAF@Z 1000dd8b f   FiscalPrinterImpl.obj
 0001:0000cda4       ?get_CapSlpFiscalDocument@COPOSFiscalPrinter@@UAGJPAF@Z 1000dda4 f   FiscalPrinterImpl.obj
 0001:0000cdbd       ?get_CapSlpFullSlip@COPOSFiscalPrinter@@UAGJPAF@Z 1000ddbd f   FiscalPrinterImpl.obj
 0001:0000cdd6       ?get_CapSlpNearEndSensor@COPOSFiscalPrinter@@UAGJPAF@Z 1000ddd6 f   FiscalPrinterImpl.obj
 0001:0000cdef       ?get_CapSlpPresent@COPOSFiscalPrinter@@UAGJPAF@Z 1000ddef f   FiscalPrinterImpl.obj
 0001:0000ce08       ?get_CapSlpValidation@COPOSFiscalPrinter@@UAGJPAF@Z 1000de08 f   FiscalPrinterImpl.obj
 0001:0000ce21       ?get_CapStatisticsReporting@COPOSFiscalPrinter@@UAGJPAF@Z 1000de21 f   FiscalPrinterImpl.obj
 0001:0000ce3a       ?get_CapSubAmountAdjustment@COPOSFiscalPrinter@@UAGJPAF@Z 1000de3a f   FiscalPrinterImpl.obj
 0001:0000ce53       ?get_CapSubPercentAdjustment@COPOSFiscalPrinter@@UAGJPAF@Z 1000de53 f   FiscalPrinterImpl.obj
 0001:0000ce6c       ?get_CapSubtotal@COPOSFiscalPrinter@@UAGJPAF@Z 1000de6c f   FiscalPrinterImpl.obj
 0001:0000ce85       ?get_CapTotalizerType@COPOSFiscalPrinter@@UAGJPAF@Z 1000de85 f   FiscalPrinterImpl.obj
 0001:0000ce9e       ?get_CapTrainingMode@COPOSFiscalPrinter@@UAGJPAF@Z 1000de9e f   FiscalPrinterImpl.obj
 0001:0000ceb7       ?get_CapUpdateFirmware@COPOSFiscalPrinter@@UAGJPAF@Z 1000deb7 f   FiscalPrinterImpl.obj
 0001:0000ced0       ?get_CapUpdateStatistics@COPOSFiscalPrinter@@UAGJPAF@Z 1000ded0 f   FiscalPrinterImpl.obj
 0001:0000cee9       ?get_CapValidateJournal@COPOSFiscalPrinter@@UAGJPAF@Z 1000dee9 f   FiscalPrinterImpl.obj
 0001:0000cf02       ?get_CapXReport@COPOSFiscalPrinter@@UAGJPAF@Z 1000df02 f   FiscalPrinterImpl.obj
 0001:0000cf1b       ?get_ChangeDue@COPOSFiscalPrinter@@UAGJPAPA_W@Z 1000df1b f   FiscalPrinterImpl.obj
 0001:0000cf34       ?get_CheckHealthText@COPOSFiscalPrinter@@UAGJPAPA_W@Z 1000df34 f   FiscalPrinterImpl.obj
 0001:0000cf4d       ?get_CheckTotal@COPOSFiscalPrinter@@UAGJPAF@Z 1000df4d f   FiscalPrinterImpl.obj
 0001:0000cf66       ?get_Claimed@COPOSFiscalPrinter@@UAGJPAF@Z 1000df66 f   FiscalPrinterImpl.obj
 0001:0000cf7c       ?get_ContractorId@COPOSFiscalPrinter@@UAGJPAJ@Z 1000df7c f   FiscalPrinterImpl.obj
 0001:0000cf95       ?get_ControlObjectDescription@COPOSFiscalPrinter@@UAGJPAPA_W@Z 1000df95 f   FiscalPrinterImpl.obj
 0001:0000cfe3       ?get_ControlObjectVersion@COPOSFiscalPrinter@@UAGJPAJ@Z 1000dfe3 f   FiscalPrinterImpl.obj
 0001:0000cff6       ?get_CountryCode@COPOSFiscalPrinter@@UAGJPAJ@Z 1000dff6 f   FiscalPrinterImpl.obj
 0001:0000d00f       ?get_CoverOpen@COPOSFiscalPrinter@@UAGJPAF@Z 1000e00f f   FiscalPrinterImpl.obj
 0001:0000d028       ?get_DateType@COPOSFiscalPrinter@@UAGJPAJ@Z 1000e028 f   FiscalPrinterImpl.obj
 0001:0000d041       ?get_DayOpened@COPOSFiscalPrinter@@UAGJPAF@Z 1000e041 f   FiscalPrinterImpl.obj
 0001:0000d05a       ?get_DescriptionLength@COPOSFiscalPrinter@@UAGJPAJ@Z 1000e05a f   FiscalPrinterImpl.obj
 0001:0000d073       ?get_DeviceDescription@COPOSFiscalPrinter@@UAGJPAPA_W@Z 1000e073 f   FiscalPrinterImpl.obj
 0001:0000d08c       ?get_DeviceEnabled@COPOSFiscalPrinter@@UAGJPAF@Z 1000e08c f   FiscalPrinterImpl.obj
 0001:0000d0a2       ?get_DeviceName@COPOSFiscalPrinter@@UAGJPAPA_W@Z 1000e0a2 f   FiscalPrinterImpl.obj
 0001:0000d0bb       ?get_DuplicateReceipt@COPOSFiscalPrinter@@UAGJPAF@Z 1000e0bb f   FiscalPrinterImpl.obj
 0001:0000d0d4       ?get_ErrorLevel@COPOSFiscalPrinter@@UAGJPAJ@Z 1000e0d4 f   FiscalPrinterImpl.obj
 0001:0000d0ed       ?get_ErrorOutID@COPOSFiscalPrinter@@UAGJPAJ@Z 1000e0ed f   FiscalPrinterImpl.obj
 0001:0000d106       ?get_ErrorState@COPOSFiscalPrinter@@UAGJPAJ@Z 1000e106 f   FiscalPrinterImpl.obj
 0001:0000d11f       ?get_ErrorStation@COPOSFiscalPrinter@@UAGJPAJ@Z 1000e11f f   FiscalPrinterImpl.obj
 0001:0000d138       ?get_ErrorString@COPOSFiscalPrinter@@UAGJPAPA_W@Z 1000e138 f   FiscalPrinterImpl.obj
 0001:0000d151       ?get_FiscalReceiptStation@COPOSFiscalPrinter@@UAGJPAJ@Z 1000e151 f   FiscalPrinterImpl.obj
 0001:0000d16a       ?get_FiscalReceiptType@COPOSFiscalPrinter@@UAGJPAJ@Z 1000e16a f   FiscalPrinterImpl.obj
 0001:0000d183       ?get_FlagWhenIdle@COPOSFiscalPrinter@@UAGJPAF@Z 1000e183 f   FiscalPrinterImpl.obj
 0001:0000d19c       ?get_FreezeEvents@COPOSFiscalPrinter@@UAGJPAF@Z 1000e19c f   FiscalPrinterImpl.obj
 0001:0000d1b2       ?get_JrnEmpty@COPOSFiscalPrinter@@UAGJPAF@Z 1000e1b2 f   FiscalPrinterImpl.obj
 0001:0000d1cb       ?get_JrnNearEnd@COPOSFiscalPrinter@@UAGJPAF@Z 1000e1cb f   FiscalPrinterImpl.obj
 0001:0000d1e4       ?get_MessageLength@COPOSFiscalPrinter@@UAGJPAJ@Z 1000e1e4 f   FiscalPrinterImpl.obj
 0001:0000d1fd       ?get_MessageType@COPOSFiscalPrinter@@UAGJPAJ@Z 1000e1fd f   FiscalPrinterImpl.obj
 0001:0000d216       ?get_NumHeaderLines@COPOSFiscalPrinter@@UAGJPAJ@Z 1000e216 f   FiscalPrinterImpl.obj
 0001:0000d22f       ?get_NumTrailerLines@COPOSFiscalPrinter@@UAGJPAJ@Z 1000e22f f   FiscalPrinterImpl.obj
 0001:0000d248       ?get_NumVatRates@COPOSFiscalPrinter@@UAGJPAJ@Z 1000e248 f   FiscalPrinterImpl.obj
 0001:0000d261       ?get_OpenResult@COPOSFiscalPrinter@@UAGJPAJ@Z 1000e261 f   FiscalPrinterImpl.obj
 0001:0000d278       ?get_OutputID@COPOSFiscalPrinter@@UAGJPAJ@Z 1000e278 f   FiscalPrinterImpl.obj
 0001:0000d28e       ?get_PostLine@COPOSFiscalPrinter@@UAGJPAPA_W@Z 1000e28e f   FiscalPrinterImpl.obj
 0001:0000d2a7       ?get_PowerNotify@COPOSFiscalPrinter@@UAGJPAJ@Z 1000e2a7 f   FiscalPrinterImpl.obj
 0001:0000d2bd       ?get_PowerState@COPOSFiscalPrinter@@UAGJPAJ@Z 1000e2bd f   FiscalPrinterImpl.obj
 0001:0000d2d3       ?get_PreLine@COPOSFiscalPrinter@@UAGJPAPA_W@Z 1000e2d3 f   FiscalPrinterImpl.obj
 0001:0000d2ec       ?get_PredefinedPaymentLines@COPOSFiscalPrinter@@UAGJPAPA_W@Z 1000e2ec f   FiscalPrinterImpl.obj
 0001:0000d305       ?get_PrinterState@COPOSFiscalPrinter@@UAGJPAJ@Z 1000e305 f   FiscalPrinterImpl.obj
 0001:0000d31e       ?get_QuantityDecimalPlaces@COPOSFiscalPrinter@@UAGJPAJ@Z 1000e31e f   FiscalPrinterImpl.obj
 0001:0000d337       ?get_QuantityLength@COPOSFiscalPrinter@@UAGJPAJ@Z 1000e337 f   FiscalPrinterImpl.obj
 0001:0000d350       ?get_RecEmpty@COPOSFiscalPrinter@@UAGJPAF@Z 1000e350 f   FiscalPrinterImpl.obj
 0001:0000d369       ?get_RecNearEnd@COPOSFiscalPrinter@@UAGJPAF@Z 1000e369 f   FiscalPrinterImpl.obj
 0001:0000d382       ?get_RemainingFiscalMemory@COPOSFiscalPrinter@@UAGJPAJ@Z 1000e382 f   FiscalPrinterImpl.obj
 0001:0000d39b       ?get_ReservedWord@COPOSFiscalPrinter@@UAGJPAPA_W@Z 1000e39b f   FiscalPrinterImpl.obj
 0001:0000d3b4       ?get_ResultCode@COPOSFiscalPrinter@@UAGJPAJ@Z 1000e3b4 f   FiscalPrinterImpl.obj
 0001:0000d3f2       ?get_ResultCodeExtended@COPOSFiscalPrinter@@UAGJPAJ@Z 1000e3f2 f   FiscalPrinterImpl.obj
 0001:0000d408       ?get_ServiceObjectDescription@COPOSFiscalPrinter@@UAGJPAPA_W@Z 1000e408 f   FiscalPrinterImpl.obj
 0001:0000d421       ?get_ServiceObjectVersion@COPOSFiscalPrinter@@UAGJPAJ@Z 1000e421 f   FiscalPrinterImpl.obj
 0001:0000d437       ?get_SlipSelection@COPOSFiscalPrinter@@UAGJPAJ@Z 1000e437 f   FiscalPrinterImpl.obj
 0001:0000d450       ?get_SlpEmpty@COPOSFiscalPrinter@@UAGJPAF@Z 1000e450 f   FiscalPrinterImpl.obj
 0001:0000d469       ?get_SlpNearEnd@COPOSFiscalPrinter@@UAGJPAF@Z 1000e469 f   FiscalPrinterImpl.obj
 0001:0000d482       ?get_State@COPOSFiscalPrinter@@UAGJPAJ@Z 1000e482 f   FiscalPrinterImpl.obj
 0001:0000d4ae       ?get_TotalizerType@COPOSFiscalPrinter@@UAGJPAJ@Z 1000e4ae f   FiscalPrinterImpl.obj
 0001:0000d4c7       ?get_TrainingModeActive@COPOSFiscalPrinter@@UAGJPAF@Z 1000e4c7 f   FiscalPrinterImpl.obj
 0001:0000d4e0       ?put_AdditionalHeader@COPOSFiscalPrinter@@UAGJPA_W@Z 1000e4e0 f   FiscalPrinterImpl.obj
 0001:0000d4f9       ?put_AdditionalTrailer@COPOSFiscalPrinter@@UAGJPA_W@Z 1000e4f9 f   FiscalPrinterImpl.obj
 0001:0000d512       ?put_AsyncMode@COPOSFiscalPrinter@@UAGJF@Z 1000e512 f   FiscalPrinterImpl.obj
 0001:0000d532       ?put_BinaryConversion@COPOSFiscalPrinter@@UAGJJ@Z 1000e532 f   FiscalPrinterImpl.obj
 0001:0000d548       ?put_ChangeDue@COPOSFiscalPrinter@@UAGJPA_W@Z 1000e548 f   FiscalPrinterImpl.obj
 0001:0000d561       ?put_CheckTotal@COPOSFiscalPrinter@@UAGJF@Z 1000e561 f   FiscalPrinterImpl.obj
 0001:0000d581       ?put_ContractorId@COPOSFiscalPrinter@@UAGJJ@Z 1000e581 f   FiscalPrinterImpl.obj
 0001:0000d59a       ?put_DateType@COPOSFiscalPrinter@@UAGJJ@Z 1000e59a f   FiscalPrinterImpl.obj
 0001:0000d5b3       ?put_DeviceEnabled@COPOSFiscalPrinter@@UAGJF@Z 1000e5b3 f   FiscalPrinterImpl.obj
 0001:0000d5d0       ?put_DuplicateReceipt@COPOSFiscalPrinter@@UAGJF@Z 1000e5d0 f   FiscalPrinterImpl.obj
 0001:0000d5f0       ?put_FiscalReceiptStation@COPOSFiscalPrinter@@UAGJJ@Z 1000e5f0 f   FiscalPrinterImpl.obj
 0001:0000d609       ?put_FiscalReceiptType@COPOSFiscalPrinter@@UAGJJ@Z 1000e609 f   FiscalPrinterImpl.obj
 0001:0000d622       ?put_FlagWhenIdle@COPOSFiscalPrinter@@UAGJF@Z 1000e622 f   FiscalPrinterImpl.obj
 0001:0000d642       ?put_FreezeEvents@COPOSFiscalPrinter@@UAGJF@Z 1000e642 f   FiscalPrinterImpl.obj
 0001:0000d68e       ?put_MessageType@COPOSFiscalPrinter@@UAGJJ@Z 1000e68e f   FiscalPrinterImpl.obj
 0001:0000d6a7       ?put_PostLine@COPOSFiscalPrinter@@UAGJPA_W@Z 1000e6a7 f   FiscalPrinterImpl.obj
 0001:0000d6c0       ?put_PowerNotify@COPOSFiscalPrinter@@UAGJJ@Z 1000e6c0 f   FiscalPrinterImpl.obj
 0001:0000d6d6       ?put_PreLine@COPOSFiscalPrinter@@UAGJPA_W@Z 1000e6d6 f   FiscalPrinterImpl.obj
 0001:0000d6ef       ?put_SlipSelection@COPOSFiscalPrinter@@UAGJJ@Z 1000e6ef f   FiscalPrinterImpl.obj
 0001:0000d708       ?put_TotalizerType@COPOSFiscalPrinter@@UAGJJ@Z 1000e708 f   FiscalPrinterImpl.obj
 0001:0000d721       ?s_EventWindowProc@COPOSFiscalPrinter@@KGJPAUHWND__@@IIJ@Z 1000e721 f i FiscalPrinterImpl.obj
 0001:0000d773       ??_U@YAPAXI@Z              1000e773 f   LIBCMT:new_array.obj
 0001:0000d77c       ??3@YAXPAXI@Z              1000e77c f   LIBCMT:delete_scalar_size.obj
 0001:0000d78a       ??_V@YAXPAX@Z              1000e78a f   LIBCMT:delete_array.obj
 0001:0000d78f       ??_V@YAXPAXI@Z             1000e78f f   LIBCMT:delete_array_size.obj
 0001:0000d7e1       ___scrt_acquire_startup_lock 1000e7e1 f   LIBCMT:utility.obj
 0001:0000d813       ___scrt_dllmain_after_initialize_c 1000e813 f   LIBCMT:utility.obj
 0001:0000d83e       ___scrt_dllmain_before_initialize_c 1000e83e f   LIBCMT:utility.obj
 0001:0000d84c       ___scrt_dllmain_crt_thread_attach 1000e84c f   LIBCMT:utility.obj
 0001:0000d86b       ___scrt_dllmain_crt_thread_detach 1000e86b f   LIBCMT:utility.obj
 0001:0000d878       ___scrt_dllmain_exception_filter 1000e878 f   LIBCMT:utility.obj
 0001:0000d8ac       ___scrt_dllmain_uninitialize_c 1000e8ac f   LIBCMT:utility.obj
 0001:0000d8cf       ___scrt_dllmain_uninitialize_critical 1000e8cf f   LIBCMT:utility.obj
 0001:0000d8dc       ___scrt_initialize_crt     1000e8dc f   LIBCMT:utility.obj
 0001:0000d915       ___scrt_initialize_onexit_tables 1000e915 f   LIBCMT:utility.obj
 0001:0000d99c       ___scrt_is_nonwritable_in_current_image 1000e99c f   LIBCMT:utility.obj
 0001:0000da30       ___scrt_release_startup_lock 1000ea30 f   LIBCMT:utility.obj
 0001:0000da4d       ___scrt_uninitialize_crt   1000ea4d f   LIBCMT:utility.obj
 0001:0000da75       __onexit                   1000ea75 f   LIBCMT:utility.obj
 0001:0000daa2       _atexit                    1000eaa2 f   LIBCMT:utility.obj
 0001:0000dab7       ??3@YAXPAX@Z               1000eab7 f   LIBCMT:delete_scalar.obj
 0001:0000db81       __Init_thread_footer       1000eb81 f   LIBCMT:thread_safe_statics.obj
 0001:0000dbcb       __Init_thread_header       1000ebcb f   LIBCMT:thread_safe_statics.obj
 0001:0000dc1d       __Init_thread_notify       1000ec1d f   LIBCMT:thread_safe_statics.obj
 0001:0000dc53       __Init_thread_wait         1000ec53 f   LIBCMT:thread_safe_statics.obj
 0001:0000dca1       ___raise_securityfailure   1000eca1 f   LIBCMT:gs_report.obj
 0001:0000dcc9       ___report_gsfailure        1000ecc9 f   LIBCMT:gs_report.obj
 0001:0000ddc2       ___report_rangecheckfailure 1000edc2 f   LIBCMT:gs_report.obj
 0001:0000ddce       ___report_securityfailure  1000edce f   LIBCMT:gs_report.obj
 0001:0000de9c       ??2@YAPAXIABUnothrow_t@std@@@Z 1000ee9c f   LIBCMT:new_scalar_nothrow.obj
 0001:0000deec       ??_U@YAPAXIABUnothrow_t@std@@@Z 1000eeec f   LIBCMT:new_array_nothrow.obj
 0001:0000def5       @__security_check_cookie@4 1000eef5 f   LIBCMT:secchk.obj
 0001:0000df10       __SEH_prolog4_GS           1000ef10 f   LIBCMT:sehprolg4gs.obj
 0001:0000df59       __SEH_epilog4_GS           1000ef59 f   LIBCMT:sehprolg4gs.obj
 0001:0000df70       __alloca_probe_16          1000ef70 f   LIBCMT:alloca16.obj
 0001:0000df86       __alloca_probe_8           1000ef86     LIBCMT:alloca16.obj
 0001:0000dfa0       __alloca_probe             1000efa0 f   LIBCMT:chkstk.obj
 0001:0000dfa0       __chkstk                   1000efa0 f   LIBCMT:chkstk.obj
 0001:0000e308       __DllMainCRTStartup@12     1000f308 f   LIBCMT:dll_dllmain.obj
 0001:0000e32b       ??2@YAPAXI@Z               1000f32b f   LIBCMT:new_scalar.obj
 0001:0000e35b       ___isa_available_init      1000f35b f   LIBCMT:cpu_disp.obj
 0001:0000e52b       ___scrt_is_ucrt_dll_in_use 1000f52b f   LIBCMT:ucrt_detection.obj
 0001:0000e537       ___scrt_fastfail           1000f537 f   LIBCMT:utility_desktop.obj
 0001:0000e651       __crt_debugger_hook        1000f651 f   LIBCMT:utility_desktop.obj
 0001:0000e660       __SEH_prolog4              1000f660 f   LIBCMT:sehprolg4.obj
 0001:0000e6a6       __SEH_epilog4              1000f6a6 f   LIBCMT:sehprolg4.obj
 0001:0000e6bb       @_guard_check_icall_nop@4  1000f6bb f i LIBCMT:guard_support.obj
 0001:0000e709       ___security_init_cookie    1000f709 f   LIBCMT:gs_support.obj
 0001:0000e754       ?__scrt_initialize_type_info@@YAXXZ 1000f754 f   LIBCMT:tncleanup.obj
 0001:0000e760       ?__scrt_uninitialize_type_info@@YAXXZ 1000f760 f   LIBCMT:tncleanup.obj
 0001:0000e76c       ___local_stdio_scanf_options 1000f76c f i LIBCMT:default_local_stdio_options.obj
 0001:0000e772       ___scrt_initialize_default_local_stdio_options 1000f772 f   LIBCMT:default_local_stdio_options.obj
 0001:0000e78f       ___scrt_get_dyn_tls_init_callback 1000f78f f   LIBCMT:dyn_tls_init.obj
 0001:0000e795       __RTC_Initialize           1000f795 f   LIBCMT:initsect.obj
 0001:0000e7c1       __RTC_Terminate            1000f7c1 f   LIBCMT:initsect.obj
 0001:0000e7ed       ??0bad_alloc@std@@QAE@ABV01@@Z 1000f7ed f i LIBCMT:throw_bad_alloc.obj
 0001:0000e808       ??0bad_alloc@std@@QAE@XZ   1000f808 f i LIBCMT:throw_bad_alloc.obj
 0001:0000e820       ??0bad_array_new_length@std@@QAE@ABV01@@Z 1000f820 f i LIBCMT:throw_bad_alloc.obj
 0001:0000e83b       ??0bad_array_new_length@std@@QAE@XZ 1000f83b f i LIBCMT:throw_bad_alloc.obj
 0001:0000e853       ??0exception@std@@QAE@ABV01@@Z 1000f853 f i LIBCMT:throw_bad_alloc.obj
 0001:0000e87f       ??1bad_exception@std@@UAE@XZ 1000f87f f i libvcruntime:frame.obj
 0001:0000e87f       ??1bad_alloc@std@@UAE@XZ   1000f87f f i LIBCMT:throw_bad_alloc.obj
 0001:0000e87f       ??1bad_array_new_length@std@@UAE@XZ 1000f87f f i LIBCMT:throw_bad_alloc.obj
 0001:0000e890       ??_Gbad_array_new_length@std@@UAEPAXI@Z 1000f890 f i LIBCMT:throw_bad_alloc.obj
 0001:0000e890       ??_Gbad_alloc@std@@UAEPAXI@Z 1000f890 f i LIBCMT:throw_bad_alloc.obj
 0001:0000e890       ??_Ebad_exception@std@@UAEPAXI@Z 1000f890 f i libvcruntime:frame.obj
 0001:0000e890       ??_Eexception@std@@UAEPAXI@Z 1000f890 f i LIBCMT:throw_bad_alloc.obj
 0001:0000e890       ??_Ebad_array_new_length@std@@UAEPAXI@Z 1000f890 f i LIBCMT:throw_bad_alloc.obj
 0001:0000e890       ??_Gexception@std@@UAEPAXI@Z 1000f890 f i LIBCMT:throw_bad_alloc.obj
 0001:0000e890       ??_Gbad_exception@std@@UAEPAXI@Z 1000f890 f i libvcruntime:frame.obj
 0001:0000e890       ??_Ebad_alloc@std@@UAEPAXI@Z 1000f890 f i LIBCMT:throw_bad_alloc.obj
 0001:0000e8bd       ?__scrt_throw_std_bad_alloc@@YAXXZ 1000f8bd f   LIBCMT:throw_bad_alloc.obj
 0001:0000e8da       ?__scrt_throw_std_bad_array_new_length@@YAXXZ 1000f8da f   LIBCMT:throw_bad_alloc.obj
 0001:0000e8f7       ?what@exception@std@@UBEPBDXZ 1000f8f7 f i LIBCMT:throw_bad_alloc.obj
 0001:0000e904       ??_Etype_info@@UAEPAXI@Z   1000f904 f i LIBCMT:std_type_info_static.obj
 0001:0000e904       ??_Gtype_info@@UAEPAXI@Z   1000f904 f i LIBCMT:std_type_info_static.obj
 0001:0000e927       ??0CAtlBaseModule@ATL@@QAE@XZ 1000f927 f   atls:atlbase.obj
 0001:0000e97a       ??0_ATL_BASE_MODULE70@ATL@@QAE@XZ 1000f97a f i atls:atlbase.obj
 0001:0000e99d       ??1CAtlBaseModule@ATL@@QAE@XZ 1000f99d f   atls:atlbase.obj
 0001:0000ea8a       ?Init@_stdcallthunk@ATL@@QAEHKPAX@Z 1000fa8a f i atls:atlthunk.obj
 0001:0000eabf       ?__AllocStdCallThunk_cmn@@YAPAXXZ 1000fabf f   atls:atlthunk.obj
 0001:0000eb85       ?__FreeStdCallThunk_cmn@@YAXPAX@Z 1000fb85 f   atls:atlthunk.obj
 0001:0000ec20       _AtlThunk_AllocateData@0   1000fc20 f   atls:atlthunk.obj
 0001:0000ec85       _AtlThunk_DataToCode@4     1000fc85 f   atls:atlthunk.obj
 0001:0000eccc       _AtlThunk_FreeData@4       1000fccc f   atls:atlthunk.obj
 0001:0000ed22       _AtlThunk_InitData@12      1000fd22 f   atls:atlthunk.obj
 0001:0000ed71       __get_purecall_handler     1000fd71 f   libvcruntime:purevirt.obj
 0001:0000ed77       __purecall                 1000fd77 f   libvcruntime:purevirt.obj
 0001:0000ed93       _wcsstr                    1000fd93 f   libvcruntime:wcsstr.obj
 0001:0000f050       __except_handler4          10010050 f   libvcruntime:chandler4.obj
 0001:0000f1ae       _memcmp                    100101ae f   libvcruntime:memcmp.obj
 0001:00010160       _memcpy                    10011160 f   libvcruntime:memcpy.obj
 0001:000106e0       _memset                    100116e0 f   libvcruntime:memset.obj
 0001:0001083a       ___vcrt_initialize         1001183a f   libvcruntime:initialization.obj
 0001:00010859       ___vcrt_thread_attach      10011859 f   libvcruntime:initialization.obj
 0001:00010864       ___vcrt_thread_detach      10011864 f   libvcruntime:initialization.obj
 0001:0001086f       ___vcrt_uninitialize       1001186f f   libvcruntime:initialization.obj
 0001:00010886       ___vcrt_uninitialize_critical 10011886 f   libvcruntime:initialization.obj
 0001:0001088e       ?GetRangeOfTrysToCheck@__FrameHandler3@@SA?AU?$pair@Viterator@TryBlockMap@__FrameHandler3@@V123@@std@@AAVTryBlockMap@1@HPAXPBU_s_FuncInfo@@H@Z 1001188e f   libvcruntime:trnsctrl.obj
 0001:000108fe       ?_CallCatchBlock2@@YAPAXPAUEHRegistrationNode@@PBU_s_FuncInfo@@PAXHK@Z 100118fe f   libvcruntime:trnsctrl.obj
 0001:0001095c       ?_CallSETranslator@@YAHPAUEHExceptionRecord@@PAUEHRegistrationNode@@PAX2PBU_s_FuncInfo@@H1@Z 1001195c f   libvcruntime:trnsctrl.obj
 0001:00010a42       ?_JumpToContinuation@@YGXPAXPAUEHRegistrationNode@@@Z 10011a42 f   libvcruntime:trnsctrl.obj
 0001:00010a72       ?_UnwindNestedFrames@@YGXPAUEHRegistrationNode@@PAUEHExceptionRecord@@@Z 10011a72 f   libvcruntime:trnsctrl.obj
 0001:00010ac5       __CatchGuardHandler        10011ac5 f   libvcruntime:trnsctrl.obj
 0001:00010af6       __CreateFrameInfo          10011af6 f   libvcruntime:trnsctrl.obj
 0001:00010b1a       __FindAndUnlinkFrame       10011b1a f   libvcruntime:trnsctrl.obj
 0001:00010b62       __TranslatorGuardHandler   10011b62 f   libvcruntime:trnsctrl.obj
 0001:00010bff       ___CxxFrameHandler3        10011bff f   libvcruntime:trnsctrl.obj
 0001:00010c35       ___DestructExceptionObject 10011c35 f   libvcruntime:ehhelpers.obj
 0001:00010cd6       ?_CallMemberFunction0@@YGXQAX0@Z 10011cd6 f i libvcruntime:ehhelpers.obj
 0001:00010d3b       __IsExceptionObjectToBeDestroyed 10011d3b f   libvcruntime:ehhelpers.obj
 0001:00010d61       ___AdjustPointer           10011d61 f   libvcruntime:ehhelpers.obj
 0001:00010d86       ___FrameUnwindFilter       10011d86 f   libvcruntime:ehhelpers.obj
 0001:00010ddc       ___std_type_info_compare   10011ddc f   libvcruntime:std_type_info.obj
 0001:00010e18       ___std_type_info_destroy_list 10011e18 f   libvcruntime:std_type_info.obj
 0001:00010e3b       ___std_exception_copy      10011e3b f   libvcruntime:std_exception.obj
 0001:00010e9e       ___std_exception_destroy   10011e9e f   libvcruntime:std_exception.obj
 0001:00010ebd       __CxxThrowException@8      10011ebd f   libvcruntime:throw.obj
 0001:00010f30       _memmove                   10011f30 f   libvcruntime:memmove.obj
 0001:000114b0       __local_unwind4            100124b0 f   libvcruntime:exsup4.obj
 0001:00011588       __seh_longjmp_unwind4@4    10012588 f   libvcruntime:exsup4.obj
 0001:000115b0       @_EH4_CallFilterFunc@8     100125b0 f   libvcruntime:exsup4.obj
 0001:000115c8       @_EH4_TransferToHandler@8  100125c8 f   libvcruntime:exsup4.obj
 0001:000115e4       @_EH4_GlobalUnwind2@8      100125e4 f   libvcruntime:exsup4.obj
 0001:00011600       @_EH4_LocalUnwind@16       10012600 f   libvcruntime:exsup4.obj
 0001:00011617       ___except_validate_context_record 10012617 f   libvcruntime:jbcxrval.obj
 0001:00011647       ___except_validate_jump_buffer 10012647 f   libvcruntime:jbcxrval.obj
 0001:00011674       ___vcrt_freefls@4          10012674 f   libvcruntime:per_thread_data.obj
 0001:00011690       ___vcrt_freeptd            10012690 f   libvcruntime:per_thread_data.obj
 0001:000116c6       ___vcrt_getptd             100126c6 f   libvcruntime:per_thread_data.obj
 0001:000116d4       ___vcrt_getptd_noexit      100126d4 f   libvcruntime:per_thread_data.obj
 0001:00011766       ___vcrt_initialize_ptd     10012766 f   libvcruntime:per_thread_data.obj
 0001:00011799       ___vcrt_uninitialize_ptd   10012799 f   libvcruntime:per_thread_data.obj
 0001:000117b4       ___vcrt_initialize_locks   100127b4 f   libvcruntime:locks.obj
 0001:000117f0       ___vcrt_uninitialize_locks 100127f0 f   libvcruntime:locks.obj
 0001:00011f62       ??$TypeMatchHelper@V__FrameHandler3@@@@YAHPBU_s_HandlerType@@PBU_s_CatchableType@@PBU_s_ThrowInfo@@@Z 10012f62 f i libvcruntime:frame.obj
 0001:00011ff0       ??$__InternalCxxFrameHandler@V__FrameHandler3@@@@YA?AW4_EXCEPTION_DISPOSITION@@PAUEHExceptionRecord@@PAUEHRegistrationNode@@PAU_CONTEXT@@PAXPBU_s_FuncInfo@@H1E@Z 10012ff0 f i libvcruntime:frame.obj
 0001:000120f2       ??0bad_exception@std@@QAE@ABV01@@Z 100130f2 f i libvcruntime:frame.obj
 0001:0001210d       ??0bad_exception@std@@QAE@XZ 1001310d f i libvcruntime:frame.obj
 0001:00012125       ??8type_info@@QBE_NABV0@@Z 10013125 f i libvcruntime:frame.obj
 0001:0001238c       ?FrameUnwindToEmptyState@__FrameHandler3@@SAXPAUEHRegistrationNode@@PAXPBU_s_FuncInfo@@@Z 1001338c f   libvcruntime:frame.obj
 0001:000123a4       ?FrameUnwindToState@__FrameHandler3@@SAXPAUEHRegistrationNode@@PAXPBU_s_FuncInfo@@H@Z 100133a4 f   libvcruntime:frame.obj
 0001:00012526       ?_CallMemberFunction1@@YGXQAX00@Z 10013526 f i libvcruntime:frame.obj
 0001:00012536       ?_CallMemberFunction2@@YGXQAX00H@Z 10013536 f i libvcruntime:frame.obj
 0001:00012549       ?getESTypes@__FrameHandler3@@SAPBU_s_ESTypeList@@PBU_s_FuncInfo@@@Z 10013549 f i libvcruntime:frame.obj
 0001:00012560       __CallSettingFrame@12      10013560 f   libvcruntime:lowhelpr.obj
 0001:00012587       __NLG_Return               10013587     libvcruntime:lowhelpr.obj
 0001:000125b0       __global_unwind2           100135b0 f   libvcruntime:exsup.obj
 0001:00012616       __local_unwind2            10013616 f   libvcruntime:exsup.obj
 0001:0001269a       __abnormal_termination     1001369a f   libvcruntime:exsup.obj
 0001:000126c0       __NLG_Notify1              100136c0 f   libvcruntime:exsup.obj
 0001:000126cc       __NLG_Notify               100136cc f   libvcruntime:exsup.obj
 0001:000126e3       __NLG_Dispatch             100136e3     libvcruntime:exsup.obj
 0001:000126e3       __NLG_Dispatch2            100136e3     libvcruntime:exsup.obj
 0001:000126eb       __NLG_Call                 100136eb f   libvcruntime:exsup.obj
 0001:000126ed       __NLG_Return2              100136ed     libvcruntime:exsup.obj
 0001:000127e3       ___vcrt_FlsAlloc           100137e3 f   libvcruntime:winapi_downlevel.obj
 0001:0001281e       ___vcrt_FlsFree            1001381e f   libvcruntime:winapi_downlevel.obj
 0001:00012859       ___vcrt_FlsGetValue        10013859 f   libvcruntime:winapi_downlevel.obj
 0001:00012894       ___vcrt_FlsSetValue        10013894 f   libvcruntime:winapi_downlevel.obj
 0001:000128d2       ___vcrt_InitializeCriticalSectionEx 100138d2 f   libvcruntime:winapi_downlevel.obj
 0001:00012919       _unexpected                10013919 f   libvcruntime:unexpected.obj
 0001:00012936       ?GetCurrentState@__FrameHandler3@@SAHPAUEHRegistrationNode@@PAXPBU_s_FuncInfo@@@Z 10013936 f   libvcruntime:ehstate.obj
 0001:00012953       ?SetState@__FrameHandler3@@SAXPAUEHRegistrationNode@@PBU_s_FuncInfo@@H@Z 10013953 f   libvcruntime:ehstate.obj
 0001:00012961       _free                      10013961 f   libucrt:free.obj
 0001:0001297c       ___acrt_call_reportfault   1001397c f   libucrt:invalid_parameter.obj
 0001:00012ab5       ___acrt_initialize_invalid_parameter_handler 10013ab5 f   libucrt:invalid_parameter.obj
 0001:00012ac4       __invalid_parameter        10013ac4 f   libucrt:invalid_parameter.obj
 0001:00012b28       __invalid_parameter_noinfo 10013b28 f   libucrt:invalid_parameter.obj
 0001:00012b38       __invoke_watson            10013b38 f   libucrt:invalid_parameter.obj
 0001:00012b6c       ___acrt_errno_from_os_error 10013b6c f   libucrt:errno.obj
 0001:00012baf       ___acrt_errno_map_os_error 10013baf f   libucrt:errno.obj
 0001:00012bd2       ___doserrno                10013bd2 f   libucrt:errno.obj
 0001:00012be5       __errno                    10013be5 f   libucrt:errno.obj
 0001:00012bf8       _calloc                    10013bf8 f   libucrt:calloc.obj
 0001:00012c03       _malloc                    10013c03 f   libucrt:malloc.obj
 0001:00012c0e       __recalloc                 10013c0e f   libucrt:recalloc.obj
 0001:00012c19       __recalloc_base            10013c19 f   libucrt:recalloc.obj
 0001:00012c86       __resetstkoflw             10013c86 f   libucrt:resetstk.obj
 0001:00012d4b       _wcscat_s                  10013d4b f   libucrt:wcscat_s.obj
 0001:00012dc0       _wcscpy_s                  10013dc0 f   libucrt:wcscpy_s.obj
 0001:00012eef       _wcsncpy_s                 10013eef f   libucrt:wcsncpy_s.obj
 0001:000130fb       ??$count@D@formatting_buffer@__crt_stdio_output@@QBEIXZ 100140fb f i libucrt:output.obj
 0001:00013113       ??$count@_W@formatting_buffer@__crt_stdio_output@@QBEIXZ 10014113 f i libucrt:output.obj
 0001:0001312c       ??$ensure_buffer_is_big_enough@D@formatting_buffer@__crt_stdio_output@@QAE_NI@Z 1001412c f i libucrt:output.obj
 0001:000131a9       ??$ensure_buffer_is_big_enough@_W@formatting_buffer@__crt_stdio_output@@QAE_NI@Z 100141a9 f i libucrt:output.obj
 0001:00013227       ??$is_wide_character_specifier@_W@__crt_stdio_output@@YA_N_K_WW4length_modifier@0@@Z 10014227 f i libucrt:output.obj
 0001:00013275       ??$scratch_data@D@formatting_buffer@__crt_stdio_output@@QAEPADXZ 10014275 f i libucrt:output.obj
 0001:00013293       ??$type_case_integer_parse_into_buffer@I@?$output_processor@_WV?$string_output_adapter@_W@__crt_stdio_output@@V?$format_validation_base@_WV?$string_output_adapter@_W@__crt_stdio_output@@@2@@__crt_stdio_output@@AAEXII_N@Z 10014293 f i libucrt:output.obj
 0001:0001331a       ??$type_case_integer_parse_into_buffer@_K@?$output_processor@_WV?$string_output_adapter@_W@__crt_stdio_output@@V?$format_validation_base@_WV?$string_output_adapter@_W@__crt_stdio_output@@@2@@__crt_stdio_output@@AAEX_KI_N@Z 1001431a f i libucrt:output.obj
 0001:000133bc       ??$write_multiple_characters@V?$string_output_adapter@_W@__crt_stdio_output@@D@__crt_stdio_output@@YAXABV?$string_output_adapter@_W@0@DHQAH@Z 100143bc f i libucrt:output.obj
 0001:000133ed       ??0?$common_data@_W@__crt_stdio_output@@IAE@XZ 100143ed f i libucrt:output.obj
 0001:00013437       ??0?$output_adapter_data@_WV?$string_output_adapter@_W@__crt_stdio_output@@@__crt_stdio_output@@IAE@ABV?$string_output_adapter@_W@1@_KQB_WQAU__crt_locale_pointers@@QAD@Z 10014437 f i libucrt:output.obj
 0001:00013473       ??0_LocaleUpdate@@QAE@QAU__crt_locale_pointers@@@Z 10014473 f i libucrt:output.obj
 0001:000134f6       ??1formatting_buffer@__crt_stdio_output@@QAE@XZ 100144f6 f i libucrt:output.obj
 0001:00013510       ??4?$__crt_unique_heap_ptr@DU__crt_internal_free_policy@@@@QAEAAV0@$$QAV0@@Z 10014510 f i libucrt:output.obj
 0001:00013534       ?crop_zeroes@__crt_stdio_output@@YAXPADQAU__crt_locale_pointers@@@Z 10014534 f i libucrt:output.obj
 0001:00013594       ?find_next_state@?$output_processor@_WV?$string_output_adapter@_W@__crt_stdio_output@@V?$format_validation_base@_WV?$string_output_adapter@_W@__crt_stdio_output@@@2@@__crt_stdio_output@@ABE?AW4state@2@_WW432@@Z 10014594 f i libucrt:output.obj
 0001:000135d6       ?force_decimal_point@__crt_stdio_output@@YAXPADQAU__crt_locale_pointers@@@Z 100145d6 f i libucrt:output.obj
 0001:00013632       ?parse_int_from_format_string@?$output_processor@_WV?$string_output_adapter@_W@__crt_stdio_output@@V?$format_validation_base@_WV?$string_output_adapter@_W@__crt_stdio_output@@@2@@__crt_stdio_output@@AAE_NQAH@Z 10014632 f i libucrt:output.obj
 0001:000136a8       ?process@?$output_processor@_WV?$string_output_adapter@_W@__crt_stdio_output@@V?$format_validation_base@_WV?$string_output_adapter@_W@__crt_stdio_output@@@2@@__crt_stdio_output@@QAEHXZ 100146a8 f i libucrt:output.obj
 0001:000137d0       ?state_case_flag@?$output_processor@_WV?$string_output_adapter@_W@__crt_stdio_output@@V?$format_validation_base@_WV?$string_output_adapter@_W@__crt_stdio_output@@@2@@__crt_stdio_output@@AAE_NXZ 100147d0 f i libucrt:output.obj
 0001:0001380d       ?state_case_normal@?$output_processor@_WV?$string_output_adapter@_W@__crt_stdio_output@@V?$format_validation_base@_WV?$string_output_adapter@_W@__crt_stdio_output@@@2@@__crt_stdio_output@@AAE_NXZ 1001480d f i libucrt:output.obj
 0001:0001382c       ?state_case_normal_common@?$output_processor@_WV?$string_output_adapter@_W@__crt_stdio_output@@V?$format_validation_base@_WV?$string_output_adapter@_W@__crt_stdio_output@@@2@@__crt_stdio_output@@AAE_NXZ 1001482c f i libucrt:output.obj
 0001:00013847       ?state_case_precision@?$output_processor@_WV?$string_output_adapter@_W@__crt_stdio_output@@V?$format_validation_base@_WV?$string_output_adapter@_W@__crt_stdio_output@@@2@@__crt_stdio_output@@AAE_NXZ 10014847 f i libucrt:output.obj
 0001:0001386e       ?state_case_size@?$output_processor@_WV?$string_output_adapter@_W@__crt_stdio_output@@V?$format_validation_base@_WV?$string_output_adapter@_W@__crt_stdio_output@@@2@@__crt_stdio_output@@AAE_NXZ 1001486e f i libucrt:output.obj
 0001:000139e6       ?state_case_type@?$output_processor@_WV?$string_output_adapter@_W@__crt_stdio_output@@V?$format_validation_base@_WV?$string_output_adapter@_W@__crt_stdio_output@@@2@@__crt_stdio_output@@AAE_NXZ 100149e6 f i libucrt:output.obj
 0001:00013c4b       ?state_case_width@?$output_processor@_WV?$string_output_adapter@_W@__crt_stdio_output@@V?$format_validation_base@_WV?$string_output_adapter@_W@__crt_stdio_output@@@2@@__crt_stdio_output@@AAE_NXZ 10014c4b f i libucrt:output.obj
 0001:00013c77       ?to_integer_size@__crt_stdio_output@@YAIW4length_modifier@1@@Z 10014c77 f i libucrt:output.obj
 0001:00013ccb       ?type_case_Z@?$output_processor@_WV?$string_output_adapter@_W@__crt_stdio_output@@V?$format_validation_base@_WV?$string_output_adapter@_W@__crt_stdio_output@@@2@@__crt_stdio_output@@AAE_NXZ 10014ccb f i libucrt:output.obj
 0001:00013d25       ?type_case_a@?$output_processor@_WV?$string_output_adapter@_W@__crt_stdio_output@@V?$format_validation_base@_WV?$string_output_adapter@_W@__crt_stdio_output@@@2@@__crt_stdio_output@@AAE_NXZ 10014d25 f i libucrt:output.obj
 0001:00013e8a       ?type_case_c_tchar@?$output_processor@_WV?$string_output_adapter@_W@__crt_stdio_output@@V?$format_validation_base@_WV?$string_output_adapter@_W@__crt_stdio_output@@@2@@__crt_stdio_output@@AAE_N_W@Z 10014e8a f i libucrt:output.obj
 0001:00013f20       ?type_case_integer@?$output_processor@_WV?$string_output_adapter@_W@__crt_stdio_output@@V?$format_validation_base@_WV?$string_output_adapter@_W@__crt_stdio_output@@@2@@__crt_stdio_output@@AAE_NI_N@Z 10014f20 f i libucrt:output.obj
 0001:00014075       ?type_case_n@?$output_processor@_WV?$string_output_adapter@_W@__crt_stdio_output@@V?$format_validation_base@_WV?$string_output_adapter@_W@__crt_stdio_output@@@2@@__crt_stdio_output@@AAE_NXZ 10015075 f i libucrt:output.obj
 0001:000140e9       ?type_case_o@?$output_processor@_WV?$string_output_adapter@_W@__crt_stdio_output@@V?$format_validation_base@_WV?$string_output_adapter@_W@__crt_stdio_output@@@2@@__crt_stdio_output@@AAE_NXZ 100150e9 f i libucrt:output.obj
 0001:00014108       ?type_case_p@?$output_processor@_WV?$string_output_adapter@_W@__crt_stdio_output@@V?$format_validation_base@_WV?$string_output_adapter@_W@__crt_stdio_output@@@2@@__crt_stdio_output@@AAE_NXZ 10015108 f i libucrt:output.obj
 0001:00014120       ?type_case_s@?$output_processor@_WV?$string_output_adapter@_W@__crt_stdio_output@@V?$format_validation_base@_WV?$string_output_adapter@_W@__crt_stdio_output@@@2@@__crt_stdio_output@@AAE_NXZ 10015120 f i libucrt:output.obj
 0001:00014193       ?type_case_s_compute_narrow_string_length@?$output_processor@_WV?$string_output_adapter@_W@__crt_stdio_output@@V?$format_validation_base@_WV?$string_output_adapter@_W@__crt_stdio_output@@@2@@__crt_stdio_output@@ABEHH_W@Z 10015193 f i libucrt:output.obj
 0001:000141da       ?validate@?$string_output_adapter@_W@__crt_stdio_output@@QBE_NXZ 100151da f i libucrt:output.obj
 0001:000141da       ?validate@?$c_string_character_source@_W@__crt_strtox@@QBE_NXZ 100151da f i libucrt:atox.obj
 0001:000141f5       ?validate_and_update_state_at_end_of_format_string@?$format_validation_base@_WV?$string_output_adapter@_W@__crt_stdio_output@@@__crt_stdio_output@@IBE_NXZ 100151f5 f i libucrt:output.obj
 0001:00014217       ?write_character@?$string_output_adapter@_W@__crt_stdio_output@@QBE_N_WQAH@Z 10015217 f i libucrt:output.obj
 0001:0001425c       ?write_stored_string_tchar@?$output_processor@_WV?$string_output_adapter@_W@__crt_stdio_output@@V?$format_validation_base@_WV?$string_output_adapter@_W@__crt_stdio_output@@@2@@__crt_stdio_output@@AAE_N_W@Z 1001525c f i libucrt:output.obj
 0001:000142ef       ?write_string@?$string_output_adapter@_W@__crt_stdio_output@@QBEXQB_WHQAHAAV__crt_deferred_errno_cache@@@Z 100152ef f i libucrt:output.obj
 0001:00014360       ___acrt_locale_get_ctype_array_value 10015360 f i libucrt:output.obj
 0001:00014382       ___stdio_common_vswprintf_s 10015382 f   libucrt:output.obj
 0001:000143a6       __seh_filter_dll           100153a6 f   libucrt:exception_filter.obj
 0001:000143c6       __seh_filter_exe           100153c6 f   libucrt:exception_filter.obj
 0001:00014794       ___acrt_initialize_thread_local_exit_callback 10015794 f   libucrt:exit.obj
 0001:000147a3       __cexit                    100157a3 f   libucrt:exit.obj
 0001:000147b2       __exit                     100157b2 f   libucrt:exit.obj
 0001:000147c8       __is_c_termination_complete 100157c8 f   libucrt:exit.obj
 0001:00014a7c       ___acrt_allocate_buffer_for_argv 10015a7c f   libucrt:argv_parsing.obj
 0001:00014acb       __configure_narrow_argv    10015acb f   libucrt:argv_parsing.obj
 0001:00014c28       ??$uninitialize@A6AXAAPAPA_W@Z@?$dual_state_global@PAPA_W@__crt_state_management@@QAEXA6AXAAPAPA_W@Z@Z 10015c28 f i libucrt:environment_initialization.obj
 0001:00014c28       ??$uninitialize@A6AXAAPAPAD@Z@?$dual_state_global@PAPAD@__crt_state_management@@QAEXA6AXAAPAPAD@Z@Z 10015c28 f i libucrt:environment_initialization.obj
 0001:00014c87       ___dcrt_uninitialize_environments_nolock 10015c87 f   libucrt:environment_initialization.obj
 0001:00014cbe       __initialize_narrow_environment 10015cbe f   libucrt:environment_initialization.obj
 0001:00014d79       ??$__crt_fast_encode_pointer@PAX@@YAPAXQAX@Z 10015d79 f i libucrt:initialization.obj
 0001:00014d79       ??$__crt_fast_encode_pointer@P6AHXZ@@YAP6AHXZQ6AHXZ@Z 10015d79 f i libucrt:onexit.obj
 0001:00014d79       ??$__crt_fast_encode_pointer@PAP6AXXZ@@YAPAP6AXXZQAP6AXXZ@Z 10015d79 f i libucrt:onexit.obj
 0001:00014f9b       __crt_atexit               10015f9b f   libucrt:onexit.obj
 0001:00014fb1       __execute_onexit_table     10015fb1 f   libucrt:onexit.obj
 0001:00014fde       __initialize_onexit_table  10015fde f   libucrt:onexit.obj
 0001:00015007       __register_onexit_function 10016007 f   libucrt:onexit.obj
 0001:0001503a       ___acrt_uninitialize_command_line 1001603a f   libucrt:argv_data.obj
 0001:00015138       ___acrt_initialize         10016138 f   libucrt:initialization.obj
 0001:0001514a       ___acrt_thread_attach      1001614a f   libucrt:initialization.obj
 0001:00015155       ___acrt_thread_detach      10016155 f   libucrt:initialization.obj
 0001:0001515d       ___acrt_uninitialize       1001615d f   libucrt:initialization.obj
 0001:0001518d       ___acrt_uninitialize_critical 1001618d f   libucrt:initialization.obj
 0001:0001519f       __initterm                 1001619f f   libucrt:initterm.obj
 0001:000151e4       __initterm_e               100161e4 f   libucrt:initterm.obj
 0001:00015212       ___acrt_initialize_new_handler 10016212 f   libucrt:new_handler.obj
 0001:00015221       __callnewh                 10016221 f   libucrt:new_handler.obj
 0001:0001524e       __query_new_handler        1001624e f   libucrt:new_handler.obj
 0001:000152aa       _terminate                 100162aa f   libucrt:terminate.obj
 0001:000152e6       _abort                     100162e6 f   libucrt:abort.obj
 0001:0001532a       _strcpy_s                  1001632a f   libucrt:strcpy_s.obj
 0001:00015384       ??$is_overflow_condition@K@__crt_strtox@@YA_NIK@Z 10016384 f i libucrt:atox.obj
 0001:000153b5       ??$parse_integer@KV?$c_string_character_source@_W@__crt_strtox@@@__crt_strtox@@YAKQAU__crt_locale_pointers@@V?$c_string_character_source@_W@0@H_N@Z 100163b5 f i libucrt:atox.obj
 0001:000159bd       ?unget@?$c_string_character_source@_W@__crt_strtox@@QAEX_W@Z 100169bd f i libucrt:atox.obj
 0001:000159f0       _strncmp                   100169f0 f   libucrt:strncmp.obj
 0001:00015a68       _wcsncmp                   10016a68 f   libucrt:wcsncmp.obj
 0001:00015aa2       __free_base                10016aa2 f   libucrt:free_base.obj
 0001:00015e1a       ___acrt_freeptd            10016e1a f   libucrt:per_thread_data.obj
 0001:00015e46       ___acrt_getptd             10016e46 f   libucrt:per_thread_data.obj
 0001:00015f03       ___acrt_getptd_head        10016f03 f   libucrt:per_thread_data.obj
 0001:00015f9d       ___acrt_getptd_noexit      10016f9d f   libucrt:per_thread_data.obj
 0001:00016052       ___acrt_initialize_ptd     10017052 f   libucrt:per_thread_data.obj
 0001:0001607e       ___acrt_uninitialize_ptd   1001707e f   libucrt:per_thread_data.obj
 0001:00016098       __calloc_base              10017098 f   libucrt:calloc_base.obj
 0001:000160f5       __malloc_base              100170f5 f   libucrt:malloc_base.obj
 0001:00016143       __msize_base               10017143 f   libucrt:msize.obj
 0001:00016176       __realloc_base             10017176 f   libucrt:realloc_base.obj
 0001:00016377       ___acrt_AppPolicyGetProcessTerminationMethodInternal@4 10017377 f   libucrt:winapi_thunks.obj
 0001:000163b7       ___acrt_AreFileApisANSI@0  100173b7 f   libucrt:winapi_thunks.obj
 0001:000163d6       ___acrt_FlsAlloc@4         100173d6 f   libucrt:winapi_thunks.obj
 0001:00016415       ___acrt_FlsFree@4          10017415 f   libucrt:winapi_thunks.obj
 0001:00016454       ___acrt_FlsGetValue@4      10017454 f   libucrt:winapi_thunks.obj
 0001:00016493       ___acrt_FlsSetValue@8      10017493 f   libucrt:winapi_thunks.obj
 0001:000164d5       ___acrt_InitializeCriticalSectionEx@12 100174d5 f   libucrt:winapi_thunks.obj
 0001:00016520       ___acrt_LCMapStringEx@36   10017520 f   libucrt:winapi_thunks.obj
 0001:0001657d       ___acrt_LocaleNameToLCID@8 1001757d f   libucrt:winapi_thunks.obj
 0001:000165ae       ___acrt_SetThreadStackGuarantee@4 100175ae f   libucrt:winapi_thunks.obj
 0001:000165e9       ___acrt_initialize_winapi_thunks 100175e9 f   libucrt:winapi_thunks.obj
 0001:00016614       ___acrt_uninitialize_winapi_thunks 10017614 f   libucrt:winapi_thunks.obj
 0001:0001664a       ??$make_c_string_character_source@_WPAPA_W@__crt_strtox@@YA?AV?$c_string_character_source@_W@0@QB_WQAPA_W@Z 1001764a f i libucrt:strtox.obj
 0001:00016665       _wcstol                    10017665 f   libucrt:strtox.obj
 0001:0001668f       __mbtowc_l                 1001768f f   libucrt:mbtowc.obj
 0001:000167d1       _mbtowc                    100177d1 f   libucrt:mbtowc.obj
 0001:000167eb       _wcsnlen                   100177eb f   libucrt:strnlen.obj
 0001:0001699b       ___acrt_update_locale_info 1001799b f   libucrt:locale_update.obj
 0001:000169c8       ___acrt_update_multibyte_info 100179c8 f   libucrt:locale_update.obj
 0001:000169f5       ?__acrt_fp_classify@@YA?AW4__acrt_fp_class@@ABN@Z 100179f5 f i libucrt:cvt.obj
 0001:00017240       ___acrt_fp_format          10018240 f   libucrt:cvt.obj
 0001:0001737b       __fileno                   1001837b f   libucrt:fileno.obj
 0001:000173a2       ___acrt_initialize_stdio   100183a2 f   libucrt:_file.obj
 0001:0001746a       ___acrt_uninitialize_stdio 1001846a f   libucrt:_file.obj
 0001:000174b6       __lock_file                100184b6 f   libucrt:_file.obj
 0001:000174ca       __unlock_file              100184ca f   libucrt:_file.obj
 0001:000174de       __get_printf_count_output  100184de f   libucrt:printf_count_output.obj
 0001:00017561       ___acrt_set_locale_changed 10018561 f   libucrt:wsetlocale.obj
 0001:0001756c       ___acrt_uninitialize_locale 1001856c f   libucrt:wsetlocale.obj
 0001:000176fd       ___acrt_initialize_lowio   100186fd f   libucrt:ioinit.obj
 0001:0001775d       ___acrt_uninitialize_lowio 1001875d f   libucrt:ioinit.obj
 0001:00017789       ___acrt_initialize_locks   10018789 f   libucrt:locks.obj
 0001:000177ca       ___acrt_lock               100187ca f   libucrt:locks.obj
 0001:000177e1       ___acrt_uninitialize_locks 100187e1 f   libucrt:locks.obj
 0001:00017812       ___acrt_unlock             10018812 f   libucrt:locks.obj
 0001:00017829       ___acrt_get_process_end_policy 10018829 f   libucrt:win_policies.obj
 0001:000179f3       ??$__acrt_mbs_to_wcs_cp@U__crt_win32_buffer_internal_dynamic_resizing@@@@YAHQBDAAV?$__crt_win32_buffer@_WU__crt_win32_buffer_internal_dynamic_resizing@@@@I@Z 100189f3 f i libucrt:argv_wildcards.obj
 0001:00017f07       ?__acrt_get_utf8_acp_compatibility_codepage@@YAIXZ 10018f07 f i libucrt:argv_wildcards.obj
 0001:00017f46       ?_deallocate@?$__crt_win32_buffer@_WU__crt_win32_buffer_internal_dynamic_resizing@@@@AAEXXZ 10018f46 f i libucrt:argv_wildcards.obj
 0001:00017f46       ?_deallocate@?$__crt_win32_buffer@DU__crt_win32_buffer_internal_dynamic_resizing@@@@AAEXXZ 10018f46 f i libucrt:argv_wildcards.obj
 0001:00017f60       ?allocate@?$__crt_win32_buffer@DU__crt_win32_buffer_internal_dynamic_resizing@@@@QAEHI@Z 10018f60 f i libucrt:argv_wildcards.obj
 0001:00017f9c       ?allocate@?$__crt_win32_buffer@_WU__crt_win32_buffer_internal_dynamic_resizing@@@@QAEHI@Z 10018f9c f i libucrt:argv_wildcards.obj
 0001:00017fdb       ?allocate@__crt_win32_buffer_internal_dynamic_resizing@@SAHQAPAXIABV__crt_win32_buffer_empty_debug_info@@@Z 10018fdb f i libucrt:argv_wildcards.obj
 0001:00018081       ___acrt_expand_narrow_argv_wildcards 10019081 f   libucrt:argv_wildcards.obj
 0001:00018153       ?allocate@?$__crt_win32_buffer@DU__crt_win32_buffer_no_resizing@@@@QAEHI@Z 10019153 f i libucrt:getmodulefilenamea.obj
 0001:0001817a       ?set_to_nullptr@?$__crt_win32_buffer@DU__crt_win32_buffer_no_resizing@@@@QAEXXZ 1001917a f i libucrt:getmodulefilenamea.obj
 0001:0001818e       ___acrt_GetModuleFileNameA 1001918e f   libucrt:getmodulefilenamea.obj
 0001:0001874d       ___acrt_initialize_multibyte 1001974d f   libucrt:mbctype.obj
 0001:00018795       ___acrt_update_thread_multibyte_data 10019795 f   libucrt:mbctype.obj
 0001:000187a8       __setmbcp_nolock           100197a8 f   libucrt:mbctype.obj
 0001:00018a73       __ismbblead                10019a73 f   libucrt:ismbbyte.obj
 0001:00018a8b       ___acrt_initialize_command_line 10019a8b f   libucrt:argv_data.obj
 0001:00018aa4       ___acrt_MultiByteToWideChar 10019aa4 f   libucrt:multibytetowidechar.obj
 0001:00018b20       ___acrt_WideCharToMultiByte 10019b20 f   libucrt:widechartomultibyte.obj
 0001:00018c04       ___dcrt_get_narrow_environment_from_os 10019c04 f   libucrt:get_environment_from_os.obj
 0001:00018c88       ___acrt_initialize_heap    10019c88 f   libucrt:heap_handle.obj
 0001:00018c99       ___acrt_uninitialize_heap  10019c99 f   libucrt:heap_handle.obj
 0001:00018ca3       ___acrt_execute_initializers 10019ca3 f   libucrt:shared_initialization.obj
 0001:00018d0b       ___acrt_execute_uninitializers 10019d0b f   libucrt:shared_initialization.obj
 0001:00018e0a       ___acrt_get_sigabrt_handler 10019e0a f   libucrt:signal.obj
 0001:00018e31       ___acrt_initialize_signal_handlers 10019e31 f   libucrt:signal.obj
 0001:00018e4f       ___fpecode                 10019e4f f   libucrt:signal.obj
 0001:00018e58       _raise                     10019e58 f   libucrt:signal.obj
 0001:00019053       ___acrt_has_user_matherr   1001a053 f   libucrt:matherr.obj
 0001:0001906b       ___acrt_initialize_user_matherr 1001a06b f   libucrt:matherr.obj
 0001:0001907a       ___acrt_invoke_user_matherr 1001a07a f   libucrt:matherr.obj
 0001:00019289       ___acrt_stdio_flush_nolock 1001a289 f   libucrt:fflush.obj
 0001:000192ee       __fflush_nolock            1001a2ee f   libucrt:fflush.obj
 0001:00019336       __flushall                 1001a336 f   libucrt:fflush.obj
 0001:0001933f       ___pctype_func             1001a33f f   libucrt:ctype.obj
 0001:00019363       _iswctype                  1001a363 f   libucrt:iswctype.obj
 0001:000193cc       ___acrt_add_locale_ref     1001a3cc f   libucrt:locale_refcounting.obj
 0001:00019449       ___acrt_free_locale        1001a449 f   libucrt:locale_refcounting.obj
 0001:00019591       ___acrt_locale_add_lc_time_reference 1001a591 f   libucrt:locale_refcounting.obj
 0001:000195ba       ___acrt_locale_free_lc_time_if_unreferenced 1001a5ba f   libucrt:locale_refcounting.obj
 0001:000195eb       ___acrt_locale_release_lc_time_reference 1001a5eb f   libucrt:locale_refcounting.obj
 0001:00019614       ___acrt_release_locale_ref 1001a614 f   libucrt:locale_refcounting.obj
 0001:00019695       ___acrt_update_thread_locale_data 1001a695 f   libucrt:locale_refcounting.obj
 0001:00019716       __updatetlocinfoEx_nolock  1001a716 f   libucrt:locale_refcounting.obj
 0001:00019766       __query_new_mode           1001a766 f   libucrt:new_mode.obj
 0001:000197bd       ___acrt_DownlevelLocaleNameToLCID 1001a7bd f   libucrt:lcidtoname_downlevel.obj
 0001:000197e9       __isleadbyte_l             1001a7e9 f i libucrt:_wctype.obj
 0001:0001984f       ?__mbrtowc_utf8@__crt_mbstring@@YAIPA_WPBDIPAU_Mbstatet@@@Z 1001a84f f   libucrt:mbrtowc.obj
 0001:0001988f       ?__mbsrtowcs_utf8@__crt_mbstring@@YAIPA_WPAPBDIPAU_Mbstatet@@@Z 1001a88f f   libucrt:mbrtowc.obj
 0001:0001998a       ?return_illegal_sequence@__crt_mbstring@@YAIPAU_Mbstatet@@@Z 1001a98a f i libucrt:c32rtomb.obj
 0001:000199a9       ___acrt_fp_strflt_to_string 1001a9a9 f   libucrt:_fptostr.obj
 0001:00019a70       ?divide@__crt_strtox@@YA_KAAUbig_integer@1@ABU21@@Z 1001aa70 f i libucrt:cfout.obj
 0001:00019f08       ___acrt_fltout             1001af08 f   libucrt:cfout.obj
 0001:0001b252       __fcloseall                1001c252 f   libucrt:closeall.obj
 0001:0001b2fd       ___acrt_stdio_free_buffer_nolock 1001c2fd f   libucrt:_freebuf.obj
 0001:0001b33d       __isatty                   1001c33d f   libucrt:isatty.obj
 0001:0001b393       ___acrt_locale_free_monetary 1001c393 f   libucrt:initmon.obj
 0001:0001b491       ___acrt_locale_free_numeric 1001c491 f   libucrt:initnum.obj
 0001:0001b532       ___acrt_locale_free_time   1001c532 f   libucrt:inittime.obj
 0001:0001b616       ___acrt_GetStringTypeA     1001c616 f   libucrt:getstringtypea.obj
 0001:0001b719       __freea_crt                1001c719 f i libucrt:getstringtypea.obj
 0001:0001b739       ___acrt_lowio_create_handle_array 1001c739 f   libucrt:osfinfo.obj
 0001:0001b7b4       ___acrt_lowio_destroy_handle_array 1001c7b4 f   libucrt:osfinfo.obj
 0001:0001b7e9       ___acrt_lowio_ensure_fh_exists 1001c7e9 f   libucrt:osfinfo.obj
 0001:0001b887       ___acrt_lowio_lock_fh      1001c887 f   libucrt:osfinfo.obj
 0001:0001b8aa       ___acrt_lowio_unlock_fh    1001c8aa f   libucrt:osfinfo.obj
 0001:0001b8cd       __free_osfhnd              1001c8cd f   libucrt:osfinfo.obj
 0001:0001b95e       __get_osfhandle            1001c95e f   libucrt:osfinfo.obj
 0001:0001ba10       _qsort                     1001ca10 f   libucrt:qsort.obj
 0001:0001bf07       _strncpy_s                 1001cf07 f   libucrt:strncpy_s.obj
 0001:0001bf20       _strpbrk                   1001cf20 f   libucrt:strpbrk.obj
 0001:0001bf60       __mbsdec                   1001cf60 f   libucrt:mbsdec.obj
 0001:0001bf77       __mbsdec_l                 1001cf77 f   libucrt:mbsdec.obj
 0001:0001c1ee       ___acrt_LCMapStringA       1001d1ee f   libucrt:lcmapstringa.obj
 0001:0001c2e8       __commit                   1001d2e8 f   libucrt:commit.obj
 0001:0001cade       __write                    1001dade f   libucrt:write.obj
 0001:0001cbd0       __write_nolock             1001dbd0 f   libucrt:write.obj
 0001:0001cdb2       ___acrt_GetStringTypeW     1001ddb2 f   libucrt:getstringtypew.obj
 0001:0001cdcb       ___ascii_wcsnicmp          1001ddcb f   libucrt:wcsnicmp.obj
 0001:0001ce1a       ?__mbrtoc32_utf8@__crt_mbstring@@YAIPA_UPBDIPAU_Mbstatet@@@Z 1001de1a f   libucrt:mbrtoc32.obj
 0001:0001cfc1       _fegetenv                  1001dfc1 f   libucrt:fegetenv.obj
 0001:0001cfde       _fesetenv                  1001dfde f   libucrt:fesetenv.obj
 0001:0001d029       _feholdexcept              1001e029 f   libucrt:feholdexcept.obj
 0001:0001d080       __CIlog10                  1001e080 f   libucrt:log10_impl.obj
 0001:0001d0bb       __CIlog10_default          1001e0bb f   libucrt:log10_impl.obj
 0001:0001d0cf       __log10_default            1001e0cf     libucrt:log10_impl.obj
 0001:0001d190       _ceil                      1001e190 f   libucrt:ceil_pentium4.obj
 0001:0001d1d0       __ceil_pentium4            1001e1d0 f   libucrt:ceil_pentium4.obj
 0001:0001d329       __lseeki64_nolock          1001e329 f   libucrt:lseek.obj
 0001:0001d344       __fclose_nolock            1001e344 f   libucrt:fclose.obj
 0001:0001d3bb       _fclose                    1001e3bb f   libucrt:fclose.obj
 0001:0001d43f       __query_app_type           1001e43f f   libucrt:report_runtime_error.obj
 0001:0001d445       ___strncnt                 1001e445 f   libucrt:strncnt.obj
 0001:0001d461       __putwch_nolock            1001e461 f   libucrt:putwch.obj
 0001:0001d7a0       ___acrt_fenv_get_control   1001e7a0 f   libucrt:_fenvutils.obj
 0001:0001d820       ___acrt_fenv_get_status    1001e820 f   libucrt:_fenvutils.obj
 0001:0001d8d8       ___acrt_fenv_set_control   1001e8d8 f   libucrt:_fenvutils.obj
 0001:0001d940       ___acrt_fenv_set_status    1001e940 f   libucrt:_fenvutils.obj
 0001:0001da37       __clearfp                  1001ea37 f   libucrt:ieee87.obj
 0001:0001db15       ___acrt_initialize_sse2    1001eb15 f   libucrt:mathfcns.obj
 0001:0001db30       __CIlog10_pentium4         1001eb30 f   libucrt:log10_pentium4.obj
 0001:0001db48       __log10_pentium4           1001eb48     libucrt:log10_pentium4.obj
 0001:0001dde0       __fFEXP                    1001ede0 f   libucrt:87tran.obj
 0001:0001de37       __rtinfpopse               1001ee37     libucrt:87tran.obj
 0001:0001de39       __rtinfnpopse              1001ee39     libucrt:87tran.obj
 0001:0001de49       __fFLN                     1001ee49     libucrt:87tran.obj
 0001:0001defe       __rtinfpop                 1001eefe     libucrt:87tran.obj
 0001:0001df00       __rtinfnpop                1001ef00     libucrt:87tran.obj
 0001:0001df10       __rtforexpinf              1001ef10 f   libucrt:87tran.obj
 0001:0001df1d       __ffexpm1                  1001ef1d     libucrt:87tran.obj
 0001:0001dfd0       __trandisp1                1001efd0 f   libucrt:87disp.obj
 0001:0001e045       __trandisp2                1001f045 f   libucrt:87disp.obj
 0001:0001e0df       __rttospopde               1001f0df     libucrt:87disp.obj
 0001:0001e0e4       __rttospop                 1001f0e4     libucrt:87disp.obj
 0001:0001e0f0       __rtnospop                 1001f0f0 f   libucrt:87disp.obj
 0001:0001e100       __rttosnpop                1001f100 f   libucrt:87disp.obj
 0001:0001e101       __rtnospopde               1001f101     libucrt:87disp.obj
 0001:0001e108       __rtzeropop                1001f108     libucrt:87disp.obj
 0001:0001e10a       __rtzeronpop               1001f10a     libucrt:87disp.obj
 0001:0001e110       __rtzerospop               1001f110 f   libucrt:87disp.obj
 0001:0001e11d       __rtonepop                 1001f11d     libucrt:87disp.obj
 0001:0001e120       __rtonenpop                1001f120 f   libucrt:87disp.obj
 0001:0001e130       __tosnan1                  1001f130 f   libucrt:87disp.obj
 0001:0001e160       __nosnan2                  1001f160 f   libucrt:87disp.obj
 0001:0001e170       __tosnan2                  1001f170 f   libucrt:87disp.obj
 0001:0001e1a0       __nan2                     1001f1a0 f   libucrt:87disp.obj
 0001:0001e1e0       __rtindfpop                1001f1e0 f   libucrt:87disp.obj
 0001:0001e1e2       __rtindfnpop               1001f1e2     libucrt:87disp.obj
 0001:0001e1f3       __rttosnpopde              1001f1f3     libucrt:87disp.obj
 0001:0001e200       __rtatan2inf               1001f200 f   libucrt:87disp.obj
 0001:0001e21d       __rtchsifneg               1001f21d     libucrt:87disp.obj
 0001:0001e230       __twoToTOS                 1001f230 f   libucrt:common.obj
 0001:0001e245       __load_CW                  1001f245 f   libucrt:common.obj
 0001:0001e25c       __convertTOStoQNaN         1001f25c f   libucrt:common.obj
 0001:0001e275       __fload_withFB             1001f275 f   libucrt:common.obj
 0001:0001e2b8       __checkTOS_withFB          1001f2b8 f   libucrt:common.obj
 0001:0001e2ce       __fast_exit                1001f2ce f   libucrt:common.obj
 0001:0001e2db       __math_exit                1001f2db f   libucrt:common.obj
 0001:0001e305       __check_overflow_exit      1001f305 f   libucrt:common.obj
 0001:0001e319       __check_range_exit         1001f319 f   libucrt:common.obj
 0001:0001e3c0       __startTwoArgErrorHandling 1001f3c0 f   libucrt:genexcep.obj
 0001:0001e3d7       __startOneArgErrorHandling 1001f3d7 f   libucrt:genexcep.obj
 0001:0001e413       ___libm_error_support      1001f413 f   libucrt:libm_error.obj
 0001:0001e607       __ceil_default             1001f607 f   libucrt:ceil.obj
 0001:0001e748       __close                    1001f748 f   libucrt:close.obj
 0001:0001e7d5       __close_nolock             1001f7d5 f   libucrt:close.obj
 0001:0001e871       ?__acrt_stdio_free_stream@@YAXV__crt_stdio_stream@@@Z 1001f871 f   libucrt:stream.obj
 0001:0001e8b0       ___ascii_strnicmp          1001f8b0 f   libucrt:_strnicm.obj
 0001:0001e930       ___dcrt_lowio_ensure_console_output_initialized 1001f930 f   libucrt:initcon.obj
 0001:0001e94f       ___dcrt_terminate_console_output 1001f94f f   libucrt:initcon.obj
 0001:0001e966       ___dcrt_write_console      1001f966 f   libucrt:initcon.obj
 0001:0001e9bb       __clrfp                    1001f9bb f   libucrt:fpctrl.obj
 0001:0001e9cc       __ctrlfp                   1001f9cc f   libucrt:fpctrl.obj
 0001:0001e9f6       __set_statfp               1001f9f6 f   libucrt:fpctrl.obj
 0001:0001ea4f       __statfp                   1001fa4f f   libucrt:fpctrl.obj
 0001:0001ea5f       __d_inttype                1001fa5f f   libucrt:powhlp.obj
 0001:0001eac7       __powhlp                   1001fac7 f   libucrt:powhlp.obj
 0001:0001ebf2       __87except                 1001fbf2 f   libucrt:87except.obj
 0001:0001ecfc       __frnd                     1001fcfc f   libucrt:frnd.obj
 0001:0001ed10       __errcode                  1001fd10 f   libucrt:fpexcept.obj
 0001:0001ed44       __except1                  1001fd44 f   libucrt:fpexcept.obj
 0001:0001ee12       __handle_exc               1001fe12 f   libucrt:fpexcept.obj
 0001:0001effd       __raise_exc                1001fffd f   libucrt:fpexcept.obj
 0001:0001f020       __raise_exc_ex             10020020 f   libucrt:fpexcept.obj
 0001:0001f316       __set_errno_from_matherr   10020316 f   libucrt:fpexcept.obj
 0001:0001f345       __umatherr                 10020345 f   libucrt:fpexcept.obj
 0001:0001f3e5       __decomp                   100203e5 f   libucrt:util.obj
 0001:0001f4b7       __set_exp                  100204b7 f   libucrt:util.obj
 0001:0001f4e4       __sptype                   100204e4 f   libucrt:util.obj
 0001:0001f542       __fpclass                  10020542 f   libucrt:ieeemisc.obj
 0001:0001f5e6       _IsProcessorFeaturePresent@4 100205e6 f   kernel32:KERNEL32.dll
 0001:0001f5f0       __FindPESection            100205f0 f   LIBCMT:pesect.obj
 0001:0001f640       __IsNonwritableInCurrentImage 10020640 f   LIBCMT:pesect.obj
 0001:0001f700       __ValidateImageBase        10020700 f   LIBCMT:pesect.obj
 0001:0001f733       __EH_prolog3_catch         10020733 f   LIBCMT:ehprolg3.obj
 0001:0001f770       __aulldvrm                 10020770 f   LIBCMT:ulldvrm.obj
 0001:0001f810       __allmul                   10020810 f   LIBCMT:llmul.obj
 0001:0001f850       __alldvrm                  10020850 f   LIBCMT:lldvrm.obj
 0001:0001f930       __aullshr                  10020930 f   LIBCMT:ullshr.obj
 0001:0001f950       __allshl                   10020950 f   LIBCMT:llshl.obj
 0001:0001f970       __ftol2_sse_excpt          10020970     LIBCMT:ftol2.obj
 0001:0001f970       __ftoi2                    10020970 f   LIBCMT:ftol2.obj
 0001:0001f970       __ftol2_sse                10020970     LIBCMT:ftol2.obj
 0001:0001f9f0       __ftoui2                   100209f0 f   LIBCMT:ftol2.obj
 0001:0001faa0       __ftol2                    10020aa0 f   LIBCMT:ftol2.obj
 0001:0001fb50       __ftoul2                   10020b50 f   LIBCMT:ftol2.obj
 0001:0001fc10       _strrchr                   10020c10 f   libvcruntime:strrchr.obj
 0001:0001fd50       _strchr                    10020d50 f   libvcruntime:strchr.obj
 0001:0001fdbe       ___from_strstr_to_strchr   10020dbe     libvcruntime:strchr.obj
 0001:0001fe7b       __filter_x86_sse2_floating_point_exception_default 10020e7b f   LIBCMT:x86_exception_filter.obj
 0001:0001fe7b       __filter_x86_sse2_floating_point_exception 10020e7b f   LIBCMT:x86_exception_filter.obj
 0002:00000000       __imp__RegQueryValueExW@24 10021000     advapi32:ADVAPI32.dll
 0002:00000004       __imp__RegSetValueExW@24   10021004     advapi32:ADVAPI32.dll
 0002:00000008       __imp__RegQueryInfoKeyW@48 10021008     advapi32:ADVAPI32.dll
 0002:0000000c       __imp__RegOpenKeyExW@20    1002100c     advapi32:ADVAPI32.dll
 0002:00000010       __imp__RegEnumKeyExW@32    10021010     advapi32:ADVAPI32.dll
 0002:00000014       __imp__RegDeleteValueW@8   10021014     advapi32:ADVAPI32.dll
 0002:00000018       __imp__RegDeleteKeyW@8     10021018     advapi32:ADVAPI32.dll
 0002:0000001c       __imp__RegCreateKeyExW@36  1002101c     advapi32:ADVAPI32.dll
 0002:00000020       __imp__RegCloseKey@4       10021020     advapi32:ADVAPI32.dll
 0002:00000024       \177ADVAPI32_NULL_THUNK_DATA 10021024     advapi32:ADVAPI32.dll
 0002:00000028       __imp__GetObjectW@12       10021028     gdi32:GDI32.dll
 0002:0000002c       __imp__SelectObject@8      1002102c     gdi32:GDI32.dll
 0002:00000030       __imp__DeleteObject@4      10021030     gdi32:GDI32.dll
 0002:00000034       __imp__CreateCompatibleDC@4 10021034     gdi32:GDI32.dll
 0002:00000038       __imp__BitBlt@36           10021038     gdi32:GDI32.dll
 0002:0000003c       __imp__SetWindowOrgEx@16   1002103c     gdi32:GDI32.dll
 0002:00000040       __imp__SetWindowExtEx@16   10021040     gdi32:GDI32.dll
 0002:00000044       __imp__SetViewportOrgEx@16 10021044     gdi32:GDI32.dll
 0002:00000048       __imp__LPtoDP@12           10021048     gdi32:GDI32.dll
 0002:0000004c       __imp__SetMapMode@8        1002104c     gdi32:GDI32.dll
 0002:00000050       __imp__SaveDC@4            10021050     gdi32:GDI32.dll
 0002:00000054       __imp__RestoreDC@8         10021054     gdi32:GDI32.dll
 0002:00000058       __imp__GetDeviceCaps@8     10021058     gdi32:GDI32.dll
 0002:0000005c       __imp__DeleteMetaFile@4    1002105c     gdi32:GDI32.dll
 0002:00000060       __imp__DeleteDC@4          10021060     gdi32:GDI32.dll
 0002:00000064       __imp__CreateRectRgnIndirect@4 10021064     gdi32:GDI32.dll
 0002:00000068       __imp__CreateMetaFileW@4   10021068     gdi32:GDI32.dll
 0002:0000006c       __imp__CreateDCW@16        1002106c     gdi32:GDI32.dll
 0002:00000070       __imp__CloseMetaFile@4     10021070     gdi32:GDI32.dll
 0002:00000074       \177GDI32_NULL_THUNK_DATA  10021074     gdi32:GDI32.dll
 0002:00000078       __imp__CloseHandle@4       10021078     kernel32:KERNEL32.dll
 0002:0000007c       __imp__SetEvent@4          1002107c     kernel32:KERNEL32.dll
 0002:00000080       __imp__CreateMutexW@12     10021080     kernel32:KERNEL32.dll
 0002:00000084       __imp__CreateEventW@16     10021084     kernel32:KERNEL32.dll
 0002:00000088       __imp__GetCurrentProcessId@0 10021088     kernel32:KERNEL32.dll
 0002:0000008c       __imp__CreateFileW@28      1002108c     kernel32:KERNEL32.dll
 0002:00000090       __imp__GetConsoleMode@8    10021090     kernel32:KERNEL32.dll
 0002:00000094       __imp__GetConsoleCP@0      10021094     kernel32:KERNEL32.dll
 0002:00000098       __imp__WriteFile@20        10021098     kernel32:KERNEL32.dll
 0002:0000009c       __imp__FlushFileBuffers@4  1002109c     kernel32:KERNEL32.dll
 0002:000000a0       __imp__SetStdHandle@8      100210a0     kernel32:KERNEL32.dll
 0002:000000a4       __imp__GetStringTypeW@16   100210a4     kernel32:KERNEL32.dll
 0002:000000a8       __imp__SetFilePointerEx@20 100210a8     kernel32:KERNEL32.dll
 0002:000000ac       __imp__FreeEnvironmentStringsW@4 100210ac     kernel32:KERNEL32.dll
 0002:000000b0       __imp__GetEnvironmentStringsW@0 100210b0     kernel32:KERNEL32.dll
 0002:000000b4       __imp__lstrcmpiW@8         100210b4     kernel32:KERNEL32.dll
 0002:000000b8       __imp__GetCommandLineA@0   100210b8     kernel32:KERNEL32.dll
 0002:000000bc       __imp__GetCPInfo@8         100210bc     kernel32:KERNEL32.dll
 0002:000000c0       __imp__GetOEMCP@0          100210c0     kernel32:KERNEL32.dll
 0002:000000c4       __imp__GetACP@0            100210c4     kernel32:KERNEL32.dll
 0002:000000c8       __imp__IsValidCodePage@4   100210c8     kernel32:KERNEL32.dll
 0002:000000cc       __imp__FindNextFileW@8     100210cc     kernel32:KERNEL32.dll
 0002:000000d0       __imp__FindFirstFileExW@24 100210d0     kernel32:KERNEL32.dll
 0002:000000d4       __imp__FindClose@4         100210d4     kernel32:KERNEL32.dll
 0002:000000d8       __imp__GetFileType@4       100210d8     kernel32:KERNEL32.dll
 0002:000000dc       __imp__GetStdHandle@4      100210dc     kernel32:KERNEL32.dll
 0002:000000e0       __imp__LCMapStringW@24     100210e0     kernel32:KERNEL32.dll
 0002:000000e4       __imp__HeapReAlloc@16      100210e4     kernel32:KERNEL32.dll
 0002:000000e8       __imp__HeapSize@12         100210e8     kernel32:KERNEL32.dll
 0002:000000ec       __imp__MulDiv@12           100210ec     kernel32:KERNEL32.dll
 0002:000000f0       __imp__GlobalLock@4        100210f0     kernel32:KERNEL32.dll
 0002:000000f4       __imp__GlobalUnlock@4      100210f4     kernel32:KERNEL32.dll
 0002:000000f8       __imp__GlobalAlloc@8       100210f8     kernel32:KERNEL32.dll
 0002:000000fc       __imp__FindResourceW@12    100210fc     kernel32:KERNEL32.dll
 0002:00000100       __imp__SizeofResource@8    10021100     kernel32:KERNEL32.dll
 0002:00000104       __imp__LoadResource@8      10021104     kernel32:KERNEL32.dll
 0002:00000108       __imp__LoadLibraryExW@12   10021108     kernel32:KERNEL32.dll
 0002:0000010c       __imp__GetProcAddress@8    1002110c     kernel32:KERNEL32.dll
 0002:00000110       __imp__GetModuleHandleW@4  10021110     kernel32:KERNEL32.dll
 0002:00000114       __imp__GetModuleFileNameW@12 10021114     kernel32:KERNEL32.dll
 0002:00000118       __imp__FreeLibrary@4       10021118     kernel32:KERNEL32.dll
 0002:0000011c       __imp__DisableThreadLibraryCalls@4 1002111c     kernel32:KERNEL32.dll
 0002:00000120       __imp__GetCurrentThreadId@0 10021120     kernel32:KERNEL32.dll
 0002:00000124       __imp__Sleep@4             10021124     kernel32:KERNEL32.dll
 0002:00000128       __imp__WaitForSingleObject@8 10021128     kernel32:KERNEL32.dll
 0002:0000012c       __imp__ReleaseMutex@4      1002112c     kernel32:KERNEL32.dll
 0002:00000130       __imp__ResetEvent@4        10021130     kernel32:KERNEL32.dll
 0002:00000134       __imp__EnterCriticalSection@4 10021134     kernel32:KERNEL32.dll
 0002:00000138       __imp__LeaveCriticalSection@4 10021138     kernel32:KERNEL32.dll
 0002:0000013c       __imp__SetLastError@4      1002113c     kernel32:KERNEL32.dll
 0002:00000140       __imp__EncodePointer@4     10021140     kernel32:KERNEL32.dll
 0002:00000144       __imp__DeleteCriticalSection@4 10021144     kernel32:KERNEL32.dll
 0002:00000148       __imp__InitializeCriticalSectionEx@12 10021148     kernel32:KERNEL32.dll
 0002:0000014c       __imp__GetLastError@0      1002114c     kernel32:KERNEL32.dll
 0002:00000150       __imp__RaiseException@16   10021150     kernel32:KERNEL32.dll
 0002:00000154       __imp__DecodePointer@4     10021154     kernel32:KERNEL32.dll
 0002:00000158       __imp__WideCharToMultiByte@32 10021158     kernel32:KERNEL32.dll
 0002:0000015c       __imp__GetCommandLineW@0   1002115c     kernel32:KERNEL32.dll
 0002:00000160       __imp__MultiByteToWideChar@24 10021160     kernel32:KERNEL32.dll
 0002:00000164       __imp__WriteConsoleW@20    10021164     kernel32:KERNEL32.dll
 0002:00000168       __imp__GetModuleHandleExW@12 10021168     kernel32:KERNEL32.dll
 0002:0000016c       __imp__ExitProcess@4       1002116c     kernel32:KERNEL32.dll
 0002:00000170       __imp__VirtualQuery@12     10021170     kernel32:KERNEL32.dll
 0002:00000174       __imp__VirtualProtect@16   10021174     kernel32:KERNEL32.dll
 0002:00000178       __imp__GetSystemInfo@4     10021178     kernel32:KERNEL32.dll
 0002:0000017c       __imp__TlsFree@4           1002117c     kernel32:KERNEL32.dll
 0002:00000180       __imp__TlsSetValue@8       10021180     kernel32:KERNEL32.dll
 0002:00000184       __imp__TlsGetValue@4       10021184     kernel32:KERNEL32.dll
 0002:00000188       __imp__TlsAlloc@0          10021188     kernel32:KERNEL32.dll
 0002:0000018c       __imp__InterlockedFlushSList@4 1002118c     kernel32:KERNEL32.dll
 0002:00000190       __imp__RtlUnwind@16        10021190     kernel32:KERNEL32.dll
 0002:00000194       __imp__LoadLibraryExA@12   10021194     kernel32:KERNEL32.dll
 0002:00000198       __imp__VirtualFree@12      10021198     kernel32:KERNEL32.dll
 0002:0000019c       __imp__VirtualAlloc@16     1002119c     kernel32:KERNEL32.dll
 0002:000001a0       __imp__FlushInstructionCache@12 100211a0     kernel32:KERNEL32.dll
 0002:000001a4       __imp__InterlockedPushEntrySList@8 100211a4     kernel32:KERNEL32.dll
 0002:000001a8       __imp__InterlockedPopEntrySList@4 100211a8     kernel32:KERNEL32.dll
 0002:000001ac       __imp__GetProcessHeap@0    100211ac     kernel32:KERNEL32.dll
 0002:000001b0       __imp__HeapFree@12         100211b0     kernel32:KERNEL32.dll
 0002:000001b4       __imp__HeapAlloc@12        100211b4     kernel32:KERNEL32.dll
 0002:000001b8       __imp__OutputDebugStringW@4 100211b8     kernel32:KERNEL32.dll
 0002:000001bc       __imp__InitializeSListHead@4 100211bc     kernel32:KERNEL32.dll
 0002:000001c0       __imp__GetSystemTimeAsFileTime@4 100211c0     kernel32:KERNEL32.dll
 0002:000001c4       __imp__QueryPerformanceCounter@4 100211c4     kernel32:KERNEL32.dll
 0002:000001c8       __imp__GetStartupInfoW@4   100211c8     kernel32:KERNEL32.dll
 0002:000001cc       __imp__IsDebuggerPresent@0 100211cc     kernel32:KERNEL32.dll
 0002:000001d0       __imp__IsProcessorFeaturePresent@4 100211d0     kernel32:KERNEL32.dll
 0002:000001d4       __imp__TerminateProcess@8  100211d4     kernel32:KERNEL32.dll
 0002:000001d8       __imp__GetCurrentProcess@0 100211d8     kernel32:KERNEL32.dll
 0002:000001dc       __imp__SetUnhandledExceptionFilter@4 100211dc     kernel32:KERNEL32.dll
 0002:000001e0       __imp__UnhandledExceptionFilter@4 100211e0     kernel32:KERNEL32.dll
 0002:000001e4       __imp__InitializeCriticalSectionAndSpinCount@8 100211e4     kernel32:KERNEL32.dll
 0002:000001e8       __imp__WaitForSingleObjectEx@12 100211e8     kernel32:KERNEL32.dll
 0002:000001ec       \177KERNEL32_NULL_THUNK_DATA 100211ec     kernel32:KERNEL32.dll
 0002:000001f0       __imp__OleCreatePropertyFrame@44 100211f0     oleaut32:OLEAUT32.dll
 0002:000001f4       __imp__UnRegisterTypeLib@20 100211f4     oleaut32:OLEAUT32.dll
 0002:000001f8       __imp__RegisterTypeLib@12  100211f8     oleaut32:OLEAUT32.dll
 0002:000001fc       __imp__LoadRegTypeLib@20   100211fc     oleaut32:OLEAUT32.dll
 0002:00000200       __imp__LoadTypeLib@8       10021200     oleaut32:OLEAUT32.dll
 0002:00000204       __imp__VarUI4FromStr@16    10021204     oleaut32:OLEAUT32.dll
 0002:00000208       __imp__VariantInit@4       10021208     oleaut32:OLEAUT32.dll
 0002:0000020c       __imp__SysAllocStringByteLen@8 1002120c     oleaut32:OLEAUT32.dll
 0002:00000210       __imp__SysStringByteLen@4  10021210     oleaut32:OLEAUT32.dll
 0002:00000214       __imp__VariantChangeType@16 10021214     oleaut32:OLEAUT32.dll
 0002:00000218       __imp__VariantClear@4      10021218     oleaut32:OLEAUT32.dll
 0002:0000021c       __imp__SysStringLen@4      1002121c     oleaut32:OLEAUT32.dll
 0002:00000220       __imp__SysFreeString@4     10021220     oleaut32:OLEAUT32.dll
 0002:00000224       __imp__SysAllocStringLen@8 10021224     oleaut32:OLEAUT32.dll
 0002:00000228       __imp__SysAllocString@4    10021228     oleaut32:OLEAUT32.dll
 0002:0000022c       \177OLEAUT32_NULL_THUNK_DATA 1002122c     oleaut32:OLEAUT32.dll
 0002:00000230       __imp__UnregisterClassW@8  10021230     user32:USER32.dll
 0002:00000234       __imp__PostMessageW@16     10021234     user32:USER32.dll
 0002:00000238       __imp__DefWindowProcW@16   10021238     user32:USER32.dll
 0002:0000023c       __imp__CallWindowProcW@20  1002123c     user32:USER32.dll
 0002:00000240       __imp__RegisterClassExW@4  10021240     user32:USER32.dll
 0002:00000244       __imp__GetClassInfoExW@12  10021244     user32:USER32.dll
 0002:00000248       __imp__CreateWindowExW@48  10021248     user32:USER32.dll
 0002:0000024c       __imp__IsWindow@4          1002124c     user32:USER32.dll
 0002:00000250       __imp__IsChild@8           10021250     user32:USER32.dll
 0002:00000254       __imp__DestroyWindow@4     10021254     user32:USER32.dll
 0002:00000258       __imp__ShowWindow@8        10021258     user32:USER32.dll
 0002:0000025c       __imp__SetWindowPos@28     1002125c     user32:USER32.dll
 0002:00000260       __imp__CharNextW@4         10021260     user32:USER32.dll
 0002:00000264       __imp__SetFocus@4          10021264     user32:USER32.dll
 0002:00000268       __imp__LoadBitmapW@8       10021268     user32:USER32.dll
 0002:0000026c       __imp__RegisterClassW@4    1002126c     user32:USER32.dll
 0002:00000270       __imp__PeekMessageW@20     10021270     user32:USER32.dll
 0002:00000274       __imp__LoadCursorW@8       10021274     user32:USER32.dll
 0002:00000278       __imp__GetParent@4         10021278     user32:USER32.dll
 0002:0000027c       __imp__SetWindowLongW@12   1002127c     user32:USER32.dll
 0002:00000280       __imp__GetWindowLongW@8    10021280     user32:USER32.dll
 0002:00000284       __imp__PtInRect@12         10021284     user32:USER32.dll
 0002:00000288       __imp__EqualRect@8         10021288     user32:USER32.dll
 0002:0000028c       __imp__OffsetRect@12       1002128c     user32:USER32.dll
 0002:00000290       __imp__UnionRect@12        10021290     user32:USER32.dll
 0002:00000294       __imp__IntersectRect@12    10021294     user32:USER32.dll
 0002:00000298       __imp__GetClientRect@8     10021298     user32:USER32.dll
 0002:0000029c       __imp__InvalidateRect@12   1002129c     user32:USER32.dll
 0002:000002a0       __imp__SetWindowRgn@12     100212a0     user32:USER32.dll
 0002:000002a4       __imp__EndPaint@8          100212a4     user32:USER32.dll
 0002:000002a8       __imp__BeginPaint@8        100212a8     user32:USER32.dll
 0002:000002ac       __imp__ReleaseDC@8         100212ac     user32:USER32.dll
 0002:000002b0       __imp__GetDC@4             100212b0     user32:USER32.dll
 0002:000002b4       __imp__GetKeyState@4       100212b4     user32:USER32.dll
 0002:000002b8       __imp__GetFocus@0          100212b8     user32:USER32.dll
 0002:000002bc       \177USER32_NULL_THUNK_DATA 100212bc     user32:USER32.dll
 0002:000002c0       __imp__StringFromGUID2@12  100212c0     ole32:ole32.dll
 0002:000002c4       __imp__CoTaskMemAlloc@4    100212c4     ole32:ole32.dll
 0002:000002c8       __imp__CoTaskMemRealloc@8  100212c8     ole32:ole32.dll
 0002:000002cc       __imp__CoTaskMemFree@4     100212cc     ole32:ole32.dll
 0002:000002d0       __imp__ReadClassStm@8      100212d0     ole32:ole32.dll
 0002:000002d4       __imp__WriteClassStm@8     100212d4     ole32:ole32.dll
 0002:000002d8       __imp__CreateDataAdviseHolder@4 100212d8     ole32:ole32.dll
 0002:000002dc       __imp__OleSaveToStream@8   100212dc     ole32:ole32.dll
 0002:000002e0       __imp__CreateOleAdviseHolder@4 100212e0     ole32:ole32.dll
 0002:000002e4       __imp__OleRegGetUserType@12 100212e4     ole32:ole32.dll
 0002:000002e8       __imp__OleRegGetMiscStatus@12 100212e8     ole32:ole32.dll
 0002:000002ec       __imp__OleRegEnumVerbs@8   100212ec     ole32:ole32.dll
 0002:000002f0       __imp__CLSIDFromProgID@8   100212f0     ole32:ole32.dll
 0002:000002f4       __imp__CoCreateInstance@20 100212f4     ole32:ole32.dll
 0002:000002f8       \177ole32_NULL_THUNK_DATA  100212f8     ole32:ole32.dll
 0002:000002fc       ___guard_check_icall_fptr  100212fc     LIBCMT:guard_support.obj
 0002:00000300       ___xc_a                    10021300     LIBCMT:initializers.obj
 0002:00000318       ___xc_z                    10021318     LIBCMT:initializers.obj
 0002:0000031c       ___xi_a                    1002131c     LIBCMT:initializers.obj
 0002:00000324       ___acrt_stdio_initializer  10021324     libucrt:stdio_initializer.obj
 0002:00000328       ___acrt_multibyte_initializer 10021328     libucrt:multibyte_initializer.obj
 0002:0000032c       ___acrt_tran_sse2_initializer 1002132c     libucrt:sse2_initializer.obj
 0002:00000330       ___xi_z                    10021330     LIBCMT:initializers.obj
 0002:00000334       ___xl_a                    10021334     LIBCMT:tlssup.obj
 0002:00000338       ___xl_z                    10021338     LIBCMT:tlssup.obj
 0002:0000033c       ___xp_a                    1002133c     LIBCMT:initializers.obj
 0002:00000340       ___acrt_locale_terminator  10021340     libucrt:locale_initializer.obj
 0002:00000344       ___dcrt_console_output_terminator 10021344     libucrt:console_output_initializer.obj
 0002:00000348       ___acrt_stdio_terminator   10021348     libucrt:stdio_initializer.obj
 0002:0000034c       ___xp_z                    1002134c     LIBCMT:initializers.obj
 0002:00000350       ___xt_a                    10021350     LIBCMT:initializers.obj
 0002:00000354       ___xt_z                    10021354     LIBCMT:initializers.obj
 0002:00000360       ??_C@_13HADIAKP@?$AAS@     10021360     OposVariant.obj
 0002:00000364       ??_C@_13LHMFKAAD@?$AAM@    10021364     OposVariant.obj
 0002:00000368       ??_C@_13MKMNOPIJ@?$AAD@    10021368     OposVariant.obj
 0002:0000036c       ??_C@_13OPKGLAFF@?$AAB@    1002136c     OposVariant.obj
 0002:00000370       ??_C@_17LLMMEOJD@?$AAV?$AAa?$AAl@ 10021370     OposVariant.obj
 0002:00000378       ??_C@_1BI@JFAIJMHL@?$AAF?$AAo?$AAr?$AAc?$AAe?$AAR?$AAe?$AAm?$AAo?$AAv?$AAe@ 10021378     OposVariant.obj
 0002:00000390       ??_C@_1BC@GCKHIPE@?$AAN?$AAo?$AAR?$AAe?$AAm?$AAo?$AAv?$AAe@ 10021390     OposVariant.obj
 0002:000003a4       ??_C@_1O@JDLOHAN@?$AAD?$AAe?$AAl?$AAe?$AAt?$AAe@ 100213a4     OposVariant.obj
 0002:000003b4       ??_C@_11LOCGONAA@@         100213b4     OposVariant.obj
 0002:000003b8       ??_7CComClassFactory@ATL@@6B@ 100213b8     FiscalPrinter.obj
 0002:000003d0       ?_entries@?1??_GetEntries@CComClassFactory@ATL@@SGPBU_ATL_INTMAP_ENTRY@3@XZ@4QBU43@B 100213d0     FiscalPrinter.obj
 0002:000003e8       __GUID_00000001_0000_0000_c000_000000000046 100213e8     FiscalPrinter.obj
 0002:000003f8       __GUID_00020412_0000_0000_c000_000000000046 100213f8     FiscalPrinter.obj
 0002:00000408       __GUID_00020401_0000_0000_c000_000000000046 10021408     FiscalPrinter.obj
 0002:00000418       _IID_IOPOSFiscalPrinter_1_6 10021418     FiscalPrinter.obj
 0002:00000428       ??_7?$CComObject@V?$CComEnum@UIEnumConnections@@$1?_GUID_b196b287_bab4_101a_b69c_00aa00341d07@@3U__s_GUID@@BUtagCONNECTDATA@@V?$_Copy@UtagCONNECTDATA@@@ATL@@VCComSingleThreadModel@6@@ATL@@@ATL@@6B@ 10021428     FiscalPrinter.obj
 0002:00000448       __GUID_00000114_0000_0000_c000_000000000046 10021448     FiscalPrinter.obj
 0002:00000458       ??_C@_1BK@BIGILECK@?$AAA?$AAd?$AAv?$AAa?$AAp?$AAi?$AA3?$AA2?$AA?4?$AAd?$AAl?$AAl@ 10021458     FiscalPrinter.obj
 0002:00000474       ?_entries@?1??_GetEntries@?$CComEnum@UIEnumConnections@@$1?_GUID_b196b287_bab4_101a_b69c_00aa00341d07@@3U__s_GUID@@BUtagCONNECTDATA@@V?$_Copy@UtagCONNECTDATA@@@ATL@@VCComSingleThreadModel@6@@ATL@@SGPBU_ATL_INTMAP_ENTRY@3@XZ@4QBU43@B 10021474     FiscalPrinter.obj
 0002:0000048c       ??_C@_0BI@MNCFCPFK@RegCreateKeyTransactedW@ 1002148c     FiscalPrinter.obj
 0002:000004a4       __GUID_b196b287_bab4_101a_b69c_00aa00341d07 100214a4     FiscalPrinter.obj
 0002:000004b4       __GUID_b196b285_bab4_101a_b69c_00aa00341d07 100214b4     FiscalPrinter.obj
 0002:000004c4       __GUID_a6bc3ac0_dbaa_11ce_9de3_00aa004bb851 100214c4     FiscalPrinter.obj
 0002:000004d4       _IID_IOPOSFiscalPrinter_1_8 100214d4     FiscalPrinter.obj
 0002:000004e4       __GUID_0000010c_0000_0000_c000_000000000046 100214e4     FiscalPrinter.obj
 0002:000004f4       _IID_IOPOSFiscalPrinter_1_9 100214f4     FiscalPrinter.obj
 0002:00000504       _IID_IOPOSFiscalPrinter_1_11 10021504     FiscalPrinter.obj
 0002:00000514       __GUID_00000146_0000_0000_c000_000000000046 10021514     FiscalPrinter.obj
 0002:00000524       _IID_IOPOSFiscalPrinter_1_12 10021524     FiscalPrinter.obj
 0002:00000534       _IID_IOPOSFiscalPrinter    10021534     FiscalPrinter.obj
 0002:00000544       _LIBID_OposFiscalPrinter_CCO 10021544     FiscalPrinter.obj
 0002:00000554       _DIID__IOPOSFiscalPrinterEvents 10021554     FiscalPrinter.obj
 0002:00000564       _CLSID_OPOSFiscalPrinter   10021564     FiscalPrinter.obj
 0002:00000574       ??_7CComModule@ATL@@6B@    10021574     FiscalPrinter.obj
 0002:0000059c       __GUID_922eada0_3424_11cf_b670_00aa004cd6d8 1002159c     FiscalPrinter.obj
 0002:000005ac       __GUID_9c2cad80_3424_11cf_b670_00aa004cd6d8 100215ac     FiscalPrinter.obj
 0002:000005bc       __GUID_00000119_0000_0000_c000_000000000046 100215bc     FiscalPrinter.obj
 0002:000005cc       __GUID_b196b289_bab4_101a_b69c_00aa00341d07 100215cc     FiscalPrinter.obj
 0002:000005dc       __GUID_00000000_0000_0000_c000_000000000046 100215dc     FiscalPrinter.obj
 0002:000005ec       __GUID_00020400_0000_0000_c000_000000000046 100215ec     FiscalPrinter.obj
 0002:000005fc       __GUID_00000117_0000_0000_c000_000000000046 100215fc     FiscalPrinter.obj
 0002:0000060c       ??_C@_1M@KANJNLFF@?$AAC?$AAL?$AAS?$AAI?$AAD@ 1002160c     FiscalPrinter.obj
 0002:00000618       ??_C@_1M@EJNEECMJ@?$AAA?$AAp?$AAp?$AAI?$AAD@ 10021618     FiscalPrinter.obj
 0002:00000624       __GUID_0000010e_0000_0000_c000_000000000046 10021624     FiscalPrinter.obj
 0002:00000634       __GUID_b196b288_bab4_101a_b69c_00aa00341d07 10021634     FiscalPrinter.obj
 0002:00000644       ?rgszNeverDelete@CRegParser@ATL@@1QBQB_WB 10021644     FiscalPrinter.obj
 0002:00000674       ??_7CRegObject@ATL@@6B@    10021674     FiscalPrinter.obj
 0002:0000068c       __GUID_00000113_0000_0000_c000_000000000046 1002168c     FiscalPrinter.obj
 0002:000006a0       ?_entries@?1??_GetEntries@COPOSFiscalPrinter@@SGPBU_ATL_INTMAP_ENTRY@ATL@@XZ@4QBU34@B 100216a0     FiscalPrinter.obj
 0002:000007f0       __GUID_1c2056cc_5ef4_101b_8bc8_00aa003e3b29 100217f0     FiscalPrinter.obj
 0002:00000800       __GUID_cf51ed10_62fe_11cf_bf86_00a0c9034836 10021800     FiscalPrinter.obj
 0002:00000810       __GUID_0000010a_0000_0000_c000_000000000046 10021810     FiscalPrinter.obj
 0002:00000820       __GUID_b196b283_bab4_101a_b69c_00aa00341d07 10021820     FiscalPrinter.obj
 0002:00000830       __GUID_cb5bdc81_93c1_11cf_8f20_00805f2cd064 10021830     FiscalPrinter.obj
 0002:00000840       ?pPropMap@?1??GetPropertyMap@COPOSFiscalPrinter@@SAPBUATL_PROPMAP_ENTRY@ATL@@XZ@4QBU34@B 10021840     FiscalPrinter.obj
 0002:000008ac       ??_C@_17DGDADEHL@?$AA_?$AAc?$AAx@ 100218ac     FiscalPrinter.obj
 0002:000008b4       ??_C@_17IOIMFDBO@?$AA_?$AAc?$AAy@ 100218b4     FiscalPrinter.obj
 0002:000008bc       ??_C@_1CK@OEKPKBNA@?$AAC?$AAo?$AAm?$AAp?$AAo?$AAn?$AAe?$AAn?$AAt?$AA?5?$AAC?$AAa?$AAt?$AAe?$AAg@ 100218bc     FiscalPrinter.obj
 0002:000008e8       ??_C@_1BC@NKMMNMGL@?$AAF?$AAi?$AAl?$AAe?$AAT?$AAy?$AAp?$AAe@ 100218e8     FiscalPrinter.obj
 0002:000008fc       ??_C@_1BE@EKPAFMCP@?$AAI?$AAn?$AAt?$AAe?$AAr?$AAf?$AAa?$AAc?$AAe@ 100218fc     FiscalPrinter.obj
 0002:00000910       ??_C@_1BC@MAICEHGI@?$AAH?$AAa?$AAr?$AAd?$AAw?$AAa?$AAr?$AAe@ 10021910     FiscalPrinter.obj
 0002:00000924       ??_C@_19HLLLM@?$AAM?$AAi?$AAm?$AAe@ 10021924     FiscalPrinter.obj
 0002:00000930       ??_C@_17OMAOINJK@?$AAS?$AAA?$AAM@ 10021930     FiscalPrinter.obj
 0002:00000938       ??_C@_1BC@IBECJAAI@?$AAS?$AAE?$AAC?$AAU?$AAR?$AAI?$AAT?$AAY@ 10021938     FiscalPrinter.obj
 0002:0000094c       ??_C@_1O@GBFINDKL@?$AAS?$AAY?$AAS?$AAT?$AAE?$AAM@ 1002194c     FiscalPrinter.obj
 0002:0000095c       ??_C@_1BC@EAHCMADO@?$AAS?$AAo?$AAf?$AAt?$AAw?$AAa?$AAr?$AAe@ 1002195c     FiscalPrinter.obj
 0002:00000970       ??_C@_1BA@JIHHIEDE@?$AAT?$AAy?$AAp?$AAe?$AAL?$AAi?$AAb@ 10021970     FiscalPrinter.obj
 0002:00000980       ?map@?1??HKeyFromString@CRegParser@ATL@@KAPAUHKEY__@@PA_W@Z@4QBUkeymap@?1??123@KAPAU4@0@Z@B 10021980     FiscalPrinter.obj
 0002:000009f0       ??_C@_19NCHLBIN@?$AAH?$AAK?$AAC?$AAR@ 100219f0     FiscalPrinter.obj
 0002:000009fc       ??_C@_19JAPAIJDE@?$AAH?$AAK?$AAC?$AAU@ 100219fc     FiscalPrinter.obj
 0002:00000a08       ??_C@_19PEALEEJB@?$AAH?$AAK?$AAL?$AAM@ 10021a08     FiscalPrinter.obj
 0002:00000a14       ??_C@_17PJOJPMPB@?$AAH?$AAK?$AAU@ 10021a14     FiscalPrinter.obj
 0002:00000a1c       ??_C@_19PNBHMJPL@?$AAH?$AAK?$AAP?$AAD@ 10021a1c     FiscalPrinter.obj
 0002:00000a28       ??_C@_19GFFAIJHG@?$AAH?$AAK?$AAD?$AAD@ 10021a28     FiscalPrinter.obj
 0002:00000a34       ??_C@_19OFICIBHH@?$AAH?$AAK?$AAC?$AAC@ 10021a34     FiscalPrinter.obj
 0002:00000a40       ??_C@_1CE@PACHPJFI@?$AAH?$AAK?$AAE?$AAY?$AA_?$AAC?$AAL?$AAA?$AAS?$AAS?$AAE?$AAS?$AA_?$AAR?$AAO@ 10021a40     FiscalPrinter.obj
 0002:00000a64       ??_C@_1CE@HLHNCBPM@?$AAH?$AAK?$AAE?$AAY?$AA_?$AAC?$AAU?$AAR?$AAR?$AAE?$AAN?$AAT?$AA_?$AAU?$AAS@ 10021a64     FiscalPrinter.obj
 0002:00000a88       ??_C@_1CG@GFBEANJL@?$AAH?$AAK?$AAE?$AAY?$AA_?$AAL?$AAO?$AAC?$AAA?$AAL?$AA_?$AAM?$AAA?$AAC?$AAH@ 10021a88     FiscalPrinter.obj
 0002:00000ab0       ??_C@_1BG@BGODANIO@?$AAH?$AAK?$AAE?$AAY?$AA_?$AAU?$AAS?$AAE?$AAR?$AAS@ 10021ab0     FiscalPrinter.obj
 0002:00000ac8       ??_C@_1CM@KHNNAOIC@?$AAH?$AAK?$AAE?$AAY?$AA_?$AAP?$AAE?$AAR?$AAF?$AAO?$AAR?$AAM?$AAA?$AAN?$AAC@ 10021ac8     FiscalPrinter.obj
 0002:00000af4       ??_C@_1BM@HAGMMHIA@?$AAH?$AAK?$AAE?$AAY?$AA_?$AAD?$AAY?$AAN?$AA_?$AAD?$AAA?$AAT?$AAA@ 10021af4     FiscalPrinter.obj
 0002:00000b10       ??_C@_1CI@BBJOACGG@?$AAH?$AAK?$AAE?$AAY?$AA_?$AAC?$AAU?$AAR?$AAR?$AAE?$AAN?$AAT?$AA_?$AAC?$AAO@ 10021b10     FiscalPrinter.obj
 0002:00000b38       __GUID_00000112_0000_0000_c000_000000000046 10021b38     FiscalPrinter.obj
 0002:00000b48       __GUID_00000109_0000_0000_c000_000000000046 10021b48     FiscalPrinter.obj
 0002:00000b58       __GUID_7fd52380_4e07_101b_ae2d_08002b2ec713 10021b58     FiscalPrinter.obj
 0002:00000b68       ??_7?$CComObjectCached@VCComClassFactory@ATL@@@ATL@@6B@ 10021b68     FiscalPrinter.obj
 0002:00000b80       __GUID_3af24292_0c96_11ce_a0cf_00aa00600ab8 10021b80     FiscalPrinter.obj
 0002:00000b90       __GUID_00000127_0000_0000_c000_000000000046 10021b90     FiscalPrinter.obj
 0002:00000ba0       __GUID_0000010d_0000_0000_c000_000000000046 10021ba0     FiscalPrinter.obj
 0002:00000bb0       ??_C@_1CE@PGFMOFKI@?$AAS?$AAt?$AAa?$AAt?$AAu?$AAs?$AAU?$AAp?$AAd?$AAa?$AAt?$AAe?$AAE?$AAv?$AAe@ 10021bb0     FiscalPrinter.obj
 0002:00000bd4       ??_C@_1CI@HLBJDONE@?$AAO?$AAu?$AAt?$AAp?$AAu?$AAt?$AAC?$AAo?$AAm?$AAp?$AAl?$AAe?$AAt?$AAe?$AAE@ 10021bd4     FiscalPrinter.obj
 0002:00000bfc       ??_C@_1BG@LODEBHDD@?$AAE?$AAr?$AAr?$AAo?$AAr?$AAE?$AAv?$AAe?$AAn?$AAt@ 10021bfc     FiscalPrinter.obj
 0002:00000c14       ??_C@_1BM@CBGEBBBJ@?$AAD?$AAi?$AAr?$AAe?$AAc?$AAt?$AAI?$AAO?$AAE?$AAv?$AAe?$AAn?$AAt@ 10021c14     FiscalPrinter.obj
 0002:00000c30       __GUID_b196b286_bab4_101a_b69c_00aa00341d07 10021c30     FiscalPrinter.obj
 0002:00000c40       ??_C@_1EA@NHKLICFA@?$AAH?$AAK?$AAC?$AAU?$AA?$AN?$AA?6?$AA?$HL?$AA?7?$AAS?$AAo?$AAf?$AAt?$AAw?$AAa?$AAr@ 10021c40     FiscalPrinter.obj
 0002:00000c80       ??_C@_1BE@LJOLIMEM@?$AA?$AN?$AA?6?$AA?7?$AA?$HN?$AA?$AN?$AA?6?$AA?$HN?$AA?$AN?$AA?6@ 10021c80     FiscalPrinter.obj
 0002:00000c94       ??_C@_1BC@ENICKDH@?$AAC?$AAo?$AAn?$AAt?$AAe?$AAn?$AAt?$AAs@ 10021c94     FiscalPrinter.obj
 0002:00000ca8       ??_C@_1O@MNLDABAF@?$AAM?$AAo?$AAd?$AAu?$AAl?$AAe@ 10021ca8     FiscalPrinter.obj
 0002:00000cb8       ??_C@_1BG@JBACFMF@?$AAM?$AAo?$AAd?$AAu?$AAl?$AAe?$AA_?$AAR?$AAa?$AAw@ 10021cb8     FiscalPrinter.obj
 0002:00000cd0       ??_C@_1BC@KAILKFFG@?$AAR?$AAE?$AAG?$AAI?$AAS?$AAT?$AAR?$AAY@ 10021cd0     FiscalPrinter.obj
 0002:00000ce4       ??_7?$CComObject@V?$CComEnum@UIEnumConnectionPoints@@$1?_GUID_b196b285_bab4_101a_b69c_00aa00341d07@@3U__s_GUID@@BPAUIConnectionPoint@@V?$_CopyInterface@UIConnectionPoint@@@ATL@@VCComSingleThreadModel@6@@ATL@@@ATL@@6B@ 10021ce4     FiscalPrinter.obj
 0002:00000d04       ??_C@_1O@GBFKGNEO@?$AAA?$AAT?$AAL?$AA?3?$AA?$CF?$AAp@ 10021d04     FiscalPrinter.obj
 0002:00000d14       ??_C@_1BA@PICGEGJB@?$AAD?$AAI?$AAS?$AAP?$AAL?$AAA?$AAY@ 10021d14     FiscalPrinter.obj
 0002:00000d24       __GUID_9bfbbc02_eff1_101a_84ed_00aa00341d07 10021d24     FiscalPrinter.obj
 0002:00000d34       __GUID_b196b284_bab4_101a_b69c_00aa00341d07 10021d34     FiscalPrinter.obj
 0002:00000d44       ??_C@_1M@PPPPCDEP@?$AAA?$AAP?$AAP?$AAI?$AAD@ 10021d44     FiscalPrinter.obj
 0002:00000d50       ??_7?$CComContainedObject@VCOPOSFiscalPrinter@@@ATL@@6B?$IDispatchImpl@UIOPOSFiscalPrinter@@$1?IID_IOPOSFiscalPrinter@@3U_GUID@@B$1?LIBID_OposFiscalPrinter_CCO@@3U3@B$00$0A@VCComTypeInfoHolder@ATL@@@1@@ 10021d50     FiscalPrinter.obj
 0002:000010e8       ??_7?$CComContainedObject@VCOPOSFiscalPrinter@@@ATL@@6BCComControlBase@1@@ 100220e8     FiscalPrinter.obj
 0002:000010fc       ??_7?$CComContainedObject@VCOPOSFiscalPrinter@@@ATL@@6B?$CWindowImpl@VCOPOSFiscalPrinter@@VCWindow@ATL@@V?$CWinTraits@$0FGAAAAAA@$0A@@3@@1@@ 100220fc     FiscalPrinter.obj
 0002:0000110c       ??_7?$CComContainedObject@VCOPOSFiscalPrinter@@@ATL@@6B?$IPersistStreamInitImpl@VCOPOSFiscalPrinter@@@1@@ 1002210c     FiscalPrinter.obj
 0002:00001130       ??_7?$CComContainedObject@VCOPOSFiscalPrinter@@@ATL@@6B?$IOleControlImpl@VCOPOSFiscalPrinter@@@1@@ 10022130     FiscalPrinter.obj
 0002:0000114c       ??_7?$CComContainedObject@VCOPOSFiscalPrinter@@@ATL@@6B?$IOleObjectImpl@VCOPOSFiscalPrinter@@@1@@ 1002214c     FiscalPrinter.obj
 0002:000011ac       ??_7?$CComContainedObject@VCOPOSFiscalPrinter@@@ATL@@6B?$IOleInPlaceActiveObjectImpl@VCOPOSFiscalPrinter@@@1@@ 100221ac     FiscalPrinter.obj
 0002:000011d4       ??_7?$CComContainedObject@VCOPOSFiscalPrinter@@@ATL@@6B?$IViewObjectExImpl@VCOPOSFiscalPrinter@@@1@@ 100221d4     FiscalPrinter.obj
 0002:00001210       ??_7?$CComContainedObject@VCOPOSFiscalPrinter@@@ATL@@6B?$IOleInPlaceObjectWindowlessImpl@VCOPOSFiscalPrinter@@@1@@ 10022210     FiscalPrinter.obj
 0002:0000123c       ??_7?$CComContainedObject@VCOPOSFiscalPrinter@@@ATL@@6B?$IConnectionPointContainerImpl@VCOPOSFiscalPrinter@@@1@@ 1002223c     FiscalPrinter.obj
 0002:00001250       ??_7?$CComContainedObject@VCOPOSFiscalPrinter@@@ATL@@6B?$IPersistStorageImpl@VCOPOSFiscalPrinter@@@1@@ 10022250     FiscalPrinter.obj
 0002:00001278       ??_7?$CComContainedObject@VCOPOSFiscalPrinter@@@ATL@@6B?$ISpecifyPropertyPagesImpl@VCOPOSFiscalPrinter@@@1@@ 10022278     FiscalPrinter.obj
 0002:00001288       ??_7?$CComContainedObject@VCOPOSFiscalPrinter@@@ATL@@6B?$IQuickActivateImpl@VCOPOSFiscalPrinter@@@1@@ 10022288     FiscalPrinter.obj
 0002:000012a0       ??_7?$CComContainedObject@VCOPOSFiscalPrinter@@@ATL@@6B?$IDataObjectImpl@VCOPOSFiscalPrinter@@@1@@ 100222a0     FiscalPrinter.obj
 0002:000012d0       ??_7?$CComContainedObject@VCOPOSFiscalPrinter@@@ATL@@6B?$IProvideClassInfo2Impl@$1?CLSID_OPOSFiscalPrinter@@3U_GUID@@B$1?DIID__IOPOSFiscalPrinterEvents@@3U2@B$1?LIBID_OposFiscalPrinter_CCO@@3U2@B$00$0A@VCComTypeInfoHolder@ATL@@@1@@ 100222d0     FiscalPrinter.obj
 0002:000012e4       ??_7?$CComContainedObject@VCOPOSFiscalPrinter@@@ATL@@6B?$IObjectSafetyImpl@VCOPOSFiscalPrinter@@$02@1@@ 100222e4     FiscalPrinter.obj
 0002:000012fc       ??_7?$CComContainedObject@VCOPOSFiscalPrinter@@@ATL@@6B?$IPropertyNotifySinkCP@VCOPOSFiscalPrinter@@VCComDynamicUnkArray@ATL@@@1@@ 100222fc     FiscalPrinter.obj
 0002:0000131c       ??_7?$CComContainedObject@VCOPOSFiscalPrinter@@@ATL@@6B?$CProxy_IOPOSEvents@VCOPOSFiscalPrinter@@@@@ 1002231c     FiscalPrinter.obj
 0002:0000133c       ??_7?$CComAggObject@VCOPOSFiscalPrinter@@@ATL@@6B@ 1002233c     FiscalPrinter.obj
 0002:0000134c       ??_7?$CComObject@VCOPOSFiscalPrinter@@@ATL@@6B?$IDispatchImpl@UIOPOSFiscalPrinter@@$1?IID_IOPOSFiscalPrinter@@3U_GUID@@B$1?LIBID_OposFiscalPrinter_CCO@@3U3@B$00$0A@VCComTypeInfoHolder@ATL@@@1@@ 1002234c     FiscalPrinter.obj
 0002:000016e4       ??_7?$CComObject@VCOPOSFiscalPrinter@@@ATL@@6BCComControlBase@1@@ 100226e4     FiscalPrinter.obj
 0002:000016f8       ??_7?$CComObject@VCOPOSFiscalPrinter@@@ATL@@6B?$CWindowImpl@VCOPOSFiscalPrinter@@VCWindow@ATL@@V?$CWinTraits@$0FGAAAAAA@$0A@@3@@1@@ 100226f8     FiscalPrinter.obj
 0002:00001708       ??_7?$CComObject@VCOPOSFiscalPrinter@@@ATL@@6B?$IPersistStreamInitImpl@VCOPOSFiscalPrinter@@@1@@ 10022708     FiscalPrinter.obj
 0002:0000172c       ??_7?$CComObject@VCOPOSFiscalPrinter@@@ATL@@6B?$IOleControlImpl@VCOPOSFiscalPrinter@@@1@@ 1002272c     FiscalPrinter.obj
 0002:00001748       ??_7?$CComObject@VCOPOSFiscalPrinter@@@ATL@@6B?$IOleObjectImpl@VCOPOSFiscalPrinter@@@1@@ 10022748     FiscalPrinter.obj
 0002:000017a8       ??_7?$CComObject@VCOPOSFiscalPrinter@@@ATL@@6B?$IOleInPlaceActiveObjectImpl@VCOPOSFiscalPrinter@@@1@@ 100227a8     FiscalPrinter.obj
 0002:000017d0       ??_7?$CComObject@VCOPOSFiscalPrinter@@@ATL@@6B?$IViewObjectExImpl@VCOPOSFiscalPrinter@@@1@@ 100227d0     FiscalPrinter.obj
 0002:0000180c       ??_7?$CComObject@VCOPOSFiscalPrinter@@@ATL@@6B?$IOleInPlaceObjectWindowlessImpl@VCOPOSFiscalPrinter@@@1@@ 1002280c     FiscalPrinter.obj
 0002:00001838       ??_7?$CComObject@VCOPOSFiscalPrinter@@@ATL@@6B?$IConnectionPointContainerImpl@VCOPOSFiscalPrinter@@@1@@ 10022838     FiscalPrinter.obj
 0002:0000184c       ??_7?$CComObject@VCOPOSFiscalPrinter@@@ATL@@6B?$IPersistStorageImpl@VCOPOSFiscalPrinter@@@1@@ 1002284c     FiscalPrinter.obj
 0002:00001874       ??_7?$CComObject@VCOPOSFiscalPrinter@@@ATL@@6B?$ISpecifyPropertyPagesImpl@VCOPOSFiscalPrinter@@@1@@ 10022874     FiscalPrinter.obj
 0002:00001884       ??_7?$CComObject@VCOPOSFiscalPrinter@@@ATL@@6B?$IQuickActivateImpl@VCOPOSFiscalPrinter@@@1@@ 10022884     FiscalPrinter.obj
 0002:0000189c       ??_7?$CComObject@VCOPOSFiscalPrinter@@@ATL@@6B?$IDataObjectImpl@VCOPOSFiscalPrinter@@@1@@ 1002289c     FiscalPrinter.obj
 0002:000018cc       ??_7?$CComObject@VCOPOSFiscalPrinter@@@ATL@@6B?$IProvideClassInfo2Impl@$1?CLSID_OPOSFiscalPrinter@@3U_GUID@@B$1?DIID__IOPOSFiscalPrinterEvents@@3U2@B$1?LIBID_OposFiscalPrinter_CCO@@3U2@B$00$0A@VCComTypeInfoHolder@ATL@@@1@@ 100228cc     FiscalPrinter.obj
 0002:000018e0       ??_7?$CComObject@VCOPOSFiscalPrinter@@@ATL@@6B?$IObjectSafetyImpl@VCOPOSFiscalPrinter@@$02@1@@ 100228e0     FiscalPrinter.obj
 0002:000018f8       ??_7?$CComObject@VCOPOSFiscalPrinter@@@ATL@@6B?$IPropertyNotifySinkCP@VCOPOSFiscalPrinter@@VCComDynamicUnkArray@ATL@@@1@@ 100228f8     FiscalPrinter.obj
 0002:00001918       ??_7?$CComObject@VCOPOSFiscalPrinter@@@ATL@@6B?$CProxy_IOPOSEvents@VCOPOSFiscalPrinter@@@@@ 10022918     FiscalPrinter.obj
 0002:00001938       __GUID_55980ba0_35aa_11cf_b671_00aa004cd6d8 10022938     FiscalPrinter.obj
 0002:00001948       __GUID_b196b28b_bab4_101a_b69c_00aa00341d07 10022948     FiscalPrinter.obj
 0002:00001958       ?_entries@?1??_GetEntries@?$CComEnum@UIEnumConnectionPoints@@$1?_GUID_b196b285_bab4_101a_b69c_00aa00341d07@@3U__s_GUID@@BPAUIConnectionPoint@@V?$_CopyInterface@UIConnectionPoint@@@ATL@@VCComSingleThreadModel@6@@ATL@@SGPBU_ATL_INTMAP_ENTRY@3@XZ@4QBU43@B 10022958     FiscalPrinter.obj
 0002:00001970       ??_C@_0BG@EKFFMJIO@RegOpenKeyTransactedW@ 10022970     FiscalPrinter.obj
 0002:00001988       ??_C@_0BI@HAKLOOGP@RegDeleteKeyTransactedW@ 10022988     FiscalPrinter.obj
 0002:000019a0       ??_C@_0BA@LILAPHGE@RegDeleteKeyExW@ 100229a0     FiscalPrinter.obj
 0002:000019b0       ??_C@_19ILOCMLCJ@?$AA?4?$AAt?$AAl?$AAb@ 100229b0     FiscalPrinter.obj
 0002:000019bc       __GUID_0002e012_0000_0000_c000_000000000046 100229bc     FiscalPrinter.obj
 0002:000019cc       ??_C@_1O@FHBGLCIO@?$AAC?$AAL?$AAS?$AAI?$AAD?$AA?2@ 100229cc     FiscalPrinter.obj
 0002:000019dc       ??_C@_1CK@IFBKBFAA@?$AA?2?$AAR?$AAe?$AAq?$AAu?$AAi?$AAr?$AAe?$AAd?$AA?5?$AAC?$AAa?$AAt?$AAe?$AAg@ 100229dc     FiscalPrinter.obj
 0002:00001a08       ??_C@_1DA@BIHALFED@?$AA?2?$AAI?$AAm?$AAp?$AAl?$AAe?$AAm?$AAe?$AAn?$AAt?$AAe?$AAd?$AA?5?$AAC?$AAa@ 10022a08     FiscalPrinter.obj
 0002:00001a38       ??_C@_1BK@EDKOLFBJ@?$AAO?$AAL?$AAE?$AAA?$AAU?$AAT?$AA3?$AA2?$AA?4?$AAD?$AAL?$AAL@ 10022a38     FiscalPrinter.obj
 0002:00001a54       ??_C@_0BJ@CNLFOMHB@UnRegisterTypeLibForUser@ 10022a54     FiscalPrinter.obj
 0002:00001a70       ??_C@_0BH@LBOMMKPJ@RegisterTypeLibForUser@ 10022a70     FiscalPrinter.obj
 0002:00001a88       ??_C@_0P@MMNMMLGK@COFreezeEvents@ 10022a88     FiscalPrinterImpl.obj
 0002:00001a98       ??_C@_0BC@OGCGGIMP@GetPropertyNumber@ 10022a98     FiscalPrinterImpl.obj
 0002:00001aac       ??_C@_0BC@MDCNODNB@SetPropertyNumber@ 10022aac     FiscalPrinterImpl.obj
 0002:00001ac0       ??_C@_0BC@CFCCMIMD@GetPropertyString@ 10022ac0     FiscalPrinterImpl.obj
 0002:00001ad4       ??_C@_0BC@CJEDNN@SetPropertyString@ 10022ad4     FiscalPrinterImpl.obj
 0002:00001ae8       ??_C@_0M@LNPKKKDA@OpenService@ 10022ae8     FiscalPrinterImpl.obj
 0002:00001af4       ??_C@_0M@PCMCHHMH@CheckHealth@ 10022af4     FiscalPrinterImpl.obj
 0002:00001b00       ??_C@_0M@JGMIDNEK@ClaimDevice@ 10022b00     FiscalPrinterImpl.obj
 0002:00001b0c       ??_C@_0M@JMBCPNGJ@ClearOutput@ 10022b0c     FiscalPrinterImpl.obj
 0002:00001b18       ??_C@_0N@DDFIIBMP@CloseService@ 10022b18     FiscalPrinterImpl.obj
 0002:00001b28       ??_C@_08EEIHICPC@DirectIO@ 10022b28     FiscalPrinterImpl.obj
 0002:00001b34       ??_C@_0O@BCPMENMJ@ReleaseDevice@ 10022b34     FiscalPrinterImpl.obj
 0002:00001b44       ??_C@_0BE@JANCNHPE@BeginFiscalDocument@ 10022b44     FiscalPrinterImpl.obj
 0002:00001b58       ??_C@_0BD@GBEECMFN@BeginFiscalReceipt@ 10022b58     FiscalPrinterImpl.obj
 0002:00001b6c       ??_C@_0BB@DHHHDLMN@BeginFixedOutput@ 10022b6c     FiscalPrinterImpl.obj
 0002:00001b80       ??_C@_0P@DPMKPLAE@BeginInsertion@ 10022b80     FiscalPrinterImpl.obj
 0002:00001b90       ??_C@_0O@NEDEPHBK@BeginItemList@ 10022b90     FiscalPrinterImpl.obj
 0002:00001ba0       ??_C@_0P@FPKCHCGB@BeginNonFiscal@ 10022ba0     FiscalPrinterImpl.obj
 0002:00001bb0       ??_C@_0N@PCJLGBKP@BeginRemoval@ 10022bb0     FiscalPrinterImpl.obj
 0002:00001bc0       ??_C@_0O@OOBKDAGL@BeginTraining@ 10022bc0     FiscalPrinterImpl.obj
 0002:00001bd0       ??_C@_0L@CCHIKHMB@ClearError@ 10022bd0     FiscalPrinterImpl.obj
 0002:00001bdc       ??_C@_0BC@NOJPFHPM@EndFiscalDocument@ 10022bdc     FiscalPrinterImpl.obj
 0002:00001bf0       ??_C@_0BB@CIEHHALP@EndFiscalReceipt@ 10022bf0     FiscalPrinterImpl.obj
 0002:00001c04       ??_C@_0P@JMPICPNM@EndFixedOutput@ 10022c04     FiscalPrinterImpl.obj
 0002:00001c14       ??_C@_0N@MIHLNKHM@EndInsertion@ 10022c14     FiscalPrinterImpl.obj
 0002:00001c24       ??_C@_0M@HECNCIO@EndItemList@ 10022c24     FiscalPrinterImpl.obj
 0002:00001c30       ??_C@_0N@KIBDFDBJ@EndNonFiscal@ 10022c30     FiscalPrinterImpl.obj
 0002:00001c40       ??_C@_0L@FCEKAOMI@EndRemoval@ 10022c40     FiscalPrinterImpl.obj
 0002:00001c4c       ??_C@_0M@DNGMBFPP@EndTraining@ 10022c4c     FiscalPrinterImpl.obj
 0002:00001c58       ??_C@_07PBEPDDHC@GetData@  10022c58     FiscalPrinterImpl.obj
 0002:00001c60       ??_C@_07JFCDPGHG@GetDate@  10022c60     FiscalPrinterImpl.obj
 0002:00001c68       ??_C@_0N@EEACCMMB@GetTotalizer@ 10022c68     FiscalPrinterImpl.obj
 0002:00001c78       ??_C@_0M@CPJMAPCP@GetVatEntry@ 10022c78     FiscalPrinterImpl.obj
 0002:00001c84       ??_C@_0BG@NPPPNOBE@PrintDuplicateReceipt@ 10022c84     FiscalPrinterImpl.obj
 0002:00001c9c       ??_C@_0BI@IHDALOIG@PrintFiscalDocumentLine@ 10022c9c     FiscalPrinterImpl.obj
 0002:00001cb4       ??_C@_0BB@OJCCIGNF@PrintFixedOutput@ 10022cb4     FiscalPrinterImpl.obj
 0002:00001cc8       ??_C@_0M@KIMDMICO@PrintNormal@ 10022cc8     FiscalPrinterImpl.obj
 0002:00001cd4       ??_C@_0BK@OKPIIOE@PrintPeriodicTotalsReport@ 10022cd4     FiscalPrinterImpl.obj
 0002:00001cf0       ??_C@_0BF@KPAKIBHH@PrintPowerLossReport@ 10022cf0     FiscalPrinterImpl.obj
 0002:00001d08       ??_C@_0N@BHJEGEBP@PrintRecItem@ 10022d08     FiscalPrinterImpl.obj
 0002:00001d18       ??_C@_0BH@BFNNIPBJ@PrintRecItemAdjustment@ 10022d18     FiscalPrinterImpl.obj
 0002:00001d30       ??_C@_0BA@HILNJOGA@PrintRecMessage@ 10022d30     FiscalPrinterImpl.obj
 0002:00001d40       ??_C@_0BA@NKKDLPOK@PrintRecNotPaid@ 10022d40     FiscalPrinterImpl.obj
 0002:00001d50       ??_C@_0P@LLADOIGI@PrintRecRefund@ 10022d50     FiscalPrinterImpl.obj
 0002:00001d60       ??_C@_0BB@LKACBJKL@PrintRecSubtotal@ 10022d60     FiscalPrinterImpl.obj
 0002:00001d74       ??_C@_0BL@FMLPIPAA@PrintRecSubtotalAdjustment@ 10022d74     FiscalPrinterImpl.obj
 0002:00001d90       ??_C@_0O@NJAMDHC@PrintRecTotal@ 10022d90     FiscalPrinterImpl.obj
 0002:00001da0       ??_C@_0N@KKOEPGPP@PrintRecVoid@ 10022da0     FiscalPrinterImpl.obj
 0002:00001db0       ??_C@_0BB@EMKMGEFP@PrintRecVoidItem@ 10022db0     FiscalPrinterImpl.obj
 0002:00001dc4       ??_C@_0M@OFJEADGJ@PrintReport@ 10022dc4     FiscalPrinterImpl.obj
 0002:00001dd0       ??_C@_0N@JEIJBGJC@PrintXReport@ 10022dd0     FiscalPrinterImpl.obj
 0002:00001de0       ??_C@_0N@NGKMBBOP@PrintZReport@ 10022de0     FiscalPrinterImpl.obj
 0002:00001df0       ??_C@_0N@EEINMJEO@ResetPrinter@ 10022df0     FiscalPrinterImpl.obj
 0002:00001e00       ??_C@_07GNNCMJKH@SetDate@  10022e00     FiscalPrinterImpl.obj
 0002:00001e08       ??_C@_0O@BLMIAMAB@SetHeaderLine@ 10022e08     FiscalPrinterImpl.obj
 0002:00001e18       ??_C@_08DGMOJHGI@SetPOSID@ 10022e18     FiscalPrinterImpl.obj
 0002:00001e24       ??_C@_0BB@FPEDFGN@SetStoreFiscalID@ 10022e24     FiscalPrinterImpl.obj
 0002:00001e38       ??_C@_0P@LODFJIA@SetTrailerLine@ 10022e38     FiscalPrinterImpl.obj
 0002:00001e48       ??_C@_0M@OPOFEECH@SetVatTable@ 10022e48     FiscalPrinterImpl.obj
 0002:00001e54       ??_C@_0M@FBAFAKOA@SetVatValue@ 10022e54     FiscalPrinterImpl.obj
 0002:00001e60       ??_C@_0L@MJPGPCIH@VerifyItem@ 10022e60     FiscalPrinterImpl.obj
 0002:00001e6c       ??_C@_0N@FPDPPAJE@PrintRecCash@ 10022e6c     FiscalPrinterImpl.obj
 0002:00001e7c       ??_C@_0BB@NNFMDOML@PrintRecItemFuel@ 10022e7c     FiscalPrinterImpl.obj
 0002:00001e90       ??_C@_0BF@PDFEJOJO@PrintRecItemFuelVoid@ 10022e90     FiscalPrinterImpl.obj
 0002:00001ea8       ??_C@_0BK@EJEMIEBD@PrintRecPackageAdjustment@ 10022ea8     FiscalPrinterImpl.obj
 0002:00001ec4       ??_C@_0BK@LPINOJDE@PrintRecPackageAdjustVoid@ 10022ec4     FiscalPrinterImpl.obj
 0002:00001ee0       ??_C@_0BD@LMHMOEAB@PrintRecRefundVoid@ 10022ee0     FiscalPrinterImpl.obj
 0002:00001ef4       ??_C@_0BL@KKHOOCCH@PrintRecSubtotalAdjustVoid@ 10022ef4     FiscalPrinterImpl.obj
 0002:00001f10       ??_C@_0O@JDHFHLFJ@PrintRecTaxID@ 10022f10     FiscalPrinterImpl.obj
 0002:00001f20       ??_C@_0M@BBBLKMMB@SetCurrency@ 10022f20     FiscalPrinterImpl.obj
 0002:00001f2c       ??_C@_0BA@GFABKEEE@ResetStatistics@ 10022f2c     FiscalPrinterImpl.obj
 0002:00001f3c       ??_C@_0BD@DPALHJGC@RetrieveStatistics@ 10022f3c     FiscalPrinterImpl.obj
 0002:00001f50       ??_C@_0BB@KOHIKNFC@UpdateStatistics@ 10022f50     FiscalPrinterImpl.obj
 0002:00001f64       ??_C@_0BH@PBKBNMGB@CompareFirmwareVersion@ 10022f64     FiscalPrinterImpl.obj
 0002:00001f7c       ??_C@_0P@FBPDPIPA@UpdateFirmware@ 10022f7c     FiscalPrinterImpl.obj
 0002:00001f8c       ??_C@_0BL@MLCJICD@PrintRecItemAdjustmentVoid@ 10022f8c     FiscalPrinterImpl.obj
 0002:00001fa8       ??_C@_0BB@EDNLGNNO@PrintRecItemVoid@ 10022fa8     FiscalPrinterImpl.obj
 0002:00001fbc       ??_C@_0BD@FAEBFOHI@PrintRecItemRefund@ 10022fbc     FiscalPrinterImpl.obj
 0002:00001fd0       ??_C@_0BH@NICBCHEL@PrintRecItemRefundVoid@ 10022fd0     FiscalPrinterImpl.obj
 0002:00001fe8       ??_7?$CProxy_IOPOSEvents@VCOPOSFiscalPrinter@@@@6B@ 10022fe8     FiscalPrinterImpl.obj
 0002:00002008       ??_C@_1BA@IFHENID@?$AA?$FL?$AAE?$AAr?$AAr?$AAo?$AAr?$AA?$FN@ 10023008     FiscalPrinterImpl.obj
 0002:00002018       ??_C@_0DA@JMKLKJNP@SOFTWARE?2OLEforRetail?2ServiceOP@ 10023018     FiscalPrinterImpl.obj
 0002:00002048       ??_C@_1M@IAIJHCCH@?$AAC?$AAl?$AAo?$AAs?$AAe@ 10023048     FiscalPrinterImpl.obj
 0002:00002054       ??_C@_1M@PCPKGJAH@?$AAC?$AAl?$AAa?$AAi?$AAm@ 10023054     FiscalPrinterImpl.obj
 0002:00002060       ??_C@_1BA@NDFKIOCP@?$AAR?$AAe?$AAl?$AAe?$AAa?$AAs?$AAe@ 10023060     FiscalPrinterImpl.obj
 0002:00002070       ??_C@_0O@JAKJNEAE@FiscalPrinter@ 10023070     FiscalPrinterImpl.obj
 0002:00002080       ??_C@_1BM@IJMNMBPK@?$AAG?$AAe?$AAt?$AAO?$AAp?$AAe?$AAn?$AAR?$AAe?$AAs?$AAu?$AAl?$AAt@ 10023080     FiscalPrinterImpl.obj
 0002:0000209c       _IID_IPropertyNotifySink   1002309c     uuid:ocidl_i.obj
 0002:000020ac       _GUID_NULL                 100230ac     uuid:cguid_i.obj
 0002:000020bc       _CLSID_StdGlobalInterfaceTable 100230bc     uuid:cguid_i.obj
 0002:000020cc       _IID_IDispatch             100230cc     uuid:oaidl_i.obj
 0002:000020dc       _CLSID_StdComponentCategoriesMgr 100230dc     uuid:ieguids.obj
 0002:000020ec       _IID_IUnknown              100230ec     uuid:unknwn_i.obj
 0002:00002100       ??_C@_1EC@JIJBPKFM@?$AAa?$AAp?$AAi?$AA?9?$AAm?$AAs?$AA?9?$AAw?$AAi?$AAn?$AA?9?$AAc?$AAo?$AAr?$AAe@ 10023100     LIBCMT:thread_safe_statics.obj
 0002:00002144       ??_C@_1BK@MGMFAEKH@?$AAk?$AAe?$AAr?$AAn?$AAe?$AAl?$AA3?$AA2?$AA?4?$AAd?$AAl?$AAl@ 10023144     LIBCMT:thread_safe_statics.obj
 0002:00002160       ??_C@_0BJ@JEBJOJFJ@SleepConditionVariableCS@ 10023160     LIBCMT:thread_safe_statics.obj
 0002:0000217c       ??_C@_0BJ@PGPPEPCC@WakeAllConditionVariable@ 1002317c     LIBCMT:thread_safe_statics.obj
 0002:00002195       ?nothrow@std@@3Unothrow_t@1@B 10023195     LIBCMT:std_nothrow.obj
 0002:000021a0       __pRawDllMain              100231a0     LIBCMT:dll_dllmain.obj
 0002:000021a0       __pDefaultRawDllMain       100231a0     LIBCMT:dll_dllmain.obj
 0002:000021a8       ??_7exception@std@@6B@     100231a8     LIBCMT:throw_bad_alloc.obj
 0002:000021b0       ??_C@_0BC@EOODALEL@Unknown?5exception@ 100231b0     LIBCMT:throw_bad_alloc.obj
 0002:000021c8       ??_7bad_alloc@std@@6B@     100231c8     LIBCMT:throw_bad_alloc.obj
 0002:000021d0       ??_C@_0P@GHFPNOJB@bad?5allocation@ 100231d0     LIBCMT:throw_bad_alloc.obj
 0002:000021e4       ??_7bad_array_new_length@std@@6B@ 100231e4     LIBCMT:throw_bad_alloc.obj
 0002:000021ec       ??_C@_0BF@KINCDENJ@bad?5array?5new?5length@ 100231ec     LIBCMT:throw_bad_alloc.obj
 0002:00002208       ??_7type_info@@6B@         10023208     LIBCMT:std_type_info_static.obj
 0002:0000220c       _GUID_ATLVer110            1002320c     atls:atlbase.obj
 0002:00002220       ??_C@_1IC@ONKHOIDK@?$AAE?$AAR?$AAR?$AAO?$AAR?$AA?5?$AA?3?$AA?5?$AAU?$AAn?$AAa?$AAb?$AAl?$AAe?$AA?5@ 10023220     atls:atlbase.obj
 0002:000022a4       ??_C@_0N@FJEPLCIH@atlthunk?4dll@ 100232a4     atls:atlthunk.obj
 0002:000022b4       ??_C@_0BG@GAKFHCBM@AtlThunk_AllocateData@ 100232b4     atls:atlthunk.obj
 0002:000022cc       ??_C@_0BC@JKONFIAH@AtlThunk_InitData@ 100232cc     atls:atlthunk.obj
 0002:000022e0       ??_C@_0BE@IAOEELAK@AtlThunk_DataToCode@ 100232e0     atls:atlthunk.obj
 0002:000022f4       ??_C@_0BC@GBGKAIPI@AtlThunk_FreeData@ 100232f4     atls:atlthunk.obj
 0002:00002308       __pDestructExceptionObject 10023308     libvcruntime:ehhelpers.obj
 0002:00002310       ??_7bad_exception@std@@6B@ 10023310     libvcruntime:frame.obj
 0002:00002318       ??_C@_0O@DPKOEFFH@bad?5exception@ 10023318     libvcruntime:frame.obj
 0002:000026a8       ??_C@_08EHJDFFNH@__based?$CI@ 100236a8     libvcruntime:undname.obj
 0002:000026b4       ??_C@_07KOLFKCDI@__cdecl@  100236b4     libvcruntime:undname.obj
 0002:000026bc       ??_C@_08GHMPAG@__pascal@   100236bc     libvcruntime:undname.obj
 0002:000026c8       ??_C@_09IFJBGAPI@__stdcall@ 100236c8     libvcruntime:undname.obj
 0002:000026d4       ??_C@_0L@NPHFGOKO@__thiscall@ 100236d4     libvcruntime:undname.obj
 0002:000026e0       ??_C@_0L@JMKHOMEK@__fastcall@ 100236e0     libvcruntime:undname.obj
 0002:000026ec       ??_C@_0N@BCKKPABJ@__vectorcall@ 100236ec     libvcruntime:undname.obj
 0002:000026fc       ??_C@_09HIJEGCPM@__clrcall@ 100236fc     libvcruntime:undname.obj
 0002:00002708       ??_C@_06GHPCKEAG@__eabi@   10023708     libvcruntime:undname.obj
 0002:00002710       ??_C@_09IOPIDJLG@__swift_1@ 10023710     libvcruntime:undname.obj
 0002:0000271c       ??_C@_09KFNFGKHF@__swift_2@ 1002371c     libvcruntime:undname.obj
 0002:00002728       ??_C@_07JOMMBBKO@__ptr64@  10023728     libvcruntime:undname.obj
 0002:00002730       ??_C@_0L@PILCLIHE@__restrict@ 10023730     libvcruntime:undname.obj
 0002:0000273c       ??_C@_0M@GFIIJFMG@__unaligned@ 1002373c     libvcruntime:undname.obj
 0002:00002748       ??_C@_09DHDLOLLB@restrict?$CI@ 10023748     libvcruntime:undname.obj
 0002:00002752       ??_C@_00CNPNBAHC@@         10023752     libvcruntime:undname.obj
 0002:00002754       ??_C@_04NIHEBCM@?5new@     10023754     libvcruntime:undname.obj
 0002:0000275c       ??_C@_07FPCDHGMM@?5delete@ 1002375c     libvcruntime:undname.obj
 0002:00002764       ??_C@_01NEMOKFLO@?$DN@     10023764     libvcruntime:undname.obj
 0002:00002768       ??_C@_02GPIOPFAK@?$DO?$DO@ 10023768     libvcruntime:undname.obj
 0002:0000276c       ??_C@_02FODMEDOG@?$DM?$DM@ 1002376c     libvcruntime:undname.obj
 0002:00002770       ??_C@_01DCLJPIOD@?$CB@     10023770     libvcruntime:undname.obj
 0002:00002774       ??_C@_02EGOFBIJA@?$DN?$DN@ 10023774     libvcruntime:undname.obj
 0002:00002778       ??_C@_02FDNJECIE@?$CB?$DN@ 10023778     libvcruntime:undname.obj
 0002:0000277c       ??_C@_02GPECMEKF@?$FL?$FN@ 1002377c     libvcruntime:undname.obj
 0002:00002780       ??_C@_08LHJFAFGD@operator@ 10023780     libvcruntime:undname.obj
 0002:0000278c       ??_C@_02HBOOOICD@?9?$DO@   1002378c     libvcruntime:undname.obj
 0002:00002790       ??_C@_01NBENCBCI@?$CK@     10023790     libvcruntime:undname.obj
 0002:00002794       ??_C@_02ECNGHCIF@?$CL?$CL@ 10023794     libvcruntime:undname.obj
 0002:00002798       ??_C@_02BAABKJLB@?9?9@     10023798     libvcruntime:undname.obj
 0002:0000279c       ??_C@_01JOAMLHOP@?9@       1002379c     libvcruntime:undname.obj
 0002:000027a0       ??_C@_01MIFGBAGJ@?$CL@     100237a0     libvcruntime:undname.obj
 0002:000027a4       ??_C@_01HNPIGOCE@?$CG@     100237a4     libvcruntime:undname.obj
 0002:000027a8       ??_C@_03MNHNFDLC@?9?$DO?$CK@ 100237a8     libvcruntime:undname.obj
 0002:000027ac       ??_C@_01KMDKNFGN@?1@       100237ac     libvcruntime:undname.obj
 0002:000027b0       ??_C@_01FGNFDNOH@?$CF@     100237b0     libvcruntime:undname.obj
 0002:000027b4       ??_C@_01MNNFJEPP@?$DM@     100237b4     libvcruntime:undname.obj
 0002:000027b8       ??_C@_02EHCHHCKH@?$DM?$DN@ 100237b8     libvcruntime:undname.obj
 0002:000027bc       ??_C@_01PPODPGHN@?$DO@     100237bc     libvcruntime:undname.obj
 0002:000027c0       ??_C@_02EEKDKGMJ@?$DO?$DN@ 100237c0     libvcruntime:undname.obj
 0002:000027c4       ??_C@_01IHBHIGKO@?0@       100237c4     libvcruntime:undname.obj
 0002:000027c8       ??_C@_02HCKGKOFO@?$CI?$CJ@ 100237c8     libvcruntime:undname.obj
 0002:000027cc       ??_C@_01PJKLJHI@?$HO@      100237cc     libvcruntime:undname.obj
 0002:000027d0       ??_C@_01JKBOJNNK@?$FO@     100237d0     libvcruntime:undname.obj
 0002:000027d4       ??_C@_01DNKMNLPK@?$HM@     100237d4     libvcruntime:undname.obj
 0002:000027d8       ??_C@_02PPKAJPJL@?$CG?$CG@ 100237d8     libvcruntime:undname.obj
 0002:000027dc       ??_C@_02NONPIBCD@?$HM?$HM@ 100237dc     libvcruntime:undname.obj
 0002:000027e0       ??_C@_02FPIMKNGF@?$CK?$DN@ 100237e0     libvcruntime:undname.obj
 0002:000027e4       ??_C@_02FOEOMHFC@?$CL?$DN@ 100237e4     libvcruntime:undname.obj
 0002:000027e8       ??_C@_02FKMDLLOA@?9?$DN@   100237e8     libvcruntime:undname.obj
 0002:000027ec       ??_C@_02FJEHGPIO@?1?$DN@   100237ec     libvcruntime:undname.obj
 0002:000027f0       ??_C@_02FENAOKFI@?$CF?$DN@ 100237f0     libvcruntime:undname.obj
 0002:000027f4       ??_C@_03IKFCCPFF@?$DO?$DO?$DN@ 100237f4     libvcruntime:undname.obj
 0002:000027f8       ??_C@_03CDNPDDLA@?$DM?$DM?$DN@ 100237f8     libvcruntime:undname.obj
 0002:000027fc       ??_C@_02FGJGFEAB@?$CG?$DN@ 100237fc     libvcruntime:undname.obj
 0002:00002800       ??_C@_02DHLNPPGH@?$HM?$DN@ 10023800     libvcruntime:undname.obj
 0002:00002804       ??_C@_02MHEGNOJ@?$FO?$DN@  10023804     libvcruntime:undname.obj
 0002:00002808       ??_C@_09IFPLHPGF@?$GAvftable?8@ 10023808     libvcruntime:undname.obj
 0002:00002814       ??_C@_09BLBHBJP@?$GAvbtable?8@ 10023814     libvcruntime:undname.obj
 0002:00002820       ??_C@_07FEEIOKP@?$GAvcall?8@ 10023820     libvcruntime:undname.obj
 0002:00002828       ??_C@_08LLFFHHDJ@?$GAtypeof?8@ 10023828     libvcruntime:undname.obj
 0002:00002834       ??_C@_0BF@KDPPACIK@?$GAlocal?5static?5guard?8@ 10023834     libvcruntime:undname.obj
 0002:0000284c       ??_C@_08OBABFOLI@?$GAstring?8@ 1002384c     libvcruntime:undname.obj
 0002:00002858       ??_C@_0BD@JDLKDPAB@?$GAvbase?5destructor?8@ 10023858     libvcruntime:undname.obj
 0002:0000286c       ??_C@_0BN@DEGPLNFK@?$GAvector?5deleting?5destructor?8@ 1002386c     libvcruntime:undname.obj
 0002:0000288c       ??_C@_0BO@OBMKPJIG@?$GAdefault?5constructor?5closure?8@ 1002388c     libvcruntime:undname.obj
 0002:000028ac       ??_C@_0BN@IMDCHIKM@?$GAscalar?5deleting?5destructor?8@ 100238ac     libvcruntime:undname.obj
 0002:000028cc       ??_C@_0BO@PFGOCPJJ@?$GAvector?5constructor?5iterator?8@ 100238cc     libvcruntime:undname.obj
 0002:000028ec       ??_C@_0BN@LFPFMEDL@?$GAvector?5destructor?5iterator?8@ 100238ec     libvcruntime:undname.obj
 0002:0000290c       ??_C@_0CE@IKBNEHA@?$GAvector?5vbase?5constructor?5itera@ 1002390c     libvcruntime:undname.obj
 0002:00002930       ??_C@_0BL@NILFHHPC@?$GAvirtual?5displacement?5map?8@ 10023930     libvcruntime:undname.obj
 0002:0000294c       ??_C@_0CB@JONCMFFK@?$GAeh?5vector?5constructor?5iterator@ 1002394c     libvcruntime:undname.obj
 0002:00002970       ??_C@_0CA@GCEOPDGL@?$GAeh?5vector?5destructor?5iterator?8@ 10023970     libvcruntime:undname.obj
 0002:00002990       ??_C@_0CH@OOJPLCPH@?$GAeh?5vector?5vbase?5constructor?5it@ 10023990     libvcruntime:undname.obj
 0002:000029b8       ??_C@_0BL@LLKPOHJI@?$GAcopy?5constructor?5closure?8@ 100239b8     libvcruntime:undname.obj
 0002:000029d4       ??_C@_0BA@KBCDOMBN@?$GAudt?5returning?8@ 100239d4     libvcruntime:undname.obj
 0002:000029e4       ??_C@_03KLGMFNMG@?$GAEH@   100239e4     libvcruntime:undname.obj
 0002:000029e8       ??_C@_05KHLCHHI@?$GARTTI@  100239e8     libvcruntime:undname.obj
 0002:000029f0       ??_C@_0BA@KKLDJDLB@?$GAlocal?5vftable?8@ 100239f0     libvcruntime:undname.obj
 0002:00002a00       ??_C@_0CE@IIHCMGGL@?$GAlocal?5vftable?5constructor?5clos@ 10023a00     libvcruntime:undname.obj
 0002:00002a24       ??_C@_06FHBGPFGH@?5new?$FL?$FN@ 10023a24     libvcruntime:undname.obj
 0002:00002a2c       ??_C@_09LBNFPBCA@?5delete?$FL?$FN@ 10023a2c     libvcruntime:undname.obj
 0002:00002a38       ??_C@_0P@HJKNJFNN@?$GAomni?5callsig?8@ 10023a38     libvcruntime:undname.obj
 0002:00002a48       ??_C@_0BL@CNOONJFP@?$GAplacement?5delete?5closure?8@ 10023a48     libvcruntime:undname.obj
 0002:00002a64       ??_C@_0BN@CKNJLHMB@?$GAplacement?5delete?$FL?$FN?5closure?8@ 10023a64     libvcruntime:undname.obj
 0002:00002a84       ??_C@_0CG@CFDHKGGD@?$GAmanaged?5vector?5constructor?5ite@ 10023a84     libvcruntime:undname.obj
 0002:00002aac       ??_C@_0CF@IMGKMJNO@?$GAmanaged?5vector?5destructor?5iter@ 10023aac     libvcruntime:undname.obj
 0002:00002ad4       ??_C@_0CG@HLDDJMAG@?$GAeh?5vector?5copy?5constructor?5ite@ 10023ad4     libvcruntime:undname.obj
 0002:00002afc       ??_C@_0CM@FCBBDIGB@?$GAeh?5vector?5vbase?5copy?5construct@ 10023afc     libvcruntime:undname.obj
 0002:00002b28       ??_C@_0BL@CLIPGLGB@?$GAdynamic?5initializer?5for?5?8@ 10023b28     libvcruntime:undname.obj
 0002:00002b44       ??_C@_0CB@PDBIFEP@?$GAdynamic?5atexit?5destructor?5for?5@ 10023b44     libvcruntime:undname.obj
 0002:00002b68       ??_C@_0CD@CGAJBKEJ@?$GAvector?5copy?5constructor?5iterat@ 10023b68     libvcruntime:undname.obj
 0002:00002b8c       ??_C@_0CJ@GJELGAMM@?$GAvector?5vbase?5copy?5constructor?5@ 10023b8c     libvcruntime:undname.obj
 0002:00002bb8       ??_C@_0CL@FGIJHLCE@?$GAmanaged?5vector?5copy?5constructo@ 10023bb8     libvcruntime:undname.obj
 0002:00002be4       ??_C@_0BM@PMGGMLDN@?$GAlocal?5static?5thread?5guard?8@ 10023be4     libvcruntime:undname.obj
 0002:00002c00       ??_C@_0N@BDNMDMOL@operator?5?$CC?$CC?5@ 10023c00     libvcruntime:undname.obj
 0002:00002c10       ??_C@_0BC@GGEBGALA@operator?5co_await@ 10023c10     libvcruntime:undname.obj
 0002:00002c24       ??_C@_0M@GAAIMMOH@operator?$DM?$DN?$DO@ 10023c24     libvcruntime:undname.obj
 0002:00002c30       ??_C@_0BC@DAFEJGAK@?5Type?5Descriptor?8@ 10023c30     libvcruntime:undname.obj
 0002:00002c44       ??_C@_0BM@LDKODKLH@?5Base?5Class?5Descriptor?5at?5?$CI@ 10023c44     libvcruntime:undname.obj
 0002:00002c60       ??_C@_0BD@LGICGFMM@?5Base?5Class?5Array?8@ 10023c60     libvcruntime:undname.obj
 0002:00002c74       ??_C@_0BN@MECKDCOJ@?5Class?5Hierarchy?5Descriptor?8@ 10023c74     libvcruntime:undname.obj
 0002:00002c94       ??_C@_0BK@CFCOFLF@?5Complete?5Object?5Locator?8@ 10023c94     libvcruntime:undname.obj
 0002:00002cb0       ??_C@_0BG@JNJLAMPM@?$GAanonymous?5namespace?8@ 10023cb0     libvcruntime:undname.obj
 0002:00002cd4       ??_C@_1DM@KHCHBNEB@?$AAa?$AAp?$AAi?$AA?9?$AAm?$AAs?$AA?9?$AAw?$AAi?$AAn?$AA?9?$AAc?$AAo?$AAr?$AAe@ 10023cd4     libvcruntime:winapi_downlevel.obj
 0002:00002d10       ??_C@_1DK@LPPGFMPP@?$AAa?$AAp?$AAi?$AA?9?$AAm?$AAs?$AA?9?$AAw?$AAi?$AAn?$AA?9?$AAc?$AAo?$AAr?$AAe@ 10023d10     libvcruntime:winapi_downlevel.obj
 0002:00002d4c       ??_C@_1BC@GDMECMAK@?$AAk?$AAe?$AAr?$AAn?$AAe?$AAl?$AA3?$AA2@ 10023d4c     libvcruntime:winapi_downlevel.obj
 0002:00002d60       ??_C@_1BA@PFFKHIOG@?$AAa?$AAp?$AAi?$AA?9?$AAm?$AAs?$AA?9@ 10023d60     libvcruntime:winapi_downlevel.obj
 0002:00002d78       ??_C@_08KNHFBNJ@FlsAlloc@  10023d78     libvcruntime:winapi_downlevel.obj
 0002:00002d8c       ??_C@_07PEJMOBNF@FlsFree@  10023d8c     libvcruntime:winapi_downlevel.obj
 0002:00002d9c       ??_C@_0M@GDNOONDI@FlsGetValue@ 10023d9c     libvcruntime:winapi_downlevel.obj
 0002:00002db0       ??_C@_0M@JCPCPOEF@FlsSetValue@ 10023db0     libvcruntime:winapi_downlevel.obj
 0002:00002dc4       ??_C@_0BM@HCFOFFN@InitializeCriticalSectionEx@ 10023dc4     libvcruntime:winapi_downlevel.obj
 0002:00002f48       _format_validation_lookup_table 10023f48     libucrt:output.obj
 0002:00002fa4       ??_C@_1O@CEDCILHN@?$AA?$CI?$AAn?$AAu?$AAl?$AAl?$AA?$CJ@ 10023fa4     libucrt:output.obj
 0002:00002fb4       ??_C@_06OJHGLDPL@?$CInull?$CJ@ 10023fb4     libucrt:output.obj
 0002:00002fc0       ___acrt_exception_action_table 10023fc0     libucrt:exception_filter.obj
 0002:00003050       ___acrt_signal_action_table_count 10024050     libucrt:exception_filter.obj
 0002:00003054       ___acrt_signal_action_first_fpe_index 10024054     libucrt:exception_filter.obj
 0002:00003058       ___acrt_signal_action_fpe_count 10024058     libucrt:exception_filter.obj
 0002:0000305c       ??_C@_1BI@BGOHAHKC@?$AAm?$AAs?$AAc?$AAo?$AAr?$AAe?$AAe?$AA?4?$AAd?$AAl?$AAl@ 1002405c     libucrt:exit.obj
 0002:00003074       ??_C@_0P@MIGLKIOC@CorExitProcess@ 10024074     libucrt:exit.obj
 0002:00003158       ??_C@_1EA@JGEFHKEI@?$AAa?$AAp?$AAi?$AA?9?$AAm?$AAs?$AA?9?$AAw?$AAi?$AAn?$AA?9?$AAc?$AAo?$AAr?$AAe@ 10024158     libucrt:winapi_thunks.obj
 0002:00003198       ??_C@_1DI@IJCEHOCB@?$AAa?$AAp?$AAi?$AA?9?$AAm?$AAs?$AA?9?$AAw?$AAi?$AAn?$AA?9?$AAc?$AAo?$AAr?$AAe@ 10024198     libucrt:winapi_thunks.obj
 0002:000031d0       ??_C@_1EI@MPIAOHOC@?$AAa?$AAp?$AAi?$AA?9?$AAm?$AAs?$AA?9?$AAw?$AAi?$AAn?$AA?9?$AAc?$AAo?$AAr?$AAe@ 100241d0     libucrt:winapi_thunks.obj
 0002:00003218       ??_C@_1FK@FPHCKFIE@?$AAa?$AAp?$AAi?$AA?9?$AAm?$AAs?$AA?9?$AAw?$AAi?$AAn?$AA?9?$AAc?$AAo?$AAr?$AAe@ 10024218     libucrt:winapi_thunks.obj
 0002:00003278       ??_C@_1EM@DILCGIIO@?$AAa?$AAp?$AAi?$AA?9?$AAm?$AAs?$AA?9?$AAw?$AAi?$AAn?$AA?9?$AAc?$AAo?$AAr?$AAe@ 10024278     libucrt:winapi_thunks.obj
 0002:000032c4       ??_C@_1DM@LNCGDDPN@?$AAa?$AAp?$AAi?$AA?9?$AAm?$AAs?$AA?9?$AAw?$AAi?$AAn?$AA?9?$AAc?$AAo?$AAr?$AAe@ 100242c4     libucrt:winapi_thunks.obj
 0002:00003300       ??_C@_1DO@FPAPJEMD@?$AAa?$AAp?$AAi?$AA?9?$AAm?$AAs?$AA?9?$AAw?$AAi?$AAn?$AA?9?$AAc?$AAo?$AAr?$AAe@ 10024300     libucrt:winapi_thunks.obj
 0002:00003340       ??_C@_1DK@NDHNAHIO@?$AAa?$AAp?$AAi?$AA?9?$AAm?$AAs?$AA?9?$AAw?$AAi?$AAn?$AA?9?$AAc?$AAo?$AAr?$AAe@ 10024340     libucrt:winapi_thunks.obj
 0002:0000337c       ??_C@_1DM@KGHDGBCM@?$AAa?$AAp?$AAi?$AA?9?$AAm?$AAs?$AA?9?$AAw?$AAi?$AAn?$AA?9?$AAc?$AAo?$AAr?$AAe@ 1002437c     libucrt:winapi_thunks.obj
 0002:000033b8       ??_C@_1EO@IJIOEFOH@?$AAa?$AAp?$AAi?$AA?9?$AAm?$AAs?$AA?9?$AAw?$AAi?$AAn?$AA?9?$AAr?$AAt?$AAc?$AAo@ 100243b8     libucrt:winapi_thunks.obj
 0002:00003408       ??_C@_1FG@HHGEKANL@?$AAa?$AAp?$AAi?$AA?9?$AAm?$AAs?$AA?9?$AAw?$AAi?$AAn?$AA?9?$AAs?$AAe?$AAc?$AAu@ 10024408     libucrt:winapi_thunks.obj
 0002:00003460       ??_C@_1EG@DBIOJECG@?$AAe?$AAx?$AAt?$AA?9?$AAm?$AAs?$AA?9?$AAw?$AAi?$AAn?$AA?9?$AAn?$AAt?$AAu?$AAs@ 10024460     libucrt:winapi_thunks.obj
 0002:000034a8       ??_C@_1EO@FIHMJCLF@?$AAe?$AAx?$AAt?$AA?9?$AAm?$AAs?$AA?9?$AAw?$AAi?$AAn?$AA?9?$AAn?$AAt?$AAu?$AAs@ 100244a8     libucrt:winapi_thunks.obj
 0002:000034f8       ??_C@_1BC@DNHGCMLG@?$AAa?$AAd?$AAv?$AAa?$AAp?$AAi?$AA3?$AA2@ 100244f8     libucrt:winapi_thunks.obj
 0002:0000350c       ??_C@_1M@OAIMIKLP@?$AAn?$AAt?$AAd?$AAl?$AAl@ 1002450c     libucrt:winapi_thunks.obj
 0002:00003518       ??_C@_1EG@DPGNFKGC@?$AAa?$AAp?$AAi?$AA?9?$AAm?$AAs?$AA?9?$AAw?$AAi?$AAn?$AA?9?$AAa?$AAp?$AAp?$AAm@ 10024518     libucrt:winapi_thunks.obj
 0002:00003560       ??_C@_1O@BCCLBEOE@?$AAu?$AAs?$AAe?$AAr?$AA3?$AA2@ 10024560     libucrt:winapi_thunks.obj
 0002:00003570       ??_C@_1BA@IAIFMGEF@?$AAe?$AAx?$AAt?$AA?9?$AAm?$AAs?$AA?9@ 10024570     libucrt:winapi_thunks.obj
 0002:00003584       ??_C@_0BA@FHFNEAED@AreFileApisANSI@ 10024584     libucrt:winapi_thunks.obj
 0002:000035c4       ??_C@_0O@KKBNKAPF@LCMapStringEx@ 100245c4     libucrt:winapi_thunks.obj
 0002:000035dc       ??_C@_0BB@HBDEELFH@LocaleNameToLCID@ 100245dc     libucrt:winapi_thunks.obj
 0002:000035f4       ??_C@_0CF@OJOFEIGO@AppPolicyGetProcessTerminationM@ 100245f4     libucrt:winapi_thunks.obj
 0002:00003624       ??_C@_0BI@BKLFFAPO@SetThreadStackGuarantee@ 10024624     libucrt:winapi_thunks.obj
 0002:00003680       ??_C@_03OEIAHPBN@INF@      10024680     libucrt:cvt.obj
 0002:00003684       ??_C@_03OJHLLCGB@inf@      10024684     libucrt:cvt.obj
 0002:00003688       ??_C@_03LKNCIKJB@NAN@      10024688     libucrt:cvt.obj
 0002:0000368c       ??_C@_03LHCJEHON@nan@      1002468c     libucrt:cvt.obj
 0002:00003690       ??_C@_09OFJJIMPC@NAN?$CISNAN?$CJ@ 10024690     libucrt:cvt.obj
 0002:0000369c       ??_C@_09IPFBKMDL@nan?$CIsnan?$CJ@ 1002469c     libucrt:cvt.obj
 0002:000036a8       ??_C@_08IKHNHAJ@NAN?$CIIND?$CJ@ 100246a8     libucrt:cvt.obj
 0002:000036b4       ??_C@_08OFCDMILK@nan?$CIind?$CJ@ 100246b4     libucrt:cvt.obj
 0002:000036c0       ??_C@_05KLBDPFGC@e?$CL000@ 100246c0     libucrt:cvt.obj
 0002:000036c8       ___lc_time_c               100246c8     libucrt:nlsdata.obj
 0002:0000382c       ??_C@_03KOEHGMDN@Sun@      1002482c     libucrt:nlsdata.obj
 0002:00003830       ??_C@_03PDAGKDH@Mon@       10024830     libucrt:nlsdata.obj
 0002:00003834       ??_C@_03NAGEINEP@Tue@      10024834     libucrt:nlsdata.obj
 0002:00003838       ??_C@_03MHOMLAJA@Wed@      10024838     libucrt:nlsdata.obj
 0002:0000383c       ??_C@_03IOFIKPDN@Thu@      1002483c     libucrt:nlsdata.obj
 0002:00003840       ??_C@_03IDIOELNC@Fri@      10024840     libucrt:nlsdata.obj
 0002:00003844       ??_C@_03FEFJNEK@Sat@       10024844     libucrt:nlsdata.obj
 0002:00003848       ??_C@_06OOPIFAJ@Sunday@    10024848     libucrt:nlsdata.obj
 0002:00003850       ??_C@_06JLEDEDGH@Monday@   10024850     libucrt:nlsdata.obj
 0002:00003858       ??_C@_07BAAGCFCM@Tuesday@  10024858     libucrt:nlsdata.obj
 0002:00003860       ??_C@_09DLIGFAKA@Wednesday@ 10024860     libucrt:nlsdata.obj
 0002:0000386c       ??_C@_08HACCIKIA@Thursday@ 1002486c     libucrt:nlsdata.obj
 0002:00003878       ??_C@_06JECMNKMI@Friday@   10024878     libucrt:nlsdata.obj
 0002:00003880       ??_C@_08INBOOONO@Saturday@ 10024880     libucrt:nlsdata.obj
 0002:0000388c       ??_C@_03JIHJHPIE@Jan@      1002488c     libucrt:nlsdata.obj
 0002:00003890       ??_C@_03HJBDCHOM@Feb@      10024890     libucrt:nlsdata.obj
 0002:00003894       ??_C@_03ODNJBKGA@Mar@      10024894     libucrt:nlsdata.obj
 0002:00003898       ??_C@_03LEOLGMJP@Apr@      10024898     libucrt:nlsdata.obj
 0002:0000389c       ??_C@_03CNMDKL@May@        1002489c     libucrt:nlsdata.obj
 0002:000038a0       ??_C@_03IDFGHECI@Jun@      100248a0     libucrt:nlsdata.obj
 0002:000038a4       ??_C@_03LBGABGKK@Jul@      100248a4     libucrt:nlsdata.obj
 0002:000038a8       ??_C@_03IFJFEIGA@Aug@      100248a8     libucrt:nlsdata.obj
 0002:000038ac       ??_C@_03GGCAPAJC@Sep@      100248ac     libucrt:nlsdata.obj
 0002:000038b0       ??_C@_03BMAOKBAD@Oct@      100248b0     libucrt:nlsdata.obj
 0002:000038b4       ??_C@_03JPJOFNIA@Nov@      100248b4     libucrt:nlsdata.obj
 0002:000038b8       ??_C@_03MKABNOCG@Dec@      100248b8     libucrt:nlsdata.obj
 0002:000038bc       ??_C@_07CGJPFGJA@January@  100248bc     libucrt:nlsdata.obj
 0002:000038c4       ??_C@_08GNJGEPFN@February@ 100248c4     libucrt:nlsdata.obj
 0002:000038d0       ??_C@_05HPCKOFNC@March@    100248d0     libucrt:nlsdata.obj
 0002:000038d8       ??_C@_05DMJDNLEJ@April@    100248d8     libucrt:nlsdata.obj
 0002:000038e0       ??_C@_04CNLMGBGM@June@     100248e0     libucrt:nlsdata.obj
 0002:000038e8       ??_C@_04MIEPOIFP@July@     100248e8     libucrt:nlsdata.obj
 0002:000038f0       ??_C@_06LBBHFDDG@August@   100248f0     libucrt:nlsdata.obj
 0002:000038f8       ??_C@_09BHHEALKD@September@ 100248f8     libucrt:nlsdata.obj
 0002:00003904       ??_C@_07JJNFCEND@October@  10024904     libucrt:nlsdata.obj
 0002:0000390c       ??_C@_08HCHEGEOA@November@ 1002490c     libucrt:nlsdata.obj
 0002:00003918       ??_C@_08EDHMEBNP@December@ 10024918     libucrt:nlsdata.obj
 0002:00003924       ??_C@_02DEDBPAFC@AM@       10024924     libucrt:nlsdata.obj
 0002:00003928       ??_C@_02CJNFDJBF@PM@       10024928     libucrt:nlsdata.obj
 0002:0000392c       ??_C@_08BPBNCDIB@MM?1dd?1yy@ 1002492c     libucrt:nlsdata.obj
 0002:00003938       ??_C@_0BE@CKGJFCPC@dddd?0?5MMMM?5dd?0?5yyyy@ 10024938     libucrt:nlsdata.obj
 0002:0000394c       ??_C@_08JCCMCCIL@HH?3mm?3ss@ 1002494c     libucrt:nlsdata.obj
 0002:00003958       ??_C@_17MBGCMIPB@?$AAS?$AAu?$AAn@ 10024958     libucrt:nlsdata.obj
 0002:00003960       ??_C@_17KBOMKBF@?$AAM?$AAo?$AAn@ 10024960     libucrt:nlsdata.obj
 0002:00003968       ??_C@_17BMKGEGOJ@?$AAT?$AAu?$AAe@ 10024968     libucrt:nlsdata.obj
 0002:00003970       ??_C@_17CJEDCEPE@?$AAW?$AAe?$AAd@ 10024970     libucrt:nlsdata.obj
 0002:00003978       ??_C@_17PDPHAADD@?$AAT?$AAh?$AAu@ 10024978     libucrt:nlsdata.obj
 0002:00003980       ??_C@_17HFOLPPLP@?$AAF?$AAr?$AAi@ 10024980     libucrt:nlsdata.obj
 0002:00003988       ??_C@_17GGIBDPIH@?$AAS?$AAa?$AAt@ 10024988     libucrt:nlsdata.obj
 0002:00003990       ??_C@_1O@IHNHDHPB@?$AAS?$AAu?$AAn?$AAd?$AAa?$AAy@ 10024990     libucrt:nlsdata.obj
 0002:000039a0       ??_C@_1O@MMNBFLIA@?$AAM?$AAo?$AAn?$AAd?$AAa?$AAy@ 100249a0     libucrt:nlsdata.obj
 0002:000039b0       ??_C@_1BA@ENFBFFEK@?$AAT?$AAu?$AAe?$AAs?$AAd?$AAa?$AAy@ 100249b0     libucrt:nlsdata.obj
 0002:000039c0       ??_C@_1BE@EBOGMDOH@?$AAW?$AAe?$AAd?$AAn?$AAe?$AAs?$AAd?$AAa?$AAy@ 100249c0     libucrt:nlsdata.obj
 0002:000039d4       ??_C@_1BC@HHMNLIHE@?$AAT?$AAh?$AAu?$AAr?$AAs?$AAd?$AAa?$AAy@ 100249d4     libucrt:nlsdata.obj
 0002:000039e8       ??_C@_1O@PDICJHAG@?$AAF?$AAr?$AAi?$AAd?$AAa?$AAy@ 100249e8     libucrt:nlsdata.obj
 0002:000039f8       ??_C@_1BC@ENMNNPAJ@?$AAS?$AAa?$AAt?$AAu?$AAr?$AAd?$AAa?$AAy@ 100249f8     libucrt:nlsdata.obj
 0002:00003a0c       ??_C@_17DKNBKCHM@?$AAJ?$AAa?$AAn@ 10024a0c     libucrt:nlsdata.obj
 0002:00003a14       ??_C@_17LMDJEKJN@?$AAF?$AAe?$AAb@ 10024a14     libucrt:nlsdata.obj
 0002:00003a1c       ??_C@_17CKNLEDEC@?$AAM?$AAa?$AAr@ 10024a1c     libucrt:nlsdata.obj
 0002:00003a24       ??_C@_17LFPOIHDD@?$AAA?$AAp?$AAr@ 10024a24     libucrt:nlsdata.obj
 0002:00003a2c       ??_C@_17PNNKMEED@?$AAM?$AAa?$AAy@ 10024a2c     libucrt:nlsdata.obj
 0002:00003a34       ??_C@_17KCJGOCPB@?$AAJ?$AAu?$AAn@ 10024a34     libucrt:nlsdata.obj
 0002:00003a3c       ??_C@_17IJPCKHK@?$AAJ?$AAu?$AAl@ 10024a3c     libucrt:nlsdata.obj
 0002:00003a44       ??_C@_17ICPELBCN@?$AAA?$AAu?$AAg@ 10024a44     libucrt:nlsdata.obj
 0002:00003a4c       ??_C@_17HCHCOKMG@?$AAS?$AAe?$AAp@ 10024a4c     libucrt:nlsdata.obj
 0002:00003a54       ??_C@_17FNLKOI@?$AAO?$AAc?$AAt@ 10024a54     libucrt:nlsdata.obj
 0002:00003a5c       ??_C@_17BBDMLCIG@?$AAN?$AAo?$AAv@ 10024a5c     libucrt:nlsdata.obj
 0002:00003a64       ??_C@_17EGKACKIF@?$AAD?$AAe?$AAc@ 10024a64     libucrt:nlsdata.obj
 0002:00003a6c       ??_C@_1BA@EFMEIEBA@?$AAJ?$AAa?$AAn?$AAu?$AAa?$AAr?$AAy@ 10024a6c     libucrt:nlsdata.obj
 0002:00003a7c       ??_C@_1BC@JGDDFFAM@?$AAF?$AAe?$AAb?$AAr?$AAu?$AAa?$AAr?$AAy@ 10024a7c     libucrt:nlsdata.obj
 0002:00003a90       ??_C@_1M@IKEENEDF@?$AAM?$AAa?$AAr?$AAc?$AAh@ 10024a90     libucrt:nlsdata.obj
 0002:00003a9c       ??_C@_1M@GJNLMHFD@?$AAA?$AAp?$AAr?$AAi?$AAl@ 10024a9c     libucrt:nlsdata.obj
 0002:00003aa8       ??_C@_19EPFLPGAP@?$AAJ?$AAu?$AAn?$AAe@ 10024aa8     libucrt:nlsdata.obj
 0002:00003ab4       ??_C@_19BIFMLPCD@?$AAJ?$AAu?$AAl?$AAy@ 10024ab4     libucrt:nlsdata.obj
 0002:00003ac0       ??_C@_1O@PAHLKOAC@?$AAA?$AAu?$AAg?$AAu?$AAs?$AAt@ 10024ac0     libucrt:nlsdata.obj
 0002:00003ad0       ??_C@_1BE@DKAAMBJL@?$AAS?$AAe?$AAp?$AAt?$AAe?$AAm?$AAb?$AAe?$AAr@ 10024ad0     libucrt:nlsdata.obj
 0002:00003ae4       ??_C@_1BA@EPANDLNG@?$AAO?$AAc?$AAt?$AAo?$AAb?$AAe?$AAr@ 10024ae4     libucrt:nlsdata.obj
 0002:00003af4       ??_C@_1BC@BGLIFPF@?$AAN?$AAo?$AAv?$AAe?$AAm?$AAb?$AAe?$AAr@ 10024af4     libucrt:nlsdata.obj
 0002:00003b08       ??_C@_1BC@FEMKIFH@?$AAD?$AAe?$AAc?$AAe?$AAm?$AAb?$AAe?$AAr@ 10024b08     libucrt:nlsdata.obj
 0002:00003b1c       ??_C@_15ODEHAHHF@?$AAA?$AAM@ 10024b1c     libucrt:nlsdata.obj
 0002:00003b24       ??_C@_15CLMNNGEL@?$AAP?$AAM@ 10024b24     libucrt:nlsdata.obj
 0002:00003b2c       ??_C@_1BC@IEBCMHCM@?$AAM?$AAM?$AA?1?$AAd?$AAd?$AA?1?$AAy?$AAy@ 10024b2c     libucrt:nlsdata.obj
 0002:00003b40       ??_C@_1CI@KNAKOEBC@?$AAd?$AAd?$AAd?$AAd?$AA?0?$AA?5?$AAM?$AAM?$AAM?$AAM?$AA?5?$AAd?$AAd?$AA?0?$AA?5@ 10024b40     libucrt:nlsdata.obj
 0002:00003b68       ??_C@_1BC@GDGBMEMK@?$AAH?$AAH?$AA?3?$AAm?$AAm?$AA?3?$AAs?$AAs@ 10024b68     libucrt:nlsdata.obj
 0002:00003b7c       ??_C@_1M@BMHNFIME@?$AAe?$AAn?$AA?9?$AAU?$AAS@ 10024b7c     libucrt:nlsdata.obj
 0002:00003b98       ??_C@_1M@HPNHIDJI@?$AAj?$AAa?$AA?9?$AAJ?$AAP@ 10024b98     libucrt:mbctype.obj
 0002:00003ba4       ??_C@_1M@BIBDDEMK@?$AAz?$AAh?$AA?9?$AAC?$AAN@ 10024ba4     libucrt:mbctype.obj
 0002:00003bb0       ??_C@_1M@JLOOOEGK@?$AAk?$AAo?$AA?9?$AAK?$AAR@ 10024bb0     libucrt:mbctype.obj
 0002:00003bbc       ??_C@_1M@CLNBBOPM@?$AAz?$AAh?$AA?9?$AAT?$AAW@ 10024bbc     libucrt:mbctype.obj
 0002:00003bc8       ___newctype                10024bc8     libucrt:ctype.obj
 0002:00003ec8       ___newclmap                10024ec8     libucrt:ctype.obj
 0002:00004048       ___newcumap                10025048     libucrt:ctype.obj
 0002:000041c8       __wctype                   100251c8     libucrt:ctype.obj
 0002:00004af0       ??_C@_15EMKDOKLE@?$AAa?$AAr@ 10025af0     libucrt:lcidtoname_downlevel.obj
 0002:00004af8       ??_C@_15KNPADPLH@?$AAb?$AAg@ 10025af8     libucrt:lcidtoname_downlevel.obj
 0002:00004b00       ??_C@_15EDMHLDMO@?$AAc?$AAa@ 10025b00     libucrt:lcidtoname_downlevel.obj
 0002:00004b08       ??_C@_1O@BPEAJADD@?$AAz?$AAh?$AA?9?$AAC?$AAH?$AAS@ 10025b08     libucrt:lcidtoname_downlevel.obj
 0002:00004b18       ??_C@_15LJNHCMNK@?$AAc?$AAs@ 10025b18     libucrt:lcidtoname_downlevel.obj
 0002:00004b20       ??_C@_15FOMCIDHG@?$AAd?$AAa@ 10025b20     libucrt:lcidtoname_downlevel.obj
 0002:00004b28       ??_C@_15NBKABECB@?$AAd?$AAe@ 10025b28     libucrt:lcidtoname_downlevel.obj
 0002:00004b30       ??_C@_15GHPEIIAO@?$AAe?$AAl@ 10025b30     libucrt:lcidtoname_downlevel.obj
 0002:00004b38       ??_C@_15MNPNEAIF@?$AAe?$AAn@ 10025b38     libucrt:lcidtoname_downlevel.obj
 0002:00004b40       ??_C@_15GPIOMPMH@?$AAe?$AAs@ 10025b40     libucrt:lcidtoname_downlevel.obj
 0002:00004b48       ??_C@_15NGLOAKJC@?$AAf?$AAi@ 10025b48     libucrt:lcidtoname_downlevel.obj
 0002:00004b50       ??_C@_15FBKGNKAM@?$AAf?$AAr@ 10025b50     libucrt:lcidtoname_downlevel.obj
 0002:00004b58       ??_C@_15KGGCNEFK@?$AAh?$AAe@ 10025b58     libucrt:lcidtoname_downlevel.obj
 0002:00004b60       ??_C@_15PGHLIDMF@?$AAh?$AAu@ 10025b60     libucrt:lcidtoname_downlevel.obj
 0002:00004b68       ??_C@_15BIEMAPLM@?$AAi?$AAs@ 10025b68     libucrt:lcidtoname_downlevel.obj
 0002:00004b70       ??_C@_15IFJLDHAF@?$AAi?$AAt@ 10025b70     libucrt:lcidtoname_downlevel.obj
 0002:00004b78       ??_C@_15GEMIOCAG@?$AAj?$AAa@ 10025b78     libucrt:lcidtoname_downlevel.obj
 0002:00004b80       ??_C@_15EPELEGJA@?$AAk?$AAo@ 10025b80     libucrt:lcidtoname_downlevel.obj
 0002:00004b88       ??_C@_15NDDHIMN@?$AAn?$AAl@ 10025b88     libucrt:lcidtoname_downlevel.obj
 0002:00004b90       ??_C@_15BPIGNHCD@?$AAn?$AAo@ 10025b90     libucrt:lcidtoname_downlevel.obj
 0002:00004b98       ??_C@_15DEOPBLCG@?$AAp?$AAl@ 10025b98     libucrt:lcidtoname_downlevel.obj
 0002:00004ba0       ??_C@_15KBECGEFG@?$AAp?$AAt@ 10025ba0     libucrt:lcidtoname_downlevel.obj
 0002:00004ba8       ??_C@_15GLJCBFMD@?$AAr?$AAo@ 10025ba8     libucrt:lcidtoname_downlevel.obj
 0002:00004bb0       ??_C@_15FEDGKCDI@?$AAr?$AAu@ 10025bb0     libucrt:lcidtoname_downlevel.obj
 0002:00004bb8       ??_C@_15GLKMLLHM@?$AAh?$AAr@ 10025bb8     libucrt:lcidtoname_downlevel.obj
 0002:00004bc0       ??_C@_15CPKMFBDB@?$AAs?$AAk@ 10025bc0     libucrt:lcidtoname_downlevel.obj
 0002:00004bc8       ??_C@_15BAAIOGMK@?$AAs?$AAq@ 10025bc8     libucrt:lcidtoname_downlevel.obj
 0002:00004bd0       ??_C@_15INNPNOHD@?$AAs?$AAv@ 10025bd0     libucrt:lcidtoname_downlevel.obj
 0002:00004bd8       ??_C@_15CABMMOGH@?$AAt?$AAh@ 10025bd8     libucrt:lcidtoname_downlevel.obj
 0002:00004be0       ??_C@_15BPLIHJJM@?$AAt?$AAr@ 10025be0     libucrt:lcidtoname_downlevel.obj
 0002:00004be8       ??_C@_15NEOEKKDJ@?$AAu?$AAr@ 10025be8     libucrt:lcidtoname_downlevel.obj
 0002:00004bf0       ??_C@_15NFICGAJK@?$AAi?$AAd@ 10025bf0     libucrt:lcidtoname_downlevel.obj
 0002:00004bf8       ??_C@_15PJPFLCCM@?$AAu?$AAk@ 10025bf8     libucrt:lcidtoname_downlevel.obj
 0002:00004c00       ??_C@_15HPJPHDM@?$AAb?$AAe@ 10025c00     libucrt:lcidtoname_downlevel.obj
 0002:00004c08       ??_C@_15LCHLGJII@?$AAs?$AAl@ 10025c08     libucrt:lcidtoname_downlevel.obj
 0002:00004c10       ??_C@_15PCFJPHHO@?$AAe?$AAt@ 10025c10     libucrt:lcidtoname_downlevel.obj
 0002:00004c18       ??_C@_15HPFPGODN@?$AAl?$AAv@ 10025c18     libucrt:lcidtoname_downlevel.obj
 0002:00004c20       ??_C@_15NFFGKGLG@?$AAl?$AAt@ 10025c20     libucrt:lcidtoname_downlevel.obj
 0002:00004c28       ??_C@_15BDAKCCHN@?$AAf?$AAa@ 10025c28     libucrt:lcidtoname_downlevel.obj
 0002:00004c30       ??_C@_15NFGIAIAJ@?$AAv?$AAi@ 10025c30     libucrt:lcidtoname_downlevel.obj
 0002:00004c38       ??_C@_15LMKNDMHN@?$AAh?$AAy@ 10025c38     libucrt:lcidtoname_downlevel.obj
 0002:00004c40       ??_C@_15IJBHMCFL@?$AAa?$AAz@ 10025c40     libucrt:lcidtoname_downlevel.obj
 0002:00004c48       ??_C@_15EKOFJABL@?$AAe?$AAu@ 10025c48     libucrt:lcidtoname_downlevel.obj
 0002:00004c50       ??_C@_15BGHADCNK@?$AAm?$AAk@ 10025c50     libucrt:lcidtoname_downlevel.obj
 0002:00004c58       ??_C@_15JDNICKHM@?$AAa?$AAf@ 10025c58     libucrt:lcidtoname_downlevel.obj
 0002:00004c60       ??_C@_15KPJEDBKD@?$AAk?$AAa@ 10025c60     libucrt:lcidtoname_downlevel.obj
 0002:00004c68       ??_C@_15PDNFFFEO@?$AAf?$AAo@ 10025c68     libucrt:lcidtoname_downlevel.obj
 0002:00004c70       ??_C@_15OMLEGLOC@?$AAh?$AAi@ 10025c70     libucrt:lcidtoname_downlevel.obj
 0002:00004c78       ??_C@_15IDNNENKK@?$AAm?$AAs@ 10025c78     libucrt:lcidtoname_downlevel.obj
 0002:00004c80       ??_C@_15MACJNBMH@?$AAk?$AAk@ 10025c80     libucrt:lcidtoname_downlevel.obj
 0002:00004c88       ??_C@_15DKDJEOND@?$AAk?$AAy@ 10025c88     libucrt:lcidtoname_downlevel.obj
 0002:00004c90       ??_C@_15DFGDLJBG@?$AAs?$AAw@ 10025c90     libucrt:lcidtoname_downlevel.obj
 0002:00004c98       ??_C@_15BBFAICNG@?$AAu?$AAz@ 10025c98     libucrt:lcidtoname_downlevel.obj
 0002:00004ca0       ??_C@_15DKNDCGEA@?$AAt?$AAt@ 10025ca0     libucrt:lcidtoname_downlevel.obj
 0002:00004ca8       ??_C@_15MGIFMDPL@?$AAp?$AAa@ 10025ca8     libucrt:lcidtoname_downlevel.obj
 0002:00004cb0       ??_C@_15HCNDBBA@?$AAg?$AAu@ 10025cb0     libucrt:lcidtoname_downlevel.obj
 0002:00004cb8       ??_C@_15FNBEIBON@?$AAt?$AAa@ 10025cb8     libucrt:lcidtoname_downlevel.obj
 0002:00004cc0       ??_C@_15NCHGBGLK@?$AAt?$AAe@ 10025cc0     libucrt:lcidtoname_downlevel.obj
 0002:00004cc8       ??_C@_15PHPHCBPF@?$AAk?$AAn@ 10025cc8     libucrt:lcidtoname_downlevel.obj
 0002:00004cd0       ??_C@_15DLGBCKMP@?$AAm?$AAr@ 10025cd0     libucrt:lcidtoname_downlevel.obj
 0002:00004cd8       ??_C@_15EABBLBFF@?$AAs?$AAa@ 10025cd8     libucrt:lcidtoname_downlevel.obj
 0002:00004ce0       ??_C@_15CBKOMCOI@?$AAm?$AAn@ 10025ce0     libucrt:lcidtoname_downlevel.obj
 0002:00004ce8       ??_C@_15CKDMCJAF@?$AAg?$AAl@ 10025ce8     libucrt:lcidtoname_downlevel.obj
 0002:00004cf0       ??_C@_17CNJFBPG@?$AAk?$AAo?$AAk@ 10025cf0     libucrt:lcidtoname_downlevel.obj
 0002:00004cf8       ??_C@_17FFBJICPL@?$AAs?$AAy?$AAr@ 10025cf8     libucrt:lcidtoname_downlevel.obj
 0002:00004d00       ??_C@_17KPNDCPAF@?$AAd?$AAi?$AAv@ 10025d00     libucrt:lcidtoname_downlevel.obj
 0002:00004d08       ??_C@_1M@OKAHONE@?$AAa?$AAr?$AA?9?$AAS?$AAA@ 10025d08     libucrt:lcidtoname_downlevel.obj
 0002:00004d14       ??_C@_1M@FFFIGIGK@?$AAb?$AAg?$AA?9?$AAB?$AAG@ 10025d14     libucrt:lcidtoname_downlevel.obj
 0002:00004d20       ??_C@_1M@BJNKEDC@?$AAc?$AAa?$AA?9?$AAE?$AAS@ 10025d20     libucrt:lcidtoname_downlevel.obj
 0002:00004d2c       ??_C@_1M@IJJHFJHA@?$AAc?$AAs?$AA?9?$AAC?$AAZ@ 10025d2c     libucrt:lcidtoname_downlevel.obj
 0002:00004d38       ??_C@_1M@CLPEOBGI@?$AAd?$AAa?$AA?9?$AAD?$AAK@ 10025d38     libucrt:lcidtoname_downlevel.obj
 0002:00004d44       ??_C@_1M@MCMADGCB@?$AAd?$AAe?$AA?9?$AAD?$AAE@ 10025d44     libucrt:lcidtoname_downlevel.obj
 0002:00004d50       ??_C@_1M@OOCKEMAM@?$AAe?$AAl?$AA?9?$AAG?$AAR@ 10025d50     libucrt:lcidtoname_downlevel.obj
 0002:00004d5c       ??_C@_1M@DDNJFGID@?$AAf?$AAi?$AA?9?$AAF?$AAI@ 10025d5c     libucrt:lcidtoname_downlevel.obj
 0002:00004d68       ??_C@_1M@GLIPPMAC@?$AAf?$AAr?$AA?9?$AAF?$AAR@ 10025d68     libucrt:lcidtoname_downlevel.obj
 0002:00004d74       ??_C@_1M@GFMCHPE@?$AAh?$AAe?$AA?9?$AAI?$AAL@ 10025d74     libucrt:lcidtoname_downlevel.obj
 0002:00004d80       ??_C@_1M@MHLPGNKM@?$AAh?$AAu?$AA?9?$AAH?$AAU@ 10025d80     libucrt:lcidtoname_downlevel.obj
 0002:00004d8c       ??_C@_1M@LPDDNNPN@?$AAi?$AAs?$AA?9?$AAI?$AAS@ 10025d8c     libucrt:lcidtoname_downlevel.obj
 0002:00004d98       ??_C@_1M@MADIPODN@?$AAi?$AAt?$AA?9?$AAI?$AAT@ 10025d98     libucrt:lcidtoname_downlevel.obj
 0002:00004da4       ??_C@_1M@IHBJJGG@?$AAn?$AAl?$AA?9?$AAN?$AAL@ 10025da4     libucrt:lcidtoname_downlevel.obj
 0002:00004db0       ??_C@_1M@EANAGDL@?$AAn?$AAb?$AA?9?$AAN?$AAO@ 10025db0     libucrt:lcidtoname_downlevel.obj
 0002:00004dbc       ??_C@_1M@NEIEMEGP@?$AAp?$AAl?$AA?9?$AAP?$AAL@ 10025dbc     libucrt:lcidtoname_downlevel.obj
 0002:00004dc8       ??_C@_1M@BOCFIGEP@?$AAp?$AAt?$AA?9?$AAB?$AAR@ 10025dc8     libucrt:lcidtoname_downlevel.obj
 0002:00004dd4       ??_C@_1M@IMPFOPBG@?$AAr?$AAo?$AA?9?$AAR?$AAO@ 10025dd4     libucrt:lcidtoname_downlevel.obj
 0002:00004de0       ??_C@_1M@IDNNEJMM@?$AAr?$AAu?$AA?9?$AAR?$AAU@ 10025de0     libucrt:lcidtoname_downlevel.obj
 0002:00004dec       ??_C@_1M@LILEEOGM@?$AAh?$AAr?$AA?9?$AAH?$AAR@ 10025dec     libucrt:lcidtoname_downlevel.obj
 0002:00004df8       ??_C@_1M@FKIFEHPB@?$AAs?$AAk?$AA?9?$AAS?$AAK@ 10025df8     libucrt:lcidtoname_downlevel.obj
 0002:00004e04       ??_C@_1M@LJMAMNPJ@?$AAs?$AAq?$AA?9?$AAA?$AAL@ 10025e04     libucrt:lcidtoname_downlevel.obj
 0002:00004e10       ??_C@_1M@GIAKDKJK@?$AAs?$AAv?$AA?9?$AAS?$AAE@ 10025e10     libucrt:lcidtoname_downlevel.obj
 0002:00004e1c       ??_C@_1M@MKJKIKCL@?$AAt?$AAh?$AA?9?$AAT?$AAH@ 10025e1c     libucrt:lcidtoname_downlevel.obj
 0002:00004e28       ??_C@_1M@MFLCCMPB@?$AAt?$AAr?$AA?9?$AAT?$AAR@ 10025e28     libucrt:lcidtoname_downlevel.obj
 0002:00004e34       ??_C@_1M@OIJHDKJN@?$AAu?$AAr?$AA?9?$AAP?$AAK@ 10025e34     libucrt:lcidtoname_downlevel.obj
 0002:00004e40       ??_C@_1M@LHIPCIEK@?$AAi?$AAd?$AA?9?$AAI?$AAD@ 10025e40     libucrt:lcidtoname_downlevel.obj
 0002:00004e4c       ??_C@_1M@MFMOBGI@?$AAu?$AAk?$AA?9?$AAU?$AAA@ 10025e4c     libucrt:lcidtoname_downlevel.obj
 0002:00004e58       ??_C@_1M@OBGLJIPL@?$AAb?$AAe?$AA?9?$AAB?$AAY@ 10025e58     libucrt:lcidtoname_downlevel.obj
 0002:00004e64       ??_C@_1M@BCFAJEAD@?$AAs?$AAl?$AA?9?$AAS?$AAI@ 10025e64     libucrt:lcidtoname_downlevel.obj
 0002:00004e70       ??_C@_1M@FKFFEDDN@?$AAe?$AAt?$AA?9?$AAE?$AAE@ 10025e70     libucrt:lcidtoname_downlevel.obj
 0002:00004e7c       ??_C@_1M@KGKKAACI@?$AAl?$AAv?$AA?9?$AAL?$AAV@ 10025e7c     libucrt:lcidtoname_downlevel.obj
 0002:00004e88       ??_C@_1M@IFGBIJO@?$AAl?$AAt?$AA?9?$AAL?$AAT@ 10025e88     libucrt:lcidtoname_downlevel.obj
 0002:00004e94       ??_C@_1M@FGEAHEDM@?$AAf?$AAa?$AA?9?$AAI?$AAR@ 10025e94     libucrt:lcidtoname_downlevel.obj
 0002:00004ea0       ??_C@_1M@KBMAIBFN@?$AAv?$AAi?$AA?9?$AAV?$AAN@ 10025ea0     libucrt:lcidtoname_downlevel.obj
 0002:00004eac       ??_C@_1M@GPCBKDJK@?$AAh?$AAy?$AA?9?$AAA?$AAM@ 10025eac     libucrt:lcidtoname_downlevel.obj
 0002:00004eb8       ??_C@_1BG@BECMDDJB@?$AAa?$AAz?$AA?9?$AAA?$AAZ?$AA?9?$AAL?$AAa?$AAt?$AAn@ 10025eb8     libucrt:lcidtoname_downlevel.obj
 0002:00004ed0       ??_C@_1M@MAOFCAEA@?$AAe?$AAu?$AA?9?$AAE?$AAS@ 10025ed0     libucrt:lcidtoname_downlevel.obj
 0002:00004edc       ??_C@_1M@IGHABKPI@?$AAm?$AAk?$AA?9?$AAM?$AAK@ 10025edc     libucrt:lcidtoname_downlevel.obj
 0002:00004ee8       ??_C@_1M@IAIGNEJG@?$AAt?$AAn?$AA?9?$AAZ?$AAA@ 10025ee8     libucrt:lcidtoname_downlevel.obj
 0002:00004ef4       ??_C@_1M@IIJCOJFA@?$AAx?$AAh?$AA?9?$AAZ?$AAA@ 10025ef4     libucrt:lcidtoname_downlevel.obj
 0002:00004f00       ??_C@_1M@LGPJHNJH@?$AAz?$AAu?$AA?9?$AAZ?$AAA@ 10025f00     libucrt:lcidtoname_downlevel.obj
 0002:00004f0c       ??_C@_1M@HOKAOIO@?$AAa?$AAf?$AA?9?$AAZ?$AAA@ 10025f0c     libucrt:lcidtoname_downlevel.obj
 0002:00004f18       ??_C@_1M@DPCLHLIE@?$AAk?$AAa?$AA?9?$AAG?$AAE@ 10025f18     libucrt:lcidtoname_downlevel.obj
 0002:00004f24       ??_C@_1M@BLKMHJBI@?$AAf?$AAo?$AA?9?$AAF?$AAO@ 10025f24     libucrt:lcidtoname_downlevel.obj
 0002:00004f30       ??_C@_1M@LGGJAPPB@?$AAh?$AAi?$AA?9?$AAI?$AAN@ 10025f30     libucrt:lcidtoname_downlevel.obj
 0002:00004f3c       ??_C@_1M@FIKPIHFE@?$AAm?$AAt?$AA?9?$AAM?$AAT@ 10025f3c     libucrt:lcidtoname_downlevel.obj
 0002:00004f48       ??_C@_1M@HEGGPBFA@?$AAs?$AAe?$AA?9?$AAN?$AAO@ 10025f48     libucrt:lcidtoname_downlevel.obj
 0002:00004f54       ??_C@_1M@EIBJEEPA@?$AAm?$AAs?$AA?9?$AAM?$AAY@ 10025f54     libucrt:lcidtoname_downlevel.obj
 0002:00004f60       ??_C@_1M@FHLBGMPP@?$AAk?$AAk?$AA?9?$AAK?$AAZ@ 10025f60     libucrt:lcidtoname_downlevel.obj
 0002:00004f6c       ??_C@_1M@NGJJLCGI@?$AAk?$AAy?$AA?9?$AAK?$AAG@ 10025f6c     libucrt:lcidtoname_downlevel.obj
 0002:00004f78       ??_C@_1M@GIENNBFC@?$AAs?$AAw?$AA?9?$AAK?$AAE@ 10025f78     libucrt:lcidtoname_downlevel.obj
 0002:00004f84       ??_C@_1BG@NDGMJIMJ@?$AAu?$AAz?$AA?9?$AAU?$AAZ?$AA?9?$AAL?$AAa?$AAt?$AAn@ 10025f84     libucrt:lcidtoname_downlevel.obj
 0002:00004f9c       ??_C@_1M@IDCCIHBC@?$AAt?$AAt?$AA?9?$AAR?$AAU@ 10025f9c     libucrt:lcidtoname_downlevel.obj
 0002:00004fa8       ??_C@_1M@LOICPMOJ@?$AAb?$AAn?$AA?9?$AAI?$AAN@ 10025fa8     libucrt:lcidtoname_downlevel.obj
 0002:00004fb4       ??_C@_1M@KPKKNEAH@?$AAp?$AAa?$AA?9?$AAI?$AAN@ 10025fb4     libucrt:lcidtoname_downlevel.obj
 0002:00004fc0       ??_C@_1M@PJGPPBOG@?$AAg?$AAu?$AA?9?$AAI?$AAN@ 10025fc0     libucrt:lcidtoname_downlevel.obj
 0002:00004fcc       ??_C@_1M@KMKMOPHI@?$AAt?$AAa?$AA?9?$AAI?$AAN@ 10025fcc     libucrt:lcidtoname_downlevel.obj
 0002:00004fd8       ??_C@_1M@KFEHEPAC@?$AAt?$AAe?$AA?9?$AAI?$AAN@ 10025fd8     libucrt:lcidtoname_downlevel.obj
 0002:00004fe4       ??_C@_1M@CDCLMGHI@?$AAk?$AAn?$AA?9?$AAI?$AAN@ 10025fe4     libucrt:lcidtoname_downlevel.obj
 0002:00004ff0       ??_C@_1M@MIODLDKF@?$AAm?$AAl?$AA?9?$AAI?$AAN@ 10025ff0     libucrt:lcidtoname_downlevel.obj
 0002:00004ffc       ??_C@_1M@PBIEACPO@?$AAm?$AAr?$AA?9?$AAI?$AAN@ 10025ffc     libucrt:lcidtoname_downlevel.obj
 0002:00005008       ??_C@_1M@NIDEAGPH@?$AAs?$AAa?$AA?9?$AAI?$AAN@ 10026008     libucrt:lcidtoname_downlevel.obj
 0002:00005014       ??_C@_1M@FHIHCBIO@?$AAm?$AAn?$AA?9?$AAM?$AAN@ 10026014     libucrt:lcidtoname_downlevel.obj
 0002:00005020       ??_C@_1M@JAIJPENP@?$AAc?$AAy?$AA?9?$AAG?$AAB@ 10026020     libucrt:lcidtoname_downlevel.obj
 0002:0000502c       ??_C@_1M@PHGFBEPN@?$AAg?$AAl?$AA?9?$AAE?$AAS@ 1002602c     libucrt:lcidtoname_downlevel.obj
 0002:00005038       ??_C@_1O@KPIPDNCP@?$AAk?$AAo?$AAk?$AA?9?$AAI?$AAN@ 10026038     libucrt:lcidtoname_downlevel.obj
 0002:00005048       ??_C@_1O@KNHJLDJA@?$AAs?$AAy?$AAr?$AA?9?$AAS?$AAY@ 10026048     libucrt:lcidtoname_downlevel.obj
 0002:00005058       ??_C@_1O@MKEKBLAH@?$AAd?$AAi?$AAv?$AA?9?$AAM?$AAV@ 10026058     libucrt:lcidtoname_downlevel.obj
 0002:00005068       ??_C@_1O@OHDCKDDF@?$AAq?$AAu?$AAz?$AA?9?$AAB?$AAO@ 10026068     libucrt:lcidtoname_downlevel.obj
 0002:00005078       ??_C@_1M@LEPJNLFD@?$AAn?$AAs?$AA?9?$AAZ?$AAA@ 10026078     libucrt:lcidtoname_downlevel.obj
 0002:00005084       ??_C@_1M@OMLEIIJB@?$AAm?$AAi?$AA?9?$AAN?$AAZ@ 10026084     libucrt:lcidtoname_downlevel.obj
 0002:00005090       ??_C@_1M@PMPEAILG@?$AAa?$AAr?$AA?9?$AAI?$AAQ@ 10026090     libucrt:lcidtoname_downlevel.obj
 0002:0000509c       ??_C@_1M@CNKPNOEE@?$AAd?$AAe?$AA?9?$AAC?$AAH@ 1002609c     libucrt:lcidtoname_downlevel.obj
 0002:000050a8       ??_C@_1M@LKMGMLKO@?$AAe?$AAn?$AA?9?$AAG?$AAB@ 100260a8     libucrt:lcidtoname_downlevel.obj
 0002:000050b4       ??_C@_1M@PGKJFFGL@?$AAe?$AAs?$AA?9?$AAM?$AAX@ 100260b4     libucrt:lcidtoname_downlevel.obj
 0002:000050c0       ??_C@_1M@DNNANBDC@?$AAf?$AAr?$AA?9?$AAB?$AAE@ 100260c0     libucrt:lcidtoname_downlevel.obj
 0002:000050cc       ??_C@_1M@HLGMDFHM@?$AAi?$AAt?$AA?9?$AAC?$AAH@ 100260cc     libucrt:lcidtoname_downlevel.obj
 0002:000050d8       ??_C@_1M@CLLBGJH@?$AAn?$AAl?$AA?9?$AAB?$AAE@ 100260d8     libucrt:lcidtoname_downlevel.obj
 0002:000050e4       ??_C@_1M@BODBOGLF@?$AAn?$AAn?$AA?9?$AAN?$AAO@ 100260e4     libucrt:lcidtoname_downlevel.obj
 0002:000050f0       ??_C@_1M@HFFAHKAD@?$AAp?$AAt?$AA?9?$AAP?$AAT@ 100260f0     libucrt:lcidtoname_downlevel.obj
 0002:000050fc       ??_C@_1BG@LNOAKHIE@?$AAs?$AAr?$AA?9?$AAS?$AAP?$AA?9?$AAL?$AAa?$AAt?$AAn@ 100260fc     libucrt:lcidtoname_downlevel.obj
 0002:00005114       ??_C@_1M@HBMHBGAK@?$AAs?$AAv?$AA?9?$AAF?$AAI@ 10026114     libucrt:lcidtoname_downlevel.obj
 0002:00005120       ??_C@_1BG@DGCJGJBE@?$AAa?$AAz?$AA?9?$AAA?$AAZ?$AA?9?$AAC?$AAy?$AAr?$AAl@ 10026120     libucrt:lcidtoname_downlevel.obj
 0002:00005138       ??_C@_1M@KEJDAAHB@?$AAs?$AAe?$AA?9?$AAS?$AAE@ 10026138     libucrt:lcidtoname_downlevel.obj
 0002:00005144       ??_C@_1M@HEIBJJAD@?$AAm?$AAs?$AA?9?$AAB?$AAN@ 10026144     libucrt:lcidtoname_downlevel.obj
 0002:00005150       ??_C@_1BG@PBGJMCEM@?$AAu?$AAz?$AA?9?$AAU?$AAZ?$AA?9?$AAC?$AAy?$AAr?$AAl@ 10026150     libucrt:lcidtoname_downlevel.obj
 0002:00005168       ??_C@_1O@LAOBCMDF@?$AAq?$AAu?$AAz?$AA?9?$AAE?$AAC@ 10026168     libucrt:lcidtoname_downlevel.obj
 0002:00005178       ??_C@_1M@POEEMAIO@?$AAa?$AAr?$AA?9?$AAE?$AAG@ 10026178     libucrt:lcidtoname_downlevel.obj
 0002:00005184       ??_C@_1M@EFAKDEDL@?$AAz?$AAh?$AA?9?$AAH?$AAK@ 10026184     libucrt:lcidtoname_downlevel.obj
 0002:00005190       ??_C@_1M@HKKIJHGI@?$AAd?$AAe?$AA?9?$AAA?$AAT@ 10026190     libucrt:lcidtoname_downlevel.obj
 0002:0000519c       ??_C@_1M@KBFBEHJF@?$AAe?$AAn?$AA?9?$AAA?$AAU@ 1002619c     libucrt:lcidtoname_downlevel.obj
 0002:000051a8       ??_C@_1M@MNPLFAAH@?$AAe?$AAs?$AA?9?$AAE?$AAS@ 100261a8     libucrt:lcidtoname_downlevel.obj
 0002:000051b4       ??_C@_1M@HJOOJFMA@?$AAf?$AAr?$AA?9?$AAC?$AAA@ 100261b4     libucrt:lcidtoname_downlevel.obj
 0002:000051c0       ??_C@_1BG@JPOFPNAB@?$AAs?$AAr?$AA?9?$AAS?$AAP?$AA?9?$AAC?$AAy?$AAr?$AAl@ 100261c0     libucrt:lcidtoname_downlevel.obj
 0002:000051d8       ??_C@_1M@LNFOCMOB@?$AAs?$AAe?$AA?9?$AAF?$AAI@ 100261d8     libucrt:lcidtoname_downlevel.obj
 0002:000051e4       ??_C@_1O@MGJBOAMB@?$AAq?$AAu?$AAz?$AA?9?$AAP?$AAE@ 100261e4     libucrt:lcidtoname_downlevel.obj
 0002:000051f4       ??_C@_1M@GJINLBOK@?$AAa?$AAr?$AA?9?$AAL?$AAY@ 100261f4     libucrt:lcidtoname_downlevel.obj
 0002:00005200       ??_C@_1M@GGMNHJNL@?$AAz?$AAh?$AA?9?$AAS?$AAG@ 10026200     libucrt:lcidtoname_downlevel.obj
 0002:0000520c       ??_C@_1M@HOIKODND@?$AAd?$AAe?$AA?9?$AAL?$AAU@ 1002620c     libucrt:lcidtoname_downlevel.obj
 0002:00005218       ??_C@_1M@DDOCCGFG@?$AAe?$AAn?$AA?9?$AAC?$AAA@ 10026218     libucrt:lcidtoname_downlevel.obj
 0002:00005224       ??_C@_1M@BNOEMJLF@?$AAe?$AAs?$AA?9?$AAG?$AAT@ 10026224     libucrt:lcidtoname_downlevel.obj
 0002:00005230       ??_C@_1M@EOGNKEK@?$AAf?$AAr?$AA?9?$AAC?$AAH@ 10026230     libucrt:lcidtoname_downlevel.obj
 0002:0000523c       ??_C@_1M@FLIDJFHL@?$AAh?$AAr?$AA?9?$AAB?$AAA@ 1002623c     libucrt:lcidtoname_downlevel.obj
 0002:00005248       ??_C@_1O@FMCELNAJ@?$AAs?$AAm?$AAj?$AA?9?$AAN?$AAO@ 10026248     libucrt:lcidtoname_downlevel.obj
 0002:00005258       ??_C@_1M@JHGLJMGJ@?$AAa?$AAr?$AA?9?$AAD?$AAZ@ 10026258     libucrt:lcidtoname_downlevel.obj
 0002:00005264       ??_C@_1M@JKKFDCNP@?$AAz?$AAh?$AA?9?$AAM?$AAO@ 10026264     libucrt:lcidtoname_downlevel.obj
 0002:00005270       ??_C@_1M@GEEFALPE@?$AAd?$AAe?$AA?9?$AAL?$AAI@ 10026270     libucrt:lcidtoname_downlevel.obj
 0002:0000527c       ??_C@_1M@IGEOFBG@?$AAe?$AAn?$AA?9?$AAN?$AAZ@ 1002627c     libucrt:lcidtoname_downlevel.obj
 0002:00005288       ??_C@_1M@KDBONEHP@?$AAe?$AAs?$AA?9?$AAC?$AAR@ 10026288     libucrt:lcidtoname_downlevel.obj
 0002:00005294       ??_C@_1M@FHMDOHNN@?$AAf?$AAr?$AA?9?$AAL?$AAU@ 10026294     libucrt:lcidtoname_downlevel.obj
 0002:000052a0       ??_C@_1BG@NFKKMAFG@?$AAb?$AAs?$AA?9?$AAB?$AAA?$AA?9?$AAL?$AAa?$AAt?$AAn@ 100262a0     libucrt:lcidtoname_downlevel.obj
 0002:000052b8       ??_C@_1O@IMNBEMCI@?$AAs?$AAm?$AAj?$AA?9?$AAS?$AAE@ 100262b8     libucrt:lcidtoname_downlevel.obj
 0002:000052c8       ??_C@_1M@DHHMBNDP@?$AAa?$AAr?$AA?9?$AAM?$AAA@ 100262c8     libucrt:lcidtoname_downlevel.obj
 0002:000052d4       ??_C@_1M@BNBLJCGH@?$AAe?$AAn?$AA?9?$AAI?$AAE@ 100262d4     libucrt:lcidtoname_downlevel.obj
 0002:000052e0       ??_C@_1M@GEPAFMDL@?$AAe?$AAs?$AA?9?$AAP?$AAA@ 100262e0     libucrt:lcidtoname_downlevel.obj
 0002:000052ec       ??_C@_1M@OJONDMDL@?$AAf?$AAr?$AA?9?$AAM?$AAC@ 100262ec     libucrt:lcidtoname_downlevel.obj
 0002:000052f8       ??_C@_1BG@OBCNFJB@?$AAs?$AAr?$AA?9?$AAB?$AAA?$AA?9?$AAL?$AAa?$AAt?$AAn@ 100262f8     libucrt:lcidtoname_downlevel.obj
 0002:00005310       ??_C@_1O@KEMEEGPO@?$AAs?$AAm?$AAa?$AA?9?$AAN?$AAO@ 10026310     libucrt:lcidtoname_downlevel.obj
 0002:00005320       ??_C@_1M@ELMGFODK@?$AAa?$AAr?$AA?9?$AAT?$AAN@ 10026320     libucrt:lcidtoname_downlevel.obj
 0002:0000532c       ??_C@_1M@BHDLHFAF@?$AAe?$AAn?$AA?9?$AAZ?$AAA@ 1002632c     libucrt:lcidtoname_downlevel.obj
 0002:00005338       ??_C@_1M@BMGIGLIF@?$AAe?$AAs?$AA?9?$AAD?$AAO@ 10026338     libucrt:lcidtoname_downlevel.obj
 0002:00005344       ??_C@_1BG@CMBHIPBE@?$AAs?$AAr?$AA?9?$AAB?$AAA?$AA?9?$AAC?$AAy?$AAr?$AAl@ 10026344     libucrt:lcidtoname_downlevel.obj
 0002:0000535c       ??_C@_1O@HEDBLHNP@?$AAs?$AAm?$AAa?$AA?9?$AAS?$AAE@ 1002635c     libucrt:lcidtoname_downlevel.obj
 0002:0000536c       ??_C@_1M@DAGCADIM@?$AAa?$AAr?$AA?9?$AAO?$AAM@ 1002636c     libucrt:lcidtoname_downlevel.obj
 0002:00005378       ??_C@_1M@FODLMICG@?$AAe?$AAn?$AA?9?$AAJ?$AAM@ 10026378     libucrt:lcidtoname_downlevel.obj
 0002:00005384       ??_C@_1M@DNMLCIHB@?$AAe?$AAs?$AA?9?$AAV?$AAE@ 10026384     libucrt:lcidtoname_downlevel.obj
 0002:00005390       ??_C@_1O@EOKHMKJK@?$AAs?$AAm?$AAs?$AA?9?$AAF?$AAI@ 10026390     libucrt:lcidtoname_downlevel.obj
 0002:000053a0       ??_C@_1M@CAFJMKOF@?$AAa?$AAr?$AA?9?$AAY?$AAE@ 100263a0     libucrt:lcidtoname_downlevel.obj
 0002:000053ac       ??_C@_1M@CBFHIJLI@?$AAe?$AAn?$AA?9?$AAC?$AAB@ 100263ac     libucrt:lcidtoname_downlevel.obj
 0002:000053b8       ??_C@_1M@BGNFLDN@?$AAe?$AAs?$AA?9?$AAC?$AAO@ 100263b8     libucrt:lcidtoname_downlevel.obj
 0002:000053c4       ??_C@_1O@JMPHMAMC@?$AAs?$AAm?$AAn?$AA?9?$AAF?$AAI@ 100263c4     libucrt:lcidtoname_downlevel.obj
 0002:000053d4       ??_C@_1M@JLANABKE@?$AAa?$AAr?$AA?9?$AAS?$AAY@ 100263d4     libucrt:lcidtoname_downlevel.obj
 0002:000053e0       ??_C@_1M@HPKGCFGN@?$AAe?$AAn?$AA?9?$AAB?$AAZ@ 100263e0     libucrt:lcidtoname_downlevel.obj
 0002:000053ec       ??_C@_1M@OLJCMLGM@?$AAe?$AAs?$AA?9?$AAP?$AAE@ 100263ec     libucrt:lcidtoname_downlevel.obj
 0002:000053f8       ??_C@_1M@MKKGFKLE@?$AAa?$AAr?$AA?9?$AAJ?$AAO@ 100263f8     libucrt:lcidtoname_downlevel.obj
 0002:00005404       ??_C@_1M@EKPGLDNI@?$AAe?$AAn?$AA?9?$AAT?$AAT@ 10026404     libucrt:lcidtoname_downlevel.obj
 0002:00005410       ??_C@_1M@OONGHFHE@?$AAe?$AAs?$AA?9?$AAA?$AAR@ 10026410     libucrt:lcidtoname_downlevel.obj
 0002:0000541c       ??_C@_1M@OOJFGBHE@?$AAa?$AAr?$AA?9?$AAL?$AAB@ 1002641c     libucrt:lcidtoname_downlevel.obj
 0002:00005428       ??_C@_1M@GCEJHNEG@?$AAe?$AAn?$AA?9?$AAZ?$AAW@ 10026428     libucrt:lcidtoname_downlevel.obj
 0002:00005434       ??_C@_1M@JNOCAHJI@?$AAe?$AAs?$AA?9?$AAE?$AAC@ 10026434     libucrt:lcidtoname_downlevel.obj
 0002:00005440       ??_C@_1M@JEFHPGGB@?$AAa?$AAr?$AA?9?$AAK?$AAW@ 10026440     libucrt:lcidtoname_downlevel.obj
 0002:0000544c       ??_C@_1M@MLKIBJOJ@?$AAe?$AAn?$AA?9?$AAP?$AAH@ 1002644c     libucrt:lcidtoname_downlevel.obj
 0002:00005458       ??_C@_1M@BDNIPEND@?$AAe?$AAs?$AA?9?$AAC?$AAL@ 10026458     libucrt:lcidtoname_downlevel.obj
 0002:00005464       ??_C@_1M@MPNMEKBD@?$AAa?$AAr?$AA?9?$AAA?$AAE@ 10026464     libucrt:lcidtoname_downlevel.obj
 0002:00005470       ??_C@_1M@KBJALCPI@?$AAe?$AAs?$AA?9?$AAU?$AAY@ 10026470     libucrt:lcidtoname_downlevel.obj
 0002:0000547c       ??_C@_1M@LLCCOAGA@?$AAa?$AAr?$AA?9?$AAB?$AAH@ 1002647c     libucrt:lcidtoname_downlevel.obj
 0002:00005488       ??_C@_1M@PBFNCDEL@?$AAe?$AAs?$AA?9?$AAP?$AAY@ 10026488     libucrt:lcidtoname_downlevel.obj
 0002:00005494       ??_C@_1M@EDGINPNP@?$AAa?$AAr?$AA?9?$AAQ?$AAA@ 10026494     libucrt:lcidtoname_downlevel.obj
 0002:000054a0       ??_C@_1M@MKDBIIJI@?$AAe?$AAs?$AA?9?$AAB?$AAO@ 100264a0     libucrt:lcidtoname_downlevel.obj
 0002:000054ac       ??_C@_1M@CPKKEBLD@?$AAe?$AAs?$AA?9?$AAS?$AAV@ 100264ac     libucrt:lcidtoname_downlevel.obj
 0002:000054b8       ??_C@_1M@NDBGMMJL@?$AAe?$AAs?$AA?9?$AAH?$AAN@ 100264b8     libucrt:lcidtoname_downlevel.obj
 0002:000054c4       ??_C@_1M@JIJIBHDP@?$AAe?$AAs?$AA?9?$AAN?$AAI@ 100264c4     libucrt:lcidtoname_downlevel.obj
 0002:000054d0       ??_C@_1M@CGFMKEEK@?$AAe?$AAs?$AA?9?$AAP?$AAR@ 100264d0     libucrt:lcidtoname_downlevel.obj
 0002:000054dc       ??_C@_1O@ICJHKIIK@?$AAz?$AAh?$AA?9?$AAC?$AAH?$AAT@ 100264dc     libucrt:lcidtoname_downlevel.obj
 0002:000054ec       ??_C@_15CLNEJCE@?$AAs?$AAr@ 100264ec     libucrt:lcidtoname_downlevel.obj
 0002:00005c18       ??_C@_1M@KAHEKEIG@?$AAa?$AAf?$AA?9?$AAz?$AAa@ 10026c18     libucrt:lcidtoname_downlevel.obj
 0002:00005c24       ??_C@_1M@GIECOABL@?$AAa?$AAr?$AA?9?$AAa?$AAe@ 10026c24     libucrt:lcidtoname_downlevel.obj
 0002:00005c30       ??_C@_1M@BMLMEKGI@?$AAa?$AAr?$AA?9?$AAb?$AAh@ 10026c30     libucrt:lcidtoname_downlevel.obj
 0002:00005c3c       ??_C@_1M@DAPFDGGB@?$AAa?$AAr?$AA?9?$AAd?$AAz@ 10026c3c     libucrt:lcidtoname_downlevel.obj
 0002:00005c48       ??_C@_1M@FJNKGKIG@?$AAa?$AAr?$AA?9?$AAe?$AAg@ 10026c48     libucrt:lcidtoname_downlevel.obj
 0002:00005c54       ??_C@_1M@FLGKKCLO@?$AAa?$AAr?$AA?9?$AAi?$AAq@ 10026c54     libucrt:lcidtoname_downlevel.obj
 0002:00005c60       ??_C@_1M@GNDIPALM@?$AAa?$AAr?$AA?9?$AAj?$AAo@ 10026c60     libucrt:lcidtoname_downlevel.obj
 0002:00005c6c       ??_C@_1M@DDMJFMGJ@?$AAa?$AAr?$AA?9?$AAk?$AAw@ 10026c6c     libucrt:lcidtoname_downlevel.obj
 0002:00005c78       ??_C@_1M@EJALMLHM@?$AAa?$AAr?$AA?9?$AAl?$AAb@ 10026c78     libucrt:lcidtoname_downlevel.obj
 0002:00005c84       ??_C@_1M@MOBDBLOC@?$AAa?$AAr?$AA?9?$AAl?$AAy@ 10026c84     libucrt:lcidtoname_downlevel.obj
 0002:00005c90       ??_C@_1M@JAOCLHDH@?$AAa?$AAr?$AA?9?$AAm?$AAa@ 10026c90     libucrt:lcidtoname_downlevel.obj
 0002:00005c9c       ??_C@_1M@JHPMKJIE@?$AAa?$AAr?$AA?9?$AAo?$AAm@ 10026c9c     libucrt:lcidtoname_downlevel.obj
 0002:00005ca8       ??_C@_1M@OEPGHFNH@?$AAa?$AAr?$AA?9?$AAq?$AAa@ 10026ca8     libucrt:lcidtoname_downlevel.obj
 0002:00005cb4       ??_C@_1M@KJDONENM@?$AAa?$AAr?$AA?9?$AAs?$AAa@ 10026cb4     libucrt:lcidtoname_downlevel.obj
 0002:00005cc0       ??_C@_1M@DMJDKLKM@?$AAa?$AAr?$AA?9?$AAs?$AAy@ 10026cc0     libucrt:lcidtoname_downlevel.obj
 0002:00005ccc       ??_C@_1M@OMFIPEDC@?$AAa?$AAr?$AA?9?$AAt?$AAn@ 10026ccc     libucrt:lcidtoname_downlevel.obj
 0002:00005cd8       ??_C@_1M@IHMHGAON@?$AAa?$AAr?$AA?9?$AAy?$AAe@ 10026cd8     libucrt:lcidtoname_downlevel.obj
 0002:00005ce4       ??_C@_1BG@KDCPGJGB@?$AAa?$AAz?$AA?9?$AAa?$AAz?$AA?9?$AAc?$AAy?$AAr?$AAl@ 10026ce4     libucrt:lcidtoname_downlevel.obj
 0002:00005cfc       ??_C@_1BG@IBCKDDOE@?$AAa?$AAz?$AA?9?$AAa?$AAz?$AA?9?$AAl?$AAa?$AAt?$AAn@ 10026cfc     libucrt:lcidtoname_downlevel.obj
 0002:00005d14       ??_C@_1M@EGPFDCPD@?$AAb?$AAe?$AA?9?$AAb?$AAy@ 10026d14     libucrt:lcidtoname_downlevel.obj
 0002:00005d20       ??_C@_1M@PCMGMCGC@?$AAb?$AAg?$AA?9?$AAb?$AAg@ 10026d20     libucrt:lcidtoname_downlevel.obj
 0002:00005d2c       ??_C@_1M@BJBMFGOB@?$AAb?$AAn?$AA?9?$AAi?$AAn@ 10026d2c     libucrt:lcidtoname_downlevel.obj
 0002:00005d38       ??_C@_1BG@EAKMMACD@?$AAb?$AAs?$AA?9?$AAb?$AAa?$AA?9?$AAl?$AAa?$AAt?$AAn@ 10026d38     libucrt:lcidtoname_downlevel.obj
 0002:00005d50       ??_C@_1M@KGADAODK@?$AAc?$AAa?$AA?9?$AAe?$AAs@ 10026d50     libucrt:lcidtoname_downlevel.obj
 0002:00005d5c       ??_C@_1M@COAJPDHI@?$AAc?$AAs?$AA?9?$AAc?$AAz@ 10026d5c     libucrt:lcidtoname_downlevel.obj
 0002:00005d68       ??_C@_1M@DHBHFONH@?$AAc?$AAy?$AA?9?$AAg?$AAb@ 10026d68     libucrt:lcidtoname_downlevel.obj
 0002:00005d74       ??_C@_1M@IMGKELGA@?$AAd?$AAa?$AA?9?$AAd?$AAk@ 10026d74     libucrt:lcidtoname_downlevel.obj
 0002:00005d80       ??_C@_1M@NNDGDNGA@?$AAd?$AAe?$AA?9?$AAa?$AAt@ 10026d80     libucrt:lcidtoname_downlevel.obj
 0002:00005d8c       ??_C@_1M@IKDBHEEM@?$AAd?$AAe?$AA?9?$AAc?$AAh@ 10026d8c     libucrt:lcidtoname_downlevel.obj
 0002:00005d98       ??_C@_1M@GFFOJMCJ@?$AAd?$AAe?$AA?9?$AAd?$AAe@ 10026d98     libucrt:lcidtoname_downlevel.obj
 0002:00005da4       ??_C@_1M@MDNLKBPM@?$AAd?$AAe?$AA?9?$AAl?$AAi@ 10026da4     libucrt:lcidtoname_downlevel.obj
 0002:00005db0       ??_C@_1M@NJBEEJNL@?$AAd?$AAe?$AA?9?$AAl?$AAu@ 10026db0     libucrt:lcidtoname_downlevel.obj
 0002:00005dbc       ??_C@_1O@GNNELBAP@?$AAd?$AAi?$AAv?$AA?9?$AAm?$AAv@ 10026dbc     libucrt:lcidtoname_downlevel.obj
 0002:00005dcc       ??_C@_1M@EJLEOGAE@?$AAe?$AAl?$AA?9?$AAg?$AAr@ 10026dcc     libucrt:lcidtoname_downlevel.obj
 0002:00005dd8       ??_C@_1M@GMPONJN@?$AAe?$AAn?$AA?9?$AAa?$AAu@ 10026dd8     libucrt:lcidtoname_downlevel.obj
 0002:00005de4       ??_C@_1M@NIDIIPGF@?$AAe?$AAn?$AA?9?$AAb?$AAz@ 10026de4     libucrt:lcidtoname_downlevel.obj
 0002:00005df0       ??_C@_1M@JEHMIMFO@?$AAe?$AAn?$AA?9?$AAc?$AAa@ 10026df0     libucrt:lcidtoname_downlevel.obj
 0002:00005dfc       ??_C@_1M@IGMJCDLA@?$AAe?$AAn?$AA?9?$AAc?$AAb@ 10026dfc     libucrt:lcidtoname_downlevel.obj
 0002:00005e08       ??_C@_1M@BNFIGBKG@?$AAe?$AAn?$AA?9?$AAg?$AAb@ 10026e08     libucrt:lcidtoname_downlevel.obj
 0002:00005e14       ??_C@_1M@LKIFDIGP@?$AAe?$AAn?$AA?9?$AAi?$AAe@ 10026e14     libucrt:lcidtoname_downlevel.obj
 0002:00005e20       ??_C@_1M@PJKFGCCO@?$AAe?$AAn?$AA?9?$AAj?$AAm@ 10026e20     libucrt:lcidtoname_downlevel.obj
 0002:00005e2c       ??_C@_1M@KPPKEPBO@?$AAe?$AAn?$AA?9?$AAn?$AAz@ 10026e2c     libucrt:lcidtoname_downlevel.obj
 0002:00005e38       ??_C@_1M@GMDGLDOB@?$AAe?$AAn?$AA?9?$AAp?$AAh@ 10026e38     libucrt:lcidtoname_downlevel.obj
 0002:00005e44       ??_C@_1M@ONGIBJNA@?$AAe?$AAn?$AA?9?$AAt?$AAt@ 10026e44     libucrt:lcidtoname_downlevel.obj
 0002:00005e50       ??_C@_1M@LLODPCMM@?$AAe?$AAn?$AA?9?$AAu?$AAs@ 10026e50     libucrt:lcidtoname_downlevel.obj
 0002:00005e5c       ??_C@_1M@LAKFNPAN@?$AAe?$AAn?$AA?9?$AAz?$AAa@ 10026e5c     libucrt:lcidtoname_downlevel.obj
 0002:00005e68       ??_C@_1M@MFNHNHEO@?$AAe?$AAn?$AA?9?$AAz?$AAw@ 10026e68     libucrt:lcidtoname_downlevel.obj
 0002:00005e74       ??_C@_1M@EJEINPHM@?$AAe?$AAs?$AA?9?$AAa?$AAr@ 10026e74     libucrt:lcidtoname_downlevel.obj
 0002:00005e80       ??_C@_1M@GNKPCCJA@?$AAe?$AAs?$AA?9?$AAb?$AAo@ 10026e80     libucrt:lcidtoname_downlevel.obj
 0002:00005e8c       ??_C@_1M@LEEGFONL@?$AAe?$AAs?$AA?9?$AAc?$AAl@ 10026e8c     libucrt:lcidtoname_downlevel.obj
 0002:00005e98       ??_C@_1M@KGPDPBDF@?$AAe?$AAs?$AA?9?$AAc?$AAo@ 10026e98     libucrt:lcidtoname_downlevel.obj
 0002:00005ea4       ??_C@_1M@EIAHOHH@?$AAe?$AAs?$AA?9?$AAc?$AAr@ 10026ea4     libucrt:lcidtoname_downlevel.obj
 0002:00005eb0       ??_C@_1M@LLPGMBIN@?$AAe?$AAs?$AA?9?$AAd?$AAo@ 10026eb0     libucrt:lcidtoname_downlevel.obj
 0002:00005ebc       ??_C@_1M@DKHMKNJA@?$AAe?$AAs?$AA?9?$AAe?$AAc@ 10026ebc     libucrt:lcidtoname_downlevel.obj
 0002:00005ec8       ??_C@_1M@GKGFPKAP@?$AAe?$AAs?$AA?9?$AAe?$AAs@ 10026ec8     libucrt:lcidtoname_downlevel.obj
 0002:00005ed4       ??_C@_1M@LKHKGDLN@?$AAe?$AAs?$AA?9?$AAg?$AAt@ 10026ed4     libucrt:lcidtoname_downlevel.obj
 0002:00005ee0       ??_C@_1M@HEIIGGJD@?$AAe?$AAs?$AA?9?$AAh?$AAn@ 10026ee0     libucrt:lcidtoname_downlevel.obj
 0002:00005eec       ??_C@_1M@FBDHPPGD@?$AAe?$AAs?$AA?9?$AAm?$AAx@ 10026eec     libucrt:lcidtoname_downlevel.obj
 0002:00005ef8       ??_C@_1M@DPAGLNDH@?$AAe?$AAs?$AA?9?$AAn?$AAi@ 10026ef8     libucrt:lcidtoname_downlevel.obj
 0002:00005f04       ??_C@_1M@MDGOPGDD@?$AAe?$AAs?$AA?9?$AAp?$AAa@ 10026f04     libucrt:lcidtoname_downlevel.obj
 0002:00005f10       ??_C@_1M@EMAMGBGE@?$AAe?$AAs?$AA?9?$AAp?$AAe@ 10026f10     libucrt:lcidtoname_downlevel.obj
 0002:00005f1c       ??_C@_1M@IBMCAOEC@?$AAe?$AAs?$AA?9?$AAp?$AAr@ 10026f1c     libucrt:lcidtoname_downlevel.obj
 0002:00005f28       ??_C@_1M@FGMDIJED@?$AAe?$AAs?$AA?9?$AAp?$AAy@ 10026f28     libucrt:lcidtoname_downlevel.obj
 0002:00005f34       ??_C@_1M@IIDEOLLL@?$AAe?$AAs?$AA?9?$AAs?$AAv@ 10026f34     libucrt:lcidtoname_downlevel.obj
 0002:00005f40       ??_C@_1M@GAOBIPA@?$AAe?$AAs?$AA?9?$AAu?$AAy@ 10026f40     libucrt:lcidtoname_downlevel.obj
 0002:00005f4c       ??_C@_1M@JKFFICHJ@?$AAe?$AAs?$AA?9?$AAv?$AAe@ 10026f4c     libucrt:lcidtoname_downlevel.obj
 0002:00005f58       ??_C@_1M@PNMLOJDF@?$AAe?$AAt?$AA?9?$AAe?$AAe@ 10026f58     libucrt:lcidtoname_downlevel.obj
 0002:00005f64       ??_C@_1M@GHHLIKEI@?$AAe?$AAu?$AA?9?$AAe?$AAs@ 10026f64     libucrt:lcidtoname_downlevel.obj
 0002:00005f70       ??_C@_1M@PBNONODE@?$AAf?$AAa?$AA?9?$AAi?$AAr@ 10026f70     libucrt:lcidtoname_downlevel.obj
 0002:00005f7c       ??_C@_1M@JEEHPMIL@?$AAf?$AAi?$AA?9?$AAf?$AAi@ 10026f7c     libucrt:lcidtoname_downlevel.obj
 0002:00005f88       ??_C@_1M@LMDCNDBA@?$AAf?$AAo?$AA?9?$AAf?$AAo@ 10026f88     libucrt:lcidtoname_downlevel.obj
 0002:00005f94       ??_C@_1M@JKEOHLDK@?$AAf?$AAr?$AA?9?$AAb?$AAe@ 10026f94     libucrt:lcidtoname_downlevel.obj
 0002:00005fa0       ??_C@_1M@NOHADPMI@?$AAf?$AAr?$AA?9?$AAc?$AAa@ 10026fa0     libucrt:lcidtoname_downlevel.obj
 0002:00005fac       ??_C@_1M@KDHIHAEC@?$AAf?$AAr?$AA?9?$AAc?$AAh@ 10026fac     libucrt:lcidtoname_downlevel.obj
 0002:00005fb8       ??_C@_1M@MMBBFGAK@?$AAf?$AAr?$AA?9?$AAf?$AAr@ 10026fb8     libucrt:lcidtoname_downlevel.obj
 0002:00005fc4       ??_C@_1M@PAFNENNF@?$AAf?$AAr?$AA?9?$AAl?$AAu@ 10026fc4     libucrt:lcidtoname_downlevel.obj
 0002:00005fd0       ??_C@_1M@EOHDJGDD@?$AAf?$AAr?$AA?9?$AAm?$AAc@ 10026fd0     libucrt:lcidtoname_downlevel.obj
 0002:00005fdc       ??_C@_1M@FAPLLOPF@?$AAg?$AAl?$AA?9?$AAe?$AAs@ 10026fdc     libucrt:lcidtoname_downlevel.obj
 0002:00005fe8       ??_C@_1M@FOPBFLOO@?$AAg?$AAu?$AA?9?$AAi?$AAn@ 10026fe8     libucrt:lcidtoname_downlevel.obj
 0002:00005ff4       ??_C@_1M@KBMCINPM@?$AAh?$AAe?$AA?9?$AAi?$AAl@ 10026ff4     libucrt:lcidtoname_downlevel.obj
 0002:00006000       ??_C@_1M@BBPHKFPJ@?$AAh?$AAi?$AA?9?$AAi?$AAn@ 10027000     libucrt:lcidtoname_downlevel.obj
 0002:0000600c       ??_C@_1M@PMBNDPHD@?$AAh?$AAr?$AA?9?$AAb?$AAa@ 1002700c     libucrt:lcidtoname_downlevel.obj
 0002:00006018       ??_C@_1M@BPCKOEGE@?$AAh?$AAr?$AA?9?$AAh?$AAr@ 10027018     libucrt:lcidtoname_downlevel.obj
 0002:00006024       ??_C@_1M@GACBMHKE@?$AAh?$AAu?$AA?9?$AAh?$AAu@ 10027024     libucrt:lcidtoname_downlevel.obj
 0002:00006030       ??_C@_1M@MILPAJJC@?$AAh?$AAy?$AA?9?$AAa?$AAm@ 10027030     libucrt:lcidtoname_downlevel.obj
 0002:0000603c       ??_C@_1M@BABBICEC@?$AAi?$AAd?$AA?9?$AAi?$AAd@ 1002703c     libucrt:lcidtoname_downlevel.obj
 0002:00006048       ??_C@_1M@BIKNHHPF@?$AAi?$AAs?$AA?9?$AAi?$AAs@ 10027048     libucrt:lcidtoname_downlevel.obj
 0002:00006054       ??_C@_1M@NMPCJPHE@?$AAi?$AAt?$AA?9?$AAc?$AAh@ 10027054     libucrt:lcidtoname_downlevel.obj
 0002:00006060       ??_C@_1M@GHKGFEDF@?$AAi?$AAt?$AA?9?$AAi?$AAt@ 10027060     libucrt:lcidtoname_downlevel.obj
 0002:0000606c       ??_C@_1M@NIEJCJJA@?$AAj?$AAa?$AA?9?$AAj?$AAp@ 1002706c     libucrt:lcidtoname_downlevel.obj
 0002:00006078       ??_C@_1M@JILFNBIM@?$AAk?$AAa?$AA?9?$AAg?$AAe@ 10027078     libucrt:lcidtoname_downlevel.obj
 0002:00006084       ??_C@_1M@PACPMGPH@?$AAk?$AAk?$AA?9?$AAk?$AAz@ 10027084     libucrt:lcidtoname_downlevel.obj
 0002:00006090       ??_C@_1M@IELFGMHA@?$AAk?$AAn?$AA?9?$AAi?$AAn@ 10027090     libucrt:lcidtoname_downlevel.obj
 0002:0000609c       ??_C@_1O@IBBJHCH@?$AAk?$AAo?$AAk?$AA?9?$AAi?$AAn@ 1002709c     libucrt:lcidtoname_downlevel.obj
 0002:000060ac       ??_C@_1M@DMHAEOGC@?$AAk?$AAo?$AA?9?$AAk?$AAr@ 100270ac     libucrt:lcidtoname_downlevel.obj
 0002:000060b8       ??_C@_1M@HBAHBIGA@?$AAk?$AAy?$AA?9?$AAk?$AAg@ 100270b8     libucrt:lcidtoname_downlevel.obj
 0002:000060c4       ??_C@_1M@KPMILCJG@?$AAl?$AAt?$AA?9?$AAl?$AAt@ 100270c4     libucrt:lcidtoname_downlevel.obj
 0002:000060d0       ??_C@_1M@BDEKKCA@?$AAl?$AAv?$AA?9?$AAl?$AAv@ 100270d0     libucrt:lcidtoname_downlevel.obj
 0002:000060dc       ??_C@_1M@ELCKCCJJ@?$AAm?$AAi?$AA?9?$AAn?$AAz@ 100270dc     libucrt:lcidtoname_downlevel.obj
 0002:000060e8       ??_C@_1M@CBOOLAPA@?$AAm?$AAk?$AA?9?$AAm?$AAk@ 100270e8     libucrt:lcidtoname_downlevel.obj
 0002:000060f4       ??_C@_1M@GPHNBJKN@?$AAm?$AAl?$AA?9?$AAi?$AAn@ 100270f4     libucrt:lcidtoname_downlevel.obj
 0002:00006100       ??_C@_1M@PABJILIG@?$AAm?$AAn?$AA?9?$AAm?$AAn@ 10027100     libucrt:lcidtoname_downlevel.obj
 0002:0000610c       ??_C@_1M@FGBKKIPG@?$AAm?$AAr?$AA?9?$AAi?$AAn@ 1002710c     libucrt:lcidtoname_downlevel.obj
 0002:00006118       ??_C@_1M@NDBPDDAL@?$AAm?$AAs?$AA?9?$AAb?$AAn@ 10027118     libucrt:lcidtoname_downlevel.obj
 0002:00006124       ??_C@_1M@OPIHOOPI@?$AAm?$AAs?$AA?9?$AAm?$AAy@ 10027124     libucrt:lcidtoname_downlevel.obj
 0002:00006130       ??_C@_1M@PPDBCNFM@?$AAm?$AAt?$AA?9?$AAm?$AAt@ 10027130     libucrt:lcidtoname_downlevel.obj
 0002:0000613c       ??_C@_1M@KDJDKMDD@?$AAn?$AAb?$AA?9?$AAn?$AAo@ 1002713c     libucrt:lcidtoname_downlevel.obj
 0002:00006148       ??_C@_1M@KFCFLMJP@?$AAn?$AAl?$AA?9?$AAb?$AAe@ 10027148     libucrt:lcidtoname_downlevel.obj
 0002:00006154       ??_C@_1M@KPOPDDGO@?$AAn?$AAl?$AA?9?$AAn?$AAl@ 10027154     libucrt:lcidtoname_downlevel.obj
 0002:00006160       ??_C@_1M@LJKPEMLN@?$AAn?$AAn?$AA?9?$AAn?$AAo@ 10027160     libucrt:lcidtoname_downlevel.obj
 0002:0000616c       ??_C@_1M@BDGHHBFL@?$AAn?$AAs?$AA?9?$AAz?$AAa@ 1002716c     libucrt:lcidtoname_downlevel.obj
 0002:00006178       ??_C@_1M@IDEHOAP@?$AAp?$AAa?$AA?9?$AAi?$AAn@ 10027178     libucrt:lcidtoname_downlevel.obj
 0002:00006184       ??_C@_1M@HDBKGOGH@?$AAp?$AAl?$AA?9?$AAp?$AAl@ 10027184     libucrt:lcidtoname_downlevel.obj
 0002:00006190       ??_C@_1M@LJLLCMEH@?$AAp?$AAt?$AA?9?$AAb?$AAr@ 10027190     libucrt:lcidtoname_downlevel.obj
 0002:0000619c       ??_C@_1M@NCMONAAL@?$AAp?$AAt?$AA?9?$AAp?$AAt@ 1002719c     libucrt:lcidtoname_downlevel.obj
 0002:000061a8       ??_C@_1O@EAKMAJDN@?$AAq?$AAu?$AAz?$AA?9?$AAb?$AAo@ 100271a8     libucrt:lcidtoname_downlevel.obj
 0002:000061b8       ??_C@_1O@BHHPIGDN@?$AAq?$AAu?$AAz?$AA?9?$AAe?$AAc@ 100271b8     libucrt:lcidtoname_downlevel.obj
 0002:000061c8       ??_C@_1O@GBAPEKMJ@?$AAq?$AAu?$AAz?$AA?9?$AAp?$AAe@ 100271c8     libucrt:lcidtoname_downlevel.obj
 0002:000061d8       ??_C@_1M@CLGLEFBO@?$AAr?$AAo?$AA?9?$AAr?$AAo@ 100271d8     libucrt:lcidtoname_downlevel.obj
 0002:000061e4       ??_C@_1M@CEEDODME@?$AAr?$AAu?$AA?9?$AAr?$AAu@ 100271e4     libucrt:lcidtoname_downlevel.obj
 0002:000061f0       ??_C@_1M@HPKKKMPP@?$AAs?$AAa?$AA?9?$AAi?$AAn@ 100271f0     libucrt:lcidtoname_downlevel.obj
 0002:000061fc       ??_C@_1M@BKMAIGOJ@?$AAs?$AAe?$AA?9?$AAf?$AAi@ 100271fc     libucrt:lcidtoname_downlevel.obj
 0002:00006208       ??_C@_1M@NDPIFLFI@?$AAs?$AAe?$AA?9?$AAn?$AAo@ 10027208     libucrt:lcidtoname_downlevel.obj
 0002:00006214       ??_C@_1M@DANKKHJ@?$AAs?$AAe?$AA?9?$AAs?$AAe@ 10027214     libucrt:lcidtoname_downlevel.obj
 0002:00006220       ??_C@_1M@PNBLONPJ@?$AAs?$AAk?$AA?9?$AAs?$AAk@ 10027220     libucrt:lcidtoname_downlevel.obj
 0002:0000622c       ??_C@_1M@LFMODOAL@?$AAs?$AAl?$AA?9?$AAs?$AAi@ 1002722c     libucrt:lcidtoname_downlevel.obj
 0002:00006238       ??_C@_1O@DFKOMPG@?$AAs?$AAm?$AAa?$AA?9?$AAn?$AAo@ 10027238     libucrt:lcidtoname_downlevel.obj
 0002:00006248       ??_C@_1O@NDKPBNNH@?$AAs?$AAm?$AAa?$AA?9?$AAs?$AAe@ 10027248     libucrt:lcidtoname_downlevel.obj
 0002:00006258       ??_C@_1O@PLLKBHAB@?$AAs?$AAm?$AAj?$AA?9?$AAn?$AAo@ 10027258     libucrt:lcidtoname_downlevel.obj
 0002:00006268       ??_C@_1O@CLEPOGCA@?$AAs?$AAm?$AAj?$AA?9?$AAs?$AAe@ 10027268     libucrt:lcidtoname_downlevel.obj
 0002:00006278       ??_C@_1O@DLGJGKMK@?$AAs?$AAm?$AAn?$AA?9?$AAf?$AAi@ 10027278     libucrt:lcidtoname_downlevel.obj
 0002:00006288       ??_C@_1O@OJDJGAJC@?$AAs?$AAm?$AAs?$AA?9?$AAf?$AAi@ 10027288     libucrt:lcidtoname_downlevel.obj
 0002:00006298       ??_C@_1M@BOFOGHPB@?$AAs?$AAq?$AA?9?$AAa?$AAl@ 10027298     libucrt:lcidtoname_downlevel.obj
 0002:000062a4       ??_C@_1BG@LJBBIPGB@?$AAs?$AAr?$AA?9?$AAb?$AAa?$AA?9?$AAc?$AAy?$AAr?$AAl@ 100272a4     libucrt:lcidtoname_downlevel.obj
 0002:000062bc       ??_C@_1BG@JLBENFOE@?$AAs?$AAr?$AA?9?$AAb?$AAa?$AA?9?$AAl?$AAa?$AAt?$AAn@ 100272bc     libucrt:lcidtoname_downlevel.obj
 0002:000062d4       ??_C@_1BG@KODPNHE@?$AAs?$AAr?$AA?9?$AAs?$AAp?$AA?9?$AAc?$AAy?$AAr?$AAl@ 100272d4     libucrt:lcidtoname_downlevel.obj
 0002:000062ec       ??_C@_1BG@CIOGKHPB@?$AAs?$AAr?$AA?9?$AAs?$AAp?$AA?9?$AAl?$AAa?$AAt?$AAn@ 100272ec     libucrt:lcidtoname_downlevel.obj
 0002:00006304       ??_C@_1M@NGFJLMAC@?$AAs?$AAv?$AA?9?$AAf?$AAi@ 10027304     libucrt:lcidtoname_downlevel.obj
 0002:00006310       ??_C@_1M@MPJEJAJC@?$AAs?$AAv?$AA?9?$AAs?$AAe@ 10027310     libucrt:lcidtoname_downlevel.obj
 0002:0000631c       ??_C@_1M@MPNDHLFK@?$AAs?$AAw?$AA?9?$AAk?$AAe@ 1002731c     libucrt:lcidtoname_downlevel.obj
 0002:00006328       ??_C@_1O@KOHBJJI@?$AAs?$AAy?$AAr?$AA?9?$AAs?$AAy@ 10027328     libucrt:lcidtoname_downlevel.obj
 0002:00006338       ??_C@_1M@LDCEFHA@?$AAt?$AAa?$AA?9?$AAi?$AAn@ 10027338     libucrt:lcidtoname_downlevel.obj
 0002:00006344       ??_C@_1M@CNJOFAK@?$AAt?$AAe?$AA?9?$AAi?$AAn@ 10027344     libucrt:lcidtoname_downlevel.obj
 0002:00006350       ??_C@_1M@GNAECACD@?$AAt?$AAh?$AA?9?$AAt?$AAh@ 10027350     libucrt:lcidtoname_downlevel.obj
 0002:0000635c       ??_C@_1M@CHBIHOJO@?$AAt?$AAn?$AA?9?$AAz?$AAa@ 1002735c     libucrt:lcidtoname_downlevel.obj
 0002:00006368       ??_C@_1M@GCCMIGPJ@?$AAt?$AAr?$AA?9?$AAt?$AAr@ 10027368     libucrt:lcidtoname_downlevel.obj
 0002:00006374       ??_C@_1M@CELMCNBK@?$AAt?$AAt?$AA?9?$AAr?$AAu@ 10027374     libucrt:lcidtoname_downlevel.obj
 0002:00006380       ??_C@_1M@KLMCELGA@?$AAu?$AAk?$AA?9?$AAu?$AAa@ 10027380     libucrt:lcidtoname_downlevel.obj
 0002:0000638c       ??_C@_1M@EPAJJAJF@?$AAu?$AAr?$AA?9?$AAp?$AAk@ 1002738c     libucrt:lcidtoname_downlevel.obj
 0002:00006398       ??_C@_1BG@GEGPMCDJ@?$AAu?$AAz?$AA?9?$AAu?$AAz?$AA?9?$AAc?$AAy?$AAr?$AAl@ 10027398     libucrt:lcidtoname_downlevel.obj
 0002:000063b0       ??_C@_1BG@EGGKJILM@?$AAu?$AAz?$AA?9?$AAu?$AAz?$AA?9?$AAl?$AAa?$AAt?$AAn@ 100273b0     libucrt:lcidtoname_downlevel.obj
 0002:000063c8       ??_C@_1M@GFOCLFF@?$AAv?$AAi?$AA?9?$AAv?$AAn@ 100273c8     libucrt:lcidtoname_downlevel.obj
 0002:000063d4       ??_C@_1M@CPAMEDFI@?$AAx?$AAh?$AA?9?$AAz?$AAa@ 100273d4     libucrt:lcidtoname_downlevel.obj
 0002:000063e0       ??_C@_1O@EBKIFIGN@?$AAz?$AAh?$AA?9?$AAc?$AAh?$AAs@ 100273e0     libucrt:lcidtoname_downlevel.obj
 0002:000063f0       ??_C@_1O@NMHPGANE@?$AAz?$AAh?$AA?9?$AAc?$AAh?$AAt@ 100273f0     libucrt:lcidtoname_downlevel.obj
 0002:00006400       ??_C@_1M@LPINJOMC@?$AAz?$AAh?$AA?9?$AAc?$AAn@ 10027400     libucrt:lcidtoname_downlevel.obj
 0002:0000640c       ??_C@_1M@OCJEJODD@?$AAz?$AAh?$AA?9?$AAh?$AAk@ 1002740c     libucrt:lcidtoname_downlevel.obj
 0002:00006418       ??_C@_1M@DNDLJINH@?$AAz?$AAh?$AA?9?$AAm?$AAo@ 10027418     libucrt:lcidtoname_downlevel.obj
 0002:00006424       ??_C@_1M@MBFDNDND@?$AAz?$AAh?$AA?9?$AAs?$AAg@ 10027424     libucrt:lcidtoname_downlevel.obj
 0002:00006430       ??_C@_1M@IMEPLEPE@?$AAz?$AAh?$AA?9?$AAt?$AAw@ 10027430     libucrt:lcidtoname_downlevel.obj
 0002:0000643c       ??_C@_1M@BBGHNHJP@?$AAz?$AAu?$AA?9?$AAz?$AAa@ 1002743c     libucrt:lcidtoname_downlevel.obj
 0002:00006448       ?large_power_data@?1??multiply_by_power_of_ten@__crt_strtox@@YA_NAAUbig_integer@2@I@Z@4QBIB 10027448     libucrt:cfout.obj
 0002:00006de8       ?small_powers_of_ten@?1??multiply_by_power_of_ten@__crt_strtox@@YA_NAAUbig_integer@2@I@Z@4QBIB 10027de8     libucrt:cfout.obj
 0002:00006e0c       ??_C@_01GBGANLPD@0@        10027e0c     libucrt:cfout.obj
 0002:00006e10       ??_C@_05DNEBIAHO@1?$CDINF@ 10027e10     libucrt:cfout.obj
 0002:00006e18       ??_C@_06IMKFLFPG@1?$CDQNAN@ 10027e18     libucrt:cfout.obj
 0002:00006e20       ??_C@_06PGGFOGJG@1?$CDSNAN@ 10027e20     libucrt:cfout.obj
 0002:00006e28       ??_C@_05PHHOCPM@1?$CDIND@  10027e28     libucrt:cfout.obj
 0002:00006f90       __infinity                 10027f90     libucrt:87tran.obj
 0002:00006f9a       __minfinity                10027f9a     libucrt:87tran.obj
 0002:00006fa4       __logemax                  10027fa4     libucrt:87tran.obj
 0002:00006fca       __OP_EXPjmptab             10027fca     libucrt:87tran.obj
 0002:00006ff0       __indefinite               10027ff0     libucrt:87disp.obj
 0002:00006ffa       __piby2                    10027ffa     libucrt:87disp.obj
 0002:00007004       __piby4                    10028004     libucrt:87disp.obj
 0002:00007038       __DEFAULT_CW_in_mem        10028038     libucrt:common.obj
 0002:0000703a       __pi_by_2_to_61            1002803a     libucrt:common.obj
 0002:00007074       ??_C@_03MGHMBJCF@log@      10028074     libucrt:libm_error.obj
 0002:00007078       ??_C@_05HGHHAHAP@log10@    10028078     libucrt:libm_error.obj
 0002:00007080       ??_C@_03KHJOGHMM@exp@      10028080     libucrt:libm_error.obj
 0002:00007084       ??_C@_03JGHBODFD@pow@      10028084     libucrt:libm_error.obj
 0002:00007088       ??_C@_04FIHNOPOL@asin@     10028088     libucrt:libm_error.obj
 0002:00007090       ??_C@_04PDIFKINK@acos@     10028090     libucrt:libm_error.obj
 0002:00007098       ??_C@_04EIAKFFMI@sqrt@     10028098     libucrt:libm_error.obj
 0002:000070a0       __real@3ff0000000000000    100280a0     libucrt:libm_error.obj
 0002:000070a8       ??_C@_1BA@BALFACEM@?$AAC?$AAO?$AAN?$AAO?$AAU?$AAT?$AA$@ 100280a8     libucrt:initcon.obj
 0002:000070d0       ___acrt_log10_table_t      100280d0     libucrt:log10_tables.obj
 0002:000074e0       ___acrt_log10_table_cb     100284e0     libucrt:log10_tables.obj
 0002:000078f0       __real@3fe0000000000000    100288f0     libucrt:powhlp.obj
 0002:000079e0       ??_C@_04COOMCNPB@sinh@     100289e0     libucrt:fpexcept.obj
 0002:000079e8       ??_C@_04HPJJNFIM@cosh@     100289e8     libucrt:fpexcept.obj
 0002:000079f0       ??_C@_04FJHINJAO@tanh@     100289f0     libucrt:fpexcept.obj
 0002:000079f8       ??_C@_04MLLJIGOK@atan@     100289f8     libucrt:fpexcept.obj
 0002:00007a00       ??_C@_05KNGEOGJB@atan2@    10028a00     libucrt:fpexcept.obj
 0002:00007a08       ??_C@_03BLEJJJBH@sin@      10028a08     libucrt:fpexcept.obj
 0002:00007a0c       ??_C@_03LALBNOCG@cos@      10028a0c     libucrt:fpexcept.obj
 0002:00007a10       ??_C@_03IIINPABG@tan@      10028a10     libucrt:fpexcept.obj
 0002:00007a14       ??_C@_04GFPJNGEK@ceil@     10028a14     libucrt:fpexcept.obj
 0002:00007a1c       ??_C@_05PBJFFIGL@floor@    10028a1c     libucrt:fpexcept.obj
 0002:00007a24       ??_C@_04ODHECPBC@fabs@     10028a24     libucrt:fpexcept.obj
 0002:00007a2c       ??_C@_04EHEDPDJG@modf@     10028a2c     libucrt:fpexcept.obj
 0002:00007a34       ??_C@_05CEJMAHNP@ldexp@    10028a34     libucrt:fpexcept.obj
 0002:00007a3c       ??_C@_05KBKMEMPO@_cabs@    10028a3c     libucrt:fpexcept.obj
 0002:00007a44       ??_C@_06MEIMCGCF@_hypot@   10028a44     libucrt:fpexcept.obj
 0002:00007a4c       ??_C@_04KEPJIHGP@fmod@     10028a4c     libucrt:fpexcept.obj
 0002:00007a54       ??_C@_05GKKHEGJL@frexp@    10028a54     libucrt:fpexcept.obj
 0002:00007a5c       ??_C@_03MJLDFKDL@_y0@      10028a5c     libucrt:fpexcept.obj
 0002:00007a60       ??_C@_03NAKIGLHK@_y1@      10028a60     libucrt:fpexcept.obj
 0002:00007a64       ??_C@_03ONILCKOB@_yn@      10028a64     libucrt:fpexcept.obj
 0002:00007a68       ??_C@_05JGDBENOH@_logb@    10028a68     libucrt:fpexcept.obj
 0002:00007a70       ??_C@_0L@KDOEJCKC@_nextafter@ 10028a70     libucrt:fpexcept.obj
 0002:00007a80       __d_inf                    10028a80     libucrt:util.obj
 0002:00007a88       __d_max                    10028a88     libucrt:util.obj
 0002:00007a90       __d_mzero                  10028a90     libucrt:util.obj
 0002:00007b08       __load_config_used         10028b08     LIBCMT:loadcfg.obj
 0002:00007bac       __tls_used                 10028bac     LIBCMT:tlssup.obj
 0002:00007bc4       ??_R4exception@std@@6B@    10028bc4     LIBCMT:throw_bad_alloc.obj
 0002:00007bd8       ??_R3exception@std@@8      10028bd8     LIBCMT:throw_bad_alloc.obj
 0002:00007be8       ??_R2exception@std@@8      10028be8     LIBCMT:throw_bad_alloc.obj
 0002:00007bf0       ??_R1A@?0A@EA@exception@std@@8 10028bf0     LIBCMT:throw_bad_alloc.obj
 0002:00007c0c       ??_R4bad_alloc@std@@6B@    10028c0c     LIBCMT:throw_bad_alloc.obj
 0002:00007c20       ??_R3bad_alloc@std@@8      10028c20     LIBCMT:throw_bad_alloc.obj
 0002:00007c30       ??_R2bad_alloc@std@@8      10028c30     LIBCMT:throw_bad_alloc.obj
 0002:00007c3c       ??_R1A@?0A@EA@bad_alloc@std@@8 10028c3c     LIBCMT:throw_bad_alloc.obj
 0002:00007c58       ??_R4bad_array_new_length@std@@6B@ 10028c58     LIBCMT:throw_bad_alloc.obj
 0002:00007c6c       ??_R3bad_array_new_length@std@@8 10028c6c     LIBCMT:throw_bad_alloc.obj
 0002:00007c7c       ??_R2bad_array_new_length@std@@8 10028c7c     LIBCMT:throw_bad_alloc.obj
 0002:00007c8c       ??_R1A@?0A@EA@bad_array_new_length@std@@8 10028c8c     LIBCMT:throw_bad_alloc.obj
 0002:00007ca8       ??_R4type_info@@6B@        10028ca8     LIBCMT:std_type_info_static.obj
 0002:00007cbc       ??_R3type_info@@8          10028cbc     LIBCMT:std_type_info_static.obj
 0002:00007ccc       ??_R2type_info@@8          10028ccc     LIBCMT:std_type_info_static.obj
 0002:00007cd4       ??_R1A@?0A@EA@type_info@@8 10028cd4     LIBCMT:std_type_info_static.obj
 0002:00007cf0       ??_R4bad_exception@std@@6B@ 10028cf0     libvcruntime:frame.obj
 0002:00007d04       ??_R3bad_exception@std@@8  10028d04     libvcruntime:frame.obj
 0002:00007d14       ??_R2bad_exception@std@@8  10028d14     libvcruntime:frame.obj
 0002:00007d20       ??_R1A@?0A@EA@bad_exception@std@@8 10028d20     libvcruntime:frame.obj
 0002:00007d40       ___safe_se_handler_table   10028d40     <linker-defined>
 0002:0000813c       ___rtc_iaa                 1002913c     LIBCMT:initsect.obj
 0002:00008140       ___rtc_izz                 10029140     LIBCMT:initsect.obj
 0002:00008144       ___rtc_taa                 10029144     LIBCMT:initsect.obj
 0002:00008148       ___rtc_tzz                 10029148     LIBCMT:initsect.obj
 0002:0000814c       __tls_start                1002914c     LIBCMT:tlssup.obj
 0002:00008150       __Init_thread_epoch        10029150     LIBCMT:thread_safe_statics.obj
 0002:00008154       __tls_end                  10029154     LIBCMT:tlssup.obj
 0002:00008254       __TI2?AVbad_alloc@std@@    10029254     LIBCMT:throw_bad_alloc.obj
 0002:00008264       __CTA2?AVbad_alloc@std@@   10029264     LIBCMT:throw_bad_alloc.obj
 0002:00008270       __CT??_R0?AVbad_alloc@std@@@8??0bad_alloc@std@@QAE@ABV01@@Z12 10029270     LIBCMT:throw_bad_alloc.obj
 0002:0000828c       __CT??_R0?AVexception@std@@@8??0exception@std@@QAE@ABV01@@Z12 1002928c     LIBCMT:throw_bad_alloc.obj
 0002:000082a8       __TI3?AVbad_array_new_length@std@@ 100292a8     LIBCMT:throw_bad_alloc.obj
 0002:000082b8       __CTA3?AVbad_array_new_length@std@@ 100292b8     LIBCMT:throw_bad_alloc.obj
 0002:000082c8       __CT??_R0?AVbad_array_new_length@std@@@8??0bad_array_new_length@std@@QAE@ABV01@@Z12 100292c8     LIBCMT:throw_bad_alloc.obj
 0002:000083ec       __TI2?AVbad_exception@std@@ 100293ec     libvcruntime:frame.obj
 0002:000083fc       __CTA2?AVbad_exception@std@@ 100293fc     libvcruntime:frame.obj
 0002:00008408       __CT??_R0?AVbad_exception@std@@@8??0bad_exception@std@@QAE@ABV01@@Z12 10029408     libvcruntime:frame.obj
 0002:00008764       ___pobjMapEntryFirst       10029764     OposVariant.obj
 0002:00008768       ___pobjMapEntryLast        10029768     OposVariant.obj
 0002:00008820       __IMPORT_DESCRIPTOR_KERNEL32 10029820     kernel32:KERNEL32.dll
 0002:00008834       __IMPORT_DESCRIPTOR_USER32 10029834     user32:USER32.dll
 0002:00008848       __IMPORT_DESCRIPTOR_GDI32  10029848     gdi32:GDI32.dll
 0002:0000885c       __IMPORT_DESCRIPTOR_ADVAPI32 1002985c     advapi32:ADVAPI32.dll
 0002:00008870       __IMPORT_DESCRIPTOR_ole32  10029870     ole32:ole32.dll
 0002:00008884       __IMPORT_DESCRIPTOR_OLEAUT32 10029884     oleaut32:OLEAUT32.dll
 0002:00008898       __NULL_IMPORT_DESCRIPTOR   10029898     kernel32:KERNEL32.dll
 0003:00000000       ?s_Claim@?7??GetIDsOfNames@CComTypeInfoHolder@ATL@@QAEJABU_GUID@@PAPA_WIKPAJ@Z@4PA_WA 1002b000     FiscalPrinter.obj
 0003:00000018       ?s_Release@?7??GetIDsOfNames@CComTypeInfoHolder@ATL@@QAEJABU_GUID@@PAPA_WIKPAJ@Z@4PA_WA 1002b018     FiscalPrinter.obj
 0003:00000034       ?_tih@?$IDispatchImpl@UIOPOSFiscalPrinter@@$1?IID_IOPOSFiscalPrinter@@3U_GUID@@B$1?LIBID_OposFiscalPrinter_CCO@@3U3@B$00$0A@VCComTypeInfoHolder@ATL@@@ATL@@1VCComTypeInfoHolder@2@A 1002b034     FiscalPrinter.obj
 0003:00000050       ?_tih@?$IProvideClassInfo2Impl@$1?CLSID_OPOSFiscalPrinter@@3U_GUID@@B$1?DIID__IOPOSFiscalPrinterEvents@@3U2@B$1?LIBID_OposFiscalPrinter_CCO@@3U2@B$00$0A@VCComTypeInfoHolder@ATL@@@ATL@@1VCComTypeInfoHolder@2@A 1002b050     FiscalPrinter.obj
 0003:0000006c       ?vszContents@?6??Save@?$IPersistStorageImpl@VCOPOSFiscalPrinter@@@ATL@@UAGJPAUIStorage@@H@Z@4PB_WB 1002b06c     FiscalPrinter.obj
 0003:00000070       ?rcDefault@CWindow@ATL@@2UtagRECT@@A 1002b070     FiscalPrinter.obj
 0003:00000080       ?wc@?1??GetWndClassInfo@?$CWindowImpl@VCOPOSFiscalPrinter@@VCWindow@ATL@@V?$CWinTraits@$0FGAAAAAA@$0A@@3@@ATL@@SAAAU_ATL_WNDCLASSINFOW@3@XZ@4U43@A 1002b080     FiscalPrinter.obj
 0003:00000158       ?g_WindowName@@3PA_WA      1002b158     FiscalPrinterImpl.obj
 0003:00000188       ?g_ControlDescription@@3PADA 1002b188     FiscalPrinterImpl.obj
 0003:000001d8       ?g_ControlVersion@@3JA     1002b1d8     FiscalPrinterImpl.obj
 0003:00000348       ___scrt_native_dllmain_reason 1002b348     LIBCMT:utility.obj
 0003:0000034c       __Init_global_epoch        1002b34c     LIBCMT:thread_safe_statics.obj
 0003:00000350       ___security_cookie_complement 1002b350     LIBCMT:gs_cookie.obj
 0003:00000354       ___security_cookie         1002b354     LIBCMT:gs_cookie.obj
 0003:00000358       ___isa_enabled             1002b358     LIBCMT:cpu_disp.obj
 0003:00000370       __NLG_Destination          1002b370     libvcruntime:exsup.obj
 0003:00000388       ___abort_behavior          1002b388     libucrt:abort.obj
 0003:00000398       __iob                      1002b398     libucrt:_file.obj
 0003:00000440       ___acrt_initial_locale_data 1002b440     libucrt:nlsdata.obj
 0003:000004f8       ___acrt_initial_locale_pointers 1002b4f8     libucrt:nlsdata.obj
 0003:00000500       ___acrt_wide_c_locale_string 1002b500     libucrt:nlsdata.obj
 0003:00000508       ___acrt_initial_multibyte_data 1002b508     libucrt:mbctype.obj
 0003:00000a28       __pwctype                  1002ba28     libucrt:ctype.obj
 0003:00000a2c       ___globallocalestatus      1002ba2c     libucrt:glstatus.obj
 0003:00000a30       ___acrt_lconv_c            1002ba30     libucrt:localeconv.obj
 0003:00000a80       ___acrt_lconv_static_decimal 1002ba80     libucrt:localeconv.obj
 0003:00000a84       ___acrt_lconv_static_W_decimal 1002ba84     libucrt:localeconv.obj
 0003:00000a90       __lookuptrailbytes         1002ba90     libucrt:read.obj
 0003:00000ba0       __fltused                  1002bba0     LIBCMT:fltused.obj
 0003:00000bb0       ??_R0?AVbad_alloc@std@@@8  1002bbb0     LIBCMT:throw_bad_alloc.obj
 0003:00000bcc       ??_R0?AVexception@std@@@8  1002bbcc     LIBCMT:throw_bad_alloc.obj
 0003:00000be8       ??_R0?AVbad_array_new_length@std@@@8 1002bbe8     LIBCMT:throw_bad_alloc.obj
 0003:00000c10       ??_R0?AVtype_info@@@8      1002bc10     LIBCMT:std_type_info_static.obj
 0003:00000c28       ??_R0?AVbad_exception@std@@@8 1002bc28     libvcruntime:frame.obj
 0003:00000c48       ?_pPerfRegFunc@ATL@@3P6AJPAUHINSTANCE__@@@ZA 1002bc48     OposVariant.obj
 0003:00000c4c       ?_pPerfUnRegFunc@ATL@@3P6AJXZA 1002bc4c     OposVariant.obj
 0003:00000c50       ?_AtlRegisterPerUser@ATL@@3_NA 1002bc50     OposVariant.obj
 0003:00000c54       ?_pAtlModule@ATL@@3PAVCAtlModule@1@A 1002bc54     OposVariant.obj
 0003:00000c58       ?_pModule@ATL@@3PAVCComModule@1@A 1002bc58     OposVariant.obj
 0003:00000c5c       ?m_bInitFailed@CAtlBaseModule@ATL@@2_NA 1002bc5c     OposVariant.obj
 0003:00000c60       ?_AtlComModule@ATL@@3VCAtlComModule@1@A 1002bc60     OposVariant.obj
 0003:00000c88       ?_AtlWinModule@ATL@@3VCAtlWinModule@1@A 1002bc88     OposVariant.obj
 0003:00000cb4       ?m_libid@CAtlModule@ATL@@2U_GUID@@A 1002bcb4     FiscalPrinter.obj
 0003:00000cc4       ?_entries@?1??GetConnMap@COPOSFiscalPrinter@@SAPBU_ATL_CONNMAP_ENTRY@ATL@@PAH@Z@4QBU34@B 1002bcc4     FiscalPrinter.obj
 0003:00000cd0       ?$TSS0@?1??GetConnMap@COPOSFiscalPrinter@@SAPBU_ATL_CONNMAP_ENTRY@ATL@@PAH@Z@4HA 1002bcd0     FiscalPrinter.obj
 0003:00000cd8       ?_OptionsStorage@?1??__local_stdio_printf_options@@9@4_KA 1002bcd8     FiscalPrinter.obj
 0003:00000ce0       ?pfnRegDeleteKeyEx@?1??DeleteSubKey@CRegKey@ATL@@QAEJPB_W@Z@4P6GJPAUHKEY__@@0KK@ZA 1002bce0     FiscalPrinter.obj
 0003:00000ce4       ?bInitialized@?1??DeleteSubKey@CRegKey@ATL@@QAEJPB_W@Z@4_NA 1002bce4     FiscalPrinter.obj
 0003:00000ce8       ?_Module@@3VCComModule@ATL@@A 1002bce8     FiscalPrinter.obj
 0003:00000d18       ?pConnMap@?$IConnectionPointContainerImpl@VCOPOSFiscalPrinter@@@ATL@@0PBU_ATL_CONNMAP_ENTRY@2@B 1002bd18     FiscalPrinter.obj
 0003:00000d1c       ?s_nInstances@COPOSFiscalPrinter@@1HA 1002bd1c     FiscalPrinterImpl.obj
 0003:00000d20       ___scrt_current_native_startup_state 1002bd20     LIBCMT:utility.obj
 0003:00000d24       ___scrt_native_startup_lock 1002bd24     LIBCMT:utility.obj
 0003:0000108c       __tls_index                1002c08c     LIBCMT:tlssup.obj
 0003:00001094       ___isa_available           1002c094     LIBCMT:cpu_disp.obj
 0003:00001098       ___favor                   1002c098     LIBCMT:cpu_disp.obj
 0003:0000109c       ___scrt_debugger_hook_flag 1002c09c     LIBCMT:utility_desktop.obj
 0003:000010a0       ?__type_info_root_node@@3U__type_info_node@@A 1002c0a0     LIBCMT:tncleanup.obj
 0003:000010a8       ?_OptionsStorage@?1??__local_stdio_scanf_options@@9@4_KA 1002c0a8     LIBCMT:default_local_stdio_options.obj
 0003:000010b0       ?_AtlBaseModule@ATL@@3VCAtlBaseModule@1@A 1002c0b0     atls:atlbase.obj
 0003:000010e8       ?__AtlThunkPool@@3PAT_SLIST_HEADER@@A 1002c0e8     atls:atlthunk.obj
 0003:00001100       ___@@_PchSym_@00@UztvmgUPdlipUGUhUrmgvinvwrzgvUexgllohUzgohOmzgrevkilqPBACIAJCBDBUlyqiUcIGUhgwzucOlyq@4B2008FD98C1DD4 1002c100     atls:stdafx.obj
 0003:00001104       ?__WinRTOutOfMemoryExceptionCallback@@3P6GPAXXZA 1002c104     libvcruntime:ehhelpers.obj
 0003:00001108       ___pPurecall               1002c108     libvcruntime:purevirt_data.obj
 0003:00001150       ?pArgList@UnDecorator@@0PAVReplicator@@A 1002c150     libvcruntime:undname.obj
 0003:00001154       ?pZNameList@UnDecorator@@0PAVReplicator@@A 1002c154     libvcruntime:undname.obj
 0003:00001158       ?pTemplateArgList@UnDecorator@@0PAVReplicator@@A 1002c158     libvcruntime:undname.obj
 0003:0000115c       ?gName@UnDecorator@@0PBDB  1002c15c     libvcruntime:undname.obj
 0003:00001160       ?name@UnDecorator@@0PBDB   1002c160     libvcruntime:undname.obj
 0003:00001164       ?disableFlags@UnDecorator@@0KA 1002c164     libvcruntime:undname.obj
 0003:00001168       ?fExplicitTemplateParams@UnDecorator@@0_NA 1002c168     libvcruntime:undname.obj
 0003:00001169       ?fGetTemplateArgumentList@UnDecorator@@0_NA 1002c169     libvcruntime:undname.obj
 0003:0000116c       ?m_pGetParameter@UnDecorator@@0P6APADJ@ZA 1002c16c     libvcruntime:undname.obj
 0003:00001170       ?m_CHPENameOffset@UnDecorator@@0KA 1002c170     libvcruntime:undname.obj
 0003:00001174       ?m_recursionLevel@UnDecorator@@0KA 1002c174     libvcruntime:undname.obj
 0003:000011b8       ?c_exit_complete@?1???R<lambda_6e4b09c48022b2350581041d5f6b0c4c>@@QBE@XZ@4_NA 1002c1b8     libucrt:exit.obj
 0003:000012c8       __environ_table            1002c2c8     libucrt:environment_initialization.obj
 0003:000012cc       __wenviron_table           1002c2cc     libucrt:environment_initialization.obj
 0003:000012d0       ___dcrt_initial_wide_environment 1002c2d0     libucrt:environment_initialization.obj
 0003:000012d4       ___dcrt_initial_narrow_environment 1002c2d4     libucrt:environment_initialization.obj
 0003:000012d8       ___acrt_atexit_table       1002c2d8     libucrt:onexit.obj
 0003:000012e4       ___acrt_at_quick_exit_table 1002c2e4     libucrt:onexit.obj
 0003:000013d8       __nstream                  1002c3d8     libucrt:_file.obj
 0003:000013dc       ___piob                    1002c3dc     libucrt:_file.obj
 0003:000013e4       ___acrt_stdout_buffer      1002c3e4     libucrt:_sftbuf.obj
 0003:000013e8       ___acrt_stderr_buffer      1002c3e8     libucrt:_sftbuf.obj
 0003:000013ec       ___acrt_locale_changed_data 1002c3ec     libucrt:wsetlocale.obj
 0003:000013f0       ___acrt_current_locale_data 1002c3f0     libucrt:nlsdata.obj
 0003:000013f8       ___pioinfo                 1002c3f8     libucrt:ioinit.obj
 0003:000015f8       __nhandle                  1002c5f8     libucrt:ioinit.obj
 0003:00001754       __mbctype                  1002c754     libucrt:mbctype.obj
 0003:00001758       __mbcasemap                1002c758     libucrt:mbctype.obj
 0003:0000175c       ___acrt_current_multibyte_data 1002c75c     libucrt:mbctype.obj
 0003:00001768       __pgmptr                   1002c768     libucrt:argv_data.obj
 0003:0000176c       ___argc                    1002c76c     libucrt:argv_data.obj
 0003:00001770       ___argv                    1002c770     libucrt:argv_data.obj
 0003:00001774       ___wargv                   1002c774     libucrt:argv_data.obj
 0003:00001778       __acmdln                   1002c778     libucrt:argv_data.obj
 0003:0000177c       __wcmdln                   1002c77c     libucrt:argv_data.obj
 0003:00001780       ___acrt_heap               1002c780     libucrt:heap_handle.obj
 0003:0000179c       ___acrt_lconv_static_null  1002c79c     libucrt:localeconv.obj
 0003:000017a0       ___acrt_lconv_static_W_null 1002c7a0     libucrt:localeconv.obj
 0003:000017b0       ___fastflag                1002c7b0     libucrt:fp_flags.obj
 0003:000017b8       ___dyn_tls_init_callback   1002c7b8     <common>
 0003:000017bc       ___scrt_ucrt_dll_is_in_use 1002c7bc     <common>
 0003:000017c0       __pmatherr                 1002c7c0     <common>
 0003:000017c4       ___use_sse2_mathfcns       1002c7c4     <common>

 entry point at        0001:0000e308

 Static symbols

 0000:fffc6000       .debug$S                   10000000     OPOSFiscalPrinter.exp
 0000:fffc6000       .debug$S                   10000000     advapi32:ADVAPI32.dll
 0000:fffc6000       .debug$S                   10000000     advapi32:ADVAPI32.dll
 0000:fffc6000       .debug$S                   10000000     advapi32:ADVAPI32.dll
 0000:fffc6000       .debug$S                   10000000     advapi32:ADVAPI32.dll
 0000:fffc6000       .debug$S                   10000000     advapi32:ADVAPI32.dll
 0000:fffc6000       .debug$S                   10000000     advapi32:ADVAPI32.dll
 0000:fffc6000       .debug$S                   10000000     advapi32:ADVAPI32.dll
 0000:fffc6000       .debug$S                   10000000     advapi32:ADVAPI32.dll
 0000:fffc6000       .debug$S                   10000000     advapi32:ADVAPI32.dll
 0000:fffc6000       .debug$S                   10000000     gdi32:GDI32.dll
 0000:fffc6000       .debug$S                   10000000     gdi32:GDI32.dll
 0000:fffc6000       .debug$S                   10000000     gdi32:GDI32.dll
 0000:fffc6000       .debug$S                   10000000     gdi32:GDI32.dll
 0000:fffc6000       .debug$S                   10000000     gdi32:GDI32.dll
 0000:fffc6000       .debug$S                   10000000     gdi32:GDI32.dll
 0000:fffc6000       .debug$S                   10000000     gdi32:GDI32.dll
 0000:fffc6000       .debug$S                   10000000     gdi32:GDI32.dll
 0000:fffc6000       .debug$S                   10000000     gdi32:GDI32.dll
 0000:fffc6000       .debug$S                   10000000     gdi32:GDI32.dll
 0000:fffc6000       .debug$S                   10000000     gdi32:GDI32.dll
 0000:fffc6000       .debug$S                   10000000     gdi32:GDI32.dll
 0000:fffc6000       .debug$S                   10000000     gdi32:GDI32.dll
 0000:fffc6000       .debug$S                   10000000     gdi32:GDI32.dll
 0000:fffc6000       .debug$S                   10000000     gdi32:GDI32.dll
 0000:fffc6000       .debug$S                   10000000     gdi32:GDI32.dll
 0000:fffc6000       .debug$S                   10000000     gdi32:GDI32.dll
 0000:fffc6000       .debug$S                   10000000     gdi32:GDI32.dll
 0000:fffc6000       .debug$S                   10000000     gdi32:GDI32.dll
 0000:fffc6000       .debug$S                   10000000     kernel32:KERNEL32.dll
 0000:fffc6000       .debug$S                   10000000     kernel32:KERNEL32.dll
 0000:fffc6000       .debug$S                   10000000     kernel32:KERNEL32.dll
 0000:fffc6000       .debug$S                   10000000     kernel32:KERNEL32.dll
 0000:fffc6000       .debug$S                   10000000     kernel32:KERNEL32.dll
 0000:fffc6000       .debug$S                   10000000     kernel32:KERNEL32.dll
 0000:fffc6000       .debug$S                   10000000     kernel32:KERNEL32.dll
 0000:fffc6000       .debug$S                   10000000     kernel32:KERNEL32.dll
 0000:fffc6000       .debug$S                   10000000     kernel32:KERNEL32.dll
 0000:fffc6000       .debug$S                   10000000     kernel32:KERNEL32.dll
 0000:fffc6000       .debug$S                   10000000     kernel32:KERNEL32.dll
 0000:fffc6000       .debug$S                   10000000     kernel32:KERNEL32.dll
 0000:fffc6000       .debug$S                   10000000     kernel32:KERNEL32.dll
 0000:fffc6000       .debug$S                   10000000     kernel32:KERNEL32.dll
 0000:fffc6000       .debug$S                   10000000     kernel32:KERNEL32.dll
 0000:fffc6000       .debug$S                   10000000     kernel32:KERNEL32.dll
 0000:fffc6000       .debug$S                   10000000     kernel32:KERNEL32.dll
 0000:fffc6000       .debug$S                   10000000     kernel32:KERNEL32.dll
 0000:fffc6000       .debug$S                   10000000     kernel32:KERNEL32.dll
 0000:fffc6000       .debug$S                   10000000     kernel32:KERNEL32.dll
 0000:fffc6000       .debug$S                   10000000     kernel32:KERNEL32.dll
 0000:fffc6000       .debug$S                   10000000     kernel32:KERNEL32.dll
 0000:fffc6000       .debug$S                   10000000     kernel32:KERNEL32.dll
 0000:fffc6000       .debug$S                   10000000     kernel32:KERNEL32.dll
 0000:fffc6000       .debug$S                   10000000     kernel32:KERNEL32.dll
 0000:fffc6000       .debug$S                   10000000     kernel32:KERNEL32.dll
 0000:fffc6000       .debug$S                   10000000     kernel32:KERNEL32.dll
 0000:fffc6000       .debug$S                   10000000     kernel32:KERNEL32.dll
 0000:fffc6000       .debug$S                   10000000     kernel32:KERNEL32.dll
 0000:fffc6000       .debug$S                   10000000     kernel32:KERNEL32.dll
 0000:fffc6000       .debug$S                   10000000     kernel32:KERNEL32.dll
 0000:fffc6000       .debug$S                   10000000     kernel32:KERNEL32.dll
 0000:fffc6000       .debug$S                   10000000     kernel32:KERNEL32.dll
 0000:fffc6000       .debug$S                   10000000     kernel32:KERNEL32.dll
 0000:fffc6000       .debug$S                   10000000     kernel32:KERNEL32.dll
 0000:fffc6000       .debug$S                   10000000     kernel32:KERNEL32.dll
 0000:fffc6000       .debug$S                   10000000     kernel32:KERNEL32.dll
 0000:fffc6000       .debug$S                   10000000     kernel32:KERNEL32.dll
 0000:fffc6000       .debug$S                   10000000     kernel32:KERNEL32.dll
 0000:fffc6000       .debug$S                   10000000     kernel32:KERNEL32.dll
 0000:fffc6000       .debug$S                   10000000     kernel32:KERNEL32.dll
 0000:fffc6000       .debug$S                   10000000     kernel32:KERNEL32.dll
 0000:fffc6000       .debug$S                   10000000     kernel32:KERNEL32.dll
 0000:fffc6000       .debug$S                   10000000     kernel32:KERNEL32.dll
 0000:fffc6000       .debug$S                   10000000     kernel32:KERNEL32.dll
 0000:fffc6000       .debug$S                   10000000     kernel32:KERNEL32.dll
 0000:fffc6000       .debug$S                   10000000     kernel32:KERNEL32.dll
 0000:fffc6000       .debug$S                   10000000     kernel32:KERNEL32.dll
 0000:fffc6000       .debug$S                   10000000     kernel32:KERNEL32.dll
 0000:fffc6000       .debug$S                   10000000     kernel32:KERNEL32.dll
 0000:fffc6000       .debug$S                   10000000     kernel32:KERNEL32.dll
 0000:fffc6000       .debug$S                   10000000     kernel32:KERNEL32.dll
 0000:fffc6000       .debug$S                   10000000     kernel32:KERNEL32.dll
 0000:fffc6000       .debug$S                   10000000     kernel32:KERNEL32.dll
 0000:fffc6000       .debug$S                   10000000     kernel32:KERNEL32.dll
 0000:fffc6000       .debug$S                   10000000     kernel32:KERNEL32.dll
 0000:fffc6000       .debug$S                   10000000     kernel32:KERNEL32.dll
 0000:fffc6000       .debug$S                   10000000     kernel32:KERNEL32.dll
 0000:fffc6000       .debug$S                   10000000     kernel32:KERNEL32.dll
 0000:fffc6000       .debug$S                   10000000     kernel32:KERNEL32.dll
 0000:fffc6000       .debug$S                   10000000     kernel32:KERNEL32.dll
 0000:fffc6000       .debug$S                   10000000     kernel32:KERNEL32.dll
 0000:fffc6000       .debug$S                   10000000     kernel32:KERNEL32.dll
 0000:fffc6000       .debug$S                   10000000     kernel32:KERNEL32.dll
 0000:fffc6000       .debug$S                   10000000     kernel32:KERNEL32.dll
 0000:fffc6000       .debug$S                   10000000     kernel32:KERNEL32.dll
 0000:fffc6000       .debug$S                   10000000     kernel32:KERNEL32.dll
 0000:fffc6000       .debug$S                   10000000     kernel32:KERNEL32.dll
 0000:fffc6000       .debug$S                   10000000     kernel32:KERNEL32.dll
 0000:fffc6000       .debug$S                   10000000     kernel32:KERNEL32.dll
 0000:fffc6000       .debug$S                   10000000     kernel32:KERNEL32.dll
 0000:fffc6000       .debug$S                   10000000     kernel32:KERNEL32.dll
 0000:fffc6000       .debug$S                   10000000     kernel32:KERNEL32.dll
 0000:fffc6000       .debug$S                   10000000     kernel32:KERNEL32.dll
 0000:fffc6000       .debug$S                   10000000     kernel32:KERNEL32.dll
 0000:fffc6000       .debug$S                   10000000     kernel32:KERNEL32.dll
 0000:fffc6000       .debug$S                   10000000     kernel32:KERNEL32.dll
 0000:fffc6000       .debug$S                   10000000     kernel32:KERNEL32.dll
 0000:fffc6000       .debug$S                   10000000     kernel32:KERNEL32.dll
 0000:fffc6000       .debug$S                   10000000     kernel32:KERNEL32.dll
 0000:fffc6000       .debug$S                   10000000     kernel32:KERNEL32.dll
 0000:fffc6000       .debug$S                   10000000     kernel32:KERNEL32.dll
 0000:fffc6000       .debug$S                   10000000     kernel32:KERNEL32.dll
 0000:fffc6000       .debug$S                   10000000     kernel32:KERNEL32.dll
 0000:fffc6000       .debug$S                   10000000     kernel32:KERNEL32.dll
 0000:fffc6000       .debug$S                   10000000     kernel32:KERNEL32.dll
 0000:fffc6000       .debug$S                   10000000     kernel32:KERNEL32.dll
 0000:fffc6000       .debug$S                   10000000     kernel32:KERNEL32.dll
 0000:fffc6000       .debug$S                   10000000     kernel32:KERNEL32.dll
 0000:fffc6000       .debug$S                   10000000     kernel32:KERNEL32.dll
 0000:fffc6000       .debug$S                   10000000     kernel32:KERNEL32.dll
 0000:fffc6000       .debug$S                   10000000     kernel32:KERNEL32.dll
 0000:fffc6000       .debug$S                   10000000     kernel32:KERNEL32.dll
 0000:fffc6000       .debug$S                   10000000     kernel32:KERNEL32.dll
 0000:fffc6000       .debug$S                   10000000     kernel32:KERNEL32.dll
 0000:fffc6000       .debug$S                   10000000     kernel32:KERNEL32.dll
 0000:fffc6000       .debug$S                   10000000     kernel32:KERNEL32.dll
 0000:fffc6000       .debug$S                   10000000     kernel32:KERNEL32.dll
 0000:fffc6000       .debug$S                   10000000     kernel32:KERNEL32.dll
 0000:fffc6000       .debug$S                   10000000     kernel32:KERNEL32.dll
 0000:fffc6000       .debug$S                   10000000     kernel32:KERNEL32.dll
 0000:fffc6000       .debug$S                   10000000     kernel32:KERNEL32.dll
 0000:fffc6000       .debug$S                   10000000     kernel32:KERNEL32.dll
 0000:fffc6000       .debug$S                   10000000     kernel32:KERNEL32.dll
 0000:fffc6000       .debug$S                   10000000     kernel32:KERNEL32.dll
 0000:fffc6000       .debug$S                   10000000     kernel32:KERNEL32.dll
 0000:fffc6000       .debug$S                   10000000     ole32:ole32.dll
 0000:fffc6000       .debug$S                   10000000     ole32:ole32.dll
 0000:fffc6000       .debug$S                   10000000     ole32:ole32.dll
 0000:fffc6000       .debug$S                   10000000     ole32:ole32.dll
 0000:fffc6000       .debug$S                   10000000     ole32:ole32.dll
 0000:fffc6000       .debug$S                   10000000     ole32:ole32.dll
 0000:fffc6000       .debug$S                   10000000     ole32:ole32.dll
 0000:fffc6000       .debug$S                   10000000     ole32:ole32.dll
 0000:fffc6000       .debug$S                   10000000     ole32:ole32.dll
 0000:fffc6000       .debug$S                   10000000     ole32:ole32.dll
 0000:fffc6000       .debug$S                   10000000     ole32:ole32.dll
 0000:fffc6000       .debug$S                   10000000     ole32:ole32.dll
 0000:fffc6000       .debug$S                   10000000     ole32:ole32.dll
 0000:fffc6000       .debug$S                   10000000     ole32:ole32.dll
 0000:fffc6000       .debug$S                   10000000     oleaut32:OLEAUT32.dll
 0000:fffc6000       .debug$S                   10000000     oleaut32:OLEAUT32.dll
 0000:fffc6000       .debug$S                   10000000     oleaut32:OLEAUT32.dll
 0000:fffc6000       .debug$S                   10000000     oleaut32:OLEAUT32.dll
 0000:fffc6000       .debug$S                   10000000     oleaut32:OLEAUT32.dll
 0000:fffc6000       .debug$S                   10000000     oleaut32:OLEAUT32.dll
 0000:fffc6000       .debug$S                   10000000     oleaut32:OLEAUT32.dll
 0000:fffc6000       .debug$S                   10000000     oleaut32:OLEAUT32.dll
 0000:fffc6000       .debug$S                   10000000     oleaut32:OLEAUT32.dll
 0000:fffc6000       .debug$S                   10000000     oleaut32:OLEAUT32.dll
 0000:fffc6000       .debug$S                   10000000     oleaut32:OLEAUT32.dll
 0000:fffc6000       .debug$S                   10000000     oleaut32:OLEAUT32.dll
 0000:fffc6000       .debug$S                   10000000     oleaut32:OLEAUT32.dll
 0000:fffc6000       .debug$S                   10000000     oleaut32:OLEAUT32.dll
 0000:fffc6000       .debug$S                   10000000     oleaut32:OLEAUT32.dll
 0000:fffc6000       .debug$S                   10000000     oleaut32:OLEAUT32.dll
 0000:fffc6000       .debug$S                   10000000     user32:USER32.dll
 0000:fffc6000       .debug$S                   10000000     user32:USER32.dll
 0000:fffc6000       .debug$S                   10000000     user32:USER32.dll
 0000:fffc6000       .debug$S                   10000000     user32:USER32.dll
 0000:fffc6000       .debug$S                   10000000     user32:USER32.dll
 0000:fffc6000       .debug$S                   10000000     user32:USER32.dll
 0000:fffc6000       .debug$S                   10000000     user32:USER32.dll
 0000:fffc6000       .debug$S                   10000000     user32:USER32.dll
 0000:fffc6000       .debug$S                   10000000     user32:USER32.dll
 0000:fffc6000       .debug$S                   10000000     user32:USER32.dll
 0000:fffc6000       .debug$S                   10000000     user32:USER32.dll
 0000:fffc6000       .debug$S                   10000000     user32:USER32.dll
 0000:fffc6000       .debug$S                   10000000     user32:USER32.dll
 0000:fffc6000       .debug$S                   10000000     user32:USER32.dll
 0000:fffc6000       .debug$S                   10000000     user32:USER32.dll
 0000:fffc6000       .debug$S                   10000000     user32:USER32.dll
 0000:fffc6000       .debug$S                   10000000     user32:USER32.dll
 0000:fffc6000       .debug$S                   10000000     user32:USER32.dll
 0000:fffc6000       .debug$S                   10000000     user32:USER32.dll
 0000:fffc6000       .debug$S                   10000000     user32:USER32.dll
 0000:fffc6000       .debug$S                   10000000     user32:USER32.dll
 0000:fffc6000       .debug$S                   10000000     user32:USER32.dll
 0000:fffc6000       .debug$S                   10000000     user32:USER32.dll
 0000:fffc6000       .debug$S                   10000000     user32:USER32.dll
 0000:fffc6000       .debug$S                   10000000     user32:USER32.dll
 0000:fffc6000       .debug$S                   10000000     user32:USER32.dll
 0000:fffc6000       .debug$S                   10000000     user32:USER32.dll
 0000:fffc6000       .debug$S                   10000000     user32:USER32.dll
 0000:fffc6000       .debug$S                   10000000     user32:USER32.dll
 0000:fffc6000       .debug$S                   10000000     user32:USER32.dll
 0000:fffc6000       .debug$S                   10000000     user32:USER32.dll
 0000:fffc6000       .debug$S                   10000000     user32:USER32.dll
 0000:fffc6000       .debug$S                   10000000     user32:USER32.dll
 0000:fffc6000       .debug$S                   10000000     user32:USER32.dll
 0000:fffc6000       .debug$S                   10000000     user32:USER32.dll
 0001:00000000       ??__E_AtlComModule@ATL@@YAXXZ 10001000 f   OposVariant.obj
 0001:00000016       ??__E_AtlWinModule@ATL@@YAXXZ 10001016 f   OposVariant.obj
 0001:0000002c       ??__E?pConnMap@?$IConnectionPointContainerImpl@VCOPOSFiscalPrinter@@@ATL@@0PBU_ATL_CONNMAP_ENTRY@2@B@@YAXXZ 1000102c f   FiscalPrinter.obj
 0001:0000003a       ??__E_Module@@YAXXZ        1000103a f   FiscalPrinter.obj
 0001:00000064       ??__E_AtlBaseModule@ATL@@YAXXZ 10001064 f   atls:atlbase.obj
 0001:000013b2       $LN24                      100023b2     FiscalPrinter.obj
 0001:000058fa       $LN47                      100068fa     FiscalPrinter.obj
 0001:00005912       $LN46                      10006912     FiscalPrinter.obj
 0001:00007adf       $LN37                      10008adf     FiscalPrinter.obj
 0001:00007af7       $LN36                      10008af7     FiscalPrinter.obj
 0001:000091d3       $LN76                      1000a1d3     FiscalPrinter.obj
 0001:000091eb       $LN75                      1000a1eb     FiscalPrinter.obj
 0001:000095a4       _memcpy_s                  1000a5a4 f   FiscalPrinter.obj
 0001:0000d79d       ?find_pe_section@@YAPAU_IMAGE_SECTION_HEADER@@QAEI@Z 1000e79d f   LIBCMT:utility.obj
 0001:0000dabc       ?__scrt_initialize_thread_safe_statics@@YAHXZ 1000eabc f   LIBCMT:thread_safe_statics.obj
 0001:0000dae3       ?__scrt_initialize_thread_safe_statics_platform_specific@@YAXXZ 1000eae3 f   LIBCMT:thread_safe_statics.obj
 0001:0000db65       ?__scrt_uninitialize_thread_safe_statics@@YAXXZ 1000eb65 f   LIBCMT:thread_safe_statics.obj
 0001:0000ded4       __catch$??2@YAPAXIABUnothrow_t@std@@@Z$0 1000eed4 f   LIBCMT:new_scalar_nothrow.obj
 0001:0000df10       $$000000                   1000ef10     LIBCMT:sehprolg4gs.obj
 0001:0000df70       $$000000                   1000ef70     LIBCMT:alloca16.obj
 0001:0000dfa0       $$000000                   1000efa0     LIBCMT:chkstk.obj
 0001:0000dfcd       ?dllmain_crt_dispatch@@YGHQAUHINSTANCE__@@KQAX@Z 1000efcd f   LIBCMT:dll_dllmain.obj
 0001:0000e020       ?dllmain_crt_process_attach@@YAHQAUHINSTANCE__@@QAX@Z 1000f020 f   LIBCMT:dll_dllmain.obj
 0001:0000e127       ?dllmain_crt_process_detach@@YAH_N@Z 1000f127 f   LIBCMT:dll_dllmain.obj
 0001:0000e1d7       ?dllmain_dispatch@@YAHQAUHINSTANCE__@@KQAX@Z 1000f1d7 f   LIBCMT:dll_dllmain.obj
 0001:0000e2dd       ?dllmain_raw@@YGHQAUHINSTANCE__@@KQAX@Z 1000f2dd f   LIBCMT:dll_dllmain.obj
 0001:0000e660       $$000000                   1000f660     LIBCMT:sehprolg4.obj
 0001:0000e6bc       ___get_entropy             1000f6bc f   LIBCMT:gs_support.obj
 0001:0000e9b3       ??$GetProcAddressAll@P6GP6GJPAUHWND__@@IIJ@ZPAUAtlThunkData_t@@@Z@@YAP6GP6GJPAUHWND__@@IIJ@ZPAUAtlThunkData_t@@@ZPAP6GP6GJ0IIJ@Z1@Z@Z 1000f9b3 f   atls:atlthunk.obj
 0001:0000e9b3       ??$GetProcAddressAll@P6GPAUAtlThunkData_t@@XZ@@YAP6GPAUAtlThunkData_t@@XZPAP6GPAU0@XZ@Z 1000f9b3 f   atls:atlthunk.obj
 0001:0000e9b3       ??$GetProcAddressAll@P6GXPAUAtlThunkData_t@@@Z@@YAP6GXPAUAtlThunkData_t@@@ZPAP6GX0@Z@Z 1000f9b3 f   atls:atlthunk.obj
 0001:0000e9b3       ??$GetProcAddressAll@P6GXPAUAtlThunkData_t@@PAXI@Z@@YAP6GXPAUAtlThunkData_t@@PAXI@ZPAP6GX01I@Z@Z 1000f9b3 f   atls:atlthunk.obj
 0001:0000ea63       ?GetProcAddressSingle@@YA_NPAUHINSTANCE__@@PBDPAPAX@Z 1000fa63 f   atls:atlthunk.obj
 0001:0000ebb5       ?__InitializeThunkPool@@YAHXZ 1000fbb5 f   atls:atlthunk.obj
 0001:0000f010       _ValidateLocalCookies      10010010 f   libvcruntime:chandler4.obj
 0001:000100d2       $LN1241                    100110d2     libvcruntime:memcmp.obj
 0001:00010160       $$000000                   10011160     libvcruntime:memcpy.obj
 0001:000103c4       TrailingUpVec              100113c4     libvcruntime:memcpy.obj
 0001:00010470       TrailingDownVec            10011470     libvcruntime:memcpy.obj
 0001:000106e0       $$000000                   100116e0     libvcruntime:memset.obj
 0001:00010ce3       ?_FilterSetCurrentException@@YAKPAU_EXCEPTION_POINTERS@@E@Z 10011ce3 f   libvcruntime:ehhelpers.obj
 0001:00010f30       $$000000                   10011f30     libvcruntime:memmove.obj
 0001:00011194       TrailingUpVec              10012194     libvcruntime:memmove.obj
 0001:00011240       TrailingDownVec            10012240     libvcruntime:memmove.obj
 0001:000114b0       $$000000                   100124b0     libvcruntime:exsup4.obj
 0001:00011540       __unwind_handler4          10012540 f   libvcruntime:exsup4.obj
 0001:0001181f       ??$BuildCatchObjectHelperInternal@V__FrameHandler3@@@@YAHPAUEHExceptionRecord@@PAXPBU_s_HandlerType@@PBU_s_CatchableType@@@Z 1001281f f   libvcruntime:frame.obj
 0001:0001195d       ??$BuildCatchObjectInternal@V__FrameHandler3@@@@YAXPAUEHExceptionRecord@@PAXPBU_s_HandlerType@@PBU_s_CatchableType@@@Z 1001295d f   libvcruntime:frame.obj
 0001:000119f6       ??$CatchIt@V__FrameHandler3@@@@YAXPAUEHExceptionRecord@@PAUEHRegistrationNode@@PAU_CONTEXT@@PAXPBU_s_FuncInfo@@PBU_s_HandlerType@@PBU_s_CatchableType@@PBU_s_TryBlockMapEntry@@H1EE@Z 100129f6 f   libvcruntime:frame.obj
 0001:00011a76       ??$FindHandler@V__FrameHandler3@@@@YAXPAUEHExceptionRecord@@PAUEHRegistrationNode@@PAU_CONTEXT@@PAXPBU_s_FuncInfo@@EH1@Z 10012a76 f   libvcruntime:frame.obj
 0001:00011e2c       ??$FindHandlerForForeignException@V__FrameHandler3@@@@YAXPAUEHExceptionRecord@@PAUEHRegistrationNode@@PAU_CONTEXT@@PAXPBU_s_FuncInfo@@HH1@Z 10012e2c f   libvcruntime:frame.obj
 0001:00012144       ?CallCatchBlock@@YAPAXPAUEHExceptionRecord@@PAUEHRegistrationNode@@PAU_CONTEXT@@PBU_s_FuncInfo@@PAXHK@Z 10013144 f   libvcruntime:frame.obj
 0001:00012308       ?CallUnexpected@@YAXPBU_s_ESTypeList@@@Z 10013308 f   libvcruntime:frame.obj
 0001:00012328       __catch$?CallUnexpected@@YAXPBU_s_ESTypeList@@@Z$0 10013328 f   libvcruntime:frame.obj
 0001:00012342       ?ExFilterRethrow@@YAHPAU_EXCEPTION_POINTERS@@@Z 10013342 f   libvcruntime:frame.obj
 0001:0001248c       ?IsInExceptionSpec@@YAEPAUEHExceptionRecord@@PBU_s_ESTypeList@@@Z 1001348c f   libvcruntime:frame.obj
 0001:00012560       $$000000                   10013560     libvcruntime:lowhelpr.obj
 0001:000125b0       $$000000                   100135b0     libvcruntime:exsup.obj
 0001:000125d1       __unwind_handler           100135d1 f   libvcruntime:exsup.obj
 0001:000126ee       ?try_get_first_available_module@@YAPAUHINSTANCE__@@QBW4module_id@?A0x1172487b@@0@Z 100136ee f   libvcruntime:winapi_downlevel.obj
 0001:0001279a       ?try_get_function@@YAPAXW4function_id@?A0x1172487b@@QBDQBW4module_id@2@2@Z 1001379a f   libvcruntime:winapi_downlevel.obj
 0001:00012e24       ??$common_tcsncpy_s@_W@@YAHQA_WIQB_WI@Z 10013e24 f   libucrt:wcsncpy_s.obj
 0001:00012efa       ??$common_vsprintf@Vformat_validation_base@__crt_stdio_output@@_W@@YAH_KQA_WIQB_WQAU__crt_locale_pointers@@QAD@Z 10013efa f   libucrt:output.obj
 0001:00013081       ??$common_vsprintf_s@_W@@YAH_KQA_WIQB_WQAU__crt_locale_pointers@@QAD@Z 10014081 f   libucrt:output.obj
 0001:000137b0       $LN51                      100147b0     libucrt:output.obj
 0001:00013cab       $LN20                      10014cab     libucrt:output.obj
 0001:00013cbf       $LN17                      10014cbf     libucrt:output.obj
 0001:0001451e       ??$?RV<lambda_03b1d95aef87969028cfba75ccab2455>@@AAV<lambda_6e4b09c48022b2350581041d5f6b0c4c>@@V<lambda_22bdf7517842c4b3e53723af5aa32b9e>@@@?$__crt_seh_guarded_call@X@@QAEX$$QAV<lambda_03b1d95aef87969028cfba75ccab2455>@@AAV<lambda_6e4b09c48022b2350581041d5f6b0c4c>@@$$QAV<lambda_22bdf7517842c4b3e53723af5aa32b9e>@@@Z 1001551e f   libucrt:exit.obj
 0001:0001456b       ??R<lambda_6e4b09c48022b2350581041d5f6b0c4c>@@QBE@XZ 1001556b f   libucrt:exit.obj
 0001:00014645       ?atexit_exception_filter@@YAHK@Z 10015645 f   libucrt:exit.obj
 0001:00014658       ?common_exit@@YAXHW4_crt_exit_cleanup_mode@@W4_crt_exit_return_mode@@@Z 10015658 f   libucrt:exit.obj
 0001:000146bc       ?exit_or_terminate_process@@YAXI@Z 100156bc f   libucrt:exit.obj
 0001:000146fe       ?is_managed_app@@YA_NXZ    100156fe f   libucrt:exit.obj
 0001:00014741       ?try_cor_exit_process@@YAXI@Z 10015741 f   libucrt:exit.obj
 0001:000147cf       ??$common_configure_argv@D@@YAHW4_crt_argv_mode@@@Z 100157cf f   libucrt:argv_parsing.obj
 0001:00014905       ??$parse_command_line@D@@YAXPADPAPAD0PAI2@Z 10015905 f   libucrt:argv_parsing.obj
 0001:00014ad6       ??$common_initialize_environment_nolock@D@@YAHXZ 10015ad6 f   libucrt:environment_initialization.obj
 0001:00014b29       ??$create_environment@D@@YAQAPADQAD@Z 10015b29 f   libucrt:environment_initialization.obj
 0001:00014bf9       ??$free_environment@D@@YAXQAPAD@Z 10015bf9 f   libucrt:environment_initialization.obj
 0001:00014bf9       ??$free_environment@_W@@YAXQAPA_W@Z 10015bf9 f   libucrt:environment_initialization.obj
 0001:00014c51       ??$uninitialize_environment_internal@D@@YAXAAPAPAD@Z 10015c51 f   libucrt:environment_initialization.obj
 0001:00014c6c       ??$uninitialize_environment_internal@_W@@YAXAAPAPA_W@Z 10015c6c f   libucrt:environment_initialization.obj
 0001:00014cc3       ??$?RV<lambda_69a2805e680e0e292e8ba93315fe43a8>@@AAV<lambda_f03950bc5685219e0bcd2087efbe011e>@@V<lambda_03fcd07e894ec930e3f35da366ca99d6>@@@?$__crt_seh_guarded_call@H@@QAEH$$QAV<lambda_69a2805e680e0e292e8ba93315fe43a8>@@AAV<lambda_f03950bc5685219e0bcd2087efbe011e>@@$$QAV<lambda_03fcd07e894ec930e3f35da366ca99d6>@@@Z 10015cc3 f   libucrt:onexit.obj
 0001:00014d1e       ??$?RV<lambda_8e746cf0007f6ed984d6f78af1fec997>@@AAV<lambda_22ebabd17bc4fa466a2aca6d8deb888d>@@V<lambda_18ed0c0b38a6dc0daf1e7ac6d6adf05e>@@@?$__crt_seh_guarded_call@H@@QAEH$$QAV<lambda_8e746cf0007f6ed984d6f78af1fec997>@@AAV<lambda_22ebabd17bc4fa466a2aca6d8deb888d>@@$$QAV<lambda_18ed0c0b38a6dc0daf1e7ac6d6adf05e>@@@Z 10015d1e f   libucrt:onexit.obj
 0001:00014d98       ??R<lambda_22ebabd17bc4fa466a2aca6d8deb888d>@@QBEHXZ 10015d98 f   libucrt:onexit.obj
 0001:00014ec1       ??R<lambda_f03950bc5685219e0bcd2087efbe011e>@@QBEHXZ 10015ec1 f   libucrt:onexit.obj
 0001:0001503a       _initialize_environment    1001603a f   libucrt:initialization.obj
 0001:0001503a       _initialize_global_state_isolation 1001603a f   libucrt:initialization.obj
 0001:0001503a       _report_memory_leaks       1001603a f   libucrt:initialization.obj
 0001:0001503a       _uninitialize_c            1001603a f   libucrt:initialization.obj
 0001:0001503a       _uninitialize_global_state_isolation 1001603a f   libucrt:initialization.obj
 0001:0001503d       _initialize_global_variables 1001603d f   libucrt:initialization.obj
 0001:0001504a       _initialize_c              1001604a f   libucrt:initialization.obj
 0001:00015064       _uninitialize_environment  10016064 f   libucrt:initialization.obj
 0001:0001506c       _initialize_pointers       1001606c f   libucrt:initialization.obj
 0001:0001509a       _uninitialize_vcruntime    1001609a f   libucrt:initialization.obj
 0001:000150a3       _uninitialize_allocated_memory 100160a3 f   libucrt:initialization.obj
 0001:000150ba       _uninitialize_allocated_io_buffers 100160ba f   libucrt:initialization.obj
 0001:0001510a       ??R<lambda_af42a3ee9806e9a7305d451646e05244>@@QBEXAAPAU__crt_multibyte_data@@@Z 1001610a f   libucrt:initialization.obj
 0001:000159f0       $$000000                   100169f0     libucrt:strncmp.obj
 0001:00015adc       ??$?RV<lambda_15ade71b0218206bbe3333a0c9b79046>@@AAV<lambda_da44e0f8b0f19ba52fefafb335991732>@@V<lambda_207f2d024fc103971653565357d6cd41>@@@?$__crt_seh_guarded_call@X@@QAEX$$QAV<lambda_15ade71b0218206bbe3333a0c9b79046>@@AAV<lambda_da44e0f8b0f19ba52fefafb335991732>@@$$QAV<lambda_207f2d024fc103971653565357d6cd41>@@@Z 10016adc f   libucrt:per_thread_data.obj
 0001:00015b2e       ??$?RV<lambda_38edbb1296d33220d7e4dd0ed76b244a>@@AAV<lambda_5ce1d447e08cb34b2473517608e21441>@@V<lambda_fb385d3da700c9147fc39e65dd577a8c>@@@?$__crt_seh_guarded_call@X@@QAEX$$QAV<lambda_38edbb1296d33220d7e4dd0ed76b244a>@@AAV<lambda_5ce1d447e08cb34b2473517608e21441>@@$$QAV<lambda_fb385d3da700c9147fc39e65dd577a8c>@@@Z 10016b2e f   libucrt:per_thread_data.obj
 0001:00015b99       ??$?RV<lambda_6affb1475c98b40b75cdec977db92e3c>@@AAV<lambda_b8d4b9c228a6ecc3f80208dbb4b4a104>@@V<lambda_608742c3c92a14382c1684fc64f96c88>@@@?$__crt_seh_guarded_call@X@@QAEX$$QAV<lambda_6affb1475c98b40b75cdec977db92e3c>@@AAV<lambda_b8d4b9c228a6ecc3f80208dbb4b4a104>@@$$QAV<lambda_608742c3c92a14382c1684fc64f96c88>@@@Z 10016b99 f   libucrt:per_thread_data.obj
 0001:00015bee       ??$?RV<lambda_a7e850c220f1c8d1e6efeecdedd162c6>@@AAV<lambda_46720907175c18b6c9d2717bc0d2d362>@@V<lambda_9048902d66e8d99359bc9897bbb930a8>@@@?$__crt_seh_guarded_call@X@@QAEX$$QAV<lambda_a7e850c220f1c8d1e6efeecdedd162c6>@@AAV<lambda_46720907175c18b6c9d2717bc0d2d362>@@$$QAV<lambda_9048902d66e8d99359bc9897bbb930a8>@@@Z 10016bee f   libucrt:per_thread_data.obj
 0001:00015c48       ?construct_ptd@@YAXQAU__acrt_ptd@@QAPAU__crt_locale_data@@@Z 10016c48 f   libucrt:per_thread_data.obj
 0001:00015ce1       ?destroy_fls@@YGXPAX@Z     10016ce1 f   libucrt:per_thread_data.obj
 0001:00015d02       ?destroy_ptd@@YAXQAU__acrt_ptd@@@Z 10016d02 f   libucrt:per_thread_data.obj
 0001:00015dcf       ?replace_current_thread_locale_nolock@@YAXQAU__acrt_ptd@@QAU__crt_locale_data@@@Z 10016dcf f   libucrt:per_thread_data.obj
 0001:000161df       ?try_get_AreFileApisANSI@@YAP6GHXZXZ 100171df f   libucrt:winapi_thunks.obj
 0001:000161f9       ?try_get_LCMapStringEx@@YAP6GHPB_WK0HPA_WHPAU_nlsversioninfo@@PAXJ@ZXZ 100171f9 f   libucrt:winapi_thunks.obj
 0001:00016213       ?try_get_LocaleNameToLCID@@YAP6GKPB_WK@ZXZ 10017213 f   libucrt:winapi_thunks.obj
 0001:0001622d       ?try_get_first_available_module@@YAPAUHINSTANCE__@@QBW4module_id@?A0x391cf84c@@0@Z 1001722d f   libucrt:winapi_thunks.obj
 0001:000162f4       ?try_get_function@@YAPAXW4function_id@?A0x391cf84c@@QBDQBW4module_id@2@2@Z 100172f4 f   libucrt:winapi_thunks.obj
 0001:00016a57       ?fp_format_a@@YAHQBNPADIQADIH_NIQAU__crt_locale_pointers@@@Z 10017a57 f   libucrt:cvt.obj
 0001:00016d70       ?fp_format_e@@YAHQBNQADI1IH_NIQAU__crt_locale_pointers@@@Z 10017d70 f   libucrt:cvt.obj
 0001:00016e12       ?fp_format_e_internal@@YAHQADIH_NIQAU_strflt@@1QAU__crt_locale_pointers@@@Z 10017e12 f   libucrt:cvt.obj
 0001:00016f5a       ?fp_format_f@@YAHQBNQADI1IHQAU__crt_locale_pointers@@@Z 10017f5a f   libucrt:cvt.obj
 0001:00016fe5       ?fp_format_f_internal@@YAHQADIHQAU_strflt@@_NQAU__crt_locale_pointers@@@Z 10017fe5 f   libucrt:cvt.obj
 0001:000170b6       ?fp_format_g@@YAHQBNQADI1IH_NIQAU__crt_locale_pointers@@@Z 100180b6 f   libucrt:cvt.obj
 0001:00017177       ?fp_format_nan_or_infinity@@YAHW4__acrt_fp_class@@_NPADI1@Z 10018177 f   libucrt:cvt.obj
 0001:0001720c       ?shift_bytes@@YAXQADI0H@Z  1001820c f   libucrt:cvt.obj
 0001:000174f3       ??$?RV<lambda_e5124f882df8998aaf41531e079ba474>@@AAV<lambda_3e16ef9562a7dcce91392c22ab16ea36>@@V<lambda_e25ca0880e6ef98be67edffd8c599615>@@@?$__crt_seh_guarded_call@X@@QAEX$$QAV<lambda_e5124f882df8998aaf41531e079ba474>@@AAV<lambda_3e16ef9562a7dcce91392c22ab16ea36>@@$$QAV<lambda_e25ca0880e6ef98be67edffd8c599615>@@@Z 100184f3 f   libucrt:wsetlocale.obj
 0001:00017593       ?initialize_inherited_file_handles_nolock@@YAXXZ 10018593 f   libucrt:ioinit.obj
 0001:00017649       ?initialize_stdio_handles_nolock@@YAXXZ 10018649 f   libucrt:ioinit.obj
 0001:0001785a       ?<lambda_invoker_cdecl>@<lambda_838c7f62c73c983481e27c09e84b0b5d>@@CAHPBX0@Z 1001885a f   libucrt:argv_wildcards.obj
 0001:00017872       ??$__acrt_convert_wcs_mbs_cp@D_WV<lambda_62f6974d9771e494a5ea317cc32e971c>@@U__crt_win32_buffer_internal_dynamic_resizing@@@@YAHQBDAAV?$__crt_win32_buffer@_WU__crt_win32_buffer_internal_dynamic_resizing@@@@ABV<lambda_62f6974d9771e494a5ea317cc32e971c>@@I@Z 10018872 f   libucrt:argv_wildcards.obj
 0001:00017924       ??$__acrt_convert_wcs_mbs_cp@_WDV<lambda_28bda7af82a03b66c1cb3803a755f95d>@@U__crt_win32_buffer_internal_dynamic_resizing@@@@YAHQB_WAAV?$__crt_win32_buffer@DU__crt_win32_buffer_internal_dynamic_resizing@@@@ABV<lambda_28bda7af82a03b66c1cb3803a755f95d>@@I@Z 10018924 f   libucrt:argv_wildcards.obj
 0001:00017a10       ??$common_expand_argv_wildcards@D@@YAHQAPADQAPAPAD@Z 10018a10 f   libucrt:argv_wildcards.obj
 0001:00017bff       ??$copy_and_add_argument_to_buffer@D@@YAHQBD0IAAV?$argument_list@D@?A0x5f5c8891@@@Z 10018bff f   libucrt:argv_wildcards.obj
 0001:00017cb0       ??$expand_argument_wildcards@D@@YAHQAD0AAV?$argument_list@D@?A0x5f5c8891@@@Z 10018cb0 f   libucrt:argv_wildcards.obj
 0001:00017ffa       ?expand_if_necessary@?$argument_list@D@?A0x5f5c8891@@AAEHXZ 10018ffa f   libucrt:argv_wildcards.obj
 0001:0001808c       ??$__acrt_convert_wcs_mbs_cp@_WDV<lambda_0fec1a7b3f42a53036604e18c2d5e07e>@@U__crt_win32_buffer_no_resizing@@@@YAHQB_WAAV?$__crt_win32_buffer@DU__crt_win32_buffer_no_resizing@@@@ABV<lambda_0fec1a7b3f42a53036604e18c2d5e07e>@@I@Z 1001908c f   libucrt:getmodulefilenamea.obj
 0001:0001822f       ??$?RV<lambda_ceb1ee4838e85a9d631eb091e2fbe199>@@AAV<lambda_ae742caa10f662c28703da3d2ea5e57e>@@V<lambda_cd08b5d6af4937fe54fc07d0c9bf6b37>@@@?$__crt_seh_guarded_call@X@@QAEX$$QAV<lambda_ceb1ee4838e85a9d631eb091e2fbe199>@@AAV<lambda_ae742caa10f662c28703da3d2ea5e57e>@@$$QAV<lambda_cd08b5d6af4937fe54fc07d0c9bf6b37>@@@Z 1001922f f   libucrt:mbctype.obj
 0001:0001827c       ??R<lambda_ae742caa10f662c28703da3d2ea5e57e>@@QBEXXZ 1001927c f   libucrt:mbctype.obj
 0001:000182ff       ?CPtoLocaleName@@YAPB_WH@Z 100192ff f   libucrt:mbctype.obj
 0001:0001833d       ?getSystemCP@@YAHH@Z       1001933d f   libucrt:mbctype.obj
 0001:000183ae       ?setSBCS@@YAXPAU__crt_multibyte_data@@@Z 100193ae f   libucrt:mbctype.obj
 0001:00018413       ?setSBUpLow@@YAXPAU__crt_multibyte_data@@@Z 10019413 f   libucrt:mbctype.obj
 0001:00018594       ?setmbcp_internal@@YAHH_NQAU__acrt_ptd@@QAPAU__crt_multibyte_data@@@Z 10019594 f   libucrt:mbctype.obj
 0001:000186ad       ?update_thread_multibyte_data_internal@@YAPAU__crt_multibyte_data@@QAU__acrt_ptd@@QAPAU1@@Z 100196ad f   libucrt:mbctype.obj
 0001:0001899b       _memcpy_s                  1001999b f   libucrt:cfout.obj
 0001:0001899b       _memcpy_s                  1001999b f   libucrt:mbctype.obj
 0001:00018a1c       ?x_ismbbtype_l@@YAHPAU__crt_locale_pointers@@IHH@Z 10019a1c f   libucrt:ismbbyte.obj
 0001:00018bcd       ?find_end_of_double_null_terminated_sequence@@YAPB_WQB_W@Z 10019bcd f   libucrt:get_environment_from_os.obj
 0001:00018d3c       ??$?RV<lambda_cbab9ec6f41b0180b23cc171c22676b0>@@AAV<lambda_44731a7d0e6d81c3e6aa82d741081786>@@V<lambda_4b292cb8dd18144e164572427af410ab>@@@?$__crt_seh_guarded_call@P6AXH@Z@@QAEP6AXH@Z$$QAV<lambda_cbab9ec6f41b0180b23cc171c22676b0>@@AAV<lambda_44731a7d0e6d81c3e6aa82d741081786>@@$$QAV<lambda_4b292cb8dd18144e164572427af410ab>@@@Z 10019d3c f   libucrt:signal.obj
 0001:00018da0       ?get_global_action_nolock@@YAPAP6AXH@ZH@Z 10019da0 f   libucrt:signal.obj
 0001:00018de2       ?siglookup@@YAPAU__crt_signal_action_t@@HQAU1@@Z 10019de2 f   libucrt:signal.obj
 0001:000190ac       ??$?RV<lambda_2866be3712abc81a800a822484c830d8>@@AAV<lambda_39ca0ed439415581b5b15c265174cece>@@V<lambda_2b24c74d71094a6cd0cb82e44167d71b>@@@?$__crt_seh_guarded_call@X@@QAEX$$QAV<lambda_2866be3712abc81a800a822484c830d8>@@AAV<lambda_39ca0ed439415581b5b15c265174cece>@@$$QAV<lambda_2b24c74d71094a6cd0cb82e44167d71b>@@@Z 1001a0ac f   libucrt:fflush.obj
 0001:00019138       ??$?RV<lambda_2cc53f568c5a2bb6f192f930a45d44ea>@@AAV<lambda_ab61a845afdef5b7c387490eaf3616ee>@@V<lambda_c2ffc0b7726aa6be21d5f0026187e748>@@@?$__crt_seh_guarded_call@X@@QAEX$$QAV<lambda_2cc53f568c5a2bb6f192f930a45d44ea>@@AAV<lambda_ab61a845afdef5b7c387490eaf3616ee>@@$$QAV<lambda_c2ffc0b7726aa6be21d5f0026187e748>@@@Z 1001a138 f   libucrt:fflush.obj
 0001:000191e4       ?common_flush_all@@YAH_N@Z 1001a1e4 f   libucrt:fflush.obj
 0001:00019231       ?common_flush_all_should_try_to_flush_stream@@YA_NV__crt_stdio_stream@@QAH@Z 1001a231 f   libucrt:fflush.obj
 0001:00019264       ?is_stream_flushable_or_commitable@@YA_NJ@Z 1001a264 f   libucrt:fflush.obj
 0001:0001976d       ?GetTableIndexFromLocaleName@@YAHPB_W@Z 1001a76d f   libucrt:lcidtoname_downlevel.obj
 0001:00019823       ??R<lambda_3d301b9e52f5099be73030e1f0bf487e>@@QBEIPBD@Z 1001a823 f   libucrt:mbrtowc.obj
 0001:0001b4fa       ?free_crt_array_internal@@YAXQAPBXI@Z 1001c4fa f   libucrt:inittime.obj
 0001:0001b9d0       ?swap@@YAXPAD0I@Z          1001c9d0 f   libucrt:qsort.obj
 0001:0001be54       ??$common_tcsncpy_s@D@@YAHQADIQBDI@Z 1001ce54 f   libucrt:strncpy_s.obj
 0001:0001bf20       $$000000                   1001cf20     libucrt:strpbrk.obj
 0001:0001c004       ?__acrt_LCMapStringA_stat@@YAHPAU__crt_locale_pointers@@PB_WKPBDHPADHHH@Z 1001d004 f   libucrt:lcmapstringa.obj
 0001:0001c237       ?initialize_multibyte@@YAHXZ 1001d237 f   libucrt:multibyte_initializer.obj
 0001:0001c246       ??$?RV<lambda_9e9de3de5fa147e2223d7db92bc10aa6>@@AAV<lambda_38ce7e780aa69e748d6df282ebc68efe>@@V<lambda_8ca6da459f0f6780f1cff60fdc3d00e5>@@@?$__crt_seh_guarded_call@H@@QAEH$$QAV<lambda_9e9de3de5fa147e2223d7db92bc10aa6>@@AAV<lambda_38ce7e780aa69e748d6df282ebc68efe>@@$$QAV<lambda_8ca6da459f0f6780f1cff60fdc3d00e5>@@@Z 1001d246 f   libucrt:commit.obj
 0001:0001c365       ?write_double_translated_ansi_nolock@@YA?AUwrite_result@?A0x17268360@@HQBDI@Z 1001d365 f   libucrt:write.obj
 0001:0001c70f       ?write_double_translated_unicode_nolock@@YA?AUwrite_result@?A0x17268360@@QBDI@Z 1001d70f f   libucrt:write.obj
 0001:0001c777       ?write_requires_double_translation_nolock@@YA_NH@Z 1001d777 f   libucrt:write.obj
 0001:0001c7e8       ?write_text_ansi_nolock@@YA?AUwrite_result@?A0x17268360@@HQBDI@Z 1001d7e8 f   libucrt:write.obj
 0001:0001c8c3       ?write_text_utf16le_nolock@@YA?AUwrite_result@?A0x17268360@@HQBDI@Z 1001d8c3 f   libucrt:write.obj
 0001:0001c9ac       ?write_text_utf8_nolock@@YA?AUwrite_result@?A0x17268360@@HQBDI@Z 1001d9ac f   libucrt:write.obj
 0001:0001d080       $$000000                   1001e080     libucrt:log10_impl.obj
 0001:0001d190       $$000000                   1001e190     libucrt:ceil_pentium4.obj
 0001:0001d2ad       ??$common_lseek_nolock@_J@@YA_JH_JH@Z 1001e2ad f   libucrt:lseek.obj
 0001:0001d493       ?to_abstract_control@@YA?AW4__acrt_fenv_abstract_control@@W4__acrt_fenv_machine_sse_control@@@Z 1001e493 f   libucrt:_fenvutils.obj
 0001:0001d54f       ?to_abstract_control@@YA?AW4__acrt_fenv_abstract_control@@W4__acrt_fenv_machine_x87_control@@@Z 1001e54f f   libucrt:_fenvutils.obj
 0001:0001d608       ?to_machine_sse_control@@YA?AW4__acrt_fenv_machine_sse_control@@W4__acrt_fenv_abstract_control@@@Z 1001e608 f   libucrt:_fenvutils.obj
 0001:0001d6d5       ?to_machine_x87_control@@YA?AW4__acrt_fenv_machine_x87_control@@W4__acrt_fenv_abstract_control@@@Z 1001e6d5 f   libucrt:_fenvutils.obj
 0001:0001db30       $$000000                   1001eb30     libucrt:log10_pentium4.obj
 0001:0001ddc0       $$000000                   1001edc0     libucrt:87tran.obj
 0001:0001dfd0       $$000000                   1001efd0     libucrt:87disp.obj
 0001:0001e230       $$000000                   1001f230     libucrt:common.obj
 0001:0001e3c0       $$000000                   1001f3c0     libucrt:genexcep.obj
 0001:0001e6bc       ??$?RV<lambda_218ce3db14220d0be481dae8ef3383b6>@@AAV<lambda_628dfdc04ba53c8bfc02c9951375f3f5>@@V<lambda_57dc472bd5c9d5f3b2cbca59b8a843ae>@@@?$__crt_seh_guarded_call@H@@QAEH$$QAV<lambda_218ce3db14220d0be481dae8ef3383b6>@@AAV<lambda_628dfdc04ba53c8bfc02c9951375f3f5>@@$$QAV<lambda_57dc472bd5c9d5f3b2cbca59b8a843ae>@@@Z 1001f6bc f   libucrt:close.obj
 0001:0001e8b0       $$000000                   1001f8b0     libucrt:_strnicm.obj
 0001:0001e911       ?__dcrt_lowio_initialize_console_output@@YAXXZ 1001f911 f   libucrt:initcon.obj
 0001:0001f770       $$000000                   10020770     LIBCMT:ulldvrm.obj
 0001:0001f810       $$000000                   10020810     LIBCMT:llmul.obj
 0001:0001f850       $$000000                   10020850     LIBCMT:lldvrm.obj
 0001:0001f930       $$000000                   10020930     LIBCMT:ullshr.obj
 0001:0001f950       $$000000                   10020950     LIBCMT:llshl.obj
 0001:0001f970       $$000000                   10020970     LIBCMT:ftol2.obj
 0001:0001fc10       $$000000                   10020c10     libvcruntime:strrchr.obj
 0001:0001fd50       $$000000                   10020d50     libvcruntime:strchr.obj
 0001:0001fef3       __ehhandler$??2@YAPAXIABUnothrow_t@std@@@Z 10020ef3 f   LIBCMT:new_scalar_nothrow.obj
 0001:0001ff0e       __ehhandler$?CallUnexpected@@YAXPBU_s_ESTypeList@@@Z 10020f0e f   libvcruntime:frame.obj
 0001:0001ff29       ??__F_AtlComModule@ATL@@YAXXZ 10020f29 f   OposVariant.obj
 0001:0001ff33       ??__F_AtlWinModule@ATL@@YAXXZ 10020f33 f   OposVariant.obj
 0001:0001ff4d       ??__F_Module@@YAXXZ        10020f4d f   FiscalPrinter.obj
 0001:0001ff61       ??__F_AtlBaseModule@ATL@@YAXXZ 10020f61 f   atls:atlbase.obj
 0002:00000304       ?_AtlBaseModule$initializer$@ATL@@3P6AXXZA 10021304     atls:atlbase.obj
 0002:00000308       ?_AtlComModule$initializer$@ATL@@3P6AXXZA 10021308     OposVariant.obj
 0002:0000030c       ?_AtlWinModule$initializer$@ATL@@3P6AXXZA 1002130c     OposVariant.obj
 0002:00000310       ?_Module$initializer$@@3P6AXXZA 10021310     FiscalPrinter.obj
 0002:00000314       ??pConnMap$initializer$@?$IConnectionPointContainerImpl@VCOPOSFiscalPrinter@@@ATL@@0P6AXXZA@@3P6AXXZA 10021314     FiscalPrinter.obj
 0002:00000320       ?__scrt_initialize_tss_var@@3P6AHXZA 10021320     LIBCMT:thread_safe_statics.obj
 0002:00002198       _GS_ExceptionPointers      10023198     LIBCMT:gs_report.obj
 0002:00002328       ?tokenTable@@3QBUStringLiteral@@B 10023328     libvcruntime:undname.obj
 0002:000023a8       ?nameTable@@3QBUStringLiteral@@B 100233a8     libvcruntime:undname.obj
 0002:00002640       ?rttiTable@@3QBUStringLiteral@@B 10023640     libvcruntime:undname.obj
 0002:00002668       ?IndirectionName@@3QBUStringLiteral@@B 10023668     libvcruntime:undname.obj
 0002:00002698       ?PrefixName@@3QBUStringLiteral@@B 10023698     libvcruntime:undname.obj
 0002:00002cc8       ?module_names@?A0x1172487b@@3QBQB_WB 10023cc8     libvcruntime:winapi_downlevel.obj
 0002:00002d70       ?candidate_modules@?1??try_get_FlsAlloc@@YAP6GKP6GXPAX@Z@ZXZ@4QBW4module_id@?A0x1172487b@@B 10023d70     libvcruntime:winapi_downlevel.obj
 0002:00002d84       ?candidate_modules@?1??try_get_FlsFree@@YAP6GHK@ZXZ@4QBW4module_id@?A0x1172487b@@B 10023d84     libvcruntime:winapi_downlevel.obj
 0002:00002d94       ?candidate_modules@?1??try_get_FlsGetValue@@YAP6GPAXK@ZXZ@4QBW4module_id@?A0x1172487b@@B 10023d94     libvcruntime:winapi_downlevel.obj
 0002:00002da8       ?candidate_modules@?1??try_get_FlsSetValue@@YAP6GHKPAX@ZXZ@4QBW4module_id@?A0x1172487b@@B 10023da8     libvcruntime:winapi_downlevel.obj
 0002:00002dbc       ?candidate_modules@?1??try_get_InitializeCriticalSectionEx@@YAP6GHPAU_RTL_CRITICAL_SECTION@@KK@ZXZ@4QBW4module_id@?A0x1172487b@@B 10023dbc     libvcruntime:winapi_downlevel.obj
 0002:00002de0       ?errtable@@3QBUerrentry@?A0x31fdb9ec@@B 10023de0     libucrt:errno.obj
 0002:00003088       ___acrt_initializers       10024088     libucrt:initialization.obj
 0002:00003108       ?module_names@?A0x391cf84c@@3QBQB_WB 10024108     libucrt:winapi_thunks.obj
 0002:00003580       ?candidate_modules@?1??try_get_AreFileApisANSI@@YAP6GHXZXZ@4QBW4module_id@?A0x391cf84c@@B 10024580     libucrt:winapi_thunks.obj
 0002:00003594       ?candidate_modules@?1??try_get_FlsAlloc@@YAP6GKP6GXPAX@Z@ZXZ@4QBW4module_id@?A0x391cf84c@@B 10024594     libucrt:winapi_thunks.obj
 0002:0000359c       ?candidate_modules@?1??try_get_FlsFree@@YAP6GHK@ZXZ@4QBW4module_id@?A0x391cf84c@@B 1002459c     libucrt:winapi_thunks.obj
 0002:000035a4       ?candidate_modules@?1??try_get_FlsGetValue@@YAP6GPAXK@ZXZ@4QBW4module_id@?A0x391cf84c@@B 100245a4     libucrt:winapi_thunks.obj
 0002:000035ac       ?candidate_modules@?1??try_get_FlsSetValue@@YAP6GHKPAX@ZXZ@4QBW4module_id@?A0x391cf84c@@B 100245ac     libucrt:winapi_thunks.obj
 0002:000035b4       ?candidate_modules@?1??try_get_InitializeCriticalSectionEx@@YAP6GHPAU_RTL_CRITICAL_SECTION@@KK@ZXZ@4QBW4module_id@?A0x391cf84c@@B 100245b4     libucrt:winapi_thunks.obj
 0002:000035bc       ?candidate_modules@?1??try_get_LCMapStringEx@@YAP6GHPB_WK0HPA_WHPAU_nlsversioninfo@@PAXJ@ZXZ@4QBW4module_id@?A0x391cf84c@@B 100245bc     libucrt:winapi_thunks.obj
 0002:000035d4       ?candidate_modules@?1??try_get_LocaleNameToLCID@@YAP6GKPB_WK@ZXZ@4QBW4module_id@?A0x391cf84c@@B 100245d4     libucrt:winapi_thunks.obj
 0002:000035f0       ?candidate_modules@?1??try_get_AppPolicyGetProcessTerminationMethod@@YAP6GJPAXPAW4AppPolicyProcessTerminationMethod@@@ZXZ@4QBW4module_id@?A0x391cf84c@@B 100245f0     libucrt:winapi_thunks.obj
 0002:0000361c       ?candidate_modules@?1??try_get_SetThreadStackGuarantee@@YAP6GHPAK@ZXZ@4QBW4module_id@?A0x391cf84c@@B 1002461c     libucrt:winapi_thunks.obj
 0002:00003640       ?strings@?1??fp_format_nan_or_infinity@@YAHW4__acrt_fp_class@@_NPADI1@Z@4QAY03QBDA 10024640     libucrt:cvt.obj
 0002:00003b88       ?_mb_locale_names@@3QBQB_WB 10024b88     libucrt:mbctype.obj
 0002:000043d0       ?LcidToLocaleNameTable@?A0x881e4c05@@3QBULcidToLocaleName@1@B 100253d0     libucrt:lcidtoname_downlevel.obj
 0002:000054f8       ?LocaleNameToIndexTable@?A0x881e4c05@@3QBULocaleNameIndex@1@B 100264f8     libucrt:lcidtoname_downlevel.obj
 0002:00006d50       ?large_power_indices@?1??multiply_by_power_of_ten@__crt_strtox@@YA_NAAUbig_integer@2@I@Z@4QBUunpack_index@?1??12@YA_N0I@Z@B 10027d50     libucrt:cfout.obj
 0002:00006e30       LOG_name                   10027e30     libucrt:log10_impl.obj
 0002:00006e40       _One                       10027e40     libucrt:ceil_pentium4.obj
 0002:00006e50       _Bns                       10027e50     libucrt:ceil_pentium4.obj
 0002:00006e60       _Zero                      10027e60     libucrt:ceil_pentium4.obj
 0002:00006e70       _S                         10027e70     libucrt:ceil_pentium4.obj
 0002:00006e80       _NegZero                   10027e80     libucrt:ceil_pentium4.obj
 0002:00006e90       emask                      10027e90     libucrt:log10_pentium4.obj
 0002:00006ea0       CC                         10027ea0     libucrt:log10_pentium4.obj
 0002:00006eb0       Magic                      10027eb0     libucrt:log10_pentium4.obj
 0002:00006ec0       hi_mask                    10027ec0     libucrt:log10_pentium4.obj
 0002:00006ed0       LOG10_2                    10027ed0     libucrt:log10_pentium4.obj
 0002:00006ee0       place_L                    10027ee0     libucrt:log10_pentium4.obj
 0002:00006f00       One                        10027f00     libucrt:log10_pentium4.obj
 0002:00006f10       Zero                       10027f10     libucrt:log10_pentium4.obj
 0002:00006f20       Two52                      10027f20     libucrt:log10_pentium4.obj
 0002:00006f30       Infs                       10027f30     libucrt:log10_pentium4.obj
 0002:00006f40       NaN                        10027f40     libucrt:log10_pentium4.obj
 0002:00006f50       coeff                      10027f50     libucrt:log10_pentium4.obj
 0002:00006fae       _log2max                   10027fae     libucrt:87tran.obj
 0002:00006fb8       _smallarg                  10027fb8     libucrt:87tran.obj
 0002:00006fc2       _half                      10027fc2     libucrt:87tran.obj
 0002:0000700e       One                        1002800e     libucrt:87disp.obj
 0002:00007016       Three                      10028016     libucrt:87disp.obj
 0002:0000701e       XAMtoTagTab                1002801e     libucrt:87disp.obj
 0002:00007030       One                        10028030     libucrt:common.obj
 0002:00007044       DblMax                     10028044     libucrt:common.obj
 0002:0000704c       DblMin                     1002804c     libucrt:common.obj
 0002:00007054       IeeeAdjO                   10028054     libucrt:common.obj
 0002:0000705c       IeeeAdjU                   1002805c     libucrt:common.obj
 0002:00007064       _infinity                  10028064     libucrt:common.obj
 0002:0000706c       _zero                      1002806c     libucrt:common.obj
 0002:000070b8       _over                      100280b8     libucrt:fpctrl.obj
 0002:000070c4       _under                     100280c4     libucrt:fpctrl.obj
 0002:000078f8       ?_names@?1??_get_fname@@9@9 100288f8     libucrt:fpexcept.obj
 0002:00007aa0       two32                      10028aa0     LIBCMT:ftol2.obj
 0002:00007aa4       two63                      10028aa4     LIBCMT:ftol2.obj
 0002:00007aa8       _NaN                       10028aa8     LIBCMT:ftol2.obj
 0002:00008158       __sehtable$?_AtlVerifyStackAvailable@_ATL_SAFE_ALLOCA_IMPL@ATL@@YA_NK@Z 10029158     FiscalPrinter.obj
 0002:00008178       __sehtable$___scrt_is_nonwritable_in_current_image 10029178     LIBCMT:utility.obj
 0002:00008194       __catchsym$??2@YAPAXIABUnothrow_t@std@@@Z$2 10029194     LIBCMT:new_scalar_nothrow.obj
 0002:000081a4       __unwindtable$??2@YAPAXIABUnothrow_t@std@@@Z 100291a4     LIBCMT:new_scalar_nothrow.obj
 0002:000081b4       __tryblocktable$??2@YAPAXIABUnothrow_t@std@@@Z 100291b4     LIBCMT:new_scalar_nothrow.obj
 0002:000081c8       __ehfuncinfo$??2@YAPAXIABUnothrow_t@std@@@Z 100291c8     LIBCMT:new_scalar_nothrow.obj
 0002:000081f0       __sehtable$?dllmain_crt_process_attach@@YAHQAUHINSTANCE__@@QAX@Z 100291f0     LIBCMT:dll_dllmain.obj
 0002:00008210       __sehtable$?dllmain_crt_process_detach@@YAH_N@Z 10029210     LIBCMT:dll_dllmain.obj
 0002:00008238       __sehtable$?dllmain_dispatch@@YAHQAUHINSTANCE__@@KQAX@Z 10029238     LIBCMT:dll_dllmain.obj
 0002:000082e8       __sehtable$___DestructExceptionObject 100292e8     libvcruntime:ehhelpers.obj
 0002:00008308       __sehtable$?FrameUnwindToState@__FrameHandler3@@SAXPAUEHRegistrationNode@@PAXPBU_s_FuncInfo@@H@Z 10029308     libvcruntime:frame.obj
 0002:00008330       __sehtable$?CallCatchBlock@@YAPAXPAUEHExceptionRecord@@PAUEHRegistrationNode@@PAU_CONTEXT@@PBU_s_FuncInfo@@PAXHK@Z 10029330     libvcruntime:frame.obj
 0002:00008358       __catchsym$?CallUnexpected@@YAXPBU_s_ESTypeList@@@Z$2 10029358     libvcruntime:frame.obj
 0002:00008368       __unwindtable$?CallUnexpected@@YAXPBU_s_ESTypeList@@@Z 10029368     libvcruntime:frame.obj
 0002:00008378       __tryblocktable$?CallUnexpected@@YAXPBU_s_ESTypeList@@@Z 10029378     libvcruntime:frame.obj
 0002:0000838c       __ehfuncinfo$?CallUnexpected@@YAXPBU_s_ESTypeList@@@Z 1002938c     libvcruntime:frame.obj
 0002:000083b0       __sehtable$??$BuildCatchObjectHelperInternal@V__FrameHandler3@@@@YAHPAUEHExceptionRecord@@PAXPBU_s_HandlerType@@PBU_s_CatchableType@@@Z 100293b0     libvcruntime:frame.obj
 0002:000083d0       __sehtable$??$BuildCatchObjectInternal@V__FrameHandler3@@@@YAXPAUEHExceptionRecord@@PAXPBU_s_HandlerType@@PBU_s_CatchableType@@@Z 100293d0     libvcruntime:frame.obj
 0002:00008428       __sehtable$??R<lambda_6e4b09c48022b2350581041d5f6b0c4c>@@QBE@XZ 10029428     libucrt:exit.obj
 0002:00008448       __sehtable$??$?RV<lambda_03b1d95aef87969028cfba75ccab2455>@@AAV<lambda_6e4b09c48022b2350581041d5f6b0c4c>@@V<lambda_22bdf7517842c4b3e53723af5aa32b9e>@@@?$__crt_seh_guarded_call@X@@QAEX$$QAV<lambda_03b1d95aef87969028cfba75ccab2455>@@AAV<lambda_6e4b09c48022b2350581041d5f6b0c4c>@@$$QAV<lambda_22bdf7517842c4b3e53723af5aa32b9e>@@@Z 10029448     libucrt:exit.obj
 0002:00008468       __sehtable$??$?RV<lambda_8e746cf0007f6ed984d6f78af1fec997>@@AAV<lambda_22ebabd17bc4fa466a2aca6d8deb888d>@@V<lambda_18ed0c0b38a6dc0daf1e7ac6d6adf05e>@@@?$__crt_seh_guarded_call@H@@QAEH$$QAV<lambda_8e746cf0007f6ed984d6f78af1fec997>@@AAV<lambda_22ebabd17bc4fa466a2aca6d8deb888d>@@$$QAV<lambda_18ed0c0b38a6dc0daf1e7ac6d6adf05e>@@@Z 10029468     libucrt:onexit.obj
 0002:00008488       __sehtable$??$?RV<lambda_69a2805e680e0e292e8ba93315fe43a8>@@AAV<lambda_f03950bc5685219e0bcd2087efbe011e>@@V<lambda_03fcd07e894ec930e3f35da366ca99d6>@@@?$__crt_seh_guarded_call@H@@QAEH$$QAV<lambda_69a2805e680e0e292e8ba93315fe43a8>@@AAV<lambda_f03950bc5685219e0bcd2087efbe011e>@@$$QAV<lambda_03fcd07e894ec930e3f35da366ca99d6>@@@Z 10029488     libucrt:onexit.obj
 0002:000084a8       __sehtable$__query_new_handler 100294a8     libucrt:new_handler.obj
 0002:000084c8       __sehtable$_terminate      100294c8     libucrt:terminate.obj
 0002:000084e8       __sehtable$??$?RV<lambda_15ade71b0218206bbe3333a0c9b79046>@@AAV<lambda_da44e0f8b0f19ba52fefafb335991732>@@V<lambda_207f2d024fc103971653565357d6cd41>@@@?$__crt_seh_guarded_call@X@@QAEX$$QAV<lambda_15ade71b0218206bbe3333a0c9b79046>@@AAV<lambda_da44e0f8b0f19ba52fefafb335991732>@@$$QAV<lambda_207f2d024fc103971653565357d6cd41>@@@Z 100294e8     libucrt:per_thread_data.obj
 0002:00008508       __sehtable$??$?RV<lambda_a7e850c220f1c8d1e6efeecdedd162c6>@@AAV<lambda_46720907175c18b6c9d2717bc0d2d362>@@V<lambda_9048902d66e8d99359bc9897bbb930a8>@@@?$__crt_seh_guarded_call@X@@QAEX$$QAV<lambda_a7e850c220f1c8d1e6efeecdedd162c6>@@AAV<lambda_46720907175c18b6c9d2717bc0d2d362>@@$$QAV<lambda_9048902d66e8d99359bc9897bbb930a8>@@@Z 10029508     libucrt:per_thread_data.obj
 0002:00008528       __sehtable$??$?RV<lambda_38edbb1296d33220d7e4dd0ed76b244a>@@AAV<lambda_5ce1d447e08cb34b2473517608e21441>@@V<lambda_fb385d3da700c9147fc39e65dd577a8c>@@@?$__crt_seh_guarded_call@X@@QAEX$$QAV<lambda_38edbb1296d33220d7e4dd0ed76b244a>@@AAV<lambda_5ce1d447e08cb34b2473517608e21441>@@$$QAV<lambda_fb385d3da700c9147fc39e65dd577a8c>@@@Z 10029528     libucrt:per_thread_data.obj
 0002:00008548       __sehtable$??$?RV<lambda_6affb1475c98b40b75cdec977db92e3c>@@AAV<lambda_b8d4b9c228a6ecc3f80208dbb4b4a104>@@V<lambda_608742c3c92a14382c1684fc64f96c88>@@@?$__crt_seh_guarded_call@X@@QAEX$$QAV<lambda_6affb1475c98b40b75cdec977db92e3c>@@AAV<lambda_b8d4b9c228a6ecc3f80208dbb4b4a104>@@$$QAV<lambda_608742c3c92a14382c1684fc64f96c88>@@@Z 10029548     libucrt:per_thread_data.obj
 0002:00008568       __sehtable$??$?RV<lambda_e5124f882df8998aaf41531e079ba474>@@AAV<lambda_3e16ef9562a7dcce91392c22ab16ea36>@@V<lambda_e25ca0880e6ef98be67edffd8c599615>@@@?$__crt_seh_guarded_call@X@@QAEX$$QAV<lambda_e5124f882df8998aaf41531e079ba474>@@AAV<lambda_3e16ef9562a7dcce91392c22ab16ea36>@@$$QAV<lambda_e25ca0880e6ef98be67edffd8c599615>@@@Z 10029568     libucrt:wsetlocale.obj
 0002:00008588       __sehtable$___acrt_initialize_lowio 10029588     libucrt:ioinit.obj
 0002:000085a8       __sehtable$?update_thread_multibyte_data_internal@@YAPAU__crt_multibyte_data@@QAU__acrt_ptd@@QAPAU1@@Z 100295a8     libucrt:mbctype.obj
 0002:000085c8       __sehtable$??$?RV<lambda_ceb1ee4838e85a9d631eb091e2fbe199>@@AAV<lambda_ae742caa10f662c28703da3d2ea5e57e>@@V<lambda_cd08b5d6af4937fe54fc07d0c9bf6b37>@@@?$__crt_seh_guarded_call@X@@QAEX$$QAV<lambda_ceb1ee4838e85a9d631eb091e2fbe199>@@AAV<lambda_ae742caa10f662c28703da3d2ea5e57e>@@$$QAV<lambda_cd08b5d6af4937fe54fc07d0c9bf6b37>@@@Z 100295c8     libucrt:mbctype.obj
 0002:000085e8       __sehtable$_raise          100295e8     libucrt:signal.obj
 0002:00008608       __sehtable$??$?RV<lambda_cbab9ec6f41b0180b23cc171c22676b0>@@AAV<lambda_44731a7d0e6d81c3e6aa82d741081786>@@V<lambda_4b292cb8dd18144e164572427af410ab>@@@?$__crt_seh_guarded_call@P6AXH@Z@@QAEP6AXH@Z$$QAV<lambda_cbab9ec6f41b0180b23cc171c22676b0>@@AAV<lambda_44731a7d0e6d81c3e6aa82d741081786>@@$$QAV<lambda_4b292cb8dd18144e164572427af410ab>@@@Z 10029608     libucrt:signal.obj
 0002:00008628       __sehtable$??$?RV<lambda_2866be3712abc81a800a822484c830d8>@@AAV<lambda_39ca0ed439415581b5b15c265174cece>@@V<lambda_2b24c74d71094a6cd0cb82e44167d71b>@@@?$__crt_seh_guarded_call@X@@QAEX$$QAV<lambda_2866be3712abc81a800a822484c830d8>@@AAV<lambda_39ca0ed439415581b5b15c265174cece>@@$$QAV<lambda_2b24c74d71094a6cd0cb82e44167d71b>@@@Z 10029628     libucrt:fflush.obj
 0002:00008648       __sehtable$??$?RV<lambda_2cc53f568c5a2bb6f192f930a45d44ea>@@AAV<lambda_ab61a845afdef5b7c387490eaf3616ee>@@V<lambda_c2ffc0b7726aa6be21d5f0026187e748>@@@?$__crt_seh_guarded_call@X@@QAEX$$QAV<lambda_2cc53f568c5a2bb6f192f930a45d44ea>@@AAV<lambda_ab61a845afdef5b7c387490eaf3616ee>@@$$QAV<lambda_c2ffc0b7726aa6be21d5f0026187e748>@@@Z 10029648     libucrt:fflush.obj
 0002:00008668       __sehtable$___acrt_update_thread_locale_data 10029668     libucrt:locale_refcounting.obj
 0002:00008688       __sehtable$__fcloseall     10029688     libucrt:closeall.obj
 0002:000086a8       __sehtable$___acrt_lowio_ensure_fh_exists 100296a8     libucrt:osfinfo.obj
 0002:000086c8       __sehtable$??$?RV<lambda_9e9de3de5fa147e2223d7db92bc10aa6>@@AAV<lambda_38ce7e780aa69e748d6df282ebc68efe>@@V<lambda_8ca6da459f0f6780f1cff60fdc3d00e5>@@@?$__crt_seh_guarded_call@H@@QAEH$$QAV<lambda_9e9de3de5fa147e2223d7db92bc10aa6>@@AAV<lambda_38ce7e780aa69e748d6df282ebc68efe>@@$$QAV<lambda_8ca6da459f0f6780f1cff60fdc3d00e5>@@@Z 100296c8     libucrt:commit.obj
 0002:000086e8       __sehtable$__write         100296e8     libucrt:write.obj
 0002:00008708       __sehtable$_fclose         10029708     libucrt:fclose.obj
 0002:00008728       __sehtable$??$?RV<lambda_218ce3db14220d0be481dae8ef3383b6>@@AAV<lambda_628dfdc04ba53c8bfc02c9951375f3f5>@@V<lambda_57dc472bd5c9d5f3b2cbca59b8a843ae>@@@?$__crt_seh_guarded_call@H@@QAEH$$QAV<lambda_218ce3db14220d0be481dae8ef3383b6>@@AAV<lambda_628dfdc04ba53c8bfc02c9951375f3f5>@@$$QAV<lambda_57dc472bd5c9d5f3b2cbca59b8a843ae>@@@Z 10029728     libucrt:close.obj
 0002:00008748       __sehtable$__IsNonwritableInCurrentImage 10029748     LIBCMT:pesect.obj
 0002:00008770       .edata                     10029770     OPOSFiscalPrinter.exp
 0002:00008798       rgpv                       10029798     OPOSFiscalPrinter.exp
 0002:000087a8       rgszName                   100297a8     OPOSFiscalPrinter.exp
 0002:000087b8       rgwOrd                     100297b8     OPOSFiscalPrinter.exp
 0002:000087c0       szName                     100297c0     OPOSFiscalPrinter.exp
 0002:000087d6       $N00001                    100297d6     OPOSFiscalPrinter.exp
 0002:000087e6       $N00002                    100297e6     OPOSFiscalPrinter.exp
 0002:000087f8       $N00003                    100297f8     OPOSFiscalPrinter.exp
 0002:0000880a       $N00004                    1002980a     OPOSFiscalPrinter.exp
 0002:00008e1a       .idata$6                   10029e1a     kernel32:KERNEL32.dll
 0002:0000902e       .idata$6                   1002a02e     user32:USER32.dll
 0002:00009162       .idata$6                   1002a162     gdi32:GDI32.dll
 0002:00009208       .idata$6                   1002a208     advapi32:ADVAPI32.dll
 0002:00009324       .idata$6                   1002a324     ole32:ole32.dll
 0002:0000932e       .idata$6                   1002a32e     oleaut32:OLEAUT32.dll
 0003:00000110       ?ObjectMap@@3PAU_ATL_OBJMAP_ENTRY30@ATL@@A 1002b110     FiscalPrinter.obj
 0003:000001e0       ?s_SOMethodNames@@3PAPADA  1002b1e0     FiscalPrinterImpl.obj
 0003:00000320       ?s_RequiredMethodsPerRelease@@3PAHA 1002b320     FiscalPrinterImpl.obj
 0003:00000360       ?__vcrt_flsindex@@3KA      1002b360     libvcruntime:per_thread_data.obj
 0003:00000380       ?errno_no_memory@@3HA      1002b380     libucrt:errno.obj
 0003:00000384       ?doserrno_no_memory@@3KA   1002b384     libucrt:errno.obj
 0003:00000390       ?__acrt_flsindex@@3KA      1002b390     libucrt:per_thread_data.obj
 0003:00000728       __mbctypes                 1002b728     libucrt:mbctype.obj
 0003:00000830       __mbcasemaps               1002b830     libucrt:mbctype.obj
 0003:00000930       ?__rgctypeflag@@3PADA      1002b930     libucrt:mbctype.obj
 0003:00000938       ?__rgcode_page_info@@3PAUcode_page_info@@A 1002b938     libucrt:mbctype.obj
 0003:00000b90       ?__dcrt_lowio_console_output_handle@@3PAXA 1002bb90     libucrt:initcon.obj
 0003:00000d28       ?is_initialized_as_dll@@3_NA 1002bd28     LIBCMT:utility.obj
 0003:00000d29       ?module_local_atexit_table_initialized@@3_NA 1002bd29     LIBCMT:utility.obj
 0003:00000d2c       ?module_local_atexit_table@@3U_onexit_table_t@@A 1002bd2c     LIBCMT:utility.obj
 0003:00000d38       ?module_local_at_quick_exit_table@@3U_onexit_table_t@@A 1002bd38     LIBCMT:utility.obj
 0003:00000d44       ?g_tss_cv@@3U_RTL_CONDITION_VARIABLE@@A 1002bd44     LIBCMT:thread_safe_statics.obj
 0003:00000d48       ?g_tss_event@@3PAXA        1002bd48     LIBCMT:thread_safe_statics.obj
 0003:00000d4c       ?g_tss_mutex@@3U_RTL_CRITICAL_SECTION@@A 1002bd4c     LIBCMT:thread_safe_statics.obj
 0003:00000d64       ?g_sleep_condition_variable_cs@@3P6GHPAU_RTL_CONDITION_VARIABLE@@PAU_RTL_CRITICAL_SECTION@@K@ZA 1002bd64     LIBCMT:thread_safe_statics.obj
 0003:00000d68       ?g_wake_all_condition_variable@@3P6GXPAU_RTL_CONDITION_VARIABLE@@@ZA 1002bd68     LIBCMT:thread_safe_statics.obj
 0003:00000d70       _GS_ExceptionRecord        1002bd70     LIBCMT:gs_report.obj
 0003:00000dc0       _GS_ContextRecord          1002bdc0     LIBCMT:gs_report.obj
 0003:00001090       ?__proc_attached@@3HA      1002c090     LIBCMT:dll_dllmain.obj
 0003:000010ec       ?AllocateData@@3P6GPAUAtlThunkData_t@@XZA 1002c0ec     atls:atlthunk.obj
 0003:000010f0       ?InitData@@3P6GXPAUAtlThunkData_t@@PAXI@ZA 1002c0f0     atls:atlthunk.obj
 0003:000010f4       ?DataToCode@@3P6GP6GJPAUHWND__@@IIJ@ZPAUAtlThunkData_t@@@ZA 1002c0f4     atls:atlthunk.obj
 0003:000010f8       ?FreeData@@3P6GXPAUAtlThunkData_t@@@ZA 1002c0f8     atls:atlthunk.obj
 0003:000010fc       ?Initialized@@3_NA         1002c0fc     atls:atlthunk.obj
 0003:0000110c       ?__vcrt_startup_thread_ptd@@3U__vcrt_ptd@@A 1002c10c     libvcruntime:per_thread_data.obj
 0003:00001134       ___vcrt_lock_table         1002c134     libvcruntime:locks.obj
 0003:0000114c       ___vcrt_locks_initialized  1002c14c     libvcruntime:locks.obj
 0003:00001178       ?heap@@3V_HeapManager@@A   1002c178     libvcruntime:undname.obj
 0003:0000118c       ?module_handles@@3PAPAUHINSTANCE__@@A 1002c18c     libvcruntime:winapi_downlevel.obj
 0003:00001198       ?function_pointers@@3PAPAXA 1002c198     libvcruntime:winapi_downlevel.obj
 0003:000011ac       ?__acrt_invalid_parameter_handler@@3V?$dual_state_global@P6AXPB_W00II@Z@__crt_state_management@@A 1002c1ac     libucrt:invalid_parameter.obj
 0003:000011b0       ?c_termination_complete@@3JA 1002c1b0     libucrt:exit.obj
 0003:000011b4       ?thread_local_exit_callback_func@@3P6GXPAXK0@ZA 1002c1b4     libucrt:exit.obj
 0003:000011c0       ?program_name@?1???$common_configure_argv@D@@YAHW4_crt_argv_mode@@@Z@4PADA 1002c1c0     libucrt:argv_parsing.obj
 0003:000012f0       ?__acrt_new_handler@@3V?$dual_state_global@P6AHI@Z@__crt_state_management@@A 1002c2f0     libucrt:new_handler.obj
 0003:000012f8       ?module_handles@@3PAPAUHINSTANCE__@@A 1002c2f8     libucrt:winapi_thunks.obj
 0003:00001348       ?encoded_function_pointers@@3PAPAXA 1002c348     libucrt:winapi_thunks.obj
 0003:000013d0       ?internal_state@?1??_mbtowc_l@@9@4U_Mbstatet@@A 1002c3d0     libucrt:mbtowc.obj
 0003:000013e0       ?enable_percent_n@@3IA     1002c3e0     libucrt:printf_count_output.obj
 0003:00001600       ?__acrt_lock_table@@3PAU_RTL_CRITICAL_SECTION@@A 1002c600     libucrt:locks.obj
 0003:00001750       ?__acrt_locks_initialized@@3IA 1002c750     libucrt:locks.obj
 0003:00001760       ?fSystemSet@@3HA           1002c760     libucrt:mbctype.obj
 0003:00001764       ?initialized@?1??__acrt_initialize_multibyte@@9@4_NA 1002c764     libucrt:mbctype.obj
 0003:00001784       ?ctrlc_action@@3V?$dual_state_global@P6AXH@Z@__crt_state_management@@A 1002c784     libucrt:signal.obj
 0003:00001788       ?ctrlbreak_action@@3V?$dual_state_global@P6AXH@Z@__crt_state_management@@A 1002c788     libucrt:signal.obj
 0003:0000178c       ?abort_action@@3V?$dual_state_global@P6AXH@Z@__crt_state_management@@A 1002c78c     libucrt:signal.obj
 0003:00001790       ?term_action@@3V?$dual_state_global@P6AXH@Z@__crt_state_management@@A 1002c790     libucrt:signal.obj
 0003:00001794       ?user_matherr@@3V?$dual_state_global@P6AHPAU_exception@@@Z@__crt_state_management@@A 1002c794     libucrt:matherr.obj
 0003:00001798       ?__acrt_global_new_mode@@3V?$dual_state_global@J@__crt_state_management@@A 1002c798     libucrt:new_mode.obj
 0003:000017a4       ?internal_pst@?1??__mbrtoc32_utf8@__crt_mbstring@@YAIPA_UPBDIPAU_Mbstatet@@@Z@4U3@A 1002c7a4     libucrt:mbrtoc32.obj
 0003:000017ac       ?__acrt_app_type@@3W4_crt_app_type@@A 1002c7ac     libucrt:report_runtime_error.obj
 0003:000017b4       __pmatherr_set             1002c7b4     libucrt:libm_error.obj
 0004:00000220       $R000000                   1002d220     FiscalPrinter.res
 0004:00000bc8       $R0009A8                   1002dbc8     FiscalPrinter.res
 0004:00000cb0       $R000A90                   1002dcb0     FiscalPrinter.res
 0004:00000f18       $R000CF8                   1002df18     FiscalPrinter.res
 0004:000014d0       $R0012B0                   1002e4d0     FiscalPrinter.res
 0004:000098d8       $R0096B8                   100368d8     FiscalPrinter.res
 0004:00009918       $R0096F8                   10036918     FiscalPrinter.res
