 OPOSImageScanner

 Timestamp is 5c443859 (Sun Jan 20 17:59:05 2019)

 Preferred load address is 10000000

 Start         Length     Name                   Class
 0001:00000000 00000080H .text$di                CODE
 0001:00000080 0001cd6bH .text$mn                CODE
 0001:0001cdeb 00000051H .text$x                 CODE
 0001:0001ce3c 00000042H .text$yd                CODE
 0002:00000000 00000300H .idata$5                DATA
 0002:00000300 00000004H .00cfg                  DATA
 0002:00000304 00000004H .CRT$XCA                DATA
 0002:00000308 00000004H .CRT$XCL                DATA
 0002:0000030c 00000010H .CRT$XCU                DATA
 0002:0000031c 00000004H .CRT$XCZ                DATA
 0002:00000320 00000004H .CRT$XIA                DATA
 0002:00000324 00000010H .CRT$XIC                DATA
 0002:00000334 00000004H .CRT$XIZ                DATA
 0002:00000338 00000004H .CRT$XLA                DATA
 0002:0000033c 00000004H .CRT$XLZ                DATA
 0002:00000340 00000004H .CRT$XPA                DATA
 0002:00000344 00000008H .CRT$XPX                DATA
 0002:0000034c 00000004H .CRT$XPXA               DATA
 0002:00000350 00000004H .CRT$XPZ                DATA
 0002:00000354 00000004H .CRT$XTA                DATA
 0002:00000358 00000008H .CRT$XTZ                DATA
 0002:0000035c 00000000H .gfids$x                DATA
 0002:0000035c 00000000H .gfids$y                DATA
 0002:00000360 00006e18H .rdata                  DATA
 0002:00007178 00000018H .rdata$T                DATA
 0002:00007190 00000180H .rdata$r                DATA
 0002:00007310 00000020H .rdata$sxdata           DATA
 0002:00007330 000003e0H .rdata$zzzdbg           DATA
 0002:00007710 00000004H .rtc$IAA                DATA
 0002:00007714 00000004H .rtc$IZZ                DATA
 0002:00007718 00000004H .rtc$TAA                DATA
 0002:0000771c 00000004H .rtc$TZZ                DATA
 0002:00007720 00000004H .tls                    DATA
 0002:00007724 00000004H .tls$                   DATA
 0002:00007728 00000008H .tls$ZZZ                DATA
 0002:00007730 000005f4H .xdata$x                DATA
 0002:00007d24 00000004H ATL$__a                 DATA
 0002:00007d28 00000008H ATL$__z                 DATA
 0002:00007d30 000000b0H .edata                  DATA
 0002:00007de0 00000078H .idata$2                DATA
 0002:00007e58 00000014H .idata$3                DATA
 0002:00007e6c 00000300H .idata$4                DATA
 0002:0000816c 00000bdeH .idata$6                DATA
 0003:00000000 00000980H .data                   DATA
 0003:00000980 00000098H .data$r                 DATA
 0003:00000a18 00000b5cH .bss                    DATA
 0004:00000000 00000220H .rsrc$01                DATA
 0004:00000220 00004350H .rsrc$02                DATA

  Address         Publics by Value              Rva+Base       Lib:Object

 0000:00000000       ___guard_fids_count        00000000     <absolute>
 0000:00000000       ___hybrid_code_map_count   00000000     <absolute>
 0000:00000000       ___guard_iat_count         00000000     <absolute>
 0000:00000000       ___dynamic_value_reloc_table 00000000     <absolute>
 0000:00000000       ___guard_longjmp_count     00000000     <absolute>
 0000:00000000       __except_list              00000000     <absolute>
 0000:00000000       ___guard_fids_table        00000000     <absolute>
 0000:00000000       ___guard_longjmp_table     00000000     <absolute>
 0000:00000000       ___hybrid_auxiliary_iat    00000000     <absolute>
 0000:00000000       ___guard_iat_table         00000000     <absolute>
 0000:00000000       ___volatile_metadata       00000000     <absolute>
 0000:00000000       ___enclave_config          00000000     <absolute>
 0000:00000000       ___hybrid_code_map         00000000     <absolute>
 0000:00000008       ___safe_se_handler_count   00000008     <absolute>
 0000:0000002c       __tls_array                0000002c     <absolute>
 0000:00000100       ___guard_flags             00000100     <absolute>
 0000:00000000       ___ImageBase               10000000     <linker-defined>
 0001:00000080       ?DupWide@_CW@@AAEXXZ       10001080 f   CWString.obj
 0001:0000009c       ?cw_dup@@YGXPBDAAHAAPA_W1@Z 1000109c f   CWString.obj
 0001:0000010b       ?cw_memcpy@@YGHPA_WPBDH@Z  1000110b f   CWString.obj
 0001:00000137       ?cw_strcpy@@YAHPA_WPBD@Z   10001137 f   CWString.obj
 0001:0000014a       ?cw_strlen@@YAHPBD@Z       1000114a f   CWString.obj
 0001:00000163       ??0CAtlComModule@ATL@@QAE@XZ 10001163 f i OposVariant.obj
 0001:000001a8       ??0CAtlWinModule@ATL@@QAE@XZ 100011a8 f i OposVariant.obj
 0001:000001df       ??0OposDispParms@@QAE@PAVOposVariant@@H@Z 100011df f   OposVariant.obj
 0001:00000250       ??1OposDispParms@@QAE@XZ   10001250 f   OposVariant.obj
 0001:0000025e       ??A?$CSimpleArray@GV?$CSimpleArrayEqualHelper@G@ATL@@@ATL@@QAEAAGH@Z 1000125e f i OposVariant.obj
 0001:00000283       ??_Estringdispid@CComTypeInfoHolder@ATL@@QAEPAXI@Z 10001283 f i OposVariant.obj
 0001:000002ef       ?AtlWinModuleInit@ATL@@YGJPAU_ATL_WIN_MODULE70@1@@Z 100012ef f i OposVariant.obj
 0001:00000315       ?AtlWinModuleTerm@ATL@@YGJPAU_ATL_WIN_MODULE70@1@PAUHINSTANCE__@@@Z 10001315 f i OposVariant.obj
 0001:00000378       ?ChangeBSTR@OposVariant@@QAEXPAPA_WAAJ@Z 10001378 f   OposVariant.obj
 0001:000003b9       ?ChangeLONG@OposVariant@@QAEXPAJAAJ@Z 100013b9 f   OposVariant.obj
 0001:000003fa       ?GetLONG@OposVariant@@QAEJXZ 100013fa f   OposVariant.obj
 0001:00000415       ?Init@CComCriticalSection@ATL@@QAEJXZ 10001415 f i OposVariant.obj
 0001:0000043d       ?RemoveAll@?$CSimpleArray@GV?$CSimpleArrayEqualHelper@G@ATL@@@ATL@@QAEXXZ 1000143d f i OposVariant.obj
 0001:0000043d       ?RemoveAll@?$CSimpleArray@PAUHINSTANCE__@@V?$CSimpleArrayEqualHelper@PAUHINSTANCE__@@@ATL@@@ATL@@QAEXXZ 1000143d f i atls:atlbase.obj
 0001:0000045a       ?SetBSTR@OposVariant@@QAEXPA_WAAJ@Z 1000145a f   OposVariant.obj
 0001:0000048e       ?SetBSTR_Copy@OposVariant@@QAEXPA_WAAJ@Z 1000148e f   OposVariant.obj
 0001:000004de       ?SetBSTR_InOutPtr@OposVariant@@QAE_NPAPA_WAAJ@Z 100014de f   OposVariant.obj
 0001:00000515       ?SetDispatch_Ptr@OposVariant@@QAEXPAUIDispatch@@AAJ@Z 10001515 f   OposVariant.obj
 0001:00000550       ?SetLONG@OposVariant@@QAEXJ@Z 10001550 f   OposVariant.obj
 0001:00000572       ?SetLONG_Ptr@OposVariant@@QAEXPAJAAJ@Z 10001572 f   OposVariant.obj
 0001:000005a5       ?SetString@OposVariant@@QAEXPB_WAAJ@Z 100015a5 f   OposVariant.obj
 0001:000005eb       ?SetVARIANT_BOOL@OposVariant@@QAEXF@Z 100015eb f   OposVariant.obj
 0001:00000615       ?Term@CAtlComModule@ATL@@QAEXXZ 10001615 f i OposVariant.obj
 0001:0000065f       ?_AtlRaiseException@ATL@@YAXKK@Z 1000165f f i OposVariant.obj
 0001:00000674       ?AddRef@?$CComObjectCached@VCComClassFactory@ATL@@@ATL@@UAGKXZ 10001674 f i ImageScanner.obj
 0001:0000069b       ?Release@?$CComObjectCached@VCComClassFactory@ATL@@@ATL@@UAGKXZ 1000169b f i ImageScanner.obj
 0001:000006d1       ?QueryInterface@?$CComObjectCached@VCComClassFactory@ATL@@@ATL@@UAGJABU_GUID@@PAPAX@Z 100016d1 f i ImageScanner.obj
 0001:000006eb       ??_E?$CComObjectCached@VCComClassFactory@ATL@@@ATL@@UAEPAXI@Z 100016eb f i ImageScanner.obj
 0001:000006eb       ??_G?$CComObjectCached@VCComClassFactory@ATL@@@ATL@@UAEPAXI@Z 100016eb f i ImageScanner.obj
 0001:0000070d       ?AddRef@?$CComAggObject@VCOPOSImageScanner@@@ATL@@UAGKXZ 1000170d f i ImageScanner.obj
 0001:0000071e       ?Release@?$CComAggObject@VCOPOSImageScanner@@@ATL@@UAGKXZ 1000171e f i ImageScanner.obj
 0001:0000075a       ?QueryInterface@?$CComAggObject@VCOPOSImageScanner@@@ATL@@UAGJABU_GUID@@PAPAX@Z 1000175a f i ImageScanner.obj
 0001:000007a9       ?AddRef@?$CComContainedObject@VCOPOSImageScanner@@@ATL@@UAGKXZ 100017a9 f i ImageScanner.obj
 0001:000007bf       ?Release@?$CComContainedObject@VCOPOSImageScanner@@@ATL@@UAGKXZ 100017bf f i ImageScanner.obj
 0001:000007d5       ?QueryInterface@?$CComContainedObject@VCOPOSImageScanner@@@ATL@@UAGJABU_GUID@@PAPAX@Z 100017d5 f i ImageScanner.obj
 0001:000007f0       ??_G?$CComAggObject@VCOPOSImageScanner@@@ATL@@UAEPAXI@Z 100017f0 f i ImageScanner.obj
 0001:000007f0       ??_E?$CComAggObject@VCOPOSImageScanner@@@ATL@@UAEPAXI@Z 100017f0 f i ImageScanner.obj
 0001:00000815       ?AddRef@?$CComObject@VCOPOSImageScanner@@@ATL@@UAGKXZ 10001815 f i ImageScanner.obj
 0001:0000082c       ?Release@?$CComObject@VCOPOSImageScanner@@@ATL@@UAGKXZ 1000182c f i ImageScanner.obj
 0001:0000086e       ?QueryInterface@?$CComObject@VCOPOSImageScanner@@@ATL@@UAGJABU_GUID@@PAPAX@Z 1000186e f i ImageScanner.obj
 0001:00000888       ?ObjectMain@CComObjectRootBase@ATL@@SGX_N@Z 10001888 f i ImageScanner.obj
 0001:00000888       ?OnFinalMessage@?$CWindowImplBaseT@VCWindow@ATL@@V?$CWinTraits@$0FGAAAAAA@$0A@@2@@ATL@@UAEXPAUHWND__@@@Z 10001888 f i ImageScanner.obj
 0001:0000088b       ?GetCategoryMap@CComObjectRootBase@ATL@@SAPBU_ATL_CATMAP_ENTRY@2@XZ 1000188b f i ImageScanner.obj
 0001:0000088b       ?GetObjectDescription@?$CComCoClass@VCOPOSImageScanner@@$1?CLSID_OPOSImageScanner@@3U_GUID@@B@ATL@@SGPB_WXZ 1000188b f i ImageScanner.obj
 0001:0000088e       ?CreateInstance@CComClassFactory@ATL@@UAGJPAUIUnknown@@ABU_GUID@@PAPAX@Z 1000188e f i ImageScanner.obj
 0001:000008cc       ?LockServer@CComClassFactory@ATL@@UAGJH@Z 100018cc f i ImageScanner.obj
 0001:000008eb       ??_GCComClassFactory@ATL@@UAEPAXI@Z 100018eb f i ImageScanner.obj
 0001:000008eb       ??_ECComClassFactory@ATL@@UAEPAXI@Z 100018eb f i ImageScanner.obj
 0001:00000916       ?OnDrawAdvanced@CComControlBase@ATL@@UAEJAAUATL_DRAWINFO@@@Z 10001916 f i ImageScanner.obj
 0001:00000a05       ?Next@?$CComEnumImpl@UIEnumConnections@@$1?_GUID_b196b287_bab4_101a_b69c_00aa00341d07@@3U__s_GUID@@BUtagCONNECTDATA@@V?$_Copy@UtagCONNECTDATA@@@ATL@@@ATL@@UAGJKPAUtagCONNECTDATA@@PAK@Z 10001a05 f i ImageScanner.obj
 0001:00000adc       ?Skip@?$CComEnumImpl@UIEnumConnections@@$1?_GUID_b196b287_bab4_101a_b69c_00aa00341d07@@3U__s_GUID@@BUtagCONNECTDATA@@V?$_Copy@UtagCONNECTDATA@@@ATL@@@ATL@@UAGJK@Z 10001adc f i ImageScanner.obj
 0001:00000b09       ?Reset@?$CComEnumImpl@UIEnumConnectionPoints@@$1?_GUID_b196b285_bab4_101a_b69c_00aa00341d07@@3U__s_GUID@@BPAUIConnectionPoint@@V?$_CopyInterface@UIConnectionPoint@@@ATL@@@ATL@@UAGJXZ 10001b09 f i ImageScanner.obj
 0001:00000b09       ?Reset@?$CComEnumImpl@UIEnumConnections@@$1?_GUID_b196b287_bab4_101a_b69c_00aa00341d07@@3U__s_GUID@@BUtagCONNECTDATA@@V?$_Copy@UtagCONNECTDATA@@@ATL@@@ATL@@UAGJXZ 10001b09 f i ImageScanner.obj
 0001:00000b1b       ?Clone@?$CComEnumImpl@UIEnumConnections@@$1?_GUID_b196b287_bab4_101a_b69c_00aa00341d07@@3U__s_GUID@@BUtagCONNECTDATA@@V?$_Copy@UtagCONNECTDATA@@@ATL@@@ATL@@UAGJPAPAUIEnumConnections@@@Z 10001b1b f i ImageScanner.obj
 0001:00000bfa       ?AddRef@?$CComObject@V?$CComEnum@UIEnumConnections@@$1?_GUID_b196b287_bab4_101a_b69c_00aa00341d07@@3U__s_GUID@@BUtagCONNECTDATA@@V?$_Copy@UtagCONNECTDATA@@@ATL@@VCComSingleThreadModel@6@@ATL@@@ATL@@UAGKXZ 10001bfa f i ImageScanner.obj
 0001:00000bfa       ?AddRef@?$CComObject@V?$CComEnum@UIEnumConnectionPoints@@$1?_GUID_b196b285_bab4_101a_b69c_00aa00341d07@@3U__s_GUID@@BPAUIConnectionPoint@@V?$_CopyInterface@UIConnectionPoint@@@ATL@@VCComSingleThreadModel@6@@ATL@@@ATL@@UAGKXZ 10001bfa f i ImageScanner.obj
 0001:00000c0b       ?Release@?$CComObject@V?$CComEnum@UIEnumConnectionPoints@@$1?_GUID_b196b285_bab4_101a_b69c_00aa00341d07@@3U__s_GUID@@BPAUIConnectionPoint@@V?$_CopyInterface@UIConnectionPoint@@@ATL@@VCComSingleThreadModel@6@@ATL@@@ATL@@UAGKXZ 10001c0b f i ImageScanner.obj
 0001:00000c0b       ?Release@?$CComObject@V?$CComEnum@UIEnumConnections@@$1?_GUID_b196b287_bab4_101a_b69c_00aa00341d07@@3U__s_GUID@@BUtagCONNECTDATA@@V?$_Copy@UtagCONNECTDATA@@@ATL@@VCComSingleThreadModel@6@@ATL@@@ATL@@UAGKXZ 10001c0b f i ImageScanner.obj
 0001:00000c47       ?QueryInterface@?$CComObject@V?$CComEnum@UIEnumConnections@@$1?_GUID_b196b287_bab4_101a_b69c_00aa00341d07@@3U__s_GUID@@BUtagCONNECTDATA@@V?$_Copy@UtagCONNECTDATA@@@ATL@@VCComSingleThreadModel@6@@ATL@@@ATL@@UAGJABU_GUID@@PAPAX@Z 10001c47 f i ImageScanner.obj
 0001:00000c61       ??_E?$CComObject@V?$CComEnum@UIEnumConnections@@$1?_GUID_b196b287_bab4_101a_b69c_00aa00341d07@@3U__s_GUID@@BUtagCONNECTDATA@@V?$_Copy@UtagCONNECTDATA@@@ATL@@VCComSingleThreadModel@6@@ATL@@@ATL@@UAEPAXI@Z 10001c61 f i ImageScanner.obj
 0001:00000c61       ??_G?$CComObject@V?$CComEnum@UIEnumConnections@@$1?_GUID_b196b287_bab4_101a_b69c_00aa00341d07@@3U__s_GUID@@BUtagCONNECTDATA@@V?$_Copy@UtagCONNECTDATA@@@ATL@@VCComSingleThreadModel@6@@ATL@@@ATL@@UAEPAXI@Z 10001c61 f i ImageScanner.obj
 0001:00000c83       ??_E?$CComObject@VCOPOSImageScanner@@@ATL@@W3AEPAXI@Z 10001c83 f i ImageScanner.obj
 0001:00000c8b       ??_E?$CComObject@VCOPOSImageScanner@@@ATL@@WEM@AEPAXI@Z 10001c8b f i ImageScanner.obj
 0001:00000c93       ?QueryInterface@?$CComObject@VCOPOSImageScanner@@@ATL@@WHA@AGJABU_GUID@@PAPAX@Z 10001c93 f i ImageScanner.obj
 0001:00000c9d       ?AddRef@?$CComObject@VCOPOSImageScanner@@@ATL@@WHA@AGKXZ 10001c9d f i ImageScanner.obj
 0001:00000ca7       ?Release@?$CComObject@VCOPOSImageScanner@@@ATL@@WHA@AGKXZ 10001ca7 f i ImageScanner.obj
 0001:00000cb1       ?QueryInterface@?$CComObject@VCOPOSImageScanner@@@ATL@@WHE@AGJABU_GUID@@PAPAX@Z 10001cb1 f i ImageScanner.obj
 0001:00000cbb       ?AddRef@?$CComObject@VCOPOSImageScanner@@@ATL@@WHE@AGKXZ 10001cbb f i ImageScanner.obj
 0001:00000cc5       ?Release@?$CComObject@VCOPOSImageScanner@@@ATL@@WHE@AGKXZ 10001cc5 f i ImageScanner.obj
 0001:00000ccf       ?QueryInterface@?$CComObject@VCOPOSImageScanner@@@ATL@@WHI@AGJABU_GUID@@PAPAX@Z 10001ccf f i ImageScanner.obj
 0001:00000cd9       ?AddRef@?$CComObject@VCOPOSImageScanner@@@ATL@@WHI@AGKXZ 10001cd9 f i ImageScanner.obj
 0001:00000ce3       ?Release@?$CComObject@VCOPOSImageScanner@@@ATL@@WHI@AGKXZ 10001ce3 f i ImageScanner.obj
 0001:00000ced       ?QueryInterface@?$CComObject@VCOPOSImageScanner@@@ATL@@WHM@AGJABU_GUID@@PAPAX@Z 10001ced f i ImageScanner.obj
 0001:00000cf7       ?AddRef@?$CComObject@VCOPOSImageScanner@@@ATL@@WHM@AGKXZ 10001cf7 f i ImageScanner.obj
 0001:00000d01       ?Release@?$CComObject@VCOPOSImageScanner@@@ATL@@WHM@AGKXZ 10001d01 f i ImageScanner.obj
 0001:00000d0b       ?QueryInterface@?$CComObject@VCOPOSImageScanner@@@ATL@@WIA@AGJABU_GUID@@PAPAX@Z 10001d0b f i ImageScanner.obj
 0001:00000d18       ?AddRef@?$CComObject@VCOPOSImageScanner@@@ATL@@WIA@AGKXZ 10001d18 f i ImageScanner.obj
 0001:00000d25       ?Release@?$CComObject@VCOPOSImageScanner@@@ATL@@WIA@AGKXZ 10001d25 f i ImageScanner.obj
 0001:00000d32       ?QueryInterface@?$CComObject@VCOPOSImageScanner@@@ATL@@WIE@AGJABU_GUID@@PAPAX@Z 10001d32 f i ImageScanner.obj
 0001:00000d3f       ?AddRef@?$CComObject@VCOPOSImageScanner@@@ATL@@WIE@AGKXZ 10001d3f f i ImageScanner.obj
 0001:00000d4c       ?Release@?$CComObject@VCOPOSImageScanner@@@ATL@@WIE@AGKXZ 10001d4c f i ImageScanner.obj
 0001:00000d59       ?QueryInterface@?$CComObject@VCOPOSImageScanner@@@ATL@@WII@AGJABU_GUID@@PAPAX@Z 10001d59 f i ImageScanner.obj
 0001:00000d66       ?AddRef@?$CComObject@VCOPOSImageScanner@@@ATL@@WII@AGKXZ 10001d66 f i ImageScanner.obj
 0001:00000d73       ?Release@?$CComObject@VCOPOSImageScanner@@@ATL@@WII@AGKXZ 10001d73 f i ImageScanner.obj
 0001:00000d80       ?QueryInterface@?$CComObject@VCOPOSImageScanner@@@ATL@@WIM@AGJABU_GUID@@PAPAX@Z 10001d80 f i ImageScanner.obj
 0001:00000d8d       ?AddRef@?$CComObject@VCOPOSImageScanner@@@ATL@@WIM@AGKXZ 10001d8d f i ImageScanner.obj
 0001:00000d9a       ?Release@?$CComObject@VCOPOSImageScanner@@@ATL@@WIM@AGKXZ 10001d9a f i ImageScanner.obj
 0001:00000da7       ?QueryInterface@?$CComObject@VCOPOSImageScanner@@@ATL@@WJA@AGJABU_GUID@@PAPAX@Z 10001da7 f i ImageScanner.obj
 0001:00000db4       ?AddRef@?$CComObject@VCOPOSImageScanner@@@ATL@@WJA@AGKXZ 10001db4 f i ImageScanner.obj
 0001:00000dc1       ?Release@?$CComObject@VCOPOSImageScanner@@@ATL@@WJA@AGKXZ 10001dc1 f i ImageScanner.obj
 0001:00000dce       ?QueryInterface@?$CComObject@VCOPOSImageScanner@@@ATL@@WJE@AGJABU_GUID@@PAPAX@Z 10001dce f i ImageScanner.obj
 0001:00000ddb       ?AddRef@?$CComObject@VCOPOSImageScanner@@@ATL@@WJE@AGKXZ 10001ddb f i ImageScanner.obj
 0001:00000de8       ?Release@?$CComObject@VCOPOSImageScanner@@@ATL@@WJE@AGKXZ 10001de8 f i ImageScanner.obj
 0001:00000df5       ?QueryInterface@?$CComObject@VCOPOSImageScanner@@@ATL@@WJI@AGJABU_GUID@@PAPAX@Z 10001df5 f i ImageScanner.obj
 0001:00000e02       ?AddRef@?$CComObject@VCOPOSImageScanner@@@ATL@@WJI@AGKXZ 10001e02 f i ImageScanner.obj
 0001:00000e0f       ?Release@?$CComObject@VCOPOSImageScanner@@@ATL@@WJI@AGKXZ 10001e0f f i ImageScanner.obj
 0001:00000e1c       ?QueryInterface@?$CComObject@VCOPOSImageScanner@@@ATL@@WJM@AGJABU_GUID@@PAPAX@Z 10001e1c f i ImageScanner.obj
 0001:00000e29       ?AddRef@?$CComObject@VCOPOSImageScanner@@@ATL@@WJM@AGKXZ 10001e29 f i ImageScanner.obj
 0001:00000e36       ?Release@?$CComObject@VCOPOSImageScanner@@@ATL@@WJM@AGKXZ 10001e36 f i ImageScanner.obj
 0001:00000e43       ?QueryInterface@?$CComObject@VCOPOSImageScanner@@@ATL@@WKA@AGJABU_GUID@@PAPAX@Z 10001e43 f i ImageScanner.obj
 0001:00000e50       ?AddRef@?$CComObject@VCOPOSImageScanner@@@ATL@@WKA@AGKXZ 10001e50 f i ImageScanner.obj
 0001:00000e5d       ?Release@?$CComObject@VCOPOSImageScanner@@@ATL@@WKA@AGKXZ 10001e5d f i ImageScanner.obj
 0001:00000e6a       ?AddRef@?$CComObject@VCOPOSImageScanner@@@ATL@@WKI@AGKXZ 10001e6a f i ImageScanner.obj
 0001:00000e77       ?Release@?$CComObject@VCOPOSImageScanner@@@ATL@@WKI@AGKXZ 10001e77 f i ImageScanner.obj
 0001:00000e84       ?AddRef@?$CComObject@VCOPOSImageScanner@@@ATL@@WLE@AGKXZ 10001e84 f i ImageScanner.obj
 0001:00000e91       ?Release@?$CComObject@VCOPOSImageScanner@@@ATL@@WLE@AGKXZ 10001e91 f i ImageScanner.obj
 0001:00000e9e       ??_E?$CComContainedObject@VCOPOSImageScanner@@@ATL@@W3AEPAXI@Z 10001e9e f i ImageScanner.obj
 0001:00000ea6       ??_E?$CComContainedObject@VCOPOSImageScanner@@@ATL@@WEM@AEPAXI@Z 10001ea6 f i ImageScanner.obj
 0001:00000eae       ?QueryInterface@?$CComContainedObject@VCOPOSImageScanner@@@ATL@@WHA@AGJABU_GUID@@PAPAX@Z 10001eae f i ImageScanner.obj
 0001:00000eb8       ?AddRef@?$CComContainedObject@VCOPOSImageScanner@@@ATL@@WHA@AGKXZ 10001eb8 f i ImageScanner.obj
 0001:00000ec2       ?Release@?$CComContainedObject@VCOPOSImageScanner@@@ATL@@WHA@AGKXZ 10001ec2 f i ImageScanner.obj
 0001:00000ecc       ?QueryInterface@?$CComContainedObject@VCOPOSImageScanner@@@ATL@@WHE@AGJABU_GUID@@PAPAX@Z 10001ecc f i ImageScanner.obj
 0001:00000ed6       ?AddRef@?$CComContainedObject@VCOPOSImageScanner@@@ATL@@WHE@AGKXZ 10001ed6 f i ImageScanner.obj
 0001:00000ee0       ?Release@?$CComContainedObject@VCOPOSImageScanner@@@ATL@@WHE@AGKXZ 10001ee0 f i ImageScanner.obj
 0001:00000eea       ?QueryInterface@?$CComContainedObject@VCOPOSImageScanner@@@ATL@@WHI@AGJABU_GUID@@PAPAX@Z 10001eea f i ImageScanner.obj
 0001:00000ef4       ?AddRef@?$CComContainedObject@VCOPOSImageScanner@@@ATL@@WHI@AGKXZ 10001ef4 f i ImageScanner.obj
 0001:00000efe       ?Release@?$CComContainedObject@VCOPOSImageScanner@@@ATL@@WHI@AGKXZ 10001efe f i ImageScanner.obj
 0001:00000f08       ?QueryInterface@?$CComContainedObject@VCOPOSImageScanner@@@ATL@@WHM@AGJABU_GUID@@PAPAX@Z 10001f08 f i ImageScanner.obj
 0001:00000f12       ?AddRef@?$CComContainedObject@VCOPOSImageScanner@@@ATL@@WHM@AGKXZ 10001f12 f i ImageScanner.obj
 0001:00000f1c       ?Release@?$CComContainedObject@VCOPOSImageScanner@@@ATL@@WHM@AGKXZ 10001f1c f i ImageScanner.obj
 0001:00000f26       ?QueryInterface@?$CComContainedObject@VCOPOSImageScanner@@@ATL@@WIA@AGJABU_GUID@@PAPAX@Z 10001f26 f i ImageScanner.obj
 0001:00000f33       ?AddRef@?$CComContainedObject@VCOPOSImageScanner@@@ATL@@WIA@AGKXZ 10001f33 f i ImageScanner.obj
 0001:00000f40       ?Release@?$CComContainedObject@VCOPOSImageScanner@@@ATL@@WIA@AGKXZ 10001f40 f i ImageScanner.obj
 0001:00000f4d       ?QueryInterface@?$CComContainedObject@VCOPOSImageScanner@@@ATL@@WIE@AGJABU_GUID@@PAPAX@Z 10001f4d f i ImageScanner.obj
 0001:00000f5a       ?AddRef@?$CComContainedObject@VCOPOSImageScanner@@@ATL@@WIE@AGKXZ 10001f5a f i ImageScanner.obj
 0001:00000f67       ?Release@?$CComContainedObject@VCOPOSImageScanner@@@ATL@@WIE@AGKXZ 10001f67 f i ImageScanner.obj
 0001:00000f74       ?QueryInterface@?$CComContainedObject@VCOPOSImageScanner@@@ATL@@WII@AGJABU_GUID@@PAPAX@Z 10001f74 f i ImageScanner.obj
 0001:00000f81       ?AddRef@?$CComContainedObject@VCOPOSImageScanner@@@ATL@@WII@AGKXZ 10001f81 f i ImageScanner.obj
 0001:00000f8e       ?Release@?$CComContainedObject@VCOPOSImageScanner@@@ATL@@WII@AGKXZ 10001f8e f i ImageScanner.obj
 0001:00000f9b       ?QueryInterface@?$CComContainedObject@VCOPOSImageScanner@@@ATL@@WIM@AGJABU_GUID@@PAPAX@Z 10001f9b f i ImageScanner.obj
 0001:00000fa8       ?AddRef@?$CComContainedObject@VCOPOSImageScanner@@@ATL@@WIM@AGKXZ 10001fa8 f i ImageScanner.obj
 0001:00000fb5       ?Release@?$CComContainedObject@VCOPOSImageScanner@@@ATL@@WIM@AGKXZ 10001fb5 f i ImageScanner.obj
 0001:00000fc2       ?QueryInterface@?$CComContainedObject@VCOPOSImageScanner@@@ATL@@WJA@AGJABU_GUID@@PAPAX@Z 10001fc2 f i ImageScanner.obj
 0001:00000fcf       ?AddRef@?$CComContainedObject@VCOPOSImageScanner@@@ATL@@WJA@AGKXZ 10001fcf f i ImageScanner.obj
 0001:00000fdc       ?Release@?$CComContainedObject@VCOPOSImageScanner@@@ATL@@WJA@AGKXZ 10001fdc f i ImageScanner.obj
 0001:00000fe9       ?QueryInterface@?$CComContainedObject@VCOPOSImageScanner@@@ATL@@WJE@AGJABU_GUID@@PAPAX@Z 10001fe9 f i ImageScanner.obj
 0001:00000ff6       ?AddRef@?$CComContainedObject@VCOPOSImageScanner@@@ATL@@WJE@AGKXZ 10001ff6 f i ImageScanner.obj
 0001:00001003       ?Release@?$CComContainedObject@VCOPOSImageScanner@@@ATL@@WJE@AGKXZ 10002003 f i ImageScanner.obj
 0001:00001010       ?QueryInterface@?$CComContainedObject@VCOPOSImageScanner@@@ATL@@WJI@AGJABU_GUID@@PAPAX@Z 10002010 f i ImageScanner.obj
 0001:0000101d       ?AddRef@?$CComContainedObject@VCOPOSImageScanner@@@ATL@@WJI@AGKXZ 1000201d f i ImageScanner.obj
 0001:0000102a       ?Release@?$CComContainedObject@VCOPOSImageScanner@@@ATL@@WJI@AGKXZ 1000202a f i ImageScanner.obj
 0001:00001037       ?QueryInterface@?$CComContainedObject@VCOPOSImageScanner@@@ATL@@WJM@AGJABU_GUID@@PAPAX@Z 10002037 f i ImageScanner.obj
 0001:00001044       ?AddRef@?$CComContainedObject@VCOPOSImageScanner@@@ATL@@WJM@AGKXZ 10002044 f i ImageScanner.obj
 0001:00001051       ?Release@?$CComContainedObject@VCOPOSImageScanner@@@ATL@@WJM@AGKXZ 10002051 f i ImageScanner.obj
 0001:0000105e       ?QueryInterface@?$CComContainedObject@VCOPOSImageScanner@@@ATL@@WKA@AGJABU_GUID@@PAPAX@Z 1000205e f i ImageScanner.obj
 0001:0000106b       ?AddRef@?$CComContainedObject@VCOPOSImageScanner@@@ATL@@WKA@AGKXZ 1000206b f i ImageScanner.obj
 0001:00001078       ?Release@?$CComContainedObject@VCOPOSImageScanner@@@ATL@@WKA@AGKXZ 10002078 f i ImageScanner.obj
 0001:00001085       ?AddRef@?$CComContainedObject@VCOPOSImageScanner@@@ATL@@WKI@AGKXZ 10002085 f i ImageScanner.obj
 0001:00001092       ?Release@?$CComContainedObject@VCOPOSImageScanner@@@ATL@@WKI@AGKXZ 10002092 f i ImageScanner.obj
 0001:0000109f       ?AddRef@?$CComContainedObject@VCOPOSImageScanner@@@ATL@@WLE@AGKXZ 1000209f f i ImageScanner.obj
 0001:000010ac       ?Release@?$CComContainedObject@VCOPOSImageScanner@@@ATL@@WLE@AGKXZ 100020ac f i ImageScanner.obj
 0001:000010b9       ?Lock@CAtlModule@ATL@@UAEJXZ 100020b9 f i ImageScanner.obj
 0001:000010c3       ?Unlock@CAtlModule@ATL@@UAEJXZ 100020c3 f i ImageScanner.obj
 0001:000010cd       ?GetLockCount@CAtlModule@ATL@@UAEJXZ 100020cd f i ImageScanner.obj
 0001:000010d1       ?GetGITPtr@CAtlModule@ATL@@UAEJPAPAUIGlobalInterfaceTable@@@Z 100020d1 f i ImageScanner.obj
 0001:0000111d       ?AddCommonRGSReplacements@?$CAtlModuleT@VCComModule@ATL@@@ATL@@UAEJPAUIRegistrarBase@@@Z 1000211d f i ImageScanner.obj
 0001:00001137       ?UpdateRegistryFromResourceD@CComModule@ATL@@UAGJPB_WHPAU_ATL_REGMAP_ENTRY@2@@Z 10002137 f i ImageScanner.obj
 0001:00001137       ?UpdateRegistryFromResourceD@CComModule@ATL@@UAGJIHPAU_ATL_REGMAP_ENTRY@2@@Z 10002137 f i ImageScanner.obj
 0001:0000113f       ?UpdateRegistryFromResource@CComModule@ATL@@UAGJPB_WHPAU_ATL_REGMAP_ENTRY@2@@Z 1000213f f i ImageScanner.obj
 0001:00001148       ?UpdateRegistryFromResource@CComModule@ATL@@UAGJIHPAU_ATL_REGMAP_ENTRY@2@@Z 10002148 f i ImageScanner.obj
 0001:00001151       ??_ECComModule@ATL@@UAEPAXI@Z 10002151 f i ImageScanner.obj
 0001:00001151       ??_GCComModule@ATL@@UAEPAXI@Z 10002151 f i ImageScanner.obj
 0001:00001179       ?GetWindowProc@?$CWindowImplBaseT@VCWindow@ATL@@V?$CWinTraits@$0FGAAAAAA@$0A@@2@@ATL@@UAEP6GJPAUHWND__@@IIJ@ZXZ 10002179 f i ImageScanner.obj
 0001:0000117f       ?StartWindowProc@?$CWindowImplBaseT@VCWindow@ATL@@V?$CWinTraits@$0FGAAAAAA@$0A@@2@@ATL@@SGJPAUHWND__@@IIJ@Z 1000217f f i ImageScanner.obj
 0001:000011d3       ?GetTypeInfoCount@?$IDispatchImpl@UIOPOSImageScanner@@$1?IID_IOPOSImageScanner@@3U_GUID@@B$1?LIBID_OposImageScanner_CCO@@3U3@B$00$0A@VCComTypeInfoHolder@ATL@@@ATL@@UAGJPAI@Z 100021d3 f i ImageScanner.obj
 0001:000011f0       ?GetTypeInfo@?$IDispatchImpl@UIOPOSImageScanner@@$1?IID_IOPOSImageScanner@@3U_GUID@@B$1?LIBID_OposImageScanner_CCO@@3U3@B$00$0A@VCComTypeInfoHolder@ATL@@@ATL@@UAGJIKPAPAUITypeInfo@@@Z 100021f0 f i ImageScanner.obj
 0001:00001214       ?GetIDsOfNames@?$IDispatchImpl@UIOPOSImageScanner@@$1?IID_IOPOSImageScanner@@3U_GUID@@B$1?LIBID_OposImageScanner_CCO@@3U3@B$00$0A@VCComTypeInfoHolder@ATL@@@ATL@@UAGJABU_GUID@@PAPA_WIKPAJ@Z 10002214 f i ImageScanner.obj
 0001:00001234       ?Invoke@?$IDispatchImpl@UIOPOSImageScanner@@$1?IID_IOPOSImageScanner@@3U_GUID@@B$1?LIBID_OposImageScanner_CCO@@3U3@B$00$0A@VCComTypeInfoHolder@ATL@@@ATL@@UAGJJABU_GUID@@KGPAUtagDISPPARAMS@@PAUtagVARIANT@@PAUtagEXCEPINFO@@PAI@Z 10002234 f i ImageScanner.obj
 0001:00001242       ?CreateControlWindow@?$CComControl@VCOPOSImageScanner@@V?$CWindowImpl@VCOPOSImageScanner@@VCWindow@ATL@@V?$CWinTraits@$0FGAAAAAA@$0A@@3@@ATL@@@ATL@@UAEPAUHWND__@@PAU3@AAUtagRECT@@@Z 10002242 f i ImageScanner.obj
 0001:00001271       ?ControlQueryInterface@?$CComControl@VCOPOSImageScanner@@V?$CWindowImpl@VCOPOSImageScanner@@VCWindow@ATL@@V?$CWinTraits@$0FGAAAAAA@$0A@@3@@ATL@@@ATL@@UAEJABU_GUID@@PAPAX@Z 10002271 f i ImageScanner.obj
 0001:0000128c       ?GetClassID@?$IPersistStreamInitImpl@VCOPOSImageScanner@@@ATL@@UAGJPAU_GUID@@@Z 1000228c f i ImageScanner.obj
 0001:0000128c       ?GetUserClassID@?$IOleObjectImpl@VCOPOSImageScanner@@@ATL@@UAGJPAU_GUID@@@Z 1000228c f i ImageScanner.obj
 0001:0000128c       ?GetClassID@?$IPersistStorageImpl@VCOPOSImageScanner@@@ATL@@UAGJPAU_GUID@@@Z 1000228c f i ImageScanner.obj
 0001:000012b0       ?IsDirty@?$IPersistStreamInitImpl@VCOPOSImageScanner@@@ATL@@UAGJXZ 100022b0 f i ImageScanner.obj
 0001:000012cf       ?Load@?$IPersistStreamInitImpl@VCOPOSImageScanner@@@ATL@@UAGJPAUIStream@@@Z 100022cf f i ImageScanner.obj
 0001:000012ee       ?Save@?$IPersistStreamInitImpl@VCOPOSImageScanner@@@ATL@@UAGJPAUIStream@@H@Z 100022ee f i ImageScanner.obj
 0001:00001310       ?GetSizeMax@?$IPersistStreamInitImpl@VCOPOSImageScanner@@@ATL@@UAGJPAT_ULARGE_INTEGER@@@Z 10002310 f i ImageScanner.obj
 0001:000014c5       ?InitNew@?$IPersistStreamInitImpl@VCOPOSImageScanner@@@ATL@@UAGJXZ 100024c5 f i ImageScanner.obj
 0001:000014e2       ?GetDropTarget@?$IOleInPlaceObjectWindowlessImpl@VCOPOSImageScanner@@@ATL@@UAGJPAPAUIDropTarget@@@Z 100024e2 f i ImageScanner.obj
 0001:000014e2       ?GetControlInfo@?$IOleControlImpl@VCOPOSImageScanner@@@ATL@@UAGJPAUtagCONTROLINFO@@@Z 100024e2 f i ImageScanner.obj
 0001:000014e2       ?SetColorScheme@?$IOleObjectImpl@VCOPOSImageScanner@@@ATL@@UAGJPAUtagLOGPALETTE@@@Z 100024e2 f i ImageScanner.obj
 0001:000014e2       ?ContextSensitiveHelp@?$IOleInPlaceActiveObjectImpl@VCOPOSImageScanner@@@ATL@@UAGJH@Z 100024e2 f i ImageScanner.obj
 0001:000014e2       ?ContextSensitiveHelp@?$IOleInPlaceObjectWindowlessImpl@VCOPOSImageScanner@@@ATL@@UAGJH@Z 100024e2 f i ImageScanner.obj
 0001:000014e2       ?QueryGetData@?$IDataObjectImpl@VCOPOSImageScanner@@@ATL@@UAGJPAUtagFORMATETC@@@Z 100024e2 f i ImageScanner.obj
 0001:000014e2       ?Unfreeze@?$IViewObjectExImpl@VCOPOSImageScanner@@@ATL@@UAGJK@Z 100024e2 f i ImageScanner.obj
 0001:000014e2       ?SOOutputCompleteDummy@COPOSImageScanner@@MAGJJ@Z 100024e2 f i ImageScanner.obj
 0001:000014e2       ?OnMnemonic@?$IOleControlImpl@VCOPOSImageScanner@@@ATL@@UAGJPAUtagMSG@@@Z 100024e2 f i ImageScanner.obj
 0001:000014ea       ?OnFrameWindowActivate@?$IOleInPlaceActiveObjectImpl@VCOPOSImageScanner@@@ATL@@UAGJH@Z 100024ea f i ImageScanner.obj
 0001:000014ea       ?EnableModeless@?$IOleInPlaceActiveObjectImpl@VCOPOSImageScanner@@@ATL@@UAGJH@Z 100024ea f i ImageScanner.obj
 0001:000014ea       ?OnAmbientPropertyChange@?$IOleControlImpl@VCOPOSImageScanner@@@ATL@@UAGJJ@Z 100024ea f i ImageScanner.obj
 0001:000014ea       ?SaveCompleted@?$IPersistStorageImpl@VCOPOSImageScanner@@@ATL@@UAGJPAUIStorage@@@Z 100024ea f i ImageScanner.obj
 0001:000014ef       ?SetClientSite@?$IOleObjectImpl@VCOPOSImageScanner@@@ATL@@UAGJPAUIOleClientSite@@@Z 100024ef f i ImageScanner.obj
 0001:0000150c       ?GetClientSite@?$IOleObjectImpl@VCOPOSImageScanner@@@ATL@@UAGJPAPAUIOleClientSite@@@Z 1000250c f i ImageScanner.obj
 0001:00001529       ?SetHostNames@?$IOleObjectImpl@VCOPOSImageScanner@@@ATL@@UAGJPB_W0@Z 10002529 f i ImageScanner.obj
 0001:0000152e       ?Close@?$IOleObjectImpl@VCOPOSImageScanner@@@ATL@@UAGJK@Z 1000252e f i ImageScanner.obj
 0001:0000154b       ?GetDataHere@?$IDataObjectImpl@VCOPOSImageScanner@@@ATL@@UAGJPAUtagFORMATETC@@PAUtagSTGMEDIUM@@@Z 1000254b f i ImageScanner.obj
 0001:0000154b       ?EnumFormatEtc@?$IDataObjectImpl@VCOPOSImageScanner@@@ATL@@UAGJKPAPAUIEnumFORMATETC@@@Z 1000254b f i ImageScanner.obj
 0001:0000154b       ?GetClipboardData@?$IOleObjectImpl@VCOPOSImageScanner@@@ATL@@UAGJKPAPAUIDataObject@@@Z 1000254b f i ImageScanner.obj
 0001:0000154b       ?QueryInterface@CRegObject@ATL@@UAGJABU_GUID@@PAPAX@Z 1000254b f i ImageScanner.obj
 0001:0000154b       ?GetCanonicalFormatEtc@?$IDataObjectImpl@VCOPOSImageScanner@@@ATL@@UAGJPAUtagFORMATETC@@0@Z 1000254b f i ImageScanner.obj
 0001:0000154b       ?GetRect@?$IViewObjectExImpl@VCOPOSImageScanner@@@ATL@@UAGJKPAU_RECTL@@@Z 1000254b f i ImageScanner.obj
 0001:0000154b       ?SetMoniker@?$IOleObjectImpl@VCOPOSImageScanner@@@ATL@@UAGJKPAUIMoniker@@@Z 1000254b f i ImageScanner.obj
 0001:00001553       ?SetData@?$IDataObjectImpl@VCOPOSImageScanner@@@ATL@@UAGJPAUtagFORMATETC@@PAUtagSTGMEDIUM@@H@Z 10002553 f i ImageScanner.obj
 0001:00001553       ?GetMoniker@?$IOleObjectImpl@VCOPOSImageScanner@@@ATL@@UAGJKKPAPAUIMoniker@@@Z 10002553 f i ImageScanner.obj
 0001:00001553       ?InitFromData@?$IOleObjectImpl@VCOPOSImageScanner@@@ATL@@UAGJPAUIDataObject@@HK@Z 10002553 f i ImageScanner.obj
 0001:0000155b       ?DoVerb@?$IOleObjectImpl@VCOPOSImageScanner@@@ATL@@UAGJJPAUtagMSG@@PAUIOleClientSite@@JPAUHWND__@@PBUtagRECT@@@Z 1000255b f i ImageScanner.obj
 0001:00001673       ?EnumVerbs@?$IOleObjectImpl@VCOPOSImageScanner@@@ATL@@UAGJPAPAUIEnumOLEVERB@@@Z 10002673 f i ImageScanner.obj
 0001:00001695       ?Update@?$IOleObjectImpl@VCOPOSImageScanner@@@ATL@@UAGJXZ 10002695 f i ImageScanner.obj
 0001:00001695       ?Release@CRegObject@ATL@@UAGKXZ 10002695 f i ImageScanner.obj
 0001:00001695       ?IsUpToDate@?$IOleObjectImpl@VCOPOSImageScanner@@@ATL@@UAGJXZ 10002695 f i ImageScanner.obj
 0001:00001695       ?HandsOffStorage@?$IPersistStorageImpl@VCOPOSImageScanner@@@ATL@@UAGJXZ 10002695 f i ImageScanner.obj
 0001:0000169a       ?GetUserType@?$IOleObjectImpl@VCOPOSImageScanner@@@ATL@@UAGJKPAPA_W@Z 1000269a f i ImageScanner.obj
 0001:000016b2       ?SetExtent@?$IOleObjectImpl@VCOPOSImageScanner@@@ATL@@UAGJKPAUtagSIZE@@@Z 100026b2 f i ImageScanner.obj
 0001:000016d2       ?GetExtent@?$IOleObjectImpl@VCOPOSImageScanner@@@ATL@@UAGJKPAUtagSIZE@@@Z 100026d2 f i ImageScanner.obj
 0001:00001710       ?Advise@?$IOleObjectImpl@VCOPOSImageScanner@@@ATL@@UAGJPAUIAdviseSink@@PAK@Z 10002710 f i ImageScanner.obj
 0001:00001730       ?Unadvise@?$IOleObjectImpl@VCOPOSImageScanner@@@ATL@@UAGJK@Z 10002730 f i ImageScanner.obj
 0001:0000175f       ?EnumAdvise@?$IOleObjectImpl@VCOPOSImageScanner@@@ATL@@UAGJPAPAUIEnumSTATDATA@@@Z 1000275f f i ImageScanner.obj
 0001:0000179f       ?GetMiscStatus@?$IOleObjectImpl@VCOPOSImageScanner@@@ATL@@UAGJKPAK@Z 1000279f f i ImageScanner.obj
 0001:000017b7       ?GetWindow@?$IOleInPlaceActiveObjectImpl@VCOPOSImageScanner@@@ATL@@UAGJPAPAUHWND__@@@Z 100027b7 f i ImageScanner.obj
 0001:00001804       ?TranslateAcceleratorW@?$IOleInPlaceActiveObjectImpl@VCOPOSImageScanner@@@ATL@@UAGJPAUtagMSG@@@Z 10002804 f i ImageScanner.obj
 0001:000018a2       ?OnDocWindowActivate@?$IOleInPlaceActiveObjectImpl@VCOPOSImageScanner@@@ATL@@UAGJH@Z 100028a2 f i ImageScanner.obj
 0001:000018c4       ?ResizeBorder@?$IOleInPlaceActiveObjectImpl@VCOPOSImageScanner@@@ATL@@UAGJPBUtagRECT@@PAUIOleInPlaceUIWindow@@H@Z 100028c4 f i ImageScanner.obj
 0001:000018c9       ?Draw@?$IViewObjectExImpl@VCOPOSImageScanner@@@ATL@@UAGJKJPAXPAUtagDVTARGETDEVICE@@PAUHDC__@@2PBU_RECTL@@3P6GHK@ZK@Z 100028c9 f i ImageScanner.obj
 0001:000018fb       ?GetColorSet@?$IViewObjectExImpl@VCOPOSImageScanner@@@ATL@@UAGJKJPAXPAUtagDVTARGETDEVICE@@PAUHDC__@@PAPAUtagLOGPALETTE@@@Z 100028fb f i ImageScanner.obj
 0001:00001903       ?Freeze@?$IViewObjectExImpl@VCOPOSImageScanner@@@ATL@@UAGJKJPAXPAK@Z 10002903 f i ImageScanner.obj
 0001:0000190b       ?SetAdvise@?$IViewObjectExImpl@VCOPOSImageScanner@@@ATL@@UAGJKKPAUIAdviseSink@@@Z 1000290b f i ImageScanner.obj
 0001:0000192a       ?GetAdvise@?$IViewObjectExImpl@VCOPOSImageScanner@@@ATL@@UAGJPAK0PAPAUIAdviseSink@@@Z 1000292a f i ImageScanner.obj
 0001:0000195f       ?GetExtent@?$IViewObjectExImpl@VCOPOSImageScanner@@@ATL@@UAGJKJPAUtagDVTARGETDEVICE@@PAUtagSIZE@@@Z 1000295f f i ImageScanner.obj
 0001:00001990       ?GetViewStatus@?$IViewObjectExImpl@VCOPOSImageScanner@@@ATL@@UAGJPAK@Z 10002990 f i ImageScanner.obj
 0001:000019ad       ?QueryHitPoint@?$IViewObjectExImpl@VCOPOSImageScanner@@@ATL@@UAGJKPBUtagRECT@@UtagPOINT@@JPAK@Z 100029ad f i ImageScanner.obj
 0001:000019ee       ?QueryHitRect@?$IViewObjectExImpl@VCOPOSImageScanner@@@ATL@@UAGJKPBUtagRECT@@0JPAK@Z 100029ee f i ImageScanner.obj
 0001:00001a49       ?GetNaturalExtent@?$IViewObjectExImpl@VCOPOSImageScanner@@@ATL@@UAGJKJPAUtagDVTARGETDEVICE@@PAUHDC__@@PAUtagExtentInfo@@PAUtagSIZE@@@Z 10002a49 f i ImageScanner.obj
 0001:00001a94       ?GetWindow@?$IOleInPlaceObjectWindowlessImpl@VCOPOSImageScanner@@@ATL@@UAGJPAPAUHWND__@@@Z 10002a94 f i ImageScanner.obj
 0001:00001ae1       ?InPlaceDeactivate@?$IOleInPlaceObjectWindowlessImpl@VCOPOSImageScanner@@@ATL@@UAGJXZ 10002ae1 f i ImageScanner.obj
 0001:00001afb       ?UIDeactivate@?$IOleInPlaceObjectWindowlessImpl@VCOPOSImageScanner@@@ATL@@UAGJXZ 10002afb f i ImageScanner.obj
 0001:00001b15       ?SetObjectRects@?$IOleInPlaceObjectWindowlessImpl@VCOPOSImageScanner@@@ATL@@UAGJPBUtagRECT@@0@Z 10002b15 f i ImageScanner.obj
 0001:00001b35       ?ReactivateAndUndo@?$IOleInPlaceObjectWindowlessImpl@VCOPOSImageScanner@@@ATL@@UAGJXZ 10002b35 f i ImageScanner.obj
 0001:00001b3d       ?OnWindowMessage@?$IOleInPlaceObjectWindowlessImpl@VCOPOSImageScanner@@@ATL@@UAGJIIJPAJ@Z 10002b3d f i ImageScanner.obj
 0001:00001bad       ?EnumConnectionPoints@?$IConnectionPointContainerImpl@VCOPOSImageScanner@@@ATL@@UAGJPAPAUIEnumConnectionPoints@@@Z 10002bad f i ImageScanner.obj
 0001:00001d27       ?FindConnectionPoint@?$IConnectionPointContainerImpl@VCOPOSImageScanner@@@ATL@@UAGJABU_GUID@@PAPAUIConnectionPoint@@@Z 10002d27 f i ImageScanner.obj
 0001:00001dca       ?IsDirty@?$IPersistStorageImpl@VCOPOSImageScanner@@@ATL@@UAGJXZ 10002dca f i ImageScanner.obj
 0001:00001dfe       ?InitNew@?$IPersistStorageImpl@VCOPOSImageScanner@@@ATL@@UAGJPAUIStorage@@@Z 10002dfe f i ImageScanner.obj
 0001:00001e32       ?Load@?$IPersistStorageImpl@VCOPOSImageScanner@@@ATL@@UAGJPAUIStorage@@@Z 10002e32 f i ImageScanner.obj
 0001:00001e9e       ?Save@?$IPersistStorageImpl@VCOPOSImageScanner@@@ATL@@UAGJPAUIStorage@@H@Z 10002e9e f i ImageScanner.obj
 0001:00001f11       ?GetPages@?$ISpecifyPropertyPagesImpl@VCOPOSImageScanner@@@ATL@@UAGJPAUtagCAUUID@@@Z 10002f11 f i ImageScanner.obj
 0001:00001f28       ?QuickActivate@?$IQuickActivateImpl@VCOPOSImageScanner@@@ATL@@UAGJPAUtagQACONTAINER@@PAUtagQACONTROL@@@Z 10002f28 f i ImageScanner.obj
 0001:00001f4b       ?SetContentExtent@?$IQuickActivateImpl@VCOPOSImageScanner@@@ATL@@UAGJPAUtagSIZE@@@Z 10002f4b f i ImageScanner.obj
 0001:00001f77       ?GetContentExtent@?$IQuickActivateImpl@VCOPOSImageScanner@@@ATL@@UAGJPAUtagSIZE@@@Z 10002f77 f i ImageScanner.obj
 0001:00001f97       ?GetData@?$IDataObjectImpl@VCOPOSImageScanner@@@ATL@@UAGJPAUtagFORMATETC@@PAUtagSTGMEDIUM@@@Z 10002f97 f i ImageScanner.obj
 0001:00001fba       ?DAdvise@?$IDataObjectImpl@VCOPOSImageScanner@@@ATL@@UAGJPAUtagFORMATETC@@KPAUIAdviseSink@@PAK@Z 10002fba f i ImageScanner.obj
 0001:00001ffb       ?DUnadvise@?$IDataObjectImpl@VCOPOSImageScanner@@@ATL@@UAGJK@Z 10002ffb f i ImageScanner.obj
 0001:00002029       ?EnumDAdvise@?$IDataObjectImpl@VCOPOSImageScanner@@@ATL@@UAGJPAPAUIEnumSTATDATA@@@Z 10003029 f i ImageScanner.obj
 0001:00002068       ?GetClassInfoW@?$IProvideClassInfo2Impl@$1?CLSID_OPOSImageScanner@@3U_GUID@@B$1?DIID__IOPOSImageScannerEvents@@3U2@B$1?LIBID_OposImageScanner_CCO@@3U2@B$00$0A@VCComTypeInfoHolder@ATL@@@ATL@@UAGJPAPAUITypeInfo@@@Z 10003068 f i ImageScanner.obj
 0001:0000207e       ?GetGUID@?$IProvideClassInfo2Impl@$1?CLSID_OPOSImageScanner@@3U_GUID@@B$1?DIID__IOPOSImageScannerEvents@@3U2@B$1?LIBID_OposImageScanner_CCO@@3U2@B$00$0A@VCComTypeInfoHolder@ATL@@@ATL@@UAGJKPAU_GUID@@@Z 1000307e f i ImageScanner.obj
 0001:000020bc       __get_startup_argv_mode    100030bc f i LIBCMT:argv_mode.obj
 0001:000020bc       ?FAccessAllowed@?$IObjectSafetyImpl@VCOPOSImageScanner@@$02@ATL@@MAEHXZ 100030bc f i ImageScanner.obj
 0001:000020c0       ?GetInterfaceSafetyOptions@?$IObjectSafetyImpl@VCOPOSImageScanner@@$02@ATL@@UAGJABU_GUID@@PAK1@Z 100030c0 f i ImageScanner.obj
 0001:00002134       ?SetInterfaceSafetyOptions@?$IObjectSafetyImpl@VCOPOSImageScanner@@$02@ATL@@UAGJABU_GUID@@KK@Z 10003134 f i ImageScanner.obj
 0001:000021ae       ?_LocCPQueryInterface@?$IConnectionPointImpl@VCOPOSImageScanner@@$1?IID_IPropertyNotifySink@@3U_GUID@@BVCComDynamicUnkArray@ATL@@@ATL@@UAGJABU_GUID@@PAPAX@Z 100031ae f i ImageScanner.obj
 0001:000021ae       ?_LocCPQueryInterface@?$IConnectionPointImpl@VCOPOSImageScanner@@$1?DIID__IOPOSImageScannerEvents@@3U_GUID@@BVCComDynamicUnkArray@ATL@@@ATL@@UAGJABU_GUID@@PAPAX@Z 100031ae f i ImageScanner.obj
 0001:000021fb       ?GetConnectionInterface@?$IConnectionPointImpl@VCOPOSImageScanner@@$1?IID_IPropertyNotifySink@@3U_GUID@@BVCComDynamicUnkArray@ATL@@@ATL@@UAGJPAU_GUID@@@Z 100031fb f i ImageScanner.obj
 0001:0000221f       ?GetConnectionPointContainer@?$IConnectionPointImpl@VCOPOSImageScanner@@$1?IID_IPropertyNotifySink@@3U_GUID@@BVCComDynamicUnkArray@ATL@@@ATL@@UAGJPAPAUIConnectionPointContainer@@@Z 1000321f f i ImageScanner.obj
 0001:00002242       ?Advise@?$IConnectionPointImpl@VCOPOSImageScanner@@$1?IID_IPropertyNotifySink@@3U_GUID@@BVCComDynamicUnkArray@ATL@@@ATL@@UAGJPAUIUnknown@@PAK@Z 10003242 f i ImageScanner.obj
 0001:00002242       ?Advise@?$IConnectionPointImpl@VCOPOSImageScanner@@$1?DIID__IOPOSImageScannerEvents@@3U_GUID@@BVCComDynamicUnkArray@ATL@@@ATL@@UAGJPAUIUnknown@@PAK@Z 10003242 f i ImageScanner.obj
 0001:000022e3       ?Unadvise@?$IConnectionPointImpl@VCOPOSImageScanner@@$1?IID_IPropertyNotifySink@@3U_GUID@@BVCComDynamicUnkArray@ATL@@@ATL@@UAGJK@Z 100032e3 f i ImageScanner.obj
 0001:000022e3       ?Unadvise@?$IConnectionPointImpl@VCOPOSImageScanner@@$1?DIID__IOPOSImageScannerEvents@@3U_GUID@@BVCComDynamicUnkArray@ATL@@@ATL@@UAGJK@Z 100032e3 f i ImageScanner.obj
 0001:00002323       ?EnumConnections@?$IConnectionPointImpl@VCOPOSImageScanner@@$1?DIID__IOPOSImageScannerEvents@@3U_GUID@@BVCComDynamicUnkArray@ATL@@@ATL@@UAGJPAPAUIEnumConnections@@@Z 10003323 f i ImageScanner.obj
 0001:00002323       ?EnumConnections@?$IConnectionPointImpl@VCOPOSImageScanner@@$1?IID_IPropertyNotifySink@@3U_GUID@@BVCComDynamicUnkArray@ATL@@@ATL@@UAGJPAPAUIEnumConnections@@@Z 10003323 f i ImageScanner.obj
 0001:00002429       ?GetConnectionInterface@?$IConnectionPointImpl@VCOPOSImageScanner@@$1?DIID__IOPOSImageScannerEvents@@3U_GUID@@BVCComDynamicUnkArray@ATL@@@ATL@@UAGJPAU_GUID@@@Z 10003429 f i ImageScanner.obj
 0001:0000244d       ?GetConnectionPointContainer@?$IConnectionPointImpl@VCOPOSImageScanner@@$1?DIID__IOPOSImageScannerEvents@@3U_GUID@@BVCComDynamicUnkArray@ATL@@@ATL@@UAGJPAPAUIConnectionPointContainer@@@Z 1000344d f i ImageScanner.obj
 0001:00002470       ?AddRef@CRegObject@ATL@@UAGKXZ 10003470 f i ImageScanner.obj
 0001:00002476       ?AddReplacement@CRegObject@ATL@@UAGJPB_W0@Z 10003476 f i ImageScanner.obj
 0001:000024af       ?ClearReplacements@CRegObject@ATL@@UAGJXZ 100034af f i ImageScanner.obj
 0001:000024c1       ??_GCRegObject@ATL@@UAEPAXI@Z 100034c1 f i ImageScanner.obj
 0001:000024c1       ??_ECRegObject@ATL@@UAEPAXI@Z 100034c1 f i ImageScanner.obj
 0001:000024e3       ?UpdateRegistry@COPOSImageScanner@@SGJH@Z 100034e3 f i ImageScanner.obj
 0001:000024fb       ?ProcessWindowMessage@COPOSImageScanner@@UAEHPAUHWND__@@IIJAAJK@Z 100034fb f i ImageScanner.obj
 0001:00002544       ?SOData@COPOSImageScanner@@MAGJJ@Z 10003544 f i ImageScanner.obj
 0001:0000257d       ?SODirectIO@COPOSImageScanner@@MAGJJPAJPAPA_W@Z 1000357d f i ImageScanner.obj
 0001:000025c6       ?SOError@COPOSImageScanner@@MAGJJJJPAJ@Z 100035c6 f i ImageScanner.obj
 0001:0000261b       ?SOStatusUpdate@COPOSImageScanner@@MAGJJ@Z 1000361b f i ImageScanner.obj
 0001:00002654       ?CreateInstance@?$CComCreator@V?$CComObjectCached@VCComClassFactory@ATL@@@ATL@@@ATL@@SGJPAXABU_GUID@@PAPAX@Z 10003654 f i ImageScanner.obj
 0001:000026e7       ?CreateInstance@?$CComCreator2@V?$CComCreator@V?$CComObject@VCOPOSImageScanner@@@ATL@@@ATL@@V?$CComCreator@V?$CComAggObject@VCOPOSImageScanner@@@ATL@@@2@@ATL@@SGJPAXABU_GUID@@PAPAX@Z 100036e7 f i ImageScanner.obj
 0001:00002707       ?Next@?$CComEnumImpl@UIEnumConnectionPoints@@$1?_GUID_b196b285_bab4_101a_b69c_00aa00341d07@@3U__s_GUID@@BPAUIConnectionPoint@@V?$_CopyInterface@UIConnectionPoint@@@ATL@@@ATL@@UAGJKPAPAUIConnectionPoint@@PAK@Z 10003707 f i ImageScanner.obj
 0001:000027de       ?Skip@?$CComEnumImpl@UIEnumConnectionPoints@@$1?_GUID_b196b285_bab4_101a_b69c_00aa00341d07@@3U__s_GUID@@BPAUIConnectionPoint@@V?$_CopyInterface@UIConnectionPoint@@@ATL@@@ATL@@UAGJK@Z 100037de f i ImageScanner.obj
 0001:0000280b       ?Clone@?$CComEnumImpl@UIEnumConnectionPoints@@$1?_GUID_b196b285_bab4_101a_b69c_00aa00341d07@@3U__s_GUID@@BPAUIConnectionPoint@@V?$_CopyInterface@UIConnectionPoint@@@ATL@@@ATL@@UAGJPAPAUIEnumConnectionPoints@@@Z 1000380b f i ImageScanner.obj
 0001:000028ea       ?QueryInterface@?$CComObject@V?$CComEnum@UIEnumConnectionPoints@@$1?_GUID_b196b285_bab4_101a_b69c_00aa00341d07@@3U__s_GUID@@BPAUIConnectionPoint@@V?$_CopyInterface@UIConnectionPoint@@@ATL@@VCComSingleThreadModel@6@@ATL@@@ATL@@UAGJABU_GUID@@PAPAX@Z 100038ea f i ImageScanner.obj
 0001:00002904       ??_G?$CComObject@V?$CComEnum@UIEnumConnectionPoints@@$1?_GUID_b196b285_bab4_101a_b69c_00aa00341d07@@3U__s_GUID@@BPAUIConnectionPoint@@V?$_CopyInterface@UIConnectionPoint@@@ATL@@VCComSingleThreadModel@6@@ATL@@@ATL@@UAEPAXI@Z 10003904 f i ImageScanner.obj
 0001:00002904       ??_E?$CComObject@V?$CComEnum@UIEnumConnectionPoints@@$1?_GUID_b196b285_bab4_101a_b69c_00aa00341d07@@3U__s_GUID@@BPAUIConnectionPoint@@V?$_CopyInterface@UIConnectionPoint@@@ATL@@VCComSingleThreadModel@6@@ATL@@@ATL@@UAEPAXI@Z 10003904 f i ImageScanner.obj
 0001:00002926       ??$?4UITypeInfo2@@@?$CComPtr@UITypeInfo@@@ATL@@QAEPAUITypeInfo@@ABV?$CComPtr@UITypeInfo2@@@1@@Z 10003926 f i ImageScanner.obj
 0001:00002953       ??$AtlAdd@K@ATL@@YAJPAKKK@Z 10003953 f i ImageScanner.obj
 0001:00002976       ??$AtlAdd@_K@ATL@@YAJPA_K_K1@Z 10003976 f i ImageScanner.obj
 0001:000029ae       ??$AtlAddThrow@K@ATL@@YAKKK@Z 100039ae f i ImageScanner.obj
 0001:000029d4       ??$AtlModuleRegisterWndClassInfoT@VAtlModuleRegisterWndClassInfoParamW@ATL@@@ATL@@YAGPAU_ATL_BASE_MODULE70@0@PAU_ATL_WIN_MODULE70@0@PAU_ATL_WNDCLASSINFOW@0@PAP6GJPAUHWND__@@IIJ@ZVAtlModuleRegisterWndClassInfoParamW@0@@Z 100039d4 f i ImageScanner.obj
 0001:00002b22       ??$AtlMultiply@H@ATL@@YAJPAHHH@Z 10003b22 f i ImageScanner.obj
 0001:00002b5a       ??$AtlMultiply@I@ATL@@YAJPAIII@Z 10003b5a f i ImageScanner.obj
 0001:00002b5a       ??$AtlMultiply@K@ATL@@YAJPAKKK@Z 10003b5a f i ImageScanner.obj
 0001:00002b7c       ??$AtlMultiplyThrow@I@ATL@@YAIII@Z 10003b7c f i ImageScanner.obj
 0001:00002ba2       ??0?$CComAggObject@VCOPOSImageScanner@@@ATL@@QAE@PAX@Z 10003ba2 f i ImageScanner.obj
 0001:00002bcf       ??0?$CComContainedObject@VCOPOSImageScanner@@@ATL@@QAE@PAX@Z 10003bcf f i ImageScanner.obj
 0001:00002c88       ??0?$CComObject@V?$CComEnum@UIEnumConnectionPoints@@$1?_GUID_b196b285_bab4_101a_b69c_00aa00341d07@@3U__s_GUID@@BPAUIConnectionPoint@@V?$_CopyInterface@UIConnectionPoint@@@ATL@@VCComSingleThreadModel@6@@ATL@@@ATL@@QAE@PAX@Z 10003c88 f i ImageScanner.obj
 0001:00002cb6       ??0?$CComObject@V?$CComEnum@UIEnumConnections@@$1?_GUID_b196b287_bab4_101a_b69c_00aa00341d07@@3U__s_GUID@@BUtagCONNECTDATA@@V?$_Copy@UtagCONNECTDATA@@@ATL@@VCComSingleThreadModel@6@@ATL@@@ATL@@QAE@PAX@Z 10003cb6 f i ImageScanner.obj
 0001:00002ce4       ??0?$CComObject@VCOPOSImageScanner@@@ATL@@QAE@PAX@Z 10003ce4 f i ImageScanner.obj
 0001:00002d9b       ??0?$CComQIPtr@UIOleControlSite@@$1?_GUID_b196b289_bab4_101a_b69c_00aa00341d07@@3U__s_GUID@@B@ATL@@QAE@PAUIUnknown@@@Z 10003d9b f i ImageScanner.obj
 0001:00002dc4       ??0CAtlModule@ATL@@QAE@XZ  10003dc4 f i ImageScanner.obj
 0001:00002e05       ??0CParseBuffer@CRegParser@ATL@@QAE@H@Z 10003e05 f i ImageScanner.obj
 0001:00002e3b       ??0_ATL_MSG@ATL@@QAE@PAUHWND__@@IIJH@Z 10003e3b f i ImageScanner.obj
 0001:00002e73       ??1?$CComAggObject@VCOPOSImageScanner@@@ATL@@UAE@XZ 10003e73 f i ImageScanner.obj
 0001:00002e97       ??1?$CComEnumImpl@UIEnumConnectionPoints@@$1?_GUID_b196b285_bab4_101a_b69c_00aa00341d07@@3U__s_GUID@@BPAUIConnectionPoint@@V?$_CopyInterface@UIConnectionPoint@@@ATL@@@ATL@@UAE@XZ 10003e97 f i ImageScanner.obj
 0001:00002ed7       ??1?$CComEnumImpl@UIEnumConnections@@$1?_GUID_b196b287_bab4_101a_b69c_00aa00341d07@@3U__s_GUID@@BUtagCONNECTDATA@@V?$_Copy@UtagCONNECTDATA@@@ATL@@@ATL@@UAE@XZ 10003ed7 f i ImageScanner.obj
 0001:00002f17       ??1?$CComObject@V?$CComEnum@UIEnumConnectionPoints@@$1?_GUID_b196b285_bab4_101a_b69c_00aa00341d07@@3U__s_GUID@@BPAUIConnectionPoint@@V?$_CopyInterface@UIConnectionPoint@@@ATL@@VCComSingleThreadModel@6@@ATL@@@ATL@@UAE@XZ 10003f17 f i ImageScanner.obj
 0001:00002f3a       ??1?$CComObject@V?$CComEnum@UIEnumConnections@@$1?_GUID_b196b287_bab4_101a_b69c_00aa00341d07@@3U__s_GUID@@BUtagCONNECTDATA@@V?$_Copy@UtagCONNECTDATA@@@ATL@@VCComSingleThreadModel@6@@ATL@@@ATL@@UAE@XZ 10003f3a f i ImageScanner.obj
 0001:00002f5d       ??1?$CComObject@VCOPOSImageScanner@@@ATL@@UAE@XZ 10003f5d f i ImageScanner.obj
 0001:0000301b       ??1?$CComObjectCached@VCComClassFactory@ATL@@@ATL@@UAE@XZ 1000401b f i ImageScanner.obj
 0001:00003031       ??1?$CComObjectRootEx@VCComMultiThreadModel@ATL@@@ATL@@QAE@XZ 10004031 f i ImageScanner.obj
 0001:00003046       ??1CRegObject@ATL@@UAE@XZ  10004046 f i ImageScanner.obj
 0001:00003066       ??4?$CComPtr@UIOleClientSite@@@ATL@@QAEPAUIOleClientSite@@PAU2@@Z 10004066 f i ImageScanner.obj
 0001:00003066       ??4?$CComPtr@UIAdviseSink@@@ATL@@QAEPAUIAdviseSink@@PAU2@@Z 10004066 f i ImageScanner.obj
 0001:00003066       ??4?$CComPtr@UIUnknown@@@ATL@@QAEPAUIUnknown@@PAU2@@Z 10004066 f i ImageScanner.obj
 0001:0000309a       ??4?$CComQIPtr@UIOleObject@@$1?_GUID_00000112_0000_0000_c000_000000000046@@3U__s_GUID@@B@ATL@@QAEPAUIOleObject@@PAUIUnknown@@@Z 1000409a f i ImageScanner.obj
 0001:000030bf       ??4?$CComQIPtr@UISpecifyPropertyPages@@$1?_GUID_b196b28b_bab4_101a_b69c_00aa00341d07@@3U__s_GUID@@B@ATL@@QAEPAUISpecifyPropertyPages@@PAUIUnknown@@@Z 100040bf f i ImageScanner.obj
 0001:000030e4       ??_G?$CComContainedObject@VCOPOSImageScanner@@@ATL@@UAEPAXI@Z 100040e4 f i ImageScanner.obj
 0001:000030e4       ??_E?$CComContainedObject@VCOPOSImageScanner@@@ATL@@UAEPAXI@Z 100040e4 f i ImageScanner.obj
 0001:00003109       ??_G?$CComObject@VCOPOSImageScanner@@@ATL@@UAEPAXI@Z 10004109 f i ImageScanner.obj
 0001:00003109       ??_E?$CComObject@VCOPOSImageScanner@@@ATL@@UAEPAXI@Z 10004109 f i ImageScanner.obj
 0001:0000312e       ?Add@?$CSimpleArray@GV?$CSimpleArrayEqualHelper@G@ATL@@@ATL@@QAEHABG@Z 1000412e f i ImageScanner.obj
 0001:000031b2       ?Add@?$CSimpleMap@PA_WPA_WVCExpansionVectorEqualHelper@ATL@@@ATL@@QAEHABQA_W0@Z 100041b2 f i ImageScanner.obj
 0001:00003207       ?Add@CComDynamicUnkArray@ATL@@QAEKPAUIUnknown@@@Z 10004207 f i ImageScanner.obj
 0001:000032c2       ?Add@CExpansionVector@ATL@@QAEHPB_W0@Z 100042c2 f i ImageScanner.obj
 0001:000033c6       ?AddString@CParseBuffer@CRegParser@ATL@@QAEHPB_W@Z 100043c6 f i ImageScanner.obj
 0001:000033fb       ?AddValue@CRegParser@ATL@@IAEJAAVCRegKey@2@PB_WPA_W@Z 100043fb f i ImageScanner.obj
 0001:0000371c       ?Allocate@?$CAtlSafeAllocBufferManager@VCCRTAllocator@ATL@@@_ATL_SAFE_ALLOCA_IMPL@ATL@@QAEPAXK@Z 1000471c f i ImageScanner.obj
 0001:00003749       ?Allocate@?$CTempBuffer@E$0BAA@VCCRTAllocator@ATL@@@ATL@@QAEPAEI@Z 10004749 f i ImageScanner.obj
 0001:00003778       ?Allocate@?$CTempBuffer@_W$0BAA@VCCRTAllocator@ATL@@@ATL@@QAEPA_WI@Z 10004778 f i ImageScanner.obj
 0001:000037a7       ?Allocate@?$CTempBuffer@_W$0EAA@VCCRTAllocator@ATL@@@ATL@@QAEPA_WI@Z 100047a7 f i ImageScanner.obj
 0001:000037d6       ?AllocateHeap@?$CTempBuffer@_W$0EAA@VCCRTAllocator@ATL@@@ATL@@AAEXI@Z 100047d6 f i ImageScanner.obj
 0001:000037d6       ?AllocateHeap@?$CTempBuffer@E$0BAA@VCCRTAllocator@ATL@@@ATL@@AAEXI@Z 100047d6 f i ImageScanner.obj
 0001:000037d6       ?AllocateHeap@?$CTempBuffer@_W$0BAA@VCCRTAllocator@ATL@@@ATL@@AAEXI@Z 100047d6 f i ImageScanner.obj
 0001:000037fb       ?Append@CParseBuffer@CRegParser@ATL@@QAEHPB_WH@Z 100047fb f i ImageScanner.obj
 0001:00003889       ?AtlCallTermFunc@ATL@@YGXPAU_ATL_MODULE70@1@@Z 10004889 f i ImageScanner.obj
 0001:000038cd       ?AtlCoTaskMemCAlloc@ATL@@YAPAXKK@Z 100048cd f i ImageScanner.obj
 0001:000038fa       ?AtlCoTaskMemRecalloc@ATL@@YAPAXPAXKK@Z 100048fa f i ImageScanner.obj
 0001:0000392a       ?AtlComModuleGetClassObject@ATL@@YGJPAU_ATL_COM_MODULE70@1@ABU_GUID@@1PAPAX@Z 1000492a f i ImageScanner.obj
 0001:00003a1d       ?AtlComModuleRegisterServer@ATL@@YGJPAU_ATL_COM_MODULE70@1@HPBU_GUID@@@Z 10004a1d f i ImageScanner.obj
 0001:00003aa5       ?AtlComModuleUnregisterServer@ATL@@YGJPAU_ATL_COM_MODULE70@1@HPBU_GUID@@@Z 10004aa5 f i ImageScanner.obj
 0001:00003b2d       ?AtlComQIPtrAssign2@ATL@@YAXPAPAUIUnknown@@PAU2@ABU_GUID@@@Z 10004b2d f i ImageScanner.obj
 0001:00003b5c       ?AtlCreateTargetDC@ATL@@YGPAUHDC__@@PAU2@PAUtagDVTARGETDEVICE@@@Z 10004b5c f i ImageScanner.obj
 0001:00003bc5       ?AtlCrtErrorCheck@ATL@@YAHH@Z 10004bc5 f i ImageScanner.obj
 0001:00003c00       ?AtlHiMetricToPixel@ATL@@YGXPBUtagSIZE@@PAU2@@Z 10004c00 f i ImageScanner.obj
 0001:00003c75       ?AtlHresultFromLastError@ATL@@YAJXZ 10004c75 f i ImageScanner.obj
 0001:00003c8c       ?AtlHresultFromWin32@ATL@@YAJK@Z 10004c8c f i ImageScanner.obj
 0001:00003ca1       ?AtlIPersistStreamInit_Load@ATL@@YGJPAUIStream@@PBUATL_PROPMAP_ENTRY@1@PAXPAUIUnknown@@@Z 10004ca1 f i ImageScanner.obj
 0001:00003e81       ?AtlIPersistStreamInit_Save@ATL@@YGJPAUIStream@@HPBUATL_PROPMAP_ENTRY@1@PAXPAUIUnknown@@@Z 10004e81 f i ImageScanner.obj
 0001:00004019       ?AtlInternalOleLoadFromStream@ATL@@YAJPAUIStream@@ABU_GUID@@PAPAXTClassesAllowedInStream@1@K@Z 10005019 f i ImageScanner.obj
 0001:0000413f       ?AtlInternalQueryInterface@ATL@@YGJPAXPBU_ATL_INTMAP_ENTRY@1@ABU_GUID@@PAPAX@Z 1000513f f i ImageScanner.obj
 0001:000041e2       ?AtlLoadTypeLib@ATL@@YGJPAUHINSTANCE__@@PB_WPAPA_WPAPAUITypeLib@@@Z 100051e2 f i ImageScanner.obj
 0001:000043c0       ?AtlModuleAddTermFunc@ATL@@YGJPAU_ATL_MODULE70@1@P6GXK@ZK@Z 100053c0 f i ImageScanner.obj
 0001:0000441d       ?AtlRegisterClassCategoriesHelper@ATL@@YGJABU_GUID@@PBU_ATL_CATMAP_ENTRY@1@H@Z 1000541d f i ImageScanner.obj
 0001:000046fd       ?AtlRegisterTypeLib@ATL@@YGJPAUHINSTANCE__@@PB_W@Z 100056fd f i ImageScanner.obj
 0001:00004885       ?AtlThrowImpl@ATL@@YGXJ@Z  10005885 f i ImageScanner.obj
 0001:000048a3       ?AtlUnRegisterTypeLib@ATL@@YGJPAUHINSTANCE__@@PB_W@Z 100058a3 f i ImageScanner.obj
 0001:0000494e       ?AtlWinModuleAddCreateWndData@ATL@@YGXPAU_ATL_WIN_MODULE70@1@PAU_AtlCreateWndData@1@PAX@Z 1000594e f i ImageScanner.obj
 0001:000049a2       ?AtlWinModuleExtractCreateWndData@ATL@@YGPAXPAU_ATL_WIN_MODULE70@1@@Z 100059a2 f i ImageScanner.obj
 0001:00004a05       ?AtlWinModuleRegisterClassExW@ATL@@YGGPAU_ATL_WIN_MODULE70@1@PBUtagWNDCLASSEXW@@@Z 10005a05 f i ImageScanner.obj
 0001:00004a44       ?CanForceRemoveKey@CRegParser@ATL@@IAEHPB_W@Z 10005a44 f i ImageScanner.obj
 0001:00004a73       ?ChToByte@CRegParser@ATL@@KAE_W@Z 10005a73 f i ImageScanner.obj
 0001:00004aa6       ?Cleanup@CComTypeInfoHolder@ATL@@SGXK@Z 10005aa6 f i ImageScanner.obj
 0001:00004ad9       ?ClearReplacements@CExpansionVector@ATL@@QAEJXZ 10005ad9 f i ImageScanner.obj
 0001:00004b16       ?Close@CRegKey@ATL@@QAEJXZ 10005b16 f i ImageScanner.obj
 0001:00004b30       ?CreateInstance@?$CComCreator@V?$CComAggObject@VCOPOSImageScanner@@@ATL@@@ATL@@SGJPAXABU_GUID@@PAPAX@Z 10005b30 f i ImageScanner.obj
 0001:00004ba6       ?CreateInstance@?$CComCreator@V?$CComObject@VCOPOSImageScanner@@@ATL@@@ATL@@SGJPAXABU_GUID@@PAPAX@Z 10005ba6 f i ImageScanner.obj
 0001:00004c27       ?CreateInstance@?$CComObject@V?$CComEnum@UIEnumConnectionPoints@@$1?_GUID_b196b285_bab4_101a_b69c_00aa00341d07@@3U__s_GUID@@BPAUIConnectionPoint@@V?$_CopyInterface@UIConnectionPoint@@@ATL@@VCComSingleThreadModel@6@@ATL@@@ATL@@SGJPAPAV12@@Z 10005c27 f i ImageScanner.obj
 0001:00004c6e       ?CreateInstance@?$CComObject@V?$CComEnum@UIEnumConnections@@$1?_GUID_b196b287_bab4_101a_b69c_00aa00341d07@@3U__s_GUID@@BUtagCONNECTDATA@@V?$_Copy@UtagCONNECTDATA@@@ATL@@VCComSingleThreadModel@6@@ATL@@@ATL@@SGJPAPAV12@@Z 10005c6e f i ImageScanner.obj
 0001:00004cb5       ?DefaultReflectionHandler@?$CWindowImplRoot@VCWindow@ATL@@@ATL@@SAHPAUHWND__@@IIJAAJ@Z 10005cb5 f i ImageScanner.obj
 0001:00004d28       ?DeleteSubKey@CRegKey@ATL@@QAEJPB_W@Z 10005d28 f i ImageScanner.obj
 0001:00004da1       ?DoEvent@COPOSImageScanner@@IAEXIIJ@Z 10005da1 f i ImageScanner.obj
 0001:00004e21       ?DoVerbHide@?$IOleObjectImpl@VCOPOSImageScanner@@@ATL@@QAEJPBUtagRECT@@PAUHWND__@@@Z 10005e21 f i ImageScanner.obj
 0001:00004e57       ?DoVerbInPlaceActivate@?$IOleObjectImpl@VCOPOSImageScanner@@@ATL@@QAEJPBUtagRECT@@PAUHWND__@@@Z 10005e57 f i ImageScanner.obj
 0001:00004e8a       ?DoVerbPrimary@?$IOleObjectImpl@VCOPOSImageScanner@@@ATL@@QAEJPBUtagRECT@@PAUHWND__@@@Z 10005e8a f i ImageScanner.obj
 0001:00004f16       ?DoVerbProperties@CComControlBase@ATL@@QAEJPBUtagRECT@@PAUHWND__@@@Z 10005f16 f i ImageScanner.obj
 0001:0000503d       ?DoVerbShow@?$IOleObjectImpl@VCOPOSImageScanner@@@ATL@@QAEJPBUtagRECT@@PAUHWND__@@@Z 1000603d f i ImageScanner.obj
 0001:00005062       ?DoVerbUIActivate@?$IOleObjectImpl@VCOPOSImageScanner@@@ATL@@QAEJPBUtagRECT@@PAUHWND__@@@Z 10006062 f i ImageScanner.obj
 0001:0000509f       ?DoesVerbActivate@CComControlBase@ATL@@QAEHJ@Z 1000609f f i ImageScanner.obj
 0001:000050c0       ?DoesVerbUIActivate@CComControlBase@ATL@@QAEHJ@Z 100060c0 f i ImageScanner.obj
 0001:000050f5       ?EndOfVar@CRegParser@ATL@@IAEHXZ 100060f5 f i ImageScanner.obj
 0001:00005115       ?EscapeSingleQuote@CAtlModule@ATL@@SAXPA_WIPB_W@Z 10006115 f i ImageScanner.obj
 0001:00005164       ?FindKey@?$CSimpleMap@PA_WPA_WVCExpansionVectorEqualHelper@ATL@@@ATL@@QBEHABQA_W@Z 10006164 f i ImageScanner.obj
 0001:0000519b       ?FireTheEvent@?$CProxy_IOPOSEvents@VCOPOSImageScanner@@@@IAEXPAVOposVariant@@IAAJPB_WJ@Z 1000619b f i ImageScanner.obj
 0001:0000522d       ?FireViewChange@CComControlBase@ATL@@QAEJXZ 1000622d f i ImageScanner.obj
 0001:00005276       ?Fire_DataEvent@?$CProxy_IOPOSEvents@VCOPOSImageScanner@@@@QAEXJ@Z 10006276 f i ImageScanner.obj
 0001:00005302       ?Fire_DirectIOEvent@?$CProxy_IOPOSEvents@VCOPOSImageScanner@@@@QAEXJPAJPAPA_W@Z 10006302 f i ImageScanner.obj
 0001:000053e8       ?Fire_ErrorEvent@?$CProxy_IOPOSEvents@VCOPOSImageScanner@@@@QAEXJJJPAJ@Z 100063e8 f i ImageScanner.obj
 0001:000054cf       ?Fire_StatusUpdateEvent@?$CProxy_IOPOSEvents@VCOPOSImageScanner@@@@QAEXJ@Z 100064cf f i ImageScanner.obj
 0001:0000555b       ?FreeHeap@?$CTempBuffer@_W$0EAA@VCCRTAllocator@ATL@@@ATL@@AAEXXZ 1000655b f i ImageScanner.obj
 0001:0000555b       ?FreeHeap@?$CTempBuffer@E$0BAA@VCCRTAllocator@ATL@@@ATL@@AAEXXZ 1000655b f i ImageScanner.obj
 0001:0000555b       ?FreeHeap@?$CTempBuffer@_W$0BAA@VCCRTAllocator@ATL@@@ATL@@AAEXXZ 1000655b f i ImageScanner.obj
 0001:00005564       ?GetAmbientLocaleID@CComControlBase@ATL@@QAEJAAK@Z 10006564 f i ImageScanner.obj
 0001:000055c0       ?GetAmbientUserMode@CComControlBase@ATL@@QAEJAAH@Z 100065c0 f i ImageScanner.obj
 0001:00005630       ?GetAt@CComDynamicUnkArray@ATL@@QAEPAUIUnknown@@H@Z 10006630 f i ImageScanner.obj
 0001:0000564c       ?GetClassObject@CComModule@ATL@@QAEJABU_GUID@@0PAPAX@Z 1000664c f i ImageScanner.obj
 0001:000056ee       ?GetConnMap@COPOSImageScanner@@SAPBU_ATL_CONNMAP_ENTRY@ATL@@PAH@Z 100066ee f i ImageScanner.obj
 0001:0000575e       ?GetCookie@CComDynamicUnkArray@ATL@@QAGKPAPAUIUnknown@@@Z 1000675e f i ImageScanner.obj
 0001:00005796       ?GetIDsOfNames@CComTypeInfoHolder@ATL@@QAEJABU_GUID@@PAPA_WIKPAJ@Z 10006796 f i ImageScanner.obj
 0001:000058a4       ?GetKeyAt@?$CSimpleMap@PA_WPA_WVCExpansionVectorEqualHelper@ATL@@@ATL@@QBEAAPA_WH@Z 100068a4 f i ImageScanner.obj
 0001:000058c9       ?GetPagesHelper@?$ISpecifyPropertyPagesImpl@VCOPOSImageScanner@@@ATL@@IAEJPAUtagCAUUID@@PBUATL_PROPMAP_ENTRY@2@@Z 100068c9 f i ImageScanner.obj
 0001:000059f0       ?GetProperty@?$CComPtr@UIDispatch@@@ATL@@SAJPAUIDispatch@@JPAUtagVARIANT@@@Z 100069f0 f i ImageScanner.obj
 0001:00005a3f       ?GetSizeMax@CComVariant@ATL@@QBEJPAT_ULARGE_INTEGER@@@Z 10006a3f f i ImageScanner.obj
 0001:00005bf9       ?GetStreamSize@CComBSTR@ATL@@SAKPA_W@Z 10006bf9 f i ImageScanner.obj
 0001:00005c13       ?GetTI@CComTypeInfoHolder@ATL@@QAEJK@Z 10006c13 f i ImageScanner.obj
 0001:00005dfc       ?GetTI@CComTypeInfoHolder@ATL@@QAEJKPAPAUITypeInfo@@@Z 10006dfc f i ImageScanner.obj
 0001:00005e3e       ?GetUnknown@CComDynamicUnkArray@ATL@@QAGPAUIUnknown@@K@Z 10006e3e f i ImageScanner.obj
 0001:00005e5f       ?GetValueAt@?$CSimpleMap@PA_WPA_WVCExpansionVectorEqualHelper@ATL@@@ATL@@QBEAAPA_WH@Z 10006e5f f i ImageScanner.obj
 0001:00005e85       ?GetZoomInfo@CComControlBase@ATL@@QAEXAAUATL_DRAWINFO@@@Z 10006e85 f i ImageScanner.obj
 0001:00005f18       ?HKeyFromString@CRegParser@ATL@@KAPAUHKEY__@@PA_W@Z 10006f18 f i ImageScanner.obj
 0001:00005f46       ?HasSubKeys@CRegParser@ATL@@IAEHPAUHKEY__@@@Z 10006f46 f i ImageScanner.obj
 0001:00005f7b       ?IDataObject_GetData@CComControlBase@ATL@@QAEJPAUtagFORMATETC@@PAUtagSTGMEDIUM@@@Z 10006f7b f i ImageScanner.obj
 0001:00006121       ?IOleInPlaceObject_InPlaceDeactivate@CComControlBase@ATL@@QAEJXZ 10007121 f i ImageScanner.obj
 0001:000061a8       ?IOleInPlaceObject_SetObjectRects@CComControlBase@ATL@@QAEJPBUtagRECT@@0@Z 100071a8 f i ImageScanner.obj
 0001:00006275       ?IOleInPlaceObject_UIDeactivate@CComControlBase@ATL@@QAEJXZ 10007275 f i ImageScanner.obj
 0001:00006337       ?IOleObject_Advise@CComControlBase@ATL@@QAEJPAUIAdviseSink@@PAK@Z 10007337 f i ImageScanner.obj
 0001:00006361       ?IOleObject_Close@CComControlBase@ATL@@QAEJK@Z 10007361 f i ImageScanner.obj
 0001:00006445       ?IOleObject_GetClientSite@CComControlBase@ATL@@QAEJPAPAUIOleClientSite@@@Z 10007445 f i ImageScanner.obj
 0001:0000646e       ?IOleObject_SetClientSite@CComControlBase@ATL@@QAEJPAUIOleClientSite@@@Z 1000746e f i ImageScanner.obj
 0001:000064ad       ?IOleObject_SetExtent@CComControlBase@ATL@@QAEJKPAUtagSIZE@@@Z 100074ad f i ImageScanner.obj
 0001:00006561       ?IPSI_GetIPersistStreamInit@?$IPersistStorageImpl@VCOPOSImageScanner@@@ATL@@AAEPAUIPersistStreamInit@@XZ 10007561 f i ImageScanner.obj
 0001:000065a3       ?IPersistStreamInit_Load@?$IPersistStreamInitImpl@VCOPOSImageScanner@@@ATL@@QAEJPAUIStream@@PBUATL_PROPMAP_ENTRY@2@@Z 100075a3 f i ImageScanner.obj
 0001:000065cf       ?IPersistStreamInit_Save@?$IPersistStreamInitImpl@VCOPOSImageScanner@@@ATL@@QAEJPAUIStream@@HPBUATL_PROPMAP_ENTRY@2@@Z 100075cf f i ImageScanner.obj
 0001:00006604       ?IQuickActivate_QuickActivate@CComControlBase@ATL@@QAEJPAUtagQACONTAINER@@PAUtagQACONTROL@@@Z 10007604 f i ImageScanner.obj
 0001:00006846       ?IViewObject_Draw@CComControlBase@ATL@@QAEJKJPAXPAUtagDVTARGETDEVICE@@PAUHDC__@@2PBU_RECTL@@3@Z 10007846 f i ImageScanner.obj
 0001:000068ee       ?InPlaceActivate@CComControlBase@ATL@@QAEJJPBUtagRECT@@@Z 100078ee f i ImageScanner.obj
 0001:00006b5f       ?Init@?$CComEnumImpl@UIEnumConnectionPoints@@$1?_GUID_b196b285_bab4_101a_b69c_00aa00341d07@@3U__s_GUID@@BPAUIConnectionPoint@@V?$_CopyInterface@UIConnectionPoint@@@ATL@@@ATL@@QAEJPAPAUIConnectionPoint@@0PAUIUnknown@@W4CComEnumFlags@2@@Z 10007b5f f i ImageScanner.obj
 0001:00006c3e       ?Init@?$CComEnumImpl@UIEnumConnections@@$1?_GUID_b196b287_bab4_101a_b69c_00aa00341d07@@3U__s_GUID@@BUtagCONNECTDATA@@V?$_Copy@UtagCONNECTDATA@@@ATL@@@ATL@@QAEJPAUtagCONNECTDATA@@0PAUIUnknown@@W4CComEnumFlags@2@@Z 10007c3e f i ImageScanner.obj
 0001:00006d1d       ?Init@CComModule@ATL@@QAEJPAU_ATL_OBJMAP_ENTRY30@2@PAUHINSTANCE__@@PBU_GUID@@@Z 10007d1d f i ImageScanner.obj
 0001:00006d7c       ?Init@CDynamicStdCallThunk2@ATL@@QAEHKPAX@Z 10007d7c f i ImageScanner.obj
 0001:00006da7       ?InlineIsEqualUnknown@ATL@@YGHABU_GUID@@@Z 10007da7 f i ImageScanner.obj
 0001:00006dcf       ?InternalGetSite@CComControlBase@ATL@@QAEJABU_GUID@@PAPAX@Z 10007dcf f i ImageScanner.obj
 0001:00006dfd       ?InternalSetAtIndex@?$CSimpleMap@PA_WPA_WVCExpansionVectorEqualHelper@ATL@@@ATL@@QAEXHABQA_W0@Z 10007dfd f i ImageScanner.obj
 0001:00006e27       ?Invoke@CComTypeInfoHolder@ATL@@QAEJPAUIDispatch@@JABU_GUID@@KGPAUtagDISPPARAMS@@PAUtagVARIANT@@PAUtagEXCEPINFO@@PAI@Z 10007e27 f i ImageScanner.obj
 0001:00006e6a       ?IsEqualObject@?$CComPtrBase@UITypeInfo@@@ATL@@QAE_NPAUIUnknown@@@Z 10007e6a f i ImageScanner.obj
 0001:00006e6a       ?IsEqualObject@?$CComPtrBase@UIOleClientSite@@@ATL@@QAE_NPAUIUnknown@@@Z 10007e6a f i ImageScanner.obj
 0001:00006ed7       ?IsSpace@CRegParser@ATL@@IAEH_W@Z 10007ed7 f i ImageScanner.obj
 0001:00006f01       ?LoadNameCache@CComTypeInfoHolder@ATL@@QAEJPAUITypeInfo@@@Z 10007f01 f i ImageScanner.obj
 0001:0000704f       ?Lookup@?$CSimpleMap@PA_WPA_WVCExpansionVectorEqualHelper@ATL@@@ATL@@QBEPA_WABQA_W@Z 1000804f f i ImageScanner.obj
 0001:00007075       ?NextToken@CRegParser@ATL@@IAEJPA_W@Z 10008075 f i ImageScanner.obj
 0001:000071ad       ?OnKillFocus@CComControlBase@ATL@@QAEJIIJAAH@Z 100081ad f i ImageScanner.obj
 0001:00007208       ?OnMouseActivate@CComControlBase@ATL@@QAEJIIJAAH@Z 10008208 f i ImageScanner.obj
 0001:00007276       ?OnPaint@CComControlBase@ATL@@QAEJIIJAAH@Z 10008276 f i ImageScanner.obj
 0001:00007328       ?OnSetFocus@CComControlBase@ATL@@QAEJIIJAAH@Z 10008328 f i ImageScanner.obj
 0001:000073b1       ?Open@CRegKey@ATL@@QAEJPAUHKEY__@@PB_WK@Z 100083b1 f i ImageScanner.obj
 0001:00007406       ?PreProcessBuffer@CRegParser@ATL@@QAEJPA_WPAPA_W@Z 10008406 f i ImageScanner.obj
 0001:00007670       ?ProcessWindowMessage@?$CComControl@VCOPOSImageScanner@@V?$CWindowImpl@VCOPOSImageScanner@@VCWindow@ATL@@V?$CWinTraits@$0FGAAAAAA@$0A@@3@@ATL@@@ATL@@UAEHPAUHWND__@@IIJAAJK@Z 10008670 f i ImageScanner.obj
 0001:0000770f       ?PutProperty@?$CComPtr@UIDispatch@@@ATL@@SAJPAUIDispatch@@JPAUtagVARIANT@@@Z 1000870f f i ImageScanner.obj
 0001:000077a1       ?ReadFromStream@CComBSTR@ATL@@QAEJPAUIStream@@@Z 100087a1 f i ImageScanner.obj
 0001:000078cf       ?ReadFromStream@CComVariant@ATL@@QAEJPAUIStream@@GTClassesAllowedInStream@2@K@Z 100088cf f i ImageScanner.obj
 0001:00007a55       ?RecurseDeleteKey@CRegKey@ATL@@QAEJPB_W@Z 10008a55 f i ImageScanner.obj
 0001:00007b17       ?RegCreateKeyExW@CAtlTransactionManager@ATL@@QAEJPAUHKEY__@@PB_WKPA_WKKQAU_SECURITY_ATTRIBUTES@@PAPAU3@PAK@Z 10008b17 f i ImageScanner.obj
 0001:00007b7a       ?RegDeleteKeyW@CAtlTransactionManager@ATL@@QAEJPAUHKEY__@@PB_W@Z 10008b7a f i ImageScanner.obj
 0001:00007bcc       ?RegOpenKeyExW@CAtlTransactionManager@ATL@@QAEJPAUHKEY__@@PB_WKKPAPAU3@@Z 10008bcc f i ImageScanner.obj
 0001:00007c23       ?Register@_ATL_WNDCLASSINFOW@ATL@@QAEGPAP6GJPAUHWND__@@IIJ@Z@Z 10008c23 f i ImageScanner.obj
 0001:00007c43       ?RegisterBuffer@CRegParser@ATL@@QAEJPA_WH@Z 10008c43 f i ImageScanner.obj
 0001:00007d7c       ?RegisterFromResource@CRegObject@ATL@@IAEJPB_W00H@Z 10008d7c f i ImageScanner.obj
 0001:00007eb2       ?RegisterServer@?$CAtlModuleT@VCComModule@ATL@@@ATL@@QAEJHPBU_GUID@@@Z 10008eb2 f i ImageScanner.obj
 0001:00007ee0       ?RegisterServer@CComModule@ATL@@QAEJHPBU_GUID@@@Z 10008ee0 f i ImageScanner.obj
 0001:00007f56       ?RegisterSubkeys@CRegParser@ATL@@IAEJPA_WPAUHKEY__@@HH@Z 10008f56 f i ImageScanner.obj
 0001:00008525       ?Remove@CComDynamicUnkArray@ATL@@QAEHK@Z 10009525 f i ImageScanner.obj
 0001:0000854e       ?RemoveAll@?$CSimpleMap@PA_WPA_WVCExpansionVectorEqualHelper@ATL@@@ATL@@QAEXXZ 1000954e f i ImageScanner.obj
 0001:0000857a       ?ResourceRegisterSz@CRegObject@ATL@@QAGJPB_W00@Z 1000957a f i ImageScanner.obj
 0001:000085a7       ?ResourceUnregisterSz@CRegObject@ATL@@QAGJPB_W00@Z 100095a7 f i ImageScanner.obj
 0001:000085d4       ?SendOnDataChange@CComControlBase@ATL@@QAEJK@Z 100095d4 f i ImageScanner.obj
 0001:00008621       ?SetControlFocus@CComControlBase@ATL@@QAEHH@Z 10009621 f i ImageScanner.obj
 0001:000086be       ?SetMultiStringValue@CRegKey@ATL@@QAEJPB_W0@Z 100096be f i ImageScanner.obj
 0001:0000871a       ?SetStringValue@CRegKey@ATL@@QAEJPB_W0K@Z 1000971a f i ImageScanner.obj
 0001:00008763       ?SkipAssignment@CRegParser@ATL@@IAEJPA_W@Z 10009763 f i ImageScanner.obj
 0001:000087c8       ?SkipWhiteSpace@CRegParser@ATL@@IAEXXZ 100097c8 f i ImageScanner.obj
 0001:000087ea       ?StrChrW@CRegParser@ATL@@KAPA_WPA_W_W@Z 100097ea f i ImageScanner.obj
 0001:00008827       ?Term@CAtlModule@ATL@@QAEXXZ 10009827 f i ImageScanner.obj
 0001:00008860       ?Term@CComModule@ATL@@QAEXXZ 10009860 f i ImageScanner.obj
 0001:000088b8       ?UnregisterServer@?$CAtlModuleT@VCComModule@ATL@@@ATL@@QAEJHPBU_GUID@@@Z 100098b8 f i ImageScanner.obj
 0001:000088de       ?UnregisterServer@CComModule@ATL@@QAEJHPBU_GUID@@@Z 100098de f i ImageScanner.obj
 0001:00008954       ?UpdateRegistryFromResource@CAtlModule@ATL@@QAGJIHPAU_ATL_REGMAP_ENTRY@2@@Z 10009954 f i ImageScanner.obj
 0001:00008b1f       ?UpdateRegistryFromResource@CAtlModule@ATL@@QAGJPB_WHPAU_ATL_REGMAP_ENTRY@2@@Z 10009b1f f i ImageScanner.obj
 0001:00008cf0       ?VTFromRegType@CRegParser@ATL@@KAHPB_WAAG@Z 10009cf0 f i ImageScanner.obj
 0001:00008d5d       ?WindowProc@?$CWindowImplBaseT@VCWindow@ATL@@V?$CWinTraits@$0FGAAAAAA@$0A@@2@@ATL@@SGJPAUHWND__@@IIJ@Z 10009d5d f i ImageScanner.obj
 0001:00008e4f       ?WriteToStream@CComBSTR@ATL@@QAEJPAUIStream@@@Z 10009e4f f i ImageScanner.obj
 0001:00008ea6       ?WriteToStream@CComVariant@ATL@@QAEJPAUIStream@@@Z 10009ea6 f i ImageScanner.obj
 0001:00009020       ?WriteToStream@CComVariant@ATL@@QAEJPAUIStream@@G@Z 1000a020 f i ImageScanner.obj
 0001:00009089       ?_AtlInitialConstruct@?$CComObjectRootEx@VCComMultiThreadModel@ATL@@@ATL@@QAEJXZ 1000a089 f i ImageScanner.obj
 0001:0000909e       ?_AtlVerifyStackAvailable@_ATL_SAFE_ALLOCA_IMPL@ATL@@YA_NK@Z 1000a09e f i ImageScanner.obj
 0001:0000911c       ?atlCreate@?$CWindowImpl@VCOPOSImageScanner@@VCWindow@ATL@@V?$CWinTraits@$0FGAAAAAA@$0A@@3@@ATL@@QAEPAUHWND__@@PAU3@V_U_RECT@2@PB_WKKV_U_MENUorID@2@PAX@Z 1000a11c f i ImageScanner.obj
 0001:00009160       ?atlCreate@?$CWindowImplBaseT@VCWindow@ATL@@V?$CWinTraits@$0FGAAAAAA@$0A@@2@@ATL@@QAEPAUHWND__@@PAU3@V_U_RECT@2@PB_WKKV_U_MENUorID@2@GPAX@Z 1000a160 f i ImageScanner.obj
 0001:000091fc       ?atlCreate@CRegKey@ATL@@QAEJPAUHKEY__@@PB_WPA_WKKPAU_SECURITY_ATTRIBUTES@@PAK@Z 1000a1fc f i ImageScanner.obj
 0001:0000926b       ?copy@?$_Copy@UtagCONNECTDATA@@@ATL@@SAJPAUtagCONNECTDATA@@PBU3@@Z 1000a26b f i ImageScanner.obj
 0001:000092a1       ?copy@?$_CopyInterface@UIConnectionPoint@@@ATL@@SAJPAPAUIConnectionPoint@@PBQAU3@@Z 1000a2a1 f i ImageScanner.obj
 0001:000092cf       ?memcpy_s@Checked@ATL@@YAXPAXIPBXI@Z 1000a2cf f i ImageScanner.obj
 0001:000092ee       ?ocscpy_s@@YA_NPA_WIPB_W@Z 1000a2ee f i ImageScanner.obj
 0001:0000931d       ?ocslen@@YAHPB_W@Z         1000a31d f i ImageScanner.obj
 0001:0000933d       ?wcscpy_s@Checked@ATL@@YAXPA_WIPB_W@Z 1000a33d f i ImageScanner.obj
 0001:00009359       _DllCanUnloadNow@0         1000a359 f   ImageScanner.obj
 0001:00009365       _DllGetClassObject@12      1000a365 f   ImageScanner.obj
 0001:00009373       _DllMain@12                1000a373 f   ImageScanner.obj
 0001:000093b5       _DllRegisterServer@0       1000a3b5 f   ImageScanner.obj
 0001:000093c4       _DllUnregisterServer@0     1000a3c4 f   ImageScanner.obj
 0001:000093d3       _InlineIsEqualGUID         1000a3d3 f i ImageScanner.obj
 0001:00009403       ___local_stdio_printf_options 1000a403 f i ImageScanner.obj
 0001:00009409       __vswprintf_s_l            1000a409 f i ImageScanner.obj
 0001:000094b6       _swprintf_s                1000a4b6 f i ImageScanner.obj
 0001:000094d2       ??0?$CComControl@VCOPOSImageScanner@@V?$CWindowImpl@VCOPOSImageScanner@@VCWindow@ATL@@V?$CWinTraits@$0FGAAAAAA@$0A@@3@@ATL@@@ATL@@QAE@XZ 1000a4d2 f i ImageScannerImpl.obj
 0001:000094f9       ??0?$CProxy_IOPOSEvents@VCOPOSImageScanner@@@@QAE@XZ 1000a4f9 f i ImageScannerImpl.obj
 0001:00009519       ??0CComControlBase@ATL@@QAE@AAPAUHWND__@@@Z 1000a519 f i ImageScannerImpl.obj
 0001:00009563       ??0COPOSImageScanner@@QAE@XZ 1000a563 f   ImageScannerImpl.obj
 0001:00009599       ??1?$CComControl@VCOPOSImageScanner@@V?$CWindowImpl@VCOPOSImageScanner@@VCWindow@ATL@@V?$CWinTraits@$0FGAAAAAA@$0A@@3@@ATL@@@ATL@@UAE@XZ 1000a599 f i ImageScannerImpl.obj
 0001:000095b2       ??1?$IConnectionPointImpl@VCOPOSImageScanner@@$1?DIID__IOPOSImageScannerEvents@@3U_GUID@@BVCComDynamicUnkArray@ATL@@@ATL@@QAE@XZ 1000a5b2 f i ImageScannerImpl.obj
 0001:000095b2       ??1?$IConnectionPointImpl@VCOPOSImageScanner@@$1?IID_IPropertyNotifySink@@3U_GUID@@BVCComDynamicUnkArray@ATL@@@ATL@@QAE@XZ 1000a5b2 f i ImageScannerImpl.obj
 0001:000095ef       ??1CComControlBase@ATL@@UAE@XZ 1000a5ef f i ImageScannerImpl.obj
 0001:00009652       ??1COPOSImageScanner@@UAE@XZ 1000a652 f   ImageScannerImpl.obj
 0001:0000969a       ??1OposVariantResult@@QAE@XZ 1000a69a f i ImageScannerImpl.obj
 0001:000096bb       ??1_CW@@QAE@XZ             1000a6bb f i ImageScannerImpl.obj
 0001:000096d4       ?CheckHealth@COPOSImageScanner@@UAGJJPAJ@Z 1000a6d4 f   ImageScannerImpl.obj
 0001:00009723       ?ClaimDevice@COPOSImageScanner@@UAGJJPAJ@Z 1000a723 f   ImageScannerImpl.obj
 0001:00009798       ?ClearInput@COPOSImageScanner@@UAGJPAJ@Z 1000a798 f   ImageScannerImpl.obj
 0001:000097b3       ?ClearInputProperties@COPOSImageScanner@@UAGJPAJ@Z 1000a7b3 f   ImageScannerImpl.obj
 0001:000097ce       ?Close@COPOSImageScanner@@UAGJPAJ@Z 1000a7ce f   ImageScannerImpl.obj
 0001:0000983c       ?CompareFirmwareVersion@COPOSImageScanner@@UAGJPA_WPAJ1@Z 1000a83c f   ImageScannerImpl.obj
 0001:000098bc       ?DirectIO@COPOSImageScanner@@UAGJJPAJPAPA_W0@Z 1000a8bc f   ImageScannerImpl.obj
 0001:0000996a       ?DoInvoke@COPOSImageScanner@@IAEJJPAVOposVariant@@IHPAJ_N@Z 1000a96a f   ImageScannerImpl.obj
 0001:00009a2c       ?EventClose@COPOSImageScanner@@IAEXXZ 1000aa2c f i ImageScannerImpl.obj
 0001:00009a5f       ?EventInit@COPOSImageScanner@@IAEJXZ 1000aa5f f i ImageScannerImpl.obj
 0001:00009b2b       ?EventUninit@COPOSImageScanner@@IAEXXZ 1000ab2b f i ImageScannerImpl.obj
 0001:00009b7d       ?EventWindowProc@COPOSImageScanner@@IAGJIIJ@Z 1000ab7d f i ImageScannerImpl.obj
 0001:00009c51       ?FinalConstruct@COPOSImageScanner@@QAEJXZ 1000ac51 f   ImageScannerImpl.obj
 0001:00009c8a       ?FireEventCleanup@COPOSImageScanner@@IAEXXZ 1000ac8a f i ImageScannerImpl.obj
 0001:00009ca0       ?FireEventSetup@COPOSImageScanner@@IAE_NXZ 1000aca0 f i ImageScannerImpl.obj
 0001:00009cd4       ?FreezeEvents@COPOSImageScanner@@MAGJH@Z 1000acd4 f   ImageScannerImpl.obj
 0001:00009d34       ?GetOposProp@COPOSImageScanner@@IAEJJPAFJ@Z 1000ad34 f   ImageScannerImpl.obj
 0001:00009d57       ?GetOposProp@COPOSImageScanner@@IAEJJPAJJ@Z 1000ad57 f   ImageScannerImpl.obj
 0001:00009e15       ?GetOposProp@COPOSImageScanner@@IAEJJPAPA_WJ@Z 1000ae15 f   ImageScannerImpl.obj
 0001:00009ee0       ?OnDraw@COPOSImageScanner@@MAEJAAUATL_DRAWINFO@@@Z 1000aee0 f   ImageScannerImpl.obj
 0001:00009f80       ?Open@COPOSImageScanner@@UAGJPA_WPAJ@Z 1000af80 f   ImageScannerImpl.obj
 0001:0000a719       ?ReleaseDevice@COPOSImageScanner@@UAGJPAJ@Z 1000b719 f   ImageScannerImpl.obj
 0001:0000a768       ?ResetStatistics@COPOSImageScanner@@UAGJPA_WPAJ@Z 1000b768 f   ImageScannerImpl.obj
 0001:0000a7bf       ?RetrieveStatistics@COPOSImageScanner@@UAGJPAPA_WPAJ@Z 1000b7bf f   ImageScannerImpl.obj
 0001:0000a816       ?SOProcessID@COPOSImageScanner@@UAGJPAJ@Z 1000b816 f   ImageScannerImpl.obj
 0001:0000a82a       ?SetCOFreezeEvents@COPOSImageScanner@@IAEXF@Z 1000b82a f   ImageScannerImpl.obj
 0001:0000a8b5       ?SetOposProp@COPOSImageScanner@@IAEJJJJ@Z 1000b8b5 f   ImageScannerImpl.obj
 0001:0000a993       ?StartSession@COPOSImageScanner@@UAGJPAJ@Z 1000b993 f   ImageScannerImpl.obj
 0001:0000a9ae       ?StopSession@COPOSImageScanner@@UAGJPAJ@Z 1000b9ae f   ImageScannerImpl.obj
 0001:0000a9c9       ?UpdateFirmware@COPOSImageScanner@@UAGJPA_WPAJ@Z 1000b9c9 f   ImageScannerImpl.obj
 0001:0000aa20       ?UpdateStatistics@COPOSImageScanner@@UAGJPA_WPAJ@Z 1000ba20 f   ImageScannerImpl.obj
 0001:0000aa77       ?get_AimMode@COPOSImageScanner@@UAGJPAF@Z 1000ba77 f   ImageScannerImpl.obj
 0001:0000aa90       ?get_AutoDisable@COPOSImageScanner@@UAGJPAF@Z 1000ba90 f   ImageScannerImpl.obj
 0001:0000aaa6       ?get_BinaryConversion@COPOSImageScanner@@UAGJPAJ@Z 1000baa6 f   ImageScannerImpl.obj
 0001:0000aabc       ?get_BitsPerPixel@COPOSImageScanner@@UAGJPAJ@Z 1000babc f   ImageScannerImpl.obj
 0001:0000aad5       ?get_CapAim@COPOSImageScanner@@UAGJPAF@Z 1000bad5 f   ImageScannerImpl.obj
 0001:0000aaee       ?get_CapCompareFirmwareVersion@COPOSImageScanner@@UAGJPAF@Z 1000baee f   ImageScannerImpl.obj
 0001:0000ab07       ?get_CapDecodeData@COPOSImageScanner@@UAGJPAF@Z 1000bb07 f   ImageScannerImpl.obj
 0001:0000ab20       ?get_CapHostTriggered@COPOSImageScanner@@UAGJPAF@Z 1000bb20 f   ImageScannerImpl.obj
 0001:0000ab39       ?get_CapIlluminate@COPOSImageScanner@@UAGJPAF@Z 1000bb39 f   ImageScannerImpl.obj
 0001:0000ab52       ?get_CapImageData@COPOSImageScanner@@UAGJPAF@Z 1000bb52 f   ImageScannerImpl.obj
 0001:0000ab6b       ?get_CapImageQuality@COPOSImageScanner@@UAGJPAF@Z 1000bb6b f   ImageScannerImpl.obj
 0001:0000ab84       ?get_CapPowerReporting@COPOSImageScanner@@UAGJPAJ@Z 1000bb84 f   ImageScannerImpl.obj
 0001:0000ab9d       ?get_CapStatisticsReporting@COPOSImageScanner@@UAGJPAF@Z 1000bb9d f   ImageScannerImpl.obj
 0001:0000abb6       ?get_CapUpdateFirmware@COPOSImageScanner@@UAGJPAF@Z 1000bbb6 f   ImageScannerImpl.obj
 0001:0000abcf       ?get_CapUpdateStatistics@COPOSImageScanner@@UAGJPAF@Z 1000bbcf f   ImageScannerImpl.obj
 0001:0000abe8       ?get_CapVideoData@COPOSImageScanner@@UAGJPAF@Z 1000bbe8 f   ImageScannerImpl.obj
 0001:0000ac01       ?get_CheckHealthText@COPOSImageScanner@@UAGJPAPA_W@Z 1000bc01 f   ImageScannerImpl.obj
 0001:0000ac1a       ?get_Claimed@COPOSImageScanner@@UAGJPAF@Z 1000bc1a f   ImageScannerImpl.obj
 0001:0000ac30       ?get_ControlObjectDescription@COPOSImageScanner@@UAGJPAPA_W@Z 1000bc30 f   ImageScannerImpl.obj
 0001:0000ac6d       ?get_ControlObjectVersion@COPOSImageScanner@@UAGJPAJ@Z 1000bc6d f   ImageScannerImpl.obj
 0001:0000ac80       ?get_DataCount@COPOSImageScanner@@UAGJPAJ@Z 1000bc80 f   ImageScannerImpl.obj
 0001:0000ac96       ?get_DataEventEnabled@COPOSImageScanner@@UAGJPAF@Z 1000bc96 f   ImageScannerImpl.obj
 0001:0000acac       ?get_DeviceDescription@COPOSImageScanner@@UAGJPAPA_W@Z 1000bcac f   ImageScannerImpl.obj
 0001:0000acc5       ?get_DeviceEnabled@COPOSImageScanner@@UAGJPAF@Z 1000bcc5 f   ImageScannerImpl.obj
 0001:0000acdb       ?get_DeviceName@COPOSImageScanner@@UAGJPAPA_W@Z 1000bcdb f   ImageScannerImpl.obj
 0001:0000acf4       ?get_FrameData@COPOSImageScanner@@UAGJPAPA_W@Z 1000bcf4 f   ImageScannerImpl.obj
 0001:0000ad0d       ?get_FrameType@COPOSImageScanner@@UAGJPAJ@Z 1000bd0d f   ImageScannerImpl.obj
 0001:0000ad26       ?get_FreezeEvents@COPOSImageScanner@@UAGJPAF@Z 1000bd26 f   ImageScannerImpl.obj
 0001:0000ad3c       ?get_IlluminateMode@COPOSImageScanner@@UAGJPAF@Z 1000bd3c f   ImageScannerImpl.obj
 0001:0000ad55       ?get_ImageHeight@COPOSImageScanner@@UAGJPAJ@Z 1000bd55 f   ImageScannerImpl.obj
 0001:0000ad6e       ?get_ImageLength@COPOSImageScanner@@UAGJPAJ@Z 1000bd6e f   ImageScannerImpl.obj
 0001:0000ad87       ?get_ImageMode@COPOSImageScanner@@UAGJPAJ@Z 1000bd87 f   ImageScannerImpl.obj
 0001:0000ada0       ?get_ImageQuality@COPOSImageScanner@@UAGJPAJ@Z 1000bda0 f   ImageScannerImpl.obj
 0001:0000adb9       ?get_ImageType@COPOSImageScanner@@UAGJPAJ@Z 1000bdb9 f   ImageScannerImpl.obj
 0001:0000add2       ?get_ImageWidth@COPOSImageScanner@@UAGJPAJ@Z 1000bdd2 f   ImageScannerImpl.obj
 0001:0000adeb       ?get_OpenResult@COPOSImageScanner@@UAGJPAJ@Z 1000bdeb f   ImageScannerImpl.obj
 0001:0000ae02       ?get_PowerNotify@COPOSImageScanner@@UAGJPAJ@Z 1000be02 f   ImageScannerImpl.obj
 0001:0000ae18       ?get_PowerState@COPOSImageScanner@@UAGJPAJ@Z 1000be18 f   ImageScannerImpl.obj
 0001:0000ae2e       ?get_ResultCode@COPOSImageScanner@@UAGJPAJ@Z 1000be2e f   ImageScannerImpl.obj
 0001:0000ae6c       ?get_ResultCodeExtended@COPOSImageScanner@@UAGJPAJ@Z 1000be6c f   ImageScannerImpl.obj
 0001:0000ae82       ?get_ServiceObjectDescription@COPOSImageScanner@@UAGJPAPA_W@Z 1000be82 f   ImageScannerImpl.obj
 0001:0000ae9b       ?get_ServiceObjectVersion@COPOSImageScanner@@UAGJPAJ@Z 1000be9b f   ImageScannerImpl.obj
 0001:0000aeb1       ?get_State@COPOSImageScanner@@UAGJPAJ@Z 1000beb1 f   ImageScannerImpl.obj
 0001:0000aedd       ?get_VideoCount@COPOSImageScanner@@UAGJPAJ@Z 1000bedd f   ImageScannerImpl.obj
 0001:0000aef6       ?get_VideoRate@COPOSImageScanner@@UAGJPAJ@Z 1000bef6 f   ImageScannerImpl.obj
 0001:0000af0f       ?put_AimMode@COPOSImageScanner@@UAGJF@Z 1000bf0f f   ImageScannerImpl.obj
 0001:0000af2f       ?put_AutoDisable@COPOSImageScanner@@UAGJF@Z 1000bf2f f   ImageScannerImpl.obj
 0001:0000af4c       ?put_BinaryConversion@COPOSImageScanner@@UAGJJ@Z 1000bf4c f   ImageScannerImpl.obj
 0001:0000af62       ?put_DataEventEnabled@COPOSImageScanner@@UAGJF@Z 1000bf62 f   ImageScannerImpl.obj
 0001:0000af7f       ?put_DeviceEnabled@COPOSImageScanner@@UAGJF@Z 1000bf7f f   ImageScannerImpl.obj
 0001:0000af9c       ?put_FreezeEvents@COPOSImageScanner@@UAGJF@Z 1000bf9c f   ImageScannerImpl.obj
 0001:0000afe8       ?put_IlluminateMode@COPOSImageScanner@@UAGJF@Z 1000bfe8 f   ImageScannerImpl.obj
 0001:0000b008       ?put_ImageMode@COPOSImageScanner@@UAGJJ@Z 1000c008 f   ImageScannerImpl.obj
 0001:0000b021       ?put_ImageQuality@COPOSImageScanner@@UAGJJ@Z 1000c021 f   ImageScannerImpl.obj
 0001:0000b03a       ?put_PowerNotify@COPOSImageScanner@@UAGJJ@Z 1000c03a f   ImageScannerImpl.obj
 0001:0000b050       ?put_VideoCount@COPOSImageScanner@@UAGJJ@Z 1000c050 f   ImageScannerImpl.obj
 0001:0000b069       ?put_VideoRate@COPOSImageScanner@@UAGJJ@Z 1000c069 f   ImageScannerImpl.obj
 0001:0000b082       ?s_EventWindowProc@COPOSImageScanner@@KGJPAUHWND__@@IIJ@Z 1000c082 f i ImageScannerImpl.obj
 0001:0000b0d4       ??_U@YAPAXI@Z              1000c0d4 f   LIBCMT:new_array.obj
 0001:0000b0dd       ??3@YAXPAXI@Z              1000c0dd f   LIBCMT:delete_scalar_size.obj
 0001:0000b0eb       ??_V@YAXPAX@Z              1000c0eb f   LIBCMT:delete_array.obj
 0001:0000b0f0       ??_V@YAXPAXI@Z             1000c0f0 f   LIBCMT:delete_array_size.obj
 0001:0000b0fe       ??$__crt_fast_encode_pointer@P6GXPAU_RTL_CONDITION_VARIABLE@@@Z@@YAP6GXPAU_RTL_CONDITION_VARIABLE@@@ZQ6GX0@Z@Z 1000c0fe f i LIBCMT:thread_safe_statics.obj
 0001:0000b0fe       ??$__crt_fast_encode_pointer@PAX@@YAPAXQAX@Z 1000c0fe f i libvcruntime:winapi_downlevel.obj
 0001:0000b0fe       ??$__crt_fast_encode_pointer@PAP6AXXZ@@YAPAP6AXXZQAP6AXXZ@Z 1000c0fe f i LIBCMT:utility.obj
 0001:0000b0fe       ??$__crt_fast_encode_pointer@P6GHPAU_RTL_CONDITION_VARIABLE@@PAU_RTL_CRITICAL_SECTION@@K@Z@@YAP6GHPAU_RTL_CONDITION_VARIABLE@@PAU_RTL_CRITICAL_SECTION@@K@ZQ6GH01K@Z@Z 1000c0fe f i LIBCMT:thread_safe_statics.obj
 0001:0000b15f       ___scrt_acquire_startup_lock 1000c15f f   LIBCMT:utility.obj
 0001:0000b191       ___scrt_dllmain_after_initialize_c 1000c191 f   LIBCMT:utility.obj
 0001:0000b1bc       ___scrt_dllmain_before_initialize_c 1000c1bc f   LIBCMT:utility.obj
 0001:0000b1ca       ___scrt_dllmain_crt_thread_attach 1000c1ca f   LIBCMT:utility.obj
 0001:0000b1e9       ___scrt_dllmain_crt_thread_detach 1000c1e9 f   LIBCMT:utility.obj
 0001:0000b1f6       ___scrt_dllmain_exception_filter 1000c1f6 f   LIBCMT:utility.obj
 0001:0000b22a       ___scrt_dllmain_uninitialize_c 1000c22a f   LIBCMT:utility.obj
 0001:0000b24d       ___scrt_dllmain_uninitialize_critical 1000c24d f   LIBCMT:utility.obj
 0001:0000b25a       ___scrt_initialize_crt     1000c25a f   LIBCMT:utility.obj
 0001:0000b293       ___scrt_initialize_onexit_tables 1000c293 f   LIBCMT:utility.obj
 0001:0000b338       ___scrt_is_nonwritable_in_current_image 1000c338 f   LIBCMT:utility.obj
 0001:0000b3cc       ___scrt_release_startup_lock 1000c3cc f   LIBCMT:utility.obj
 0001:0000b3e9       ___scrt_uninitialize_crt   1000c3e9 f   LIBCMT:utility.obj
 0001:0000b411       __onexit                   1000c411 f   LIBCMT:utility.obj
 0001:0000b44c       _atexit                    1000c44c f   LIBCMT:utility.obj
 0001:0000b461       ??3@YAXPAX@Z               1000c461 f   LIBCMT:delete_scalar.obj
 0001:0000b598       __Init_thread_footer       1000c598 f   LIBCMT:thread_safe_statics.obj
 0001:0000b5e2       __Init_thread_header       1000c5e2 f   LIBCMT:thread_safe_statics.obj
 0001:0000b634       __Init_thread_notify       1000c634 f   LIBCMT:thread_safe_statics.obj
 0001:0000b676       __Init_thread_wait         1000c676 f   LIBCMT:thread_safe_statics.obj
 0001:0000b6d6       ___raise_securityfailure   1000c6d6 f   LIBCMT:gs_report.obj
 0001:0000b6fe       ___report_gsfailure        1000c6fe f   LIBCMT:gs_report.obj
 0001:0000b7f7       ___report_rangecheckfailure 1000c7f7 f   LIBCMT:gs_report.obj
 0001:0000b803       ___report_securityfailure  1000c803 f   LIBCMT:gs_report.obj
 0001:0000b8d1       ??2@YAPAXIABUnothrow_t@std@@@Z 1000c8d1 f   LIBCMT:new_scalar_nothrow.obj
 0001:0000b921       ??_U@YAPAXIABUnothrow_t@std@@@Z 1000c921 f   LIBCMT:new_array_nothrow.obj
 0001:0000b92a       @__security_check_cookie@4 1000c92a f   LIBCMT:secchk.obj
 0001:0000b940       __SEH_prolog4_GS           1000c940 f   LIBCMT:sehprolg4gs.obj
 0001:0000b989       __SEH_epilog4_GS           1000c989 f   LIBCMT:sehprolg4gs.obj
 0001:0000b9a0       __alloca_probe_16          1000c9a0 f   LIBCMT:alloca16.obj
 0001:0000b9b6       __alloca_probe_8           1000c9b6     LIBCMT:alloca16.obj
 0001:0000b9d0       __chkstk                   1000c9d0 f   LIBCMT:chkstk.obj
 0001:0000b9d0       __alloca_probe             1000c9d0 f   LIBCMT:chkstk.obj
 0001:0000bd1d       __DllMainCRTStartup@12     1000cd1d f   LIBCMT:dll_dllmain.obj
 0001:0000bd40       ??2@YAPAXI@Z               1000cd40 f   LIBCMT:new_scalar.obj
 0001:0000bd70       ___isa_available_init      1000cd70 f   LIBCMT:cpu_disp.obj
 0001:0000bf07       ___scrt_is_ucrt_dll_in_use 1000cf07 f   LIBCMT:ucrt_detection.obj
 0001:0000bf13       ___scrt_fastfail           1000cf13 f   LIBCMT:utility_desktop.obj
 0001:0000c02d       __crt_debugger_hook        1000d02d f   LIBCMT:utility_desktop.obj
 0001:0000c040       __SEH_prolog4              1000d040 f   LIBCMT:sehprolg4.obj
 0001:0000c086       __SEH_epilog4              1000d086 f   LIBCMT:sehprolg4.obj
 0001:0000c09b       @_guard_check_icall_nop@4  1000d09b f i LIBCMT:guard_support.obj
 0001:0000c0e9       ___security_init_cookie    1000d0e9 f   LIBCMT:gs_support.obj
 0001:0000c134       ?__scrt_initialize_type_info@@YAXXZ 1000d134 f   LIBCMT:tncleanup.obj
 0001:0000c140       ?__scrt_uninitialize_type_info@@YAXXZ 1000d140 f   LIBCMT:tncleanup.obj
 0001:0000c14c       ___local_stdio_scanf_options 1000d14c f i LIBCMT:default_local_stdio_options.obj
 0001:0000c152       ___scrt_initialize_default_local_stdio_options 1000d152 f   LIBCMT:default_local_stdio_options.obj
 0001:0000c16f       ___scrt_get_dyn_tls_init_callback 1000d16f f   LIBCMT:dyn_tls_init.obj
 0001:0000c175       __RTC_Initialize           1000d175 f   LIBCMT:initsect.obj
 0001:0000c1a1       __RTC_Terminate            1000d1a1 f   LIBCMT:initsect.obj
 0001:0000c1cd       ??0bad_alloc@std@@QAE@ABV01@@Z 1000d1cd f i LIBCMT:throw_bad_alloc.obj
 0001:0000c1e8       ??0bad_alloc@std@@QAE@XZ   1000d1e8 f i LIBCMT:throw_bad_alloc.obj
 0001:0000c200       ??0bad_array_new_length@std@@QAE@ABV01@@Z 1000d200 f i LIBCMT:throw_bad_alloc.obj
 0001:0000c21b       ??0bad_array_new_length@std@@QAE@XZ 1000d21b f i LIBCMT:throw_bad_alloc.obj
 0001:0000c233       ??0exception@std@@QAE@ABV01@@Z 1000d233 f i LIBCMT:throw_bad_alloc.obj
 0001:0000c25f       ??1bad_alloc@std@@UAE@XZ   1000d25f f i LIBCMT:throw_bad_alloc.obj
 0001:0000c25f       ??1bad_array_new_length@std@@UAE@XZ 1000d25f f i LIBCMT:throw_bad_alloc.obj
 0001:0000c25f       ??1bad_exception@std@@UAE@XZ 1000d25f f i libvcruntime:frame.obj
 0001:0000c270       ??_Gbad_array_new_length@std@@UAEPAXI@Z 1000d270 f i LIBCMT:throw_bad_alloc.obj
 0001:0000c270       ??_Ebad_exception@std@@UAEPAXI@Z 1000d270 f i libvcruntime:frame.obj
 0001:0000c270       ??_Eexception@std@@UAEPAXI@Z 1000d270 f i LIBCMT:throw_bad_alloc.obj
 0001:0000c270       ??_Gexception@std@@UAEPAXI@Z 1000d270 f i LIBCMT:throw_bad_alloc.obj
 0001:0000c270       ??_Gbad_alloc@std@@UAEPAXI@Z 1000d270 f i LIBCMT:throw_bad_alloc.obj
 0001:0000c270       ??_Gbad_exception@std@@UAEPAXI@Z 1000d270 f i libvcruntime:frame.obj
 0001:0000c270       ??_Ebad_array_new_length@std@@UAEPAXI@Z 1000d270 f i LIBCMT:throw_bad_alloc.obj
 0001:0000c270       ??_Ebad_alloc@std@@UAEPAXI@Z 1000d270 f i LIBCMT:throw_bad_alloc.obj
 0001:0000c29d       ?__scrt_throw_std_bad_alloc@@YAXXZ 1000d29d f   LIBCMT:throw_bad_alloc.obj
 0001:0000c2ba       ?__scrt_throw_std_bad_array_new_length@@YAXXZ 1000d2ba f   LIBCMT:throw_bad_alloc.obj
 0001:0000c2d7       ?what@exception@std@@UBEPBDXZ 1000d2d7 f i LIBCMT:throw_bad_alloc.obj
 0001:0000c2e4       ??_Gtype_info@@UAEPAXI@Z   1000d2e4 f i LIBCMT:std_type_info_static.obj
 0001:0000c2e4       ??_Etype_info@@UAEPAXI@Z   1000d2e4 f i LIBCMT:std_type_info_static.obj
 0001:0000c307       ??0CAtlBaseModule@ATL@@QAE@XZ 1000d307 f   atls:atlbase.obj
 0001:0000c35a       ??0_ATL_BASE_MODULE70@ATL@@QAE@XZ 1000d35a f i atls:atlbase.obj
 0001:0000c37d       ??1CAtlBaseModule@ATL@@QAE@XZ 1000d37d f   atls:atlbase.obj
 0001:0000c46a       ?Init@_stdcallthunk@ATL@@QAEHKPAX@Z 1000d46a f i atls:atlthunk.obj
 0001:0000c49f       ?__AllocStdCallThunk_cmn@@YAPAXXZ 1000d49f f   atls:atlthunk.obj
 0001:0000c565       ?__FreeStdCallThunk_cmn@@YAXPAX@Z 1000d565 f   atls:atlthunk.obj
 0001:0000c600       _AtlThunk_AllocateData@0   1000d600 f   atls:atlthunk.obj
 0001:0000c665       _AtlThunk_DataToCode@4     1000d665 f   atls:atlthunk.obj
 0001:0000c6ac       _AtlThunk_FreeData@4       1000d6ac f   atls:atlthunk.obj
 0001:0000c702       _AtlThunk_InitData@12      1000d702 f   atls:atlthunk.obj
 0001:0000c751       __get_purecall_handler     1000d751 f   libvcruntime:purevirt.obj
 0001:0000c766       __purecall                 1000d766 f   libvcruntime:purevirt.obj
 0001:0000c782       _wcsstr                    1000d782 f   libvcruntime:wcsstr.obj
 0001:0000ca40       __except_handler4          1000da40 f   libvcruntime:chandler4.obj
 0001:0000cb97       _memcmp                    1000db97 f   libvcruntime:memcmp.obj
 0001:0000db40       _memcpy                    1000eb40 f   libvcruntime:memcpy.obj
 0001:0000e0c0       _memset                    1000f0c0 f   libvcruntime:memset.obj
 0001:0000e21a       ___vcrt_initialize         1000f21a f   libvcruntime:initialization.obj
 0001:0000e243       ___vcrt_thread_attach      1000f243 f   libvcruntime:initialization.obj
 0001:0000e24e       ___vcrt_thread_detach      1000f24e f   libvcruntime:initialization.obj
 0001:0000e259       ___vcrt_uninitialize       1000f259 f   libvcruntime:initialization.obj
 0001:0000e278       ___vcrt_uninitialize_critical 1000f278 f   libvcruntime:initialization.obj
 0001:0000e280       ?GetRangeOfTrysToCheck@__FrameHandler3@@SA?AU?$pair@Viterator@TryBlockMap@__FrameHandler3@@V123@@std@@AAVTryBlockMap@1@HH@Z 1000f280 f   libvcruntime:trnsctrl.obj
 0001:0000e302       ?_CallCatchBlock2@@YAPAXPAUEHRegistrationNode@@PBU_s_FuncInfo@@PAXHK@Z 1000f302 f   libvcruntime:trnsctrl.obj
 0001:0000e360       ?_CallSETranslator@@YAHPAUEHExceptionRecord@@PAUEHRegistrationNode@@PAX2PBU_s_FuncInfo@@H1@Z 1000f360 f   libvcruntime:trnsctrl.obj
 0001:0000e43b       ?_JumpToContinuation@@YGXPAXPAUEHRegistrationNode@@@Z 1000f43b f   libvcruntime:trnsctrl.obj
 0001:0000e46b       ?_UnwindNestedFrames@@YGXPAUEHRegistrationNode@@PAUEHExceptionRecord@@@Z 1000f46b f   libvcruntime:trnsctrl.obj
 0001:0000e4be       __CatchGuardHandler        1000f4be f   libvcruntime:trnsctrl.obj
 0001:0000e4ef       __CreateFrameInfo          1000f4ef f   libvcruntime:trnsctrl.obj
 0001:0000e513       __FindAndUnlinkFrame       1000f513 f   libvcruntime:trnsctrl.obj
 0001:0000e558       __TranslatorGuardHandler   1000f558 f   libvcruntime:trnsctrl.obj
 0001:0000e5f5       ___CxxFrameHandler3        1000f5f5 f   libvcruntime:trnsctrl.obj
 0001:0000e62b       ___std_type_info_compare   1000f62b f   libvcruntime:std_type_info.obj
 0001:0000e667       ___std_type_info_destroy_list 1000f667 f   libvcruntime:std_type_info.obj
 0001:0000e68a       ___std_exception_copy      1000f68a f   libvcruntime:std_exception.obj
 0001:0000e6ed       ___std_exception_destroy   1000f6ed f   libvcruntime:std_exception.obj
 0001:0000e70c       __CxxThrowException@8      1000f70c f   libvcruntime:throw.obj
 0001:0000e780       _memmove                   1000f780 f   libvcruntime:memmove.obj
 0001:0000ecf4       ___vcrt_initialize_pure_virtual_call_handler 1000fcf4 f   libvcruntime:purevirt_data.obj
 0001:0000ed00       __local_unwind4            1000fd00 f   libvcruntime:exsup4.obj
 0001:0000edd8       __seh_longjmp_unwind4@4    1000fdd8 f   libvcruntime:exsup4.obj
 0001:0000ee00       @_EH4_CallFilterFunc@8     1000fe00 f   libvcruntime:exsup4.obj
 0001:0000ee18       @_EH4_TransferToHandler@8  1000fe18 f   libvcruntime:exsup4.obj
 0001:0000ee34       @_EH4_GlobalUnwind2@8      1000fe34 f   libvcruntime:exsup4.obj
 0001:0000ee50       @_EH4_LocalUnwind@16       1000fe50 f   libvcruntime:exsup4.obj
 0001:0000ee67       ___except_validate_context_record 1000fe67 f   libvcruntime:jbcxrval.obj
 0001:0000ee97       ___except_validate_jump_buffer 1000fe97 f   libvcruntime:jbcxrval.obj
 0001:0000eec4       ___vcrt_freefls@4          1000fec4 f   libvcruntime:per_thread_data.obj
 0001:0000eee0       ___vcrt_freeptd            1000fee0 f   libvcruntime:per_thread_data.obj
 0001:0000ef16       ___vcrt_getptd             1000ff16 f   libvcruntime:per_thread_data.obj
 0001:0000ef24       ___vcrt_getptd_noexit      1000ff24 f   libvcruntime:per_thread_data.obj
 0001:0000efb6       ___vcrt_initialize_ptd     1000ffb6 f   libvcruntime:per_thread_data.obj
 0001:0000efe9       ___vcrt_uninitialize_ptd   1000ffe9 f   libvcruntime:per_thread_data.obj
 0001:0000f004       ___vcrt_initialize_locks   10010004 f   libvcruntime:locks.obj
 0001:0000f040       ___vcrt_uninitialize_locks 10010040 f   libvcruntime:locks.obj
 0001:0000f1a2       ___vcrt_FlsAlloc           100101a2 f   libvcruntime:winapi_downlevel.obj
 0001:0000f1dd       ___vcrt_FlsFree            100101dd f   libvcruntime:winapi_downlevel.obj
 0001:0000f218       ___vcrt_FlsGetValue        10010218 f   libvcruntime:winapi_downlevel.obj
 0001:0000f253       ___vcrt_FlsSetValue        10010253 f   libvcruntime:winapi_downlevel.obj
 0001:0000f291       ___vcrt_InitializeCriticalSectionEx 10010291 f   libvcruntime:winapi_downlevel.obj
 0001:0000f2d8       ___vcrt_initialize_winapi_thunks 100102d8 f   libvcruntime:winapi_downlevel.obj
 0001:0000f301       ___vcrt_uninitialize_winapi_thunks 10010301 f   libvcruntime:winapi_downlevel.obj
 0001:0000fa2a       ??$TypeMatchHelper@V__FrameHandler3@@@@YAHPBU_s_HandlerType@@PBU_s_CatchableType@@PBU_s_ThrowInfo@@@Z 10010a2a f i libvcruntime:frame.obj
 0001:0000fab8       ??$__InternalCxxFrameHandler@V__FrameHandler3@@@@YA?AW4_EXCEPTION_DISPOSITION@@PAUEHExceptionRecord@@PAUEHRegistrationNode@@PAU_CONTEXT@@PAXPBU_s_FuncInfo@@H1E@Z 10010ab8 f i libvcruntime:frame.obj
 0001:0000fbba       ??0bad_exception@std@@QAE@ABV01@@Z 10010bba f i libvcruntime:frame.obj
 0001:0000fbd5       ??0bad_exception@std@@QAE@XZ 10010bd5 f i libvcruntime:frame.obj
 0001:0000fbed       ??8type_info@@QBE_NABV0@@Z 10010bed f i libvcruntime:frame.obj
 0001:0000fe54       ?FrameUnwindToEmptyState@__FrameHandler3@@SAXPAUEHRegistrationNode@@PAXPBU_s_FuncInfo@@@Z 10010e54 f   libvcruntime:frame.obj
 0001:0000fe6c       ?FrameUnwindToState@__FrameHandler3@@SAXPAUEHRegistrationNode@@PAXPBU_s_FuncInfo@@H@Z 10010e6c f   libvcruntime:frame.obj
 0001:0000ffee       ?_CallMemberFunction1@@YGXQAX00@Z 10010fee f i libvcruntime:frame.obj
 0001:0000fffe       ?_CallMemberFunction2@@YGXQAX00H@Z 10010ffe f i libvcruntime:frame.obj
 0001:00010011       ?getESTypes@__FrameHandler3@@SAPBU_s_ESTypeList@@PBU_s_FuncInfo@@@Z 10011011 f i libvcruntime:frame.obj
 0001:00010020       __CallSettingFrame@12      10011020 f   libvcruntime:lowhelpr.obj
 0001:00010047       __NLG_Return               10011047     libvcruntime:lowhelpr.obj
 0001:00010070       __global_unwind2           10011070 f   libvcruntime:exsup.obj
 0001:000100d6       __local_unwind2            100110d6 f   libvcruntime:exsup.obj
 0001:0001015a       __abnormal_termination     1001115a f   libvcruntime:exsup.obj
 0001:00010180       __NLG_Notify1              10011180 f   libvcruntime:exsup.obj
 0001:0001018c       __NLG_Notify               1001118c f   libvcruntime:exsup.obj
 0001:000101a3       __NLG_Dispatch             100111a3     libvcruntime:exsup.obj
 0001:000101a3       __NLG_Dispatch2            100111a3     libvcruntime:exsup.obj
 0001:000101ab       __NLG_Call                 100111ab f   libvcruntime:exsup.obj
 0001:000101ad       __NLG_Return2              100111ad     libvcruntime:exsup.obj
 0001:000101ae       _unexpected                100111ae f   libvcruntime:unexpected.obj
 0001:000101cb       ?GetCurrentState@__FrameHandler3@@SAHPAUEHRegistrationNode@@PAXPBU_s_FuncInfo@@@Z 100111cb f   libvcruntime:ehstate.obj
 0001:000101e8       ?SetState@__FrameHandler3@@SAXPAUEHRegistrationNode@@PBU_s_FuncInfo@@H@Z 100111e8 f   libvcruntime:ehstate.obj
 0001:000101f6       ___DestructExceptionObject 100111f6 f   libvcruntime:ehhelpers.obj
 0001:00010296       ?_CallMemberFunction0@@YGXQAX0@Z 10011296 f i libvcruntime:ehhelpers.obj
 0001:000102a3       __IsExceptionObjectToBeDestroyed 100112a3 f   libvcruntime:ehhelpers.obj
 0001:000102c9       ___AdjustPointer           100112c9 f   libvcruntime:ehhelpers.obj
 0001:000102ee       ___FrameUnwindFilter       100112ee f   libvcruntime:ehhelpers.obj
 0001:00010333       _free                      10011333 f   libucrt:free.obj
 0001:00010338       ?initialize@?$dual_state_global@PAU__crt_locale_data@@@__crt_state_management@@QAEXQAU__crt_locale_data@@@Z 10011338 f i libucrt:initialization.obj
 0001:00010338       ?initialize@?$dual_state_global@P6AHI@Z@__crt_state_management@@QAEXQ6AHI@Z@Z 10011338 f i libucrt:new_handler.obj
 0001:00010338       ?initialize@?$dual_state_global@PAPAD@__crt_state_management@@QAEXQAPAD@Z 10011338 f i libucrt:environment_initialization.obj
 0001:00010338       ?initialize@?$dual_state_global@P6AHPAU_exception@@@Z@__crt_state_management@@QAEXQ6AHPAU_exception@@@Z@Z 10011338 f i libucrt:matherr.obj
 0001:00010338       ?initialize@?$dual_state_global@P6AXH@Z@__crt_state_management@@QAEXQ6AXH@Z@Z 10011338 f i libucrt:signal.obj
 0001:00010338       ?initialize@?$dual_state_global@P6AXPB_W00II@Z@__crt_state_management@@QAEXQ6AXPB_W00II@Z@Z 10011338 f i libucrt:invalid_parameter.obj
 0001:00010369       ___acrt_call_reportfault   10011369 f   libucrt:invalid_parameter.obj
 0001:000104a4       ___acrt_initialize_invalid_parameter_handler 100114a4 f   libucrt:invalid_parameter.obj
 0001:000104b8       __invalid_parameter        100114b8 f   libucrt:invalid_parameter.obj
 0001:00010533       __invalid_parameter_noinfo 10011533 f   libucrt:invalid_parameter.obj
 0001:00010543       __invoke_watson            10011543 f   libucrt:invalid_parameter.obj
 0001:00010576       ___acrt_errno_from_os_error 10011576 f   libucrt:errno.obj
 0001:000105b9       ___acrt_errno_map_os_error 100115b9 f   libucrt:errno.obj
 0001:000105dc       ___doserrno                100115dc f   libucrt:errno.obj
 0001:000105ef       __errno                    100115ef f   libucrt:errno.obj
 0001:00010602       _calloc                    10011602 f   libucrt:calloc.obj
 0001:0001060d       _malloc                    1001160d f   libucrt:malloc.obj
 0001:00010618       __recalloc                 10011618 f   libucrt:recalloc.obj
 0001:00010623       __recalloc_base            10011623 f   libucrt:recalloc.obj
 0001:00010690       __resetstkoflw             10011690 f   libucrt:resetstk.obj
 0001:00010761       _wcscat_s                  10011761 f   libucrt:wcscat_s.obj
 0001:000107d6       _wcscpy_s                  100117d6 f   libucrt:wcscpy_s.obj
 0001:00010907       _wcsncpy_s                 10011907 f   libucrt:wcsncpy_s.obj
 0001:00010b11       ??$count@D@formatting_buffer@__crt_stdio_output@@QBEIXZ 10011b11 f i libucrt:output.obj
 0001:00010b29       ??$ensure_buffer_is_big_enough@D@formatting_buffer@__crt_stdio_output@@QAE_NI@Z 10011b29 f i libucrt:output.obj
 0001:00010baf       ??$is_wide_character_specifier@_W@__crt_stdio_output@@YA_N_K_WW4length_modifier@0@@Z 10011baf f i libucrt:output.obj
 0001:00010bfe       ??$scratch_data@D@formatting_buffer@__crt_stdio_output@@QAEPADXZ 10011bfe f i libucrt:output.obj
 0001:00010c1c       ??$type_case_integer_parse_into_buffer@I@?$output_processor@_WV?$string_output_adapter@_W@__crt_stdio_output@@V?$format_validation_base@_WV?$string_output_adapter@_W@__crt_stdio_output@@@2@@__crt_stdio_output@@AAEXII_N@Z 10011c1c f i libucrt:output.obj
 0001:00010c91       ??$type_case_integer_parse_into_buffer@_K@?$output_processor@_WV?$string_output_adapter@_W@__crt_stdio_output@@V?$format_validation_base@_WV?$string_output_adapter@_W@__crt_stdio_output@@@2@@__crt_stdio_output@@AAEX_KI_N@Z 10011c91 f i libucrt:output.obj
 0001:00010d19       ??$write_multiple_characters@V?$string_output_adapter@_W@__crt_stdio_output@@D@__crt_stdio_output@@YAXABV?$string_output_adapter@_W@0@DHQAH@Z 10011d19 f i libucrt:output.obj
 0001:00010d4a       ??0?$common_data@_W@__crt_stdio_output@@IAE@XZ 10011d4a f i libucrt:output.obj
 0001:00010d96       ??0?$output_adapter_data@_WV?$string_output_adapter@_W@__crt_stdio_output@@@__crt_stdio_output@@IAE@ABV?$string_output_adapter@_W@1@_KQB_WQAU__crt_locale_pointers@@QAD@Z 10011d96 f i libucrt:output.obj
 0001:00010dd2       ??0?$output_processor@_WV?$string_output_adapter@_W@__crt_stdio_output@@V?$format_validation_base@_WV?$string_output_adapter@_W@__crt_stdio_output@@@2@@__crt_stdio_output@@QAE@ABV?$string_output_adapter@_W@1@_KQB_WQAU__crt_locale_pointers@@QAD@Z 10011dd2 f i libucrt:output.obj
 0001:00010e07       ??0_LocaleUpdate@@QAE@QAU__crt_locale_pointers@@@Z 10011e07 f i libucrt:output.obj
 0001:00010e8a       ??1formatting_buffer@__crt_stdio_output@@QAE@XZ 10011e8a f i libucrt:output.obj
 0001:00010ea4       ??4?$__crt_unique_heap_ptr@DU__crt_internal_free_policy@@@@QAEAAV0@$$QAV0@@Z 10011ea4 f i libucrt:output.obj
 0001:00010ec8       ?crop_zeroes@__crt_stdio_output@@YAXPADQAU__crt_locale_pointers@@@Z 10011ec8 f i libucrt:output.obj
 0001:00010f1f       ?find_next_state@?$output_processor@_WV?$string_output_adapter@_W@__crt_stdio_output@@V?$format_validation_base@_WV?$string_output_adapter@_W@__crt_stdio_output@@@2@@__crt_stdio_output@@ABE?AW4state@2@_WW432@@Z 10011f1f f i libucrt:output.obj
 0001:00010f56       ?force_decimal_point@__crt_stdio_output@@YAXPADQAU__crt_locale_pointers@@@Z 10011f56 f i libucrt:output.obj
 0001:00010fb2       ?parse_int_from_format_string@?$output_processor@_WV?$string_output_adapter@_W@__crt_stdio_output@@V?$format_validation_base@_WV?$string_output_adapter@_W@__crt_stdio_output@@@2@@__crt_stdio_output@@AAE_NQAH@Z 10011fb2 f i libucrt:output.obj
 0001:00011010       ?process@?$output_processor@_WV?$string_output_adapter@_W@__crt_stdio_output@@V?$format_validation_base@_WV?$string_output_adapter@_W@__crt_stdio_output@@@2@@__crt_stdio_output@@QAEHXZ 10012010 f i libucrt:output.obj
 0001:00011140       ?state_case_flag@?$output_processor@_WV?$string_output_adapter@_W@__crt_stdio_output@@V?$format_validation_base@_WV?$string_output_adapter@_W@__crt_stdio_output@@@2@@__crt_stdio_output@@AAE_NXZ 10012140 f i libucrt:output.obj
 0001:0001117d       ?state_case_normal@?$output_processor@_WV?$string_output_adapter@_W@__crt_stdio_output@@V?$format_validation_base@_WV?$string_output_adapter@_W@__crt_stdio_output@@@2@@__crt_stdio_output@@AAE_NXZ 1001217d f i libucrt:output.obj
 0001:0001119c       ?state_case_normal_common@?$output_processor@_WV?$string_output_adapter@_W@__crt_stdio_output@@V?$format_validation_base@_WV?$string_output_adapter@_W@__crt_stdio_output@@@2@@__crt_stdio_output@@AAE_NXZ 1001219c f i libucrt:output.obj
 0001:000111b7       ?state_case_precision@?$output_processor@_WV?$string_output_adapter@_W@__crt_stdio_output@@V?$format_validation_base@_WV?$string_output_adapter@_W@__crt_stdio_output@@@2@@__crt_stdio_output@@AAE_NXZ 100121b7 f i libucrt:output.obj
 0001:000111e0       ?state_case_size@?$output_processor@_WV?$string_output_adapter@_W@__crt_stdio_output@@V?$format_validation_base@_WV?$string_output_adapter@_W@__crt_stdio_output@@@2@@__crt_stdio_output@@AAE_NXZ 100121e0 f i libucrt:output.obj
 0001:0001135c       ?state_case_type@?$output_processor@_WV?$string_output_adapter@_W@__crt_stdio_output@@V?$format_validation_base@_WV?$string_output_adapter@_W@__crt_stdio_output@@@2@@__crt_stdio_output@@AAE_NXZ 1001235c f i libucrt:output.obj
 0001:000115b9       ?state_case_width@?$output_processor@_WV?$string_output_adapter@_W@__crt_stdio_output@@V?$format_validation_base@_WV?$string_output_adapter@_W@__crt_stdio_output@@@2@@__crt_stdio_output@@AAE_NXZ 100125b9 f i libucrt:output.obj
 0001:000115e5       ?to_integer_size@__crt_stdio_output@@YAIW4length_modifier@1@@Z 100125e5 f i libucrt:output.obj
 0001:00011641       ?type_case_Z@?$output_processor@_WV?$string_output_adapter@_W@__crt_stdio_output@@V?$format_validation_base@_WV?$string_output_adapter@_W@__crt_stdio_output@@@2@@__crt_stdio_output@@AAE_NXZ 10012641 f i libucrt:output.obj
 0001:000116a4       ?type_case_a@?$output_processor@_WV?$string_output_adapter@_W@__crt_stdio_output@@V?$format_validation_base@_WV?$string_output_adapter@_W@__crt_stdio_output@@@2@@__crt_stdio_output@@AAE_NXZ 100126a4 f i libucrt:output.obj
 0001:00011816       ?type_case_c_tchar@?$output_processor@_WV?$string_output_adapter@_W@__crt_stdio_output@@V?$format_validation_base@_WV?$string_output_adapter@_W@__crt_stdio_output@@@2@@__crt_stdio_output@@AAE_N_W@Z 10012816 f i libucrt:output.obj
 0001:000118ae       ?type_case_integer@?$output_processor@_WV?$string_output_adapter@_W@__crt_stdio_output@@V?$format_validation_base@_WV?$string_output_adapter@_W@__crt_stdio_output@@@2@@__crt_stdio_output@@AAE_NI_N@Z 100128ae f i libucrt:output.obj
 0001:000119f8       ?type_case_n@?$output_processor@_WV?$string_output_adapter@_W@__crt_stdio_output@@V?$format_validation_base@_WV?$string_output_adapter@_W@__crt_stdio_output@@@2@@__crt_stdio_output@@AAE_NXZ 100129f8 f i libucrt:output.obj
 0001:00011a6c       ?type_case_o@?$output_processor@_WV?$string_output_adapter@_W@__crt_stdio_output@@V?$format_validation_base@_WV?$string_output_adapter@_W@__crt_stdio_output@@@2@@__crt_stdio_output@@AAE_NXZ 10012a6c f i libucrt:output.obj
 0001:00011a8b       ?type_case_p@?$output_processor@_WV?$string_output_adapter@_W@__crt_stdio_output@@V?$format_validation_base@_WV?$string_output_adapter@_W@__crt_stdio_output@@@2@@__crt_stdio_output@@AAE_NXZ 10012a8b f i libucrt:output.obj
 0001:00011aa3       ?type_case_s@?$output_processor@_WV?$string_output_adapter@_W@__crt_stdio_output@@V?$format_validation_base@_WV?$string_output_adapter@_W@__crt_stdio_output@@@2@@__crt_stdio_output@@AAE_NXZ 10012aa3 f i libucrt:output.obj
 0001:00011b17       ?type_case_s_compute_narrow_string_length@?$output_processor@_WV?$string_output_adapter@_W@__crt_stdio_output@@V?$format_validation_base@_WV?$string_output_adapter@_W@__crt_stdio_output@@@2@@__crt_stdio_output@@ABEHH_W@Z 10012b17 f i libucrt:output.obj
 0001:00011b57       ?validate@?$c_string_character_source@_W@__crt_strtox@@QBE_NXZ 10012b57 f i libucrt:atox.obj
 0001:00011b57       ?validate@?$string_output_adapter@_W@__crt_stdio_output@@QBE_NXZ 10012b57 f i libucrt:output.obj
 0001:00011b72       ?validate_and_update_state_at_end_of_format_string@?$format_validation_base@_WV?$string_output_adapter@_W@__crt_stdio_output@@@__crt_stdio_output@@IBE_NXZ 10012b72 f i libucrt:output.obj
 0001:00011b94       ?write_character@?$string_output_adapter@_W@__crt_stdio_output@@QBE_N_WQAH@Z 10012b94 f i libucrt:output.obj
 0001:00011bd9       ?write_stored_string_tchar@?$output_processor@_WV?$string_output_adapter@_W@__crt_stdio_output@@V?$format_validation_base@_WV?$string_output_adapter@_W@__crt_stdio_output@@@2@@__crt_stdio_output@@AAE_N_W@Z 10012bd9 f i libucrt:output.obj
 0001:00011c64       ?write_string@?$string_output_adapter@_W@__crt_stdio_output@@QBEXQB_WHQAH1@Z 10012c64 f i libucrt:output.obj
 0001:00011cfe       ___stdio_common_vswprintf_s 10012cfe f   libucrt:output.obj
 0001:00011d22       __seh_filter_dll           10012d22 f   libucrt:exception_filter.obj
 0001:00011d42       __seh_filter_exe           10012d42 f   libucrt:exception_filter.obj
 0001:000120d0       ___acrt_initialize_thread_local_exit_callback 100130d0 f   libucrt:exit.obj
 0001:000120df       __cexit                    100130df f   libucrt:exit.obj
 0001:000120ee       __exit                     100130ee f   libucrt:exit.obj
 0001:00012104       __is_c_termination_complete 10013104 f   libucrt:exit.obj
 0001:000123a3       ___acrt_allocate_buffer_for_argv 100133a3 f   libucrt:argv_parsing.obj
 0001:000123f8       __configure_narrow_argv    100133f8 f   libucrt:argv_parsing.obj
 0001:0001255c       ??$uninitialize@A6AXAAPAPAD@Z@?$dual_state_global@PAPAD@__crt_state_management@@QAEXA6AXAAPAPAD@Z@Z 1001355c f i libucrt:environment_initialization.obj
 0001:0001255c       ??$uninitialize@A6AXAAPAPA_W@Z@?$dual_state_global@PAPA_W@__crt_state_management@@QAEXA6AXAAPAPA_W@Z@Z 1001355c f i libucrt:environment_initialization.obj
 0001:000125d2       ___dcrt_uninitialize_environments_nolock 100135d2 f   libucrt:environment_initialization.obj
 0001:00012609       __initialize_narrow_environment 10013609 f   libucrt:environment_initialization.obj
 0001:0001260e       ??$?RV<lambda_800076c951b434888f4765a74a194fcc>@@AAV<lambda_4e60a939b0d047cfe11ddc22648dfba9>@@V<lambda_6dbb1268764f43b569ce7b67e331d33a>@@@?$__crt_seh_guarded_call@H@@QAEH$$QAV<lambda_800076c951b434888f4765a74a194fcc>@@AAV<lambda_4e60a939b0d047cfe11ddc22648dfba9>@@$$QAV<lambda_6dbb1268764f43b569ce7b67e331d33a>@@@Z 1001360e f i libucrt:onexit.obj
 0001:0001265f       ??$?RV<lambda_995298e7d72eb4c2aab26c0585b3abe5>@@AAV<lambda_275893d493268fdec8709772e3fcec0e>@@V<lambda_293819299cbf9a7022e18b56a874bb5c>@@@?$__crt_seh_guarded_call@H@@QAEH$$QAV<lambda_995298e7d72eb4c2aab26c0585b3abe5>@@AAV<lambda_275893d493268fdec8709772e3fcec0e>@@$$QAV<lambda_293819299cbf9a7022e18b56a874bb5c>@@@Z 1001365f f i libucrt:onexit.obj
 0001:000126b0       ??$__acrt_lock_and_call@V<lambda_275893d493268fdec8709772e3fcec0e>@@@@YAHW4__acrt_lock_id@@$$QAV<lambda_275893d493268fdec8709772e3fcec0e>@@@Z 100136b0 f i libucrt:onexit.obj
 0001:000126d8       ??$__acrt_lock_and_call@V<lambda_4e60a939b0d047cfe11ddc22648dfba9>@@@@YAHW4__acrt_lock_id@@$$QAV<lambda_4e60a939b0d047cfe11ddc22648dfba9>@@@Z 100136d8 f i libucrt:onexit.obj
 0001:00012700       ??$__crt_fast_encode_pointer@P6AHXZ@@YAP6AHXZQ6AHXZ@Z 10013700 f i libucrt:onexit.obj
 0001:00012980       __crt_atexit               10013980 f   libucrt:onexit.obj
 0001:00012996       __execute_onexit_table     10013996 f   libucrt:onexit.obj
 0001:000129b3       __initialize_onexit_table  100139b3 f   libucrt:onexit.obj
 0001:000129f0       __register_onexit_function 100139f0 f   libucrt:onexit.obj
 0001:00012a40       ___acrt_uninitialize_command_line 10013a40 f   libucrt:argv_data.obj
 0001:00012b08       ___acrt_initialize         10013b08 f   libucrt:initialization.obj
 0001:00012b1a       ___acrt_thread_attach      10013b1a f   libucrt:initialization.obj
 0001:00012b25       ___acrt_thread_detach      10013b25 f   libucrt:initialization.obj
 0001:00012b2d       ___acrt_uninitialize       10013b2d f   libucrt:initialization.obj
 0001:00012b3f       ___acrt_uninitialize_critical 10013b3f f   libucrt:initialization.obj
 0001:00012b51       __initterm                 10013b51 f   libucrt:initterm.obj
 0001:00012bad       __initterm_e               10013bad f   libucrt:initterm.obj
 0001:00012bf2       ___acrt_initialize_new_handler 10013bf2 f   libucrt:new_handler.obj
 0001:00012c06       __callnewh                 10013c06 f   libucrt:new_handler.obj
 0001:00012c4a       __query_new_handler        10013c4a f   libucrt:new_handler.obj
 0001:00012c9c       _terminate                 10013c9c f   libucrt:terminate.obj
 0001:00012cd8       _abort                     10013cd8 f   libucrt:abort.obj
 0001:00012d1b       _strcpy_s                  10013d1b f   libucrt:strcpy_s.obj
 0001:00012d75       _wcsncmp                   10013d75 f   libucrt:wcsncmp.obj
 0001:00012daf       ??$is_overflow_condition@K@__crt_strtox@@YA_NIK@Z 10013daf f i libucrt:atox.obj
 0001:00012de2       ??$parse_integer@KV?$c_string_character_source@_W@__crt_strtox@@@__crt_strtox@@YAKQAU__crt_locale_pointers@@V?$c_string_character_source@_W@0@H_N@Z 10013de2 f i libucrt:atox.obj
 0001:000134c7       ?unget@?$c_string_character_source@_W@__crt_strtox@@QAEX_W@Z 100144c7 f i libucrt:atox.obj
 0001:000134f3       __chvalidchk_l             100144f3 f i libucrt:atox.obj
 0001:0001351d       __ischartype_l             1001451d f i libucrt:atox.obj
 0001:00013550       _strncmp                   10014550 f   libucrt:strncmp.obj
 0001:000135c8       __free_base                100145c8 f   libucrt:free_base.obj
 0001:00013602       ??$?RV<lambda_3518db117f0e7cdb002338c5d3c47b6c>@@AAV<lambda_b2ea41f6bbb362cd97d94c6828d90b61>@@V<lambda_abdedf541bb04549bc734292b4a045d4>@@@?$__crt_seh_guarded_call@X@@QAEX$$QAV<lambda_3518db117f0e7cdb002338c5d3c47b6c>@@AAV<lambda_b2ea41f6bbb362cd97d94c6828d90b61>@@$$QAV<lambda_abdedf541bb04549bc734292b4a045d4>@@@Z 10014602 f i libucrt:per_thread_data.obj
 0001:00013652       ??$?RV<lambda_51b6e8b1eb166f2a3faf91f424b38130>@@AAV<lambda_6250bd4b2a391816dd638c3bf72b0bcb>@@V<lambda_0b5a4a3e68152e1d9b943535f5f47bed>@@@?$__crt_seh_guarded_call@X@@QAEX$$QAV<lambda_51b6e8b1eb166f2a3faf91f424b38130>@@AAV<lambda_6250bd4b2a391816dd638c3bf72b0bcb>@@$$QAV<lambda_0b5a4a3e68152e1d9b943535f5f47bed>@@@Z 10014652 f i libucrt:per_thread_data.obj
 0001:000136b3       ??$?RV<lambda_5b71d36f03204c0beab531769a5b5694>@@AAV<lambda_be2b3da3f62db62e9dad5dc70221a656>@@V<lambda_8f9ce462984622f9bf76b59e2aaaf805>@@@?$__crt_seh_guarded_call@X@@QAEX$$QAV<lambda_5b71d36f03204c0beab531769a5b5694>@@AAV<lambda_be2b3da3f62db62e9dad5dc70221a656>@@$$QAV<lambda_8f9ce462984622f9bf76b59e2aaaf805>@@@Z 100146b3 f i libucrt:per_thread_data.obj
 0001:000136fe       ??$?RV<lambda_9df27f884b057bc3edfc946cb5b7cf47>@@AAV<lambda_e69574bed617af4e071282c136b37893>@@V<lambda_cc0d902bcbbeb830f749456577db4721>@@@?$__crt_seh_guarded_call@X@@QAEX$$QAV<lambda_9df27f884b057bc3edfc946cb5b7cf47>@@AAV<lambda_e69574bed617af4e071282c136b37893>@@$$QAV<lambda_cc0d902bcbbeb830f749456577db4721>@@@Z 100146fe f i libucrt:per_thread_data.obj
 0001:00013746       ??$__acrt_lock_and_call@V<lambda_6250bd4b2a391816dd638c3bf72b0bcb>@@@@YAXW4__acrt_lock_id@@$$QAV<lambda_6250bd4b2a391816dd638c3bf72b0bcb>@@@Z 10014746 f i libucrt:per_thread_data.obj
 0001:0001376e       ??$__acrt_lock_and_call@V<lambda_b2ea41f6bbb362cd97d94c6828d90b61>@@@@YAXW4__acrt_lock_id@@$$QAV<lambda_b2ea41f6bbb362cd97d94c6828d90b61>@@@Z 1001476e f i libucrt:per_thread_data.obj
 0001:00013796       ??$__acrt_lock_and_call@V<lambda_be2b3da3f62db62e9dad5dc70221a656>@@@@YAXW4__acrt_lock_id@@$$QAV<lambda_be2b3da3f62db62e9dad5dc70221a656>@@@Z 10014796 f i libucrt:per_thread_data.obj
 0001:000137be       ??$__acrt_lock_and_call@V<lambda_e69574bed617af4e071282c136b37893>@@@@YAXW4__acrt_lock_id@@$$QAV<lambda_e69574bed617af4e071282c136b37893>@@@Z 100147be f i libucrt:per_thread_data.obj
 0001:00013974       ___acrt_freeptd            10014974 f   libucrt:per_thread_data.obj
 0001:000139a0       ___acrt_getptd             100149a0 f   libucrt:per_thread_data.obj
 0001:00013a24       ___acrt_getptd_noexit      10014a24 f   libucrt:per_thread_data.obj
 0001:00013aa9       ___acrt_initialize_ptd     10014aa9 f   libucrt:per_thread_data.obj
 0001:00013ad5       ___acrt_uninitialize_ptd   10014ad5 f   libucrt:per_thread_data.obj
 0001:00013aef       __calloc_base              10014aef f   libucrt:calloc_base.obj
 0001:00013b4c       __malloc_base              10014b4c f   libucrt:malloc_base.obj
 0001:00013b9a       __msize                    10014b9a f   libucrt:msize.obj
 0001:00013bcd       __realloc_base             10014bcd f   libucrt:realloc_base.obj
 0001:00013d4d       ___acrt_FlsAlloc@4         10014d4d f   libucrt:winapi_thunks.obj
 0001:00013da3       ___acrt_FlsFree@4          10014da3 f   libucrt:winapi_thunks.obj
 0001:00013df9       ___acrt_FlsGetValue@4      10014df9 f   libucrt:winapi_thunks.obj
 0001:00013e4f       ___acrt_FlsSetValue@8      10014e4f f   libucrt:winapi_thunks.obj
 0001:00013ea8       ___acrt_InitializeCriticalSectionEx@12 10014ea8 f   libucrt:winapi_thunks.obj
 0001:00013f0a       ___acrt_LCMapStringEx@36   10014f0a f   libucrt:winapi_thunks.obj
 0001:00013f92       ___acrt_LocaleNameToLCID@8 10014f92 f   libucrt:winapi_thunks.obj
 0001:00013fee       ___acrt_SetThreadStackGuarantee@4 10014fee f   libucrt:winapi_thunks.obj
 0001:00014040       ___acrt_initialize_winapi_thunks 10015040 f   libucrt:winapi_thunks.obj
 0001:00014066       ___acrt_is_packaged_app    10015066 f   libucrt:winapi_thunks.obj
 0001:000140ed       ___acrt_uninitialize_winapi_thunks 100150ed f   libucrt:winapi_thunks.obj
 0001:00014123       __isdigit_l                10015123 f i libucrt:_ctype.obj
 0001:0001415b       _isdigit                   1001515b f i libucrt:_ctype.obj
 0001:000142ef       __tolower_l                100152ef f   libucrt:tolower_toupper.obj
 0001:00014309       _tolower                   10015309 f   libucrt:tolower_toupper.obj
 0001:00014339       ??$make_c_string_character_source@_WPAPA_W@__crt_strtox@@YA?AV?$c_string_character_source@_W@0@QB_WQAPA_W@Z 10015339 f i libucrt:strtox.obj
 0001:00014354       _wcstol                    10015354 f   libucrt:strtox.obj
 0001:00014380       __mbtowc_l                 10015380 f   libucrt:mbtowc.obj
 0001:0001447a       _mbtowc                    1001547a f   libucrt:mbtowc.obj
 0001:00014494       _wcsnlen                   10015494 f   libucrt:strnlen.obj
 0001:0001464b       ___acrt_update_locale_info 1001564b f   libucrt:locale_update.obj
 0001:00014678       ___acrt_update_multibyte_info 10015678 f   libucrt:locale_update.obj
 0001:000146a5       ?__acrt_fp_classify@@YA?AW4__acrt_fp_class@@ABN@Z 100156a5 f i libucrt:cvt.obj
 0001:00014711       ?__acrt_fp_is_negative@@YA_NABN@Z 10015711 f i libucrt:cvt.obj
 0001:00014f70       ___acrt_fp_format          10015f70 f   libucrt:cvt.obj
 0001:000150ba       __fileno                   100160ba f   libucrt:fileno.obj
 0001:000150e0       ___acrt_initialize_stdio   100160e0 f   libucrt:_file.obj
 0001:000151a8       ___acrt_uninitialize_stdio 100161a8 f   libucrt:_file.obj
 0001:000151f4       __lock_file                100161f4 f   libucrt:_file.obj
 0001:00015208       __unlock_file              10016208 f   libucrt:_file.obj
 0001:0001521c       __get_printf_count_output  1001621c f   libucrt:printf_count_output.obj
 0001:00015231       ___acrt_set_locale_changed 10016231 f   libucrt:wsetlocale.obj
 0001:0001523c       ___acrt_uninitialize_locale 1001623c f   libucrt:wsetlocale.obj
 0001:000153fa       ___acrt_initialize_lowio   100163fa f   libucrt:ioinit.obj
 0001:00015450       ___acrt_uninitialize_lowio 10016450 f   libucrt:ioinit.obj
 0001:0001547c       ___acrt_initialize_locks   1001647c f   libucrt:locks.obj
 0001:000154bd       ___acrt_lock               100164bd f   libucrt:locks.obj
 0001:000154d4       ___acrt_uninitialize_locks 100164d4 f   libucrt:locks.obj
 0001:00015505       ___acrt_unlock             10016505 f   libucrt:locks.obj
 0001:000158de       ??1?$argument_list@D@?A0xb0e4b824@@QAE@XZ 100168de f i libucrt:argv_wildcards.obj
 0001:00015903       ?append@?$argument_list@D@?A0xb0e4b824@@QAEHQAD@Z 10016903 f i libucrt:argv_wildcards.obj
 0001:00015938       ?expand_if_necessary@?$argument_list@D@?A0xb0e4b824@@AAEHXZ 10016938 f i libucrt:argv_wildcards.obj
 0001:000159bf       ___acrt_expand_narrow_argv_wildcards 100169bf f   libucrt:argv_wildcards.obj
 0001:000159ca       ??$?RV<lambda_978dc153c237d78434369da87b74ff60>@@AAV<lambda_ad1ced32f4ac17aa236e5ef05d6b3b7c>@@V<lambda_4a8533e2866a575feecb8298ce776b0d>@@@?$__crt_seh_guarded_call@X@@QAEX$$QAV<lambda_978dc153c237d78434369da87b74ff60>@@AAV<lambda_ad1ced32f4ac17aa236e5ef05d6b3b7c>@@$$QAV<lambda_4a8533e2866a575feecb8298ce776b0d>@@@Z 100169ca f i libucrt:mbctype.obj
 0001:00015a0d       ??$__acrt_lock_and_call@V<lambda_ad1ced32f4ac17aa236e5ef05d6b3b7c>@@@@YAXW4__acrt_lock_id@@$$QAV<lambda_ad1ced32f4ac17aa236e5ef05d6b3b7c>@@@Z 10016a0d f i libucrt:mbctype.obj
 0001:00015ea4       ___acrt_initialize_multibyte 10016ea4 f   libucrt:mbctype.obj
 0001:00015ec2       ___acrt_update_thread_multibyte_data 10016ec2 f   libucrt:mbctype.obj
 0001:00015f64       __setmbcp_nolock           10016f64 f   libucrt:mbctype.obj
 0001:0001622f       __ismbblead                1001722f f   libucrt:ismbbyte.obj
 0001:00016247       ___acrt_initialize_command_line 10017247 f   libucrt:argv_data.obj
 0001:00016297       ___dcrt_get_narrow_environment_from_os 10017297 f   libucrt:get_environment_from_os.obj
 0001:0001631a       ___acrt_initialize_heap    1001731a f   libucrt:heap_handle.obj
 0001:0001632b       ___acrt_uninitialize_heap  1001732b f   libucrt:heap_handle.obj
 0001:00016335       ___acrt_execute_initializers 10017335 f   libucrt:shared_initialization.obj
 0001:000163b8       ___acrt_execute_uninitializers 100173b8 f   libucrt:shared_initialization.obj
 0001:00016405       ??$?RV<lambda_a048d3beccc847880fc8490e18b82769>@@AAV<lambda_ec61778202f4f5fc7e7711acc23c3bca>@@V<lambda_f7496a158712204296dd6628a163878e>@@@?$__crt_seh_guarded_call@P6AXH@Z@@QAEP6AXH@Z$$QAV<lambda_a048d3beccc847880fc8490e18b82769>@@AAV<lambda_ec61778202f4f5fc7e7711acc23c3bca>@@$$QAV<lambda_f7496a158712204296dd6628a163878e>@@@Z 10017405 f i libucrt:signal.obj
 0001:0001645f       ??$__acrt_lock_and_call@V<lambda_ec61778202f4f5fc7e7711acc23c3bca>@@@@YAP6AXH@ZW4__acrt_lock_id@@$$QAV<lambda_ec61778202f4f5fc7e7711acc23c3bca>@@@Z 1001745f f i libucrt:signal.obj
 0001:000164f1       ___acrt_get_sigabrt_handler 100174f1 f   libucrt:signal.obj
 0001:00016508       ___acrt_initialize_signal_handlers 10017508 f   libucrt:signal.obj
 0001:00016543       ___fpecode                 10017543 f   libucrt:signal.obj
 0001:0001654c       _raise                     1001754c f   libucrt:signal.obj
 0001:00016754       ___acrt_has_user_matherr   10017754 f   libucrt:matherr.obj
 0001:0001676d       ___acrt_initialize_user_matherr 1001776d f   libucrt:matherr.obj
 0001:00016781       ___acrt_invoke_user_matherr 10017781 f   libucrt:matherr.obj
 0001:000167ca       ___pctype_func             100177ca f   libucrt:ctype.obj
 0001:000167f0       _iswctype                  100177f0 f   libucrt:iswctype.obj
 0001:0001684f       __isctype_l                1001784f f   libucrt:isctype.obj
 0001:00016921       ___acrt_add_locale_ref     10017921 f   libucrt:locale_refcounting.obj
 0001:0001699e       ___acrt_free_locale        1001799e f   libucrt:locale_refcounting.obj
 0001:00016ae8       ___acrt_locale_add_lc_time_reference 10017ae8 f   libucrt:locale_refcounting.obj
 0001:00016b11       ___acrt_locale_free_lc_time_if_unreferenced 10017b11 f   libucrt:locale_refcounting.obj
 0001:00016b41       ___acrt_locale_release_lc_time_reference 10017b41 f   libucrt:locale_refcounting.obj
 0001:00016b6a       ___acrt_release_locale_ref 10017b6a f   libucrt:locale_refcounting.obj
 0001:00016beb       ___acrt_update_thread_locale_data 10017beb f   libucrt:locale_refcounting.obj
 0001:00016c62       __updatetlocinfoEx_nolock  10017c62 f   libucrt:locale_refcounting.obj
 0001:00016cb2       __query_new_mode           10017cb2 f   libucrt:new_mode.obj
 0001:00016d74       ___acrt_DownlevelLocaleNameToLCID 10017d74 f   libucrt:lcidtoname_downlevel.obj
 0001:00016da0       __isleadbyte_l             10017da0 f i libucrt:_wctype.obj
 0001:00016ff6       ___acrt_LCMapStringA       10017ff6 f   libucrt:lcmapstringa.obj
 0001:00017041       __freea_crt                10018041 f i libucrt:lcmapstringa.obj
 0001:00017061       ___acrt_fp_strflt_to_string 10018061 f   libucrt:_fptostr.obj
 0001:0001711d       ??0scoped_fp_state_reset@?A0x48fbfdd4@@QAE@XZ 1001811d f i libucrt:cfout.obj
 0001:00017150       ?divide@__crt_strtox@@YA_KAAUbig_integer@1@ABU21@@Z 10018150 f i libucrt:cfout.obj
 0001:000175fe       ___acrt_fltout             100185fe f   libucrt:cfout.obj
 0001:0001899a       __fcloseall                1001999a f   libucrt:closeall.obj
 0001:00018a3a       ___acrt_stdio_flush_nolock 10019a3a f   libucrt:fflush.obj
 0001:00018aa0       __fflush_nolock            10019aa0 f   libucrt:fflush.obj
 0001:00018ae7       __flushall                 10019ae7 f   libucrt:fflush.obj
 0001:00018bc8       ___acrt_stdio_free_buffer_nolock 10019bc8 f   libucrt:_freebuf.obj
 0001:00018c06       __isatty                   10019c06 f   libucrt:isatty.obj
 0001:00018c5c       ___acrt_locale_free_monetary 10019c5c f   libucrt:initmon.obj
 0001:00018d5a       ___acrt_locale_free_numeric 10019d5a f   libucrt:initnum.obj
 0001:00018dff       ___acrt_locale_free_time   10019dff f   libucrt:inittime.obj
 0001:00018ee3       ___acrt_GetStringTypeA     10019ee3 f   libucrt:getstringtypea.obj
 0001:00019000       ___acrt_lowio_create_handle_array 1001a000 f   libucrt:osfinfo.obj
 0001:0001907a       ___acrt_lowio_destroy_handle_array 1001a07a f   libucrt:osfinfo.obj
 0001:000190af       ___acrt_lowio_ensure_fh_exists 1001a0af f   libucrt:osfinfo.obj
 0001:00019147       ___acrt_lowio_lock_fh      1001a147 f   libucrt:osfinfo.obj
 0001:0001916a       ___acrt_lowio_unlock_fh    1001a16a f   libucrt:osfinfo.obj
 0001:0001918d       __free_osfhnd              1001a18d f   libucrt:osfinfo.obj
 0001:0001921e       __get_osfhandle            1001a21e f   libucrt:osfinfo.obj
 0001:00019370       _qsort                     1001a370 f   libucrt:qsort.obj
 0001:000197bb       _strncpy_s                 1001a7bb f   libucrt:strncpy_s.obj
 0001:000197d0       _strpbrk                   1001a7d0 f   libucrt:strpbrk.obj
 0001:00019810       __mbsdec                   1001a810 f   libucrt:mbsdec.obj
 0001:00019827       __mbsdec_l                 1001a827 f   libucrt:mbsdec.obj
 0001:000198c3       ___strncnt                 1001a8c3 f   libucrt:strncnt.obj
 0001:000198df       _fegetenv                  1001a8df f   libucrt:fegetenv.obj
 0001:000198fc       _fesetenv                  1001a8fc f   libucrt:fesetenv.obj
 0001:00019945       _feholdexcept              1001a945 f   libucrt:feholdexcept.obj
 0001:000199a0       _log10                     1001a9a0 f   libucrt:log10.obj
 0001:000199e0       __CIlog10                  1001a9e0 f   libucrt:log10.obj
 0001:00019a1b       __CIlog10_default          1001aa1b f   libucrt:log10.obj
 0001:00019a2f       __log10_default            1001aa2f     libucrt:log10.obj
 0001:00019af0       _ceil                      1001aaf0 f   libucrt:ceil_pentium4.obj
 0001:00019b30       __ceil_pentium4            1001ab30 f   libucrt:ceil_pentium4.obj
 0001:0001a19d       __write                    1001b19d f   libucrt:write.obj
 0001:0001a288       __write_nolock             1001b288 f   libucrt:write.obj
 0001:0001a512       __lseeki64_nolock          1001b512 f   libucrt:lseek.obj
 0001:0001a52d       __fclose_nolock            1001b52d f   libucrt:fclose.obj
 0001:0001a5a3       _fclose                    1001b5a3 f   libucrt:fclose.obj
 0001:0001a623       ??$?RV<lambda_61cee617f5178ae960314fd4d05640a0>@@AAV<lambda_6978c1fb23f02e42e1d9e99668cc68aa>@@V<lambda_9cd88cf8ad10232537feb2133f08c833>@@@?$__crt_seh_guarded_call@H@@QAEH$$QAV<lambda_61cee617f5178ae960314fd4d05640a0>@@AAV<lambda_6978c1fb23f02e42e1d9e99668cc68aa>@@$$QAV<lambda_9cd88cf8ad10232537feb2133f08c833>@@@Z 1001b623 f i libucrt:commit.obj
 0001:0001a6bb       ??$__acrt_lowio_lock_fh_and_call@V<lambda_6978c1fb23f02e42e1d9e99668cc68aa>@@@@YAHH$$QAV<lambda_6978c1fb23f02e42e1d9e99668cc68aa>@@@Z 1001b6bb f i libucrt:commit.obj
 0001:0001a6e3       __commit                   1001b6e3 f   libucrt:commit.obj
 0001:0001a752       __query_app_type           1001b752 f   libucrt:report_runtime_error.obj
 0001:0001a9fb       __getfpcontrolword         1001b9fb f   libucrt:_fenvutils.obj
 0001:0001aa3e       __getfpstatusword          1001ba3e f   libucrt:_fenvutils.obj
 0001:0001aae6       __setfpcontrolword         1001bae6 f   libucrt:_fenvutils.obj
 0001:0001ab66       __setfpstatusword          1001bb66 f   libucrt:_fenvutils.obj
 0001:0001abe6       __clearfp                  1001bbe6 f   libucrt:ieee87.obj
 0001:0001acc4       ___acrt_initialize_sse2    1001bcc4 f   libucrt:mathfcns.obj
 0001:0001ace0       __CIlog10_pentium4         1001bce0 f   libucrt:log10_pentium4.obj
 0001:0001acf8       __log10_pentium4           1001bcf8     libucrt:log10_pentium4.obj
 0001:0001af81       __fFEXP                    1001bf81     libucrt:87tran.obj
 0001:0001afd8       __rtinfpopse               1001bfd8     libucrt:87tran.obj
 0001:0001afda       __rtinfnpopse              1001bfda     libucrt:87tran.obj
 0001:0001afea       __fFLN                     1001bfea     libucrt:87tran.obj
 0001:0001b09f       __rtinfpop                 1001c09f     libucrt:87tran.obj
 0001:0001b0a1       __rtinfnpop                1001c0a1     libucrt:87tran.obj
 0001:0001b0be       __ffexpm1                  1001c0be     libucrt:87tran.obj
 0001:0001b170       __trandisp1                1001c170 f   libucrt:87disp.obj
 0001:0001b1d7       __trandisp2                1001c1d7 f   libucrt:87disp.obj
 0001:0001b263       __rttospopde               1001c263     libucrt:87disp.obj
 0001:0001b268       __rttospop                 1001c268     libucrt:87disp.obj
 0001:0001b26a       __rtnospop                 1001c26a     libucrt:87disp.obj
 0001:0001b26c       __rttosnpop                1001c26c     libucrt:87disp.obj
 0001:0001b26d       __rtnospopde               1001c26d     libucrt:87disp.obj
 0001:0001b274       __rtzeropop                1001c274     libucrt:87disp.obj
 0001:0001b276       __rtzeronpop               1001c276     libucrt:87disp.obj
 0001:0001b27b       __rtzerospop               1001c27b     libucrt:87disp.obj
 0001:0001b288       __rtonepop                 1001c288     libucrt:87disp.obj
 0001:0001b28a       __rtonenpop                1001c28a     libucrt:87disp.obj
 0001:0001b28f       __tosnan1                  1001c28f     libucrt:87disp.obj
 0001:0001b2ba       __nosnan2                  1001c2ba     libucrt:87disp.obj
 0001:0001b2bc       __tosnan2                  1001c2bc     libucrt:87disp.obj
 0001:0001b2e4       __nan2                     1001c2e4     libucrt:87disp.obj
 0001:0001b323       __rtindfpop                1001c323     libucrt:87disp.obj
 0001:0001b325       __rtindfnpop               1001c325     libucrt:87disp.obj
 0001:0001b336       __rttosnpopde              1001c336     libucrt:87disp.obj
 0001:0001b340       __rtatan2inf               1001c340     libucrt:87disp.obj
 0001:0001b35d       __rtchsifneg               1001c35d     libucrt:87disp.obj
 0001:0001b370       __twoToTOS                 1001c370 f   libucrt:common.obj
 0001:0001b385       __load_CW                  1001c385 f   libucrt:common.obj
 0001:0001b39c       __convertTOStoQNaN         1001c39c f   libucrt:common.obj
 0001:0001b3b5       __fload_withFB             1001c3b5 f   libucrt:common.obj
 0001:0001b3f8       __checkTOS_withFB          1001c3f8 f   libucrt:common.obj
 0001:0001b40e       __fast_exit                1001c40e f   libucrt:common.obj
 0001:0001b41b       __math_exit                1001c41b f   libucrt:common.obj
 0001:0001b445       __check_overflow_exit      1001c445 f   libucrt:common.obj
 0001:0001b459       __check_range_exit         1001c459 f   libucrt:common.obj
 0001:0001b500       __startTwoArgErrorHandling 1001c500 f   libucrt:genexcep.obj
 0001:0001b517       __startOneArgErrorHandling 1001c517 f   libucrt:genexcep.obj
 0001:0001b553       ___libm_error_support      1001c553 f   libucrt:libm_error.obj
 0001:0001b76b       __ceil_default             1001c76b f   libucrt:ceil.obj
 0001:0001b824       __putwch_nolock            1001c824 f   libucrt:putwch.obj
 0001:0001b869       ??$?RV<lambda_123407a5e2ac06da108355a851863b7a>@@AAV<lambda_2fe9b910cf3cbf4a0ab98a02ba45b3ec>@@V<lambda_ae55bdf541ad94d75914d381c370e64d>@@@?$__crt_seh_guarded_call@H@@QAEH$$QAV<lambda_123407a5e2ac06da108355a851863b7a>@@AAV<lambda_2fe9b910cf3cbf4a0ab98a02ba45b3ec>@@$$QAV<lambda_ae55bdf541ad94d75914d381c370e64d>@@@Z 1001c869 f i libucrt:close.obj
 0001:0001b8eb       ??$__acrt_lowio_lock_fh_and_call@V<lambda_2fe9b910cf3cbf4a0ab98a02ba45b3ec>@@@@YAHH$$QAV<lambda_2fe9b910cf3cbf4a0ab98a02ba45b3ec>@@@Z 1001c8eb f i libucrt:close.obj
 0001:0001b913       __close                    1001c913 f   libucrt:close.obj
 0001:0001b992       __close_nolock             1001c992 f   libucrt:close.obj
 0001:0001ba2e       ?__acrt_stdio_free_stream@@YAXV__crt_stdio_stream@@@Z 1001ca2e f   libucrt:stream.obj
 0001:0001ba70       ___ascii_strnicmp          1001ca70 f   libucrt:_strnicm.obj
 0001:0001bad1       __clrfp                    1001cad1 f   libucrt:fpctrl.obj
 0001:0001bae4       __ctrlfp                   1001cae4 f   libucrt:fpctrl.obj
 0001:0001bb10       __set_statfp               1001cb10 f   libucrt:fpctrl.obj
 0001:0001bb6b       __statfp                   1001cb6b f   libucrt:fpctrl.obj
 0001:0001bb7d       __d_inttype                1001cb7d f   libucrt:powhlp.obj
 0001:0001bbe7       __powhlp                   1001cbe7 f   libucrt:powhlp.obj
 0001:0001bd12       __87except                 1001cd12 f   libucrt:87except.obj
 0001:0001be1d       __frnd                     1001ce1d f   libucrt:frnd.obj
 0001:0001be33       __errcode                  1001ce33 f   libucrt:fpexcept.obj
 0001:0001be67       __except1                  1001ce67 f   libucrt:fpexcept.obj
 0001:0001bf35       __handle_exc               1001cf35 f   libucrt:fpexcept.obj
 0001:0001c115       __raise_exc                1001d115 f   libucrt:fpexcept.obj
 0001:0001c138       __raise_exc_ex             1001d138 f   libucrt:fpexcept.obj
 0001:0001c429       __set_errno_from_matherr   1001d429 f   libucrt:fpexcept.obj
 0001:0001c458       __umatherr                 1001d458 f   libucrt:fpexcept.obj
 0001:0001c4fa       __decomp                   1001d4fa f   libucrt:util.obj
 0001:0001c5ce       __set_exp                  1001d5ce f   libucrt:util.obj
 0001:0001c5fd       __sptype                   1001d5fd f   libucrt:util.obj
 0001:0001c65b       ___dcrt_lowio_initialize_console_output 1001d65b f   libucrt:initcon.obj
 0001:0001c67a       ___dcrt_terminate_console_output 1001d67a f   libucrt:initcon.obj
 0001:0001c691       __fpclass                  1001d691 f   libucrt:ieeemisc.obj
 0001:0001c735       _IsProcessorFeaturePresent@4 1001d735 f   kernel32:KERNEL32.dll
 0001:0001c740       __FindPESection            1001d740 f   LIBCMT:pesect.obj
 0001:0001c790       __IsNonwritableInCurrentImage 1001d790 f   LIBCMT:pesect.obj
 0001:0001c850       __ValidateImageBase        1001d850 f   LIBCMT:pesect.obj
 0001:0001c883       __EH_prolog3_catch         1001d883 f   LIBCMT:ehprolg3.obj
 0001:0001c8c0       __aulldvrm                 1001d8c0 f   LIBCMT:ulldvrm.obj
 0001:0001c960       __allmul                   1001d960 f   LIBCMT:llmul.obj
 0001:0001c9a0       __alldvrm                  1001d9a0 f   LIBCMT:lldvrm.obj
 0001:0001ca80       __aullshr                  1001da80 f   LIBCMT:ullshr.obj
 0001:0001caa0       __allshl                   1001daa0 f   LIBCMT:llshl.obj
 0001:0001cac0       __ftol2_sse                1001dac0 f   LIBCMT:ftol2.obj
 0001:0001cac9       __ftol2_pentium4           1001dac9 f   LIBCMT:ftol2.obj
 0001:0001cadc       __ftol2_sse_excpt          1001dadc f   LIBCMT:ftol2.obj
 0001:0001cb00       __ftol2                    1001db00 f   LIBCMT:ftol2.obj
 0001:0001cb80       _strrchr                   1001db80 f   libvcruntime:strrchr.obj
 0001:0001ccc0       _strchr                    1001dcc0 f   libvcruntime:strchr.obj
 0001:0001cd2e       ___from_strstr_to_strchr   1001dd2e     libvcruntime:strchr.obj
 0002:00000000       __imp__RegQueryValueExW@24 1001e000     advapi32:ADVAPI32.dll
 0002:00000004       __imp__RegSetValueExW@24   1001e004     advapi32:ADVAPI32.dll
 0002:00000008       __imp__RegQueryInfoKeyW@48 1001e008     advapi32:ADVAPI32.dll
 0002:0000000c       __imp__RegOpenKeyExW@20    1001e00c     advapi32:ADVAPI32.dll
 0002:00000010       __imp__RegEnumKeyExW@32    1001e010     advapi32:ADVAPI32.dll
 0002:00000014       __imp__RegDeleteValueW@8   1001e014     advapi32:ADVAPI32.dll
 0002:00000018       __imp__RegDeleteKeyW@8     1001e018     advapi32:ADVAPI32.dll
 0002:0000001c       __imp__RegCreateKeyExW@36  1001e01c     advapi32:ADVAPI32.dll
 0002:00000020       __imp__RegCloseKey@4       1001e020     advapi32:ADVAPI32.dll
 0002:00000024       \177ADVAPI32_NULL_THUNK_DATA 1001e024     advapi32:ADVAPI32.dll
 0002:00000028       __imp__GetObjectW@12       1001e028     gdi32:GDI32.dll
 0002:0000002c       __imp__SelectObject@8      1001e02c     gdi32:GDI32.dll
 0002:00000030       __imp__DeleteObject@4      1001e030     gdi32:GDI32.dll
 0002:00000034       __imp__CreateCompatibleDC@4 1001e034     gdi32:GDI32.dll
 0002:00000038       __imp__BitBlt@36           1001e038     gdi32:GDI32.dll
 0002:0000003c       __imp__SetWindowOrgEx@16   1001e03c     gdi32:GDI32.dll
 0002:00000040       __imp__SetWindowExtEx@16   1001e040     gdi32:GDI32.dll
 0002:00000044       __imp__SetViewportOrgEx@16 1001e044     gdi32:GDI32.dll
 0002:00000048       __imp__LPtoDP@12           1001e048     gdi32:GDI32.dll
 0002:0000004c       __imp__SetMapMode@8        1001e04c     gdi32:GDI32.dll
 0002:00000050       __imp__SaveDC@4            1001e050     gdi32:GDI32.dll
 0002:00000054       __imp__RestoreDC@8         1001e054     gdi32:GDI32.dll
 0002:00000058       __imp__GetDeviceCaps@8     1001e058     gdi32:GDI32.dll
 0002:0000005c       __imp__DeleteMetaFile@4    1001e05c     gdi32:GDI32.dll
 0002:00000060       __imp__DeleteDC@4          1001e060     gdi32:GDI32.dll
 0002:00000064       __imp__CreateRectRgnIndirect@4 1001e064     gdi32:GDI32.dll
 0002:00000068       __imp__CreateMetaFileW@4   1001e068     gdi32:GDI32.dll
 0002:0000006c       __imp__CreateDCW@16        1001e06c     gdi32:GDI32.dll
 0002:00000070       __imp__CloseMetaFile@4     1001e070     gdi32:GDI32.dll
 0002:00000074       \177GDI32_NULL_THUNK_DATA  1001e074     gdi32:GDI32.dll
 0002:00000078       __imp__CloseHandle@4       1001e078     kernel32:KERNEL32.dll
 0002:0000007c       __imp__SetEvent@4          1001e07c     kernel32:KERNEL32.dll
 0002:00000080       __imp__CreateMutexW@12     1001e080     kernel32:KERNEL32.dll
 0002:00000084       __imp__CreateEventW@16     1001e084     kernel32:KERNEL32.dll
 0002:00000088       __imp__GetCurrentProcessId@0 1001e088     kernel32:KERNEL32.dll
 0002:0000008c       __imp__WriteConsoleW@20    1001e08c     kernel32:KERNEL32.dll
 0002:00000090       __imp__FlushFileBuffers@4  1001e090     kernel32:KERNEL32.dll
 0002:00000094       __imp__SetFilePointerEx@20 1001e094     kernel32:KERNEL32.dll
 0002:00000098       __imp__GetConsoleMode@8    1001e098     kernel32:KERNEL32.dll
 0002:0000009c       __imp__GetConsoleCP@0      1001e09c     kernel32:KERNEL32.dll
 0002:000000a0       __imp__WriteFile@20        1001e0a0     kernel32:KERNEL32.dll
 0002:000000a4       __imp__SetStdHandle@8      1001e0a4     kernel32:KERNEL32.dll
 0002:000000a8       __imp__GetStringTypeW@16   1001e0a8     kernel32:KERNEL32.dll
 0002:000000ac       __imp__FreeEnvironmentStringsW@4 1001e0ac     kernel32:KERNEL32.dll
 0002:000000b0       __imp__GetEnvironmentStringsW@0 1001e0b0     kernel32:KERNEL32.dll
 0002:000000b4       __imp__FindResourceW@12    1001e0b4     kernel32:KERNEL32.dll
 0002:000000b8       __imp__GetCommandLineA@0   1001e0b8     kernel32:KERNEL32.dll
 0002:000000bc       __imp__GetCPInfo@8         1001e0bc     kernel32:KERNEL32.dll
 0002:000000c0       __imp__GetOEMCP@0          1001e0c0     kernel32:KERNEL32.dll
 0002:000000c4       __imp__IsValidCodePage@4   1001e0c4     kernel32:KERNEL32.dll
 0002:000000c8       __imp__FindNextFileA@8     1001e0c8     kernel32:KERNEL32.dll
 0002:000000cc       __imp__FindFirstFileExA@24 1001e0cc     kernel32:KERNEL32.dll
 0002:000000d0       __imp__FindClose@4         1001e0d0     kernel32:KERNEL32.dll
 0002:000000d4       __imp__GetFileType@4       1001e0d4     kernel32:KERNEL32.dll
 0002:000000d8       __imp__GetStdHandle@4      1001e0d8     kernel32:KERNEL32.dll
 0002:000000dc       __imp__GetACP@0            1001e0dc     kernel32:KERNEL32.dll
 0002:000000e0       __imp__LCMapStringW@24     1001e0e0     kernel32:KERNEL32.dll
 0002:000000e4       __imp__HeapReAlloc@16      1001e0e4     kernel32:KERNEL32.dll
 0002:000000e8       __imp__lstrcmpiW@8         1001e0e8     kernel32:KERNEL32.dll
 0002:000000ec       __imp__MulDiv@12           1001e0ec     kernel32:KERNEL32.dll
 0002:000000f0       __imp__GlobalUnlock@4      1001e0f0     kernel32:KERNEL32.dll
 0002:000000f4       __imp__GlobalLock@4        1001e0f4     kernel32:KERNEL32.dll
 0002:000000f8       __imp__GlobalAlloc@8       1001e0f8     kernel32:KERNEL32.dll
 0002:000000fc       __imp__SizeofResource@8    1001e0fc     kernel32:KERNEL32.dll
 0002:00000100       __imp__LoadResource@8      1001e100     kernel32:KERNEL32.dll
 0002:00000104       __imp__LoadLibraryExW@12   1001e104     kernel32:KERNEL32.dll
 0002:00000108       __imp__GetProcAddress@8    1001e108     kernel32:KERNEL32.dll
 0002:0000010c       __imp__GetModuleHandleW@4  1001e10c     kernel32:KERNEL32.dll
 0002:00000110       __imp__GetModuleFileNameW@12 1001e110     kernel32:KERNEL32.dll
 0002:00000114       __imp__FreeLibrary@4       1001e114     kernel32:KERNEL32.dll
 0002:00000118       __imp__DisableThreadLibraryCalls@4 1001e118     kernel32:KERNEL32.dll
 0002:0000011c       __imp__GetCurrentThreadId@0 1001e11c     kernel32:KERNEL32.dll
 0002:00000120       __imp__Sleep@4             1001e120     kernel32:KERNEL32.dll
 0002:00000124       __imp__WaitForSingleObject@8 1001e124     kernel32:KERNEL32.dll
 0002:00000128       __imp__ReleaseMutex@4      1001e128     kernel32:KERNEL32.dll
 0002:0000012c       __imp__ResetEvent@4        1001e12c     kernel32:KERNEL32.dll
 0002:00000130       __imp__EnterCriticalSection@4 1001e130     kernel32:KERNEL32.dll
 0002:00000134       __imp__LeaveCriticalSection@4 1001e134     kernel32:KERNEL32.dll
 0002:00000138       __imp__SetLastError@4      1001e138     kernel32:KERNEL32.dll
 0002:0000013c       __imp__EncodePointer@4     1001e13c     kernel32:KERNEL32.dll
 0002:00000140       __imp__DeleteCriticalSection@4 1001e140     kernel32:KERNEL32.dll
 0002:00000144       __imp__InitializeCriticalSectionEx@12 1001e144     kernel32:KERNEL32.dll
 0002:00000148       __imp__GetLastError@0      1001e148     kernel32:KERNEL32.dll
 0002:0000014c       __imp__RaiseException@16   1001e14c     kernel32:KERNEL32.dll
 0002:00000150       __imp__DecodePointer@4     1001e150     kernel32:KERNEL32.dll
 0002:00000154       __imp__WideCharToMultiByte@32 1001e154     kernel32:KERNEL32.dll
 0002:00000158       __imp__GetCommandLineW@0   1001e158     kernel32:KERNEL32.dll
 0002:0000015c       __imp__MultiByteToWideChar@24 1001e15c     kernel32:KERNEL32.dll
 0002:00000160       __imp__HeapSize@12         1001e160     kernel32:KERNEL32.dll
 0002:00000164       __imp__CreateFileW@28      1001e164     kernel32:KERNEL32.dll
 0002:00000168       __imp__GetModuleFileNameA@12 1001e168     kernel32:KERNEL32.dll
 0002:0000016c       __imp__GetModuleHandleExW@12 1001e16c     kernel32:KERNEL32.dll
 0002:00000170       __imp__ExitProcess@4       1001e170     kernel32:KERNEL32.dll
 0002:00000174       __imp__VirtualQuery@12     1001e174     kernel32:KERNEL32.dll
 0002:00000178       __imp__VirtualProtect@16   1001e178     kernel32:KERNEL32.dll
 0002:0000017c       __imp__GetSystemInfo@4     1001e17c     kernel32:KERNEL32.dll
 0002:00000180       __imp__TlsFree@4           1001e180     kernel32:KERNEL32.dll
 0002:00000184       __imp__TlsSetValue@8       1001e184     kernel32:KERNEL32.dll
 0002:00000188       __imp__TlsGetValue@4       1001e188     kernel32:KERNEL32.dll
 0002:0000018c       __imp__TlsAlloc@0          1001e18c     kernel32:KERNEL32.dll
 0002:00000190       __imp__InterlockedFlushSList@4 1001e190     kernel32:KERNEL32.dll
 0002:00000194       __imp__RtlUnwind@16        1001e194     kernel32:KERNEL32.dll
 0002:00000198       __imp__LoadLibraryExA@12   1001e198     kernel32:KERNEL32.dll
 0002:0000019c       __imp__VirtualFree@12      1001e19c     kernel32:KERNEL32.dll
 0002:000001a0       __imp__VirtualAlloc@16     1001e1a0     kernel32:KERNEL32.dll
 0002:000001a4       __imp__FlushInstructionCache@12 1001e1a4     kernel32:KERNEL32.dll
 0002:000001a8       __imp__InterlockedPushEntrySList@8 1001e1a8     kernel32:KERNEL32.dll
 0002:000001ac       __imp__InterlockedPopEntrySList@4 1001e1ac     kernel32:KERNEL32.dll
 0002:000001b0       __imp__GetProcessHeap@0    1001e1b0     kernel32:KERNEL32.dll
 0002:000001b4       __imp__HeapFree@12         1001e1b4     kernel32:KERNEL32.dll
 0002:000001b8       __imp__HeapAlloc@12        1001e1b8     kernel32:KERNEL32.dll
 0002:000001bc       __imp__OutputDebugStringW@4 1001e1bc     kernel32:KERNEL32.dll
 0002:000001c0       __imp__InitializeSListHead@4 1001e1c0     kernel32:KERNEL32.dll
 0002:000001c4       __imp__GetSystemTimeAsFileTime@4 1001e1c4     kernel32:KERNEL32.dll
 0002:000001c8       __imp__QueryPerformanceCounter@4 1001e1c8     kernel32:KERNEL32.dll
 0002:000001cc       __imp__GetStartupInfoW@4   1001e1cc     kernel32:KERNEL32.dll
 0002:000001d0       __imp__IsDebuggerPresent@0 1001e1d0     kernel32:KERNEL32.dll
 0002:000001d4       __imp__IsProcessorFeaturePresent@4 1001e1d4     kernel32:KERNEL32.dll
 0002:000001d8       __imp__TerminateProcess@8  1001e1d8     kernel32:KERNEL32.dll
 0002:000001dc       __imp__InitializeCriticalSectionAndSpinCount@8 1001e1dc     kernel32:KERNEL32.dll
 0002:000001e0       __imp__WaitForSingleObjectEx@12 1001e1e0     kernel32:KERNEL32.dll
 0002:000001e4       __imp__UnhandledExceptionFilter@4 1001e1e4     kernel32:KERNEL32.dll
 0002:000001e8       __imp__SetUnhandledExceptionFilter@4 1001e1e8     kernel32:KERNEL32.dll
 0002:000001ec       __imp__GetCurrentProcess@0 1001e1ec     kernel32:KERNEL32.dll
 0002:000001f0       \177KERNEL32_NULL_THUNK_DATA 1001e1f0     kernel32:KERNEL32.dll
 0002:000001f4       __imp__OleCreatePropertyFrame@44 1001e1f4     oleaut32:OLEAUT32.dll
 0002:000001f8       __imp__UnRegisterTypeLib@20 1001e1f8     oleaut32:OLEAUT32.dll
 0002:000001fc       __imp__RegisterTypeLib@12  1001e1fc     oleaut32:OLEAUT32.dll
 0002:00000200       __imp__LoadRegTypeLib@20   1001e200     oleaut32:OLEAUT32.dll
 0002:00000204       __imp__LoadTypeLib@8       1001e204     oleaut32:OLEAUT32.dll
 0002:00000208       __imp__VarUI4FromStr@16    1001e208     oleaut32:OLEAUT32.dll
 0002:0000020c       __imp__VariantInit@4       1001e20c     oleaut32:OLEAUT32.dll
 0002:00000210       __imp__SysAllocStringByteLen@8 1001e210     oleaut32:OLEAUT32.dll
 0002:00000214       __imp__SysStringByteLen@4  1001e214     oleaut32:OLEAUT32.dll
 0002:00000218       __imp__VariantChangeType@16 1001e218     oleaut32:OLEAUT32.dll
 0002:0000021c       __imp__VariantClear@4      1001e21c     oleaut32:OLEAUT32.dll
 0002:00000220       __imp__SysStringLen@4      1001e220     oleaut32:OLEAUT32.dll
 0002:00000224       __imp__SysFreeString@4     1001e224     oleaut32:OLEAUT32.dll
 0002:00000228       __imp__SysAllocStringLen@8 1001e228     oleaut32:OLEAUT32.dll
 0002:0000022c       __imp__SysAllocString@4    1001e22c     oleaut32:OLEAUT32.dll
 0002:00000230       \177OLEAUT32_NULL_THUNK_DATA 1001e230     oleaut32:OLEAUT32.dll
 0002:00000234       __imp__UnregisterClassW@8  1001e234     user32:USER32.dll
 0002:00000238       __imp__PostMessageW@16     1001e238     user32:USER32.dll
 0002:0000023c       __imp__DefWindowProcW@16   1001e23c     user32:USER32.dll
 0002:00000240       __imp__CallWindowProcW@20  1001e240     user32:USER32.dll
 0002:00000244       __imp__RegisterClassExW@4  1001e244     user32:USER32.dll
 0002:00000248       __imp__GetClassInfoExW@12  1001e248     user32:USER32.dll
 0002:0000024c       __imp__CreateWindowExW@48  1001e24c     user32:USER32.dll
 0002:00000250       __imp__IsWindow@4          1001e250     user32:USER32.dll
 0002:00000254       __imp__IsChild@8           1001e254     user32:USER32.dll
 0002:00000258       __imp__DestroyWindow@4     1001e258     user32:USER32.dll
 0002:0000025c       __imp__ShowWindow@8        1001e25c     user32:USER32.dll
 0002:00000260       __imp__SetWindowPos@28     1001e260     user32:USER32.dll
 0002:00000264       __imp__CharNextW@4         1001e264     user32:USER32.dll
 0002:00000268       __imp__SetFocus@4          1001e268     user32:USER32.dll
 0002:0000026c       __imp__LoadBitmapW@8       1001e26c     user32:USER32.dll
 0002:00000270       __imp__RegisterClassW@4    1001e270     user32:USER32.dll
 0002:00000274       __imp__PeekMessageW@20     1001e274     user32:USER32.dll
 0002:00000278       __imp__LoadCursorW@8       1001e278     user32:USER32.dll
 0002:0000027c       __imp__GetParent@4         1001e27c     user32:USER32.dll
 0002:00000280       __imp__SetWindowLongW@12   1001e280     user32:USER32.dll
 0002:00000284       __imp__GetWindowLongW@8    1001e284     user32:USER32.dll
 0002:00000288       __imp__PtInRect@12         1001e288     user32:USER32.dll
 0002:0000028c       __imp__EqualRect@8         1001e28c     user32:USER32.dll
 0002:00000290       __imp__OffsetRect@12       1001e290     user32:USER32.dll
 0002:00000294       __imp__UnionRect@12        1001e294     user32:USER32.dll
 0002:00000298       __imp__IntersectRect@12    1001e298     user32:USER32.dll
 0002:0000029c       __imp__GetClientRect@8     1001e29c     user32:USER32.dll
 0002:000002a0       __imp__InvalidateRect@12   1001e2a0     user32:USER32.dll
 0002:000002a4       __imp__SetWindowRgn@12     1001e2a4     user32:USER32.dll
 0002:000002a8       __imp__EndPaint@8          1001e2a8     user32:USER32.dll
 0002:000002ac       __imp__BeginPaint@8        1001e2ac     user32:USER32.dll
 0002:000002b0       __imp__ReleaseDC@8         1001e2b0     user32:USER32.dll
 0002:000002b4       __imp__GetDC@4             1001e2b4     user32:USER32.dll
 0002:000002b8       __imp__GetKeyState@4       1001e2b8     user32:USER32.dll
 0002:000002bc       __imp__GetFocus@0          1001e2bc     user32:USER32.dll
 0002:000002c0       \177USER32_NULL_THUNK_DATA 1001e2c0     user32:USER32.dll
 0002:000002c4       __imp__CoCreateInstance@20 1001e2c4     ole32:ole32.dll
 0002:000002c8       __imp__StringFromGUID2@12  1001e2c8     ole32:ole32.dll
 0002:000002cc       __imp__CoTaskMemRealloc@8  1001e2cc     ole32:ole32.dll
 0002:000002d0       __imp__CoTaskMemFree@4     1001e2d0     ole32:ole32.dll
 0002:000002d4       __imp__CreateDataAdviseHolder@4 1001e2d4     ole32:ole32.dll
 0002:000002d8       __imp__ReadClassStm@8      1001e2d8     ole32:ole32.dll
 0002:000002dc       __imp__WriteClassStm@8     1001e2dc     ole32:ole32.dll
 0002:000002e0       __imp__OleSaveToStream@8   1001e2e0     ole32:ole32.dll
 0002:000002e4       __imp__CreateOleAdviseHolder@4 1001e2e4     ole32:ole32.dll
 0002:000002e8       __imp__OleRegGetUserType@12 1001e2e8     ole32:ole32.dll
 0002:000002ec       __imp__OleRegGetMiscStatus@12 1001e2ec     ole32:ole32.dll
 0002:000002f0       __imp__OleRegEnumVerbs@8   1001e2f0     ole32:ole32.dll
 0002:000002f4       __imp__CLSIDFromProgID@8   1001e2f4     ole32:ole32.dll
 0002:000002f8       __imp__CoTaskMemAlloc@4    1001e2f8     ole32:ole32.dll
 0002:000002fc       \177ole32_NULL_THUNK_DATA  1001e2fc     ole32:ole32.dll
 0002:00000300       ___guard_check_icall_fptr  1001e300     LIBCMT:guard_support.obj
 0002:00000304       ___xc_a                    1001e304     LIBCMT:initializers.obj
 0002:0000031c       ___xc_z                    1001e31c     LIBCMT:initializers.obj
 0002:00000320       ___xi_a                    1001e320     LIBCMT:initializers.obj
 0002:00000328       ___acrt_stdio_initializer  1001e328     libucrt:stdio_initializer.obj
 0002:0000032c       ___acrt_multibyte_initializer 1001e32c     libucrt:multibyte_initializer.obj
 0002:00000330       ___acrt_tran_sse2_initializer 1001e330     libucrt:sse2_initializer.obj
 0002:00000334       ___xi_z                    1001e334     LIBCMT:initializers.obj
 0002:00000338       ___xl_a                    1001e338     LIBCMT:tlssup.obj
 0002:0000033c       ___xl_z                    1001e33c     LIBCMT:tlssup.obj
 0002:00000340       ___xp_a                    1001e340     LIBCMT:initializers.obj
 0002:00000344       ___acrt_locale_terminator  1001e344     libucrt:locale_initializer.obj
 0002:00000348       ___dcrt_console_output_terminator 1001e348     libucrt:console_output_initializer.obj
 0002:0000034c       ___acrt_stdio_terminator   1001e34c     libucrt:stdio_initializer.obj
 0002:00000350       ___xp_z                    1001e350     LIBCMT:initializers.obj
 0002:00000354       ___xt_a                    1001e354     LIBCMT:initializers.obj
 0002:00000358       ___xt_z                    1001e358     LIBCMT:initializers.obj
 0002:00000360       ??_C@_13HADIAKP@?$AAS@     1001e360     OposVariant.obj
 0002:00000364       ??_C@_13LHMFKAAD@?$AAM@    1001e364     OposVariant.obj
 0002:00000368       ??_C@_13MKMNOPIJ@?$AAD@    1001e368     OposVariant.obj
 0002:0000036c       ??_C@_13OPKGLAFF@?$AAB@    1001e36c     OposVariant.obj
 0002:00000370       ??_C@_17LLMMEOJD@?$AAV?$AAa?$AAl@ 1001e370     OposVariant.obj
 0002:00000378       ??_C@_1BI@JFAIJMHL@?$AAF?$AAo?$AAr?$AAc?$AAe?$AAR?$AAe?$AAm?$AAo?$AAv?$AAe@ 1001e378     OposVariant.obj
 0002:00000390       ??_C@_1BC@GCKHIPE@?$AAN?$AAo?$AAR?$AAe?$AAm?$AAo?$AAv?$AAe@ 1001e390     OposVariant.obj
 0002:000003a4       ??_C@_1O@JDLOHAN@?$AAD?$AAe?$AAl?$AAe?$AAt?$AAe@ 1001e3a4     OposVariant.obj
 0002:000003b4       ??_C@_11LOCGONAA@@         1001e3b4     OposVariant.obj
 0002:000003b8       __GUID_b196b284_bab4_101a_b69c_00aa00341d07 1001e3b8     ImageScanner.obj
 0002:000003c8       __GUID_00000113_0000_0000_c000_000000000046 1001e3c8     ImageScanner.obj
 0002:000003d8       __GUID_1c2056cc_5ef4_101b_8bc8_00aa003e3b29 1001e3d8     ImageScanner.obj
 0002:000003e8       __GUID_00000112_0000_0000_c000_000000000046 1001e3e8     ImageScanner.obj
 0002:000003f8       ??_7?$CComObjectCached@VCComClassFactory@ATL@@@ATL@@6B@ 1001e3f8     ImageScanner.obj
 0002:00000410       __GUID_3af24292_0c96_11ce_a0cf_00aa00600ab8 1001e410     ImageScanner.obj
 0002:00000420       __GUID_00000127_0000_0000_c000_000000000046 1001e420     ImageScanner.obj
 0002:00000430       __GUID_0000010d_0000_0000_c000_000000000046 1001e430     ImageScanner.obj
 0002:00000440       ??_C@_1M@PPPPCDEP@?$AAA?$AAP?$AAP?$AAI?$AAD@ 1001e440     ImageScanner.obj
 0002:0000044c       ??_7?$CComContainedObject@VCOPOSImageScanner@@@ATL@@6B?$IDispatchImpl@UIOPOSImageScanner@@$1?IID_IOPOSImageScanner@@3U_GUID@@B$1?LIBID_OposImageScanner_CCO@@3U3@B$00$0A@VCComTypeInfoHolder@ATL@@@1@@ 1001e44c     ImageScanner.obj
 0002:000005a0       ??_7?$CComContainedObject@VCOPOSImageScanner@@@ATL@@6BCComControlBase@1@@ 1001e5a0     ImageScanner.obj
 0002:000005b4       ??_7?$CComContainedObject@VCOPOSImageScanner@@@ATL@@6B?$CWindowImpl@VCOPOSImageScanner@@VCWindow@ATL@@V?$CWinTraits@$0FGAAAAAA@$0A@@3@@1@@ 1001e5b4     ImageScanner.obj
 0002:000005c4       ??_7?$CComContainedObject@VCOPOSImageScanner@@@ATL@@6B?$IPersistStreamInitImpl@VCOPOSImageScanner@@@1@@ 1001e5c4     ImageScanner.obj
 0002:000005e8       ??_7?$CComContainedObject@VCOPOSImageScanner@@@ATL@@6B?$IOleControlImpl@VCOPOSImageScanner@@@1@@ 1001e5e8     ImageScanner.obj
 0002:00000604       ??_7?$CComContainedObject@VCOPOSImageScanner@@@ATL@@6B?$IOleObjectImpl@VCOPOSImageScanner@@@1@@ 1001e604     ImageScanner.obj
 0002:00000664       ??_7?$CComContainedObject@VCOPOSImageScanner@@@ATL@@6B?$IOleInPlaceActiveObjectImpl@VCOPOSImageScanner@@@1@@ 1001e664     ImageScanner.obj
 0002:0000068c       ??_7?$CComContainedObject@VCOPOSImageScanner@@@ATL@@6B?$IViewObjectExImpl@VCOPOSImageScanner@@@1@@ 1001e68c     ImageScanner.obj
 0002:000006c8       ??_7?$CComContainedObject@VCOPOSImageScanner@@@ATL@@6B?$IOleInPlaceObjectWindowlessImpl@VCOPOSImageScanner@@@1@@ 1001e6c8     ImageScanner.obj
 0002:000006f4       ??_7?$CComContainedObject@VCOPOSImageScanner@@@ATL@@6B?$IConnectionPointContainerImpl@VCOPOSImageScanner@@@1@@ 1001e6f4     ImageScanner.obj
 0002:00000708       ??_7?$CComContainedObject@VCOPOSImageScanner@@@ATL@@6B?$IPersistStorageImpl@VCOPOSImageScanner@@@1@@ 1001e708     ImageScanner.obj
 0002:00000730       ??_7?$CComContainedObject@VCOPOSImageScanner@@@ATL@@6B?$ISpecifyPropertyPagesImpl@VCOPOSImageScanner@@@1@@ 1001e730     ImageScanner.obj
 0002:00000740       ??_7?$CComContainedObject@VCOPOSImageScanner@@@ATL@@6B?$IQuickActivateImpl@VCOPOSImageScanner@@@1@@ 1001e740     ImageScanner.obj
 0002:00000758       ??_7?$CComContainedObject@VCOPOSImageScanner@@@ATL@@6B?$IDataObjectImpl@VCOPOSImageScanner@@@1@@ 1001e758     ImageScanner.obj
 0002:00000788       ??_7?$CComContainedObject@VCOPOSImageScanner@@@ATL@@6B?$IProvideClassInfo2Impl@$1?CLSID_OPOSImageScanner@@3U_GUID@@B$1?DIID__IOPOSImageScannerEvents@@3U2@B$1?LIBID_OposImageScanner_CCO@@3U2@B$00$0A@VCComTypeInfoHolder@ATL@@@1@@ 1001e788     ImageScanner.obj
 0002:0000079c       ??_7?$CComContainedObject@VCOPOSImageScanner@@@ATL@@6B?$IObjectSafetyImpl@VCOPOSImageScanner@@$02@1@@ 1001e79c     ImageScanner.obj
 0002:000007b4       ??_7?$CComContainedObject@VCOPOSImageScanner@@@ATL@@6B?$IPropertyNotifySinkCP@VCOPOSImageScanner@@VCComDynamicUnkArray@ATL@@@1@@ 1001e7b4     ImageScanner.obj
 0002:000007d4       ??_7?$CComContainedObject@VCOPOSImageScanner@@@ATL@@6B?$CProxy_IOPOSEvents@VCOPOSImageScanner@@@@@ 1001e7d4     ImageScanner.obj
 0002:000007f4       ??_7?$CComAggObject@VCOPOSImageScanner@@@ATL@@6B@ 1001e7f4     ImageScanner.obj
 0002:00000804       ??_7?$CComObject@VCOPOSImageScanner@@@ATL@@6B?$IDispatchImpl@UIOPOSImageScanner@@$1?IID_IOPOSImageScanner@@3U_GUID@@B$1?LIBID_OposImageScanner_CCO@@3U3@B$00$0A@VCComTypeInfoHolder@ATL@@@1@@ 1001e804     ImageScanner.obj
 0002:00000958       ??_7?$CComObject@VCOPOSImageScanner@@@ATL@@6BCComControlBase@1@@ 1001e958     ImageScanner.obj
 0002:0000096c       ??_7?$CComObject@VCOPOSImageScanner@@@ATL@@6B?$CWindowImpl@VCOPOSImageScanner@@VCWindow@ATL@@V?$CWinTraits@$0FGAAAAAA@$0A@@3@@1@@ 1001e96c     ImageScanner.obj
 0002:0000097c       ??_7?$CComObject@VCOPOSImageScanner@@@ATL@@6B?$IPersistStreamInitImpl@VCOPOSImageScanner@@@1@@ 1001e97c     ImageScanner.obj
 0002:000009a0       ??_7?$CComObject@VCOPOSImageScanner@@@ATL@@6B?$IOleControlImpl@VCOPOSImageScanner@@@1@@ 1001e9a0     ImageScanner.obj
 0002:000009bc       ??_7?$CComObject@VCOPOSImageScanner@@@ATL@@6B?$IOleObjectImpl@VCOPOSImageScanner@@@1@@ 1001e9bc     ImageScanner.obj
 0002:00000a1c       ??_7?$CComObject@VCOPOSImageScanner@@@ATL@@6B?$IOleInPlaceActiveObjectImpl@VCOPOSImageScanner@@@1@@ 1001ea1c     ImageScanner.obj
 0002:00000a44       ??_7?$CComObject@VCOPOSImageScanner@@@ATL@@6B?$IViewObjectExImpl@VCOPOSImageScanner@@@1@@ 1001ea44     ImageScanner.obj
 0002:00000a80       ??_7?$CComObject@VCOPOSImageScanner@@@ATL@@6B?$IOleInPlaceObjectWindowlessImpl@VCOPOSImageScanner@@@1@@ 1001ea80     ImageScanner.obj
 0002:00000aac       ??_7?$CComObject@VCOPOSImageScanner@@@ATL@@6B?$IConnectionPointContainerImpl@VCOPOSImageScanner@@@1@@ 1001eaac     ImageScanner.obj
 0002:00000ac0       ??_7?$CComObject@VCOPOSImageScanner@@@ATL@@6B?$IPersistStorageImpl@VCOPOSImageScanner@@@1@@ 1001eac0     ImageScanner.obj
 0002:00000ae8       ??_7?$CComObject@VCOPOSImageScanner@@@ATL@@6B?$ISpecifyPropertyPagesImpl@VCOPOSImageScanner@@@1@@ 1001eae8     ImageScanner.obj
 0002:00000af8       ??_7?$CComObject@VCOPOSImageScanner@@@ATL@@6B?$IQuickActivateImpl@VCOPOSImageScanner@@@1@@ 1001eaf8     ImageScanner.obj
 0002:00000b10       ??_7?$CComObject@VCOPOSImageScanner@@@ATL@@6B?$IDataObjectImpl@VCOPOSImageScanner@@@1@@ 1001eb10     ImageScanner.obj
 0002:00000b40       ??_7?$CComObject@VCOPOSImageScanner@@@ATL@@6B?$IProvideClassInfo2Impl@$1?CLSID_OPOSImageScanner@@3U_GUID@@B$1?DIID__IOPOSImageScannerEvents@@3U2@B$1?LIBID_OposImageScanner_CCO@@3U2@B$00$0A@VCComTypeInfoHolder@ATL@@@1@@ 1001eb40     ImageScanner.obj
 0002:00000b54       ??_7?$CComObject@VCOPOSImageScanner@@@ATL@@6B?$IObjectSafetyImpl@VCOPOSImageScanner@@$02@1@@ 1001eb54     ImageScanner.obj
 0002:00000b6c       ??_7?$CComObject@VCOPOSImageScanner@@@ATL@@6B?$IPropertyNotifySinkCP@VCOPOSImageScanner@@VCComDynamicUnkArray@ATL@@@1@@ 1001eb6c     ImageScanner.obj
 0002:00000b8c       ??_7?$CComObject@VCOPOSImageScanner@@@ATL@@6B?$CProxy_IOPOSEvents@VCOPOSImageScanner@@@@@ 1001eb8c     ImageScanner.obj
 0002:00000bac       ??_C@_1O@GBFKGNEO@?$AAA?$AAT?$AAL?$AA?3?$AA?$CF?$AAp@ 1001ebac     ImageScanner.obj
 0002:00000bbc       ??_C@_1BA@PICGEGJB@?$AAD?$AAI?$AAS?$AAP?$AAL?$AAA?$AAY@ 1001ebbc     ImageScanner.obj
 0002:00000bcc       __GUID_9bfbbc02_eff1_101a_84ed_00aa00341d07 1001ebcc     ImageScanner.obj
 0002:00000bdc       ??_7CComClassFactory@ATL@@6B@ 1001ebdc     ImageScanner.obj
 0002:00000bf4       ?_entries@?1??_GetEntries@CComClassFactory@ATL@@SGPBU_ATL_INTMAP_ENTRY@3@XZ@4QBU43@B 1001ebf4     ImageScanner.obj
 0002:00000c0c       __GUID_00000001_0000_0000_c000_000000000046 1001ec0c     ImageScanner.obj
 0002:00000c1c       ?_entries@?1??_GetEntries@?$CComEnum@UIEnumConnectionPoints@@$1?_GUID_b196b285_bab4_101a_b69c_00aa00341d07@@3U__s_GUID@@BPAUIConnectionPoint@@V?$_CopyInterface@UIConnectionPoint@@@ATL@@VCComSingleThreadModel@6@@ATL@@SGPBU_ATL_INTMAP_ENTRY@3@XZ@4QBU43@B 1001ec1c     ImageScanner.obj
 0002:00000c34       __GUID_00020412_0000_0000_c000_000000000046 1001ec34     ImageScanner.obj
 0002:00000c44       __GUID_00020401_0000_0000_c000_000000000046 1001ec44     ImageScanner.obj
 0002:00000c54       ??_7?$CComObject@V?$CComEnum@UIEnumConnections@@$1?_GUID_b196b287_bab4_101a_b69c_00aa00341d07@@3U__s_GUID@@BUtagCONNECTDATA@@V?$_Copy@UtagCONNECTDATA@@@ATL@@VCComSingleThreadModel@6@@ATL@@@ATL@@6B@ 1001ec54     ImageScanner.obj
 0002:00000c74       __GUID_55980ba0_35aa_11cf_b671_00aa004cd6d8 1001ec74     ImageScanner.obj
 0002:00000c84       __GUID_b196b28b_bab4_101a_b69c_00aa00341d07 1001ec84     ImageScanner.obj
 0002:00000c94       ??_C@_1BK@BIGILECK@?$AAA?$AAd?$AAv?$AAa?$AAp?$AAi?$AA3?$AA2?$AA?4?$AAd?$AAl?$AAl@ 1001ec94     ImageScanner.obj
 0002:00000cb0       ??_C@_0BI@MNCFCPFK@RegCreateKeyTransactedW@ 1001ecb0     ImageScanner.obj
 0002:00000cc8       __GUID_b196b287_bab4_101a_b69c_00aa00341d07 1001ecc8     ImageScanner.obj
 0002:00000cd8       __GUID_b196b285_bab4_101a_b69c_00aa00341d07 1001ecd8     ImageScanner.obj
 0002:00000ce8       ?_entries@?1??_GetEntries@?$CComEnum@UIEnumConnections@@$1?_GUID_b196b287_bab4_101a_b69c_00aa00341d07@@3U__s_GUID@@BUtagCONNECTDATA@@V?$_Copy@UtagCONNECTDATA@@@ATL@@VCComSingleThreadModel@6@@ATL@@SGPBU_ATL_INTMAP_ENTRY@3@XZ@4QBU43@B 1001ece8     ImageScanner.obj
 0002:00000d00       __GUID_a6bc3ac0_dbaa_11ce_9de3_00aa004bb851 1001ed00     ImageScanner.obj
 0002:00000d10       __GUID_0000010c_0000_0000_c000_000000000046 1001ed10     ImageScanner.obj
 0002:00000d20       __GUID_00000146_0000_0000_c000_000000000046 1001ed20     ImageScanner.obj
 0002:00000d30       ??_7CComModule@ATL@@6B@    1001ed30     ImageScanner.obj
 0002:00000d58       _IID_IOPOSImageScanner_1_11 1001ed58     ImageScanner.obj
 0002:00000d68       _IID_IOPOSImageScanner     1001ed68     ImageScanner.obj
 0002:00000d78       _LIBID_OposImageScanner_CCO 1001ed78     ImageScanner.obj
 0002:00000d88       _DIID__IOPOSImageScannerEvents 1001ed88     ImageScanner.obj
 0002:00000d98       _CLSID_OPOSImageScanner    1001ed98     ImageScanner.obj
 0002:00000da8       __GUID_00000000_0000_0000_c000_000000000046 1001eda8     ImageScanner.obj
 0002:00000db8       __GUID_00020400_0000_0000_c000_000000000046 1001edb8     ImageScanner.obj
 0002:00000dc8       __GUID_00000114_0000_0000_c000_000000000046 1001edc8     ImageScanner.obj
 0002:00000dd8       ??_C@_1M@KANJNLFF@?$AAC?$AAL?$AAS?$AAI?$AAD@ 1001edd8     ImageScanner.obj
 0002:00000de4       ??_C@_1M@EJNEECMJ@?$AAA?$AAp?$AAp?$AAI?$AAD@ 1001ede4     ImageScanner.obj
 0002:00000df0       ?rgszNeverDelete@CRegParser@ATL@@1QBQB_WB 1001edf0     ImageScanner.obj
 0002:00000e20       ??_7CRegObject@ATL@@6B@    1001ee20     ImageScanner.obj
 0002:00000e38       ??_C@_1CK@OEKPKBNA@?$AAC?$AAo?$AAm?$AAp?$AAo?$AAn?$AAe?$AAn?$AAt?$AA?5?$AAC?$AAa?$AAt?$AAe?$AAg@ 1001ee38     ImageScanner.obj
 0002:00000e64       ??_C@_1BC@NKMMNMGL@?$AAF?$AAi?$AAl?$AAe?$AAT?$AAy?$AAp?$AAe@ 1001ee64     ImageScanner.obj
 0002:00000e78       ??_C@_1BE@EKPAFMCP@?$AAI?$AAn?$AAt?$AAe?$AAr?$AAf?$AAa?$AAc?$AAe@ 1001ee78     ImageScanner.obj
 0002:00000e8c       ??_C@_1BC@MAICEHGI@?$AAH?$AAa?$AAr?$AAd?$AAw?$AAa?$AAr?$AAe@ 1001ee8c     ImageScanner.obj
 0002:00000ea0       ??_C@_19HLLLM@?$AAM?$AAi?$AAm?$AAe@ 1001eea0     ImageScanner.obj
 0002:00000eac       ??_C@_17OMAOINJK@?$AAS?$AAA?$AAM@ 1001eeac     ImageScanner.obj
 0002:00000eb4       ??_C@_1BC@IBECJAAI@?$AAS?$AAE?$AAC?$AAU?$AAR?$AAI?$AAT?$AAY@ 1001eeb4     ImageScanner.obj
 0002:00000ec8       ??_C@_1O@GBFINDKL@?$AAS?$AAY?$AAS?$AAT?$AAE?$AAM@ 1001eec8     ImageScanner.obj
 0002:00000ed8       ??_C@_1BC@EAHCMADO@?$AAS?$AAo?$AAf?$AAt?$AAw?$AAa?$AAr?$AAe@ 1001eed8     ImageScanner.obj
 0002:00000eec       ??_C@_1BA@JIHHIEDE@?$AAT?$AAy?$AAp?$AAe?$AAL?$AAi?$AAb@ 1001eeec     ImageScanner.obj
 0002:00000f00       ?_entries@?1??_GetEntries@COPOSImageScanner@@SGPBU_ATL_INTMAP_ENTRY@ATL@@XZ@4QBU34@B 1001ef00     ImageScanner.obj
 0002:00001020       ?map@?1??HKeyFromString@CRegParser@ATL@@KAPAUHKEY__@@PA_W@Z@4QBUkeymap@?1??123@KAPAU4@0@Z@B 1001f020     ImageScanner.obj
 0002:00001090       ??_C@_19NCHLBIN@?$AAH?$AAK?$AAC?$AAR@ 1001f090     ImageScanner.obj
 0002:0000109c       ??_C@_19JAPAIJDE@?$AAH?$AAK?$AAC?$AAU@ 1001f09c     ImageScanner.obj
 0002:000010a8       ??_C@_19PEALEEJB@?$AAH?$AAK?$AAL?$AAM@ 1001f0a8     ImageScanner.obj
 0002:000010b4       ??_C@_17PJOJPMPB@?$AAH?$AAK?$AAU@ 1001f0b4     ImageScanner.obj
 0002:000010bc       ??_C@_19PNBHMJPL@?$AAH?$AAK?$AAP?$AAD@ 1001f0bc     ImageScanner.obj
 0002:000010c8       ??_C@_19GFFAIJHG@?$AAH?$AAK?$AAD?$AAD@ 1001f0c8     ImageScanner.obj
 0002:000010d4       ??_C@_19OFICIBHH@?$AAH?$AAK?$AAC?$AAC@ 1001f0d4     ImageScanner.obj
 0002:000010e0       ??_C@_1CE@PACHPJFI@?$AAH?$AAK?$AAE?$AAY?$AA_?$AAC?$AAL?$AAA?$AAS?$AAS?$AAE?$AAS?$AA_?$AAR?$AAO@ 1001f0e0     ImageScanner.obj
 0002:00001104       ??_C@_1CE@HLHNCBPM@?$AAH?$AAK?$AAE?$AAY?$AA_?$AAC?$AAU?$AAR?$AAR?$AAE?$AAN?$AAT?$AA_?$AAU?$AAS@ 1001f104     ImageScanner.obj
 0002:00001128       ??_C@_1CG@GFBEANJL@?$AAH?$AAK?$AAE?$AAY?$AA_?$AAL?$AAO?$AAC?$AAA?$AAL?$AA_?$AAM?$AAA?$AAC?$AAH@ 1001f128     ImageScanner.obj
 0002:00001150       ??_C@_1BG@BGODANIO@?$AAH?$AAK?$AAE?$AAY?$AA_?$AAU?$AAS?$AAE?$AAR?$AAS@ 1001f150     ImageScanner.obj
 0002:00001168       ??_C@_1CM@KHNNAOIC@?$AAH?$AAK?$AAE?$AAY?$AA_?$AAP?$AAE?$AAR?$AAF?$AAO?$AAR?$AAM?$AAA?$AAN?$AAC@ 1001f168     ImageScanner.obj
 0002:00001194       ??_C@_1BM@HAGMMHIA@?$AAH?$AAK?$AAE?$AAY?$AA_?$AAD?$AAY?$AAN?$AA_?$AAD?$AAA?$AAT?$AAA@ 1001f194     ImageScanner.obj
 0002:000011b0       ??_C@_1CI@BBJOACGG@?$AAH?$AAK?$AAE?$AAY?$AA_?$AAC?$AAU?$AAR?$AAR?$AAE?$AAN?$AAT?$AA_?$AAC?$AAO@ 1001f1b0     ImageScanner.obj
 0002:000011d8       __GUID_cf51ed10_62fe_11cf_bf86_00a0c9034836 1001f1d8     ImageScanner.obj
 0002:000011e8       __GUID_0000010a_0000_0000_c000_000000000046 1001f1e8     ImageScanner.obj
 0002:000011f8       __GUID_b196b283_bab4_101a_b69c_00aa00341d07 1001f1f8     ImageScanner.obj
 0002:00001208       __GUID_cb5bdc81_93c1_11cf_8f20_00805f2cd064 1001f208     ImageScanner.obj
 0002:00001218       ?pPropMap@?1??GetPropertyMap@COPOSImageScanner@@SAPBUATL_PROPMAP_ENTRY@ATL@@XZ@4QBU34@B 1001f218     ImageScanner.obj
 0002:00001284       ??_C@_17DGDADEHL@?$AA_?$AAc?$AAx@ 1001f284     ImageScanner.obj
 0002:0000128c       ??_C@_17IOIMFDBO@?$AA_?$AAc?$AAy@ 1001f28c     ImageScanner.obj
 0002:00001294       __GUID_00000109_0000_0000_c000_000000000046 1001f294     ImageScanner.obj
 0002:000012a4       __GUID_7fd52380_4e07_101b_ae2d_08002b2ec713 1001f2a4     ImageScanner.obj
 0002:000012b4       __GUID_922eada0_3424_11cf_b670_00aa004cd6d8 1001f2b4     ImageScanner.obj
 0002:000012c4       __GUID_9c2cad80_3424_11cf_b670_00aa004cd6d8 1001f2c4     ImageScanner.obj
 0002:000012d4       __GUID_00000119_0000_0000_c000_000000000046 1001f2d4     ImageScanner.obj
 0002:000012e4       __GUID_b196b289_bab4_101a_b69c_00aa00341d07 1001f2e4     ImageScanner.obj
 0002:000012f4       __GUID_b196b286_bab4_101a_b69c_00aa00341d07 1001f2f4     ImageScanner.obj
 0002:00001308       ??_C@_1EA@NHKLICFA@?$AAH?$AAK?$AAC?$AAU?$AA?$AN?$AA?6?$AA?$HL?$AA?7?$AAS?$AAo?$AAf?$AAt?$AAw?$AAa?$AAr@ 1001f308     ImageScanner.obj
 0002:00001348       ??_C@_1BE@LJOLIMEM@?$AA?$AN?$AA?6?$AA?7?$AA?$HN?$AA?$AN?$AA?6?$AA?$HN?$AA?$AN?$AA?6@ 1001f348     ImageScanner.obj
 0002:0000135c       ??_C@_1CE@PGFMOFKI@?$AAS?$AAt?$AAa?$AAt?$AAu?$AAs?$AAU?$AAp?$AAd?$AAa?$AAt?$AAe?$AAE?$AAv?$AAe@ 1001f35c     ImageScanner.obj
 0002:00001380       ??_C@_1BG@LODEBHDD@?$AAE?$AAr?$AAr?$AAo?$AAr?$AAE?$AAv?$AAe?$AAn?$AAt@ 1001f380     ImageScanner.obj
 0002:00001398       ??_C@_1BM@CBGEBBBJ@?$AAD?$AAi?$AAr?$AAe?$AAc?$AAt?$AAI?$AAO?$AAE?$AAv?$AAe?$AAn?$AAt@ 1001f398     ImageScanner.obj
 0002:000013b4       ??_C@_1BE@IEBMACEM@?$AAD?$AAa?$AAt?$AAa?$AAE?$AAv?$AAe?$AAn?$AAt@ 1001f3b4     ImageScanner.obj
 0002:000013c8       __GUID_00000117_0000_0000_c000_000000000046 1001f3c8     ImageScanner.obj
 0002:000013d8       ??_C@_1O@MNLDABAF@?$AAM?$AAo?$AAd?$AAu?$AAl?$AAe@ 1001f3d8     ImageScanner.obj
 0002:000013e8       ??_C@_1BG@JBACFMF@?$AAM?$AAo?$AAd?$AAu?$AAl?$AAe?$AA_?$AAR?$AAa?$AAw@ 1001f3e8     ImageScanner.obj
 0002:00001400       ??_C@_1BC@KAILKFFG@?$AAR?$AAE?$AAG?$AAI?$AAS?$AAT?$AAR?$AAY@ 1001f400     ImageScanner.obj
 0002:00001414       ??_C@_1BC@ENICKDH@?$AAC?$AAo?$AAn?$AAt?$AAe?$AAn?$AAt?$AAs@ 1001f414     ImageScanner.obj
 0002:00001428       ??_7?$CComObject@V?$CComEnum@UIEnumConnectionPoints@@$1?_GUID_b196b285_bab4_101a_b69c_00aa00341d07@@3U__s_GUID@@BPAUIConnectionPoint@@V?$_CopyInterface@UIConnectionPoint@@@ATL@@VCComSingleThreadModel@6@@ATL@@@ATL@@6B@ 1001f428     ImageScanner.obj
 0002:00001448       __GUID_0000010e_0000_0000_c000_000000000046 1001f448     ImageScanner.obj
 0002:00001458       __GUID_b196b288_bab4_101a_b69c_00aa00341d07 1001f458     ImageScanner.obj
 0002:00001468       ??_C@_0BG@EKFFMJIO@RegOpenKeyTransactedW@ 1001f468     ImageScanner.obj
 0002:00001480       ??_C@_0BI@HAKLOOGP@RegDeleteKeyTransactedW@ 1001f480     ImageScanner.obj
 0002:00001498       ??_C@_0BA@LILAPHGE@RegDeleteKeyExW@ 1001f498     ImageScanner.obj
 0002:000014a8       ??_C@_19ILOCMLCJ@?$AA?4?$AAt?$AAl?$AAb@ 1001f4a8     ImageScanner.obj
 0002:000014b4       __GUID_0002e012_0000_0000_c000_000000000046 1001f4b4     ImageScanner.obj
 0002:000014c4       ??_C@_1O@FHBGLCIO@?$AAC?$AAL?$AAS?$AAI?$AAD?$AA?2@ 1001f4c4     ImageScanner.obj
 0002:000014d4       ??_C@_1CK@IFBKBFAA@?$AA?2?$AAR?$AAe?$AAq?$AAu?$AAi?$AAr?$AAe?$AAd?$AA?5?$AAC?$AAa?$AAt?$AAe?$AAg@ 1001f4d4     ImageScanner.obj
 0002:00001500       ??_C@_1DA@BIHALFED@?$AA?2?$AAI?$AAm?$AAp?$AAl?$AAe?$AAm?$AAe?$AAn?$AAt?$AAe?$AAd?$AA?5?$AAC?$AAa@ 1001f500     ImageScanner.obj
 0002:00001530       ??_C@_1BK@EDKOLFBJ@?$AAO?$AAL?$AAE?$AAA?$AAU?$AAT?$AA3?$AA2?$AA?4?$AAD?$AAL?$AAL@ 1001f530     ImageScanner.obj
 0002:0000154c       ??_C@_0BJ@CNLFOMHB@UnRegisterTypeLibForUser@ 1001f54c     ImageScanner.obj
 0002:00001568       ??_C@_0BH@LBOMMKPJ@RegisterTypeLibForUser@ 1001f568     ImageScanner.obj
 0002:00001580       ??_C@_0P@MMNMMLGK@COFreezeEvents@ 1001f580     ImageScannerImpl.obj
 0002:00001590       ??_C@_0BC@OGCGGIMP@GetPropertyNumber@ 1001f590     ImageScannerImpl.obj
 0002:000015a4       ??_C@_0BC@MDCNODNB@SetPropertyNumber@ 1001f5a4     ImageScannerImpl.obj
 0002:000015b8       ??_C@_0BC@CFCCMIMD@GetPropertyString@ 1001f5b8     ImageScannerImpl.obj
 0002:000015cc       ??_C@_0BC@CJEDNN@SetPropertyString@ 1001f5cc     ImageScannerImpl.obj
 0002:000015e0       ??_C@_0M@LNPKKKDA@OpenService@ 1001f5e0     ImageScannerImpl.obj
 0002:000015ec       ??_C@_0M@PCMCHHMH@CheckHealth@ 1001f5ec     ImageScannerImpl.obj
 0002:000015f8       ??_C@_0M@JGMIDNEK@ClaimDevice@ 1001f5f8     ImageScannerImpl.obj
 0002:00001604       ??_C@_0L@BNEIFEJC@ClearInput@ 1001f604     ImageScannerImpl.obj
 0002:00001610       ??_C@_0N@DDFIIBMP@CloseService@ 1001f610     ImageScannerImpl.obj
 0002:00001620       ??_C@_08EEIHICPC@DirectIO@ 1001f620     ImageScannerImpl.obj
 0002:0000162c       ??_C@_0O@BCPMENMJ@ReleaseDevice@ 1001f62c     ImageScannerImpl.obj
 0002:0000163c       ??_C@_0BA@GFABKEEE@ResetStatistics@ 1001f63c     ImageScannerImpl.obj
 0002:0000164c       ??_C@_0BD@DPALHJGC@RetrieveStatistics@ 1001f64c     ImageScannerImpl.obj
 0002:00001660       ??_C@_0BB@KOHIKNFC@UpdateStatistics@ 1001f660     ImageScannerImpl.obj
 0002:00001674       ??_C@_0BH@PBKBNMGB@CompareFirmwareVersion@ 1001f674     ImageScannerImpl.obj
 0002:0000168c       ??_C@_0P@FBPDPIPA@UpdateFirmware@ 1001f68c     ImageScannerImpl.obj
 0002:0000169c       ??_C@_0BF@CMAPCJGM@ClearInputProperties@ 1001f69c     ImageScannerImpl.obj
 0002:000016b4       ??_C@_0N@GCBGNGGH@StartSession@ 1001f6b4     ImageScannerImpl.obj
 0002:000016c4       ??_C@_0M@JOEDAMJP@StopSession@ 1001f6c4     ImageScannerImpl.obj
 0002:000016d0       ??_7?$CProxy_IOPOSEvents@VCOPOSImageScanner@@@@6B@ 1001f6d0     ImageScannerImpl.obj
 0002:000016f0       ??_C@_1BA@IFHENID@?$AA?$FL?$AAE?$AAr?$AAr?$AAo?$AAr?$AA?$FN@ 1001f6f0     ImageScannerImpl.obj
 0002:00001700       ??_C@_0CP@HACMBLAI@SOFTWARE?2OLEforRetail?2ServiceOP@ 1001f700     ImageScannerImpl.obj
 0002:00001730       ??_C@_1M@IAIJHCCH@?$AAC?$AAl?$AAo?$AAs?$AAe@ 1001f730     ImageScannerImpl.obj
 0002:0000173c       ??_C@_1M@PCPKGJAH@?$AAC?$AAl?$AAa?$AAi?$AAm@ 1001f73c     ImageScannerImpl.obj
 0002:00001748       ??_C@_1BA@NDFKIOCP@?$AAR?$AAe?$AAl?$AAe?$AAa?$AAs?$AAe@ 1001f748     ImageScannerImpl.obj
 0002:00001758       ??_C@_0N@MEEKPIMD@ImageScanner@ 1001f758     ImageScannerImpl.obj
 0002:00001768       ??_C@_1BM@IJMNMBPK@?$AAG?$AAe?$AAt?$AAO?$AAp?$AAe?$AAn?$AAR?$AAe?$AAs?$AAu?$AAl?$AAt@ 1001f768     ImageScannerImpl.obj
 0002:00001784       _IID_IPropertyNotifySink   1001f784     uuid:ocidl_i.obj
 0002:00001794       _IID_IDispatch             1001f794     uuid:oaidl_i.obj
 0002:000017a4       _GUID_NULL                 1001f7a4     uuid:cguid_i.obj
 0002:000017b4       _CLSID_StdGlobalInterfaceTable 1001f7b4     uuid:cguid_i.obj
 0002:000017c4       _CLSID_StdComponentCategoriesMgr 1001f7c4     uuid:ieguids.obj
 0002:000017d4       _IID_IUnknown              1001f7d4     uuid:unknwn_i.obj
 0002:000017e8       ??_C@_1EC@JIJBPKFM@?$AAa?$AAp?$AAi?$AA?9?$AAm?$AAs?$AA?9?$AAw?$AAi?$AAn?$AA?9?$AAc?$AAo?$AAr?$AAe@ 1001f7e8     LIBCMT:thread_safe_statics.obj
 0002:0000182c       ??_C@_1BK@MGMFAEKH@?$AAk?$AAe?$AAr?$AAn?$AAe?$AAl?$AA3?$AA2?$AA?4?$AAd?$AAl?$AAl@ 1001f82c     LIBCMT:thread_safe_statics.obj
 0002:00001848       ??_C@_0BM@HLJJNPAH@InitializeConditionVariable@ 1001f848     LIBCMT:thread_safe_statics.obj
 0002:00001864       ??_C@_0BJ@JEBJOJFJ@SleepConditionVariableCS@ 1001f864     LIBCMT:thread_safe_statics.obj
 0002:00001880       ??_C@_0BJ@PGPPEPCC@WakeAllConditionVariable@ 1001f880     LIBCMT:thread_safe_statics.obj
 0002:00001899       ?nothrow@std@@3Unothrow_t@1@B 1001f899     LIBCMT:std_nothrow.obj
 0002:000018a4       __pRawDllMain              1001f8a4     LIBCMT:dll_dllmain.obj
 0002:000018a4       __pDefaultRawDllMain       1001f8a4     LIBCMT:dll_dllmain.obj
 0002:000018ac       ??_7exception@std@@6B@     1001f8ac     LIBCMT:throw_bad_alloc.obj
 0002:000018b4       ??_C@_0BC@EOODALEL@Unknown?5exception@ 1001f8b4     LIBCMT:throw_bad_alloc.obj
 0002:000018cc       ??_7bad_alloc@std@@6B@     1001f8cc     LIBCMT:throw_bad_alloc.obj
 0002:000018d4       ??_C@_0P@GHFPNOJB@bad?5allocation@ 1001f8d4     LIBCMT:throw_bad_alloc.obj
 0002:000018e8       ??_7bad_array_new_length@std@@6B@ 1001f8e8     LIBCMT:throw_bad_alloc.obj
 0002:000018f0       ??_C@_0BF@KINCDENJ@bad?5array?5new?5length@ 1001f8f0     LIBCMT:throw_bad_alloc.obj
 0002:0000190c       ??_7type_info@@6B@         1001f90c     LIBCMT:std_type_info_static.obj
 0002:00001910       _GUID_ATLVer110            1001f910     atls:atlbase.obj
 0002:00001920       ??_C@_1IC@ONKHOIDK@?$AAE?$AAR?$AAR?$AAO?$AAR?$AA?5?$AA?3?$AA?5?$AAU?$AAn?$AAa?$AAb?$AAl?$AAe?$AA?5@ 1001f920     atls:atlbase.obj
 0002:000019a4       ??_C@_0N@FJEPLCIH@atlthunk?4dll@ 1001f9a4     atls:atlthunk.obj
 0002:000019b4       ??_C@_0BG@GAKFHCBM@AtlThunk_AllocateData@ 1001f9b4     atls:atlthunk.obj
 0002:000019cc       ??_C@_0BC@JKONFIAH@AtlThunk_InitData@ 1001f9cc     atls:atlthunk.obj
 0002:000019e0       ??_C@_0BE@IAOEELAK@AtlThunk_DataToCode@ 1001f9e0     atls:atlthunk.obj
 0002:000019f4       ??_C@_0BC@GBGKAIPI@AtlThunk_FreeData@ 1001f9f4     atls:atlthunk.obj
 0002:00001a34       ??_C@_1DM@KHCHBNEB@?$AAa?$AAp?$AAi?$AA?9?$AAm?$AAs?$AA?9?$AAw?$AAi?$AAn?$AA?9?$AAc?$AAo?$AAr?$AAe@ 1001fa34     libvcruntime:winapi_downlevel.obj
 0002:00001a70       ??_C@_1DK@LPPGFMPP@?$AAa?$AAp?$AAi?$AA?9?$AAm?$AAs?$AA?9?$AAw?$AAi?$AAn?$AA?9?$AAc?$AAo?$AAr?$AAe@ 1001fa70     libvcruntime:winapi_downlevel.obj
 0002:00001aac       ??_C@_1BC@GDMECMAK@?$AAk?$AAe?$AAr?$AAn?$AAe?$AAl?$AA3?$AA2@ 1001faac     libvcruntime:winapi_downlevel.obj
 0002:00001ac0       ??_C@_1BA@PFFKHIOG@?$AAa?$AAp?$AAi?$AA?9?$AAm?$AAs?$AA?9@ 1001fac0     libvcruntime:winapi_downlevel.obj
 0002:00001ad0       ??_C@_1BA@IAIFMGEF@?$AAe?$AAx?$AAt?$AA?9?$AAm?$AAs?$AA?9@ 1001fad0     libvcruntime:winapi_downlevel.obj
 0002:00001ae8       ??_C@_08KNHFBNJ@FlsAlloc@  1001fae8     libvcruntime:winapi_downlevel.obj
 0002:00001afc       ??_C@_07PEJMOBNF@FlsFree@  1001fafc     libvcruntime:winapi_downlevel.obj
 0002:00001b0c       ??_C@_0M@GDNOONDI@FlsGetValue@ 1001fb0c     libvcruntime:winapi_downlevel.obj
 0002:00001b20       ??_C@_0M@JCPCPOEF@FlsSetValue@ 1001fb20     libvcruntime:winapi_downlevel.obj
 0002:00001b34       ??_C@_0BM@HCFOFFN@InitializeCriticalSectionEx@ 1001fb34     libvcruntime:winapi_downlevel.obj
 0002:00001b54       ??_7bad_exception@std@@6B@ 1001fb54     libvcruntime:frame.obj
 0002:00001b5c       ??_C@_0O@DPKOEFFH@bad?5exception@ 1001fb5c     libvcruntime:frame.obj
 0002:00001d0c       ??_C@_08EHJDFFNH@__based?$CI@ 1001fd0c     libvcruntime:undname.obj
 0002:00001d18       ??_C@_07KOLFKCDI@__cdecl@  1001fd18     libvcruntime:undname.obj
 0002:00001d20       ??_C@_08GHMPAG@__pascal@   1001fd20     libvcruntime:undname.obj
 0002:00001d2c       ??_C@_09IFJBGAPI@__stdcall@ 1001fd2c     libvcruntime:undname.obj
 0002:00001d38       ??_C@_0L@NPHFGOKO@__thiscall@ 1001fd38     libvcruntime:undname.obj
 0002:00001d44       ??_C@_0L@JMKHOMEK@__fastcall@ 1001fd44     libvcruntime:undname.obj
 0002:00001d50       ??_C@_0N@BCKKPABJ@__vectorcall@ 1001fd50     libvcruntime:undname.obj
 0002:00001d60       ??_C@_09HIJEGCPM@__clrcall@ 1001fd60     libvcruntime:undname.obj
 0002:00001d6c       ??_C@_06GHPCKEAG@__eabi@   1001fd6c     libvcruntime:undname.obj
 0002:00001d74       ??_C@_09IOPIDJLG@__swift_1@ 1001fd74     libvcruntime:undname.obj
 0002:00001d80       ??_C@_09KFNFGKHF@__swift_2@ 1001fd80     libvcruntime:undname.obj
 0002:00001d8c       ??_C@_07JOMMBBKO@__ptr64@  1001fd8c     libvcruntime:undname.obj
 0002:00001d94       ??_C@_0L@PILCLIHE@__restrict@ 1001fd94     libvcruntime:undname.obj
 0002:00001da0       ??_C@_0M@GFIIJFMG@__unaligned@ 1001fda0     libvcruntime:undname.obj
 0002:00001dac       ??_C@_09DHDLOLLB@restrict?$CI@ 1001fdac     libvcruntime:undname.obj
 0002:00001db6       ??_C@_00CNPNBAHC@@         1001fdb6     libvcruntime:undname.obj
 0002:00001db8       ??_C@_04NIHEBCM@?5new@     1001fdb8     libvcruntime:undname.obj
 0002:00001dc0       ??_C@_07FPCDHGMM@?5delete@ 1001fdc0     libvcruntime:undname.obj
 0002:00001dc8       ??_C@_01NEMOKFLO@?$DN@     1001fdc8     libvcruntime:undname.obj
 0002:00001dcc       ??_C@_02GPIOPFAK@?$DO?$DO@ 1001fdcc     libvcruntime:undname.obj
 0002:00001dd0       ??_C@_02FODMEDOG@?$DM?$DM@ 1001fdd0     libvcruntime:undname.obj
 0002:00001dd4       ??_C@_01DCLJPIOD@?$CB@     1001fdd4     libvcruntime:undname.obj
 0002:00001dd8       ??_C@_02EGOFBIJA@?$DN?$DN@ 1001fdd8     libvcruntime:undname.obj
 0002:00001ddc       ??_C@_02FDNJECIE@?$CB?$DN@ 1001fddc     libvcruntime:undname.obj
 0002:00001de0       ??_C@_02GPECMEKF@?$FL?$FN@ 1001fde0     libvcruntime:undname.obj
 0002:00001de4       ??_C@_08LHJFAFGD@operator@ 1001fde4     libvcruntime:undname.obj
 0002:00001df0       ??_C@_02HBOOOICD@?9?$DO@   1001fdf0     libvcruntime:undname.obj
 0002:00001df4       ??_C@_01NBENCBCI@?$CK@     1001fdf4     libvcruntime:undname.obj
 0002:00001df8       ??_C@_02ECNGHCIF@?$CL?$CL@ 1001fdf8     libvcruntime:undname.obj
 0002:00001dfc       ??_C@_02BAABKJLB@?9?9@     1001fdfc     libvcruntime:undname.obj
 0002:00001e00       ??_C@_01JOAMLHOP@?9@       1001fe00     libvcruntime:undname.obj
 0002:00001e04       ??_C@_01MIFGBAGJ@?$CL@     1001fe04     libvcruntime:undname.obj
 0002:00001e08       ??_C@_01HNPIGOCE@?$CG@     1001fe08     libvcruntime:undname.obj
 0002:00001e0c       ??_C@_03MNHNFDLC@?9?$DO?$CK@ 1001fe0c     libvcruntime:undname.obj
 0002:00001e10       ??_C@_01KMDKNFGN@?1@       1001fe10     libvcruntime:undname.obj
 0002:00001e14       ??_C@_01FGNFDNOH@?$CF@     1001fe14     libvcruntime:undname.obj
 0002:00001e18       ??_C@_01MNNFJEPP@?$DM@     1001fe18     libvcruntime:undname.obj
 0002:00001e1c       ??_C@_02EHCHHCKH@?$DM?$DN@ 1001fe1c     libvcruntime:undname.obj
 0002:00001e20       ??_C@_01PPODPGHN@?$DO@     1001fe20     libvcruntime:undname.obj
 0002:00001e24       ??_C@_02EEKDKGMJ@?$DO?$DN@ 1001fe24     libvcruntime:undname.obj
 0002:00001e28       ??_C@_01IHBHIGKO@?0@       1001fe28     libvcruntime:undname.obj
 0002:00001e2c       ??_C@_02HCKGKOFO@?$CI?$CJ@ 1001fe2c     libvcruntime:undname.obj
 0002:00001e30       ??_C@_01PJKLJHI@?$HO@      1001fe30     libvcruntime:undname.obj
 0002:00001e34       ??_C@_01JKBOJNNK@?$FO@     1001fe34     libvcruntime:undname.obj
 0002:00001e38       ??_C@_01DNKMNLPK@?$HM@     1001fe38     libvcruntime:undname.obj
 0002:00001e3c       ??_C@_02PPKAJPJL@?$CG?$CG@ 1001fe3c     libvcruntime:undname.obj
 0002:00001e40       ??_C@_02NONPIBCD@?$HM?$HM@ 1001fe40     libvcruntime:undname.obj
 0002:00001e44       ??_C@_02FPIMKNGF@?$CK?$DN@ 1001fe44     libvcruntime:undname.obj
 0002:00001e48       ??_C@_02FOEOMHFC@?$CL?$DN@ 1001fe48     libvcruntime:undname.obj
 0002:00001e4c       ??_C@_02FKMDLLOA@?9?$DN@   1001fe4c     libvcruntime:undname.obj
 0002:00001e50       ??_C@_02FJEHGPIO@?1?$DN@   1001fe50     libvcruntime:undname.obj
 0002:00001e54       ??_C@_02FENAOKFI@?$CF?$DN@ 1001fe54     libvcruntime:undname.obj
 0002:00001e58       ??_C@_03IKFCCPFF@?$DO?$DO?$DN@ 1001fe58     libvcruntime:undname.obj
 0002:00001e5c       ??_C@_03CDNPDDLA@?$DM?$DM?$DN@ 1001fe5c     libvcruntime:undname.obj
 0002:00001e60       ??_C@_02FGJGFEAB@?$CG?$DN@ 1001fe60     libvcruntime:undname.obj
 0002:00001e64       ??_C@_02DHLNPPGH@?$HM?$DN@ 1001fe64     libvcruntime:undname.obj
 0002:00001e68       ??_C@_02MHEGNOJ@?$FO?$DN@  1001fe68     libvcruntime:undname.obj
 0002:00001e6c       ??_C@_09IFPLHPGF@?$GAvftable?8@ 1001fe6c     libvcruntime:undname.obj
 0002:00001e78       ??_C@_09BLBHBJP@?$GAvbtable?8@ 1001fe78     libvcruntime:undname.obj
 0002:00001e84       ??_C@_07FEEIOKP@?$GAvcall?8@ 1001fe84     libvcruntime:undname.obj
 0002:00001e8c       ??_C@_08LLFFHHDJ@?$GAtypeof?8@ 1001fe8c     libvcruntime:undname.obj
 0002:00001e98       ??_C@_0BF@KDPPACIK@?$GAlocal?5static?5guard?8@ 1001fe98     libvcruntime:undname.obj
 0002:00001eb0       ??_C@_08OBABFOLI@?$GAstring?8@ 1001feb0     libvcruntime:undname.obj
 0002:00001ebc       ??_C@_0BD@JDLKDPAB@?$GAvbase?5destructor?8@ 1001febc     libvcruntime:undname.obj
 0002:00001ed0       ??_C@_0BN@DEGPLNFK@?$GAvector?5deleting?5destructor?8@ 1001fed0     libvcruntime:undname.obj
 0002:00001ef0       ??_C@_0BO@OBMKPJIG@?$GAdefault?5constructor?5closure?8@ 1001fef0     libvcruntime:undname.obj
 0002:00001f10       ??_C@_0BN@IMDCHIKM@?$GAscalar?5deleting?5destructor?8@ 1001ff10     libvcruntime:undname.obj
 0002:00001f30       ??_C@_0BO@PFGOCPJJ@?$GAvector?5constructor?5iterator?8@ 1001ff30     libvcruntime:undname.obj
 0002:00001f50       ??_C@_0BN@LFPFMEDL@?$GAvector?5destructor?5iterator?8@ 1001ff50     libvcruntime:undname.obj
 0002:00001f70       ??_C@_0CE@IKBNEHA@?$GAvector?5vbase?5constructor?5itera@ 1001ff70     libvcruntime:undname.obj
 0002:00001f94       ??_C@_0BL@NILFHHPC@?$GAvirtual?5displacement?5map?8@ 1001ff94     libvcruntime:undname.obj
 0002:00001fb0       ??_C@_0CB@JONCMFFK@?$GAeh?5vector?5constructor?5iterator@ 1001ffb0     libvcruntime:undname.obj
 0002:00001fd4       ??_C@_0CA@GCEOPDGL@?$GAeh?5vector?5destructor?5iterator?8@ 1001ffd4     libvcruntime:undname.obj
 0002:00001ff4       ??_C@_0CH@OOJPLCPH@?$GAeh?5vector?5vbase?5constructor?5it@ 1001fff4     libvcruntime:undname.obj
 0002:0000201c       ??_C@_0BL@LLKPOHJI@?$GAcopy?5constructor?5closure?8@ 1002001c     libvcruntime:undname.obj
 0002:00002038       ??_C@_0BA@KBCDOMBN@?$GAudt?5returning?8@ 10020038     libvcruntime:undname.obj
 0002:00002048       ??_C@_03KLGMFNMG@?$GAEH@   10020048     libvcruntime:undname.obj
 0002:0000204c       ??_C@_05KHLCHHI@?$GARTTI@  1002004c     libvcruntime:undname.obj
 0002:00002054       ??_C@_0BA@KKLDJDLB@?$GAlocal?5vftable?8@ 10020054     libvcruntime:undname.obj
 0002:00002064       ??_C@_0CE@IIHCMGGL@?$GAlocal?5vftable?5constructor?5clos@ 10020064     libvcruntime:undname.obj
 0002:00002088       ??_C@_06FHBGPFGH@?5new?$FL?$FN@ 10020088     libvcruntime:undname.obj
 0002:00002090       ??_C@_09LBNFPBCA@?5delete?$FL?$FN@ 10020090     libvcruntime:undname.obj
 0002:0000209c       ??_C@_0P@HJKNJFNN@?$GAomni?5callsig?8@ 1002009c     libvcruntime:undname.obj
 0002:000020ac       ??_C@_0BL@CNOONJFP@?$GAplacement?5delete?5closure?8@ 100200ac     libvcruntime:undname.obj
 0002:000020c8       ??_C@_0BN@CKNJLHMB@?$GAplacement?5delete?$FL?$FN?5closure?8@ 100200c8     libvcruntime:undname.obj
 0002:000020e8       ??_C@_0CG@CFDHKGGD@?$GAmanaged?5vector?5constructor?5ite@ 100200e8     libvcruntime:undname.obj
 0002:00002110       ??_C@_0CF@IMGKMJNO@?$GAmanaged?5vector?5destructor?5iter@ 10020110     libvcruntime:undname.obj
 0002:00002138       ??_C@_0CG@HLDDJMAG@?$GAeh?5vector?5copy?5constructor?5ite@ 10020138     libvcruntime:undname.obj
 0002:00002160       ??_C@_0CM@FCBBDIGB@?$GAeh?5vector?5vbase?5copy?5construct@ 10020160     libvcruntime:undname.obj
 0002:0000218c       ??_C@_0BL@CLIPGLGB@?$GAdynamic?5initializer?5for?5?8@ 1002018c     libvcruntime:undname.obj
 0002:000021a8       ??_C@_0CB@PDBIFEP@?$GAdynamic?5atexit?5destructor?5for?5@ 100201a8     libvcruntime:undname.obj
 0002:000021cc       ??_C@_0CD@CGAJBKEJ@?$GAvector?5copy?5constructor?5iterat@ 100201cc     libvcruntime:undname.obj
 0002:000021f0       ??_C@_0CJ@GJELGAMM@?$GAvector?5vbase?5copy?5constructor?5@ 100201f0     libvcruntime:undname.obj
 0002:0000221c       ??_C@_0CL@FGIJHLCE@?$GAmanaged?5vector?5copy?5constructo@ 1002021c     libvcruntime:undname.obj
 0002:00002248       ??_C@_0BM@PMGGMLDN@?$GAlocal?5static?5thread?5guard?8@ 10020248     libvcruntime:undname.obj
 0002:00002264       ??_C@_0N@BDNMDMOL@operator?5?$CC?$CC?5@ 10020264     libvcruntime:undname.obj
 0002:00002274       ??_C@_0BC@GGEBGALA@operator?5co_await@ 10020274     libvcruntime:undname.obj
 0002:00002288       ??_C@_0BC@DAFEJGAK@?5Type?5Descriptor?8@ 10020288     libvcruntime:undname.obj
 0002:0000229c       ??_C@_0BM@LDKODKLH@?5Base?5Class?5Descriptor?5at?5?$CI@ 1002029c     libvcruntime:undname.obj
 0002:000022b8       ??_C@_0BD@LGICGFMM@?5Base?5Class?5Array?8@ 100202b8     libvcruntime:undname.obj
 0002:000022cc       ??_C@_0BN@MECKDCOJ@?5Class?5Hierarchy?5Descriptor?8@ 100202cc     libvcruntime:undname.obj
 0002:000022ec       ??_C@_0BK@CFCOFLF@?5Complete?5Object?5Locator?8@ 100202ec     libvcruntime:undname.obj
 0002:00002308       __pDestructExceptionObject 10020308     libvcruntime:ehhelpers.obj
 0002:00002478       _format_validation_lookup_table 10020478     libucrt:output.obj
 0002:000024d4       ??_C@_06OJHGLDPL@?$CInull?$CJ?$AA@ 100204d4     libucrt:output.obj
 0002:000024dc       ??_C@_1O@CEDCILHN@?$AA?$CI?$AAn?$AAu?$AAl?$AAl?$AA?$CJ?$AA?$AA@ 100204dc     libucrt:output.obj
 0002:000024f0       ___acrt_exception_action_table 100204f0     libucrt:exception_filter.obj
 0002:00002580       ___acrt_signal_action_table_count 10020580     libucrt:exception_filter.obj
 0002:00002584       ___acrt_signal_action_first_fpe_index 10020584     libucrt:exception_filter.obj
 0002:00002588       ___acrt_signal_action_fpe_count 10020588     libucrt:exception_filter.obj
 0002:0000258c       ??_C@_1BI@BGOHAHKC@?$AAm?$AAs?$AAc?$AAo?$AAr?$AAe?$AAe?$AA?4?$AAd?$AAl?$AAl?$AA?$AA@ 1002058c     libucrt:exit.obj
 0002:000025a4       ??_C@_0P@MIGLKIOC@CorExitProcess?$AA@ 100205a4     libucrt:exit.obj
 0002:00002680       ??_C@_1EG@CNNIPFIM@?$AAa?$AAp?$AAi?$AA?9?$AAm?$AAs?$AA?9?$AAw?$AAi?$AAn?$AA?9?$AAa?$AAp?$AAp?$AAm?$AAo?$AAd?$AAe?$AAl?$AA?9?$AAr?$AAu?$AAn?$AAt?$AAi?$AAm?$AAe?$AA?9?$AAl?$AA1?$AA?9?$AA1@ 10020680     libucrt:winapi_thunks.obj
 0002:000026c8       ??_C@_1EA@JGEFHKEI@?$AAa?$AAp?$AAi?$AA?9?$AAm?$AAs?$AA?9?$AAw?$AAi?$AAn?$AA?9?$AAc?$AAo?$AAr?$AAe?$AA?9?$AAd?$AAa?$AAt?$AAe?$AAt?$AAi?$AAm?$AAe?$AA?9?$AAl?$AA1?$AA?9?$AA1?$AA?9?$AA1?$AA?$AA@ 100206c8     libucrt:winapi_thunks.obj
 0002:00002708       ??_C@_1DM@KHCHBNEB@?$AAa?$AAp?$AAi?$AA?9?$AAm?$AAs?$AA?9?$AAw?$AAi?$AAn?$AA?9?$AAc?$AAo?$AAr?$AAe?$AA?9?$AAf?$AAi?$AAb?$AAe?$AAr?$AAs?$AA?9?$AAl?$AA1?$AA?9?$AA1?$AA?9?$AA1?$AA?$AA@ 10020708     libucrt:winapi_thunks.obj
 0002:00002744       ??_C@_1DI@GCIAAENM@?$AAa?$AAp?$AAi?$AA?9?$AAm?$AAs?$AA?9?$AAw?$AAi?$AAn?$AA?9?$AAc?$AAo?$AAr?$AAe?$AA?9?$AAf?$AAi?$AAl?$AAe?$AA?9?$AAl?$AA2?$AA?9?$AA1?$AA?9?$AA1?$AA?$AA@ 10020744     libucrt:winapi_thunks.obj
 0002:00002780       ??_C@_1EI@MPIAOHOC@?$AAa?$AAp?$AAi?$AA?9?$AAm?$AAs?$AA?9?$AAw?$AAi?$AAn?$AA?9?$AAc?$AAo?$AAr?$AAe?$AA?9?$AAl?$AAo?$AAc?$AAa?$AAl?$AAi?$AAz?$AAa?$AAt?$AAi?$AAo?$AAn?$AA?9?$AAl?$AA1?$AA?9@ 10020780     libucrt:winapi_thunks.obj
 0002:000027c8       ??_C@_1FK@FPHCKFIE@?$AAa?$AAp?$AAi?$AA?9?$AAm?$AAs?$AA?9?$AAw?$AAi?$AAn?$AA?9?$AAc?$AAo?$AAr?$AAe?$AA?9?$AAl?$AAo?$AAc?$AAa?$AAl?$AAi?$AAz?$AAa?$AAt?$AAi?$AAo?$AAn?$AA?9?$AAo?$AAb?$AAs@ 100207c8     libucrt:winapi_thunks.obj
 0002:00002828       ??_C@_1EM@DILCGIIO@?$AAa?$AAp?$AAi?$AA?9?$AAm?$AAs?$AA?9?$AAw?$AAi?$AAn?$AA?9?$AAc?$AAo?$AAr?$AAe?$AA?9?$AAp?$AAr?$AAo?$AAc?$AAe?$AAs?$AAs?$AAt?$AAh?$AAr?$AAe?$AAa?$AAd?$AAs?$AA?9?$AAl@ 10020828     libucrt:winapi_thunks.obj
 0002:00002874       ??_C@_1DM@LNCGDDPN@?$AAa?$AAp?$AAi?$AA?9?$AAm?$AAs?$AA?9?$AAw?$AAi?$AAn?$AA?9?$AAc?$AAo?$AAr?$AAe?$AA?9?$AAs?$AAt?$AAr?$AAi?$AAn?$AAg?$AA?9?$AAl?$AA1?$AA?9?$AA1?$AA?9?$AA0?$AA?$AA@ 10020874     libucrt:winapi_thunks.obj
 0002:000028b0       ??_C@_1DK@LPPGFMPP@?$AAa?$AAp?$AAi?$AA?9?$AAm?$AAs?$AA?9?$AAw?$AAi?$AAn?$AA?9?$AAc?$AAo?$AAr?$AAe?$AA?9?$AAs?$AAy?$AAn?$AAc?$AAh?$AA?9?$AAl?$AA1?$AA?9?$AA2?$AA?9?$AA0?$AA?$AA@ 100208b0     libucrt:winapi_thunks.obj
 0002:000028ec       ??_C@_1DO@FPAPJEMD@?$AAa?$AAp?$AAi?$AA?9?$AAm?$AAs?$AA?9?$AAw?$AAi?$AAn?$AA?9?$AAc?$AAo?$AAr?$AAe?$AA?9?$AAs?$AAy?$AAs?$AAi?$AAn?$AAf?$AAo?$AA?9?$AAl?$AA1?$AA?9?$AA2?$AA?9?$AA1?$AA?$AA@ 100208ec     libucrt:winapi_thunks.obj
 0002:0000292c       ??_C@_1DK@NDHNAHIO@?$AAa?$AAp?$AAi?$AA?9?$AAm?$AAs?$AA?9?$AAw?$AAi?$AAn?$AA?9?$AAc?$AAo?$AAr?$AAe?$AA?9?$AAw?$AAi?$AAn?$AAr?$AAt?$AA?9?$AAl?$AA1?$AA?9?$AA1?$AA?9?$AA0?$AA?$AA@ 1002092c     libucrt:winapi_thunks.obj
 0002:00002968       ??_C@_1DM@KGHDGBCM@?$AAa?$AAp?$AAi?$AA?9?$AAm?$AAs?$AA?9?$AAw?$AAi?$AAn?$AA?9?$AAc?$AAo?$AAr?$AAe?$AA?9?$AAx?$AAs?$AAt?$AAa?$AAt?$AAe?$AA?9?$AAl?$AA2?$AA?9?$AA1?$AA?9?$AA0?$AA?$AA@ 10020968     libucrt:winapi_thunks.obj
 0002:000029a8       ??_C@_1EO@IJIOEFOH@?$AAa?$AAp?$AAi?$AA?9?$AAm?$AAs?$AA?9?$AAw?$AAi?$AAn?$AA?9?$AAr?$AAt?$AAc?$AAo?$AAr?$AAe?$AA?9?$AAn?$AAt?$AAu?$AAs?$AAe?$AAr?$AA?9?$AAw?$AAi?$AAn?$AAd?$AAo?$AAw?$AA?9@ 100209a8     libucrt:winapi_thunks.obj
 0002:000029f8       ??_C@_1FG@HHGEKANL@?$AAa?$AAp?$AAi?$AA?9?$AAm?$AAs?$AA?9?$AAw?$AAi?$AAn?$AA?9?$AAs?$AAe?$AAc?$AAu?$AAr?$AAi?$AAt?$AAy?$AA?9?$AAs?$AAy?$AAs?$AAt?$AAe?$AAm?$AAf?$AAu?$AAn?$AAc?$AAt?$AAi@ 100209f8     libucrt:winapi_thunks.obj
 0002:00002a50       ??_C@_1FG@NCKKOLKO@?$AAe?$AAx?$AAt?$AA?9?$AAm?$AAs?$AA?9?$AAw?$AAi?$AAn?$AA?9?$AAk?$AAe?$AAr?$AAn?$AAe?$AAl?$AA3?$AA2?$AA?9?$AAp?$AAa?$AAc?$AAk?$AAa?$AAg?$AAe?$AA?9?$AAc?$AAu?$AAr?$AAr@ 10020a50     libucrt:winapi_thunks.obj
 0002:00002aa8       ??_C@_1EG@DBIOJECG@?$AAe?$AAx?$AAt?$AA?9?$AAm?$AAs?$AA?9?$AAw?$AAi?$AAn?$AA?9?$AAn?$AAt?$AAu?$AAs?$AAe?$AAr?$AA?9?$AAd?$AAi?$AAa?$AAl?$AAo?$AAg?$AAb?$AAo?$AAx?$AA?9?$AAl?$AA1?$AA?9?$AA1@ 10020aa8     libucrt:winapi_thunks.obj
 0002:00002af0       ??_C@_1EO@FIHMJCLF@?$AAe?$AAx?$AAt?$AA?9?$AAm?$AAs?$AA?9?$AAw?$AAi?$AAn?$AA?9?$AAn?$AAt?$AAu?$AAs?$AAe?$AAr?$AA?9?$AAw?$AAi?$AAn?$AAd?$AAo?$AAw?$AAs?$AAt?$AAa?$AAt?$AAi?$AAo?$AAn?$AA?9@ 10020af0     libucrt:winapi_thunks.obj
 0002:00002b40       ??_C@_1BC@DNHGCMLG@?$AAa?$AAd?$AAv?$AAa?$AAp?$AAi?$AA3?$AA2?$AA?$AA@ 10020b40     libucrt:winapi_thunks.obj
 0002:00002b54       ??_C@_1BC@GDMECMAK@?$AAk?$AAe?$AAr?$AAn?$AAe?$AAl?$AA3?$AA2?$AA?$AA@ 10020b54     libucrt:winapi_thunks.obj
 0002:00002b68       ??_C@_1O@BCCLBEOE@?$AAu?$AAs?$AAe?$AAr?$AA3?$AA2?$AA?$AA@ 10020b68     libucrt:winapi_thunks.obj
 0002:00002b80       ??_C@_08KNHFBNJ@FlsAlloc?$AA@ 10020b80     libucrt:winapi_thunks.obj
 0002:00002b94       ??_C@_07PEJMOBNF@FlsFree?$AA@ 10020b94     libucrt:winapi_thunks.obj
 0002:00002ba4       ??_C@_0M@GDNOONDI@FlsGetValue?$AA@ 10020ba4     libucrt:winapi_thunks.obj
 0002:00002bb8       ??_C@_0M@JCPCPOEF@FlsSetValue?$AA@ 10020bb8     libucrt:winapi_thunks.obj
 0002:00002bcc       ??_C@_0BE@JOGNEJCI@GetCurrentPackageId?$AA@ 10020bcc     libucrt:winapi_thunks.obj
 0002:00002be8       ??_C@_0BM@HCFOFFN@InitializeCriticalSectionEx?$AA@ 10020be8     libucrt:winapi_thunks.obj
 0002:00002c0c       ??_C@_0O@KKBNKAPF@LCMapStringEx?$AA@ 10020c0c     libucrt:winapi_thunks.obj
 0002:00002c24       ??_C@_0BB@HBDEELFH@LocaleNameToLCID?$AA@ 10020c24     libucrt:winapi_thunks.obj
 0002:00002c40       ??_C@_0BI@BKLFFAPO@SetThreadStackGuarantee?$AA@ 10020c40     libucrt:winapi_thunks.obj
 0002:00002c58       ??_C@_03OEIAHPBN@INF?$AA@  10020c58     libucrt:cvt.obj
 0002:00002c5c       ??_C@_03OJHLLCGB@inf?$AA@  10020c5c     libucrt:cvt.obj
 0002:00002c60       ??_C@_03LKNCIKJB@NAN?$AA@  10020c60     libucrt:cvt.obj
 0002:00002c64       ??_C@_03LHCJEHON@nan?$AA@  10020c64     libucrt:cvt.obj
 0002:00002c68       ??_C@_09OFJJIMPC@NAN?$CISNAN?$CJ?$AA@ 10020c68     libucrt:cvt.obj
 0002:00002c74       ??_C@_09IPFBKMDL@nan?$CIsnan?$CJ?$AA@ 10020c74     libucrt:cvt.obj
 0002:00002c80       ??_C@_08IKHNHAJ@NAN?$CIIND?$CJ?$AA@ 10020c80     libucrt:cvt.obj
 0002:00002c8c       ??_C@_08OFCDMILK@nan?$CIind?$CJ?$AA@ 10020c8c     libucrt:cvt.obj
 0002:00002c98       ??_C@_05KLBDPFGC@e?$CL000?$AA@ 10020c98     libucrt:cvt.obj
 0002:00002ca0       ??_C@_03KOEHGMDN@Sun?$AA@  10020ca0     libucrt:nlsdata.obj
 0002:00002ca4       ??_C@_03PDAGKDH@Mon?$AA@   10020ca4     libucrt:nlsdata.obj
 0002:00002ca8       ??_C@_03NAGEINEP@Tue?$AA@  10020ca8     libucrt:nlsdata.obj
 0002:00002cac       ??_C@_03MHOMLAJA@Wed?$AA@  10020cac     libucrt:nlsdata.obj
 0002:00002cb0       ??_C@_03IOFIKPDN@Thu?$AA@  10020cb0     libucrt:nlsdata.obj
 0002:00002cb4       ??_C@_03IDIOELNC@Fri?$AA@  10020cb4     libucrt:nlsdata.obj
 0002:00002cb8       ??_C@_03FEFJNEK@Sat?$AA@   10020cb8     libucrt:nlsdata.obj
 0002:00002cbc       ??_C@_06OOPIFAJ@Sunday?$AA@ 10020cbc     libucrt:nlsdata.obj
 0002:00002cc4       ??_C@_06JLEDEDGH@Monday?$AA@ 10020cc4     libucrt:nlsdata.obj
 0002:00002ccc       ??_C@_07BAAGCFCM@Tuesday?$AA@ 10020ccc     libucrt:nlsdata.obj
 0002:00002cd4       ??_C@_09DLIGFAKA@Wednesday?$AA@ 10020cd4     libucrt:nlsdata.obj
 0002:00002ce0       ??_C@_08HACCIKIA@Thursday?$AA@ 10020ce0     libucrt:nlsdata.obj
 0002:00002cec       ??_C@_06JECMNKMI@Friday?$AA@ 10020cec     libucrt:nlsdata.obj
 0002:00002cf4       ??_C@_08INBOOONO@Saturday?$AA@ 10020cf4     libucrt:nlsdata.obj
 0002:00002d00       ??_C@_03JIHJHPIE@Jan?$AA@  10020d00     libucrt:nlsdata.obj
 0002:00002d04       ??_C@_03HJBDCHOM@Feb?$AA@  10020d04     libucrt:nlsdata.obj
 0002:00002d08       ??_C@_03ODNJBKGA@Mar?$AA@  10020d08     libucrt:nlsdata.obj
 0002:00002d0c       ??_C@_03LEOLGMJP@Apr?$AA@  10020d0c     libucrt:nlsdata.obj
 0002:00002d10       ??_C@_03CNMDKL@May?$AA@    10020d10     libucrt:nlsdata.obj
 0002:00002d14       ??_C@_03IDFGHECI@Jun?$AA@  10020d14     libucrt:nlsdata.obj
 0002:00002d18       ??_C@_03LBGABGKK@Jul?$AA@  10020d18     libucrt:nlsdata.obj
 0002:00002d1c       ??_C@_03IFJFEIGA@Aug?$AA@  10020d1c     libucrt:nlsdata.obj
 0002:00002d20       ??_C@_03GGCAPAJC@Sep?$AA@  10020d20     libucrt:nlsdata.obj
 0002:00002d24       ??_C@_03BMAOKBAD@Oct?$AA@  10020d24     libucrt:nlsdata.obj
 0002:00002d28       ??_C@_03JPJOFNIA@Nov?$AA@  10020d28     libucrt:nlsdata.obj
 0002:00002d2c       ??_C@_03MKABNOCG@Dec?$AA@  10020d2c     libucrt:nlsdata.obj
 0002:00002d30       ??_C@_07CGJPFGJA@January?$AA@ 10020d30     libucrt:nlsdata.obj
 0002:00002d38       ??_C@_08GNJGEPFN@February?$AA@ 10020d38     libucrt:nlsdata.obj
 0002:00002d44       ??_C@_05HPCKOFNC@March?$AA@ 10020d44     libucrt:nlsdata.obj
 0002:00002d4c       ??_C@_05DMJDNLEJ@April?$AA@ 10020d4c     libucrt:nlsdata.obj
 0002:00002d54       ??_C@_04CNLMGBGM@June?$AA@ 10020d54     libucrt:nlsdata.obj
 0002:00002d5c       ??_C@_04MIEPOIFP@July?$AA@ 10020d5c     libucrt:nlsdata.obj
 0002:00002d64       ??_C@_06LBBHFDDG@August?$AA@ 10020d64     libucrt:nlsdata.obj
 0002:00002d6c       ??_C@_09BHHEALKD@September?$AA@ 10020d6c     libucrt:nlsdata.obj
 0002:00002d78       ??_C@_07JJNFCEND@October?$AA@ 10020d78     libucrt:nlsdata.obj
 0002:00002d80       ??_C@_08HCHEGEOA@November?$AA@ 10020d80     libucrt:nlsdata.obj
 0002:00002d8c       ??_C@_08EDHMEBNP@December?$AA@ 10020d8c     libucrt:nlsdata.obj
 0002:00002d98       ??_C@_02DEDBPAFC@AM?$AA@   10020d98     libucrt:nlsdata.obj
 0002:00002d9c       ??_C@_02CJNFDJBF@PM?$AA@   10020d9c     libucrt:nlsdata.obj
 0002:00002da0       ??_C@_08BPBNCDIB@MM?1dd?1yy?$AA@ 10020da0     libucrt:nlsdata.obj
 0002:00002dac       ??_C@_0BE@CKGJFCPC@dddd?0?5MMMM?5dd?0?5yyyy?$AA@ 10020dac     libucrt:nlsdata.obj
 0002:00002dc0       ??_C@_08JCCMCCIL@HH?3mm?3ss?$AA@ 10020dc0     libucrt:nlsdata.obj
 0002:00002dcc       ??_C@_17MBGCMIPB@?$AAS?$AAu?$AAn?$AA?$AA@ 10020dcc     libucrt:nlsdata.obj
 0002:00002dd4       ??_C@_17KBOMKBF@?$AAM?$AAo?$AAn?$AA?$AA@ 10020dd4     libucrt:nlsdata.obj
 0002:00002ddc       ??_C@_17BMKGEGOJ@?$AAT?$AAu?$AAe?$AA?$AA@ 10020ddc     libucrt:nlsdata.obj
 0002:00002de4       ??_C@_17CJEDCEPE@?$AAW?$AAe?$AAd?$AA?$AA@ 10020de4     libucrt:nlsdata.obj
 0002:00002dec       ??_C@_17PDPHAADD@?$AAT?$AAh?$AAu?$AA?$AA@ 10020dec     libucrt:nlsdata.obj
 0002:00002df4       ??_C@_17HFOLPPLP@?$AAF?$AAr?$AAi?$AA?$AA@ 10020df4     libucrt:nlsdata.obj
 0002:00002dfc       ??_C@_17GGIBDPIH@?$AAS?$AAa?$AAt?$AA?$AA@ 10020dfc     libucrt:nlsdata.obj
 0002:00002e04       ??_C@_1O@IHNHDHPB@?$AAS?$AAu?$AAn?$AAd?$AAa?$AAy?$AA?$AA@ 10020e04     libucrt:nlsdata.obj
 0002:00002e14       ??_C@_1O@MMNBFLIA@?$AAM?$AAo?$AAn?$AAd?$AAa?$AAy?$AA?$AA@ 10020e14     libucrt:nlsdata.obj
 0002:00002e24       ??_C@_1BA@ENFBFFEK@?$AAT?$AAu?$AAe?$AAs?$AAd?$AAa?$AAy?$AA?$AA@ 10020e24     libucrt:nlsdata.obj
 0002:00002e34       ??_C@_1BE@EBOGMDOH@?$AAW?$AAe?$AAd?$AAn?$AAe?$AAs?$AAd?$AAa?$AAy?$AA?$AA@ 10020e34     libucrt:nlsdata.obj
 0002:00002e48       ??_C@_1BC@HHMNLIHE@?$AAT?$AAh?$AAu?$AAr?$AAs?$AAd?$AAa?$AAy?$AA?$AA@ 10020e48     libucrt:nlsdata.obj
 0002:00002e5c       ??_C@_1O@PDICJHAG@?$AAF?$AAr?$AAi?$AAd?$AAa?$AAy?$AA?$AA@ 10020e5c     libucrt:nlsdata.obj
 0002:00002e6c       ??_C@_1BC@ENMNNPAJ@?$AAS?$AAa?$AAt?$AAu?$AAr?$AAd?$AAa?$AAy?$AA?$AA@ 10020e6c     libucrt:nlsdata.obj
 0002:00002e80       ??_C@_17DKNBKCHM@?$AAJ?$AAa?$AAn?$AA?$AA@ 10020e80     libucrt:nlsdata.obj
 0002:00002e88       ??_C@_17LMDJEKJN@?$AAF?$AAe?$AAb?$AA?$AA@ 10020e88     libucrt:nlsdata.obj
 0002:00002e90       ??_C@_17CKNLEDEC@?$AAM?$AAa?$AAr?$AA?$AA@ 10020e90     libucrt:nlsdata.obj
 0002:00002e98       ??_C@_17LFPOIHDD@?$AAA?$AAp?$AAr?$AA?$AA@ 10020e98     libucrt:nlsdata.obj
 0002:00002ea0       ??_C@_17PNNKMEED@?$AAM?$AAa?$AAy?$AA?$AA@ 10020ea0     libucrt:nlsdata.obj
 0002:00002ea8       ??_C@_17KCJGOCPB@?$AAJ?$AAu?$AAn?$AA?$AA@ 10020ea8     libucrt:nlsdata.obj
 0002:00002eb0       ??_C@_17IJPCKHK@?$AAJ?$AAu?$AAl?$AA?$AA@ 10020eb0     libucrt:nlsdata.obj
 0002:00002eb8       ??_C@_17ICPELBCN@?$AAA?$AAu?$AAg?$AA?$AA@ 10020eb8     libucrt:nlsdata.obj
 0002:00002ec0       ??_C@_17HCHCOKMG@?$AAS?$AAe?$AAp?$AA?$AA@ 10020ec0     libucrt:nlsdata.obj
 0002:00002ec8       ??_C@_17FNLKOI@?$AAO?$AAc?$AAt?$AA?$AA@ 10020ec8     libucrt:nlsdata.obj
 0002:00002ed0       ??_C@_17BBDMLCIG@?$AAN?$AAo?$AAv?$AA?$AA@ 10020ed0     libucrt:nlsdata.obj
 0002:00002ed8       ??_C@_17EGKACKIF@?$AAD?$AAe?$AAc?$AA?$AA@ 10020ed8     libucrt:nlsdata.obj
 0002:00002ee0       ??_C@_1BA@EFMEIEBA@?$AAJ?$AAa?$AAn?$AAu?$AAa?$AAr?$AAy?$AA?$AA@ 10020ee0     libucrt:nlsdata.obj
 0002:00002ef0       ??_C@_1BC@JGDDFFAM@?$AAF?$AAe?$AAb?$AAr?$AAu?$AAa?$AAr?$AAy?$AA?$AA@ 10020ef0     libucrt:nlsdata.obj
 0002:00002f04       ??_C@_1M@IKEENEDF@?$AAM?$AAa?$AAr?$AAc?$AAh?$AA?$AA@ 10020f04     libucrt:nlsdata.obj
 0002:00002f10       ??_C@_1M@GJNLMHFD@?$AAA?$AAp?$AAr?$AAi?$AAl?$AA?$AA@ 10020f10     libucrt:nlsdata.obj
 0002:00002f1c       ??_C@_19EPFLPGAP@?$AAJ?$AAu?$AAn?$AAe?$AA?$AA@ 10020f1c     libucrt:nlsdata.obj
 0002:00002f28       ??_C@_19BIFMLPCD@?$AAJ?$AAu?$AAl?$AAy?$AA?$AA@ 10020f28     libucrt:nlsdata.obj
 0002:00002f34       ??_C@_1O@PAHLKOAC@?$AAA?$AAu?$AAg?$AAu?$AAs?$AAt?$AA?$AA@ 10020f34     libucrt:nlsdata.obj
 0002:00002f44       ??_C@_1BE@DKAAMBJL@?$AAS?$AAe?$AAp?$AAt?$AAe?$AAm?$AAb?$AAe?$AAr?$AA?$AA@ 10020f44     libucrt:nlsdata.obj
 0002:00002f58       ??_C@_1BA@EPANDLNG@?$AAO?$AAc?$AAt?$AAo?$AAb?$AAe?$AAr?$AA?$AA@ 10020f58     libucrt:nlsdata.obj
 0002:00002f68       ??_C@_1BC@BGLIFPF@?$AAN?$AAo?$AAv?$AAe?$AAm?$AAb?$AAe?$AAr?$AA?$AA@ 10020f68     libucrt:nlsdata.obj
 0002:00002f7c       ??_C@_1BC@FEMKIFH@?$AAD?$AAe?$AAc?$AAe?$AAm?$AAb?$AAe?$AAr?$AA?$AA@ 10020f7c     libucrt:nlsdata.obj
 0002:00002f90       ??_C@_15ODEHAHHF@?$AAA?$AAM?$AA?$AA@ 10020f90     libucrt:nlsdata.obj
 0002:00002f98       ??_C@_15CLMNNGEL@?$AAP?$AAM?$AA?$AA@ 10020f98     libucrt:nlsdata.obj
 0002:00002fa0       ??_C@_1BC@IEBCMHCM@?$AAM?$AAM?$AA?1?$AAd?$AAd?$AA?1?$AAy?$AAy?$AA?$AA@ 10020fa0     libucrt:nlsdata.obj
 0002:00002fb4       ??_C@_1CI@KNAKOEBC@?$AAd?$AAd?$AAd?$AAd?$AA?0?$AA?5?$AAM?$AAM?$AAM?$AAM?$AA?5?$AAd?$AAd?$AA?0?$AA?5?$AAy?$AAy?$AAy?$AAy?$AA?$AA@ 10020fb4     libucrt:nlsdata.obj
 0002:00002fdc       ??_C@_1BC@GDGBMEMK@?$AAH?$AAH?$AA?3?$AAm?$AAm?$AA?3?$AAs?$AAs?$AA?$AA@ 10020fdc     libucrt:nlsdata.obj
 0002:00002ff0       ??_C@_1M@BMHNFIME@?$AAe?$AAn?$AA?9?$AAU?$AAS?$AA?$AA@ 10020ff0     libucrt:nlsdata.obj
 0002:00003000       ___lc_time_c               10021000     libucrt:nlsdata.obj
 0002:00003174       ??_C@_1M@HPNHIDJI@?$AAj?$AAa?$AA?9?$AAJ?$AAP?$AA?$AA@ 10021174     libucrt:mbctype.obj
 0002:00003180       ??_C@_1M@BIBDDEMK@?$AAz?$AAh?$AA?9?$AAC?$AAN?$AA?$AA@ 10021180     libucrt:mbctype.obj
 0002:0000318c       ??_C@_1M@JLOOOEGK@?$AAk?$AAo?$AA?9?$AAK?$AAR?$AA?$AA@ 1002118c     libucrt:mbctype.obj
 0002:00003198       ??_C@_1M@CLNBBOPM@?$AAz?$AAh?$AA?9?$AAT?$AAW?$AA?$AA@ 10021198     libucrt:mbctype.obj
 0002:000031a8       __wctype                   100211a8     libucrt:ctype.obj
 0002:000033b0       ___newctype                100213b0     libucrt:ctype.obj
 0002:000036b0       ___newclmap                100216b0     libucrt:ctype.obj
 0002:00003830       ___newcumap                10021830     libucrt:ctype.obj
 0002:000040d0       ??_C@_15EMKDOKLE@?$AAa?$AAr?$AA?$AA@ 100220d0     libucrt:lcidtoname_downlevel.obj
 0002:000040d8       ??_C@_15KNPADPLH@?$AAb?$AAg?$AA?$AA@ 100220d8     libucrt:lcidtoname_downlevel.obj
 0002:000040e0       ??_C@_15EDMHLDMO@?$AAc?$AAa?$AA?$AA@ 100220e0     libucrt:lcidtoname_downlevel.obj
 0002:000040e8       ??_C@_1O@BPEAJADD@?$AAz?$AAh?$AA?9?$AAC?$AAH?$AAS?$AA?$AA@ 100220e8     libucrt:lcidtoname_downlevel.obj
 0002:000040f8       ??_C@_15LJNHCMNK@?$AAc?$AAs?$AA?$AA@ 100220f8     libucrt:lcidtoname_downlevel.obj
 0002:00004100       ??_C@_15FOMCIDHG@?$AAd?$AAa?$AA?$AA@ 10022100     libucrt:lcidtoname_downlevel.obj
 0002:00004108       ??_C@_15NBKABECB@?$AAd?$AAe?$AA?$AA@ 10022108     libucrt:lcidtoname_downlevel.obj
 0002:00004110       ??_C@_15GHPEIIAO@?$AAe?$AAl?$AA?$AA@ 10022110     libucrt:lcidtoname_downlevel.obj
 0002:00004118       ??_C@_15MNPNEAIF@?$AAe?$AAn?$AA?$AA@ 10022118     libucrt:lcidtoname_downlevel.obj
 0002:00004120       ??_C@_15GPIOMPMH@?$AAe?$AAs?$AA?$AA@ 10022120     libucrt:lcidtoname_downlevel.obj
 0002:00004128       ??_C@_15NGLOAKJC@?$AAf?$AAi?$AA?$AA@ 10022128     libucrt:lcidtoname_downlevel.obj
 0002:00004130       ??_C@_15FBKGNKAM@?$AAf?$AAr?$AA?$AA@ 10022130     libucrt:lcidtoname_downlevel.obj
 0002:00004138       ??_C@_15KGGCNEFK@?$AAh?$AAe?$AA?$AA@ 10022138     libucrt:lcidtoname_downlevel.obj
 0002:00004140       ??_C@_15PGHLIDMF@?$AAh?$AAu?$AA?$AA@ 10022140     libucrt:lcidtoname_downlevel.obj
 0002:00004148       ??_C@_15BIEMAPLM@?$AAi?$AAs?$AA?$AA@ 10022148     libucrt:lcidtoname_downlevel.obj
 0002:00004150       ??_C@_15IFJLDHAF@?$AAi?$AAt?$AA?$AA@ 10022150     libucrt:lcidtoname_downlevel.obj
 0002:00004158       ??_C@_15GEMIOCAG@?$AAj?$AAa?$AA?$AA@ 10022158     libucrt:lcidtoname_downlevel.obj
 0002:00004160       ??_C@_15EPELEGJA@?$AAk?$AAo?$AA?$AA@ 10022160     libucrt:lcidtoname_downlevel.obj
 0002:00004168       ??_C@_15NDDHIMN@?$AAn?$AAl?$AA?$AA@ 10022168     libucrt:lcidtoname_downlevel.obj
 0002:00004170       ??_C@_15BPIGNHCD@?$AAn?$AAo?$AA?$AA@ 10022170     libucrt:lcidtoname_downlevel.obj
 0002:00004178       ??_C@_15DEOPBLCG@?$AAp?$AAl?$AA?$AA@ 10022178     libucrt:lcidtoname_downlevel.obj
 0002:00004180       ??_C@_15KBECGEFG@?$AAp?$AAt?$AA?$AA@ 10022180     libucrt:lcidtoname_downlevel.obj
 0002:00004188       ??_C@_15GLJCBFMD@?$AAr?$AAo?$AA?$AA@ 10022188     libucrt:lcidtoname_downlevel.obj
 0002:00004190       ??_C@_15FEDGKCDI@?$AAr?$AAu?$AA?$AA@ 10022190     libucrt:lcidtoname_downlevel.obj
 0002:00004198       ??_C@_15GLKMLLHM@?$AAh?$AAr?$AA?$AA@ 10022198     libucrt:lcidtoname_downlevel.obj
 0002:000041a0       ??_C@_15CPKMFBDB@?$AAs?$AAk?$AA?$AA@ 100221a0     libucrt:lcidtoname_downlevel.obj
 0002:000041a8       ??_C@_15BAAIOGMK@?$AAs?$AAq?$AA?$AA@ 100221a8     libucrt:lcidtoname_downlevel.obj
 0002:000041b0       ??_C@_15INNPNOHD@?$AAs?$AAv?$AA?$AA@ 100221b0     libucrt:lcidtoname_downlevel.obj
 0002:000041b8       ??_C@_15CABMMOGH@?$AAt?$AAh?$AA?$AA@ 100221b8     libucrt:lcidtoname_downlevel.obj
 0002:000041c0       ??_C@_15BPLIHJJM@?$AAt?$AAr?$AA?$AA@ 100221c0     libucrt:lcidtoname_downlevel.obj
 0002:000041c8       ??_C@_15NEOEKKDJ@?$AAu?$AAr?$AA?$AA@ 100221c8     libucrt:lcidtoname_downlevel.obj
 0002:000041d0       ??_C@_15NFICGAJK@?$AAi?$AAd?$AA?$AA@ 100221d0     libucrt:lcidtoname_downlevel.obj
 0002:000041d8       ??_C@_15PJPFLCCM@?$AAu?$AAk?$AA?$AA@ 100221d8     libucrt:lcidtoname_downlevel.obj
 0002:000041e0       ??_C@_15HPJPHDM@?$AAb?$AAe?$AA?$AA@ 100221e0     libucrt:lcidtoname_downlevel.obj
 0002:000041e8       ??_C@_15LCHLGJII@?$AAs?$AAl?$AA?$AA@ 100221e8     libucrt:lcidtoname_downlevel.obj
 0002:000041f0       ??_C@_15PCFJPHHO@?$AAe?$AAt?$AA?$AA@ 100221f0     libucrt:lcidtoname_downlevel.obj
 0002:000041f8       ??_C@_15HPFPGODN@?$AAl?$AAv?$AA?$AA@ 100221f8     libucrt:lcidtoname_downlevel.obj
 0002:00004200       ??_C@_15NFFGKGLG@?$AAl?$AAt?$AA?$AA@ 10022200     libucrt:lcidtoname_downlevel.obj
 0002:00004208       ??_C@_15BDAKCCHN@?$AAf?$AAa?$AA?$AA@ 10022208     libucrt:lcidtoname_downlevel.obj
 0002:00004210       ??_C@_15NFGIAIAJ@?$AAv?$AAi?$AA?$AA@ 10022210     libucrt:lcidtoname_downlevel.obj
 0002:00004218       ??_C@_15LMKNDMHN@?$AAh?$AAy?$AA?$AA@ 10022218     libucrt:lcidtoname_downlevel.obj
 0002:00004220       ??_C@_15IJBHMCFL@?$AAa?$AAz?$AA?$AA@ 10022220     libucrt:lcidtoname_downlevel.obj
 0002:00004228       ??_C@_15EKOFJABL@?$AAe?$AAu?$AA?$AA@ 10022228     libucrt:lcidtoname_downlevel.obj
 0002:00004230       ??_C@_15BGHADCNK@?$AAm?$AAk?$AA?$AA@ 10022230     libucrt:lcidtoname_downlevel.obj
 0002:00004238       ??_C@_15JDNICKHM@?$AAa?$AAf?$AA?$AA@ 10022238     libucrt:lcidtoname_downlevel.obj
 0002:00004240       ??_C@_15KPJEDBKD@?$AAk?$AAa?$AA?$AA@ 10022240     libucrt:lcidtoname_downlevel.obj
 0002:00004248       ??_C@_15PDNFFFEO@?$AAf?$AAo?$AA?$AA@ 10022248     libucrt:lcidtoname_downlevel.obj
 0002:00004250       ??_C@_15OMLEGLOC@?$AAh?$AAi?$AA?$AA@ 10022250     libucrt:lcidtoname_downlevel.obj
 0002:00004258       ??_C@_15IDNNENKK@?$AAm?$AAs?$AA?$AA@ 10022258     libucrt:lcidtoname_downlevel.obj
 0002:00004260       ??_C@_15MACJNBMH@?$AAk?$AAk?$AA?$AA@ 10022260     libucrt:lcidtoname_downlevel.obj
 0002:00004268       ??_C@_15DKDJEOND@?$AAk?$AAy?$AA?$AA@ 10022268     libucrt:lcidtoname_downlevel.obj
 0002:00004270       ??_C@_15DFGDLJBG@?$AAs?$AAw?$AA?$AA@ 10022270     libucrt:lcidtoname_downlevel.obj
 0002:00004278       ??_C@_15BBFAICNG@?$AAu?$AAz?$AA?$AA@ 10022278     libucrt:lcidtoname_downlevel.obj
 0002:00004280       ??_C@_15DKNDCGEA@?$AAt?$AAt?$AA?$AA@ 10022280     libucrt:lcidtoname_downlevel.obj
 0002:00004288       ??_C@_15MGIFMDPL@?$AAp?$AAa?$AA?$AA@ 10022288     libucrt:lcidtoname_downlevel.obj
 0002:00004290       ??_C@_15HCNDBBA@?$AAg?$AAu?$AA?$AA@ 10022290     libucrt:lcidtoname_downlevel.obj
 0002:00004298       ??_C@_15FNBEIBON@?$AAt?$AAa?$AA?$AA@ 10022298     libucrt:lcidtoname_downlevel.obj
 0002:000042a0       ??_C@_15NCHGBGLK@?$AAt?$AAe?$AA?$AA@ 100222a0     libucrt:lcidtoname_downlevel.obj
 0002:000042a8       ??_C@_15PHPHCBPF@?$AAk?$AAn?$AA?$AA@ 100222a8     libucrt:lcidtoname_downlevel.obj
 0002:000042b0       ??_C@_15DLGBCKMP@?$AAm?$AAr?$AA?$AA@ 100222b0     libucrt:lcidtoname_downlevel.obj
 0002:000042b8       ??_C@_15EABBLBFF@?$AAs?$AAa?$AA?$AA@ 100222b8     libucrt:lcidtoname_downlevel.obj
 0002:000042c0       ??_C@_15CBKOMCOI@?$AAm?$AAn?$AA?$AA@ 100222c0     libucrt:lcidtoname_downlevel.obj
 0002:000042c8       ??_C@_15CKDMCJAF@?$AAg?$AAl?$AA?$AA@ 100222c8     libucrt:lcidtoname_downlevel.obj
 0002:000042d0       ??_C@_17CNJFBPG@?$AAk?$AAo?$AAk?$AA?$AA@ 100222d0     libucrt:lcidtoname_downlevel.obj
 0002:000042d8       ??_C@_17FFBJICPL@?$AAs?$AAy?$AAr?$AA?$AA@ 100222d8     libucrt:lcidtoname_downlevel.obj
 0002:000042e0       ??_C@_17KPNDCPAF@?$AAd?$AAi?$AAv?$AA?$AA@ 100222e0     libucrt:lcidtoname_downlevel.obj
 0002:000042e8       ??_C@_11LOCGONAA@?$AA?$AA@ 100222e8     libucrt:lcidtoname_downlevel.obj
 0002:000042ec       ??_C@_1M@OKAHONE@?$AAa?$AAr?$AA?9?$AAS?$AAA?$AA?$AA@ 100222ec     libucrt:lcidtoname_downlevel.obj
 0002:000042f8       ??_C@_1M@FFFIGIGK@?$AAb?$AAg?$AA?9?$AAB?$AAG?$AA?$AA@ 100222f8     libucrt:lcidtoname_downlevel.obj
 0002:00004304       ??_C@_1M@BJNKEDC@?$AAc?$AAa?$AA?9?$AAE?$AAS?$AA?$AA@ 10022304     libucrt:lcidtoname_downlevel.obj
 0002:00004310       ??_C@_1M@IJJHFJHA@?$AAc?$AAs?$AA?9?$AAC?$AAZ?$AA?$AA@ 10022310     libucrt:lcidtoname_downlevel.obj
 0002:0000431c       ??_C@_1M@CLPEOBGI@?$AAd?$AAa?$AA?9?$AAD?$AAK?$AA?$AA@ 1002231c     libucrt:lcidtoname_downlevel.obj
 0002:00004328       ??_C@_1M@MCMADGCB@?$AAd?$AAe?$AA?9?$AAD?$AAE?$AA?$AA@ 10022328     libucrt:lcidtoname_downlevel.obj
 0002:00004334       ??_C@_1M@OOCKEMAM@?$AAe?$AAl?$AA?9?$AAG?$AAR?$AA?$AA@ 10022334     libucrt:lcidtoname_downlevel.obj
 0002:00004340       ??_C@_1M@DDNJFGID@?$AAf?$AAi?$AA?9?$AAF?$AAI?$AA?$AA@ 10022340     libucrt:lcidtoname_downlevel.obj
 0002:0000434c       ??_C@_1M@GLIPPMAC@?$AAf?$AAr?$AA?9?$AAF?$AAR?$AA?$AA@ 1002234c     libucrt:lcidtoname_downlevel.obj
 0002:00004358       ??_C@_1M@GFMCHPE@?$AAh?$AAe?$AA?9?$AAI?$AAL?$AA?$AA@ 10022358     libucrt:lcidtoname_downlevel.obj
 0002:00004364       ??_C@_1M@MHLPGNKM@?$AAh?$AAu?$AA?9?$AAH?$AAU?$AA?$AA@ 10022364     libucrt:lcidtoname_downlevel.obj
 0002:00004370       ??_C@_1M@LPDDNNPN@?$AAi?$AAs?$AA?9?$AAI?$AAS?$AA?$AA@ 10022370     libucrt:lcidtoname_downlevel.obj
 0002:0000437c       ??_C@_1M@MADIPODN@?$AAi?$AAt?$AA?9?$AAI?$AAT?$AA?$AA@ 1002237c     libucrt:lcidtoname_downlevel.obj
 0002:00004388       ??_C@_1M@IHBJJGG@?$AAn?$AAl?$AA?9?$AAN?$AAL?$AA?$AA@ 10022388     libucrt:lcidtoname_downlevel.obj
 0002:00004394       ??_C@_1M@EANAGDL@?$AAn?$AAb?$AA?9?$AAN?$AAO?$AA?$AA@ 10022394     libucrt:lcidtoname_downlevel.obj
 0002:000043a0       ??_C@_1M@NEIEMEGP@?$AAp?$AAl?$AA?9?$AAP?$AAL?$AA?$AA@ 100223a0     libucrt:lcidtoname_downlevel.obj
 0002:000043ac       ??_C@_1M@BOCFIGEP@?$AAp?$AAt?$AA?9?$AAB?$AAR?$AA?$AA@ 100223ac     libucrt:lcidtoname_downlevel.obj
 0002:000043b8       ??_C@_1M@IMPFOPBG@?$AAr?$AAo?$AA?9?$AAR?$AAO?$AA?$AA@ 100223b8     libucrt:lcidtoname_downlevel.obj
 0002:000043c4       ??_C@_1M@IDNNEJMM@?$AAr?$AAu?$AA?9?$AAR?$AAU?$AA?$AA@ 100223c4     libucrt:lcidtoname_downlevel.obj
 0002:000043d0       ??_C@_1M@LILEEOGM@?$AAh?$AAr?$AA?9?$AAH?$AAR?$AA?$AA@ 100223d0     libucrt:lcidtoname_downlevel.obj
 0002:000043dc       ??_C@_1M@FKIFEHPB@?$AAs?$AAk?$AA?9?$AAS?$AAK?$AA?$AA@ 100223dc     libucrt:lcidtoname_downlevel.obj
 0002:000043e8       ??_C@_1M@LJMAMNPJ@?$AAs?$AAq?$AA?9?$AAA?$AAL?$AA?$AA@ 100223e8     libucrt:lcidtoname_downlevel.obj
 0002:000043f4       ??_C@_1M@GIAKDKJK@?$AAs?$AAv?$AA?9?$AAS?$AAE?$AA?$AA@ 100223f4     libucrt:lcidtoname_downlevel.obj
 0002:00004400       ??_C@_1M@MKJKIKCL@?$AAt?$AAh?$AA?9?$AAT?$AAH?$AA?$AA@ 10022400     libucrt:lcidtoname_downlevel.obj
 0002:0000440c       ??_C@_1M@MFLCCMPB@?$AAt?$AAr?$AA?9?$AAT?$AAR?$AA?$AA@ 1002240c     libucrt:lcidtoname_downlevel.obj
 0002:00004418       ??_C@_1M@OIJHDKJN@?$AAu?$AAr?$AA?9?$AAP?$AAK?$AA?$AA@ 10022418     libucrt:lcidtoname_downlevel.obj
 0002:00004424       ??_C@_1M@LHIPCIEK@?$AAi?$AAd?$AA?9?$AAI?$AAD?$AA?$AA@ 10022424     libucrt:lcidtoname_downlevel.obj
 0002:00004430       ??_C@_1M@MFMOBGI@?$AAu?$AAk?$AA?9?$AAU?$AAA?$AA?$AA@ 10022430     libucrt:lcidtoname_downlevel.obj
 0002:0000443c       ??_C@_1M@OBGLJIPL@?$AAb?$AAe?$AA?9?$AAB?$AAY?$AA?$AA@ 1002243c     libucrt:lcidtoname_downlevel.obj
 0002:00004448       ??_C@_1M@BCFAJEAD@?$AAs?$AAl?$AA?9?$AAS?$AAI?$AA?$AA@ 10022448     libucrt:lcidtoname_downlevel.obj
 0002:00004454       ??_C@_1M@FKFFEDDN@?$AAe?$AAt?$AA?9?$AAE?$AAE?$AA?$AA@ 10022454     libucrt:lcidtoname_downlevel.obj
 0002:00004460       ??_C@_1M@KGKKAACI@?$AAl?$AAv?$AA?9?$AAL?$AAV?$AA?$AA@ 10022460     libucrt:lcidtoname_downlevel.obj
 0002:0000446c       ??_C@_1M@IFGBIJO@?$AAl?$AAt?$AA?9?$AAL?$AAT?$AA?$AA@ 1002246c     libucrt:lcidtoname_downlevel.obj
 0002:00004478       ??_C@_1M@FGEAHEDM@?$AAf?$AAa?$AA?9?$AAI?$AAR?$AA?$AA@ 10022478     libucrt:lcidtoname_downlevel.obj
 0002:00004484       ??_C@_1M@KBMAIBFN@?$AAv?$AAi?$AA?9?$AAV?$AAN?$AA?$AA@ 10022484     libucrt:lcidtoname_downlevel.obj
 0002:00004490       ??_C@_1M@GPCBKDJK@?$AAh?$AAy?$AA?9?$AAA?$AAM?$AA?$AA@ 10022490     libucrt:lcidtoname_downlevel.obj
 0002:0000449c       ??_C@_1BG@BECMDDJB@?$AAa?$AAz?$AA?9?$AAA?$AAZ?$AA?9?$AAL?$AAa?$AAt?$AAn?$AA?$AA@ 1002249c     libucrt:lcidtoname_downlevel.obj
 0002:000044b4       ??_C@_1M@MAOFCAEA@?$AAe?$AAu?$AA?9?$AAE?$AAS?$AA?$AA@ 100224b4     libucrt:lcidtoname_downlevel.obj
 0002:000044c0       ??_C@_1M@IGHABKPI@?$AAm?$AAk?$AA?9?$AAM?$AAK?$AA?$AA@ 100224c0     libucrt:lcidtoname_downlevel.obj
 0002:000044cc       ??_C@_1M@IAIGNEJG@?$AAt?$AAn?$AA?9?$AAZ?$AAA?$AA?$AA@ 100224cc     libucrt:lcidtoname_downlevel.obj
 0002:000044d8       ??_C@_1M@IIJCOJFA@?$AAx?$AAh?$AA?9?$AAZ?$AAA?$AA?$AA@ 100224d8     libucrt:lcidtoname_downlevel.obj
 0002:000044e4       ??_C@_1M@LGPJHNJH@?$AAz?$AAu?$AA?9?$AAZ?$AAA?$AA?$AA@ 100224e4     libucrt:lcidtoname_downlevel.obj
 0002:000044f0       ??_C@_1M@HOKAOIO@?$AAa?$AAf?$AA?9?$AAZ?$AAA?$AA?$AA@ 100224f0     libucrt:lcidtoname_downlevel.obj
 0002:000044fc       ??_C@_1M@DPCLHLIE@?$AAk?$AAa?$AA?9?$AAG?$AAE?$AA?$AA@ 100224fc     libucrt:lcidtoname_downlevel.obj
 0002:00004508       ??_C@_1M@BLKMHJBI@?$AAf?$AAo?$AA?9?$AAF?$AAO?$AA?$AA@ 10022508     libucrt:lcidtoname_downlevel.obj
 0002:00004514       ??_C@_1M@LGGJAPPB@?$AAh?$AAi?$AA?9?$AAI?$AAN?$AA?$AA@ 10022514     libucrt:lcidtoname_downlevel.obj
 0002:00004520       ??_C@_1M@FIKPIHFE@?$AAm?$AAt?$AA?9?$AAM?$AAT?$AA?$AA@ 10022520     libucrt:lcidtoname_downlevel.obj
 0002:0000452c       ??_C@_1M@HEGGPBFA@?$AAs?$AAe?$AA?9?$AAN?$AAO?$AA?$AA@ 1002252c     libucrt:lcidtoname_downlevel.obj
 0002:00004538       ??_C@_1M@EIBJEEPA@?$AAm?$AAs?$AA?9?$AAM?$AAY?$AA?$AA@ 10022538     libucrt:lcidtoname_downlevel.obj
 0002:00004544       ??_C@_1M@FHLBGMPP@?$AAk?$AAk?$AA?9?$AAK?$AAZ?$AA?$AA@ 10022544     libucrt:lcidtoname_downlevel.obj
 0002:00004550       ??_C@_1M@NGJJLCGI@?$AAk?$AAy?$AA?9?$AAK?$AAG?$AA?$AA@ 10022550     libucrt:lcidtoname_downlevel.obj
 0002:0000455c       ??_C@_1M@GIENNBFC@?$AAs?$AAw?$AA?9?$AAK?$AAE?$AA?$AA@ 1002255c     libucrt:lcidtoname_downlevel.obj
 0002:00004568       ??_C@_1BG@NDGMJIMJ@?$AAu?$AAz?$AA?9?$AAU?$AAZ?$AA?9?$AAL?$AAa?$AAt?$AAn?$AA?$AA@ 10022568     libucrt:lcidtoname_downlevel.obj
 0002:00004580       ??_C@_1M@IDCCIHBC@?$AAt?$AAt?$AA?9?$AAR?$AAU?$AA?$AA@ 10022580     libucrt:lcidtoname_downlevel.obj
 0002:0000458c       ??_C@_1M@LOICPMOJ@?$AAb?$AAn?$AA?9?$AAI?$AAN?$AA?$AA@ 1002258c     libucrt:lcidtoname_downlevel.obj
 0002:00004598       ??_C@_1M@KPKKNEAH@?$AAp?$AAa?$AA?9?$AAI?$AAN?$AA?$AA@ 10022598     libucrt:lcidtoname_downlevel.obj
 0002:000045a4       ??_C@_1M@PJGPPBOG@?$AAg?$AAu?$AA?9?$AAI?$AAN?$AA?$AA@ 100225a4     libucrt:lcidtoname_downlevel.obj
 0002:000045b0       ??_C@_1M@KMKMOPHI@?$AAt?$AAa?$AA?9?$AAI?$AAN?$AA?$AA@ 100225b0     libucrt:lcidtoname_downlevel.obj
 0002:000045bc       ??_C@_1M@KFEHEPAC@?$AAt?$AAe?$AA?9?$AAI?$AAN?$AA?$AA@ 100225bc     libucrt:lcidtoname_downlevel.obj
 0002:000045c8       ??_C@_1M@CDCLMGHI@?$AAk?$AAn?$AA?9?$AAI?$AAN?$AA?$AA@ 100225c8     libucrt:lcidtoname_downlevel.obj
 0002:000045d4       ??_C@_1M@MIODLDKF@?$AAm?$AAl?$AA?9?$AAI?$AAN?$AA?$AA@ 100225d4     libucrt:lcidtoname_downlevel.obj
 0002:000045e0       ??_C@_1M@PBIEACPO@?$AAm?$AAr?$AA?9?$AAI?$AAN?$AA?$AA@ 100225e0     libucrt:lcidtoname_downlevel.obj
 0002:000045ec       ??_C@_1M@NIDEAGPH@?$AAs?$AAa?$AA?9?$AAI?$AAN?$AA?$AA@ 100225ec     libucrt:lcidtoname_downlevel.obj
 0002:000045f8       ??_C@_1M@FHIHCBIO@?$AAm?$AAn?$AA?9?$AAM?$AAN?$AA?$AA@ 100225f8     libucrt:lcidtoname_downlevel.obj
 0002:00004604       ??_C@_1M@JAIJPENP@?$AAc?$AAy?$AA?9?$AAG?$AAB?$AA?$AA@ 10022604     libucrt:lcidtoname_downlevel.obj
 0002:00004610       ??_C@_1M@PHGFBEPN@?$AAg?$AAl?$AA?9?$AAE?$AAS?$AA?$AA@ 10022610     libucrt:lcidtoname_downlevel.obj
 0002:0000461c       ??_C@_1O@KPIPDNCP@?$AAk?$AAo?$AAk?$AA?9?$AAI?$AAN?$AA?$AA@ 1002261c     libucrt:lcidtoname_downlevel.obj
 0002:0000462c       ??_C@_1O@KNHJLDJA@?$AAs?$AAy?$AAr?$AA?9?$AAS?$AAY?$AA?$AA@ 1002262c     libucrt:lcidtoname_downlevel.obj
 0002:0000463c       ??_C@_1O@MKEKBLAH@?$AAd?$AAi?$AAv?$AA?9?$AAM?$AAV?$AA?$AA@ 1002263c     libucrt:lcidtoname_downlevel.obj
 0002:0000464c       ??_C@_1O@OHDCKDDF@?$AAq?$AAu?$AAz?$AA?9?$AAB?$AAO?$AA?$AA@ 1002264c     libucrt:lcidtoname_downlevel.obj
 0002:0000465c       ??_C@_1M@LEPJNLFD@?$AAn?$AAs?$AA?9?$AAZ?$AAA?$AA?$AA@ 1002265c     libucrt:lcidtoname_downlevel.obj
 0002:00004668       ??_C@_1M@OMLEIIJB@?$AAm?$AAi?$AA?9?$AAN?$AAZ?$AA?$AA@ 10022668     libucrt:lcidtoname_downlevel.obj
 0002:00004674       ??_C@_1M@PMPEAILG@?$AAa?$AAr?$AA?9?$AAI?$AAQ?$AA?$AA@ 10022674     libucrt:lcidtoname_downlevel.obj
 0002:00004680       ??_C@_1M@CNKPNOEE@?$AAd?$AAe?$AA?9?$AAC?$AAH?$AA?$AA@ 10022680     libucrt:lcidtoname_downlevel.obj
 0002:0000468c       ??_C@_1M@LKMGMLKO@?$AAe?$AAn?$AA?9?$AAG?$AAB?$AA?$AA@ 1002268c     libucrt:lcidtoname_downlevel.obj
 0002:00004698       ??_C@_1M@PGKJFFGL@?$AAe?$AAs?$AA?9?$AAM?$AAX?$AA?$AA@ 10022698     libucrt:lcidtoname_downlevel.obj
 0002:000046a4       ??_C@_1M@DNNANBDC@?$AAf?$AAr?$AA?9?$AAB?$AAE?$AA?$AA@ 100226a4     libucrt:lcidtoname_downlevel.obj
 0002:000046b0       ??_C@_1M@HLGMDFHM@?$AAi?$AAt?$AA?9?$AAC?$AAH?$AA?$AA@ 100226b0     libucrt:lcidtoname_downlevel.obj
 0002:000046bc       ??_C@_1M@CLLBGJH@?$AAn?$AAl?$AA?9?$AAB?$AAE?$AA?$AA@ 100226bc     libucrt:lcidtoname_downlevel.obj
 0002:000046c8       ??_C@_1M@BODBOGLF@?$AAn?$AAn?$AA?9?$AAN?$AAO?$AA?$AA@ 100226c8     libucrt:lcidtoname_downlevel.obj
 0002:000046d4       ??_C@_1M@HFFAHKAD@?$AAp?$AAt?$AA?9?$AAP?$AAT?$AA?$AA@ 100226d4     libucrt:lcidtoname_downlevel.obj
 0002:000046e0       ??_C@_1BG@LNOAKHIE@?$AAs?$AAr?$AA?9?$AAS?$AAP?$AA?9?$AAL?$AAa?$AAt?$AAn?$AA?$AA@ 100226e0     libucrt:lcidtoname_downlevel.obj
 0002:000046f8       ??_C@_1M@HBMHBGAK@?$AAs?$AAv?$AA?9?$AAF?$AAI?$AA?$AA@ 100226f8     libucrt:lcidtoname_downlevel.obj
 0002:00004704       ??_C@_1BG@DGCJGJBE@?$AAa?$AAz?$AA?9?$AAA?$AAZ?$AA?9?$AAC?$AAy?$AAr?$AAl?$AA?$AA@ 10022704     libucrt:lcidtoname_downlevel.obj
 0002:0000471c       ??_C@_1M@KEJDAAHB@?$AAs?$AAe?$AA?9?$AAS?$AAE?$AA?$AA@ 1002271c     libucrt:lcidtoname_downlevel.obj
 0002:00004728       ??_C@_1M@HEIBJJAD@?$AAm?$AAs?$AA?9?$AAB?$AAN?$AA?$AA@ 10022728     libucrt:lcidtoname_downlevel.obj
 0002:00004734       ??_C@_1BG@PBGJMCEM@?$AAu?$AAz?$AA?9?$AAU?$AAZ?$AA?9?$AAC?$AAy?$AAr?$AAl?$AA?$AA@ 10022734     libucrt:lcidtoname_downlevel.obj
 0002:0000474c       ??_C@_1O@LAOBCMDF@?$AAq?$AAu?$AAz?$AA?9?$AAE?$AAC?$AA?$AA@ 1002274c     libucrt:lcidtoname_downlevel.obj
 0002:0000475c       ??_C@_1M@POEEMAIO@?$AAa?$AAr?$AA?9?$AAE?$AAG?$AA?$AA@ 1002275c     libucrt:lcidtoname_downlevel.obj
 0002:00004768       ??_C@_1M@EFAKDEDL@?$AAz?$AAh?$AA?9?$AAH?$AAK?$AA?$AA@ 10022768     libucrt:lcidtoname_downlevel.obj
 0002:00004774       ??_C@_1M@HKKIJHGI@?$AAd?$AAe?$AA?9?$AAA?$AAT?$AA?$AA@ 10022774     libucrt:lcidtoname_downlevel.obj
 0002:00004780       ??_C@_1M@KBFBEHJF@?$AAe?$AAn?$AA?9?$AAA?$AAU?$AA?$AA@ 10022780     libucrt:lcidtoname_downlevel.obj
 0002:0000478c       ??_C@_1M@MNPLFAAH@?$AAe?$AAs?$AA?9?$AAE?$AAS?$AA?$AA@ 1002278c     libucrt:lcidtoname_downlevel.obj
 0002:00004798       ??_C@_1M@HJOOJFMA@?$AAf?$AAr?$AA?9?$AAC?$AAA?$AA?$AA@ 10022798     libucrt:lcidtoname_downlevel.obj
 0002:000047a4       ??_C@_1BG@JPOFPNAB@?$AAs?$AAr?$AA?9?$AAS?$AAP?$AA?9?$AAC?$AAy?$AAr?$AAl?$AA?$AA@ 100227a4     libucrt:lcidtoname_downlevel.obj
 0002:000047bc       ??_C@_1M@LNFOCMOB@?$AAs?$AAe?$AA?9?$AAF?$AAI?$AA?$AA@ 100227bc     libucrt:lcidtoname_downlevel.obj
 0002:000047c8       ??_C@_1O@MGJBOAMB@?$AAq?$AAu?$AAz?$AA?9?$AAP?$AAE?$AA?$AA@ 100227c8     libucrt:lcidtoname_downlevel.obj
 0002:000047d8       ??_C@_1M@GJINLBOK@?$AAa?$AAr?$AA?9?$AAL?$AAY?$AA?$AA@ 100227d8     libucrt:lcidtoname_downlevel.obj
 0002:000047e4       ??_C@_1M@GGMNHJNL@?$AAz?$AAh?$AA?9?$AAS?$AAG?$AA?$AA@ 100227e4     libucrt:lcidtoname_downlevel.obj
 0002:000047f0       ??_C@_1M@HOIKODND@?$AAd?$AAe?$AA?9?$AAL?$AAU?$AA?$AA@ 100227f0     libucrt:lcidtoname_downlevel.obj
 0002:000047fc       ??_C@_1M@DDOCCGFG@?$AAe?$AAn?$AA?9?$AAC?$AAA?$AA?$AA@ 100227fc     libucrt:lcidtoname_downlevel.obj
 0002:00004808       ??_C@_1M@BNOEMJLF@?$AAe?$AAs?$AA?9?$AAG?$AAT?$AA?$AA@ 10022808     libucrt:lcidtoname_downlevel.obj
 0002:00004814       ??_C@_1M@EOGNKEK@?$AAf?$AAr?$AA?9?$AAC?$AAH?$AA?$AA@ 10022814     libucrt:lcidtoname_downlevel.obj
 0002:00004820       ??_C@_1M@FLIDJFHL@?$AAh?$AAr?$AA?9?$AAB?$AAA?$AA?$AA@ 10022820     libucrt:lcidtoname_downlevel.obj
 0002:0000482c       ??_C@_1O@FMCELNAJ@?$AAs?$AAm?$AAj?$AA?9?$AAN?$AAO?$AA?$AA@ 1002282c     libucrt:lcidtoname_downlevel.obj
 0002:0000483c       ??_C@_1M@JHGLJMGJ@?$AAa?$AAr?$AA?9?$AAD?$AAZ?$AA?$AA@ 1002283c     libucrt:lcidtoname_downlevel.obj
 0002:00004848       ??_C@_1M@JKKFDCNP@?$AAz?$AAh?$AA?9?$AAM?$AAO?$AA?$AA@ 10022848     libucrt:lcidtoname_downlevel.obj
 0002:00004854       ??_C@_1M@GEEFALPE@?$AAd?$AAe?$AA?9?$AAL?$AAI?$AA?$AA@ 10022854     libucrt:lcidtoname_downlevel.obj
 0002:00004860       ??_C@_1M@IGEOFBG@?$AAe?$AAn?$AA?9?$AAN?$AAZ?$AA?$AA@ 10022860     libucrt:lcidtoname_downlevel.obj
 0002:0000486c       ??_C@_1M@KDBONEHP@?$AAe?$AAs?$AA?9?$AAC?$AAR?$AA?$AA@ 1002286c     libucrt:lcidtoname_downlevel.obj
 0002:00004878       ??_C@_1M@FHMDOHNN@?$AAf?$AAr?$AA?9?$AAL?$AAU?$AA?$AA@ 10022878     libucrt:lcidtoname_downlevel.obj
 0002:00004884       ??_C@_1BG@NFKKMAFG@?$AAb?$AAs?$AA?9?$AAB?$AAA?$AA?9?$AAL?$AAa?$AAt?$AAn?$AA?$AA@ 10022884     libucrt:lcidtoname_downlevel.obj
 0002:0000489c       ??_C@_1O@IMNBEMCI@?$AAs?$AAm?$AAj?$AA?9?$AAS?$AAE?$AA?$AA@ 1002289c     libucrt:lcidtoname_downlevel.obj
 0002:000048ac       ??_C@_1M@DHHMBNDP@?$AAa?$AAr?$AA?9?$AAM?$AAA?$AA?$AA@ 100228ac     libucrt:lcidtoname_downlevel.obj
 0002:000048b8       ??_C@_1M@BNBLJCGH@?$AAe?$AAn?$AA?9?$AAI?$AAE?$AA?$AA@ 100228b8     libucrt:lcidtoname_downlevel.obj
 0002:000048c4       ??_C@_1M@GEPAFMDL@?$AAe?$AAs?$AA?9?$AAP?$AAA?$AA?$AA@ 100228c4     libucrt:lcidtoname_downlevel.obj
 0002:000048d0       ??_C@_1M@OJONDMDL@?$AAf?$AAr?$AA?9?$AAM?$AAC?$AA?$AA@ 100228d0     libucrt:lcidtoname_downlevel.obj
 0002:000048dc       ??_C@_1BG@OBCNFJB@?$AAs?$AAr?$AA?9?$AAB?$AAA?$AA?9?$AAL?$AAa?$AAt?$AAn?$AA?$AA@ 100228dc     libucrt:lcidtoname_downlevel.obj
 0002:000048f4       ??_C@_1O@KEMEEGPO@?$AAs?$AAm?$AAa?$AA?9?$AAN?$AAO?$AA?$AA@ 100228f4     libucrt:lcidtoname_downlevel.obj
 0002:00004904       ??_C@_1M@ELMGFODK@?$AAa?$AAr?$AA?9?$AAT?$AAN?$AA?$AA@ 10022904     libucrt:lcidtoname_downlevel.obj
 0002:00004910       ??_C@_1M@BHDLHFAF@?$AAe?$AAn?$AA?9?$AAZ?$AAA?$AA?$AA@ 10022910     libucrt:lcidtoname_downlevel.obj
 0002:0000491c       ??_C@_1M@BMGIGLIF@?$AAe?$AAs?$AA?9?$AAD?$AAO?$AA?$AA@ 1002291c     libucrt:lcidtoname_downlevel.obj
 0002:00004928       ??_C@_1BG@CMBHIPBE@?$AAs?$AAr?$AA?9?$AAB?$AAA?$AA?9?$AAC?$AAy?$AAr?$AAl?$AA?$AA@ 10022928     libucrt:lcidtoname_downlevel.obj
 0002:00004940       ??_C@_1O@HEDBLHNP@?$AAs?$AAm?$AAa?$AA?9?$AAS?$AAE?$AA?$AA@ 10022940     libucrt:lcidtoname_downlevel.obj
 0002:00004950       ??_C@_1M@DAGCADIM@?$AAa?$AAr?$AA?9?$AAO?$AAM?$AA?$AA@ 10022950     libucrt:lcidtoname_downlevel.obj
 0002:0000495c       ??_C@_1M@FODLMICG@?$AAe?$AAn?$AA?9?$AAJ?$AAM?$AA?$AA@ 1002295c     libucrt:lcidtoname_downlevel.obj
 0002:00004968       ??_C@_1M@DNMLCIHB@?$AAe?$AAs?$AA?9?$AAV?$AAE?$AA?$AA@ 10022968     libucrt:lcidtoname_downlevel.obj
 0002:00004974       ??_C@_1O@EOKHMKJK@?$AAs?$AAm?$AAs?$AA?9?$AAF?$AAI?$AA?$AA@ 10022974     libucrt:lcidtoname_downlevel.obj
 0002:00004984       ??_C@_1M@CAFJMKOF@?$AAa?$AAr?$AA?9?$AAY?$AAE?$AA?$AA@ 10022984     libucrt:lcidtoname_downlevel.obj
 0002:00004990       ??_C@_1M@CBFHIJLI@?$AAe?$AAn?$AA?9?$AAC?$AAB?$AA?$AA@ 10022990     libucrt:lcidtoname_downlevel.obj
 0002:0000499c       ??_C@_1M@BGNFLDN@?$AAe?$AAs?$AA?9?$AAC?$AAO?$AA?$AA@ 1002299c     libucrt:lcidtoname_downlevel.obj
 0002:000049a8       ??_C@_1O@JMPHMAMC@?$AAs?$AAm?$AAn?$AA?9?$AAF?$AAI?$AA?$AA@ 100229a8     libucrt:lcidtoname_downlevel.obj
 0002:000049b8       ??_C@_1M@JLANABKE@?$AAa?$AAr?$AA?9?$AAS?$AAY?$AA?$AA@ 100229b8     libucrt:lcidtoname_downlevel.obj
 0002:000049c4       ??_C@_1M@HPKGCFGN@?$AAe?$AAn?$AA?9?$AAB?$AAZ?$AA?$AA@ 100229c4     libucrt:lcidtoname_downlevel.obj
 0002:000049d0       ??_C@_1M@OLJCMLGM@?$AAe?$AAs?$AA?9?$AAP?$AAE?$AA?$AA@ 100229d0     libucrt:lcidtoname_downlevel.obj
 0002:000049dc       ??_C@_1M@MKKGFKLE@?$AAa?$AAr?$AA?9?$AAJ?$AAO?$AA?$AA@ 100229dc     libucrt:lcidtoname_downlevel.obj
 0002:000049e8       ??_C@_1M@EKPGLDNI@?$AAe?$AAn?$AA?9?$AAT?$AAT?$AA?$AA@ 100229e8     libucrt:lcidtoname_downlevel.obj
 0002:000049f4       ??_C@_1M@OONGHFHE@?$AAe?$AAs?$AA?9?$AAA?$AAR?$AA?$AA@ 100229f4     libucrt:lcidtoname_downlevel.obj
 0002:00004a00       ??_C@_1M@OOJFGBHE@?$AAa?$AAr?$AA?9?$AAL?$AAB?$AA?$AA@ 10022a00     libucrt:lcidtoname_downlevel.obj
 0002:00004a0c       ??_C@_1M@GCEJHNEG@?$AAe?$AAn?$AA?9?$AAZ?$AAW?$AA?$AA@ 10022a0c     libucrt:lcidtoname_downlevel.obj
 0002:00004a18       ??_C@_1M@JNOCAHJI@?$AAe?$AAs?$AA?9?$AAE?$AAC?$AA?$AA@ 10022a18     libucrt:lcidtoname_downlevel.obj
 0002:00004a24       ??_C@_1M@JEFHPGGB@?$AAa?$AAr?$AA?9?$AAK?$AAW?$AA?$AA@ 10022a24     libucrt:lcidtoname_downlevel.obj
 0002:00004a30       ??_C@_1M@MLKIBJOJ@?$AAe?$AAn?$AA?9?$AAP?$AAH?$AA?$AA@ 10022a30     libucrt:lcidtoname_downlevel.obj
 0002:00004a3c       ??_C@_1M@BDNIPEND@?$AAe?$AAs?$AA?9?$AAC?$AAL?$AA?$AA@ 10022a3c     libucrt:lcidtoname_downlevel.obj
 0002:00004a48       ??_C@_1M@MPNMEKBD@?$AAa?$AAr?$AA?9?$AAA?$AAE?$AA?$AA@ 10022a48     libucrt:lcidtoname_downlevel.obj
 0002:00004a54       ??_C@_1M@KBJALCPI@?$AAe?$AAs?$AA?9?$AAU?$AAY?$AA?$AA@ 10022a54     libucrt:lcidtoname_downlevel.obj
 0002:00004a60       ??_C@_1M@LLCCOAGA@?$AAa?$AAr?$AA?9?$AAB?$AAH?$AA?$AA@ 10022a60     libucrt:lcidtoname_downlevel.obj
 0002:00004a6c       ??_C@_1M@PBFNCDEL@?$AAe?$AAs?$AA?9?$AAP?$AAY?$AA?$AA@ 10022a6c     libucrt:lcidtoname_downlevel.obj
 0002:00004a78       ??_C@_1M@EDGINPNP@?$AAa?$AAr?$AA?9?$AAQ?$AAA?$AA?$AA@ 10022a78     libucrt:lcidtoname_downlevel.obj
 0002:00004a84       ??_C@_1M@MKDBIIJI@?$AAe?$AAs?$AA?9?$AAB?$AAO?$AA?$AA@ 10022a84     libucrt:lcidtoname_downlevel.obj
 0002:00004a90       ??_C@_1M@CPKKEBLD@?$AAe?$AAs?$AA?9?$AAS?$AAV?$AA?$AA@ 10022a90     libucrt:lcidtoname_downlevel.obj
 0002:00004a9c       ??_C@_1M@NDBGMMJL@?$AAe?$AAs?$AA?9?$AAH?$AAN?$AA?$AA@ 10022a9c     libucrt:lcidtoname_downlevel.obj
 0002:00004aa8       ??_C@_1M@JIJIBHDP@?$AAe?$AAs?$AA?9?$AAN?$AAI?$AA?$AA@ 10022aa8     libucrt:lcidtoname_downlevel.obj
 0002:00004ab4       ??_C@_1M@CGFMKEEK@?$AAe?$AAs?$AA?9?$AAP?$AAR?$AA?$AA@ 10022ab4     libucrt:lcidtoname_downlevel.obj
 0002:00004ac0       ??_C@_1O@ICJHKIIK@?$AAz?$AAh?$AA?9?$AAC?$AAH?$AAT?$AA?$AA@ 10022ac0     libucrt:lcidtoname_downlevel.obj
 0002:00004ad0       ??_C@_15CLNEJCE@?$AAs?$AAr?$AA?$AA@ 10022ad0     libucrt:lcidtoname_downlevel.obj
 0002:000051f8       ??_C@_1M@KAHEKEIG@?$AAa?$AAf?$AA?9?$AAz?$AAa?$AA?$AA@ 100231f8     libucrt:lcidtoname_downlevel.obj
 0002:00005204       ??_C@_1M@GIECOABL@?$AAa?$AAr?$AA?9?$AAa?$AAe?$AA?$AA@ 10023204     libucrt:lcidtoname_downlevel.obj
 0002:00005210       ??_C@_1M@BMLMEKGI@?$AAa?$AAr?$AA?9?$AAb?$AAh?$AA?$AA@ 10023210     libucrt:lcidtoname_downlevel.obj
 0002:0000521c       ??_C@_1M@DAPFDGGB@?$AAa?$AAr?$AA?9?$AAd?$AAz?$AA?$AA@ 1002321c     libucrt:lcidtoname_downlevel.obj
 0002:00005228       ??_C@_1M@FJNKGKIG@?$AAa?$AAr?$AA?9?$AAe?$AAg?$AA?$AA@ 10023228     libucrt:lcidtoname_downlevel.obj
 0002:00005234       ??_C@_1M@FLGKKCLO@?$AAa?$AAr?$AA?9?$AAi?$AAq?$AA?$AA@ 10023234     libucrt:lcidtoname_downlevel.obj
 0002:00005240       ??_C@_1M@GNDIPALM@?$AAa?$AAr?$AA?9?$AAj?$AAo?$AA?$AA@ 10023240     libucrt:lcidtoname_downlevel.obj
 0002:0000524c       ??_C@_1M@DDMJFMGJ@?$AAa?$AAr?$AA?9?$AAk?$AAw?$AA?$AA@ 1002324c     libucrt:lcidtoname_downlevel.obj
 0002:00005258       ??_C@_1M@EJALMLHM@?$AAa?$AAr?$AA?9?$AAl?$AAb?$AA?$AA@ 10023258     libucrt:lcidtoname_downlevel.obj
 0002:00005264       ??_C@_1M@MOBDBLOC@?$AAa?$AAr?$AA?9?$AAl?$AAy?$AA?$AA@ 10023264     libucrt:lcidtoname_downlevel.obj
 0002:00005270       ??_C@_1M@JAOCLHDH@?$AAa?$AAr?$AA?9?$AAm?$AAa?$AA?$AA@ 10023270     libucrt:lcidtoname_downlevel.obj
 0002:0000527c       ??_C@_1M@JHPMKJIE@?$AAa?$AAr?$AA?9?$AAo?$AAm?$AA?$AA@ 1002327c     libucrt:lcidtoname_downlevel.obj
 0002:00005288       ??_C@_1M@OEPGHFNH@?$AAa?$AAr?$AA?9?$AAq?$AAa?$AA?$AA@ 10023288     libucrt:lcidtoname_downlevel.obj
 0002:00005294       ??_C@_1M@KJDONENM@?$AAa?$AAr?$AA?9?$AAs?$AAa?$AA?$AA@ 10023294     libucrt:lcidtoname_downlevel.obj
 0002:000052a0       ??_C@_1M@DMJDKLKM@?$AAa?$AAr?$AA?9?$AAs?$AAy?$AA?$AA@ 100232a0     libucrt:lcidtoname_downlevel.obj
 0002:000052ac       ??_C@_1M@OMFIPEDC@?$AAa?$AAr?$AA?9?$AAt?$AAn?$AA?$AA@ 100232ac     libucrt:lcidtoname_downlevel.obj
 0002:000052b8       ??_C@_1M@IHMHGAON@?$AAa?$AAr?$AA?9?$AAy?$AAe?$AA?$AA@ 100232b8     libucrt:lcidtoname_downlevel.obj
 0002:000052c4       ??_C@_1BG@KDCPGJGB@?$AAa?$AAz?$AA?9?$AAa?$AAz?$AA?9?$AAc?$AAy?$AAr?$AAl?$AA?$AA@ 100232c4     libucrt:lcidtoname_downlevel.obj
 0002:000052dc       ??_C@_1BG@IBCKDDOE@?$AAa?$AAz?$AA?9?$AAa?$AAz?$AA?9?$AAl?$AAa?$AAt?$AAn?$AA?$AA@ 100232dc     libucrt:lcidtoname_downlevel.obj
 0002:000052f4       ??_C@_1M@EGPFDCPD@?$AAb?$AAe?$AA?9?$AAb?$AAy?$AA?$AA@ 100232f4     libucrt:lcidtoname_downlevel.obj
 0002:00005300       ??_C@_1M@PCMGMCGC@?$AAb?$AAg?$AA?9?$AAb?$AAg?$AA?$AA@ 10023300     libucrt:lcidtoname_downlevel.obj
 0002:0000530c       ??_C@_1M@BJBMFGOB@?$AAb?$AAn?$AA?9?$AAi?$AAn?$AA?$AA@ 1002330c     libucrt:lcidtoname_downlevel.obj
 0002:00005318       ??_C@_1BG@EAKMMACD@?$AAb?$AAs?$AA?9?$AAb?$AAa?$AA?9?$AAl?$AAa?$AAt?$AAn?$AA?$AA@ 10023318     libucrt:lcidtoname_downlevel.obj
 0002:00005330       ??_C@_1M@KGADAODK@?$AAc?$AAa?$AA?9?$AAe?$AAs?$AA?$AA@ 10023330     libucrt:lcidtoname_downlevel.obj
 0002:0000533c       ??_C@_1M@COAJPDHI@?$AAc?$AAs?$AA?9?$AAc?$AAz?$AA?$AA@ 1002333c     libucrt:lcidtoname_downlevel.obj
 0002:00005348       ??_C@_1M@DHBHFONH@?$AAc?$AAy?$AA?9?$AAg?$AAb?$AA?$AA@ 10023348     libucrt:lcidtoname_downlevel.obj
 0002:00005354       ??_C@_1M@IMGKELGA@?$AAd?$AAa?$AA?9?$AAd?$AAk?$AA?$AA@ 10023354     libucrt:lcidtoname_downlevel.obj
 0002:00005360       ??_C@_1M@NNDGDNGA@?$AAd?$AAe?$AA?9?$AAa?$AAt?$AA?$AA@ 10023360     libucrt:lcidtoname_downlevel.obj
 0002:0000536c       ??_C@_1M@IKDBHEEM@?$AAd?$AAe?$AA?9?$AAc?$AAh?$AA?$AA@ 1002336c     libucrt:lcidtoname_downlevel.obj
 0002:00005378       ??_C@_1M@GFFOJMCJ@?$AAd?$AAe?$AA?9?$AAd?$AAe?$AA?$AA@ 10023378     libucrt:lcidtoname_downlevel.obj
 0002:00005384       ??_C@_1M@MDNLKBPM@?$AAd?$AAe?$AA?9?$AAl?$AAi?$AA?$AA@ 10023384     libucrt:lcidtoname_downlevel.obj
 0002:00005390       ??_C@_1M@NJBEEJNL@?$AAd?$AAe?$AA?9?$AAl?$AAu?$AA?$AA@ 10023390     libucrt:lcidtoname_downlevel.obj
 0002:0000539c       ??_C@_1O@GNNELBAP@?$AAd?$AAi?$AAv?$AA?9?$AAm?$AAv?$AA?$AA@ 1002339c     libucrt:lcidtoname_downlevel.obj
 0002:000053ac       ??_C@_1M@EJLEOGAE@?$AAe?$AAl?$AA?9?$AAg?$AAr?$AA?$AA@ 100233ac     libucrt:lcidtoname_downlevel.obj
 0002:000053b8       ??_C@_1M@GMPONJN@?$AAe?$AAn?$AA?9?$AAa?$AAu?$AA?$AA@ 100233b8     libucrt:lcidtoname_downlevel.obj
 0002:000053c4       ??_C@_1M@NIDIIPGF@?$AAe?$AAn?$AA?9?$AAb?$AAz?$AA?$AA@ 100233c4     libucrt:lcidtoname_downlevel.obj
 0002:000053d0       ??_C@_1M@JEHMIMFO@?$AAe?$AAn?$AA?9?$AAc?$AAa?$AA?$AA@ 100233d0     libucrt:lcidtoname_downlevel.obj
 0002:000053dc       ??_C@_1M@IGMJCDLA@?$AAe?$AAn?$AA?9?$AAc?$AAb?$AA?$AA@ 100233dc     libucrt:lcidtoname_downlevel.obj
 0002:000053e8       ??_C@_1M@BNFIGBKG@?$AAe?$AAn?$AA?9?$AAg?$AAb?$AA?$AA@ 100233e8     libucrt:lcidtoname_downlevel.obj
 0002:000053f4       ??_C@_1M@LKIFDIGP@?$AAe?$AAn?$AA?9?$AAi?$AAe?$AA?$AA@ 100233f4     libucrt:lcidtoname_downlevel.obj
 0002:00005400       ??_C@_1M@PJKFGCCO@?$AAe?$AAn?$AA?9?$AAj?$AAm?$AA?$AA@ 10023400     libucrt:lcidtoname_downlevel.obj
 0002:0000540c       ??_C@_1M@KPPKEPBO@?$AAe?$AAn?$AA?9?$AAn?$AAz?$AA?$AA@ 1002340c     libucrt:lcidtoname_downlevel.obj
 0002:00005418       ??_C@_1M@GMDGLDOB@?$AAe?$AAn?$AA?9?$AAp?$AAh?$AA?$AA@ 10023418     libucrt:lcidtoname_downlevel.obj
 0002:00005424       ??_C@_1M@ONGIBJNA@?$AAe?$AAn?$AA?9?$AAt?$AAt?$AA?$AA@ 10023424     libucrt:lcidtoname_downlevel.obj
 0002:00005430       ??_C@_1M@LLODPCMM@?$AAe?$AAn?$AA?9?$AAu?$AAs?$AA?$AA@ 10023430     libucrt:lcidtoname_downlevel.obj
 0002:0000543c       ??_C@_1M@LAKFNPAN@?$AAe?$AAn?$AA?9?$AAz?$AAa?$AA?$AA@ 1002343c     libucrt:lcidtoname_downlevel.obj
 0002:00005448       ??_C@_1M@MFNHNHEO@?$AAe?$AAn?$AA?9?$AAz?$AAw?$AA?$AA@ 10023448     libucrt:lcidtoname_downlevel.obj
 0002:00005454       ??_C@_1M@EJEINPHM@?$AAe?$AAs?$AA?9?$AAa?$AAr?$AA?$AA@ 10023454     libucrt:lcidtoname_downlevel.obj
 0002:00005460       ??_C@_1M@GNKPCCJA@?$AAe?$AAs?$AA?9?$AAb?$AAo?$AA?$AA@ 10023460     libucrt:lcidtoname_downlevel.obj
 0002:0000546c       ??_C@_1M@LEEGFONL@?$AAe?$AAs?$AA?9?$AAc?$AAl?$AA?$AA@ 1002346c     libucrt:lcidtoname_downlevel.obj
 0002:00005478       ??_C@_1M@KGPDPBDF@?$AAe?$AAs?$AA?9?$AAc?$AAo?$AA?$AA@ 10023478     libucrt:lcidtoname_downlevel.obj
 0002:00005484       ??_C@_1M@EIAHOHH@?$AAe?$AAs?$AA?9?$AAc?$AAr?$AA?$AA@ 10023484     libucrt:lcidtoname_downlevel.obj
 0002:00005490       ??_C@_1M@LLPGMBIN@?$AAe?$AAs?$AA?9?$AAd?$AAo?$AA?$AA@ 10023490     libucrt:lcidtoname_downlevel.obj
 0002:0000549c       ??_C@_1M@DKHMKNJA@?$AAe?$AAs?$AA?9?$AAe?$AAc?$AA?$AA@ 1002349c     libucrt:lcidtoname_downlevel.obj
 0002:000054a8       ??_C@_1M@GKGFPKAP@?$AAe?$AAs?$AA?9?$AAe?$AAs?$AA?$AA@ 100234a8     libucrt:lcidtoname_downlevel.obj
 0002:000054b4       ??_C@_1M@LKHKGDLN@?$AAe?$AAs?$AA?9?$AAg?$AAt?$AA?$AA@ 100234b4     libucrt:lcidtoname_downlevel.obj
 0002:000054c0       ??_C@_1M@HEIIGGJD@?$AAe?$AAs?$AA?9?$AAh?$AAn?$AA?$AA@ 100234c0     libucrt:lcidtoname_downlevel.obj
 0002:000054cc       ??_C@_1M@FBDHPPGD@?$AAe?$AAs?$AA?9?$AAm?$AAx?$AA?$AA@ 100234cc     libucrt:lcidtoname_downlevel.obj
 0002:000054d8       ??_C@_1M@DPAGLNDH@?$AAe?$AAs?$AA?9?$AAn?$AAi?$AA?$AA@ 100234d8     libucrt:lcidtoname_downlevel.obj
 0002:000054e4       ??_C@_1M@MDGOPGDD@?$AAe?$AAs?$AA?9?$AAp?$AAa?$AA?$AA@ 100234e4     libucrt:lcidtoname_downlevel.obj
 0002:000054f0       ??_C@_1M@EMAMGBGE@?$AAe?$AAs?$AA?9?$AAp?$AAe?$AA?$AA@ 100234f0     libucrt:lcidtoname_downlevel.obj
 0002:000054fc       ??_C@_1M@IBMCAOEC@?$AAe?$AAs?$AA?9?$AAp?$AAr?$AA?$AA@ 100234fc     libucrt:lcidtoname_downlevel.obj
 0002:00005508       ??_C@_1M@FGMDIJED@?$AAe?$AAs?$AA?9?$AAp?$AAy?$AA?$AA@ 10023508     libucrt:lcidtoname_downlevel.obj
 0002:00005514       ??_C@_1M@IIDEOLLL@?$AAe?$AAs?$AA?9?$AAs?$AAv?$AA?$AA@ 10023514     libucrt:lcidtoname_downlevel.obj
 0002:00005520       ??_C@_1M@GAOBIPA@?$AAe?$AAs?$AA?9?$AAu?$AAy?$AA?$AA@ 10023520     libucrt:lcidtoname_downlevel.obj
 0002:0000552c       ??_C@_1M@JKFFICHJ@?$AAe?$AAs?$AA?9?$AAv?$AAe?$AA?$AA@ 1002352c     libucrt:lcidtoname_downlevel.obj
 0002:00005538       ??_C@_1M@PNMLOJDF@?$AAe?$AAt?$AA?9?$AAe?$AAe?$AA?$AA@ 10023538     libucrt:lcidtoname_downlevel.obj
 0002:00005544       ??_C@_1M@GHHLIKEI@?$AAe?$AAu?$AA?9?$AAe?$AAs?$AA?$AA@ 10023544     libucrt:lcidtoname_downlevel.obj
 0002:00005550       ??_C@_1M@PBNONODE@?$AAf?$AAa?$AA?9?$AAi?$AAr?$AA?$AA@ 10023550     libucrt:lcidtoname_downlevel.obj
 0002:0000555c       ??_C@_1M@JEEHPMIL@?$AAf?$AAi?$AA?9?$AAf?$AAi?$AA?$AA@ 1002355c     libucrt:lcidtoname_downlevel.obj
 0002:00005568       ??_C@_1M@LMDCNDBA@?$AAf?$AAo?$AA?9?$AAf?$AAo?$AA?$AA@ 10023568     libucrt:lcidtoname_downlevel.obj
 0002:00005574       ??_C@_1M@JKEOHLDK@?$AAf?$AAr?$AA?9?$AAb?$AAe?$AA?$AA@ 10023574     libucrt:lcidtoname_downlevel.obj
 0002:00005580       ??_C@_1M@NOHADPMI@?$AAf?$AAr?$AA?9?$AAc?$AAa?$AA?$AA@ 10023580     libucrt:lcidtoname_downlevel.obj
 0002:0000558c       ??_C@_1M@KDHIHAEC@?$AAf?$AAr?$AA?9?$AAc?$AAh?$AA?$AA@ 1002358c     libucrt:lcidtoname_downlevel.obj
 0002:00005598       ??_C@_1M@MMBBFGAK@?$AAf?$AAr?$AA?9?$AAf?$AAr?$AA?$AA@ 10023598     libucrt:lcidtoname_downlevel.obj
 0002:000055a4       ??_C@_1M@PAFNENNF@?$AAf?$AAr?$AA?9?$AAl?$AAu?$AA?$AA@ 100235a4     libucrt:lcidtoname_downlevel.obj
 0002:000055b0       ??_C@_1M@EOHDJGDD@?$AAf?$AAr?$AA?9?$AAm?$AAc?$AA?$AA@ 100235b0     libucrt:lcidtoname_downlevel.obj
 0002:000055bc       ??_C@_1M@FAPLLOPF@?$AAg?$AAl?$AA?9?$AAe?$AAs?$AA?$AA@ 100235bc     libucrt:lcidtoname_downlevel.obj
 0002:000055c8       ??_C@_1M@FOPBFLOO@?$AAg?$AAu?$AA?9?$AAi?$AAn?$AA?$AA@ 100235c8     libucrt:lcidtoname_downlevel.obj
 0002:000055d4       ??_C@_1M@KBMCINPM@?$AAh?$AAe?$AA?9?$AAi?$AAl?$AA?$AA@ 100235d4     libucrt:lcidtoname_downlevel.obj
 0002:000055e0       ??_C@_1M@BBPHKFPJ@?$AAh?$AAi?$AA?9?$AAi?$AAn?$AA?$AA@ 100235e0     libucrt:lcidtoname_downlevel.obj
 0002:000055ec       ??_C@_1M@PMBNDPHD@?$AAh?$AAr?$AA?9?$AAb?$AAa?$AA?$AA@ 100235ec     libucrt:lcidtoname_downlevel.obj
 0002:000055f8       ??_C@_1M@BPCKOEGE@?$AAh?$AAr?$AA?9?$AAh?$AAr?$AA?$AA@ 100235f8     libucrt:lcidtoname_downlevel.obj
 0002:00005604       ??_C@_1M@GACBMHKE@?$AAh?$AAu?$AA?9?$AAh?$AAu?$AA?$AA@ 10023604     libucrt:lcidtoname_downlevel.obj
 0002:00005610       ??_C@_1M@MILPAJJC@?$AAh?$AAy?$AA?9?$AAa?$AAm?$AA?$AA@ 10023610     libucrt:lcidtoname_downlevel.obj
 0002:0000561c       ??_C@_1M@BABBICEC@?$AAi?$AAd?$AA?9?$AAi?$AAd?$AA?$AA@ 1002361c     libucrt:lcidtoname_downlevel.obj
 0002:00005628       ??_C@_1M@BIKNHHPF@?$AAi?$AAs?$AA?9?$AAi?$AAs?$AA?$AA@ 10023628     libucrt:lcidtoname_downlevel.obj
 0002:00005634       ??_C@_1M@NMPCJPHE@?$AAi?$AAt?$AA?9?$AAc?$AAh?$AA?$AA@ 10023634     libucrt:lcidtoname_downlevel.obj
 0002:00005640       ??_C@_1M@GHKGFEDF@?$AAi?$AAt?$AA?9?$AAi?$AAt?$AA?$AA@ 10023640     libucrt:lcidtoname_downlevel.obj
 0002:0000564c       ??_C@_1M@NIEJCJJA@?$AAj?$AAa?$AA?9?$AAj?$AAp?$AA?$AA@ 1002364c     libucrt:lcidtoname_downlevel.obj
 0002:00005658       ??_C@_1M@JILFNBIM@?$AAk?$AAa?$AA?9?$AAg?$AAe?$AA?$AA@ 10023658     libucrt:lcidtoname_downlevel.obj
 0002:00005664       ??_C@_1M@PACPMGPH@?$AAk?$AAk?$AA?9?$AAk?$AAz?$AA?$AA@ 10023664     libucrt:lcidtoname_downlevel.obj
 0002:00005670       ??_C@_1M@IELFGMHA@?$AAk?$AAn?$AA?9?$AAi?$AAn?$AA?$AA@ 10023670     libucrt:lcidtoname_downlevel.obj
 0002:0000567c       ??_C@_1O@IBBJHCH@?$AAk?$AAo?$AAk?$AA?9?$AAi?$AAn?$AA?$AA@ 1002367c     libucrt:lcidtoname_downlevel.obj
 0002:0000568c       ??_C@_1M@DMHAEOGC@?$AAk?$AAo?$AA?9?$AAk?$AAr?$AA?$AA@ 1002368c     libucrt:lcidtoname_downlevel.obj
 0002:00005698       ??_C@_1M@HBAHBIGA@?$AAk?$AAy?$AA?9?$AAk?$AAg?$AA?$AA@ 10023698     libucrt:lcidtoname_downlevel.obj
 0002:000056a4       ??_C@_1M@KPMILCJG@?$AAl?$AAt?$AA?9?$AAl?$AAt?$AA?$AA@ 100236a4     libucrt:lcidtoname_downlevel.obj
 0002:000056b0       ??_C@_1M@BDEKKCA@?$AAl?$AAv?$AA?9?$AAl?$AAv?$AA?$AA@ 100236b0     libucrt:lcidtoname_downlevel.obj
 0002:000056bc       ??_C@_1M@ELCKCCJJ@?$AAm?$AAi?$AA?9?$AAn?$AAz?$AA?$AA@ 100236bc     libucrt:lcidtoname_downlevel.obj
 0002:000056c8       ??_C@_1M@CBOOLAPA@?$AAm?$AAk?$AA?9?$AAm?$AAk?$AA?$AA@ 100236c8     libucrt:lcidtoname_downlevel.obj
 0002:000056d4       ??_C@_1M@GPHNBJKN@?$AAm?$AAl?$AA?9?$AAi?$AAn?$AA?$AA@ 100236d4     libucrt:lcidtoname_downlevel.obj
 0002:000056e0       ??_C@_1M@PABJILIG@?$AAm?$AAn?$AA?9?$AAm?$AAn?$AA?$AA@ 100236e0     libucrt:lcidtoname_downlevel.obj
 0002:000056ec       ??_C@_1M@FGBKKIPG@?$AAm?$AAr?$AA?9?$AAi?$AAn?$AA?$AA@ 100236ec     libucrt:lcidtoname_downlevel.obj
 0002:000056f8       ??_C@_1M@NDBPDDAL@?$AAm?$AAs?$AA?9?$AAb?$AAn?$AA?$AA@ 100236f8     libucrt:lcidtoname_downlevel.obj
 0002:00005704       ??_C@_1M@OPIHOOPI@?$AAm?$AAs?$AA?9?$AAm?$AAy?$AA?$AA@ 10023704     libucrt:lcidtoname_downlevel.obj
 0002:00005710       ??_C@_1M@PPDBCNFM@?$AAm?$AAt?$AA?9?$AAm?$AAt?$AA?$AA@ 10023710     libucrt:lcidtoname_downlevel.obj
 0002:0000571c       ??_C@_1M@KDJDKMDD@?$AAn?$AAb?$AA?9?$AAn?$AAo?$AA?$AA@ 1002371c     libucrt:lcidtoname_downlevel.obj
 0002:00005728       ??_C@_1M@KFCFLMJP@?$AAn?$AAl?$AA?9?$AAb?$AAe?$AA?$AA@ 10023728     libucrt:lcidtoname_downlevel.obj
 0002:00005734       ??_C@_1M@KPOPDDGO@?$AAn?$AAl?$AA?9?$AAn?$AAl?$AA?$AA@ 10023734     libucrt:lcidtoname_downlevel.obj
 0002:00005740       ??_C@_1M@LJKPEMLN@?$AAn?$AAn?$AA?9?$AAn?$AAo?$AA?$AA@ 10023740     libucrt:lcidtoname_downlevel.obj
 0002:0000574c       ??_C@_1M@BDGHHBFL@?$AAn?$AAs?$AA?9?$AAz?$AAa?$AA?$AA@ 1002374c     libucrt:lcidtoname_downlevel.obj
 0002:00005758       ??_C@_1M@IDEHOAP@?$AAp?$AAa?$AA?9?$AAi?$AAn?$AA?$AA@ 10023758     libucrt:lcidtoname_downlevel.obj
 0002:00005764       ??_C@_1M@HDBKGOGH@?$AAp?$AAl?$AA?9?$AAp?$AAl?$AA?$AA@ 10023764     libucrt:lcidtoname_downlevel.obj
 0002:00005770       ??_C@_1M@LJLLCMEH@?$AAp?$AAt?$AA?9?$AAb?$AAr?$AA?$AA@ 10023770     libucrt:lcidtoname_downlevel.obj
 0002:0000577c       ??_C@_1M@NCMONAAL@?$AAp?$AAt?$AA?9?$AAp?$AAt?$AA?$AA@ 1002377c     libucrt:lcidtoname_downlevel.obj
 0002:00005788       ??_C@_1O@EAKMAJDN@?$AAq?$AAu?$AAz?$AA?9?$AAb?$AAo?$AA?$AA@ 10023788     libucrt:lcidtoname_downlevel.obj
 0002:00005798       ??_C@_1O@BHHPIGDN@?$AAq?$AAu?$AAz?$AA?9?$AAe?$AAc?$AA?$AA@ 10023798     libucrt:lcidtoname_downlevel.obj
 0002:000057a8       ??_C@_1O@GBAPEKMJ@?$AAq?$AAu?$AAz?$AA?9?$AAp?$AAe?$AA?$AA@ 100237a8     libucrt:lcidtoname_downlevel.obj
 0002:000057b8       ??_C@_1M@CLGLEFBO@?$AAr?$AAo?$AA?9?$AAr?$AAo?$AA?$AA@ 100237b8     libucrt:lcidtoname_downlevel.obj
 0002:000057c4       ??_C@_1M@CEEDODME@?$AAr?$AAu?$AA?9?$AAr?$AAu?$AA?$AA@ 100237c4     libucrt:lcidtoname_downlevel.obj
 0002:000057d0       ??_C@_1M@HPKKKMPP@?$AAs?$AAa?$AA?9?$AAi?$AAn?$AA?$AA@ 100237d0     libucrt:lcidtoname_downlevel.obj
 0002:000057dc       ??_C@_1M@BKMAIGOJ@?$AAs?$AAe?$AA?9?$AAf?$AAi?$AA?$AA@ 100237dc     libucrt:lcidtoname_downlevel.obj
 0002:000057e8       ??_C@_1M@NDPIFLFI@?$AAs?$AAe?$AA?9?$AAn?$AAo?$AA?$AA@ 100237e8     libucrt:lcidtoname_downlevel.obj
 0002:000057f4       ??_C@_1M@DANKKHJ@?$AAs?$AAe?$AA?9?$AAs?$AAe?$AA?$AA@ 100237f4     libucrt:lcidtoname_downlevel.obj
 0002:00005800       ??_C@_1M@PNBLONPJ@?$AAs?$AAk?$AA?9?$AAs?$AAk?$AA?$AA@ 10023800     libucrt:lcidtoname_downlevel.obj
 0002:0000580c       ??_C@_1M@LFMODOAL@?$AAs?$AAl?$AA?9?$AAs?$AAi?$AA?$AA@ 1002380c     libucrt:lcidtoname_downlevel.obj
 0002:00005818       ??_C@_1O@DFKOMPG@?$AAs?$AAm?$AAa?$AA?9?$AAn?$AAo?$AA?$AA@ 10023818     libucrt:lcidtoname_downlevel.obj
 0002:00005828       ??_C@_1O@NDKPBNNH@?$AAs?$AAm?$AAa?$AA?9?$AAs?$AAe?$AA?$AA@ 10023828     libucrt:lcidtoname_downlevel.obj
 0002:00005838       ??_C@_1O@PLLKBHAB@?$AAs?$AAm?$AAj?$AA?9?$AAn?$AAo?$AA?$AA@ 10023838     libucrt:lcidtoname_downlevel.obj
 0002:00005848       ??_C@_1O@CLEPOGCA@?$AAs?$AAm?$AAj?$AA?9?$AAs?$AAe?$AA?$AA@ 10023848     libucrt:lcidtoname_downlevel.obj
 0002:00005858       ??_C@_1O@DLGJGKMK@?$AAs?$AAm?$AAn?$AA?9?$AAf?$AAi?$AA?$AA@ 10023858     libucrt:lcidtoname_downlevel.obj
 0002:00005868       ??_C@_1O@OJDJGAJC@?$AAs?$AAm?$AAs?$AA?9?$AAf?$AAi?$AA?$AA@ 10023868     libucrt:lcidtoname_downlevel.obj
 0002:00005878       ??_C@_1M@BOFOGHPB@?$AAs?$AAq?$AA?9?$AAa?$AAl?$AA?$AA@ 10023878     libucrt:lcidtoname_downlevel.obj
 0002:00005884       ??_C@_1BG@LJBBIPGB@?$AAs?$AAr?$AA?9?$AAb?$AAa?$AA?9?$AAc?$AAy?$AAr?$AAl?$AA?$AA@ 10023884     libucrt:lcidtoname_downlevel.obj
 0002:0000589c       ??_C@_1BG@JLBENFOE@?$AAs?$AAr?$AA?9?$AAb?$AAa?$AA?9?$AAl?$AAa?$AAt?$AAn?$AA?$AA@ 1002389c     libucrt:lcidtoname_downlevel.obj
 0002:000058b4       ??_C@_1BG@KODPNHE@?$AAs?$AAr?$AA?9?$AAs?$AAp?$AA?9?$AAc?$AAy?$AAr?$AAl?$AA?$AA@ 100238b4     libucrt:lcidtoname_downlevel.obj
 0002:000058cc       ??_C@_1BG@CIOGKHPB@?$AAs?$AAr?$AA?9?$AAs?$AAp?$AA?9?$AAl?$AAa?$AAt?$AAn?$AA?$AA@ 100238cc     libucrt:lcidtoname_downlevel.obj
 0002:000058e4       ??_C@_1M@NGFJLMAC@?$AAs?$AAv?$AA?9?$AAf?$AAi?$AA?$AA@ 100238e4     libucrt:lcidtoname_downlevel.obj
 0002:000058f0       ??_C@_1M@MPJEJAJC@?$AAs?$AAv?$AA?9?$AAs?$AAe?$AA?$AA@ 100238f0     libucrt:lcidtoname_downlevel.obj
 0002:000058fc       ??_C@_1M@MPNDHLFK@?$AAs?$AAw?$AA?9?$AAk?$AAe?$AA?$AA@ 100238fc     libucrt:lcidtoname_downlevel.obj
 0002:00005908       ??_C@_1O@KOHBJJI@?$AAs?$AAy?$AAr?$AA?9?$AAs?$AAy?$AA?$AA@ 10023908     libucrt:lcidtoname_downlevel.obj
 0002:00005918       ??_C@_1M@LDCEFHA@?$AAt?$AAa?$AA?9?$AAi?$AAn?$AA?$AA@ 10023918     libucrt:lcidtoname_downlevel.obj
 0002:00005924       ??_C@_1M@CNJOFAK@?$AAt?$AAe?$AA?9?$AAi?$AAn?$AA?$AA@ 10023924     libucrt:lcidtoname_downlevel.obj
 0002:00005930       ??_C@_1M@GNAECACD@?$AAt?$AAh?$AA?9?$AAt?$AAh?$AA?$AA@ 10023930     libucrt:lcidtoname_downlevel.obj
 0002:0000593c       ??_C@_1M@CHBIHOJO@?$AAt?$AAn?$AA?9?$AAz?$AAa?$AA?$AA@ 1002393c     libucrt:lcidtoname_downlevel.obj
 0002:00005948       ??_C@_1M@GCCMIGPJ@?$AAt?$AAr?$AA?9?$AAt?$AAr?$AA?$AA@ 10023948     libucrt:lcidtoname_downlevel.obj
 0002:00005954       ??_C@_1M@CELMCNBK@?$AAt?$AAt?$AA?9?$AAr?$AAu?$AA?$AA@ 10023954     libucrt:lcidtoname_downlevel.obj
 0002:00005960       ??_C@_1M@KLMCELGA@?$AAu?$AAk?$AA?9?$AAu?$AAa?$AA?$AA@ 10023960     libucrt:lcidtoname_downlevel.obj
 0002:0000596c       ??_C@_1M@EPAJJAJF@?$AAu?$AAr?$AA?9?$AAp?$AAk?$AA?$AA@ 1002396c     libucrt:lcidtoname_downlevel.obj
 0002:00005978       ??_C@_1BG@GEGPMCDJ@?$AAu?$AAz?$AA?9?$AAu?$AAz?$AA?9?$AAc?$AAy?$AAr?$AAl?$AA?$AA@ 10023978     libucrt:lcidtoname_downlevel.obj
 0002:00005990       ??_C@_1BG@EGGKJILM@?$AAu?$AAz?$AA?9?$AAu?$AAz?$AA?9?$AAl?$AAa?$AAt?$AAn?$AA?$AA@ 10023990     libucrt:lcidtoname_downlevel.obj
 0002:000059a8       ??_C@_1M@GFOCLFF@?$AAv?$AAi?$AA?9?$AAv?$AAn?$AA?$AA@ 100239a8     libucrt:lcidtoname_downlevel.obj
 0002:000059b4       ??_C@_1M@CPAMEDFI@?$AAx?$AAh?$AA?9?$AAz?$AAa?$AA?$AA@ 100239b4     libucrt:lcidtoname_downlevel.obj
 0002:000059c0       ??_C@_1O@EBKIFIGN@?$AAz?$AAh?$AA?9?$AAc?$AAh?$AAs?$AA?$AA@ 100239c0     libucrt:lcidtoname_downlevel.obj
 0002:000059d0       ??_C@_1O@NMHPGANE@?$AAz?$AAh?$AA?9?$AAc?$AAh?$AAt?$AA?$AA@ 100239d0     libucrt:lcidtoname_downlevel.obj
 0002:000059e0       ??_C@_1M@LPINJOMC@?$AAz?$AAh?$AA?9?$AAc?$AAn?$AA?$AA@ 100239e0     libucrt:lcidtoname_downlevel.obj
 0002:000059ec       ??_C@_1M@OCJEJODD@?$AAz?$AAh?$AA?9?$AAh?$AAk?$AA?$AA@ 100239ec     libucrt:lcidtoname_downlevel.obj
 0002:000059f8       ??_C@_1M@DNDLJINH@?$AAz?$AAh?$AA?9?$AAm?$AAo?$AA?$AA@ 100239f8     libucrt:lcidtoname_downlevel.obj
 0002:00005a04       ??_C@_1M@MBFDNDND@?$AAz?$AAh?$AA?9?$AAs?$AAg?$AA?$AA@ 10023a04     libucrt:lcidtoname_downlevel.obj
 0002:00005a10       ??_C@_1M@IMEPLEPE@?$AAz?$AAh?$AA?9?$AAt?$AAw?$AA?$AA@ 10023a10     libucrt:lcidtoname_downlevel.obj
 0002:00005a1c       ??_C@_1M@BBGHNHJP@?$AAz?$AAu?$AA?9?$AAz?$AAa?$AA?$AA@ 10023a1c     libucrt:lcidtoname_downlevel.obj
 0002:00005a28       ?large_power_data@?1??multiply_by_power_of_ten@__crt_strtox@@YA_NAAUbig_integer@2@I@Z@4QBIB 10023a28     libucrt:cfout.obj
 0002:00006330       ?large_power_indices@?1??multiply_by_power_of_ten@__crt_strtox@@YA_NAAUbig_integer@2@I@Z@4QBUunpack_index@?1??12@YA_N0I@Z@B 10024330     libucrt:cfout.obj
 0002:000063c8       ?small_powers_of_ten@?6??multiply_by_power_of_ten@__crt_strtox@@YA_NAAUbig_integer@2@I@Z@4QBIB 100243c8     libucrt:cfout.obj
 0002:000063ec       ??_C@_01GBGANLPD@0?$AA@    100243ec     libucrt:cfout.obj
 0002:000063f0       ??_C@_05DNEBIAHO@1?$CDINF?$AA@ 100243f0     libucrt:cfout.obj
 0002:000063f8       ??_C@_06IMKFLFPG@1?$CDQNAN?$AA@ 100243f8     libucrt:cfout.obj
 0002:00006400       ??_C@_06PGGFOGJG@1?$CDSNAN?$AA@ 10024400     libucrt:cfout.obj
 0002:00006408       ??_C@_05PHHOCPM@1?$CDIND?$AA@ 10024408     libucrt:cfout.obj
 0002:00006570       __infinity                 10024570     libucrt:87tran.obj
 0002:0000657a       __minfinity                1002457a     libucrt:87tran.obj
 0002:00006584       __logemax                  10024584     libucrt:87tran.obj
 0002:000065aa       __OP_EXPjmptab             100245aa     libucrt:87tran.obj
 0002:000065d0       __indefinite               100245d0     libucrt:87disp.obj
 0002:000065da       __piby2                    100245da     libucrt:87disp.obj
 0002:000065e4       __piby4                    100245e4     libucrt:87disp.obj
 0002:00006618       __DEFAULT_CW_in_mem        10024618     libucrt:common.obj
 0002:0000661a       __pi_by_2_to_61            1002461a     libucrt:common.obj
 0002:00006654       ??_C@_03MGHMBJCF@log?$AA@  10024654     libucrt:libm_error.obj
 0002:00006658       ??_C@_05HGHHAHAP@log10?$AA@ 10024658     libucrt:libm_error.obj
 0002:00006660       ??_C@_03KHJOGHMM@exp?$AA@  10024660     libucrt:libm_error.obj
 0002:00006664       ??_C@_03JGHBODFD@pow?$AA@  10024664     libucrt:libm_error.obj
 0002:00006668       ??_C@_04FIHNOPOL@asin?$AA@ 10024668     libucrt:libm_error.obj
 0002:00006670       ??_C@_04PDIFKINK@acos?$AA@ 10024670     libucrt:libm_error.obj
 0002:00006678       ??_C@_04EIAKFFMI@sqrt?$AA@ 10024678     libucrt:libm_error.obj
 0002:00006680       __real@3ff0000000000000    10024680     libucrt:libm_error.obj
 0002:000066a0       ___acrt_log10_table_t      100246a0     libucrt:log10_tables.obj
 0002:00006ab0       ___acrt_log10_table_cb     10024ab0     libucrt:log10_tables.obj
 0002:00006ec0       __real@3fe0000000000000    10024ec0     libucrt:powhlp.obj
 0002:00006ec8       ??_C@_04FJHINJAO@tanh?$AA@ 10024ec8     libucrt:fpexcept.obj
 0002:00006ed0       ??_C@_04MLLJIGOK@atan?$AA@ 10024ed0     libucrt:fpexcept.obj
 0002:00006ed8       ??_C@_05KNGEOGJB@atan2?$AA@ 10024ed8     libucrt:fpexcept.obj
 0002:00006ee0       ??_C@_03BLEJJJBH@sin?$AA@  10024ee0     libucrt:fpexcept.obj
 0002:00006ee4       ??_C@_03LALBNOCG@cos?$AA@  10024ee4     libucrt:fpexcept.obj
 0002:00006ee8       ??_C@_03IIINPABG@tan?$AA@  10024ee8     libucrt:fpexcept.obj
 0002:00006eec       ??_C@_04GFPJNGEK@ceil?$AA@ 10024eec     libucrt:fpexcept.obj
 0002:00006ef4       ??_C@_05PBJFFIGL@floor?$AA@ 10024ef4     libucrt:fpexcept.obj
 0002:00006efc       ??_C@_04ODHECPBC@fabs?$AA@ 10024efc     libucrt:fpexcept.obj
 0002:00006f04       ??_C@_04EHEDPDJG@modf?$AA@ 10024f04     libucrt:fpexcept.obj
 0002:00006f0c       ??_C@_05CEJMAHNP@ldexp?$AA@ 10024f0c     libucrt:fpexcept.obj
 0002:00006f14       ??_C@_05KBKMEMPO@_cabs?$AA@ 10024f14     libucrt:fpexcept.obj
 0002:00006f1c       ??_C@_06MEIMCGCF@_hypot?$AA@ 10024f1c     libucrt:fpexcept.obj
 0002:00006f24       ??_C@_04KEPJIHGP@fmod?$AA@ 10024f24     libucrt:fpexcept.obj
 0002:00006f2c       ??_C@_05GKKHEGJL@frexp?$AA@ 10024f2c     libucrt:fpexcept.obj
 0002:00006f34       ??_C@_03MJLDFKDL@_y0?$AA@  10024f34     libucrt:fpexcept.obj
 0002:00006f38       ??_C@_03NAKIGLHK@_y1?$AA@  10024f38     libucrt:fpexcept.obj
 0002:00006f3c       ??_C@_03ONILCKOB@_yn?$AA@  10024f3c     libucrt:fpexcept.obj
 0002:00006f40       ??_C@_05JGDBENOH@_logb?$AA@ 10024f40     libucrt:fpexcept.obj
 0002:00006f48       ??_C@_0L@KDOEJCKC@_nextafter?$AA@ 10024f48     libucrt:fpexcept.obj
 0002:00007040       ??_C@_04COOMCNPB@sinh?$AA@ 10025040     libucrt:fpexcept.obj
 0002:00007048       ??_C@_04HPJJNFIM@cosh?$AA@ 10025048     libucrt:fpexcept.obj
 0002:00007050       __d_inf                    10025050     libucrt:util.obj
 0002:00007058       __d_max                    10025058     libucrt:util.obj
 0002:00007060       __d_mzero                  10025060     libucrt:util.obj
 0002:00007068       ??_C@_1BA@BALFACEM@?$AAC?$AAO?$AAN?$AAO?$AAU?$AAT?$AA$?$AA?$AA@ 10025068     libucrt:initcon.obj
 0002:000070d8       __load_config_used         100250d8     LIBCMT:loadcfg.obj
 0002:00007178       __tls_used                 10025178     LIBCMT:tlssup.obj
 0002:00007190       ??_R4exception@std@@6B@    10025190     LIBCMT:throw_bad_alloc.obj
 0002:000071a4       ??_R3exception@std@@8      100251a4     LIBCMT:throw_bad_alloc.obj
 0002:000071b4       ??_R2exception@std@@8      100251b4     LIBCMT:throw_bad_alloc.obj
 0002:000071bc       ??_R1A@?0A@EA@exception@std@@8 100251bc     LIBCMT:throw_bad_alloc.obj
 0002:000071d8       ??_R4bad_alloc@std@@6B@    100251d8     LIBCMT:throw_bad_alloc.obj
 0002:000071ec       ??_R3bad_alloc@std@@8      100251ec     LIBCMT:throw_bad_alloc.obj
 0002:000071fc       ??_R2bad_alloc@std@@8      100251fc     LIBCMT:throw_bad_alloc.obj
 0002:00007208       ??_R1A@?0A@EA@bad_alloc@std@@8 10025208     LIBCMT:throw_bad_alloc.obj
 0002:00007224       ??_R4bad_array_new_length@std@@6B@ 10025224     LIBCMT:throw_bad_alloc.obj
 0002:00007238       ??_R3bad_array_new_length@std@@8 10025238     LIBCMT:throw_bad_alloc.obj
 0002:00007248       ??_R2bad_array_new_length@std@@8 10025248     LIBCMT:throw_bad_alloc.obj
 0002:00007258       ??_R1A@?0A@EA@bad_array_new_length@std@@8 10025258     LIBCMT:throw_bad_alloc.obj
 0002:00007274       ??_R4type_info@@6B@        10025274     LIBCMT:std_type_info_static.obj
 0002:00007288       ??_R3type_info@@8          10025288     LIBCMT:std_type_info_static.obj
 0002:00007298       ??_R2type_info@@8          10025298     LIBCMT:std_type_info_static.obj
 0002:000072a0       ??_R1A@?0A@EA@type_info@@8 100252a0     LIBCMT:std_type_info_static.obj
 0002:000072bc       ??_R4bad_exception@std@@6B@ 100252bc     libvcruntime:frame.obj
 0002:000072d0       ??_R3bad_exception@std@@8  100252d0     libvcruntime:frame.obj
 0002:000072e0       ??_R2bad_exception@std@@8  100252e0     libvcruntime:frame.obj
 0002:000072ec       ??_R1A@?0A@EA@bad_exception@std@@8 100252ec     libvcruntime:frame.obj
 0002:00007310       ___safe_se_handler_table   10025310     <linker-defined>
 0002:00007710       ___rtc_iaa                 10025710     LIBCMT:initsect.obj
 0002:00007714       ___rtc_izz                 10025714     LIBCMT:initsect.obj
 0002:00007718       ___rtc_taa                 10025718     LIBCMT:initsect.obj
 0002:0000771c       ___rtc_tzz                 1002571c     LIBCMT:initsect.obj
 0002:00007720       __tls_start                10025720     LIBCMT:tlssup.obj
 0002:00007724       __Init_thread_epoch        10025724     LIBCMT:thread_safe_statics.obj
 0002:00007728       __tls_end                  10025728     LIBCMT:tlssup.obj
 0002:00007844       __TI2?AVbad_alloc@std@@    10025844     LIBCMT:throw_bad_alloc.obj
 0002:00007854       __CTA2?AVbad_alloc@std@@   10025854     LIBCMT:throw_bad_alloc.obj
 0002:00007860       __CT??_R0?AVbad_alloc@std@@@8??0bad_alloc@std@@QAE@ABV01@@Z12 10025860     LIBCMT:throw_bad_alloc.obj
 0002:0000787c       __CT??_R0?AVexception@std@@@8??0exception@std@@QAE@ABV01@@Z12 1002587c     LIBCMT:throw_bad_alloc.obj
 0002:00007898       __TI3?AVbad_array_new_length@std@@ 10025898     LIBCMT:throw_bad_alloc.obj
 0002:000078a8       __CTA3?AVbad_array_new_length@std@@ 100258a8     LIBCMT:throw_bad_alloc.obj
 0002:000078b8       __CT??_R0?AVbad_array_new_length@std@@@8??0bad_array_new_length@std@@QAE@ABV01@@Z12 100258b8     LIBCMT:throw_bad_alloc.obj
 0002:000079bc       __TI2?AVbad_exception@std@@ 100259bc     libvcruntime:frame.obj
 0002:000079cc       __CTA2?AVbad_exception@std@@ 100259cc     libvcruntime:frame.obj
 0002:000079d8       __CT??_R0?AVbad_exception@std@@@8??0bad_exception@std@@QAE@ABV01@@Z12 100259d8     libvcruntime:frame.obj
 0002:00007d24       ___pobjMapEntryFirst       10025d24     OposVariant.obj
 0002:00007d28       ___pobjMapEntryLast        10025d28     OposVariant.obj
 0002:00007de0       __IMPORT_DESCRIPTOR_KERNEL32 10025de0     kernel32:KERNEL32.dll
 0002:00007df4       __IMPORT_DESCRIPTOR_USER32 10025df4     user32:USER32.dll
 0002:00007e08       __IMPORT_DESCRIPTOR_GDI32  10025e08     gdi32:GDI32.dll
 0002:00007e1c       __IMPORT_DESCRIPTOR_ADVAPI32 10025e1c     advapi32:ADVAPI32.dll
 0002:00007e30       __IMPORT_DESCRIPTOR_ole32  10025e30     ole32:ole32.dll
 0002:00007e44       __IMPORT_DESCRIPTOR_OLEAUT32 10025e44     oleaut32:OLEAUT32.dll
 0002:00007e58       __NULL_IMPORT_DESCRIPTOR   10025e58     kernel32:KERNEL32.dll
 0003:00000000       ?wc@?1??GetWndClassInfo@?$CWindowImpl@VCOPOSImageScanner@@VCWindow@ATL@@V?$CWinTraits@$0FGAAAAAA@$0A@@3@@ATL@@SAAAU_ATL_WNDCLASSINFOW@3@XZ@4U43@A 10027000     ImageScanner.obj
 0003:0000008c       ?s_Claim@?7??GetIDsOfNames@CComTypeInfoHolder@ATL@@QAEJABU_GUID@@PAPA_WIKPAJ@Z@4PA_WA 1002708c     ImageScanner.obj
 0003:000000a4       ?s_Release@?7??GetIDsOfNames@CComTypeInfoHolder@ATL@@QAEJABU_GUID@@PAPA_WIKPAJ@Z@4PA_WA 100270a4     ImageScanner.obj
 0003:000000c0       ?rcDefault@CWindow@ATL@@2UtagRECT@@A 100270c0     ImageScanner.obj
 0003:000000d0       ?_tih@?$IDispatchImpl@UIOPOSImageScanner@@$1?IID_IOPOSImageScanner@@3U_GUID@@B$1?LIBID_OposImageScanner_CCO@@3U3@B$00$0A@VCComTypeInfoHolder@ATL@@@ATL@@1VCComTypeInfoHolder@2@A 100270d0     ImageScanner.obj
 0003:000000ec       ?_tih@?$IProvideClassInfo2Impl@$1?CLSID_OPOSImageScanner@@3U_GUID@@B$1?DIID__IOPOSImageScannerEvents@@3U2@B$1?LIBID_OposImageScanner_CCO@@3U2@B$00$0A@VCComTypeInfoHolder@ATL@@@ATL@@1VCComTypeInfoHolder@2@A 100270ec     ImageScanner.obj
 0003:00000108       ?vszContents@?6??Save@?$IPersistStorageImpl@VCOPOSImageScanner@@@ATL@@UAGJPAUIStorage@@H@Z@4PB_WB 10027108     ImageScanner.obj
 0003:00000158       ?g_WindowName@@3PA_WA      10027158     ImageScannerImpl.obj
 0003:00000180       ?g_ControlDescription@@3PADA 10027180     ImageScannerImpl.obj
 0003:000001b8       ?g_ControlVersion@@3JA     100271b8     ImageScannerImpl.obj
 0003:00000214       ___scrt_native_dllmain_reason 10027214     LIBCMT:utility.obj
 0003:00000218       __Init_global_epoch        10027218     LIBCMT:thread_safe_statics.obj
 0003:00000220       ___security_cookie_complement 10027220     LIBCMT:gs_cookie.obj
 0003:00000224       ___security_cookie         10027224     LIBCMT:gs_cookie.obj
 0003:00000228       ___isa_enabled             10027228     LIBCMT:cpu_disp.obj
 0003:00000240       __NLG_Destination          10027240     libvcruntime:exsup.obj
 0003:00000258       ___abort_behavior          10027258     libucrt:abort.obj
 0003:00000268       __iob                      10027268     libucrt:_file.obj
 0003:00000310       ___acrt_initial_locale_data 10027310     libucrt:nlsdata.obj
 0003:000003c8       ___acrt_initial_locale_pointers 100273c8     libucrt:nlsdata.obj
 0003:000003d0       ___acrt_wide_c_locale_string 100273d0     libucrt:nlsdata.obj
 0003:000004c8       __mbctype                  100274c8     libucrt:mbctype.obj
 0003:000005d0       __mbcasemap                100275d0     libucrt:mbctype.obj
 0003:000006d0       ___acrt_initial_multibyte_data 100276d0     libucrt:mbctype.obj
 0003:000008f0       ___acrt_current_multibyte_data 100278f0     libucrt:mbctype.obj
 0003:000008f4       __pwctype                  100278f4     libucrt:ctype.obj
 0003:000008f8       ___globallocalestatus      100278f8     libucrt:glstatus.obj
 0003:000008fc       ___acrt_lconv_static_decimal 100278fc     libucrt:localeconv.obj
 0003:00000900       ___acrt_lconv_static_W_decimal 10027900     libucrt:localeconv.obj
 0003:00000908       ___acrt_lconv_c            10027908     libucrt:localeconv.obj
 0003:00000960       ___dcrt_lowio_console_output_handle 10027960     libucrt:initcon.obj
 0003:00000970       __fltused                  10027970     LIBCMT:fltused.obj
 0003:00000980       ??_R0?AVbad_alloc@std@@@8  10027980     LIBCMT:throw_bad_alloc.obj
 0003:0000099c       ??_R0?AVexception@std@@@8  1002799c     LIBCMT:throw_bad_alloc.obj
 0003:000009b8       ??_R0?AVbad_array_new_length@std@@@8 100279b8     LIBCMT:throw_bad_alloc.obj
 0003:000009e0       ??_R0?AVtype_info@@@8      100279e0     LIBCMT:std_type_info_static.obj
 0003:000009f8       ??_R0?AVbad_exception@std@@@8 100279f8     libvcruntime:frame.obj
 0003:00000a18       ?m_bInitFailed@CAtlBaseModule@ATL@@2_NA 10027a18     OposVariant.obj
 0003:00000a1c       ?_pPerfRegFunc@ATL@@3P6AJPAUHINSTANCE__@@@ZA 10027a1c     OposVariant.obj
 0003:00000a20       ?_pPerfUnRegFunc@ATL@@3P6AJXZA 10027a20     OposVariant.obj
 0003:00000a24       ?_AtlRegisterPerUser@ATL@@3_NA 10027a24     OposVariant.obj
 0003:00000a28       ?_pAtlModule@ATL@@3PAVCAtlModule@1@A 10027a28     OposVariant.obj
 0003:00000a2c       ?_pModule@ATL@@3PAVCComModule@1@A 10027a2c     OposVariant.obj
 0003:00000a30       ?_AtlComModule@ATL@@3VCAtlComModule@1@A 10027a30     OposVariant.obj
 0003:00000a58       ?_AtlWinModule@ATL@@3VCAtlWinModule@1@A 10027a58     OposVariant.obj
 0003:00000a84       ?m_libid@CAtlModule@ATL@@2U_GUID@@A 10027a84     ImageScanner.obj
 0003:00000a94       ?_entries@?1??GetConnMap@COPOSImageScanner@@SAPBU_ATL_CONNMAP_ENTRY@ATL@@PAH@Z@4QBU34@B 10027a94     ImageScanner.obj
 0003:00000aa0       ?$TSS0@?1??GetConnMap@COPOSImageScanner@@SAPBU_ATL_CONNMAP_ENTRY@ATL@@PAH@Z@4HA 10027aa0     ImageScanner.obj
 0003:00000aa8       ?_OptionsStorage@?1??__local_stdio_printf_options@@9@4_KA 10027aa8     ImageScanner.obj
 0003:00000ab0       ?pfnRegDeleteKeyEx@?1??DeleteSubKey@CRegKey@ATL@@QAEJPB_W@Z@4P6GJPAUHKEY__@@0KK@ZA 10027ab0     ImageScanner.obj
 0003:00000ab4       ?bInitialized@?1??DeleteSubKey@CRegKey@ATL@@QAEJPB_W@Z@4_NA 10027ab4     ImageScanner.obj
 0003:00000ab8       ?_Module@@3VCComModule@ATL@@A 10027ab8     ImageScanner.obj
 0003:00000ae8       ?pConnMap@?$IConnectionPointContainerImpl@VCOPOSImageScanner@@@ATL@@0PBU_ATL_CONNMAP_ENTRY@2@B 10027ae8     ImageScanner.obj
 0003:00000aec       ?s_nInstances@COPOSImageScanner@@1HA 10027aec     ImageScannerImpl.obj
 0003:00000af0       ___scrt_current_native_startup_state 10027af0     LIBCMT:utility.obj
 0003:00000af4       ___scrt_native_startup_lock 10027af4     LIBCMT:utility.obj
 0003:00000e5c       __tls_index                10027e5c     LIBCMT:tlssup.obj
 0003:00000e64       ___isa_available           10027e64     LIBCMT:cpu_disp.obj
 0003:00000e68       ___favor                   10027e68     LIBCMT:cpu_disp.obj
 0003:00000e6c       ___scrt_debugger_hook_flag 10027e6c     LIBCMT:utility_desktop.obj
 0003:00000e70       ?__type_info_root_node@@3U__type_info_node@@A 10027e70     LIBCMT:tncleanup.obj
 0003:00000e78       ?_OptionsStorage@?1??__local_stdio_scanf_options@@9@4_KA 10027e78     LIBCMT:default_local_stdio_options.obj
 0003:00000e80       ?_AtlBaseModule@ATL@@3VCAtlBaseModule@1@A 10027e80     atls:atlbase.obj
 0003:00000eb8       ?__AtlThunkPool@@3PAT_SLIST_HEADER@@A 10027eb8     atls:atlthunk.obj
 0003:00000ed0       ___@@_PchSym_@00@UztvmgUPdlipUDUhUrmgvinvwrzgvUexgllohUzgohOmzgrevkilqPBACIAJCBDBUlyqiUcIGUhgwzucOlyq@4B2008FD98C1DD4 10027ed0     atls:stdafx.obj
 0003:00000ed4       ___pPurecall               10027ed4     libvcruntime:purevirt_data.obj
 0003:00000f3c       ?pArgList@UnDecorator@@0PAVReplicator@@A 10027f3c     libvcruntime:undname.obj
 0003:00000f40       ?pZNameList@UnDecorator@@0PAVReplicator@@A 10027f40     libvcruntime:undname.obj
 0003:00000f44       ?pTemplateArgList@UnDecorator@@0PAVReplicator@@A 10027f44     libvcruntime:undname.obj
 0003:00000f48       ?gName@UnDecorator@@0PBDB  10027f48     libvcruntime:undname.obj
 0003:00000f4c       ?name@UnDecorator@@0PBDB   10027f4c     libvcruntime:undname.obj
 0003:00000f50       ?disableFlags@UnDecorator@@0KA 10027f50     libvcruntime:undname.obj
 0003:00000f54       ?fExplicitTemplateParams@UnDecorator@@0_NA 10027f54     libvcruntime:undname.obj
 0003:00000f55       ?fGetTemplateArgumentList@UnDecorator@@0_NA 10027f55     libvcruntime:undname.obj
 0003:00000f58       ?m_pGetParameter@UnDecorator@@0P6APADJ@ZA 10027f58     libvcruntime:undname.obj
 0003:00000f5c       ?m_CHPENameOffset@UnDecorator@@0KA 10027f5c     libvcruntime:undname.obj
 0003:00000f60       ?m_recursionLevel@UnDecorator@@0KA 10027f60     libvcruntime:undname.obj
 0003:00000f78       ?__WinRTOutOfMemoryExceptionCallback@@3P6GPAXXZA 10027f78     libvcruntime:ehhelpers.obj
 0003:00001098       __environ_table            10028098     libucrt:environment_initialization.obj
 0003:0000109c       __wenviron_table           1002809c     libucrt:environment_initialization.obj
 0003:000010a0       ___dcrt_initial_wide_environment 100280a0     libucrt:environment_initialization.obj
 0003:000010a4       ___dcrt_initial_narrow_environment 100280a4     libucrt:environment_initialization.obj
 0003:000010a8       ___acrt_atexit_table       100280a8     libucrt:onexit.obj
 0003:000010b4       ___acrt_at_quick_exit_table 100280b4     libucrt:onexit.obj
 0003:0000119c       __nstream                  1002819c     libucrt:_file.obj
 0003:000011a0       ___piob                    100281a0     libucrt:_file.obj
 0003:000011a8       ___acrt_stdout_buffer      100281a8     libucrt:_sftbuf.obj
 0003:000011ac       ___acrt_stderr_buffer      100281ac     libucrt:_sftbuf.obj
 0003:000011b0       ___acrt_locale_changed_data 100281b0     libucrt:wsetlocale.obj
 0003:000011b4       ___acrt_current_locale_data 100281b4     libucrt:nlsdata.obj
 0003:000011b8       ___pioinfo                 100281b8     libucrt:ioinit.obj
 0003:000013b8       __nhandle                  100283b8     libucrt:ioinit.obj
 0003:000014fc       ___mblocalename            100284fc     libucrt:mbctype.obj
 0003:00001500       ___mbcodepage              10028500     libucrt:mbctype.obj
 0003:00001504       ___ismbcodepage            10028504     libucrt:mbctype.obj
 0003:00001508       ___mbulinfo                10028508     libucrt:mbctype.obj
 0003:0000151c       ___argc                    1002851c     libucrt:argv_data.obj
 0003:00001520       ___argv                    10028520     libucrt:argv_data.obj
 0003:00001524       ___wargv                   10028524     libucrt:argv_data.obj
 0003:00001528       __acmdln                   10028528     libucrt:argv_data.obj
 0003:0000152c       __wcmdln                   1002852c     libucrt:argv_data.obj
 0003:00001530       __pgmptr                   10028530     libucrt:argv_data.obj
 0003:00001534       ___acrt_heap               10028534     libucrt:heap_handle.obj
 0003:00001550       ___acrt_lconv_static_null  10028550     libucrt:localeconv.obj
 0003:00001554       ___acrt_lconv_static_W_null 10028554     libucrt:localeconv.obj
 0003:0000155c       ___fastflag                1002855c     libucrt:fp_flags.obj
 0003:00001564       ___dyn_tls_init_callback   10028564     <common>
 0003:00001568       ___scrt_ucrt_dll_is_in_use 10028568     <common>
 0003:0000156c       __pmatherr                 1002856c     <common>
 0003:00001570       ___use_sse2_mathfcns       10028570     <common>

 entry point at        0001:0000bd1d

 Static symbols

 0000:fffd0000       .debug$S                   10000000     gdi32:GDI32.dll
 0000:fffd0000       .debug$S                   10000000     gdi32:GDI32.dll
 0000:fffd0000       .debug$S                   10000000     gdi32:GDI32.dll
 0000:fffd0000       .debug$S                   10000000     gdi32:GDI32.dll
 0000:fffd0000       .debug$S                   10000000     gdi32:GDI32.dll
 0000:fffd0000       .debug$S                   10000000     gdi32:GDI32.dll
 0000:fffd0000       .debug$S                   10000000     gdi32:GDI32.dll
 0000:fffd0000       .debug$S                   10000000     gdi32:GDI32.dll
 0000:fffd0000       .debug$S                   10000000     gdi32:GDI32.dll
 0000:fffd0000       .debug$S                   10000000     gdi32:GDI32.dll
 0000:fffd0000       .debug$S                   10000000     gdi32:GDI32.dll
 0000:fffd0000       .debug$S                   10000000     gdi32:GDI32.dll
 0000:fffd0000       .debug$S                   10000000     gdi32:GDI32.dll
 0000:fffd0000       .debug$S                   10000000     gdi32:GDI32.dll
 0000:fffd0000       .debug$S                   10000000     gdi32:GDI32.dll
 0000:fffd0000       .debug$S                   10000000     OPOSImageScanner.exp
 0000:fffd0000       .debug$S                   10000000     gdi32:GDI32.dll
 0000:fffd0000       .debug$S                   10000000     advapi32:ADVAPI32.dll
 0000:fffd0000       .debug$S                   10000000     advapi32:ADVAPI32.dll
 0000:fffd0000       .debug$S                   10000000     advapi32:ADVAPI32.dll
 0000:fffd0000       .debug$S                   10000000     advapi32:ADVAPI32.dll
 0000:fffd0000       .debug$S                   10000000     advapi32:ADVAPI32.dll
 0000:fffd0000       .debug$S                   10000000     advapi32:ADVAPI32.dll
 0000:fffd0000       .debug$S                   10000000     advapi32:ADVAPI32.dll
 0000:fffd0000       .debug$S                   10000000     advapi32:ADVAPI32.dll
 0000:fffd0000       .debug$S                   10000000     advapi32:ADVAPI32.dll
 0000:fffd0000       .debug$S                   10000000     kernel32:KERNEL32.dll
 0000:fffd0000       .debug$S                   10000000     kernel32:KERNEL32.dll
 0000:fffd0000       .debug$S                   10000000     kernel32:KERNEL32.dll
 0000:fffd0000       .debug$S                   10000000     kernel32:KERNEL32.dll
 0000:fffd0000       .debug$S                   10000000     kernel32:KERNEL32.dll
 0000:fffd0000       .debug$S                   10000000     kernel32:KERNEL32.dll
 0000:fffd0000       .debug$S                   10000000     kernel32:KERNEL32.dll
 0000:fffd0000       .debug$S                   10000000     kernel32:KERNEL32.dll
 0000:fffd0000       .debug$S                   10000000     kernel32:KERNEL32.dll
 0000:fffd0000       .debug$S                   10000000     kernel32:KERNEL32.dll
 0000:fffd0000       .debug$S                   10000000     kernel32:KERNEL32.dll
 0000:fffd0000       .debug$S                   10000000     kernel32:KERNEL32.dll
 0000:fffd0000       .debug$S                   10000000     kernel32:KERNEL32.dll
 0000:fffd0000       .debug$S                   10000000     kernel32:KERNEL32.dll
 0000:fffd0000       .debug$S                   10000000     kernel32:KERNEL32.dll
 0000:fffd0000       .debug$S                   10000000     kernel32:KERNEL32.dll
 0000:fffd0000       .debug$S                   10000000     kernel32:KERNEL32.dll
 0000:fffd0000       .debug$S                   10000000     kernel32:KERNEL32.dll
 0000:fffd0000       .debug$S                   10000000     kernel32:KERNEL32.dll
 0000:fffd0000       .debug$S                   10000000     kernel32:KERNEL32.dll
 0000:fffd0000       .debug$S                   10000000     kernel32:KERNEL32.dll
 0000:fffd0000       .debug$S                   10000000     kernel32:KERNEL32.dll
 0000:fffd0000       .debug$S                   10000000     kernel32:KERNEL32.dll
 0000:fffd0000       .debug$S                   10000000     kernel32:KERNEL32.dll
 0000:fffd0000       .debug$S                   10000000     kernel32:KERNEL32.dll
 0000:fffd0000       .debug$S                   10000000     kernel32:KERNEL32.dll
 0000:fffd0000       .debug$S                   10000000     kernel32:KERNEL32.dll
 0000:fffd0000       .debug$S                   10000000     kernel32:KERNEL32.dll
 0000:fffd0000       .debug$S                   10000000     kernel32:KERNEL32.dll
 0000:fffd0000       .debug$S                   10000000     kernel32:KERNEL32.dll
 0000:fffd0000       .debug$S                   10000000     kernel32:KERNEL32.dll
 0000:fffd0000       .debug$S                   10000000     kernel32:KERNEL32.dll
 0000:fffd0000       .debug$S                   10000000     kernel32:KERNEL32.dll
 0000:fffd0000       .debug$S                   10000000     kernel32:KERNEL32.dll
 0000:fffd0000       .debug$S                   10000000     kernel32:KERNEL32.dll
 0000:fffd0000       .debug$S                   10000000     kernel32:KERNEL32.dll
 0000:fffd0000       .debug$S                   10000000     kernel32:KERNEL32.dll
 0000:fffd0000       .debug$S                   10000000     kernel32:KERNEL32.dll
 0000:fffd0000       .debug$S                   10000000     kernel32:KERNEL32.dll
 0000:fffd0000       .debug$S                   10000000     kernel32:KERNEL32.dll
 0000:fffd0000       .debug$S                   10000000     kernel32:KERNEL32.dll
 0000:fffd0000       .debug$S                   10000000     kernel32:KERNEL32.dll
 0000:fffd0000       .debug$S                   10000000     kernel32:KERNEL32.dll
 0000:fffd0000       .debug$S                   10000000     kernel32:KERNEL32.dll
 0000:fffd0000       .debug$S                   10000000     kernel32:KERNEL32.dll
 0000:fffd0000       .debug$S                   10000000     kernel32:KERNEL32.dll
 0000:fffd0000       .debug$S                   10000000     kernel32:KERNEL32.dll
 0000:fffd0000       .debug$S                   10000000     kernel32:KERNEL32.dll
 0000:fffd0000       .debug$S                   10000000     kernel32:KERNEL32.dll
 0000:fffd0000       .debug$S                   10000000     kernel32:KERNEL32.dll
 0000:fffd0000       .debug$S                   10000000     kernel32:KERNEL32.dll
 0000:fffd0000       .debug$S                   10000000     kernel32:KERNEL32.dll
 0000:fffd0000       .debug$S                   10000000     kernel32:KERNEL32.dll
 0000:fffd0000       .debug$S                   10000000     kernel32:KERNEL32.dll
 0000:fffd0000       .debug$S                   10000000     kernel32:KERNEL32.dll
 0000:fffd0000       .debug$S                   10000000     kernel32:KERNEL32.dll
 0000:fffd0000       .debug$S                   10000000     kernel32:KERNEL32.dll
 0000:fffd0000       .debug$S                   10000000     kernel32:KERNEL32.dll
 0000:fffd0000       .debug$S                   10000000     kernel32:KERNEL32.dll
 0000:fffd0000       .debug$S                   10000000     kernel32:KERNEL32.dll
 0000:fffd0000       .debug$S                   10000000     kernel32:KERNEL32.dll
 0000:fffd0000       .debug$S                   10000000     kernel32:KERNEL32.dll
 0000:fffd0000       .debug$S                   10000000     kernel32:KERNEL32.dll
 0000:fffd0000       .debug$S                   10000000     kernel32:KERNEL32.dll
 0000:fffd0000       .debug$S                   10000000     kernel32:KERNEL32.dll
 0000:fffd0000       .debug$S                   10000000     kernel32:KERNEL32.dll
 0000:fffd0000       .debug$S                   10000000     kernel32:KERNEL32.dll
 0000:fffd0000       .debug$S                   10000000     kernel32:KERNEL32.dll
 0000:fffd0000       .debug$S                   10000000     kernel32:KERNEL32.dll
 0000:fffd0000       .debug$S                   10000000     kernel32:KERNEL32.dll
 0000:fffd0000       .debug$S                   10000000     kernel32:KERNEL32.dll
 0000:fffd0000       .debug$S                   10000000     kernel32:KERNEL32.dll
 0000:fffd0000       .debug$S                   10000000     kernel32:KERNEL32.dll
 0000:fffd0000       .debug$S                   10000000     kernel32:KERNEL32.dll
 0000:fffd0000       .debug$S                   10000000     gdi32:GDI32.dll
 0000:fffd0000       .debug$S                   10000000     ole32:ole32.dll
 0000:fffd0000       .debug$S                   10000000     ole32:ole32.dll
 0000:fffd0000       .debug$S                   10000000     ole32:ole32.dll
 0000:fffd0000       .debug$S                   10000000     ole32:ole32.dll
 0000:fffd0000       .debug$S                   10000000     ole32:ole32.dll
 0000:fffd0000       .debug$S                   10000000     ole32:ole32.dll
 0000:fffd0000       .debug$S                   10000000     ole32:ole32.dll
 0000:fffd0000       .debug$S                   10000000     ole32:ole32.dll
 0000:fffd0000       .debug$S                   10000000     ole32:ole32.dll
 0000:fffd0000       .debug$S                   10000000     ole32:ole32.dll
 0000:fffd0000       .debug$S                   10000000     ole32:ole32.dll
 0000:fffd0000       .debug$S                   10000000     ole32:ole32.dll
 0000:fffd0000       .debug$S                   10000000     ole32:ole32.dll
 0000:fffd0000       .debug$S                   10000000     ole32:ole32.dll
 0000:fffd0000       .debug$S                   10000000     gdi32:GDI32.dll
 0000:fffd0000       .debug$S                   10000000     oleaut32:OLEAUT32.dll
 0000:fffd0000       .debug$S                   10000000     oleaut32:OLEAUT32.dll
 0000:fffd0000       .debug$S                   10000000     oleaut32:OLEAUT32.dll
 0000:fffd0000       .debug$S                   10000000     oleaut32:OLEAUT32.dll
 0000:fffd0000       .debug$S                   10000000     oleaut32:OLEAUT32.dll
 0000:fffd0000       .debug$S                   10000000     oleaut32:OLEAUT32.dll
 0000:fffd0000       .debug$S                   10000000     oleaut32:OLEAUT32.dll
 0000:fffd0000       .debug$S                   10000000     oleaut32:OLEAUT32.dll
 0000:fffd0000       .debug$S                   10000000     oleaut32:OLEAUT32.dll
 0000:fffd0000       .debug$S                   10000000     oleaut32:OLEAUT32.dll
 0000:fffd0000       .debug$S                   10000000     oleaut32:OLEAUT32.dll
 0000:fffd0000       .debug$S                   10000000     oleaut32:OLEAUT32.dll
 0000:fffd0000       .debug$S                   10000000     oleaut32:OLEAUT32.dll
 0000:fffd0000       .debug$S                   10000000     oleaut32:OLEAUT32.dll
 0000:fffd0000       .debug$S                   10000000     oleaut32:OLEAUT32.dll
 0000:fffd0000       .debug$S                   10000000     oleaut32:OLEAUT32.dll
 0000:fffd0000       .debug$S                   10000000     gdi32:GDI32.dll
 0000:fffd0000       .debug$S                   10000000     user32:USER32.dll
 0000:fffd0000       .debug$S                   10000000     user32:USER32.dll
 0000:fffd0000       .debug$S                   10000000     user32:USER32.dll
 0000:fffd0000       .debug$S                   10000000     user32:USER32.dll
 0000:fffd0000       .debug$S                   10000000     user32:USER32.dll
 0000:fffd0000       .debug$S                   10000000     user32:USER32.dll
 0000:fffd0000       .debug$S                   10000000     user32:USER32.dll
 0000:fffd0000       .debug$S                   10000000     user32:USER32.dll
 0000:fffd0000       .debug$S                   10000000     user32:USER32.dll
 0000:fffd0000       .debug$S                   10000000     user32:USER32.dll
 0000:fffd0000       .debug$S                   10000000     kernel32:KERNEL32.dll
 0000:fffd0000       .debug$S                   10000000     kernel32:KERNEL32.dll
 0000:fffd0000       .debug$S                   10000000     user32:USER32.dll
 0000:fffd0000       .debug$S                   10000000     kernel32:KERNEL32.dll
 0000:fffd0000       .debug$S                   10000000     user32:USER32.dll
 0000:fffd0000       .debug$S                   10000000     user32:USER32.dll
 0000:fffd0000       .debug$S                   10000000     user32:USER32.dll
 0000:fffd0000       .debug$S                   10000000     user32:USER32.dll
 0000:fffd0000       .debug$S                   10000000     user32:USER32.dll
 0000:fffd0000       .debug$S                   10000000     user32:USER32.dll
 0000:fffd0000       .debug$S                   10000000     user32:USER32.dll
 0000:fffd0000       .debug$S                   10000000     user32:USER32.dll
 0000:fffd0000       .debug$S                   10000000     user32:USER32.dll
 0000:fffd0000       .debug$S                   10000000     user32:USER32.dll
 0000:fffd0000       .debug$S                   10000000     user32:USER32.dll
 0000:fffd0000       .debug$S                   10000000     user32:USER32.dll
 0000:fffd0000       .debug$S                   10000000     user32:USER32.dll
 0000:fffd0000       .debug$S                   10000000     user32:USER32.dll
 0000:fffd0000       .debug$S                   10000000     user32:USER32.dll
 0000:fffd0000       .debug$S                   10000000     user32:USER32.dll
 0000:fffd0000       .debug$S                   10000000     user32:USER32.dll
 0000:fffd0000       .debug$S                   10000000     user32:USER32.dll
 0000:fffd0000       .debug$S                   10000000     user32:USER32.dll
 0000:fffd0000       .debug$S                   10000000     kernel32:KERNEL32.dll
 0000:fffd0000       .debug$S                   10000000     user32:USER32.dll
 0000:fffd0000       .debug$S                   10000000     kernel32:KERNEL32.dll
 0000:fffd0000       .debug$S                   10000000     user32:USER32.dll
 0000:fffd0000       .debug$S                   10000000     kernel32:KERNEL32.dll
 0000:fffd0000       .debug$S                   10000000     user32:USER32.dll
 0000:fffd0000       .debug$S                   10000000     user32:USER32.dll
 0000:fffd0000       .debug$S                   10000000     user32:USER32.dll
 0000:fffd0000       .debug$S                   10000000     kernel32:KERNEL32.dll
 0000:fffd0000       .debug$S                   10000000     kernel32:KERNEL32.dll
 0000:fffd0000       .debug$S                   10000000     kernel32:KERNEL32.dll
 0000:fffd0000       .debug$S                   10000000     kernel32:KERNEL32.dll
 0000:fffd0000       .debug$S                   10000000     kernel32:KERNEL32.dll
 0000:fffd0000       .debug$S                   10000000     kernel32:KERNEL32.dll
 0000:fffd0000       .debug$S                   10000000     kernel32:KERNEL32.dll
 0000:fffd0000       .debug$S                   10000000     kernel32:KERNEL32.dll
 0000:fffd0000       .debug$S                   10000000     kernel32:KERNEL32.dll
 0000:fffd0000       .debug$S                   10000000     kernel32:KERNEL32.dll
 0000:fffd0000       .debug$S                   10000000     kernel32:KERNEL32.dll
 0000:fffd0000       .debug$S                   10000000     kernel32:KERNEL32.dll
 0000:fffd0000       .debug$S                   10000000     kernel32:KERNEL32.dll
 0000:fffd0000       .debug$S                   10000000     kernel32:KERNEL32.dll
 0000:fffd0000       .debug$S                   10000000     kernel32:KERNEL32.dll
 0000:fffd0000       .debug$S                   10000000     kernel32:KERNEL32.dll
 0000:fffd0000       .debug$S                   10000000     kernel32:KERNEL32.dll
 0000:fffd0000       .debug$S                   10000000     kernel32:KERNEL32.dll
 0000:fffd0000       .debug$S                   10000000     kernel32:KERNEL32.dll
 0000:fffd0000       .debug$S                   10000000     kernel32:KERNEL32.dll
 0000:fffd0000       .debug$S                   10000000     kernel32:KERNEL32.dll
 0000:fffd0000       .debug$S                   10000000     kernel32:KERNEL32.dll
 0000:fffd0000       .debug$S                   10000000     kernel32:KERNEL32.dll
 0000:fffd0000       .debug$S                   10000000     kernel32:KERNEL32.dll
 0000:fffd0000       .debug$S                   10000000     kernel32:KERNEL32.dll
 0000:fffd0000       .debug$S                   10000000     kernel32:KERNEL32.dll
 0000:fffd0000       .debug$S                   10000000     kernel32:KERNEL32.dll
 0000:fffd0000       .debug$S                   10000000     kernel32:KERNEL32.dll
 0000:fffd0000       .debug$S                   10000000     kernel32:KERNEL32.dll
 0001:00000000       ??__E_AtlComModule@ATL@@YAXXZ 10001000 f   OposVariant.obj
 0001:00000016       ??__E_AtlWinModule@ATL@@YAXXZ 10001016 f   OposVariant.obj
 0001:0000002c       ??__E?pConnMap@?$IConnectionPointContainerImpl@VCOPOSImageScanner@@@ATL@@0PBU_ATL_CONNMAP_ENTRY@2@B@@YAXXZ 1000102c f   ImageScanner.obj
 0001:0000003a       ??__E_Module@@YAXXZ        1000103a f   ImageScanner.obj
 0001:00000064       ??__E_AtlBaseModule@ATL@@YAXXZ 10001064 f   atls:atlbase.obj
 0001:00001653       $LN37                      10002653     ImageScanner.obj
 0001:00005bcb       $LN53                      10006bcb     ImageScanner.obj
 0001:00005be3       $LN49                      10006be3     ImageScanner.obj
 0001:00007a27       $LN45                      10008a27     ImageScanner.obj
 0001:00007a3f       $LN36                      10008a3f     ImageScanner.obj
 0001:00008ff2       $LN87                      10009ff2     ImageScanner.obj
 0001:0000900a       $LN81                      1000a00a     ImageScanner.obj
 0001:00009437       _memcpy_s                  1000a437 f   ImageScanner.obj
 0001:0000b11b       ?find_pe_section@@YAPAU_IMAGE_SECTION_HEADER@@QAEI@Z 1000c11b f   LIBCMT:utility.obj
 0001:0000b466       ?__scrt_initialize_thread_safe_statics@@YAHXZ 1000c466 f   LIBCMT:thread_safe_statics.obj
 0001:0000b48d       ?__scrt_initialize_thread_safe_statics_platform_specific@@YAXXZ 1000c48d f   LIBCMT:thread_safe_statics.obj
 0001:0000b57c       ?__scrt_uninitialize_thread_safe_statics@@YAXXZ 1000c57c f   LIBCMT:thread_safe_statics.obj
 0001:0000b909       __catch$??2@YAPAXIABUnothrow_t@std@@@Z$0 1000c909 f   LIBCMT:new_scalar_nothrow.obj
 0001:0000b940       $$000000                   1000c940     LIBCMT:sehprolg4gs.obj
 0001:0000b9a0       $$000000                   1000c9a0     LIBCMT:alloca16.obj
 0001:0000b9d0       $$000000                   1000c9d0     LIBCMT:chkstk.obj
 0001:0000b9fd       ?dllmain_crt_dispatch@@YGHQAUHINSTANCE__@@KQAX@Z 1000c9fd f   LIBCMT:dll_dllmain.obj
 0001:0000ba50       ?dllmain_crt_process_attach@@YAHQAUHINSTANCE__@@QAX@Z 1000ca50 f   LIBCMT:dll_dllmain.obj
 0001:0000bb5a       ?dllmain_crt_process_detach@@YAH_N@Z 1000cb5a f   LIBCMT:dll_dllmain.obj
 0001:0000bbec       ?dllmain_dispatch@@YAHQAUHINSTANCE__@@KQAX@Z 1000cbec f   LIBCMT:dll_dllmain.obj
 0001:0000bcf2       ?dllmain_raw@@YGHQAUHINSTANCE__@@KQAX@Z 1000ccf2 f   LIBCMT:dll_dllmain.obj
 0001:0000c040       $$000000                   1000d040     LIBCMT:sehprolg4.obj
 0001:0000c09c       ___get_entropy             1000d09c f   LIBCMT:gs_support.obj
 0001:0000c393       ??$GetProcAddressAll@P6GXPAUAtlThunkData_t@@PAXI@Z@@YAP6GXPAUAtlThunkData_t@@PAXI@ZPAP6GX01I@Z@Z 1000d393 f   atls:atlthunk.obj
 0001:0000c393       ??$GetProcAddressAll@P6GP6GJPAUHWND__@@IIJ@ZPAUAtlThunkData_t@@@Z@@YAP6GP6GJPAUHWND__@@IIJ@ZPAUAtlThunkData_t@@@ZPAP6GP6GJ0IIJ@Z1@Z@Z 1000d393 f   atls:atlthunk.obj
 0001:0000c393       ??$GetProcAddressAll@P6GXPAUAtlThunkData_t@@@Z@@YAP6GXPAUAtlThunkData_t@@@ZPAP6GX0@Z@Z 1000d393 f   atls:atlthunk.obj
 0001:0000c393       ??$GetProcAddressAll@P6GPAUAtlThunkData_t@@XZ@@YAP6GPAUAtlThunkData_t@@XZPAP6GPAU0@XZ@Z 1000d393 f   atls:atlthunk.obj
 0001:0000c443       ?GetProcAddressSingle@@YA_NPAUHINSTANCE__@@PBDPAPAX@Z 1000d443 f   atls:atlthunk.obj
 0001:0000c595       ?__InitializeThunkPool@@YAHXZ 1000d595 f   atls:atlthunk.obj
 0001:0000ca00       _ValidateLocalCookies      1000da00 f   libvcruntime:chandler4.obj
 0001:0000dabb       $LN1285                    1000eabb     libvcruntime:memcmp.obj
 0001:0000db40       $$000000                   1000eb40     libvcruntime:memcpy.obj
 0001:0000dda4       TrailingUpVec              1000eda4     libvcruntime:memcpy.obj
 0001:0000de50       TrailingDownVec            1000ee50     libvcruntime:memcpy.obj
 0001:0000e0c0       $$000000                   1000f0c0     libvcruntime:memset.obj
 0001:0000e780       $$000000                   1000f780     libvcruntime:memmove.obj
 0001:0000e9e4       TrailingUpVec              1000f9e4     libvcruntime:memmove.obj
 0001:0000ea90       TrailingDownVec            1000fa90     libvcruntime:memmove.obj
 0001:0000ed00       $$000000                   1000fd00     libvcruntime:exsup4.obj
 0001:0000ed90       __unwind_handler4          1000fd90 f   libvcruntime:exsup4.obj
 0001:0000f06f       ?try_get_first_available_module@@YAPAUHINSTANCE__@@QBW4module_id@?A0x5d2a34d3@@0@Z 1001006f f   libvcruntime:winapi_downlevel.obj
 0001:0000f133       ?try_get_function@@YAPAXW4function_id@?A0x5d2a34d3@@QBDQBW4module_id@2@2@Z 10010133 f   libvcruntime:winapi_downlevel.obj
 0001:0000f333       ??$BuildCatchObjectHelperInternal@V__FrameHandler3@@@@YAHPAUEHExceptionRecord@@PAXPBU_s_HandlerType@@PBU_s_CatchableType@@@Z 10010333 f   libvcruntime:frame.obj
 0001:0000f472       ??$BuildCatchObjectInternal@V__FrameHandler3@@@@YAXPAUEHExceptionRecord@@PAXPBU_s_HandlerType@@PBU_s_CatchableType@@@Z 10010472 f   libvcruntime:frame.obj
 0001:0000f50b       ??$CatchIt@V__FrameHandler3@@@@YAXPAUEHExceptionRecord@@PAUEHRegistrationNode@@PAU_CONTEXT@@PAXPBU_s_FuncInfo@@PBU_s_HandlerType@@PBU_s_CatchableType@@PBU_s_TryBlockMapEntry@@H1E@Z 1001050b f   libvcruntime:frame.obj
 0001:0000f58b       ??$FindHandler@V__FrameHandler3@@@@YAXPAUEHExceptionRecord@@PAUEHRegistrationNode@@PAU_CONTEXT@@PAXPBU_s_FuncInfo@@EH1@Z 1001058b f   libvcruntime:frame.obj
 0001:0000f919       ??$FindHandlerForForeignException@V__FrameHandler3@@@@YAXPAUEHExceptionRecord@@PAUEHRegistrationNode@@PAU_CONTEXT@@PAXPBU_s_FuncInfo@@HH1@Z 10010919 f   libvcruntime:frame.obj
 0001:0000fc0c       ?CallCatchBlock@@YAPAXPAUEHExceptionRecord@@PAUEHRegistrationNode@@PAU_CONTEXT@@PBU_s_FuncInfo@@PAXHK@Z 10010c0c f   libvcruntime:frame.obj
 0001:0000fdd0       ?CallUnexpected@@YAXPBU_s_ESTypeList@@@Z 10010dd0 f   libvcruntime:frame.obj
 0001:0000fdf0       __catch$?CallUnexpected@@YAXPBU_s_ESTypeList@@@Z$0 10010df0 f   libvcruntime:frame.obj
 0001:0000fe0a       ?ExFilterRethrow@@YAHPAU_EXCEPTION_POINTERS@@@Z 10010e0a f   libvcruntime:frame.obj
 0001:0000ff54       ?IsInExceptionSpec@@YAEPAUEHExceptionRecord@@PBU_s_ESTypeList@@@Z 10010f54 f   libvcruntime:frame.obj
 0001:00010020       $$000000                   10011020     libvcruntime:lowhelpr.obj
 0001:00010070       $$000000                   10011070     libvcruntime:exsup.obj
 0001:00010091       __unwind_handler           10011091 f   libvcruntime:exsup.obj
 0001:0001083a       ??$common_tcsncpy_s@_W@@YAHQA_WIQB_WI@Z 1001183a f   libucrt:wcsncpy_s.obj
 0001:00010912       ??$common_vsprintf@Vformat_validation_base@__crt_stdio_output@@_W@@YAH_KQA_WIQB_WQAU__crt_locale_pointers@@QAD@Z 10011912 f   libucrt:output.obj
 0001:00010a97       ??$common_vsprintf_s@_W@@YAH_KQA_WIQB_WQAU__crt_locale_pointers@@QAD@Z 10011a97 f   libucrt:output.obj
 0001:00011120       $LN52                      10012120     libucrt:output.obj
 0001:00011611       $LN19                      10012611     libucrt:output.obj
 0001:00011eb5       ?atexit_exception_filter@@YAHK@Z 10012eb5 f   libucrt:exit.obj
 0001:00011ec8       ?common_exit@@YAXHW4_crt_exit_cleanup_mode@@W4_crt_exit_return_mode@@@Z 10012ec8 f   libucrt:exit.obj
 0001:00011fe1       ?exit_or_terminate_process@@YAXI@Z 10012fe1 f   libucrt:exit.obj
 0001:00012022       ?is_managed_app@@YA_NXZ    10013022 f   libucrt:exit.obj
 0001:00012066       ?try_cor_exit_process@@YAXI@Z 10013066 f   libucrt:exit.obj
 0001:0001210a       ??$common_configure_argv@D@@YAHW4_crt_argv_mode@@@Z 1001310a f   libucrt:argv_parsing.obj
 0001:0001222e       ??$parse_command_line@D@@YAXPADPAPAD0PAI2@Z 1001322e f   libucrt:argv_parsing.obj
 0001:00012403       ??$common_initialize_environment_nolock@D@@YAHXZ 10013403 f   libucrt:environment_initialization.obj
 0001:0001245c       ??$create_environment@D@@YAQAPADQAD@Z 1001345c f   libucrt:environment_initialization.obj
 0001:0001252d       ??$free_environment@_W@@YAXQAPA_W@Z 1001352d f   libucrt:environment_initialization.obj
 0001:0001252d       ??$free_environment@D@@YAXQAPAD@Z 1001352d f   libucrt:environment_initialization.obj
 0001:0001259c       ??$uninitialize_environment_internal@D@@YAXAAPAPAD@Z 1001359c f   libucrt:environment_initialization.obj
 0001:000125b7       ??$uninitialize_environment_internal@_W@@YAXAAPAPA_W@Z 100135b7 f   libucrt:environment_initialization.obj
 0001:0001271f       ??R<lambda_275893d493268fdec8709772e3fcec0e>@@QBEHXZ 1001371f f   libucrt:onexit.obj
 0001:0001283f       ??R<lambda_4e60a939b0d047cfe11ddc22648dfba9>@@QBEHXZ 1001383f f   libucrt:onexit.obj
 0001:00012a14       _initialize_global_variables 10013a14 f   libucrt:initialization.obj
 0001:00012a26       _initialize_c              10013a26 f   libucrt:initialization.obj
 0001:00012a40       _initialize_global_state_isolation 10013a40 f   libucrt:initialization.obj
 0001:00012a40       _uninitialize_global_state_isolation 10013a40 f   libucrt:initialization.obj
 0001:00012a40       _report_memory_leaks       10013a40 f   libucrt:initialization.obj
 0001:00012a40       _uninitialize_c            10013a40 f   libucrt:initialization.obj
 0001:00012a40       _initialize_environment    10013a40 f   libucrt:initialization.obj
 0001:00012a43       _uninitialize_environment  10013a43 f   libucrt:initialization.obj
 0001:00012a4b       _initialize_pointers       10013a4b f   libucrt:initialization.obj
 0001:00012a88       _uninitialize_vcruntime    10013a88 f   libucrt:initialization.obj
 0001:00012a91       _uninitialize_allocated_memory 10013a91 f   libucrt:initialization.obj
 0001:00013550       $$000000                   10014550     libucrt:strncmp.obj
 0001:000137e6       ?construct_ptd@@YAXQAU__acrt_ptd@@QAPAU__crt_locale_data@@@Z 100147e6 f   libucrt:per_thread_data.obj
 0001:0001385f       ?destroy_fls@@YGXPAX@Z     1001485f f   libucrt:per_thread_data.obj
 0001:00013880       ?destroy_ptd@@YAXQAU__acrt_ptd@@@Z 10014880 f   libucrt:per_thread_data.obj
 0001:00013929       ?replace_current_thread_locale_nolock@@YAXQAU__acrt_ptd@@QAU__crt_locale_data@@@Z 10014929 f   libucrt:per_thread_data.obj
 0001:00013c36       ?try_get_function@@YAPAXW4function_id@?A0x352e5c4b@@QBDQBW4module_id@2@2@Z 10014c36 f   libucrt:winapi_thunks.obj
 0001:00013cd2       ?try_get_module@@YAPAUHINSTANCE__@@W4module_id@?A0x352e5c4b@@@Z 10014cd2 f   libucrt:winapi_thunks.obj
 0001:00014188       ??$common_tox_l@$1?internal_isupper_l@@YA_NHQAU__crt_locale_pointers@@@Z$1?internal_map_lower@@YAHH0@Z@@YAHHKQAU__crt_locale_pointers@@@Z 10015188 f   libucrt:tolower_toupper.obj
 0001:000142d2       ?internal_isupper_l@@YA_NHQAU__crt_locale_pointers@@@Z 100152d2 f   libucrt:tolower_toupper.obj
 0001:0001472f       ?fp_format_a@@YAHQBNPADIQADIH_NIQAU__crt_locale_pointers@@@Z 1001572f f   libucrt:cvt.obj
 0001:00014a32       ?fp_format_e@@YAHQBNQADI1IH_NIQAU__crt_locale_pointers@@@Z 10015a32 f   libucrt:cvt.obj
 0001:00014acd       ?fp_format_e_internal@@YAHQADIH_NIQAU_strflt@@1QAU__crt_locale_pointers@@@Z 10015acd f   libucrt:cvt.obj
 0001:00014c18       ?fp_format_f@@YAHQBNQADI1IHQAU__crt_locale_pointers@@@Z 10015c18 f   libucrt:cvt.obj
 0001:00014ca5       ?fp_format_f_internal@@YAHQADIHQAU_strflt@@_NQAU__crt_locale_pointers@@@Z 10015ca5 f   libucrt:cvt.obj
 0001:00014d7c       ?fp_format_g@@YAHQBNQADI1IH_NIQAU__crt_locale_pointers@@@Z 10015d7c f   libucrt:cvt.obj
 0001:00014e44       ?fp_format_nan_or_infinity@@YAHW4__acrt_fp_class@@_NPADI1@Z 10015e44 f   libucrt:cvt.obj
 0001:00014f3c       ?shift_bytes@@YAXQADI0H@Z  10015f3c f   libucrt:cvt.obj
 0001:0001528e       ?initialize_inherited_file_handles_nolock@@YAXXZ 1001628e f   libucrt:ioinit.obj
 0001:00015344       ?initialize_stdio_handles_nolock@@YAXXZ 10016344 f   libucrt:ioinit.obj
 0001:0001551c       ?<helper_func_cdecl>@<lambda_62bb7ecb46d0a77b591a051c43eb5ad1>@@CAHPBX0@Z 1001651c f   libucrt:argv_wildcards.obj
 0001:00015534       ??$common_expand_argv_wildcards@D@@YAHQAPADQAPAPAD@Z 10016534 f   libucrt:argv_wildcards.obj
 0001:000156c4       ??$copy_and_add_argument_to_buffer@D@@YAHQBD0IAAV?$argument_list@D@?A0xb0e4b824@@@Z 100166c4 f   libucrt:argv_wildcards.obj
 0001:0001575a       ??$expand_argument_wildcards@D@@YAHQAD0AAV?$argument_list@D@?A0xb0e4b824@@@Z 1001675a f   libucrt:argv_wildcards.obj
 0001:00015a35       ??R<lambda_ad1ced32f4ac17aa236e5ef05d6b3b7c>@@QBEXXZ 10016a35 f   libucrt:mbctype.obj
 0001:00015af9       ?CPtoLocaleName@@YAPB_WH@Z 10016af9 f   libucrt:mbctype.obj
 0001:00015b37       ?getSystemCP@@YAHH@Z       10016b37 f   libucrt:mbctype.obj
 0001:00015baa       ?setSBCS@@YAXPAU__crt_multibyte_data@@@Z 10016baa f   libucrt:mbctype.obj
 0001:00015c0f       ?setSBUpLow@@YAXPAU__crt_multibyte_data@@@Z 10016c0f f   libucrt:mbctype.obj
 0001:00015da3       ?setmbcp_internal@@YAHH_N@Z 10016da3 f   libucrt:mbctype.obj
 0001:00016155       _memcpy_s                  10017155 f   libucrt:mbctype.obj
 0001:00016155       _memcpy_s                  10017155 f   libucrt:cfout.obj
 0001:000161d6       ?x_ismbbtype_l@@YAHPAU__crt_locale_pointers@@IHH@Z 100171d6 f   libucrt:ismbbyte.obj
 0001:00016260       ?find_end_of_double_null_terminated_sequence@@YAPB_WQB_W@Z 10017260 f   libucrt:get_environment_from_os.obj
 0001:00016487       ?get_global_action_nolock@@YAPAP6AXH@ZH@Z 10017487 f   libucrt:signal.obj
 0001:000164c9       ?siglookup@@YAPAU__crt_signal_action_t@@HQAU1@@Z 100174c9 f   libucrt:signal.obj
 0001:00016cb8       ?GetTableIndexFromLocaleName@@YAHPB_W@Z 10017cb8 f   libucrt:lcidtoname_downlevel.obj
 0001:00016dd9       ?__acrt_LCMapStringA_stat@@YAHPAU__crt_locale_pointers@@PB_WKPBDHPADHHH@Z 10017dd9 f   libucrt:lcmapstringa.obj
 0001:00018af0       _common_flush_all          10019af0 f   libucrt:fflush.obj
 0001:00018dc3       ?free_crt_array_internal@@YAXQAPBXI@Z 10019dc3 f   libucrt:inittime.obj
 0001:00019290       ?shortsort@@YAXPAD0IP6AHPBX1@Z@Z 1001a290 f   libucrt:qsort.obj
 0001:00019330       ?swap@@YAXPAD0I@Z          1001a330 f   libucrt:qsort.obj
 0001:0001970a       ??$common_tcsncpy_s@D@@YAHQADIQBDI@Z 1001a70a f   libucrt:strncpy_s.obj
 0001:000197d0       $$000000                   1001a7d0     libucrt:strpbrk.obj
 0001:000198b4       ?initialize_multibyte@@YAHXZ 1001a8b4 f   libucrt:multibyte_initializer.obj
 0001:000199a0       $$000000                   1001a9a0     libucrt:log10.obj
 0001:00019af0       $$000000                   1001aaf0     libucrt:ceil_pentium4.obj
 0001:00019c0d       ?write_double_translated_ansi_nolock@@YA?AUwrite_result@?A0x47fa6670@@HQBDI@Z 1001ac0d f   libucrt:write.obj
 0001:00019dc0       ?write_double_translated_unicode_nolock@@YA?AUwrite_result@?A0x47fa6670@@QBDI@Z 1001adc0 f   libucrt:write.obj
 0001:00019e2d       ?write_requires_double_translation_nolock@@YA_NH@Z 1001ae2d f   libucrt:write.obj
 0001:00019ea3       ?write_text_ansi_nolock@@YA?AUwrite_result@?A0x47fa6670@@HQBDI@Z 1001aea3 f   libucrt:write.obj
 0001:00019f82       ?write_text_utf16le_nolock@@YA?AUwrite_result@?A0x47fa6670@@HQBDI@Z 1001af82 f   libucrt:write.obj
 0001:0001a070       ?write_text_utf8_nolock@@YA?AUwrite_result@?A0x47fa6670@@HQBDI@Z 1001b070 f   libucrt:write.obj
 0001:0001a494       ??$common_lseek_nolock@_J@@YA_JH_JH@Z 1001b494 f   libucrt:lseek.obj
 0001:0001a758       ___get_abstract_control_sse2 1001b758 f   libucrt:_fenvutils.obj
 0001:0001a7d5       ___get_abstract_control_x87 1001b7d5 f   libucrt:_fenvutils.obj
 0001:0001a848       ___get_machine_control     1001b848 f   libucrt:_fenvutils.obj
 0001:0001a8b9       ___get_machine_control_sse2 1001b8b9 f   libucrt:_fenvutils.obj
 0001:0001a939       ___get_machine_status_sse2 1001b939 f   libucrt:_fenvutils.obj
 0001:0001a99a       ___get_machine_status_x87  1001b99a f   libucrt:_fenvutils.obj
 0001:0001ace0       $$000000                   1001bce0     libucrt:log10_pentium4.obj
 0001:0001af70       $$000000                   1001bf70     libucrt:87tran.obj
 0001:0001b170       $$000000                   1001c170     libucrt:87disp.obj
 0001:0001b370       $$000000                   1001c370     libucrt:common.obj
 0001:0001b500       $$000000                   1001c500     libucrt:genexcep.obj
 0001:0001ba70       $$000000                   1001ca70     libucrt:_strnicm.obj
 0001:0001c8c0       $$000000                   1001d8c0     LIBCMT:ulldvrm.obj
 0001:0001c960       $$000000                   1001d960     LIBCMT:llmul.obj
 0001:0001c9a0       $$000000                   1001d9a0     LIBCMT:lldvrm.obj
 0001:0001ca80       $$000000                   1001da80     LIBCMT:ullshr.obj
 0001:0001caa0       $$000000                   1001daa0     LIBCMT:llshl.obj
 0001:0001cac0       $$000000                   1001dac0     LIBCMT:ftol2.obj
 0001:0001cb80       $$000000                   1001db80     libvcruntime:strrchr.obj
 0001:0001ccc0       $$000000                   1001dcc0     libvcruntime:strchr.obj
 0001:0001cdeb       __ehhandler$?__scrt_initialize_thread_safe_statics_platform_specific@@YAXXZ 1001ddeb f   LIBCMT:thread_safe_statics.obj
 0001:0001ce06       __ehhandler$??2@YAPAXIABUnothrow_t@std@@@Z 1001de06 f   LIBCMT:new_scalar_nothrow.obj
 0001:0001ce21       __ehhandler$?CallUnexpected@@YAXPBU_s_ESTypeList@@@Z 1001de21 f   libvcruntime:frame.obj
 0001:0001ce3c       ??__F_AtlComModule@ATL@@YAXXZ 1001de3c f   OposVariant.obj
 0001:0001ce46       ??__F_AtlWinModule@ATL@@YAXXZ 1001de46 f   OposVariant.obj
 0001:0001ce60       ??__F_Module@@YAXXZ        1001de60 f   ImageScanner.obj
 0001:0001ce74       ??__F_AtlBaseModule@ATL@@YAXXZ 1001de74 f   atls:atlbase.obj
 0002:00000308       ?_AtlBaseModule$initializer$@ATL@@3P6AXXZA 1001e308     atls:atlbase.obj
 0002:0000030c       ?_AtlComModule$initializer$@ATL@@3P6AXXZA 1001e30c     OposVariant.obj
 0002:00000310       ?_AtlWinModule$initializer$@ATL@@3P6AXXZA 1001e310     OposVariant.obj
 0002:00000314       ?_Module$initializer$@@3P6AXXZA 1001e314     ImageScanner.obj
 0002:00000318       ??pConnMap$initializer$@?$IConnectionPointContainerImpl@VCOPOSImageScanner@@@ATL@@0P6AXXZA@@3P6AXXZA 1001e318     ImageScanner.obj
 0002:00000324       ?__scrt_initialize_tss_var@@3P6AHXZA 1001e324     LIBCMT:thread_safe_statics.obj
 0002:0000189c       _GS_ExceptionPointers      1001f89c     LIBCMT:gs_report.obj
 0002:00001a08       ?ExceptionTemplate@?1??_CxxThrowException@@9@8@4UEHExceptionRecord@@B 1001fa08     libvcruntime:throw.obj
 0002:00001a28       ?module_names@?A0x5d2a34d3@@3QBQB_WB 1001fa28     libvcruntime:winapi_downlevel.obj
 0002:00001ae0       ?candidate_modules@?1??try_get_FlsAlloc@@YAP6GKP6GXPAX@Z@ZXZ@4QBW4module_id@?A0x5d2a34d3@@B 1001fae0     libvcruntime:winapi_downlevel.obj
 0002:00001af4       ?candidate_modules@?1??try_get_FlsFree@@YAP6GHK@ZXZ@4QBW4module_id@?A0x5d2a34d3@@B 1001faf4     libvcruntime:winapi_downlevel.obj
 0002:00001b04       ?candidate_modules@?1??try_get_FlsGetValue@@YAP6GPAXK@ZXZ@4QBW4module_id@?A0x5d2a34d3@@B 1001fb04     libvcruntime:winapi_downlevel.obj
 0002:00001b18       ?candidate_modules@?1??try_get_FlsSetValue@@YAP6GHKPAX@ZXZ@4QBW4module_id@?A0x5d2a34d3@@B 1001fb18     libvcruntime:winapi_downlevel.obj
 0002:00001b2c       ?candidate_modules@?1??try_get_InitializeCriticalSectionEx@@YAP6GHPAU_RTL_CRITICAL_SECTION@@KK@ZXZ@4QBW4module_id@?A0x5d2a34d3@@B 1001fb2c     libvcruntime:winapi_downlevel.obj
 0002:00001b70       ?tokenTable@@3QBQBDB       1001fb70     libvcruntime:undname.obj
 0002:00001bb0       ?nameTable@@3QBQBDB        1001fbb0     libvcruntime:undname.obj
 0002:00001cf8       ?rttiTable@@3QBQBDB        1001fcf8     libvcruntime:undname.obj
 0002:00002310       _errtable                  10020310     libucrt:errno.obj
 0002:000025b8       ___acrt_initializers       100205b8     libucrt:initialization.obj
 0002:00002630       _module_names              10020630     libucrt:winapi_thunks.obj
 0002:00002b78       ?candidate_modules@?1??try_get_FlsAlloc@@YAP6GKP6GXPAX@Z@ZXZ@4QBW4module_id@?A0x352e5c4b@@B 10020b78     libucrt:winapi_thunks.obj
 0002:00002b8c       ?candidate_modules@?1??try_get_FlsFree@@YAP6GHK@ZXZ@4QBW4module_id@?A0x352e5c4b@@B 10020b8c     libucrt:winapi_thunks.obj
 0002:00002b9c       ?candidate_modules@?1??try_get_FlsGetValue@@YAP6GPAXK@ZXZ@4QBW4module_id@?A0x352e5c4b@@B 10020b9c     libucrt:winapi_thunks.obj
 0002:00002bb0       ?candidate_modules@?1??try_get_FlsSetValue@@YAP6GHKPAX@ZXZ@4QBW4module_id@?A0x352e5c4b@@B 10020bb0     libucrt:winapi_thunks.obj
 0002:00002bc4       ?candidate_modules@?1??try_get_GetCurrentPackageId@@YAP6GJPAIPAE@ZXZ@4QBW4module_id@?A0x352e5c4b@@B 10020bc4     libucrt:winapi_thunks.obj
 0002:00002be0       ?candidate_modules@?1??try_get_InitializeCriticalSectionEx@@YAP6GHPAU_RTL_CRITICAL_SECTION@@KK@ZXZ@4QBW4module_id@?A0x352e5c4b@@B 10020be0     libucrt:winapi_thunks.obj
 0002:00002c04       ?candidate_modules@?1??try_get_LCMapStringEx@@YAP6GHPB_WK0HPA_WHPAU_nlsversioninfo@@PAXJ@ZXZ@4QBW4module_id@?A0x352e5c4b@@B 10020c04     libucrt:winapi_thunks.obj
 0002:00002c1c       ?candidate_modules@?1??try_get_LocaleNameToLCID@@YAP6GKPB_WK@ZXZ@4QBW4module_id@?A0x352e5c4b@@B 10020c1c     libucrt:winapi_thunks.obj
 0002:00002c38       ?candidate_modules@?1??try_get_SetThreadStackGuarantee@@YAP6GHPAK@ZXZ@4QBW4module_id@?A0x352e5c4b@@B 10020c38     libucrt:winapi_thunks.obj
 0002:00003164       __mb_locale_names          10021164     libucrt:mbctype.obj
 0002:000039b0       _LcidToLocaleNameTable     100219b0     libucrt:lcidtoname_downlevel.obj
 0002:00004ad8       _LocaleNameToIndexTable    10022ad8     libucrt:lcidtoname_downlevel.obj
 0002:00006410       LOG_name                   10024410     libucrt:log10.obj
 0002:00006420       _One                       10024420     libucrt:ceil_pentium4.obj
 0002:00006430       _Bns                       10024430     libucrt:ceil_pentium4.obj
 0002:00006440       _Zero                      10024440     libucrt:ceil_pentium4.obj
 0002:00006450       _S                         10024450     libucrt:ceil_pentium4.obj
 0002:00006460       _NegZero                   10024460     libucrt:ceil_pentium4.obj
 0002:00006470       emask                      10024470     libucrt:log10_pentium4.obj
 0002:00006480       CC                         10024480     libucrt:log10_pentium4.obj
 0002:00006490       Magic                      10024490     libucrt:log10_pentium4.obj
 0002:000064a0       hi_mask                    100244a0     libucrt:log10_pentium4.obj
 0002:000064b0       LOG10_2                    100244b0     libucrt:log10_pentium4.obj
 0002:000064c0       place_L                    100244c0     libucrt:log10_pentium4.obj
 0002:000064e0       One                        100244e0     libucrt:log10_pentium4.obj
 0002:000064f0       Zero                       100244f0     libucrt:log10_pentium4.obj
 0002:00006500       Two52                      10024500     libucrt:log10_pentium4.obj
 0002:00006510       Infs                       10024510     libucrt:log10_pentium4.obj
 0002:00006520       NaN                        10024520     libucrt:log10_pentium4.obj
 0002:00006530       coeff                      10024530     libucrt:log10_pentium4.obj
 0002:0000658e       _log2max                   1002458e     libucrt:87tran.obj
 0002:00006598       _smallarg                  10024598     libucrt:87tran.obj
 0002:000065a2       _half                      100245a2     libucrt:87tran.obj
 0002:000065ee       One                        100245ee     libucrt:87disp.obj
 0002:000065f6       Three                      100245f6     libucrt:87disp.obj
 0002:000065fe       XAMtoTagTab                100245fe     libucrt:87disp.obj
 0002:00006610       One                        10024610     libucrt:common.obj
 0002:00006624       DblMax                     10024624     libucrt:common.obj
 0002:0000662c       DblMin                     1002462c     libucrt:common.obj
 0002:00006634       IeeeAdjO                   10024634     libucrt:common.obj
 0002:0000663c       IeeeAdjU                   1002463c     libucrt:common.obj
 0002:00006644       _infinity                  10024644     libucrt:common.obj
 0002:0000664c       _zero                      1002464c     libucrt:common.obj
 0002:00006688       _over                      10024688     libucrt:fpctrl.obj
 0002:00006694       _under                     10024694     libucrt:fpctrl.obj
 0002:00006f58       ?_names@?1??_get_fname@@9@9 10024f58     libucrt:fpexcept.obj
 0002:00007730       __sehtable$?_AtlVerifyStackAvailable@_ATL_SAFE_ALLOCA_IMPL@ATL@@YA_NK@Z 10025730     ImageScanner.obj
 0002:00007750       __sehtable$___scrt_is_nonwritable_in_current_image 10025750     LIBCMT:utility.obj
 0002:0000776c       __ehfuncinfo$?__scrt_initialize_thread_safe_statics_platform_specific@@YAXXZ 1002576c     LIBCMT:thread_safe_statics.obj
 0002:00007790       __catchsym$??2@YAPAXIABUnothrow_t@std@@@Z$2 10025790     LIBCMT:new_scalar_nothrow.obj
 0002:000077a0       __unwindtable$??2@YAPAXIABUnothrow_t@std@@@Z 100257a0     LIBCMT:new_scalar_nothrow.obj
 0002:000077b0       __tryblocktable$??2@YAPAXIABUnothrow_t@std@@@Z 100257b0     LIBCMT:new_scalar_nothrow.obj
 0002:000077c4       __ehfuncinfo$??2@YAPAXIABUnothrow_t@std@@@Z 100257c4     LIBCMT:new_scalar_nothrow.obj
 0002:000077e8       __sehtable$?dllmain_crt_process_attach@@YAHQAUHINSTANCE__@@QAX@Z 100257e8     LIBCMT:dll_dllmain.obj
 0002:00007808       __sehtable$?dllmain_crt_process_detach@@YAH_N@Z 10025808     LIBCMT:dll_dllmain.obj
 0002:00007828       __sehtable$?dllmain_dispatch@@YAHQAUHINSTANCE__@@KQAX@Z 10025828     LIBCMT:dll_dllmain.obj
 0002:000078d8       __sehtable$?FrameUnwindToState@__FrameHandler3@@SAXPAUEHRegistrationNode@@PAXPBU_s_FuncInfo@@H@Z 100258d8     libvcruntime:frame.obj
 0002:00007900       __sehtable$?CallCatchBlock@@YAPAXPAUEHExceptionRecord@@PAUEHRegistrationNode@@PAU_CONTEXT@@PBU_s_FuncInfo@@PAXHK@Z 10025900     libvcruntime:frame.obj
 0002:00007928       __catchsym$?CallUnexpected@@YAXPBU_s_ESTypeList@@@Z$2 10025928     libvcruntime:frame.obj
 0002:00007938       __unwindtable$?CallUnexpected@@YAXPBU_s_ESTypeList@@@Z 10025938     libvcruntime:frame.obj
 0002:00007948       __tryblocktable$?CallUnexpected@@YAXPBU_s_ESTypeList@@@Z 10025948     libvcruntime:frame.obj
 0002:0000795c       __ehfuncinfo$?CallUnexpected@@YAXPBU_s_ESTypeList@@@Z 1002595c     libvcruntime:frame.obj
 0002:00007980       __sehtable$??$BuildCatchObjectHelperInternal@V__FrameHandler3@@@@YAHPAUEHExceptionRecord@@PAXPBU_s_HandlerType@@PBU_s_CatchableType@@@Z 10025980     libvcruntime:frame.obj
 0002:000079a0       __sehtable$??$BuildCatchObjectInternal@V__FrameHandler3@@@@YAXPAUEHExceptionRecord@@PAXPBU_s_HandlerType@@PBU_s_CatchableType@@@Z 100259a0     libvcruntime:frame.obj
 0002:000079f8       __sehtable$___DestructExceptionObject 100259f8     libvcruntime:ehhelpers.obj
 0002:00007a18       __sehtable$?common_exit@@YAXHW4_crt_exit_cleanup_mode@@W4_crt_exit_return_mode@@@Z 10025a18     libucrt:exit.obj
 0002:00007a40       __sehtable$??$?RV<lambda_800076c951b434888f4765a74a194fcc>@@AAV<lambda_4e60a939b0d047cfe11ddc22648dfba9>@@V<lambda_6dbb1268764f43b569ce7b67e331d33a>@@@?$__crt_seh_guarded_call@H@@QAEH$$QAV<lambda_800076c951b434888f4765a74a194fcc>@@AAV<lambda_4e60a939b0d047cfe11ddc22648dfba9>@@$$QAV<lambda_6dbb1268764f43b569ce7b67e331d33a>@@@Z 10025a40     libucrt:onexit.obj
 0002:00007a60       __sehtable$??$?RV<lambda_995298e7d72eb4c2aab26c0585b3abe5>@@AAV<lambda_275893d493268fdec8709772e3fcec0e>@@V<lambda_293819299cbf9a7022e18b56a874bb5c>@@@?$__crt_seh_guarded_call@H@@QAEH$$QAV<lambda_995298e7d72eb4c2aab26c0585b3abe5>@@AAV<lambda_275893d493268fdec8709772e3fcec0e>@@$$QAV<lambda_293819299cbf9a7022e18b56a874bb5c>@@@Z 10025a60     libucrt:onexit.obj
 0002:00007a80       __sehtable$__query_new_handler 10025a80     libucrt:new_handler.obj
 0002:00007aa0       __sehtable$_terminate      10025aa0     libucrt:terminate.obj
 0002:00007ac0       __sehtable$??$?RV<lambda_9df27f884b057bc3edfc946cb5b7cf47>@@AAV<lambda_e69574bed617af4e071282c136b37893>@@V<lambda_cc0d902bcbbeb830f749456577db4721>@@@?$__crt_seh_guarded_call@X@@QAEX$$QAV<lambda_9df27f884b057bc3edfc946cb5b7cf47>@@AAV<lambda_e69574bed617af4e071282c136b37893>@@$$QAV<lambda_cc0d902bcbbeb830f749456577db4721>@@@Z 10025ac0     libucrt:per_thread_data.obj
 0002:00007ae0       __sehtable$??$?RV<lambda_3518db117f0e7cdb002338c5d3c47b6c>@@AAV<lambda_b2ea41f6bbb362cd97d94c6828d90b61>@@V<lambda_abdedf541bb04549bc734292b4a045d4>@@@?$__crt_seh_guarded_call@X@@QAEX$$QAV<lambda_3518db117f0e7cdb002338c5d3c47b6c>@@AAV<lambda_b2ea41f6bbb362cd97d94c6828d90b61>@@$$QAV<lambda_abdedf541bb04549bc734292b4a045d4>@@@Z 10025ae0     libucrt:per_thread_data.obj
 0002:00007b00       __sehtable$??$?RV<lambda_51b6e8b1eb166f2a3faf91f424b38130>@@AAV<lambda_6250bd4b2a391816dd638c3bf72b0bcb>@@V<lambda_0b5a4a3e68152e1d9b943535f5f47bed>@@@?$__crt_seh_guarded_call@X@@QAEX$$QAV<lambda_51b6e8b1eb166f2a3faf91f424b38130>@@AAV<lambda_6250bd4b2a391816dd638c3bf72b0bcb>@@$$QAV<lambda_0b5a4a3e68152e1d9b943535f5f47bed>@@@Z 10025b00     libucrt:per_thread_data.obj
 0002:00007b20       __sehtable$??$?RV<lambda_5b71d36f03204c0beab531769a5b5694>@@AAV<lambda_be2b3da3f62db62e9dad5dc70221a656>@@V<lambda_8f9ce462984622f9bf76b59e2aaaf805>@@@?$__crt_seh_guarded_call@X@@QAEX$$QAV<lambda_5b71d36f03204c0beab531769a5b5694>@@AAV<lambda_be2b3da3f62db62e9dad5dc70221a656>@@$$QAV<lambda_8f9ce462984622f9bf76b59e2aaaf805>@@@Z 10025b20     libucrt:per_thread_data.obj
 0002:00007b40       __sehtable$___acrt_uninitialize_locale 10025b40     libucrt:wsetlocale.obj
 0002:00007b60       __sehtable$___acrt_initialize_lowio 10025b60     libucrt:ioinit.obj
 0002:00007b80       __sehtable$___acrt_update_thread_multibyte_data 10025b80     libucrt:mbctype.obj
 0002:00007ba0       __sehtable$??$?RV<lambda_978dc153c237d78434369da87b74ff60>@@AAV<lambda_ad1ced32f4ac17aa236e5ef05d6b3b7c>@@V<lambda_4a8533e2866a575feecb8298ce776b0d>@@@?$__crt_seh_guarded_call@X@@QAEX$$QAV<lambda_978dc153c237d78434369da87b74ff60>@@AAV<lambda_ad1ced32f4ac17aa236e5ef05d6b3b7c>@@$$QAV<lambda_4a8533e2866a575feecb8298ce776b0d>@@@Z 10025ba0     libucrt:mbctype.obj
 0002:00007bc0       __sehtable$_raise          10025bc0     libucrt:signal.obj
 0002:00007be0       __sehtable$??$?RV<lambda_a048d3beccc847880fc8490e18b82769>@@AAV<lambda_ec61778202f4f5fc7e7711acc23c3bca>@@V<lambda_f7496a158712204296dd6628a163878e>@@@?$__crt_seh_guarded_call@P6AXH@Z@@QAEP6AXH@Z$$QAV<lambda_a048d3beccc847880fc8490e18b82769>@@AAV<lambda_ec61778202f4f5fc7e7711acc23c3bca>@@$$QAV<lambda_f7496a158712204296dd6628a163878e>@@@Z 10025be0     libucrt:signal.obj
 0002:00007c00       __sehtable$___acrt_update_thread_locale_data 10025c00     libucrt:locale_refcounting.obj
 0002:00007c20       __sehtable$__fcloseall     10025c20     libucrt:closeall.obj
 0002:00007c40       __sehtable$_common_flush_all 10025c40     libucrt:fflush.obj
 0002:00007c68       __sehtable$___acrt_lowio_ensure_fh_exists 10025c68     libucrt:osfinfo.obj
 0002:00007c88       __sehtable$__write         10025c88     libucrt:write.obj
 0002:00007ca8       __sehtable$_fclose         10025ca8     libucrt:fclose.obj
 0002:00007cc8       __sehtable$??$?RV<lambda_61cee617f5178ae960314fd4d05640a0>@@AAV<lambda_6978c1fb23f02e42e1d9e99668cc68aa>@@V<lambda_9cd88cf8ad10232537feb2133f08c833>@@@?$__crt_seh_guarded_call@H@@QAEH$$QAV<lambda_61cee617f5178ae960314fd4d05640a0>@@AAV<lambda_6978c1fb23f02e42e1d9e99668cc68aa>@@$$QAV<lambda_9cd88cf8ad10232537feb2133f08c833>@@@Z 10025cc8     libucrt:commit.obj
 0002:00007ce8       __sehtable$??$?RV<lambda_123407a5e2ac06da108355a851863b7a>@@AAV<lambda_2fe9b910cf3cbf4a0ab98a02ba45b3ec>@@V<lambda_ae55bdf541ad94d75914d381c370e64d>@@@?$__crt_seh_guarded_call@H@@QAEH$$QAV<lambda_123407a5e2ac06da108355a851863b7a>@@AAV<lambda_2fe9b910cf3cbf4a0ab98a02ba45b3ec>@@$$QAV<lambda_ae55bdf541ad94d75914d381c370e64d>@@@Z 10025ce8     libucrt:close.obj
 0002:00007d08       __sehtable$__IsNonwritableInCurrentImage 10025d08     LIBCMT:pesect.obj
 0002:00007d30       .edata                     10025d30     OPOSImageScanner.exp
 0002:00007d58       rgpv                       10025d58     OPOSImageScanner.exp
 0002:00007d68       rgszName                   10025d68     OPOSImageScanner.exp
 0002:00007d78       rgwOrd                     10025d78     OPOSImageScanner.exp
 0002:00007d80       szName                     10025d80     OPOSImageScanner.exp
 0002:00007d95       $N00001                    10025d95     OPOSImageScanner.exp
 0002:00007da5       $N00002                    10025da5     OPOSImageScanner.exp
 0002:00007db7       $N00003                    10025db7     OPOSImageScanner.exp
 0002:00007dc9       $N00004                    10025dc9     OPOSImageScanner.exp
 0002:000083de       .idata$6                   100263de     kernel32:KERNEL32.dll
 0002:000085f2       .idata$6                   100265f2     user32:USER32.dll
 0002:00008726       .idata$6                   10026726     gdi32:GDI32.dll
 0002:000087cc       .idata$6                   100267cc     advapi32:ADVAPI32.dll
 0002:000088e8       .idata$6                   100268e8     ole32:ole32.dll
 0002:000088f2       .idata$6                   100268f2     oleaut32:OLEAUT32.dll
 0003:00000110       ?ObjectMap@@3PAU_ATL_OBJMAP_ENTRY30@ATL@@A 10027110     ImageScanner.obj
 0003:000001bc       ?s_RequiredMethodsPerRelease@@3PAHA 100271bc     ImageScannerImpl.obj
 0003:000001c0       ?s_SOMethodNames@@3PAPADA  100271c0     ImageScannerImpl.obj
 0003:00000230       ?__vcrt_flsindex@@3KA      10027230     libvcruntime:per_thread_data.obj
 0003:00000250       _errno_no_memory           10027250     libucrt:errno.obj
 0003:00000254       _doserrno_no_memory        10027254     libucrt:errno.obj
 0003:00000260       ___acrt_flsindex           10027260     libucrt:per_thread_data.obj
 0003:000003d4       ___rgctypeflag             100273d4     libucrt:mbctype.obj
 0003:000003d8       ___rgcode_page_info        100273d8     libucrt:mbctype.obj
 0003:00000af8       ?is_initialized_as_dll@@3_NA 10027af8     LIBCMT:utility.obj
 0003:00000af9       ?module_local_atexit_table_initialized@@3_NA 10027af9     LIBCMT:utility.obj
 0003:00000afc       ?module_local_atexit_table@@3U_onexit_table_t@@A 10027afc     LIBCMT:utility.obj
 0003:00000b08       ?module_local_at_quick_exit_table@@3U_onexit_table_t@@A 10027b08     LIBCMT:utility.obj
 0003:00000b14       ?_Tss_mutex@@3U_RTL_CRITICAL_SECTION@@A 10027b14     LIBCMT:thread_safe_statics.obj
 0003:00000b2c       ?_Tss_cv@@3U_RTL_CONDITION_VARIABLE@@A 10027b2c     LIBCMT:thread_safe_statics.obj
 0003:00000b30       ?_Tss_event@@3PAXA         10027b30     LIBCMT:thread_safe_statics.obj
 0003:00000b34       ?encoded_sleep_condition_variable_cs@@3P6GHPAU_RTL_CONDITION_VARIABLE@@PAU_RTL_CRITICAL_SECTION@@K@ZA 10027b34     LIBCMT:thread_safe_statics.obj
 0003:00000b38       ?encoded_wake_all_condition_variable@@3P6GXPAU_RTL_CONDITION_VARIABLE@@@ZA 10027b38     LIBCMT:thread_safe_statics.obj
 0003:00000b40       _GS_ExceptionRecord        10027b40     LIBCMT:gs_report.obj
 0003:00000b90       _GS_ContextRecord          10027b90     LIBCMT:gs_report.obj
 0003:00000e60       ?__proc_attached@@3HA      10027e60     LIBCMT:dll_dllmain.obj
 0003:00000ebc       ?AllocateData@@3P6GPAUAtlThunkData_t@@XZA 10027ebc     atls:atlthunk.obj
 0003:00000ec0       ?InitData@@3P6GXPAUAtlThunkData_t@@PAXI@ZA 10027ec0     atls:atlthunk.obj
 0003:00000ec4       ?DataToCode@@3P6GP6GJPAUHWND__@@IIJ@ZPAUAtlThunkData_t@@@ZA 10027ec4     atls:atlthunk.obj
 0003:00000ec8       ?FreeData@@3P6GXPAUAtlThunkData_t@@@ZA 10027ec8     atls:atlthunk.obj
 0003:00000ecc       ?Initialized@@3_NA         10027ecc     atls:atlthunk.obj
 0003:00000ed8       ?__vcrt_startup_thread_ptd@@3U__vcrt_ptd@@A 10027ed8     libvcruntime:per_thread_data.obj
 0003:00000f00       ___vcrt_lock_table         10027f00     libvcruntime:locks.obj
 0003:00000f18       ___vcrt_locks_initialized  10027f18     libvcruntime:locks.obj
 0003:00000f1c       ?module_handles@@3PAPAUHINSTANCE__@@A 10027f1c     libvcruntime:winapi_downlevel.obj
 0003:00000f28       ?encoded_function_pointers@@3PAPAXA 10027f28     libvcruntime:winapi_downlevel.obj
 0003:00000f64       ?heap@@3V_HeapManager@@A   10027f64     libvcruntime:undname.obj
 0003:00000f7c       ___acrt_invalid_parameter_handler 10027f7c     libucrt:invalid_parameter.obj
 0003:00000f80       _c_termination_complete    10027f80     libucrt:exit.obj
 0003:00000f84       _thread_local_exit_callback_func 10027f84     libucrt:exit.obj
 0003:00000f88       ?c_exit_complete@?5??common_exit@@YAXHW4_crt_exit_cleanup_mode@@W4_crt_exit_return_mode@@@Z@4_NA 10027f88     libucrt:exit.obj
 0003:00000f90       ?program_name@?5???$common_configure_argv@D@@YAHW4_crt_argv_mode@@@Z@4PADA 10027f90     libucrt:argv_parsing.obj
 0003:000010c0       ___acrt_new_handler        100280c0     libucrt:new_handler.obj
 0003:000010c8       _module_handles            100280c8     libucrt:winapi_thunks.obj
 0003:00001118       _encoded_function_pointers 10028118     libucrt:winapi_thunks.obj
 0003:00001198       ?state_cache@?1??__acrt_is_packaged_app@@9@4JA 10028198     libucrt:winapi_thunks.obj
 0003:000011a4       _enable_percent_n          100281a4     libucrt:printf_count_output.obj
 0003:000013c0       ___acrt_lock_table         100283c0     libucrt:locks.obj
 0003:000014f8       ___acrt_locks_initialized  100284f8     libucrt:locks.obj
 0003:00001514       _fSystemSet                10028514     libucrt:mbctype.obj
 0003:00001518       ?initialized@?1??__acrt_initialize_multibyte@@9@4_NA 10028518     libucrt:mbctype.obj
 0003:00001538       _ctrlc_action              10028538     libucrt:signal.obj
 0003:0000153c       _ctrlbreak_action          1002853c     libucrt:signal.obj
 0003:00001540       _abort_action              10028540     libucrt:signal.obj
 0003:00001544       _term_action               10028544     libucrt:signal.obj
 0003:00001548       _user_matherr              10028548     libucrt:matherr.obj
 0003:0000154c       ___acrt_global_new_mode    1002854c     libucrt:new_mode.obj
 0003:00001558       ___acrt_app_type           10028558     libucrt:report_runtime_error.obj
 0003:00001560       __pmatherr_set             10028560     libucrt:libm_error.obj
 0004:00000220       $R000000                   10029220     ImageScanner.res
 0004:00000ba0       $R000980                   10029ba0     ImageScanner.res
 0004:00000c88       $R000A68                   10029c88     ImageScanner.res
 0004:00000ef0       $R000CD0                   10029ef0     ImageScanner.res
 0004:000013d0       $R0011B0                   1002a3d0     ImageScanner.res
 0004:000043b8       $R004198                   1002d3b8     ImageScanner.res
 0004:000043f0       $R0041D0                   1002d3f0     ImageScanner.res
