 OPOSElectronicJournal

 Timestamp is 5b863d42 (Wed Aug 29 15:29:22 2018)

 Preferred load address is 10000000

 Start         Length     Name                   Class
 0001:00000000 00000080H .text$di                CODE
 0001:00000080 0001d8fbH .text$mn                CODE
 0001:0001d97b 00000051H .text$x                 CODE
 0001:0001d9cc 00000042H .text$yd                CODE
 0002:00000000 000002fcH .idata$5                DATA
 0002:000002fc 00000004H .00cfg                  DATA
 0002:00000300 00000004H .CRT$XCA                DATA
 0002:00000304 00000004H .CRT$XCL                DATA
 0002:00000308 00000010H .CRT$XCU                DATA
 0002:00000318 00000004H .CRT$XCZ                DATA
 0002:0000031c 00000004H .CRT$XIA                DATA
 0002:00000320 00000010H .CRT$XIC                DATA
 0002:00000330 00000004H .CRT$XIZ                DATA
 0002:00000334 00000004H .CRT$XLA                DATA
 0002:00000338 00000004H .CRT$XLZ                DATA
 0002:0000033c 00000004H .CRT$XPA                DATA
 0002:00000340 00000008H .CRT$XPX                DATA
 0002:00000348 00000004H .CRT$XPXA               DATA
 0002:0000034c 00000004H .CRT$XPZ                DATA
 0002:00000350 00000004H .CRT$XTA                DATA
 0002:00000354 0000000cH .CRT$XTZ                DATA
 0002:00000358 00000000H .gfids$y                DATA
 0002:00000360 00006fa8H .rdata                  DATA
 0002:00007308 00000018H .rdata$T                DATA
 0002:00007320 00000180H .rdata$r                DATA
 0002:000074a0 00000020H .rdata$sxdata           DATA
 0002:000074c0 000003e4H .rdata$zzzdbg           DATA
 0002:000078a4 00000004H .rtc$IAA                DATA
 0002:000078a8 00000004H .rtc$IZZ                DATA
 0002:000078ac 00000004H .rtc$TAA                DATA
 0002:000078b0 00000004H .rtc$TZZ                DATA
 0002:000078b4 00000004H .tls                    DATA
 0002:000078b8 00000004H .tls$                   DATA
 0002:000078bc 00000004H .tls$ZZZ                DATA
 0002:000078c0 00000624H .xdata$x                DATA
 0002:00007ee4 00000004H ATL$__a                 DATA
 0002:00007ee8 00000008H ATL$__z                 DATA
 0002:00007ef0 000000b4H .edata                  DATA
 0002:00007fa4 00000078H .idata$2                DATA
 0002:0000801c 00000014H .idata$3                DATA
 0002:00008030 000002fcH .idata$4                DATA
 0002:0000832c 00000bc0H .idata$6                DATA
 0003:00000000 000009d0H .data                   DATA
 0003:000009d0 00000098H .data$r                 DATA
 0003:00000a68 00000b68H .bss                    DATA
 0004:00000000 00000220H .rsrc$01                DATA
 0004:00000220 00005070H .rsrc$02                DATA

  Address         Publics by Value              Rva+Base       Lib:Object

 0000:00000000       ___dynamic_value_reloc_table 00000000     <absolute>
 0000:00000000       __except_list              00000000     <absolute>
 0000:00000000       ___guard_fids_count        00000000     <absolute>
 0000:00000000       ___guard_longjmp_table     00000000     <absolute>
 0000:00000000       ___hybrid_code_map_count   00000000     <absolute>
 0000:00000000       ___hybrid_auxiliary_iat    00000000     <absolute>
 0000:00000000       ___guard_longjmp_count     00000000     <absolute>
 0000:00000000       ___guard_fids_table        00000000     <absolute>
 0000:00000000       ___guard_iat_table         00000000     <absolute>
 0000:00000000       ___volatile_metadata       00000000     <absolute>
 0000:00000000       ___enclave_config          00000000     <absolute>
 0000:00000000       ___guard_iat_count         00000000     <absolute>
 0000:00000000       ___hybrid_code_map         00000000     <absolute>
 0000:00000008       ___safe_se_handler_count   00000008     <absolute>
 0000:0000002c       __tls_array                0000002c     <absolute>
 0000:00000100       ___guard_flags             00000100     <absolute>
 0000:00000000       ___ImageBase               10000000     <linker-defined>
 0001:00000080       ?DupWide@_CW@@AAEXXZ       10001080 f   CWString.obj
 0001:0000009c       ?cw_dup@@YGXPBDAAHAAPA_W1@Z 1000109c f   CWString.obj
 0001:0000010b       ?cw_memcpy@@YGHPA_WPBDH@Z  1000110b f   CWString.obj
 0001:00000137       ?cw_strcpy@@YAHPA_WPBD@Z   10001137 f   CWString.obj
 0001:0000014a       ?cw_strlen@@YAHPBD@Z       1000114a f   CWString.obj
 0001:00000163       ??0CAtlComModule@ATL@@QAE@XZ 10001163 f i OposVariant.obj
 0001:000001a8       ??0CAtlWinModule@ATL@@QAE@XZ 100011a8 f i OposVariant.obj
 0001:000001df       ??0OposDispParms@@QAE@PAVOposVariant@@H@Z 100011df f   OposVariant.obj
 0001:00000250       ??1OposDispParms@@QAE@XZ   10001250 f   OposVariant.obj
 0001:0000025e       ??A?$CSimpleArray@GV?$CSimpleArrayEqualHelper@G@ATL@@@ATL@@QAEAAGH@Z 1000125e f i OposVariant.obj
 0001:00000283       ??_Estringdispid@CComTypeInfoHolder@ATL@@QAEPAXI@Z 10001283 f i OposVariant.obj
 0001:000002ef       ?AtlWinModuleInit@ATL@@YGJPAU_ATL_WIN_MODULE70@1@@Z 100012ef f i OposVariant.obj
 0001:00000315       ?AtlWinModuleTerm@ATL@@YGJPAU_ATL_WIN_MODULE70@1@PAUHINSTANCE__@@@Z 10001315 f i OposVariant.obj
 0001:00000378       ?ChangeBSTR@OposVariant@@QAEXPAPA_WAAJ@Z 10001378 f   OposVariant.obj
 0001:000003b9       ?ChangeCURRENCY@OposVariant@@QAEXPATtagCY@@AAJ@Z 100013b9 f   OposVariant.obj
 0001:00000408       ?ChangeLONG@OposVariant@@QAEXPAJAAJ@Z 10001408 f   OposVariant.obj
 0001:00000449       ?GetLONG@OposVariant@@QAEJXZ 10001449 f   OposVariant.obj
 0001:00000464       ?Init@CComCriticalSection@ATL@@QAEJXZ 10001464 f i OposVariant.obj
 0001:0000048b       ?RemoveAll@?$CSimpleArray@GV?$CSimpleArrayEqualHelper@G@ATL@@@ATL@@QAEXXZ 1000148b f i OposVariant.obj
 0001:0000048b       ?RemoveAll@?$CSimpleArray@PAUHINSTANCE__@@V?$CSimpleArrayEqualHelper@PAUHINSTANCE__@@@ATL@@@ATL@@QAEXXZ 1000148b f i atls:atlbase.obj
 0001:000004a8       ?SetBSTR@OposVariant@@QAEXPA_WAAJ@Z 100014a8 f   OposVariant.obj
 0001:000004dc       ?SetBSTR_Copy@OposVariant@@QAEXPA_WAAJ@Z 100014dc f   OposVariant.obj
 0001:0000052c       ?SetBSTR_InOutPtr@OposVariant@@QAE_NPAPA_WAAJ@Z 1000152c f   OposVariant.obj
 0001:00000563       ?SetBSTR_OutPtr@OposVariant@@QAE_NPAPA_WAAJ@Z 10001563 f   OposVariant.obj
 0001:0000057f       ?SetDispatch_Ptr@OposVariant@@QAEXPAUIDispatch@@AAJ@Z 1000157f f   OposVariant.obj
 0001:000005ba       ?SetLONG@OposVariant@@QAEXJ@Z 100015ba f   OposVariant.obj
 0001:000005dc       ?SetLONG_Ptr@OposVariant@@QAEXPAJAAJ@Z 100015dc f   OposVariant.obj
 0001:0000060f       ?SetString@OposVariant@@QAEXPB_WAAJ@Z 1000160f f   OposVariant.obj
 0001:00000655       ?SetVARIANT_BOOL@OposVariant@@QAEXF@Z 10001655 f   OposVariant.obj
 0001:0000067f       ?Term@CAtlComModule@ATL@@QAEXXZ 1000167f f i OposVariant.obj
 0001:000006c9       ?_AtlRaiseException@ATL@@YAXKK@Z 100016c9 f i OposVariant.obj
 0001:000006de       ?GetWindow@?$IOleInPlaceActiveObjectImpl@VCOPOSElectronicJournal@@@ATL@@UAGJPAPAUHWND__@@@Z 100016de f i ElectronicJournal.obj
 0001:0000072b       ?SetColorScheme@?$IOleObjectImpl@VCOPOSElectronicJournal@@@ATL@@UAGJPAUtagLOGPALETTE@@@Z 1000172b f i ElectronicJournal.obj
 0001:0000072b       ?QueryGetData@?$IDataObjectImpl@VCOPOSElectronicJournal@@@ATL@@UAGJPAUtagFORMATETC@@@Z 1000172b f i ElectronicJournal.obj
 0001:0000072b       ?ContextSensitiveHelp@?$IOleInPlaceActiveObjectImpl@VCOPOSElectronicJournal@@@ATL@@UAGJH@Z 1000172b f i ElectronicJournal.obj
 0001:0000072b       ?GetControlInfo@?$IOleControlImpl@VCOPOSElectronicJournal@@@ATL@@UAGJPAUtagCONTROLINFO@@@Z 1000172b f i ElectronicJournal.obj
 0001:0000072b       ?Unfreeze@?$IViewObjectExImpl@VCOPOSElectronicJournal@@@ATL@@UAGJK@Z 1000172b f i ElectronicJournal.obj
 0001:0000072b       ?ContextSensitiveHelp@?$IOleInPlaceObjectWindowlessImpl@VCOPOSElectronicJournal@@@ATL@@UAGJH@Z 1000172b f i ElectronicJournal.obj
 0001:0000072b       ?GetDropTarget@?$IOleInPlaceObjectWindowlessImpl@VCOPOSElectronicJournal@@@ATL@@UAGJPAPAUIDropTarget@@@Z 1000172b f i ElectronicJournal.obj
 0001:0000072b       ?OnMnemonic@?$IOleControlImpl@VCOPOSElectronicJournal@@@ATL@@UAGJPAUtagMSG@@@Z 1000172b f i ElectronicJournal.obj
 0001:00000733       ?TranslateAcceleratorW@?$IOleInPlaceActiveObjectImpl@VCOPOSElectronicJournal@@@ATL@@UAGJPAUtagMSG@@@Z 10001733 f i ElectronicJournal.obj
 0001:000007d1       ?OnFrameWindowActivate@?$IOleInPlaceActiveObjectImpl@VCOPOSElectronicJournal@@@ATL@@UAGJH@Z 100017d1 f i ElectronicJournal.obj
 0001:000007d1       ?SaveCompleted@?$IPersistStorageImpl@VCOPOSElectronicJournal@@@ATL@@UAGJPAUIStorage@@@Z 100017d1 f i ElectronicJournal.obj
 0001:000007d1       ?OnAmbientPropertyChange@?$IOleControlImpl@VCOPOSElectronicJournal@@@ATL@@UAGJJ@Z 100017d1 f i ElectronicJournal.obj
 0001:000007d1       ?EnableModeless@?$IOleInPlaceActiveObjectImpl@VCOPOSElectronicJournal@@@ATL@@UAGJH@Z 100017d1 f i ElectronicJournal.obj
 0001:000007d6       ?OnDocWindowActivate@?$IOleInPlaceActiveObjectImpl@VCOPOSElectronicJournal@@@ATL@@UAGJH@Z 100017d6 f i ElectronicJournal.obj
 0001:000007f8       ?ResizeBorder@?$IOleInPlaceActiveObjectImpl@VCOPOSElectronicJournal@@@ATL@@UAGJPBUtagRECT@@PAUIOleInPlaceUIWindow@@H@Z 100017f8 f i ElectronicJournal.obj
 0001:000007fd       ?Draw@?$IViewObjectExImpl@VCOPOSElectronicJournal@@@ATL@@UAGJKJPAXPAUtagDVTARGETDEVICE@@PAUHDC__@@2PBU_RECTL@@3P6GHK@ZK@Z 100017fd f i ElectronicJournal.obj
 0001:0000082f       ?GetColorSet@?$IViewObjectExImpl@VCOPOSElectronicJournal@@@ATL@@UAGJKJPAXPAUtagDVTARGETDEVICE@@PAUHDC__@@PAPAUtagLOGPALETTE@@@Z 1000182f f i ElectronicJournal.obj
 0001:00000837       ?Freeze@?$IViewObjectExImpl@VCOPOSElectronicJournal@@@ATL@@UAGJKJPAXPAK@Z 10001837 f i ElectronicJournal.obj
 0001:0000083f       ?SetAdvise@?$IViewObjectExImpl@VCOPOSElectronicJournal@@@ATL@@UAGJKKPAUIAdviseSink@@@Z 1000183f f i ElectronicJournal.obj
 0001:0000085e       ?GetAdvise@?$IViewObjectExImpl@VCOPOSElectronicJournal@@@ATL@@UAGJPAK0PAPAUIAdviseSink@@@Z 1000185e f i ElectronicJournal.obj
 0001:00000893       ?GetExtent@?$IViewObjectExImpl@VCOPOSElectronicJournal@@@ATL@@UAGJKJPAUtagDVTARGETDEVICE@@PAUtagSIZE@@@Z 10001893 f i ElectronicJournal.obj
 0001:000008c4       ?GetCanonicalFormatEtc@?$IDataObjectImpl@VCOPOSElectronicJournal@@@ATL@@UAGJPAUtagFORMATETC@@0@Z 100018c4 f i ElectronicJournal.obj
 0001:000008c4       ?QueryInterface@CRegObject@ATL@@UAGJABU_GUID@@PAPAX@Z 100018c4 f i ElectronicJournal.obj
 0001:000008c4       ?SetMoniker@?$IOleObjectImpl@VCOPOSElectronicJournal@@@ATL@@UAGJKPAUIMoniker@@@Z 100018c4 f i ElectronicJournal.obj
 0001:000008c4       ?GetDataHere@?$IDataObjectImpl@VCOPOSElectronicJournal@@@ATL@@UAGJPAUtagFORMATETC@@PAUtagSTGMEDIUM@@@Z 100018c4 f i ElectronicJournal.obj
 0001:000008c4       ?EnumFormatEtc@?$IDataObjectImpl@VCOPOSElectronicJournal@@@ATL@@UAGJKPAPAUIEnumFORMATETC@@@Z 100018c4 f i ElectronicJournal.obj
 0001:000008c4       ?GetRect@?$IViewObjectExImpl@VCOPOSElectronicJournal@@@ATL@@UAGJKPAU_RECTL@@@Z 100018c4 f i ElectronicJournal.obj
 0001:000008c4       ?GetClipboardData@?$IOleObjectImpl@VCOPOSElectronicJournal@@@ATL@@UAGJKPAPAUIDataObject@@@Z 100018c4 f i ElectronicJournal.obj
 0001:000008cc       ?GetViewStatus@?$IViewObjectExImpl@VCOPOSElectronicJournal@@@ATL@@UAGJPAK@Z 100018cc f i ElectronicJournal.obj
 0001:000008e9       ?QueryHitPoint@?$IViewObjectExImpl@VCOPOSElectronicJournal@@@ATL@@UAGJKPBUtagRECT@@UtagPOINT@@JPAK@Z 100018e9 f i ElectronicJournal.obj
 0001:0000092a       ?QueryHitRect@?$IViewObjectExImpl@VCOPOSElectronicJournal@@@ATL@@UAGJKPBUtagRECT@@0JPAK@Z 1000192a f i ElectronicJournal.obj
 0001:00000985       ?GetNaturalExtent@?$IViewObjectExImpl@VCOPOSElectronicJournal@@@ATL@@UAGJKJPAUtagDVTARGETDEVICE@@PAUHDC__@@PAUtagExtentInfo@@PAUtagSIZE@@@Z 10001985 f i ElectronicJournal.obj
 0001:000009d0       ?GetWindow@?$IOleInPlaceObjectWindowlessImpl@VCOPOSElectronicJournal@@@ATL@@UAGJPAPAUHWND__@@@Z 100019d0 f i ElectronicJournal.obj
 0001:00000a1d       ?InPlaceDeactivate@?$IOleInPlaceObjectWindowlessImpl@VCOPOSElectronicJournal@@@ATL@@UAGJXZ 10001a1d f i ElectronicJournal.obj
 0001:00000a37       ?UIDeactivate@?$IOleInPlaceObjectWindowlessImpl@VCOPOSElectronicJournal@@@ATL@@UAGJXZ 10001a37 f i ElectronicJournal.obj
 0001:00000a51       ?SetObjectRects@?$IOleInPlaceObjectWindowlessImpl@VCOPOSElectronicJournal@@@ATL@@UAGJPBUtagRECT@@0@Z 10001a51 f i ElectronicJournal.obj
 0001:00000a71       ?ReactivateAndUndo@?$IOleInPlaceObjectWindowlessImpl@VCOPOSElectronicJournal@@@ATL@@UAGJXZ 10001a71 f i ElectronicJournal.obj
 0001:00000a79       ?OnWindowMessage@?$IOleInPlaceObjectWindowlessImpl@VCOPOSElectronicJournal@@@ATL@@UAGJIIJPAJ@Z 10001a79 f i ElectronicJournal.obj
 0001:00000ae9       ?EnumConnectionPoints@?$IConnectionPointContainerImpl@VCOPOSElectronicJournal@@@ATL@@UAGJPAPAUIEnumConnectionPoints@@@Z 10001ae9 f i ElectronicJournal.obj
 0001:00000c63       ?FindConnectionPoint@?$IConnectionPointContainerImpl@VCOPOSElectronicJournal@@@ATL@@UAGJABU_GUID@@PAPAUIConnectionPoint@@@Z 10001c63 f i ElectronicJournal.obj
 0001:00000d06       ?GetClassID@?$IPersistStreamInitImpl@VCOPOSElectronicJournal@@@ATL@@UAGJPAU_GUID@@@Z 10001d06 f i ElectronicJournal.obj
 0001:00000d06       ?GetClassID@?$IPersistStorageImpl@VCOPOSElectronicJournal@@@ATL@@UAGJPAU_GUID@@@Z 10001d06 f i ElectronicJournal.obj
 0001:00000d06       ?GetUserClassID@?$IOleObjectImpl@VCOPOSElectronicJournal@@@ATL@@UAGJPAU_GUID@@@Z 10001d06 f i ElectronicJournal.obj
 0001:00000d2a       ?IsDirty@?$IPersistStorageImpl@VCOPOSElectronicJournal@@@ATL@@UAGJXZ 10001d2a f i ElectronicJournal.obj
 0001:00000d5e       ?InitNew@?$IPersistStorageImpl@VCOPOSElectronicJournal@@@ATL@@UAGJPAUIStorage@@@Z 10001d5e f i ElectronicJournal.obj
 0001:00000d92       ?Load@?$IPersistStorageImpl@VCOPOSElectronicJournal@@@ATL@@UAGJPAUIStorage@@@Z 10001d92 f i ElectronicJournal.obj
 0001:00000dfe       ?Save@?$IPersistStorageImpl@VCOPOSElectronicJournal@@@ATL@@UAGJPAUIStorage@@H@Z 10001dfe f i ElectronicJournal.obj
 0001:00000e71       ?HandsOffStorage@?$IPersistStorageImpl@VCOPOSElectronicJournal@@@ATL@@UAGJXZ 10001e71 f i ElectronicJournal.obj
 0001:00000e71       ?Release@CRegObject@ATL@@UAGKXZ 10001e71 f i ElectronicJournal.obj
 0001:00000e71       ?IsUpToDate@?$IOleObjectImpl@VCOPOSElectronicJournal@@@ATL@@UAGJXZ 10001e71 f i ElectronicJournal.obj
 0001:00000e71       ?Update@?$IOleObjectImpl@VCOPOSElectronicJournal@@@ATL@@UAGJXZ 10001e71 f i ElectronicJournal.obj
 0001:00000e76       ?GetPages@?$ISpecifyPropertyPagesImpl@VCOPOSElectronicJournal@@@ATL@@UAGJPAUtagCAUUID@@@Z 10001e76 f i ElectronicJournal.obj
 0001:00000e8d       ?QuickActivate@?$IQuickActivateImpl@VCOPOSElectronicJournal@@@ATL@@UAGJPAUtagQACONTAINER@@PAUtagQACONTROL@@@Z 10001e8d f i ElectronicJournal.obj
 0001:00000eb0       ?SetContentExtent@?$IQuickActivateImpl@VCOPOSElectronicJournal@@@ATL@@UAGJPAUtagSIZE@@@Z 10001eb0 f i ElectronicJournal.obj
 0001:00000edc       ?GetContentExtent@?$IQuickActivateImpl@VCOPOSElectronicJournal@@@ATL@@UAGJPAUtagSIZE@@@Z 10001edc f i ElectronicJournal.obj
 0001:00000efc       ?GetData@?$IDataObjectImpl@VCOPOSElectronicJournal@@@ATL@@UAGJPAUtagFORMATETC@@PAUtagSTGMEDIUM@@@Z 10001efc f i ElectronicJournal.obj
 0001:00000f1f       ?InitFromData@?$IOleObjectImpl@VCOPOSElectronicJournal@@@ATL@@UAGJPAUIDataObject@@HK@Z 10001f1f f i ElectronicJournal.obj
 0001:00000f1f       ?GetMoniker@?$IOleObjectImpl@VCOPOSElectronicJournal@@@ATL@@UAGJKKPAPAUIMoniker@@@Z 10001f1f f i ElectronicJournal.obj
 0001:00000f1f       ?SetData@?$IDataObjectImpl@VCOPOSElectronicJournal@@@ATL@@UAGJPAUtagFORMATETC@@PAUtagSTGMEDIUM@@H@Z 10001f1f f i ElectronicJournal.obj
 0001:00000f27       ?DAdvise@?$IDataObjectImpl@VCOPOSElectronicJournal@@@ATL@@UAGJPAUtagFORMATETC@@KPAUIAdviseSink@@PAK@Z 10001f27 f i ElectronicJournal.obj
 0001:00000f68       ?DUnadvise@?$IDataObjectImpl@VCOPOSElectronicJournal@@@ATL@@UAGJK@Z 10001f68 f i ElectronicJournal.obj
 0001:00000f96       ?EnumDAdvise@?$IDataObjectImpl@VCOPOSElectronicJournal@@@ATL@@UAGJPAPAUIEnumSTATDATA@@@Z 10001f96 f i ElectronicJournal.obj
 0001:00000fd5       ?GetClassInfoW@?$IProvideClassInfo2Impl@$1?CLSID_OPOSElectronicJournal@@3U_GUID@@B$1?DIID__IOPOSElectronicJournalEvents@@3U2@B$1?LIBID_OposElectronicJournal_CCO@@3U2@B$00$0A@VCComTypeInfoHolder@ATL@@@ATL@@UAGJPAPAUITypeInfo@@@Z 10001fd5 f i ElectronicJournal.obj
 0001:00000feb       ?GetGUID@?$IProvideClassInfo2Impl@$1?CLSID_OPOSElectronicJournal@@3U_GUID@@B$1?DIID__IOPOSElectronicJournalEvents@@3U2@B$1?LIBID_OposElectronicJournal_CCO@@3U2@B$00$0A@VCComTypeInfoHolder@ATL@@@ATL@@UAGJKPAU_GUID@@@Z 10001feb f i ElectronicJournal.obj
 0001:00001029       ?FAccessAllowed@?$IObjectSafetyImpl@VCOPOSElectronicJournal@@$02@ATL@@MAEHXZ 10002029 f i ElectronicJournal.obj
 0001:00001029       __get_startup_argv_mode    10002029 f i LIBCMT:argv_mode.obj
 0001:0000102d       ?GetInterfaceSafetyOptions@?$IObjectSafetyImpl@VCOPOSElectronicJournal@@$02@ATL@@UAGJABU_GUID@@PAK1@Z 1000202d f i ElectronicJournal.obj
 0001:000010a1       ?SetInterfaceSafetyOptions@?$IObjectSafetyImpl@VCOPOSElectronicJournal@@$02@ATL@@UAGJABU_GUID@@KK@Z 100020a1 f i ElectronicJournal.obj
 0001:0000111b       ?_LocCPQueryInterface@?$IConnectionPointImpl@VCOPOSElectronicJournal@@$1?IID_IPropertyNotifySink@@3U_GUID@@BVCComDynamicUnkArray@ATL@@@ATL@@UAGJABU_GUID@@PAPAX@Z 1000211b f i ElectronicJournal.obj
 0001:0000111b       ?_LocCPQueryInterface@?$IConnectionPointImpl@VCOPOSElectronicJournal@@$1?DIID__IOPOSElectronicJournalEvents@@3U_GUID@@BVCComDynamicUnkArray@ATL@@@ATL@@UAGJABU_GUID@@PAPAX@Z 1000211b f i ElectronicJournal.obj
 0001:00001168       ?GetConnectionInterface@?$IConnectionPointImpl@VCOPOSElectronicJournal@@$1?IID_IPropertyNotifySink@@3U_GUID@@BVCComDynamicUnkArray@ATL@@@ATL@@UAGJPAU_GUID@@@Z 10002168 f i ElectronicJournal.obj
 0001:0000118c       ?GetConnectionPointContainer@?$IConnectionPointImpl@VCOPOSElectronicJournal@@$1?IID_IPropertyNotifySink@@3U_GUID@@BVCComDynamicUnkArray@ATL@@@ATL@@UAGJPAPAUIConnectionPointContainer@@@Z 1000218c f i ElectronicJournal.obj
 0001:000011af       ?Advise@?$IConnectionPointImpl@VCOPOSElectronicJournal@@$1?IID_IPropertyNotifySink@@3U_GUID@@BVCComDynamicUnkArray@ATL@@@ATL@@UAGJPAUIUnknown@@PAK@Z 100021af f i ElectronicJournal.obj
 0001:000011af       ?Advise@?$IConnectionPointImpl@VCOPOSElectronicJournal@@$1?DIID__IOPOSElectronicJournalEvents@@3U_GUID@@BVCComDynamicUnkArray@ATL@@@ATL@@UAGJPAUIUnknown@@PAK@Z 100021af f i ElectronicJournal.obj
 0001:00001250       ?Unadvise@?$IConnectionPointImpl@VCOPOSElectronicJournal@@$1?DIID__IOPOSElectronicJournalEvents@@3U_GUID@@BVCComDynamicUnkArray@ATL@@@ATL@@UAGJK@Z 10002250 f i ElectronicJournal.obj
 0001:00001250       ?Unadvise@?$IConnectionPointImpl@VCOPOSElectronicJournal@@$1?IID_IPropertyNotifySink@@3U_GUID@@BVCComDynamicUnkArray@ATL@@@ATL@@UAGJK@Z 10002250 f i ElectronicJournal.obj
 0001:00001290       ?EnumConnections@?$IConnectionPointImpl@VCOPOSElectronicJournal@@$1?DIID__IOPOSElectronicJournalEvents@@3U_GUID@@BVCComDynamicUnkArray@ATL@@@ATL@@UAGJPAPAUIEnumConnections@@@Z 10002290 f i ElectronicJournal.obj
 0001:00001290       ?EnumConnections@?$IConnectionPointImpl@VCOPOSElectronicJournal@@$1?IID_IPropertyNotifySink@@3U_GUID@@BVCComDynamicUnkArray@ATL@@@ATL@@UAGJPAPAUIEnumConnections@@@Z 10002290 f i ElectronicJournal.obj
 0001:00001396       ?GetObjectDescription@?$CComCoClass@VCOPOSElectronicJournal@@$1?CLSID_OPOSElectronicJournal@@3U_GUID@@B@ATL@@SGPB_WXZ 10002396 f i ElectronicJournal.obj
 0001:00001396       ?GetCategoryMap@CComObjectRootBase@ATL@@SAPBU_ATL_CATMAP_ENTRY@2@XZ 10002396 f i ElectronicJournal.obj
 0001:00001399       ?GetConnectionInterface@?$IConnectionPointImpl@VCOPOSElectronicJournal@@$1?DIID__IOPOSElectronicJournalEvents@@3U_GUID@@BVCComDynamicUnkArray@ATL@@@ATL@@UAGJPAU_GUID@@@Z 10002399 f i ElectronicJournal.obj
 0001:000013bd       ?GetConnectionPointContainer@?$IConnectionPointImpl@VCOPOSElectronicJournal@@$1?DIID__IOPOSElectronicJournalEvents@@3U_GUID@@BVCComDynamicUnkArray@ATL@@@ATL@@UAGJPAPAUIConnectionPointContainer@@@Z 100023bd f i ElectronicJournal.obj
 0001:000013e0       ?UpdateRegistry@COPOSElectronicJournal@@SGJH@Z 100023e0 f i ElectronicJournal.obj
 0001:000013f8       ?ProcessWindowMessage@COPOSElectronicJournal@@UAEHPAUHWND__@@IIJAAJK@Z 100023f8 f i ElectronicJournal.obj
 0001:00001441       ?SOData@COPOSElectronicJournal@@MAGJJ@Z 10002441 f i ElectronicJournal.obj
 0001:0000147a       ?SODirectIO@COPOSElectronicJournal@@MAGJJPAJPAPA_W@Z 1000247a f i ElectronicJournal.obj
 0001:000014c3       ?SOError@COPOSElectronicJournal@@MAGJJJJPAJ@Z 100024c3 f i ElectronicJournal.obj
 0001:00001518       ?SOOutputComplete@COPOSElectronicJournal@@MAGJJ@Z 10002518 f i ElectronicJournal.obj
 0001:00001551       ?SOStatusUpdate@COPOSElectronicJournal@@MAGJJ@Z 10002551 f i ElectronicJournal.obj
 0001:0000158a       ?AddRef@CRegObject@ATL@@UAGKXZ 1000258a f i ElectronicJournal.obj
 0001:00001590       ?AddReplacement@CRegObject@ATL@@UAGJPB_W0@Z 10002590 f i ElectronicJournal.obj
 0001:000015c9       ?ClearReplacements@CRegObject@ATL@@UAGJXZ 100025c9 f i ElectronicJournal.obj
 0001:000015db       ??_GCRegObject@ATL@@UAEPAXI@Z 100025db f i ElectronicJournal.obj
 0001:000015db       ??_ECRegObject@ATL@@UAEPAXI@Z 100025db f i ElectronicJournal.obj
 0001:000015fd       ?CreateInstance@?$CComCreator@V?$CComObjectCached@VCComClassFactory@ATL@@@ATL@@@ATL@@SGJPAXABU_GUID@@PAPAX@Z 100025fd f i ElectronicJournal.obj
 0001:00001690       ?CreateInstance@?$CComCreator2@V?$CComCreator@V?$CComObject@VCOPOSElectronicJournal@@@ATL@@@ATL@@V?$CComCreator@V?$CComAggObject@VCOPOSElectronicJournal@@@ATL@@@2@@ATL@@SGJPAXABU_GUID@@PAPAX@Z 10002690 f i ElectronicJournal.obj
 0001:000016b0       ?Next@?$CComEnumImpl@UIEnumConnectionPoints@@$1?_GUID_b196b285_bab4_101a_b69c_00aa00341d07@@3U__s_GUID@@BPAUIConnectionPoint@@V?$_CopyInterface@UIConnectionPoint@@@ATL@@@ATL@@UAGJKPAPAUIConnectionPoint@@PAK@Z 100026b0 f i ElectronicJournal.obj
 0001:00001787       ?Skip@?$CComEnumImpl@UIEnumConnectionPoints@@$1?_GUID_b196b285_bab4_101a_b69c_00aa00341d07@@3U__s_GUID@@BPAUIConnectionPoint@@V?$_CopyInterface@UIConnectionPoint@@@ATL@@@ATL@@UAGJK@Z 10002787 f i ElectronicJournal.obj
 0001:000017b4       ?Reset@?$CComEnumImpl@UIEnumConnections@@$1?_GUID_b196b287_bab4_101a_b69c_00aa00341d07@@3U__s_GUID@@BUtagCONNECTDATA@@V?$_Copy@UtagCONNECTDATA@@@ATL@@@ATL@@UAGJXZ 100027b4 f i ElectronicJournal.obj
 0001:000017b4       ?Reset@?$CComEnumImpl@UIEnumConnectionPoints@@$1?_GUID_b196b285_bab4_101a_b69c_00aa00341d07@@3U__s_GUID@@BPAUIConnectionPoint@@V?$_CopyInterface@UIConnectionPoint@@@ATL@@@ATL@@UAGJXZ 100027b4 f i ElectronicJournal.obj
 0001:000017c6       ?Clone@?$CComEnumImpl@UIEnumConnectionPoints@@$1?_GUID_b196b285_bab4_101a_b69c_00aa00341d07@@3U__s_GUID@@BPAUIConnectionPoint@@V?$_CopyInterface@UIConnectionPoint@@@ATL@@@ATL@@UAGJPAPAUIEnumConnectionPoints@@@Z 100027c6 f i ElectronicJournal.obj
 0001:000018a5       ?AddRef@?$CComObject@V?$CComEnum@UIEnumConnections@@$1?_GUID_b196b287_bab4_101a_b69c_00aa00341d07@@3U__s_GUID@@BUtagCONNECTDATA@@V?$_Copy@UtagCONNECTDATA@@@ATL@@VCComSingleThreadModel@6@@ATL@@@ATL@@UAGKXZ 100028a5 f i ElectronicJournal.obj
 0001:000018a5       ?AddRef@?$CComObject@V?$CComEnum@UIEnumConnectionPoints@@$1?_GUID_b196b285_bab4_101a_b69c_00aa00341d07@@3U__s_GUID@@BPAUIConnectionPoint@@V?$_CopyInterface@UIConnectionPoint@@@ATL@@VCComSingleThreadModel@6@@ATL@@@ATL@@UAGKXZ 100028a5 f i ElectronicJournal.obj
 0001:000018b6       ?Release@?$CComObject@V?$CComEnum@UIEnumConnections@@$1?_GUID_b196b287_bab4_101a_b69c_00aa00341d07@@3U__s_GUID@@BUtagCONNECTDATA@@V?$_Copy@UtagCONNECTDATA@@@ATL@@VCComSingleThreadModel@6@@ATL@@@ATL@@UAGKXZ 100028b6 f i ElectronicJournal.obj
 0001:000018b6       ?Release@?$CComObject@V?$CComEnum@UIEnumConnectionPoints@@$1?_GUID_b196b285_bab4_101a_b69c_00aa00341d07@@3U__s_GUID@@BPAUIConnectionPoint@@V?$_CopyInterface@UIConnectionPoint@@@ATL@@VCComSingleThreadModel@6@@ATL@@@ATL@@UAGKXZ 100028b6 f i ElectronicJournal.obj
 0001:000018f2       ?QueryInterface@?$CComObject@V?$CComEnum@UIEnumConnectionPoints@@$1?_GUID_b196b285_bab4_101a_b69c_00aa00341d07@@3U__s_GUID@@BPAUIConnectionPoint@@V?$_CopyInterface@UIConnectionPoint@@@ATL@@VCComSingleThreadModel@6@@ATL@@@ATL@@UAGJABU_GUID@@PAPAX@Z 100028f2 f i ElectronicJournal.obj
 0001:0000190c       ??_E?$CComObject@V?$CComEnum@UIEnumConnectionPoints@@$1?_GUID_b196b285_bab4_101a_b69c_00aa00341d07@@3U__s_GUID@@BPAUIConnectionPoint@@V?$_CopyInterface@UIConnectionPoint@@@ATL@@VCComSingleThreadModel@6@@ATL@@@ATL@@UAEPAXI@Z 1000290c f i ElectronicJournal.obj
 0001:0000190c       ??_G?$CComObject@V?$CComEnum@UIEnumConnectionPoints@@$1?_GUID_b196b285_bab4_101a_b69c_00aa00341d07@@3U__s_GUID@@BPAUIConnectionPoint@@V?$_CopyInterface@UIConnectionPoint@@@ATL@@VCComSingleThreadModel@6@@ATL@@@ATL@@UAEPAXI@Z 1000290c f i ElectronicJournal.obj
 0001:0000192e       ?AddRef@?$CComObjectCached@VCComClassFactory@ATL@@@ATL@@UAGKXZ 1000292e f i ElectronicJournal.obj
 0001:00001955       ?Release@?$CComObjectCached@VCComClassFactory@ATL@@@ATL@@UAGKXZ 10002955 f i ElectronicJournal.obj
 0001:0000198b       ?QueryInterface@?$CComObjectCached@VCComClassFactory@ATL@@@ATL@@UAGJABU_GUID@@PAPAX@Z 1000298b f i ElectronicJournal.obj
 0001:000019a5       ??_G?$CComObjectCached@VCComClassFactory@ATL@@@ATL@@UAEPAXI@Z 100029a5 f i ElectronicJournal.obj
 0001:000019a5       ??_E?$CComObjectCached@VCComClassFactory@ATL@@@ATL@@UAEPAXI@Z 100029a5 f i ElectronicJournal.obj
 0001:000019c7       ?AddRef@?$CComAggObject@VCOPOSElectronicJournal@@@ATL@@UAGKXZ 100029c7 f i ElectronicJournal.obj
 0001:000019d8       ?Release@?$CComAggObject@VCOPOSElectronicJournal@@@ATL@@UAGKXZ 100029d8 f i ElectronicJournal.obj
 0001:00001a14       ?QueryInterface@?$CComAggObject@VCOPOSElectronicJournal@@@ATL@@UAGJABU_GUID@@PAPAX@Z 10002a14 f i ElectronicJournal.obj
 0001:00001a63       ?AddRef@?$CComContainedObject@VCOPOSElectronicJournal@@@ATL@@UAGKXZ 10002a63 f i ElectronicJournal.obj
 0001:00001a79       ?Release@?$CComContainedObject@VCOPOSElectronicJournal@@@ATL@@UAGKXZ 10002a79 f i ElectronicJournal.obj
 0001:00001a8f       ?QueryInterface@?$CComContainedObject@VCOPOSElectronicJournal@@@ATL@@UAGJABU_GUID@@PAPAX@Z 10002a8f f i ElectronicJournal.obj
 0001:00001aaa       ??_E?$CComAggObject@VCOPOSElectronicJournal@@@ATL@@UAEPAXI@Z 10002aaa f i ElectronicJournal.obj
 0001:00001aaa       ??_G?$CComAggObject@VCOPOSElectronicJournal@@@ATL@@UAEPAXI@Z 10002aaa f i ElectronicJournal.obj
 0001:00001acf       ?AddRef@?$CComObject@VCOPOSElectronicJournal@@@ATL@@UAGKXZ 10002acf f i ElectronicJournal.obj
 0001:00001ae6       ?Release@?$CComObject@VCOPOSElectronicJournal@@@ATL@@UAGKXZ 10002ae6 f i ElectronicJournal.obj
 0001:00001b28       ?QueryInterface@?$CComObject@VCOPOSElectronicJournal@@@ATL@@UAGJABU_GUID@@PAPAX@Z 10002b28 f i ElectronicJournal.obj
 0001:00001b42       ?ObjectMain@CComObjectRootBase@ATL@@SGX_N@Z 10002b42 f i ElectronicJournal.obj
 0001:00001b42       ?OnFinalMessage@?$CWindowImplBaseT@VCWindow@ATL@@V?$CWinTraits@$0FGAAAAAA@$0A@@2@@ATL@@UAEXPAUHWND__@@@Z 10002b42 f i ElectronicJournal.obj
 0001:00001b45       ?OnDrawAdvanced@CComControlBase@ATL@@UAEJAAUATL_DRAWINFO@@@Z 10002b45 f i ElectronicJournal.obj
 0001:00001c34       ?CreateInstance@CComClassFactory@ATL@@UAGJPAUIUnknown@@ABU_GUID@@PAPAX@Z 10002c34 f i ElectronicJournal.obj
 0001:00001c72       ?LockServer@CComClassFactory@ATL@@UAGJH@Z 10002c72 f i ElectronicJournal.obj
 0001:00001c91       ??_GCComClassFactory@ATL@@UAEPAXI@Z 10002c91 f i ElectronicJournal.obj
 0001:00001c91       ??_ECComClassFactory@ATL@@UAEPAXI@Z 10002c91 f i ElectronicJournal.obj
 0001:00001cbc       ?Next@?$CComEnumImpl@UIEnumConnections@@$1?_GUID_b196b287_bab4_101a_b69c_00aa00341d07@@3U__s_GUID@@BUtagCONNECTDATA@@V?$_Copy@UtagCONNECTDATA@@@ATL@@@ATL@@UAGJKPAUtagCONNECTDATA@@PAK@Z 10002cbc f i ElectronicJournal.obj
 0001:00001d93       ?Skip@?$CComEnumImpl@UIEnumConnections@@$1?_GUID_b196b287_bab4_101a_b69c_00aa00341d07@@3U__s_GUID@@BUtagCONNECTDATA@@V?$_Copy@UtagCONNECTDATA@@@ATL@@@ATL@@UAGJK@Z 10002d93 f i ElectronicJournal.obj
 0001:00001dc0       ?Clone@?$CComEnumImpl@UIEnumConnections@@$1?_GUID_b196b287_bab4_101a_b69c_00aa00341d07@@3U__s_GUID@@BUtagCONNECTDATA@@V?$_Copy@UtagCONNECTDATA@@@ATL@@@ATL@@UAGJPAPAUIEnumConnections@@@Z 10002dc0 f i ElectronicJournal.obj
 0001:00001e9f       ?QueryInterface@?$CComObject@V?$CComEnum@UIEnumConnections@@$1?_GUID_b196b287_bab4_101a_b69c_00aa00341d07@@3U__s_GUID@@BUtagCONNECTDATA@@V?$_Copy@UtagCONNECTDATA@@@ATL@@VCComSingleThreadModel@6@@ATL@@@ATL@@UAGJABU_GUID@@PAPAX@Z 10002e9f f i ElectronicJournal.obj
 0001:00001eb9       ??_G?$CComObject@V?$CComEnum@UIEnumConnections@@$1?_GUID_b196b287_bab4_101a_b69c_00aa00341d07@@3U__s_GUID@@BUtagCONNECTDATA@@V?$_Copy@UtagCONNECTDATA@@@ATL@@VCComSingleThreadModel@6@@ATL@@@ATL@@UAEPAXI@Z 10002eb9 f i ElectronicJournal.obj
 0001:00001eb9       ??_E?$CComObject@V?$CComEnum@UIEnumConnections@@$1?_GUID_b196b287_bab4_101a_b69c_00aa00341d07@@3U__s_GUID@@BUtagCONNECTDATA@@V?$_Copy@UtagCONNECTDATA@@@ATL@@VCComSingleThreadModel@6@@ATL@@@ATL@@UAEPAXI@Z 10002eb9 f i ElectronicJournal.obj
 0001:00001edb       ??_E?$CComObject@VCOPOSElectronicJournal@@@ATL@@W3AEPAXI@Z 10002edb f i ElectronicJournal.obj
 0001:00001ee3       ??_E?$CComObject@VCOPOSElectronicJournal@@@ATL@@WEM@AEPAXI@Z 10002ee3 f i ElectronicJournal.obj
 0001:00001eeb       ?QueryInterface@?$CComObject@VCOPOSElectronicJournal@@@ATL@@WHA@AGJABU_GUID@@PAPAX@Z 10002eeb f i ElectronicJournal.obj
 0001:00001ef5       ?AddRef@?$CComObject@VCOPOSElectronicJournal@@@ATL@@WHA@AGKXZ 10002ef5 f i ElectronicJournal.obj
 0001:00001eff       ?Release@?$CComObject@VCOPOSElectronicJournal@@@ATL@@WHA@AGKXZ 10002eff f i ElectronicJournal.obj
 0001:00001f09       ?QueryInterface@?$CComObject@VCOPOSElectronicJournal@@@ATL@@WHE@AGJABU_GUID@@PAPAX@Z 10002f09 f i ElectronicJournal.obj
 0001:00001f13       ?AddRef@?$CComObject@VCOPOSElectronicJournal@@@ATL@@WHE@AGKXZ 10002f13 f i ElectronicJournal.obj
 0001:00001f1d       ?Release@?$CComObject@VCOPOSElectronicJournal@@@ATL@@WHE@AGKXZ 10002f1d f i ElectronicJournal.obj
 0001:00001f27       ?QueryInterface@?$CComObject@VCOPOSElectronicJournal@@@ATL@@WHI@AGJABU_GUID@@PAPAX@Z 10002f27 f i ElectronicJournal.obj
 0001:00001f31       ?AddRef@?$CComObject@VCOPOSElectronicJournal@@@ATL@@WHI@AGKXZ 10002f31 f i ElectronicJournal.obj
 0001:00001f3b       ?Release@?$CComObject@VCOPOSElectronicJournal@@@ATL@@WHI@AGKXZ 10002f3b f i ElectronicJournal.obj
 0001:00001f45       ?QueryInterface@?$CComObject@VCOPOSElectronicJournal@@@ATL@@WHM@AGJABU_GUID@@PAPAX@Z 10002f45 f i ElectronicJournal.obj
 0001:00001f4f       ?AddRef@?$CComObject@VCOPOSElectronicJournal@@@ATL@@WHM@AGKXZ 10002f4f f i ElectronicJournal.obj
 0001:00001f59       ?Release@?$CComObject@VCOPOSElectronicJournal@@@ATL@@WHM@AGKXZ 10002f59 f i ElectronicJournal.obj
 0001:00001f63       ?QueryInterface@?$CComObject@VCOPOSElectronicJournal@@@ATL@@WIA@AGJABU_GUID@@PAPAX@Z 10002f63 f i ElectronicJournal.obj
 0001:00001f70       ?AddRef@?$CComObject@VCOPOSElectronicJournal@@@ATL@@WIA@AGKXZ 10002f70 f i ElectronicJournal.obj
 0001:00001f7d       ?Release@?$CComObject@VCOPOSElectronicJournal@@@ATL@@WIA@AGKXZ 10002f7d f i ElectronicJournal.obj
 0001:00001f8a       ?QueryInterface@?$CComObject@VCOPOSElectronicJournal@@@ATL@@WIE@AGJABU_GUID@@PAPAX@Z 10002f8a f i ElectronicJournal.obj
 0001:00001f97       ?AddRef@?$CComObject@VCOPOSElectronicJournal@@@ATL@@WIE@AGKXZ 10002f97 f i ElectronicJournal.obj
 0001:00001fa4       ?Release@?$CComObject@VCOPOSElectronicJournal@@@ATL@@WIE@AGKXZ 10002fa4 f i ElectronicJournal.obj
 0001:00001fb1       ?QueryInterface@?$CComObject@VCOPOSElectronicJournal@@@ATL@@WII@AGJABU_GUID@@PAPAX@Z 10002fb1 f i ElectronicJournal.obj
 0001:00001fbe       ?AddRef@?$CComObject@VCOPOSElectronicJournal@@@ATL@@WII@AGKXZ 10002fbe f i ElectronicJournal.obj
 0001:00001fcb       ?Release@?$CComObject@VCOPOSElectronicJournal@@@ATL@@WII@AGKXZ 10002fcb f i ElectronicJournal.obj
 0001:00001fd8       ?QueryInterface@?$CComObject@VCOPOSElectronicJournal@@@ATL@@WIM@AGJABU_GUID@@PAPAX@Z 10002fd8 f i ElectronicJournal.obj
 0001:00001fe5       ?AddRef@?$CComObject@VCOPOSElectronicJournal@@@ATL@@WIM@AGKXZ 10002fe5 f i ElectronicJournal.obj
 0001:00001ff2       ?Release@?$CComObject@VCOPOSElectronicJournal@@@ATL@@WIM@AGKXZ 10002ff2 f i ElectronicJournal.obj
 0001:00001fff       ?QueryInterface@?$CComObject@VCOPOSElectronicJournal@@@ATL@@WJA@AGJABU_GUID@@PAPAX@Z 10002fff f i ElectronicJournal.obj
 0001:0000200c       ?AddRef@?$CComObject@VCOPOSElectronicJournal@@@ATL@@WJA@AGKXZ 1000300c f i ElectronicJournal.obj
 0001:00002019       ?Release@?$CComObject@VCOPOSElectronicJournal@@@ATL@@WJA@AGKXZ 10003019 f i ElectronicJournal.obj
 0001:00002026       ?QueryInterface@?$CComObject@VCOPOSElectronicJournal@@@ATL@@WJE@AGJABU_GUID@@PAPAX@Z 10003026 f i ElectronicJournal.obj
 0001:00002033       ?AddRef@?$CComObject@VCOPOSElectronicJournal@@@ATL@@WJE@AGKXZ 10003033 f i ElectronicJournal.obj
 0001:00002040       ?Release@?$CComObject@VCOPOSElectronicJournal@@@ATL@@WJE@AGKXZ 10003040 f i ElectronicJournal.obj
 0001:0000204d       ?QueryInterface@?$CComObject@VCOPOSElectronicJournal@@@ATL@@WJI@AGJABU_GUID@@PAPAX@Z 1000304d f i ElectronicJournal.obj
 0001:0000205a       ?AddRef@?$CComObject@VCOPOSElectronicJournal@@@ATL@@WJI@AGKXZ 1000305a f i ElectronicJournal.obj
 0001:00002067       ?Release@?$CComObject@VCOPOSElectronicJournal@@@ATL@@WJI@AGKXZ 10003067 f i ElectronicJournal.obj
 0001:00002074       ?QueryInterface@?$CComObject@VCOPOSElectronicJournal@@@ATL@@WJM@AGJABU_GUID@@PAPAX@Z 10003074 f i ElectronicJournal.obj
 0001:00002081       ?AddRef@?$CComObject@VCOPOSElectronicJournal@@@ATL@@WJM@AGKXZ 10003081 f i ElectronicJournal.obj
 0001:0000208e       ?Release@?$CComObject@VCOPOSElectronicJournal@@@ATL@@WJM@AGKXZ 1000308e f i ElectronicJournal.obj
 0001:0000209b       ?QueryInterface@?$CComObject@VCOPOSElectronicJournal@@@ATL@@WKA@AGJABU_GUID@@PAPAX@Z 1000309b f i ElectronicJournal.obj
 0001:000020a8       ?AddRef@?$CComObject@VCOPOSElectronicJournal@@@ATL@@WKA@AGKXZ 100030a8 f i ElectronicJournal.obj
 0001:000020b5       ?Release@?$CComObject@VCOPOSElectronicJournal@@@ATL@@WKA@AGKXZ 100030b5 f i ElectronicJournal.obj
 0001:000020c2       ?AddRef@?$CComObject@VCOPOSElectronicJournal@@@ATL@@WKI@AGKXZ 100030c2 f i ElectronicJournal.obj
 0001:000020cf       ?Release@?$CComObject@VCOPOSElectronicJournal@@@ATL@@WKI@AGKXZ 100030cf f i ElectronicJournal.obj
 0001:000020dc       ?AddRef@?$CComObject@VCOPOSElectronicJournal@@@ATL@@WLE@AGKXZ 100030dc f i ElectronicJournal.obj
 0001:000020e9       ?Release@?$CComObject@VCOPOSElectronicJournal@@@ATL@@WLE@AGKXZ 100030e9 f i ElectronicJournal.obj
 0001:000020f6       ??_E?$CComContainedObject@VCOPOSElectronicJournal@@@ATL@@W3AEPAXI@Z 100030f6 f i ElectronicJournal.obj
 0001:000020fe       ??_E?$CComContainedObject@VCOPOSElectronicJournal@@@ATL@@WEM@AEPAXI@Z 100030fe f i ElectronicJournal.obj
 0001:00002106       ?QueryInterface@?$CComContainedObject@VCOPOSElectronicJournal@@@ATL@@WHA@AGJABU_GUID@@PAPAX@Z 10003106 f i ElectronicJournal.obj
 0001:00002110       ?AddRef@?$CComContainedObject@VCOPOSElectronicJournal@@@ATL@@WHA@AGKXZ 10003110 f i ElectronicJournal.obj
 0001:0000211a       ?Release@?$CComContainedObject@VCOPOSElectronicJournal@@@ATL@@WHA@AGKXZ 1000311a f i ElectronicJournal.obj
 0001:00002124       ?QueryInterface@?$CComContainedObject@VCOPOSElectronicJournal@@@ATL@@WHE@AGJABU_GUID@@PAPAX@Z 10003124 f i ElectronicJournal.obj
 0001:0000212e       ?AddRef@?$CComContainedObject@VCOPOSElectronicJournal@@@ATL@@WHE@AGKXZ 1000312e f i ElectronicJournal.obj
 0001:00002138       ?Release@?$CComContainedObject@VCOPOSElectronicJournal@@@ATL@@WHE@AGKXZ 10003138 f i ElectronicJournal.obj
 0001:00002142       ?QueryInterface@?$CComContainedObject@VCOPOSElectronicJournal@@@ATL@@WHI@AGJABU_GUID@@PAPAX@Z 10003142 f i ElectronicJournal.obj
 0001:0000214c       ?AddRef@?$CComContainedObject@VCOPOSElectronicJournal@@@ATL@@WHI@AGKXZ 1000314c f i ElectronicJournal.obj
 0001:00002156       ?Release@?$CComContainedObject@VCOPOSElectronicJournal@@@ATL@@WHI@AGKXZ 10003156 f i ElectronicJournal.obj
 0001:00002160       ?QueryInterface@?$CComContainedObject@VCOPOSElectronicJournal@@@ATL@@WHM@AGJABU_GUID@@PAPAX@Z 10003160 f i ElectronicJournal.obj
 0001:0000216a       ?AddRef@?$CComContainedObject@VCOPOSElectronicJournal@@@ATL@@WHM@AGKXZ 1000316a f i ElectronicJournal.obj
 0001:00002174       ?Release@?$CComContainedObject@VCOPOSElectronicJournal@@@ATL@@WHM@AGKXZ 10003174 f i ElectronicJournal.obj
 0001:0000217e       ?QueryInterface@?$CComContainedObject@VCOPOSElectronicJournal@@@ATL@@WIA@AGJABU_GUID@@PAPAX@Z 1000317e f i ElectronicJournal.obj
 0001:0000218b       ?AddRef@?$CComContainedObject@VCOPOSElectronicJournal@@@ATL@@WIA@AGKXZ 1000318b f i ElectronicJournal.obj
 0001:00002198       ?Release@?$CComContainedObject@VCOPOSElectronicJournal@@@ATL@@WIA@AGKXZ 10003198 f i ElectronicJournal.obj
 0001:000021a5       ?QueryInterface@?$CComContainedObject@VCOPOSElectronicJournal@@@ATL@@WIE@AGJABU_GUID@@PAPAX@Z 100031a5 f i ElectronicJournal.obj
 0001:000021b2       ?AddRef@?$CComContainedObject@VCOPOSElectronicJournal@@@ATL@@WIE@AGKXZ 100031b2 f i ElectronicJournal.obj
 0001:000021bf       ?Release@?$CComContainedObject@VCOPOSElectronicJournal@@@ATL@@WIE@AGKXZ 100031bf f i ElectronicJournal.obj
 0001:000021cc       ?QueryInterface@?$CComContainedObject@VCOPOSElectronicJournal@@@ATL@@WII@AGJABU_GUID@@PAPAX@Z 100031cc f i ElectronicJournal.obj
 0001:000021d9       ?AddRef@?$CComContainedObject@VCOPOSElectronicJournal@@@ATL@@WII@AGKXZ 100031d9 f i ElectronicJournal.obj
 0001:000021e6       ?Release@?$CComContainedObject@VCOPOSElectronicJournal@@@ATL@@WII@AGKXZ 100031e6 f i ElectronicJournal.obj
 0001:000021f3       ?QueryInterface@?$CComContainedObject@VCOPOSElectronicJournal@@@ATL@@WIM@AGJABU_GUID@@PAPAX@Z 100031f3 f i ElectronicJournal.obj
 0001:00002200       ?AddRef@?$CComContainedObject@VCOPOSElectronicJournal@@@ATL@@WIM@AGKXZ 10003200 f i ElectronicJournal.obj
 0001:0000220d       ?Release@?$CComContainedObject@VCOPOSElectronicJournal@@@ATL@@WIM@AGKXZ 1000320d f i ElectronicJournal.obj
 0001:0000221a       ?QueryInterface@?$CComContainedObject@VCOPOSElectronicJournal@@@ATL@@WJA@AGJABU_GUID@@PAPAX@Z 1000321a f i ElectronicJournal.obj
 0001:00002227       ?AddRef@?$CComContainedObject@VCOPOSElectronicJournal@@@ATL@@WJA@AGKXZ 10003227 f i ElectronicJournal.obj
 0001:00002234       ?Release@?$CComContainedObject@VCOPOSElectronicJournal@@@ATL@@WJA@AGKXZ 10003234 f i ElectronicJournal.obj
 0001:00002241       ?QueryInterface@?$CComContainedObject@VCOPOSElectronicJournal@@@ATL@@WJE@AGJABU_GUID@@PAPAX@Z 10003241 f i ElectronicJournal.obj
 0001:0000224e       ?AddRef@?$CComContainedObject@VCOPOSElectronicJournal@@@ATL@@WJE@AGKXZ 1000324e f i ElectronicJournal.obj
 0001:0000225b       ?Release@?$CComContainedObject@VCOPOSElectronicJournal@@@ATL@@WJE@AGKXZ 1000325b f i ElectronicJournal.obj
 0001:00002268       ?QueryInterface@?$CComContainedObject@VCOPOSElectronicJournal@@@ATL@@WJI@AGJABU_GUID@@PAPAX@Z 10003268 f i ElectronicJournal.obj
 0001:00002275       ?AddRef@?$CComContainedObject@VCOPOSElectronicJournal@@@ATL@@WJI@AGKXZ 10003275 f i ElectronicJournal.obj
 0001:00002282       ?Release@?$CComContainedObject@VCOPOSElectronicJournal@@@ATL@@WJI@AGKXZ 10003282 f i ElectronicJournal.obj
 0001:0000228f       ?QueryInterface@?$CComContainedObject@VCOPOSElectronicJournal@@@ATL@@WJM@AGJABU_GUID@@PAPAX@Z 1000328f f i ElectronicJournal.obj
 0001:0000229c       ?AddRef@?$CComContainedObject@VCOPOSElectronicJournal@@@ATL@@WJM@AGKXZ 1000329c f i ElectronicJournal.obj
 0001:000022a9       ?Release@?$CComContainedObject@VCOPOSElectronicJournal@@@ATL@@WJM@AGKXZ 100032a9 f i ElectronicJournal.obj
 0001:000022b6       ?QueryInterface@?$CComContainedObject@VCOPOSElectronicJournal@@@ATL@@WKA@AGJABU_GUID@@PAPAX@Z 100032b6 f i ElectronicJournal.obj
 0001:000022c3       ?AddRef@?$CComContainedObject@VCOPOSElectronicJournal@@@ATL@@WKA@AGKXZ 100032c3 f i ElectronicJournal.obj
 0001:000022d0       ?Release@?$CComContainedObject@VCOPOSElectronicJournal@@@ATL@@WKA@AGKXZ 100032d0 f i ElectronicJournal.obj
 0001:000022dd       ?AddRef@?$CComContainedObject@VCOPOSElectronicJournal@@@ATL@@WKI@AGKXZ 100032dd f i ElectronicJournal.obj
 0001:000022ea       ?Release@?$CComContainedObject@VCOPOSElectronicJournal@@@ATL@@WKI@AGKXZ 100032ea f i ElectronicJournal.obj
 0001:000022f7       ?AddRef@?$CComContainedObject@VCOPOSElectronicJournal@@@ATL@@WLE@AGKXZ 100032f7 f i ElectronicJournal.obj
 0001:00002304       ?Release@?$CComContainedObject@VCOPOSElectronicJournal@@@ATL@@WLE@AGKXZ 10003304 f i ElectronicJournal.obj
 0001:00002311       ?Lock@CAtlModule@ATL@@UAEJXZ 10003311 f i ElectronicJournal.obj
 0001:0000231b       ?Unlock@CAtlModule@ATL@@UAEJXZ 1000331b f i ElectronicJournal.obj
 0001:00002325       ?GetLockCount@CAtlModule@ATL@@UAEJXZ 10003325 f i ElectronicJournal.obj
 0001:00002329       ?GetGITPtr@CAtlModule@ATL@@UAEJPAPAUIGlobalInterfaceTable@@@Z 10003329 f i ElectronicJournal.obj
 0001:00002375       ?GetWindowProc@?$CWindowImplBaseT@VCWindow@ATL@@V?$CWinTraits@$0FGAAAAAA@$0A@@2@@ATL@@UAEP6GJPAUHWND__@@IIJ@ZXZ 10003375 f i ElectronicJournal.obj
 0001:0000237b       ?StartWindowProc@?$CWindowImplBaseT@VCWindow@ATL@@V?$CWinTraits@$0FGAAAAAA@$0A@@2@@ATL@@SGJPAUHWND__@@IIJ@Z 1000337b f i ElectronicJournal.obj
 0001:000023cf       ?AddCommonRGSReplacements@?$CAtlModuleT@VCComModule@ATL@@@ATL@@UAEJPAUIRegistrarBase@@@Z 100033cf f i ElectronicJournal.obj
 0001:000023e9       ?UpdateRegistryFromResourceD@CComModule@ATL@@UAGJPB_WHPAU_ATL_REGMAP_ENTRY@2@@Z 100033e9 f i ElectronicJournal.obj
 0001:000023e9       ?UpdateRegistryFromResourceD@CComModule@ATL@@UAGJIHPAU_ATL_REGMAP_ENTRY@2@@Z 100033e9 f i ElectronicJournal.obj
 0001:000023f1       ?UpdateRegistryFromResource@CComModule@ATL@@UAGJPB_WHPAU_ATL_REGMAP_ENTRY@2@@Z 100033f1 f i ElectronicJournal.obj
 0001:000023fa       ?UpdateRegistryFromResource@CComModule@ATL@@UAGJIHPAU_ATL_REGMAP_ENTRY@2@@Z 100033fa f i ElectronicJournal.obj
 0001:00002403       ?GetTypeInfoCount@?$IDispatchImpl@UIOPOSElectronicJournal@@$1?IID_IOPOSElectronicJournal@@3U_GUID@@B$1?LIBID_OposElectronicJournal_CCO@@3U3@B$00$0A@VCComTypeInfoHolder@ATL@@@ATL@@UAGJPAI@Z 10003403 f i ElectronicJournal.obj
 0001:00002420       ?GetTypeInfo@?$IDispatchImpl@UIOPOSElectronicJournal@@$1?IID_IOPOSElectronicJournal@@3U_GUID@@B$1?LIBID_OposElectronicJournal_CCO@@3U3@B$00$0A@VCComTypeInfoHolder@ATL@@@ATL@@UAGJIKPAPAUITypeInfo@@@Z 10003420 f i ElectronicJournal.obj
 0001:00002444       ?GetIDsOfNames@?$IDispatchImpl@UIOPOSElectronicJournal@@$1?IID_IOPOSElectronicJournal@@3U_GUID@@B$1?LIBID_OposElectronicJournal_CCO@@3U3@B$00$0A@VCComTypeInfoHolder@ATL@@@ATL@@UAGJABU_GUID@@PAPA_WIKPAJ@Z 10003444 f i ElectronicJournal.obj
 0001:00002464       ?Invoke@?$IDispatchImpl@UIOPOSElectronicJournal@@$1?IID_IOPOSElectronicJournal@@3U_GUID@@B$1?LIBID_OposElectronicJournal_CCO@@3U3@B$00$0A@VCComTypeInfoHolder@ATL@@@ATL@@UAGJJABU_GUID@@KGPAUtagDISPPARAMS@@PAUtagVARIANT@@PAUtagEXCEPINFO@@PAI@Z 10003464 f i ElectronicJournal.obj
 0001:00002472       ??_ECComModule@ATL@@UAEPAXI@Z 10003472 f i ElectronicJournal.obj
 0001:00002472       ??_GCComModule@ATL@@UAEPAXI@Z 10003472 f i ElectronicJournal.obj
 0001:0000249a       ?CreateControlWindow@?$CComControl@VCOPOSElectronicJournal@@V?$CWindowImpl@VCOPOSElectronicJournal@@VCWindow@ATL@@V?$CWinTraits@$0FGAAAAAA@$0A@@3@@ATL@@@ATL@@UAEPAUHWND__@@PAU3@AAUtagRECT@@@Z 1000349a f i ElectronicJournal.obj
 0001:000024c9       ?ControlQueryInterface@?$CComControl@VCOPOSElectronicJournal@@V?$CWindowImpl@VCOPOSElectronicJournal@@VCWindow@ATL@@V?$CWinTraits@$0FGAAAAAA@$0A@@3@@ATL@@@ATL@@UAEJABU_GUID@@PAPAX@Z 100034c9 f i ElectronicJournal.obj
 0001:000024e4       ?IsDirty@?$IPersistStreamInitImpl@VCOPOSElectronicJournal@@@ATL@@UAGJXZ 100034e4 f i ElectronicJournal.obj
 0001:00002503       ?Load@?$IPersistStreamInitImpl@VCOPOSElectronicJournal@@@ATL@@UAGJPAUIStream@@@Z 10003503 f i ElectronicJournal.obj
 0001:00002522       ?Save@?$IPersistStreamInitImpl@VCOPOSElectronicJournal@@@ATL@@UAGJPAUIStream@@H@Z 10003522 f i ElectronicJournal.obj
 0001:00002544       ?GetSizeMax@?$IPersistStreamInitImpl@VCOPOSElectronicJournal@@@ATL@@UAGJPAT_ULARGE_INTEGER@@@Z 10003544 f i ElectronicJournal.obj
 0001:000026f9       ?InitNew@?$IPersistStreamInitImpl@VCOPOSElectronicJournal@@@ATL@@UAGJXZ 100036f9 f i ElectronicJournal.obj
 0001:00002716       ?SetClientSite@?$IOleObjectImpl@VCOPOSElectronicJournal@@@ATL@@UAGJPAUIOleClientSite@@@Z 10003716 f i ElectronicJournal.obj
 0001:00002733       ?GetClientSite@?$IOleObjectImpl@VCOPOSElectronicJournal@@@ATL@@UAGJPAPAUIOleClientSite@@@Z 10003733 f i ElectronicJournal.obj
 0001:00002750       ?SetHostNames@?$IOleObjectImpl@VCOPOSElectronicJournal@@@ATL@@UAGJPB_W0@Z 10003750 f i ElectronicJournal.obj
 0001:00002755       ?Close@?$IOleObjectImpl@VCOPOSElectronicJournal@@@ATL@@UAGJK@Z 10003755 f i ElectronicJournal.obj
 0001:00002772       ?DoVerb@?$IOleObjectImpl@VCOPOSElectronicJournal@@@ATL@@UAGJJPAUtagMSG@@PAUIOleClientSite@@JPAUHWND__@@PBUtagRECT@@@Z 10003772 f i ElectronicJournal.obj
 0001:0000288a       ?EnumVerbs@?$IOleObjectImpl@VCOPOSElectronicJournal@@@ATL@@UAGJPAPAUIEnumOLEVERB@@@Z 1000388a f i ElectronicJournal.obj
 0001:000028ac       ?GetUserType@?$IOleObjectImpl@VCOPOSElectronicJournal@@@ATL@@UAGJKPAPA_W@Z 100038ac f i ElectronicJournal.obj
 0001:000028c4       ?SetExtent@?$IOleObjectImpl@VCOPOSElectronicJournal@@@ATL@@UAGJKPAUtagSIZE@@@Z 100038c4 f i ElectronicJournal.obj
 0001:000028e4       ?GetExtent@?$IOleObjectImpl@VCOPOSElectronicJournal@@@ATL@@UAGJKPAUtagSIZE@@@Z 100038e4 f i ElectronicJournal.obj
 0001:00002922       ?Advise@?$IOleObjectImpl@VCOPOSElectronicJournal@@@ATL@@UAGJPAUIAdviseSink@@PAK@Z 10003922 f i ElectronicJournal.obj
 0001:00002942       ?Unadvise@?$IOleObjectImpl@VCOPOSElectronicJournal@@@ATL@@UAGJK@Z 10003942 f i ElectronicJournal.obj
 0001:00002971       ?EnumAdvise@?$IOleObjectImpl@VCOPOSElectronicJournal@@@ATL@@UAGJPAPAUIEnumSTATDATA@@@Z 10003971 f i ElectronicJournal.obj
 0001:000029b1       ?GetMiscStatus@?$IOleObjectImpl@VCOPOSElectronicJournal@@@ATL@@UAGJKPAK@Z 100039b1 f i ElectronicJournal.obj
 0001:000029c9       ??$?4UITypeInfo2@@@?$CComPtr@UITypeInfo@@@ATL@@QAEPAUITypeInfo@@ABV?$CComPtr@UITypeInfo2@@@1@@Z 100039c9 f i ElectronicJournal.obj
 0001:000029f6       ??$AtlAdd@K@ATL@@YAJPAKKK@Z 100039f6 f i ElectronicJournal.obj
 0001:00002a19       ??$AtlAdd@_K@ATL@@YAJPA_K_K1@Z 10003a19 f i ElectronicJournal.obj
 0001:00002a51       ??$AtlAddThrow@K@ATL@@YAKKK@Z 10003a51 f i ElectronicJournal.obj
 0001:00002a77       ??$AtlModuleRegisterWndClassInfoT@VAtlModuleRegisterWndClassInfoParamW@ATL@@@ATL@@YAGPAU_ATL_BASE_MODULE70@0@PAU_ATL_WIN_MODULE70@0@PAU_ATL_WNDCLASSINFOW@0@PAP6GJPAUHWND__@@IIJ@ZVAtlModuleRegisterWndClassInfoParamW@0@@Z 10003a77 f i ElectronicJournal.obj
 0001:00002bc5       ??$AtlMultiply@H@ATL@@YAJPAHHH@Z 10003bc5 f i ElectronicJournal.obj
 0001:00002bfd       ??$AtlMultiply@K@ATL@@YAJPAKKK@Z 10003bfd f i ElectronicJournal.obj
 0001:00002bfd       ??$AtlMultiply@I@ATL@@YAJPAIII@Z 10003bfd f i ElectronicJournal.obj
 0001:00002c1f       ??$AtlMultiplyThrow@I@ATL@@YAIII@Z 10003c1f f i ElectronicJournal.obj
 0001:00002c45       ??0?$CComAggObject@VCOPOSElectronicJournal@@@ATL@@QAE@PAX@Z 10003c45 f i ElectronicJournal.obj
 0001:00002c72       ??0?$CComContainedObject@VCOPOSElectronicJournal@@@ATL@@QAE@PAX@Z 10003c72 f i ElectronicJournal.obj
 0001:00002d2b       ??0?$CComObject@V?$CComEnum@UIEnumConnectionPoints@@$1?_GUID_b196b285_bab4_101a_b69c_00aa00341d07@@3U__s_GUID@@BPAUIConnectionPoint@@V?$_CopyInterface@UIConnectionPoint@@@ATL@@VCComSingleThreadModel@6@@ATL@@@ATL@@QAE@PAX@Z 10003d2b f i ElectronicJournal.obj
 0001:00002d59       ??0?$CComObject@V?$CComEnum@UIEnumConnections@@$1?_GUID_b196b287_bab4_101a_b69c_00aa00341d07@@3U__s_GUID@@BUtagCONNECTDATA@@V?$_Copy@UtagCONNECTDATA@@@ATL@@VCComSingleThreadModel@6@@ATL@@@ATL@@QAE@PAX@Z 10003d59 f i ElectronicJournal.obj
 0001:00002d87       ??0?$CComObject@VCOPOSElectronicJournal@@@ATL@@QAE@PAX@Z 10003d87 f i ElectronicJournal.obj
 0001:00002e3e       ??0?$CComQIPtr@UIOleControlSite@@$1?_GUID_b196b289_bab4_101a_b69c_00aa00341d07@@3U__s_GUID@@B@ATL@@QAE@PAUIUnknown@@@Z 10003e3e f i ElectronicJournal.obj
 0001:00002e67       ??0CAtlModule@ATL@@QAE@XZ  10003e67 f i ElectronicJournal.obj
 0001:00002ea8       ??0CParseBuffer@CRegParser@ATL@@QAE@H@Z 10003ea8 f i ElectronicJournal.obj
 0001:00002ede       ??0_ATL_MSG@ATL@@QAE@PAUHWND__@@IIJH@Z 10003ede f i ElectronicJournal.obj
 0001:00002f16       ??1?$CComAggObject@VCOPOSElectronicJournal@@@ATL@@UAE@XZ 10003f16 f i ElectronicJournal.obj
 0001:00002f3a       ??1?$CComEnumImpl@UIEnumConnectionPoints@@$1?_GUID_b196b285_bab4_101a_b69c_00aa00341d07@@3U__s_GUID@@BPAUIConnectionPoint@@V?$_CopyInterface@UIConnectionPoint@@@ATL@@@ATL@@UAE@XZ 10003f3a f i ElectronicJournal.obj
 0001:00002f7a       ??1?$CComEnumImpl@UIEnumConnections@@$1?_GUID_b196b287_bab4_101a_b69c_00aa00341d07@@3U__s_GUID@@BUtagCONNECTDATA@@V?$_Copy@UtagCONNECTDATA@@@ATL@@@ATL@@UAE@XZ 10003f7a f i ElectronicJournal.obj
 0001:00002fba       ??1?$CComObject@V?$CComEnum@UIEnumConnectionPoints@@$1?_GUID_b196b285_bab4_101a_b69c_00aa00341d07@@3U__s_GUID@@BPAUIConnectionPoint@@V?$_CopyInterface@UIConnectionPoint@@@ATL@@VCComSingleThreadModel@6@@ATL@@@ATL@@UAE@XZ 10003fba f i ElectronicJournal.obj
 0001:00002fdd       ??1?$CComObject@V?$CComEnum@UIEnumConnections@@$1?_GUID_b196b287_bab4_101a_b69c_00aa00341d07@@3U__s_GUID@@BUtagCONNECTDATA@@V?$_Copy@UtagCONNECTDATA@@@ATL@@VCComSingleThreadModel@6@@ATL@@@ATL@@UAE@XZ 10003fdd f i ElectronicJournal.obj
 0001:00003000       ??1?$CComObject@VCOPOSElectronicJournal@@@ATL@@UAE@XZ 10004000 f i ElectronicJournal.obj
 0001:000030be       ??1?$CComObjectCached@VCComClassFactory@ATL@@@ATL@@UAE@XZ 100040be f i ElectronicJournal.obj
 0001:000030d4       ??1?$CComObjectRootEx@VCComMultiThreadModel@ATL@@@ATL@@QAE@XZ 100040d4 f i ElectronicJournal.obj
 0001:000030e9       ??1CRegObject@ATL@@UAE@XZ  100040e9 f i ElectronicJournal.obj
 0001:00003109       ??4?$CComPtr@UIOleClientSite@@@ATL@@QAEPAUIOleClientSite@@PAU2@@Z 10004109 f i ElectronicJournal.obj
 0001:00003109       ??4?$CComPtr@UIUnknown@@@ATL@@QAEPAUIUnknown@@PAU2@@Z 10004109 f i ElectronicJournal.obj
 0001:00003109       ??4?$CComPtr@UIAdviseSink@@@ATL@@QAEPAUIAdviseSink@@PAU2@@Z 10004109 f i ElectronicJournal.obj
 0001:0000313d       ??4?$CComQIPtr@UIOleObject@@$1?_GUID_00000112_0000_0000_c000_000000000046@@3U__s_GUID@@B@ATL@@QAEPAUIOleObject@@PAUIUnknown@@@Z 1000413d f i ElectronicJournal.obj
 0001:00003162       ??4?$CComQIPtr@UISpecifyPropertyPages@@$1?_GUID_b196b28b_bab4_101a_b69c_00aa00341d07@@3U__s_GUID@@B@ATL@@QAEPAUISpecifyPropertyPages@@PAUIUnknown@@@Z 10004162 f i ElectronicJournal.obj
 0001:00003187       ??_G?$CComContainedObject@VCOPOSElectronicJournal@@@ATL@@UAEPAXI@Z 10004187 f i ElectronicJournal.obj
 0001:00003187       ??_E?$CComContainedObject@VCOPOSElectronicJournal@@@ATL@@UAEPAXI@Z 10004187 f i ElectronicJournal.obj
 0001:000031ac       ??_E?$CComObject@VCOPOSElectronicJournal@@@ATL@@UAEPAXI@Z 100041ac f i ElectronicJournal.obj
 0001:000031ac       ??_G?$CComObject@VCOPOSElectronicJournal@@@ATL@@UAEPAXI@Z 100041ac f i ElectronicJournal.obj
 0001:000031d1       ?Add@?$CSimpleArray@GV?$CSimpleArrayEqualHelper@G@ATL@@@ATL@@QAEHABG@Z 100041d1 f i ElectronicJournal.obj
 0001:00003255       ?Add@?$CSimpleMap@PA_WPA_WVCExpansionVectorEqualHelper@ATL@@@ATL@@QAEHABQA_W0@Z 10004255 f i ElectronicJournal.obj
 0001:000032aa       ?Add@CComDynamicUnkArray@ATL@@QAEKPAUIUnknown@@@Z 100042aa f i ElectronicJournal.obj
 0001:00003365       ?Add@CExpansionVector@ATL@@QAEHPB_W0@Z 10004365 f i ElectronicJournal.obj
 0001:00003469       ?AddString@CParseBuffer@CRegParser@ATL@@QAEHPB_W@Z 10004469 f i ElectronicJournal.obj
 0001:0000349e       ?AddValue@CRegParser@ATL@@IAEJAAVCRegKey@2@PB_WPA_W@Z 1000449e f i ElectronicJournal.obj
 0001:000037bf       ?Allocate@?$CAtlSafeAllocBufferManager@VCCRTAllocator@ATL@@@_ATL_SAFE_ALLOCA_IMPL@ATL@@QAEPAXK@Z 100047bf f i ElectronicJournal.obj
 0001:000037ec       ?Allocate@?$CTempBuffer@E$0BAA@VCCRTAllocator@ATL@@@ATL@@QAEPAEI@Z 100047ec f i ElectronicJournal.obj
 0001:0000381b       ?Allocate@?$CTempBuffer@_W$0BAA@VCCRTAllocator@ATL@@@ATL@@QAEPA_WI@Z 1000481b f i ElectronicJournal.obj
 0001:0000384a       ?Allocate@?$CTempBuffer@_W$0EAA@VCCRTAllocator@ATL@@@ATL@@QAEPA_WI@Z 1000484a f i ElectronicJournal.obj
 0001:00003879       ?AllocateHeap@?$CTempBuffer@_W$0EAA@VCCRTAllocator@ATL@@@ATL@@AAEXI@Z 10004879 f i ElectronicJournal.obj
 0001:00003879       ?AllocateHeap@?$CTempBuffer@_W$0BAA@VCCRTAllocator@ATL@@@ATL@@AAEXI@Z 10004879 f i ElectronicJournal.obj
 0001:00003879       ?AllocateHeap@?$CTempBuffer@E$0BAA@VCCRTAllocator@ATL@@@ATL@@AAEXI@Z 10004879 f i ElectronicJournal.obj
 0001:0000389e       ?Append@CParseBuffer@CRegParser@ATL@@QAEHPB_WH@Z 1000489e f i ElectronicJournal.obj
 0001:0000392c       ?AtlCallTermFunc@ATL@@YGXPAU_ATL_MODULE70@1@@Z 1000492c f i ElectronicJournal.obj
 0001:00003970       ?AtlCoTaskMemCAlloc@ATL@@YAPAXKK@Z 10004970 f i ElectronicJournal.obj
 0001:0000399d       ?AtlCoTaskMemRecalloc@ATL@@YAPAXPAXKK@Z 1000499d f i ElectronicJournal.obj
 0001:000039cd       ?AtlComModuleGetClassObject@ATL@@YGJPAU_ATL_COM_MODULE70@1@ABU_GUID@@1PAPAX@Z 100049cd f i ElectronicJournal.obj
 0001:00003ac0       ?AtlComModuleRegisterServer@ATL@@YGJPAU_ATL_COM_MODULE70@1@HPBU_GUID@@@Z 10004ac0 f i ElectronicJournal.obj
 0001:00003b48       ?AtlComModuleUnregisterServer@ATL@@YGJPAU_ATL_COM_MODULE70@1@HPBU_GUID@@@Z 10004b48 f i ElectronicJournal.obj
 0001:00003bd0       ?AtlComQIPtrAssign2@ATL@@YAXPAPAUIUnknown@@PAU2@ABU_GUID@@@Z 10004bd0 f i ElectronicJournal.obj
 0001:00003bff       ?AtlCreateTargetDC@ATL@@YGPAUHDC__@@PAU2@PAUtagDVTARGETDEVICE@@@Z 10004bff f i ElectronicJournal.obj
 0001:00003c68       ?AtlCrtErrorCheck@ATL@@YAHH@Z 10004c68 f i ElectronicJournal.obj
 0001:00003ca3       ?AtlHiMetricToPixel@ATL@@YGXPBUtagSIZE@@PAU2@@Z 10004ca3 f i ElectronicJournal.obj
 0001:00003d18       ?AtlHresultFromLastError@ATL@@YAJXZ 10004d18 f i ElectronicJournal.obj
 0001:00003d2f       ?AtlHresultFromWin32@ATL@@YAJK@Z 10004d2f f i ElectronicJournal.obj
 0001:00003d44       ?AtlIPersistStreamInit_Load@ATL@@YGJPAUIStream@@PBUATL_PROPMAP_ENTRY@1@PAXPAUIUnknown@@@Z 10004d44 f i ElectronicJournal.obj
 0001:00003f24       ?AtlIPersistStreamInit_Save@ATL@@YGJPAUIStream@@HPBUATL_PROPMAP_ENTRY@1@PAXPAUIUnknown@@@Z 10004f24 f i ElectronicJournal.obj
 0001:000040bc       ?AtlInternalOleLoadFromStream@ATL@@YAJPAUIStream@@ABU_GUID@@PAPAXTClassesAllowedInStream@1@K@Z 100050bc f i ElectronicJournal.obj
 0001:000041e2       ?AtlInternalQueryInterface@ATL@@YGJPAXPBU_ATL_INTMAP_ENTRY@1@ABU_GUID@@PAPAX@Z 100051e2 f i ElectronicJournal.obj
 0001:00004285       ?AtlLoadTypeLib@ATL@@YGJPAUHINSTANCE__@@PB_WPAPA_WPAPAUITypeLib@@@Z 10005285 f i ElectronicJournal.obj
 0001:00004463       ?AtlModuleAddTermFunc@ATL@@YGJPAU_ATL_MODULE70@1@P6GXK@ZK@Z 10005463 f i ElectronicJournal.obj
 0001:000044c0       ?AtlRegisterClassCategoriesHelper@ATL@@YGJABU_GUID@@PBU_ATL_CATMAP_ENTRY@1@H@Z 100054c0 f i ElectronicJournal.obj
 0001:000047a0       ?AtlRegisterTypeLib@ATL@@YGJPAUHINSTANCE__@@PB_W@Z 100057a0 f i ElectronicJournal.obj
 0001:00004928       ?AtlThrowImpl@ATL@@YGXJ@Z  10005928 f i ElectronicJournal.obj
 0001:00004946       ?AtlUnRegisterTypeLib@ATL@@YGJPAUHINSTANCE__@@PB_W@Z 10005946 f i ElectronicJournal.obj
 0001:000049f1       ?AtlWinModuleAddCreateWndData@ATL@@YGXPAU_ATL_WIN_MODULE70@1@PAU_AtlCreateWndData@1@PAX@Z 100059f1 f i ElectronicJournal.obj
 0001:00004a45       ?AtlWinModuleExtractCreateWndData@ATL@@YGPAXPAU_ATL_WIN_MODULE70@1@@Z 10005a45 f i ElectronicJournal.obj
 0001:00004aa8       ?AtlWinModuleRegisterClassExW@ATL@@YGGPAU_ATL_WIN_MODULE70@1@PBUtagWNDCLASSEXW@@@Z 10005aa8 f i ElectronicJournal.obj
 0001:00004ae7       ?CanForceRemoveKey@CRegParser@ATL@@IAEHPB_W@Z 10005ae7 f i ElectronicJournal.obj
 0001:00004b16       ?ChToByte@CRegParser@ATL@@KAE_W@Z 10005b16 f i ElectronicJournal.obj
 0001:00004b49       ?Cleanup@CComTypeInfoHolder@ATL@@SGXK@Z 10005b49 f i ElectronicJournal.obj
 0001:00004b7c       ?ClearReplacements@CExpansionVector@ATL@@QAEJXZ 10005b7c f i ElectronicJournal.obj
 0001:00004bb9       ?Close@CRegKey@ATL@@QAEJXZ 10005bb9 f i ElectronicJournal.obj
 0001:00004bd3       ?Create@?$CWindowImpl@VCOPOSElectronicJournal@@VCWindow@ATL@@V?$CWinTraits@$0FGAAAAAA@$0A@@3@@ATL@@QAEPAUHWND__@@PAU3@V_U_RECT@2@PB_WKKV_U_MENUorID@2@PAX@Z 10005bd3 f i ElectronicJournal.obj
 0001:00004c17       ?Create@?$CWindowImplBaseT@VCWindow@ATL@@V?$CWinTraits@$0FGAAAAAA@$0A@@2@@ATL@@QAEPAUHWND__@@PAU3@V_U_RECT@2@PB_WKKV_U_MENUorID@2@GPAX@Z 10005c17 f i ElectronicJournal.obj
 0001:00004cb3       ?Create@CRegKey@ATL@@QAEJPAUHKEY__@@PB_WPA_WKKPAU_SECURITY_ATTRIBUTES@@PAK@Z 10005cb3 f i ElectronicJournal.obj
 0001:00004d16       ?CreateInstance@?$CComCreator@V?$CComAggObject@VCOPOSElectronicJournal@@@ATL@@@ATL@@SGJPAXABU_GUID@@PAPAX@Z 10005d16 f i ElectronicJournal.obj
 0001:00004d8c       ?CreateInstance@?$CComCreator@V?$CComObject@VCOPOSElectronicJournal@@@ATL@@@ATL@@SGJPAXABU_GUID@@PAPAX@Z 10005d8c f i ElectronicJournal.obj
 0001:00004e0d       ?CreateInstance@?$CComObject@V?$CComEnum@UIEnumConnectionPoints@@$1?_GUID_b196b285_bab4_101a_b69c_00aa00341d07@@3U__s_GUID@@BPAUIConnectionPoint@@V?$_CopyInterface@UIConnectionPoint@@@ATL@@VCComSingleThreadModel@6@@ATL@@@ATL@@SGJPAPAV12@@Z 10005e0d f i ElectronicJournal.obj
 0001:00004e54       ?CreateInstance@?$CComObject@V?$CComEnum@UIEnumConnections@@$1?_GUID_b196b287_bab4_101a_b69c_00aa00341d07@@3U__s_GUID@@BUtagCONNECTDATA@@V?$_Copy@UtagCONNECTDATA@@@ATL@@VCComSingleThreadModel@6@@ATL@@@ATL@@SGJPAPAV12@@Z 10005e54 f i ElectronicJournal.obj
 0001:00004e9b       ?DefaultReflectionHandler@?$CWindowImplRoot@VCWindow@ATL@@@ATL@@SAHPAUHWND__@@IIJAAJ@Z 10005e9b f i ElectronicJournal.obj
 0001:00004f0e       ?DeleteSubKey@CRegKey@ATL@@QAEJPB_W@Z 10005f0e f i ElectronicJournal.obj
 0001:00004f31       ?DoEvent@COPOSElectronicJournal@@IAEXIIJ@Z 10005f31 f i ElectronicJournal.obj
 0001:00004fb1       ?DoVerbHide@?$IOleObjectImpl@VCOPOSElectronicJournal@@@ATL@@QAEJPBUtagRECT@@PAUHWND__@@@Z 10005fb1 f i ElectronicJournal.obj
 0001:00004fe7       ?DoVerbInPlaceActivate@?$IOleObjectImpl@VCOPOSElectronicJournal@@@ATL@@QAEJPBUtagRECT@@PAUHWND__@@@Z 10005fe7 f i ElectronicJournal.obj
 0001:0000501a       ?DoVerbPrimary@?$IOleObjectImpl@VCOPOSElectronicJournal@@@ATL@@QAEJPBUtagRECT@@PAUHWND__@@@Z 1000601a f i ElectronicJournal.obj
 0001:000050a6       ?DoVerbProperties@CComControlBase@ATL@@QAEJPBUtagRECT@@PAUHWND__@@@Z 100060a6 f i ElectronicJournal.obj
 0001:000051cd       ?DoVerbShow@?$IOleObjectImpl@VCOPOSElectronicJournal@@@ATL@@QAEJPBUtagRECT@@PAUHWND__@@@Z 100061cd f i ElectronicJournal.obj
 0001:000051f2       ?DoVerbUIActivate@?$IOleObjectImpl@VCOPOSElectronicJournal@@@ATL@@QAEJPBUtagRECT@@PAUHWND__@@@Z 100061f2 f i ElectronicJournal.obj
 0001:0000522f       ?DoesVerbActivate@CComControlBase@ATL@@QAEHJ@Z 1000622f f i ElectronicJournal.obj
 0001:00005250       ?DoesVerbUIActivate@CComControlBase@ATL@@QAEHJ@Z 10006250 f i ElectronicJournal.obj
 0001:00005285       ?EndOfVar@CRegParser@ATL@@IAEHXZ 10006285 f i ElectronicJournal.obj
 0001:000052a5       ?EscapeSingleQuote@CAtlModule@ATL@@SAXPA_WIPB_W@Z 100062a5 f i ElectronicJournal.obj
 0001:000052f4       ?FindKey@?$CSimpleMap@PA_WPA_WVCExpansionVectorEqualHelper@ATL@@@ATL@@QBEHABQA_W@Z 100062f4 f i ElectronicJournal.obj
 0001:0000532b       ?FireTheEvent@?$CProxy_IOPOSEvents@VCOPOSElectronicJournal@@@@IAEXPAVOposVariant@@IAAJPB_WJ@Z 1000632b f i ElectronicJournal.obj
 0001:000053bd       ?FireViewChange@CComControlBase@ATL@@QAEJXZ 100063bd f i ElectronicJournal.obj
 0001:00005406       ?Fire_DataEvent@?$CProxy_IOPOSEvents@VCOPOSElectronicJournal@@@@QAEXJ@Z 10006406 f i ElectronicJournal.obj
 0001:00005492       ?Fire_DirectIOEvent@?$CProxy_IOPOSEvents@VCOPOSElectronicJournal@@@@QAEXJPAJPAPA_W@Z 10006492 f i ElectronicJournal.obj
 0001:00005578       ?Fire_ErrorEvent@?$CProxy_IOPOSEvents@VCOPOSElectronicJournal@@@@QAEXJJJPAJ@Z 10006578 f i ElectronicJournal.obj
 0001:0000565f       ?Fire_OutputCompleteEvent@?$CProxy_IOPOSEvents@VCOPOSElectronicJournal@@@@QAEXJ@Z 1000665f f i ElectronicJournal.obj
 0001:000056eb       ?Fire_StatusUpdateEvent@?$CProxy_IOPOSEvents@VCOPOSElectronicJournal@@@@QAEXJ@Z 100066eb f i ElectronicJournal.obj
 0001:00005777       ?FreeHeap@?$CTempBuffer@_W$0BAA@VCCRTAllocator@ATL@@@ATL@@AAEXXZ 10006777 f i ElectronicJournal.obj
 0001:00005777       ?FreeHeap@?$CTempBuffer@_W$0EAA@VCCRTAllocator@ATL@@@ATL@@AAEXXZ 10006777 f i ElectronicJournal.obj
 0001:00005777       ?FreeHeap@?$CTempBuffer@E$0BAA@VCCRTAllocator@ATL@@@ATL@@AAEXXZ 10006777 f i ElectronicJournal.obj
 0001:00005780       ?GetAmbientLocaleID@CComControlBase@ATL@@QAEJAAK@Z 10006780 f i ElectronicJournal.obj
 0001:000057dc       ?GetAmbientUserMode@CComControlBase@ATL@@QAEJAAH@Z 100067dc f i ElectronicJournal.obj
 0001:0000584c       ?GetAt@CComDynamicUnkArray@ATL@@QAEPAUIUnknown@@H@Z 1000684c f i ElectronicJournal.obj
 0001:00005868       ?GetClassObject@CComModule@ATL@@QAEJABU_GUID@@0PAPAX@Z 10006868 f i ElectronicJournal.obj
 0001:0000590a       ?GetConnMap@COPOSElectronicJournal@@SAPBU_ATL_CONNMAP_ENTRY@ATL@@PAH@Z 1000690a f i ElectronicJournal.obj
 0001:0000597a       ?GetCookie@CComDynamicUnkArray@ATL@@QAGKPAPAUIUnknown@@@Z 1000697a f i ElectronicJournal.obj
 0001:000059b2       ?GetIDsOfNames@CComTypeInfoHolder@ATL@@QAEJABU_GUID@@PAPA_WIKPAJ@Z 100069b2 f i ElectronicJournal.obj
 0001:00005ac0       ?GetKeyAt@?$CSimpleMap@PA_WPA_WVCExpansionVectorEqualHelper@ATL@@@ATL@@QBEAAPA_WH@Z 10006ac0 f i ElectronicJournal.obj
 0001:00005ae5       ?GetPagesHelper@?$ISpecifyPropertyPagesImpl@VCOPOSElectronicJournal@@@ATL@@IAEJPAUtagCAUUID@@PBUATL_PROPMAP_ENTRY@2@@Z 10006ae5 f i ElectronicJournal.obj
 0001:00005c0c       ?GetProperty@?$CComPtr@UIDispatch@@@ATL@@SAJPAUIDispatch@@JPAUtagVARIANT@@@Z 10006c0c f i ElectronicJournal.obj
 0001:00005c5b       ?GetSizeMax@CComVariant@ATL@@QBEJPAT_ULARGE_INTEGER@@@Z 10006c5b f i ElectronicJournal.obj
 0001:00005e15       ?GetStreamSize@CComBSTR@ATL@@SAKPA_W@Z 10006e15 f i ElectronicJournal.obj
 0001:00005e2f       ?GetTI@CComTypeInfoHolder@ATL@@QAEJK@Z 10006e2f f i ElectronicJournal.obj
 0001:00006018       ?GetTI@CComTypeInfoHolder@ATL@@QAEJKPAPAUITypeInfo@@@Z 10007018 f i ElectronicJournal.obj
 0001:0000605a       ?GetUnknown@CComDynamicUnkArray@ATL@@QAGPAUIUnknown@@K@Z 1000705a f i ElectronicJournal.obj
 0001:0000607b       ?GetValueAt@?$CSimpleMap@PA_WPA_WVCExpansionVectorEqualHelper@ATL@@@ATL@@QBEAAPA_WH@Z 1000707b f i ElectronicJournal.obj
 0001:000060a1       ?GetZoomInfo@CComControlBase@ATL@@QAEXAAUATL_DRAWINFO@@@Z 100070a1 f i ElectronicJournal.obj
 0001:00006134       ?HKeyFromString@CRegParser@ATL@@KAPAUHKEY__@@PA_W@Z 10007134 f i ElectronicJournal.obj
 0001:00006162       ?HasSubKeys@CRegParser@ATL@@IAEHPAUHKEY__@@@Z 10007162 f i ElectronicJournal.obj
 0001:00006197       ?IDataObject_GetData@CComControlBase@ATL@@QAEJPAUtagFORMATETC@@PAUtagSTGMEDIUM@@@Z 10007197 f i ElectronicJournal.obj
 0001:0000633d       ?IOleInPlaceObject_InPlaceDeactivate@CComControlBase@ATL@@QAEJXZ 1000733d f i ElectronicJournal.obj
 0001:000063c4       ?IOleInPlaceObject_SetObjectRects@CComControlBase@ATL@@QAEJPBUtagRECT@@0@Z 100073c4 f i ElectronicJournal.obj
 0001:00006491       ?IOleInPlaceObject_UIDeactivate@CComControlBase@ATL@@QAEJXZ 10007491 f i ElectronicJournal.obj
 0001:00006553       ?IOleObject_Advise@CComControlBase@ATL@@QAEJPAUIAdviseSink@@PAK@Z 10007553 f i ElectronicJournal.obj
 0001:0000657d       ?IOleObject_Close@CComControlBase@ATL@@QAEJK@Z 1000757d f i ElectronicJournal.obj
 0001:00006661       ?IOleObject_GetClientSite@CComControlBase@ATL@@QAEJPAPAUIOleClientSite@@@Z 10007661 f i ElectronicJournal.obj
 0001:0000668a       ?IOleObject_SetClientSite@CComControlBase@ATL@@QAEJPAUIOleClientSite@@@Z 1000768a f i ElectronicJournal.obj
 0001:000066c9       ?IOleObject_SetExtent@CComControlBase@ATL@@QAEJKPAUtagSIZE@@@Z 100076c9 f i ElectronicJournal.obj
 0001:0000677d       ?IPSI_GetIPersistStreamInit@?$IPersistStorageImpl@VCOPOSElectronicJournal@@@ATL@@AAEPAUIPersistStreamInit@@XZ 1000777d f i ElectronicJournal.obj
 0001:000067bf       ?IPersistStreamInit_Load@?$IPersistStreamInitImpl@VCOPOSElectronicJournal@@@ATL@@QAEJPAUIStream@@PBUATL_PROPMAP_ENTRY@2@@Z 100077bf f i ElectronicJournal.obj
 0001:000067eb       ?IPersistStreamInit_Save@?$IPersistStreamInitImpl@VCOPOSElectronicJournal@@@ATL@@QAEJPAUIStream@@HPBUATL_PROPMAP_ENTRY@2@@Z 100077eb f i ElectronicJournal.obj
 0001:00006820       ?IQuickActivate_QuickActivate@CComControlBase@ATL@@QAEJPAUtagQACONTAINER@@PAUtagQACONTROL@@@Z 10007820 f i ElectronicJournal.obj
 0001:00006a62       ?IViewObject_Draw@CComControlBase@ATL@@QAEJKJPAXPAUtagDVTARGETDEVICE@@PAUHDC__@@2PBU_RECTL@@3@Z 10007a62 f i ElectronicJournal.obj
 0001:00006b0a       ?InPlaceActivate@CComControlBase@ATL@@QAEJJPBUtagRECT@@@Z 10007b0a f i ElectronicJournal.obj
 0001:00006d7b       ?Init@?$CComEnumImpl@UIEnumConnectionPoints@@$1?_GUID_b196b285_bab4_101a_b69c_00aa00341d07@@3U__s_GUID@@BPAUIConnectionPoint@@V?$_CopyInterface@UIConnectionPoint@@@ATL@@@ATL@@QAEJPAPAUIConnectionPoint@@0PAUIUnknown@@W4CComEnumFlags@2@@Z 10007d7b f i ElectronicJournal.obj
 0001:00006e5a       ?Init@?$CComEnumImpl@UIEnumConnections@@$1?_GUID_b196b287_bab4_101a_b69c_00aa00341d07@@3U__s_GUID@@BUtagCONNECTDATA@@V?$_Copy@UtagCONNECTDATA@@@ATL@@@ATL@@QAEJPAUtagCONNECTDATA@@0PAUIUnknown@@W4CComEnumFlags@2@@Z 10007e5a f i ElectronicJournal.obj
 0001:00006f39       ?Init@CComModule@ATL@@QAEJPAU_ATL_OBJMAP_ENTRY30@2@PAUHINSTANCE__@@PBU_GUID@@@Z 10007f39 f i ElectronicJournal.obj
 0001:00006f98       ?Init@CDynamicStdCallThunk2@ATL@@QAEHKPAX@Z 10007f98 f i ElectronicJournal.obj
 0001:00006fc3       ?InlineIsEqualUnknown@ATL@@YGHABU_GUID@@@Z 10007fc3 f i ElectronicJournal.obj
 0001:00006feb       ?InternalGetSite@CComControlBase@ATL@@QAEJABU_GUID@@PAPAX@Z 10007feb f i ElectronicJournal.obj
 0001:00007019       ?InternalSetAtIndex@?$CSimpleMap@PA_WPA_WVCExpansionVectorEqualHelper@ATL@@@ATL@@QAEXHABQA_W0@Z 10008019 f i ElectronicJournal.obj
 0001:00007043       ?Invoke@CComTypeInfoHolder@ATL@@QAEJPAUIDispatch@@JABU_GUID@@KGPAUtagDISPPARAMS@@PAUtagVARIANT@@PAUtagEXCEPINFO@@PAI@Z 10008043 f i ElectronicJournal.obj
 0001:00007086       ?IsEqualObject@?$CComPtrBase@UIOleClientSite@@@ATL@@QAE_NPAUIUnknown@@@Z 10008086 f i ElectronicJournal.obj
 0001:00007086       ?IsEqualObject@?$CComPtrBase@UITypeInfo@@@ATL@@QAE_NPAUIUnknown@@@Z 10008086 f i ElectronicJournal.obj
 0001:000070f3       ?IsSpace@CRegParser@ATL@@IAEH_W@Z 100080f3 f i ElectronicJournal.obj
 0001:0000711d       ?LoadNameCache@CComTypeInfoHolder@ATL@@QAEJPAUITypeInfo@@@Z 1000811d f i ElectronicJournal.obj
 0001:0000726b       ?Lookup@?$CSimpleMap@PA_WPA_WVCExpansionVectorEqualHelper@ATL@@@ATL@@QBEPA_WABQA_W@Z 1000826b f i ElectronicJournal.obj
 0001:00007291       ?NextToken@CRegParser@ATL@@IAEJPA_W@Z 10008291 f i ElectronicJournal.obj
 0001:000073c9       ?OnKillFocus@CComControlBase@ATL@@QAEJIIJAAH@Z 100083c9 f i ElectronicJournal.obj
 0001:00007424       ?OnMouseActivate@CComControlBase@ATL@@QAEJIIJAAH@Z 10008424 f i ElectronicJournal.obj
 0001:00007492       ?OnPaint@CComControlBase@ATL@@QAEJIIJAAH@Z 10008492 f i ElectronicJournal.obj
 0001:00007544       ?OnSetFocus@CComControlBase@ATL@@QAEJIIJAAH@Z 10008544 f i ElectronicJournal.obj
 0001:000075cd       ?Open@CRegKey@ATL@@QAEJPAUHKEY__@@PB_WK@Z 100085cd f i ElectronicJournal.obj
 0001:00007616       ?PreProcessBuffer@CRegParser@ATL@@QAEJPA_WPAPA_W@Z 10008616 f i ElectronicJournal.obj
 0001:00007880       ?ProcessWindowMessage@?$CComControl@VCOPOSElectronicJournal@@V?$CWindowImpl@VCOPOSElectronicJournal@@VCWindow@ATL@@V?$CWinTraits@$0FGAAAAAA@$0A@@3@@ATL@@@ATL@@UAEHPAUHWND__@@IIJAAJK@Z 10008880 f i ElectronicJournal.obj
 0001:0000791f       ?PutProperty@?$CComPtr@UIDispatch@@@ATL@@SAJPAUIDispatch@@JPAUtagVARIANT@@@Z 1000891f f i ElectronicJournal.obj
 0001:000079b1       ?ReadFromStream@CComBSTR@ATL@@QAEJPAUIStream@@@Z 100089b1 f i ElectronicJournal.obj
 0001:00007adf       ?ReadFromStream@CComVariant@ATL@@QAEJPAUIStream@@GTClassesAllowedInStream@2@K@Z 10008adf f i ElectronicJournal.obj
 0001:00007c65       ?RecurseDeleteKey@CRegKey@ATL@@QAEJPB_W@Z 10008c65 f i ElectronicJournal.obj
 0001:00007d27       ?RegCreateKeyExW@CAtlTransactionManager@ATL@@QAEJPAUHKEY__@@PB_WKPA_WKKQAU_SECURITY_ATTRIBUTES@@PAPAU3@PAK@Z 10008d27 f i ElectronicJournal.obj
 0001:00007d8a       ?RegDeleteKeyW@CAtlTransactionManager@ATL@@QAEJPAUHKEY__@@PB_W@Z 10008d8a f i ElectronicJournal.obj
 0001:00007ddc       ?RegOpenKeyExW@CAtlTransactionManager@ATL@@QAEJPAUHKEY__@@PB_WKKPAPAU3@@Z 10008ddc f i ElectronicJournal.obj
 0001:00007e33       ?Register@_ATL_WNDCLASSINFOW@ATL@@QAEGPAP6GJPAUHWND__@@IIJ@Z@Z 10008e33 f i ElectronicJournal.obj
 0001:00007e53       ?RegisterBuffer@CRegParser@ATL@@QAEJPA_WH@Z 10008e53 f i ElectronicJournal.obj
 0001:00007f8c       ?RegisterFromResource@CRegObject@ATL@@IAEJPB_W00H@Z 10008f8c f i ElectronicJournal.obj
 0001:000080c2       ?RegisterServer@?$CAtlModuleT@VCComModule@ATL@@@ATL@@QAEJHPBU_GUID@@@Z 100090c2 f i ElectronicJournal.obj
 0001:000080f0       ?RegisterServer@CComModule@ATL@@QAEJHPBU_GUID@@@Z 100090f0 f i ElectronicJournal.obj
 0001:00008166       ?RegisterSubkeys@CRegParser@ATL@@IAEJPA_WPAUHKEY__@@HH@Z 10009166 f i ElectronicJournal.obj
 0001:00008735       ?Remove@CComDynamicUnkArray@ATL@@QAEHK@Z 10009735 f i ElectronicJournal.obj
 0001:0000875e       ?RemoveAll@?$CSimpleMap@PA_WPA_WVCExpansionVectorEqualHelper@ATL@@@ATL@@QAEXXZ 1000975e f i ElectronicJournal.obj
 0001:0000878a       ?ResourceRegisterSz@CRegObject@ATL@@QAGJPB_W00@Z 1000978a f i ElectronicJournal.obj
 0001:000087b7       ?ResourceUnregisterSz@CRegObject@ATL@@QAGJPB_W00@Z 100097b7 f i ElectronicJournal.obj
 0001:000087e4       ?SendOnDataChange@CComControlBase@ATL@@QAEJK@Z 100097e4 f i ElectronicJournal.obj
 0001:00008831       ?SetControlFocus@CComControlBase@ATL@@QAEHH@Z 10009831 f i ElectronicJournal.obj
 0001:000088ce       ?SetMultiStringValue@CRegKey@ATL@@QAEJPB_W0@Z 100098ce f i ElectronicJournal.obj
 0001:0000892a       ?SetStringValue@CRegKey@ATL@@QAEJPB_W0K@Z 1000992a f i ElectronicJournal.obj
 0001:00008973       ?SkipAssignment@CRegParser@ATL@@IAEJPA_W@Z 10009973 f i ElectronicJournal.obj
 0001:000089d8       ?SkipWhiteSpace@CRegParser@ATL@@IAEXXZ 100099d8 f i ElectronicJournal.obj
 0001:000089fa       ?StrChrW@CRegParser@ATL@@KAPA_WPA_W_W@Z 100099fa f i ElectronicJournal.obj
 0001:00008a37       ?Term@CAtlModule@ATL@@QAEXXZ 10009a37 f i ElectronicJournal.obj
 0001:00008a70       ?Term@CComModule@ATL@@QAEXXZ 10009a70 f i ElectronicJournal.obj
 0001:00008ac8       ?UnregisterServer@?$CAtlModuleT@VCComModule@ATL@@@ATL@@QAEJHPBU_GUID@@@Z 10009ac8 f i ElectronicJournal.obj
 0001:00008aee       ?UnregisterServer@CComModule@ATL@@QAEJHPBU_GUID@@@Z 10009aee f i ElectronicJournal.obj
 0001:00008b64       ?UpdateRegistryFromResource@CAtlModule@ATL@@QAGJIHPAU_ATL_REGMAP_ENTRY@2@@Z 10009b64 f i ElectronicJournal.obj
 0001:00008d2f       ?UpdateRegistryFromResource@CAtlModule@ATL@@QAGJPB_WHPAU_ATL_REGMAP_ENTRY@2@@Z 10009d2f f i ElectronicJournal.obj
 0001:00008f00       ?VTFromRegType@CRegParser@ATL@@KAHPB_WAAG@Z 10009f00 f i ElectronicJournal.obj
 0001:00008f6d       ?WindowProc@?$CWindowImplBaseT@VCWindow@ATL@@V?$CWinTraits@$0FGAAAAAA@$0A@@2@@ATL@@SGJPAUHWND__@@IIJ@Z 10009f6d f i ElectronicJournal.obj
 0001:0000905f       ?WriteToStream@CComBSTR@ATL@@QAEJPAUIStream@@@Z 1000a05f f i ElectronicJournal.obj
 0001:000090b6       ?WriteToStream@CComVariant@ATL@@QAEJPAUIStream@@@Z 1000a0b6 f i ElectronicJournal.obj
 0001:00009230       ?WriteToStream@CComVariant@ATL@@QAEJPAUIStream@@G@Z 1000a230 f i ElectronicJournal.obj
 0001:00009299       ?_AtlInitialConstruct@?$CComObjectRootEx@VCComMultiThreadModel@ATL@@@ATL@@QAEJXZ 1000a299 f i ElectronicJournal.obj
 0001:000092ae       ?_AtlVerifyStackAvailable@_ATL_SAFE_ALLOCA_IMPL@ATL@@YA_NK@Z 1000a2ae f i ElectronicJournal.obj
 0001:0000932c       ?copy@?$_Copy@UtagCONNECTDATA@@@ATL@@SAJPAUtagCONNECTDATA@@PBU3@@Z 1000a32c f i ElectronicJournal.obj
 0001:00009362       ?copy@?$_CopyInterface@UIConnectionPoint@@@ATL@@SAJPAPAUIConnectionPoint@@PBQAU3@@Z 1000a362 f i ElectronicJournal.obj
 0001:00009390       ?memcpy_s@Checked@ATL@@YAXPAXIPBXI@Z 1000a390 f i ElectronicJournal.obj
 0001:000093af       ?ocscpy_s@@YA_NPA_WIPB_W@Z 1000a3af f i ElectronicJournal.obj
 0001:000093de       ?ocslen@@YAHPB_W@Z         1000a3de f i ElectronicJournal.obj
 0001:000093fe       ?wcscpy_s@Checked@ATL@@YAXPA_WIPB_W@Z 1000a3fe f i ElectronicJournal.obj
 0001:0000941a       _DllCanUnloadNow@0         1000a41a f   ElectronicJournal.obj
 0001:00009426       _DllGetClassObject@12      1000a426 f   ElectronicJournal.obj
 0001:00009434       _DllMain@12                1000a434 f   ElectronicJournal.obj
 0001:00009476       _DllRegisterServer@0       1000a476 f   ElectronicJournal.obj
 0001:00009485       _DllUnregisterServer@0     1000a485 f   ElectronicJournal.obj
 0001:00009494       _InlineIsEqualGUID         1000a494 f i ElectronicJournal.obj
 0001:000094c4       ___local_stdio_printf_options 1000a4c4 f i ElectronicJournal.obj
 0001:000094ca       __vswprintf_s_l            1000a4ca f i ElectronicJournal.obj
 0001:00009577       _swprintf_s                1000a577 f i ElectronicJournal.obj
 0001:00009593       ??0?$CComControl@VCOPOSElectronicJournal@@V?$CWindowImpl@VCOPOSElectronicJournal@@VCWindow@ATL@@V?$CWinTraits@$0FGAAAAAA@$0A@@3@@ATL@@@ATL@@QAE@XZ 1000a593 f i ElectronicJournalImpl.obj
 0001:000095ba       ??0?$CProxy_IOPOSEvents@VCOPOSElectronicJournal@@@@QAE@XZ 1000a5ba f i ElectronicJournalImpl.obj
 0001:000095dd       ??0CComControlBase@ATL@@QAE@AAPAUHWND__@@@Z 1000a5dd f i ElectronicJournalImpl.obj
 0001:00009627       ??0COPOSElectronicJournal@@QAE@XZ 1000a627 f   ElectronicJournalImpl.obj
 0001:0000965d       ??1?$CComControl@VCOPOSElectronicJournal@@V?$CWindowImpl@VCOPOSElectronicJournal@@VCWindow@ATL@@V?$CWinTraits@$0FGAAAAAA@$0A@@3@@ATL@@@ATL@@UAE@XZ 1000a65d f i ElectronicJournalImpl.obj
 0001:00009676       ??1?$IConnectionPointImpl@VCOPOSElectronicJournal@@$1?DIID__IOPOSElectronicJournalEvents@@3U_GUID@@BVCComDynamicUnkArray@ATL@@@ATL@@QAE@XZ 1000a676 f i ElectronicJournalImpl.obj
 0001:00009676       ??1?$IConnectionPointImpl@VCOPOSElectronicJournal@@$1?IID_IPropertyNotifySink@@3U_GUID@@BVCComDynamicUnkArray@ATL@@@ATL@@QAE@XZ 1000a676 f i ElectronicJournalImpl.obj
 0001:000096b3       ??1CComControlBase@ATL@@UAE@XZ 1000a6b3 f i ElectronicJournalImpl.obj
 0001:00009716       ??1COPOSElectronicJournal@@UAE@XZ 1000a716 f   ElectronicJournalImpl.obj
 0001:0000975e       ??1OposVariantResult@@QAE@XZ 1000a75e f i ElectronicJournalImpl.obj
 0001:0000977f       ??1_CW@@QAE@XZ             1000a77f f i ElectronicJournalImpl.obj
 0001:00009798       ?AddMarker@COPOSElectronicJournal@@UAGJPA_WPAJ@Z 1000a798 f   ElectronicJournalImpl.obj
 0001:000097ef       ?CancelPrintContent@COPOSElectronicJournal@@UAGJPAJ@Z 1000a7ef f   ElectronicJournalImpl.obj
 0001:0000980a       ?CancelQueryContent@COPOSElectronicJournal@@UAGJPAJ@Z 1000a80a f   ElectronicJournalImpl.obj
 0001:00009825       ?CheckHealth@COPOSElectronicJournal@@UAGJJPAJ@Z 1000a825 f   ElectronicJournalImpl.obj
 0001:00009874       ?ClaimDevice@COPOSElectronicJournal@@UAGJJPAJ@Z 1000a874 f   ElectronicJournalImpl.obj
 0001:000098e9       ?ClearInput@COPOSElectronicJournal@@UAGJPAJ@Z 1000a8e9 f   ElectronicJournalImpl.obj
 0001:00009904       ?ClearOutput@COPOSElectronicJournal@@UAGJPAJ@Z 1000a904 f   ElectronicJournalImpl.obj
 0001:0000991f       ?Close@COPOSElectronicJournal@@UAGJPAJ@Z 1000a91f f   ElectronicJournalImpl.obj
 0001:0000998d       ?CompareFirmwareVersion@COPOSElectronicJournal@@UAGJPA_WPAJ1@Z 1000a98d f   ElectronicJournalImpl.obj
 0001:00009a0d       ?DirectIO@COPOSElectronicJournal@@UAGJJPAJPAPA_W0@Z 1000aa0d f   ElectronicJournalImpl.obj
 0001:00009abb       ?DoInvoke@COPOSElectronicJournal@@IAEJJPAVOposVariant@@IHPAJ_N@Z 1000aabb f   ElectronicJournalImpl.obj
 0001:00009b7d       ?EraseMedium@COPOSElectronicJournal@@UAGJPAJ@Z 1000ab7d f   ElectronicJournalImpl.obj
 0001:00009b98       ?EventClose@COPOSElectronicJournal@@IAEXXZ 1000ab98 f i ElectronicJournalImpl.obj
 0001:00009bcb       ?EventInit@COPOSElectronicJournal@@IAEJXZ 1000abcb f i ElectronicJournalImpl.obj
 0001:00009c97       ?EventUninit@COPOSElectronicJournal@@IAEXXZ 1000ac97 f i ElectronicJournalImpl.obj
 0001:00009ce9       ?EventWindowProc@COPOSElectronicJournal@@IAGJIIJ@Z 1000ace9 f i ElectronicJournalImpl.obj
 0001:00009de7       ?FinalConstruct@COPOSElectronicJournal@@QAEJXZ 1000ade7 f   ElectronicJournalImpl.obj
 0001:00009e20       ?FireEventCleanup@COPOSElectronicJournal@@IAEXXZ 1000ae20 f i ElectronicJournalImpl.obj
 0001:00009e36       ?FireEventSetup@COPOSElectronicJournal@@IAE_NXZ 1000ae36 f i ElectronicJournalImpl.obj
 0001:00009e6a       ?FreezeEvents@COPOSElectronicJournal@@MAGJH@Z 1000ae6a f   ElectronicJournalImpl.obj
 0001:00009eca       ?GetOposProp@COPOSElectronicJournal@@IAEJJPAFJ@Z 1000aeca f   ElectronicJournalImpl.obj
 0001:00009eed       ?GetOposProp@COPOSElectronicJournal@@IAEJJPAJJ@Z 1000aeed f   ElectronicJournalImpl.obj
 0001:00009fab       ?GetOposProp@COPOSElectronicJournal@@IAEJJPAPA_WJ@Z 1000afab f   ElectronicJournalImpl.obj
 0001:0000a076       ?InitializeMedium@COPOSElectronicJournal@@UAGJPA_WPAJ@Z 1000b076 f   ElectronicJournalImpl.obj
 0001:0000a0cd       ?OnDraw@COPOSElectronicJournal@@MAEJAAUATL_DRAWINFO@@@Z 1000b0cd f   ElectronicJournalImpl.obj
 0001:0000a16d       ?Open@COPOSElectronicJournal@@UAGJPA_WPAJ@Z 1000b16d f   ElectronicJournalImpl.obj
 0001:0000a906       ?PrintContent@COPOSElectronicJournal@@UAGJPA_W0PAJ@Z 1000b906 f   ElectronicJournalImpl.obj
 0001:0000a986       ?PrintContentFile@COPOSElectronicJournal@@UAGJPA_WPAJ@Z 1000b986 f   ElectronicJournalImpl.obj
 0001:0000a9dd       ?QueryContent@COPOSElectronicJournal@@UAGJPA_W00PAJ@Z 1000b9dd f   ElectronicJournalImpl.obj
 0001:0000aa95       ?ReleaseDevice@COPOSElectronicJournal@@UAGJPAJ@Z 1000ba95 f   ElectronicJournalImpl.obj
 0001:0000aae4       ?ResetStatistics@COPOSElectronicJournal@@UAGJPA_WPAJ@Z 1000bae4 f   ElectronicJournalImpl.obj
 0001:0000ab3b       ?ResumePrintContent@COPOSElectronicJournal@@UAGJPAJ@Z 1000bb3b f   ElectronicJournalImpl.obj
 0001:0000ab56       ?ResumeQueryContent@COPOSElectronicJournal@@UAGJPAJ@Z 1000bb56 f   ElectronicJournalImpl.obj
 0001:0000ab71       ?RetrieveCurrentMarker@COPOSElectronicJournal@@UAGJJPAPA_WPAJ@Z 1000bb71 f   ElectronicJournalImpl.obj
 0001:0000abed       ?RetrieveMarker@COPOSElectronicJournal@@UAGJJJJPAPA_WPAJ@Z 1000bbed f   ElectronicJournalImpl.obj
 0001:0000ac9c       ?RetrieveMarkerByDateTime@COPOSElectronicJournal@@UAGJJPA_W0PAPA_WPAJ@Z 1000bc9c f   ElectronicJournalImpl.obj
 0001:0000ad5f       ?RetrieveMarkersDateTime@COPOSElectronicJournal@@UAGJPA_WPAPA_WPAJ@Z 1000bd5f f   ElectronicJournalImpl.obj
 0001:0000addf       ?RetrieveStatistics@COPOSElectronicJournal@@UAGJPAPA_WPAJ@Z 1000bddf f   ElectronicJournalImpl.obj
 0001:0000ae36       ?SOProcessID@COPOSElectronicJournal@@UAGJPAJ@Z 1000be36 f   ElectronicJournalImpl.obj
 0001:0000ae4a       ?SetCOFreezeEvents@COPOSElectronicJournal@@IAEXF@Z 1000be4a f   ElectronicJournalImpl.obj
 0001:0000aed5       ?SetOposProp@COPOSElectronicJournal@@IAEJJJJ@Z 1000bed5 f   ElectronicJournalImpl.obj
 0001:0000afb3       ?SuspendPrintContent@COPOSElectronicJournal@@UAGJPAJ@Z 1000bfb3 f   ElectronicJournalImpl.obj
 0001:0000afce       ?SuspendQueryContent@COPOSElectronicJournal@@UAGJPAJ@Z 1000bfce f   ElectronicJournalImpl.obj
 0001:0000afe9       ?UpdateFirmware@COPOSElectronicJournal@@UAGJPA_WPAJ@Z 1000bfe9 f   ElectronicJournalImpl.obj
 0001:0000b040       ?UpdateStatistics@COPOSElectronicJournal@@UAGJPA_WPAJ@Z 1000c040 f   ElectronicJournalImpl.obj
 0001:0000b097       ?get_AsyncMode@COPOSElectronicJournal@@UAGJPAF@Z 1000c097 f   ElectronicJournalImpl.obj
 0001:0000b0b0       ?get_AutoDisable@COPOSElectronicJournal@@UAGJPAF@Z 1000c0b0 f   ElectronicJournalImpl.obj
 0001:0000b0c6       ?get_BinaryConversion@COPOSElectronicJournal@@UAGJPAJ@Z 1000c0c6 f   ElectronicJournalImpl.obj
 0001:0000b0dc       ?get_CapAddMarker@COPOSElectronicJournal@@UAGJPAF@Z 1000c0dc f   ElectronicJournalImpl.obj
 0001:0000b0f5       ?get_CapCompareFirmwareVersion@COPOSElectronicJournal@@UAGJPAF@Z 1000c0f5 f   ElectronicJournalImpl.obj
 0001:0000b10e       ?get_CapErasableMedium@COPOSElectronicJournal@@UAGJPAF@Z 1000c10e f   ElectronicJournalImpl.obj
 0001:0000b127       ?get_CapInitializeMedium@COPOSElectronicJournal@@UAGJPAF@Z 1000c127 f   ElectronicJournalImpl.obj
 0001:0000b140       ?get_CapMediumIsAvailable@COPOSElectronicJournal@@UAGJPAF@Z 1000c140 f   ElectronicJournalImpl.obj
 0001:0000b159       ?get_CapPowerReporting@COPOSElectronicJournal@@UAGJPAJ@Z 1000c159 f   ElectronicJournalImpl.obj
 0001:0000b172       ?get_CapPrintContent@COPOSElectronicJournal@@UAGJPAF@Z 1000c172 f   ElectronicJournalImpl.obj
 0001:0000b18b       ?get_CapPrintContentFile@COPOSElectronicJournal@@UAGJPAF@Z 1000c18b f   ElectronicJournalImpl.obj
 0001:0000b1a4       ?get_CapRetrieveCurrentMarker@COPOSElectronicJournal@@UAGJPAF@Z 1000c1a4 f   ElectronicJournalImpl.obj
 0001:0000b1bd       ?get_CapRetrieveMarker@COPOSElectronicJournal@@UAGJPAF@Z 1000c1bd f   ElectronicJournalImpl.obj
 0001:0000b1d6       ?get_CapRetrieveMarkerByDateTime@COPOSElectronicJournal@@UAGJPAF@Z 1000c1d6 f   ElectronicJournalImpl.obj
 0001:0000b1ef       ?get_CapRetrieveMarkersDateTime@COPOSElectronicJournal@@UAGJPAF@Z 1000c1ef f   ElectronicJournalImpl.obj
 0001:0000b208       ?get_CapStation@COPOSElectronicJournal@@UAGJPAJ@Z 1000c208 f   ElectronicJournalImpl.obj
 0001:0000b221       ?get_CapStatisticsReporting@COPOSElectronicJournal@@UAGJPAF@Z 1000c221 f   ElectronicJournalImpl.obj
 0001:0000b23a       ?get_CapStorageEnabled@COPOSElectronicJournal@@UAGJPAF@Z 1000c23a f   ElectronicJournalImpl.obj
 0001:0000b253       ?get_CapSuspendPrintContent@COPOSElectronicJournal@@UAGJPAF@Z 1000c253 f   ElectronicJournalImpl.obj
 0001:0000b26c       ?get_CapSuspendQueryContent@COPOSElectronicJournal@@UAGJPAF@Z 1000c26c f   ElectronicJournalImpl.obj
 0001:0000b285       ?get_CapUpdateFirmware@COPOSElectronicJournal@@UAGJPAF@Z 1000c285 f   ElectronicJournalImpl.obj
 0001:0000b29e       ?get_CapUpdateStatistics@COPOSElectronicJournal@@UAGJPAF@Z 1000c29e f   ElectronicJournalImpl.obj
 0001:0000b2b7       ?get_CapWaterMark@COPOSElectronicJournal@@UAGJPAF@Z 1000c2b7 f   ElectronicJournalImpl.obj
 0001:0000b2d0       ?get_CheckHealthText@COPOSElectronicJournal@@UAGJPAPA_W@Z 1000c2d0 f   ElectronicJournalImpl.obj
 0001:0000b2e9       ?get_Claimed@COPOSElectronicJournal@@UAGJPAF@Z 1000c2e9 f   ElectronicJournalImpl.obj
 0001:0000b2ff       ?get_ControlObjectDescription@COPOSElectronicJournal@@UAGJPAPA_W@Z 1000c2ff f   ElectronicJournalImpl.obj
 0001:0000b33c       ?get_ControlObjectVersion@COPOSElectronicJournal@@UAGJPAJ@Z 1000c33c f   ElectronicJournalImpl.obj
 0001:0000b34f       ?get_DataCount@COPOSElectronicJournal@@UAGJPAJ@Z 1000c34f f   ElectronicJournalImpl.obj
 0001:0000b365       ?get_DataEventEnabled@COPOSElectronicJournal@@UAGJPAF@Z 1000c365 f   ElectronicJournalImpl.obj
 0001:0000b37b       ?get_DeviceDescription@COPOSElectronicJournal@@UAGJPAPA_W@Z 1000c37b f   ElectronicJournalImpl.obj
 0001:0000b394       ?get_DeviceEnabled@COPOSElectronicJournal@@UAGJPAF@Z 1000c394 f   ElectronicJournalImpl.obj
 0001:0000b3aa       ?get_DeviceName@COPOSElectronicJournal@@UAGJPAPA_W@Z 1000c3aa f   ElectronicJournalImpl.obj
 0001:0000b3c3       ?get_FlagWhenIdle@COPOSElectronicJournal@@UAGJPAF@Z 1000c3c3 f   ElectronicJournalImpl.obj
 0001:0000b3dc       ?get_FreezeEvents@COPOSElectronicJournal@@UAGJPAF@Z 1000c3dc f   ElectronicJournalImpl.obj
 0001:0000b3f2       ?get_MediumFreeSpace@COPOSElectronicJournal@@UAGJPATtagCY@@@Z 1000c3f2 f   ElectronicJournalImpl.obj
 0001:0000b483       ?get_MediumID@COPOSElectronicJournal@@UAGJPAPA_W@Z 1000c483 f   ElectronicJournalImpl.obj
 0001:0000b49c       ?get_MediumIsAvailable@COPOSElectronicJournal@@UAGJPAF@Z 1000c49c f   ElectronicJournalImpl.obj
 0001:0000b4b5       ?get_MediumSize@COPOSElectronicJournal@@UAGJPATtagCY@@@Z 1000c4b5 f   ElectronicJournalImpl.obj
 0001:0000b546       ?get_OpenResult@COPOSElectronicJournal@@UAGJPAJ@Z 1000c546 f   ElectronicJournalImpl.obj
 0001:0000b55d       ?get_OutputID@COPOSElectronicJournal@@UAGJPAJ@Z 1000c55d f   ElectronicJournalImpl.obj
 0001:0000b573       ?get_PowerNotify@COPOSElectronicJournal@@UAGJPAJ@Z 1000c573 f   ElectronicJournalImpl.obj
 0001:0000b589       ?get_PowerState@COPOSElectronicJournal@@UAGJPAJ@Z 1000c589 f   ElectronicJournalImpl.obj
 0001:0000b59f       ?get_ResultCode@COPOSElectronicJournal@@UAGJPAJ@Z 1000c59f f   ElectronicJournalImpl.obj
 0001:0000b5dd       ?get_ResultCodeExtended@COPOSElectronicJournal@@UAGJPAJ@Z 1000c5dd f   ElectronicJournalImpl.obj
 0001:0000b5f3       ?get_ServiceObjectDescription@COPOSElectronicJournal@@UAGJPAPA_W@Z 1000c5f3 f   ElectronicJournalImpl.obj
 0001:0000b60c       ?get_ServiceObjectVersion@COPOSElectronicJournal@@UAGJPAJ@Z 1000c60c f   ElectronicJournalImpl.obj
 0001:0000b622       ?get_State@COPOSElectronicJournal@@UAGJPAJ@Z 1000c622 f   ElectronicJournalImpl.obj
 0001:0000b64e       ?get_Station@COPOSElectronicJournal@@UAGJPAJ@Z 1000c64e f   ElectronicJournalImpl.obj
 0001:0000b667       ?get_StorageEnabled@COPOSElectronicJournal@@UAGJPAF@Z 1000c667 f   ElectronicJournalImpl.obj
 0001:0000b680       ?get_Suspended@COPOSElectronicJournal@@UAGJPAF@Z 1000c680 f   ElectronicJournalImpl.obj
 0001:0000b699       ?get_WaterMark@COPOSElectronicJournal@@UAGJPAF@Z 1000c699 f   ElectronicJournalImpl.obj
 0001:0000b6b2       ?put_AsyncMode@COPOSElectronicJournal@@UAGJF@Z 1000c6b2 f   ElectronicJournalImpl.obj
 0001:0000b6d2       ?put_AutoDisable@COPOSElectronicJournal@@UAGJF@Z 1000c6d2 f   ElectronicJournalImpl.obj
 0001:0000b6ef       ?put_BinaryConversion@COPOSElectronicJournal@@UAGJJ@Z 1000c6ef f   ElectronicJournalImpl.obj
 0001:0000b705       ?put_DataEventEnabled@COPOSElectronicJournal@@UAGJF@Z 1000c705 f   ElectronicJournalImpl.obj
 0001:0000b722       ?put_DeviceEnabled@COPOSElectronicJournal@@UAGJF@Z 1000c722 f   ElectronicJournalImpl.obj
 0001:0000b73f       ?put_FlagWhenIdle@COPOSElectronicJournal@@UAGJF@Z 1000c73f f   ElectronicJournalImpl.obj
 0001:0000b75f       ?put_FreezeEvents@COPOSElectronicJournal@@UAGJF@Z 1000c75f f   ElectronicJournalImpl.obj
 0001:0000b7ab       ?put_PowerNotify@COPOSElectronicJournal@@UAGJJ@Z 1000c7ab f   ElectronicJournalImpl.obj
 0001:0000b7c1       ?put_Station@COPOSElectronicJournal@@UAGJJ@Z 1000c7c1 f   ElectronicJournalImpl.obj
 0001:0000b7da       ?put_StorageEnabled@COPOSElectronicJournal@@UAGJF@Z 1000c7da f   ElectronicJournalImpl.obj
 0001:0000b7fa       ?put_WaterMark@COPOSElectronicJournal@@UAGJF@Z 1000c7fa f   ElectronicJournalImpl.obj
 0001:0000b81a       ?s_EventWindowProc@COPOSElectronicJournal@@KGJPAUHWND__@@IIJ@Z 1000c81a f i ElectronicJournalImpl.obj
 0001:0000b86c       ??_U@YAPAXI@Z              1000c86c f   LIBCMT:new_array.obj
 0001:0000b875       ??3@YAXPAXI@Z              1000c875 f   LIBCMT:delete_scalar_size.obj
 0001:0000b883       ??_V@YAXPAX@Z              1000c883 f   LIBCMT:delete_array.obj
 0001:0000b888       ??_V@YAXPAXI@Z             1000c888 f   LIBCMT:delete_array_size.obj
 0001:0000b896       ??$__crt_fast_encode_pointer@P6GXPAU_RTL_CONDITION_VARIABLE@@@Z@@YAP6GXPAU_RTL_CONDITION_VARIABLE@@@ZQ6GX0@Z@Z 1000c896 f i LIBCMT:thread_safe_statics.obj
 0001:0000b896       ??$__crt_fast_encode_pointer@PAX@@YAPAXQAX@Z 1000c896 f i libvcruntime:winapi_downlevel.obj
 0001:0000b896       ??$__crt_fast_encode_pointer@PAP6AXXZ@@YAPAP6AXXZQAP6AXXZ@Z 1000c896 f i LIBCMT:utility.obj
 0001:0000b896       ??$__crt_fast_encode_pointer@P6GHPAU_RTL_CONDITION_VARIABLE@@PAU_RTL_CRITICAL_SECTION@@K@Z@@YAP6GHPAU_RTL_CONDITION_VARIABLE@@PAU_RTL_CRITICAL_SECTION@@K@ZQ6GH01K@Z@Z 1000c896 f i LIBCMT:thread_safe_statics.obj
 0001:0000b8f7       ___scrt_acquire_startup_lock 1000c8f7 f   LIBCMT:utility.obj
 0001:0000b929       ___scrt_dllmain_after_initialize_c 1000c929 f   LIBCMT:utility.obj
 0001:0000b954       ___scrt_dllmain_before_initialize_c 1000c954 f   LIBCMT:utility.obj
 0001:0000b962       ___scrt_dllmain_crt_thread_attach 1000c962 f   LIBCMT:utility.obj
 0001:0000b981       ___scrt_dllmain_crt_thread_detach 1000c981 f   LIBCMT:utility.obj
 0001:0000b98e       ___scrt_dllmain_exception_filter 1000c98e f   LIBCMT:utility.obj
 0001:0000b9c2       ___scrt_dllmain_uninitialize_c 1000c9c2 f   LIBCMT:utility.obj
 0001:0000b9e5       ___scrt_dllmain_uninitialize_critical 1000c9e5 f   LIBCMT:utility.obj
 0001:0000b9f2       ___scrt_initialize_crt     1000c9f2 f   LIBCMT:utility.obj
 0001:0000ba2b       ___scrt_initialize_onexit_tables 1000ca2b f   LIBCMT:utility.obj
 0001:0000bad0       ___scrt_is_nonwritable_in_current_image 1000cad0 f   LIBCMT:utility.obj
 0001:0000bb64       ___scrt_release_startup_lock 1000cb64 f   LIBCMT:utility.obj
 0001:0000bb81       ___scrt_uninitialize_crt   1000cb81 f   LIBCMT:utility.obj
 0001:0000bba9       __onexit                   1000cba9 f   LIBCMT:utility.obj
 0001:0000bbe4       _atexit                    1000cbe4 f   LIBCMT:utility.obj
 0001:0000bbf9       ??3@YAXPAX@Z               1000cbf9 f   LIBCMT:delete_scalar.obj
 0001:0000bd30       __Init_thread_footer       1000cd30 f   LIBCMT:thread_safe_statics.obj
 0001:0000bd7a       __Init_thread_header       1000cd7a f   LIBCMT:thread_safe_statics.obj
 0001:0000bdcc       __Init_thread_notify       1000cdcc f   LIBCMT:thread_safe_statics.obj
 0001:0000be0e       __Init_thread_wait         1000ce0e f   LIBCMT:thread_safe_statics.obj
 0001:0000be6e       ___raise_securityfailure   1000ce6e f   LIBCMT:gs_report.obj
 0001:0000be96       ___report_gsfailure        1000ce96 f   LIBCMT:gs_report.obj
 0001:0000bf8f       ___report_rangecheckfailure 1000cf8f f   LIBCMT:gs_report.obj
 0001:0000bf9b       ___report_securityfailure  1000cf9b f   LIBCMT:gs_report.obj
 0001:0000c069       ??2@YAPAXIABUnothrow_t@std@@@Z 1000d069 f   LIBCMT:new_scalar_nothrow.obj
 0001:0000c0b9       ??_U@YAPAXIABUnothrow_t@std@@@Z 1000d0b9 f   LIBCMT:new_array_nothrow.obj
 0001:0000c0c2       @__security_check_cookie@4 1000d0c2 f   LIBCMT:_secchk_.obj
 0001:0000c0e0       __SEH_prolog4_GS           1000d0e0 f   LIBCMT:_sehprolg4gs_.obj
 0001:0000c129       __SEH_epilog4_GS           1000d129 f   LIBCMT:_sehprolg4gs_.obj
 0001:0000c140       __alloca_probe_16          1000d140 f   LIBCMT:alloca16.obj
 0001:0000c156       __alloca_probe_8           1000d156     LIBCMT:alloca16.obj
 0001:0000c170       __alloca_probe             1000d170 f   LIBCMT:chkstk.obj
 0001:0000c170       __chkstk                   1000d170 f   LIBCMT:chkstk.obj
 0001:0000c4bd       __DllMainCRTStartup@12     1000d4bd f   LIBCMT:dll_dllmain.obj
 0001:0000c4e0       ??2@YAPAXI@Z               1000d4e0 f   LIBCMT:new_scalar.obj
 0001:0000c510       ___isa_available_init      1000d510 f   LIBCMT:_cpu_disp_.obj
 0001:0000c6a7       ___scrt_is_ucrt_dll_in_use 1000d6a7 f   LIBCMT:ucrt_detection.obj
 0001:0000c6b3       ___scrt_fastfail           1000d6b3 f   LIBCMT:utility_desktop.obj
 0001:0000c7cd       __crt_debugger_hook        1000d7cd f   LIBCMT:utility_desktop.obj
 0001:0000c7e0       __SEH_prolog4              1000d7e0 f   LIBCMT:_sehprolg4_.obj
 0001:0000c826       __SEH_epilog4              1000d826 f   LIBCMT:_sehprolg4_.obj
 0001:0000c83b       @_guard_check_icall_nop@4  1000d83b f i LIBCMT:guard_support.obj
 0001:0000c889       ___security_init_cookie    1000d889 f   LIBCMT:gs_support.obj
 0001:0000c8d4       ?__scrt_initialize_type_info@@YAXXZ 1000d8d4 f   LIBCMT:tncleanup.obj
 0001:0000c8e0       ?__scrt_uninitialize_type_info@@YAXXZ 1000d8e0 f   LIBCMT:tncleanup.obj
 0001:0000c8ec       ___local_stdio_scanf_options 1000d8ec f i LIBCMT:default_local_stdio_options.obj
 0001:0000c8f2       ___scrt_initialize_default_local_stdio_options 1000d8f2 f   LIBCMT:default_local_stdio_options.obj
 0001:0000c90f       ___scrt_get_dyn_tls_init_callback 1000d90f f   LIBCMT:dyn_tls_init.obj
 0001:0000c915       __RTC_Initialize           1000d915 f   LIBCMT:_initsect_.obj
 0001:0000c941       __RTC_Terminate            1000d941 f   LIBCMT:_initsect_.obj
 0001:0000c96d       ??0bad_alloc@std@@QAE@ABV01@@Z 1000d96d f i LIBCMT:throw_bad_alloc.obj
 0001:0000c988       ??0bad_alloc@std@@QAE@XZ   1000d988 f i LIBCMT:throw_bad_alloc.obj
 0001:0000c9a0       ??0bad_array_new_length@std@@QAE@ABV01@@Z 1000d9a0 f i LIBCMT:throw_bad_alloc.obj
 0001:0000c9bb       ??0bad_array_new_length@std@@QAE@XZ 1000d9bb f i LIBCMT:throw_bad_alloc.obj
 0001:0000c9d3       ??0exception@std@@QAE@ABV01@@Z 1000d9d3 f i LIBCMT:throw_bad_alloc.obj
 0001:0000c9ff       ??1bad_alloc@std@@UAE@XZ   1000d9ff f i LIBCMT:throw_bad_alloc.obj
 0001:0000c9ff       ??1bad_array_new_length@std@@UAE@XZ 1000d9ff f i LIBCMT:throw_bad_alloc.obj
 0001:0000c9ff       ??1bad_exception@std@@UAE@XZ 1000d9ff f i libvcruntime:frame.obj
 0001:0000ca10       ??_Ebad_alloc@std@@UAEPAXI@Z 1000da10 f i LIBCMT:throw_bad_alloc.obj
 0001:0000ca10       ??_Gbad_alloc@std@@UAEPAXI@Z 1000da10 f i LIBCMT:throw_bad_alloc.obj
 0001:0000ca10       ??_Eexception@std@@UAEPAXI@Z 1000da10 f i LIBCMT:throw_bad_alloc.obj
 0001:0000ca10       ??_Gbad_array_new_length@std@@UAEPAXI@Z 1000da10 f i LIBCMT:throw_bad_alloc.obj
 0001:0000ca10       ??_Gbad_exception@std@@UAEPAXI@Z 1000da10 f i libvcruntime:frame.obj
 0001:0000ca10       ??_Ebad_array_new_length@std@@UAEPAXI@Z 1000da10 f i LIBCMT:throw_bad_alloc.obj
 0001:0000ca10       ??_Gexception@std@@UAEPAXI@Z 1000da10 f i LIBCMT:throw_bad_alloc.obj
 0001:0000ca10       ??_Ebad_exception@std@@UAEPAXI@Z 1000da10 f i libvcruntime:frame.obj
 0001:0000ca3d       ?__scrt_throw_std_bad_alloc@@YAXXZ 1000da3d f   LIBCMT:throw_bad_alloc.obj
 0001:0000ca5a       ?__scrt_throw_std_bad_array_new_length@@YAXXZ 1000da5a f   LIBCMT:throw_bad_alloc.obj
 0001:0000ca77       ?what@exception@std@@UBEPBDXZ 1000da77 f i LIBCMT:throw_bad_alloc.obj
 0001:0000ca84       ??_Etype_info@@UAEPAXI@Z   1000da84 f i LIBCMT:std_type_info_static.obj
 0001:0000ca84       ??_Gtype_info@@UAEPAXI@Z   1000da84 f i LIBCMT:std_type_info_static.obj
 0001:0000caa7       ??0CAtlBaseModule@ATL@@QAE@XZ 1000daa7 f   atls:atlbase.obj
 0001:0000cafa       ??0_ATL_BASE_MODULE70@ATL@@QAE@XZ 1000dafa f i atls:atlbase.obj
 0001:0000cb1d       ??1CAtlBaseModule@ATL@@QAE@XZ 1000db1d f   atls:atlbase.obj
 0001:0000cc0a       ?Init@_stdcallthunk@ATL@@QAEHKPAX@Z 1000dc0a f i atls:atlthunk.obj
 0001:0000cc3f       ?__AllocStdCallThunk_cmn@@YAPAXXZ 1000dc3f f   atls:atlthunk.obj
 0001:0000cd05       ?__FreeStdCallThunk_cmn@@YAXPAX@Z 1000dd05 f   atls:atlthunk.obj
 0001:0000cda0       _AtlThunk_AllocateData@0   1000dda0 f   atls:atlthunk.obj
 0001:0000ce05       _AtlThunk_DataToCode@4     1000de05 f   atls:atlthunk.obj
 0001:0000ce4c       _AtlThunk_FreeData@4       1000de4c f   atls:atlthunk.obj
 0001:0000cea2       _AtlThunk_InitData@12      1000dea2 f   atls:atlthunk.obj
 0001:0000cef1       __get_purecall_handler     1000def1 f   libvcruntime:purevirt.obj
 0001:0000cf06       __purecall                 1000df06 f   libvcruntime:purevirt.obj
 0001:0000cf22       _wcsstr                    1000df22 f   libvcruntime:wcsstr.obj
 0001:0000d1e0       __except_handler4          1000e1e0 f   libvcruntime:_chandler4_.obj
 0001:0000d337       _memcmp                    1000e337 f   libvcruntime:_memcmp_.obj
 0001:0000e2e0       _memcpy                    1000f2e0 f   libvcruntime:memcpy.obj
 0001:0000e860       _memset                    1000f860 f   libvcruntime:memset.obj
 0001:0000e9ba       ___vcrt_initialize         1000f9ba f   libvcruntime:initialization.obj
 0001:0000e9e3       ___vcrt_thread_attach      1000f9e3 f   libvcruntime:initialization.obj
 0001:0000e9ee       ___vcrt_thread_detach      1000f9ee f   libvcruntime:initialization.obj
 0001:0000e9f9       ___vcrt_uninitialize       1000f9f9 f   libvcruntime:initialization.obj
 0001:0000ea18       ___vcrt_uninitialize_critical 1000fa18 f   libvcruntime:initialization.obj
 0001:0000ea20       ?GetRangeOfTrysToCheck@__FrameHandler3@@SA?AU?$pair@Viterator@TryBlockMap@__FrameHandler3@@V123@@std@@AAVTryBlockMap@1@HH@Z 1000fa20 f   libvcruntime:trnsctrl.obj
 0001:0000eaa2       ?_CallCatchBlock2@@YAPAXPAUEHRegistrationNode@@PBU_s_FuncInfo@@PAXHK@Z 1000faa2 f   libvcruntime:trnsctrl.obj
 0001:0000eb00       ?_CallSETranslator@@YAHPAUEHExceptionRecord@@PAUEHRegistrationNode@@PAX2PBU_s_FuncInfo@@H1@Z 1000fb00 f   libvcruntime:trnsctrl.obj
 0001:0000ebdb       ?_JumpToContinuation@@YGXPAXPAUEHRegistrationNode@@@Z 1000fbdb f   libvcruntime:trnsctrl.obj
 0001:0000ec0b       ?_UnwindNestedFrames@@YGXPAUEHRegistrationNode@@PAUEHExceptionRecord@@@Z 1000fc0b f   libvcruntime:trnsctrl.obj
 0001:0000ec5e       __CatchGuardHandler        1000fc5e f   libvcruntime:trnsctrl.obj
 0001:0000ec8f       __CreateFrameInfo          1000fc8f f   libvcruntime:trnsctrl.obj
 0001:0000ecb3       __FindAndUnlinkFrame       1000fcb3 f   libvcruntime:trnsctrl.obj
 0001:0000ecf8       __TranslatorGuardHandler   1000fcf8 f   libvcruntime:trnsctrl.obj
 0001:0000ed95       ___CxxFrameHandler3        1000fd95 f   libvcruntime:trnsctrl.obj
 0001:0000edcb       ___std_type_info_compare   1000fdcb f   libvcruntime:std_type_info.obj
 0001:0000ee07       ___std_type_info_destroy_list 1000fe07 f   libvcruntime:std_type_info.obj
 0001:0000ee2a       ___std_exception_copy      1000fe2a f   libvcruntime:std_exception.obj
 0001:0000ee8d       ___std_exception_destroy   1000fe8d f   libvcruntime:std_exception.obj
 0001:0000eeac       __CxxThrowException@8      1000feac f   libvcruntime:throw.obj
 0001:0000ef20       _memmove                   1000ff20 f   libvcruntime:memmove.obj
 0001:0000f494       ___vcrt_initialize_pure_virtual_call_handler 10010494 f   libvcruntime:purevirt_data.obj
 0001:0000f4a0       __local_unwind4            100104a0 f   libvcruntime:_exsup4_.obj
 0001:0000f578       __seh_longjmp_unwind4@4    10010578 f   libvcruntime:_exsup4_.obj
 0001:0000f5a0       @_EH4_CallFilterFunc@8     100105a0 f   libvcruntime:_exsup4_.obj
 0001:0000f5b8       @_EH4_TransferToHandler@8  100105b8 f   libvcruntime:_exsup4_.obj
 0001:0000f5d4       @_EH4_GlobalUnwind2@8      100105d4 f   libvcruntime:_exsup4_.obj
 0001:0000f5f0       @_EH4_LocalUnwind@16       100105f0 f   libvcruntime:_exsup4_.obj
 0001:0000f607       ___except_validate_context_record 10010607 f   libvcruntime:jbcxrval.obj
 0001:0000f637       ___except_validate_jump_buffer 10010637 f   libvcruntime:jbcxrval.obj
 0001:0000f664       ___vcrt_freefls@4          10010664 f   libvcruntime:per_thread_data.obj
 0001:0000f680       ___vcrt_freeptd            10010680 f   libvcruntime:per_thread_data.obj
 0001:0000f6b6       ___vcrt_getptd             100106b6 f   libvcruntime:per_thread_data.obj
 0001:0000f6c4       ___vcrt_getptd_noexit      100106c4 f   libvcruntime:per_thread_data.obj
 0001:0000f756       ___vcrt_initialize_ptd     10010756 f   libvcruntime:per_thread_data.obj
 0001:0000f789       ___vcrt_uninitialize_ptd   10010789 f   libvcruntime:per_thread_data.obj
 0001:0000f7a4       ___vcrt_initialize_locks   100107a4 f   libvcruntime:locks.obj
 0001:0000f7e0       ___vcrt_uninitialize_locks 100107e0 f   libvcruntime:locks.obj
 0001:0000f942       ___vcrt_FlsAlloc           10010942 f   libvcruntime:winapi_downlevel.obj
 0001:0000f97d       ___vcrt_FlsFree            1001097d f   libvcruntime:winapi_downlevel.obj
 0001:0000f9b8       ___vcrt_FlsGetValue        100109b8 f   libvcruntime:winapi_downlevel.obj
 0001:0000f9f3       ___vcrt_FlsSetValue        100109f3 f   libvcruntime:winapi_downlevel.obj
 0001:0000fa31       ___vcrt_InitializeCriticalSectionEx 10010a31 f   libvcruntime:winapi_downlevel.obj
 0001:0000fa78       ___vcrt_initialize_winapi_thunks 10010a78 f   libvcruntime:winapi_downlevel.obj
 0001:0000faa1       ___vcrt_uninitialize_winapi_thunks 10010aa1 f   libvcruntime:winapi_downlevel.obj
 0001:000101ca       ??$TypeMatchHelper@$$CBU_s_HandlerType@@@@YAHPBU_s_HandlerType@@PBU_s_CatchableType@@PBU_s_ThrowInfo@@@Z 100111ca f i libvcruntime:frame.obj
 0001:00010258       ??$__InternalCxxFrameHandler@V__FrameHandler3@@@@YA?AW4_EXCEPTION_DISPOSITION@@PAUEHExceptionRecord@@PAUEHRegistrationNode@@PAU_CONTEXT@@PAXPBU_s_FuncInfo@@H1E@Z 10011258 f i libvcruntime:frame.obj
 0001:0001035a       ??0bad_exception@std@@QAE@ABV01@@Z 1001135a f i libvcruntime:frame.obj
 0001:00010375       ??0bad_exception@std@@QAE@XZ 10011375 f i libvcruntime:frame.obj
 0001:0001038d       ??8type_info@@QBE_NABV0@@Z 1001138d f i libvcruntime:frame.obj
 0001:000105f4       ?FrameUnwindToEmptyState@__FrameHandler3@@SAXPAUEHRegistrationNode@@PAXPBU_s_FuncInfo@@@Z 100115f4 f   libvcruntime:frame.obj
 0001:0001060c       ?FrameUnwindToState@__FrameHandler3@@SAXPAUEHRegistrationNode@@PAXPBU_s_FuncInfo@@H@Z 1001160c f   libvcruntime:frame.obj
 0001:0001078e       ?_CallMemberFunction1@@YGXQAX00@Z 1001178e f i libvcruntime:frame.obj
 0001:0001079e       ?_CallMemberFunction2@@YGXQAX00H@Z 1001179e f i libvcruntime:frame.obj
 0001:000107b1       ?getESTypes@__FrameHandler3@@SAPBU_s_ESTypeList@@PBU_s_FuncInfo@@@Z 100117b1 f i libvcruntime:frame.obj
 0001:000107c0       __CallSettingFrame@12      100117c0 f   libvcruntime:lowhelpr.obj
 0001:000107e7       __NLG_Return               100117e7     libvcruntime:lowhelpr.obj
 0001:00010810       __global_unwind2           10011810 f   libvcruntime:_exsup_.obj
 0001:00010876       __local_unwind2            10011876 f   libvcruntime:_exsup_.obj
 0001:000108fa       __abnormal_termination     100118fa f   libvcruntime:_exsup_.obj
 0001:00010920       __NLG_Notify1              10011920 f   libvcruntime:_exsup_.obj
 0001:0001092c       __NLG_Notify               1001192c f   libvcruntime:_exsup_.obj
 0001:00010943       __NLG_Dispatch             10011943     libvcruntime:_exsup_.obj
 0001:00010943       __NLG_Dispatch2            10011943     libvcruntime:_exsup_.obj
 0001:0001094b       __NLG_Call                 1001194b f   libvcruntime:_exsup_.obj
 0001:0001094d       __NLG_Return2              1001194d     libvcruntime:_exsup_.obj
 0001:0001094e       _unexpected                1001194e f   libvcruntime:unexpected.obj
 0001:0001096b       ?GetCurrentState@__FrameHandler3@@SAHPAUEHRegistrationNode@@PAXPBU_s_FuncInfo@@@Z 1001196b f   libvcruntime:ehstate.obj
 0001:00010988       ?SetState@__FrameHandler3@@SAXPAUEHRegistrationNode@@PBU_s_FuncInfo@@H@Z 10011988 f   libvcruntime:ehstate.obj
 0001:00010996       ___DestructExceptionObject 10011996 f   libvcruntime:ehhelpers.obj
 0001:00010a36       ?_CallMemberFunction0@@YGXQAX0@Z 10011a36 f i libvcruntime:ehhelpers.obj
 0001:00010a43       __IsExceptionObjectToBeDestroyed 10011a43 f   libvcruntime:ehhelpers.obj
 0001:00010a69       ___AdjustPointer           10011a69 f   libvcruntime:ehhelpers.obj
 0001:00010a8e       ___FrameUnwindFilter       10011a8e f   libvcruntime:ehhelpers.obj
 0001:00010ad3       _free                      10011ad3 f   libucrt:free.obj
 0001:00010af0       ___acrt_call_reportfault   10011af0 f   libucrt:invalid_parameter.obj
 0001:00010c2b       ___acrt_initialize_invalid_parameter_handler 10011c2b f   libucrt:invalid_parameter.obj
 0001:00010c3a       __invalid_parameter        10011c3a f   libucrt:invalid_parameter.obj
 0001:00010cb5       __invalid_parameter_noinfo 10011cb5 f   libucrt:invalid_parameter.obj
 0001:00010cc5       __invoke_watson            10011cc5 f   libucrt:invalid_parameter.obj
 0001:00010cf8       ___acrt_errno_from_os_error 10011cf8 f   libucrt:errno.obj
 0001:00010d3b       ___acrt_errno_map_os_error 10011d3b f   libucrt:errno.obj
 0001:00010d5e       ___doserrno                10011d5e f   libucrt:errno.obj
 0001:00010d71       __errno                    10011d71 f   libucrt:errno.obj
 0001:00010d84       _calloc                    10011d84 f   libucrt:calloc.obj
 0001:00010d8f       _malloc                    10011d8f f   libucrt:malloc.obj
 0001:00010d9a       __recalloc                 10011d9a f   libucrt:recalloc.obj
 0001:00010da5       __recalloc_base            10011da5 f   libucrt:recalloc.obj
 0001:00010e12       __resetstkoflw             10011e12 f   libucrt:resetstk.obj
 0001:00010ee3       _wcscat_s                  10011ee3 f   libucrt:wcscat_s.obj
 0001:00010f58       _wcscpy_s                  10011f58 f   libucrt:wcscpy_s.obj
 0001:00011089       _wcsncpy_s                 10012089 f   libucrt:wcsncpy_s.obj
 0001:00011297       ??$count@D@formatting_buffer@__crt_stdio_output@@QBEIXZ 10012297 f i libucrt:output.obj
 0001:000112af       ??$count@_W@formatting_buffer@__crt_stdio_output@@QBEIXZ 100122af f i libucrt:output.obj
 0001:000112c8       ??$ensure_buffer_is_big_enough@D@formatting_buffer@__crt_stdio_output@@QAE_NI@Z 100122c8 f i libucrt:output.obj
 0001:0001134e       ??$is_wide_character_specifier@_W@__crt_stdio_output@@YA_N_K_WW4length_modifier@0@@Z 1001234e f i libucrt:output.obj
 0001:0001139d       ??$scratch_data@D@formatting_buffer@__crt_stdio_output@@QAEPADXZ 1001239d f i libucrt:output.obj
 0001:000113bb       ??$type_case_integer_parse_into_buffer@I@?$output_processor@_WV?$string_output_adapter@_W@__crt_stdio_output@@V?$format_validation_base@_WV?$string_output_adapter@_W@__crt_stdio_output@@@2@@__crt_stdio_output@@AAEXII_N@Z 100123bb f i libucrt:output.obj
 0001:00011441       ??$type_case_integer_parse_into_buffer@_K@?$output_processor@_WV?$string_output_adapter@_W@__crt_stdio_output@@V?$format_validation_base@_WV?$string_output_adapter@_W@__crt_stdio_output@@@2@@__crt_stdio_output@@AAEX_KI_N@Z 10012441 f i libucrt:output.obj
 0001:000114dc       ??$write_multiple_characters@V?$string_output_adapter@_W@__crt_stdio_output@@D@__crt_stdio_output@@YAXABV?$string_output_adapter@_W@0@DHQAH@Z 100124dc f i libucrt:output.obj
 0001:0001150d       ??0?$common_data@_W@__crt_stdio_output@@IAE@XZ 1001250d f i libucrt:output.obj
 0001:00011559       ??0?$output_adapter_data@_WV?$string_output_adapter@_W@__crt_stdio_output@@@__crt_stdio_output@@IAE@ABV?$string_output_adapter@_W@1@_KQB_WQAU__crt_locale_pointers@@QAD@Z 10012559 f i libucrt:output.obj
 0001:00011595       ??0_LocaleUpdate@@QAE@QAU__crt_locale_pointers@@@Z 10012595 f i libucrt:output.obj
 0001:00011618       ??1formatting_buffer@__crt_stdio_output@@QAE@XZ 10012618 f i libucrt:output.obj
 0001:00011632       ??4?$__crt_unique_heap_ptr@DU__crt_internal_free_policy@@@@QAEAAV0@$$QAV0@@Z 10012632 f i libucrt:output.obj
 0001:00011656       ?crop_zeroes@__crt_stdio_output@@YAXPADQAU__crt_locale_pointers@@@Z 10012656 f i libucrt:output.obj
 0001:000116ad       ?find_next_state@?$output_processor@_WV?$string_output_adapter@_W@__crt_stdio_output@@V?$format_validation_base@_WV?$string_output_adapter@_W@__crt_stdio_output@@@2@@__crt_stdio_output@@ABE?AW4state@2@_WW432@@Z 100126ad f i libucrt:output.obj
 0001:000116e4       ?force_decimal_point@__crt_stdio_output@@YAXPADQAU__crt_locale_pointers@@@Z 100126e4 f i libucrt:output.obj
 0001:00011740       ?parse_int_from_format_string@?$output_processor@_WV?$string_output_adapter@_W@__crt_stdio_output@@V?$format_validation_base@_WV?$string_output_adapter@_W@__crt_stdio_output@@@2@@__crt_stdio_output@@AAE_NQAH@Z 10012740 f i libucrt:output.obj
 0001:000117ba       ?process@?$output_processor@_WV?$string_output_adapter@_W@__crt_stdio_output@@V?$format_validation_base@_WV?$string_output_adapter@_W@__crt_stdio_output@@@2@@__crt_stdio_output@@QAEHXZ 100127ba f i libucrt:output.obj
 0001:000118ea       ?state_case_flag@?$output_processor@_WV?$string_output_adapter@_W@__crt_stdio_output@@V?$format_validation_base@_WV?$string_output_adapter@_W@__crt_stdio_output@@@2@@__crt_stdio_output@@AAE_NXZ 100128ea f i libucrt:output.obj
 0001:00011927       ?state_case_normal@?$output_processor@_WV?$string_output_adapter@_W@__crt_stdio_output@@V?$format_validation_base@_WV?$string_output_adapter@_W@__crt_stdio_output@@@2@@__crt_stdio_output@@AAE_NXZ 10012927 f i libucrt:output.obj
 0001:00011946       ?state_case_normal_common@?$output_processor@_WV?$string_output_adapter@_W@__crt_stdio_output@@V?$format_validation_base@_WV?$string_output_adapter@_W@__crt_stdio_output@@@2@@__crt_stdio_output@@AAE_NXZ 10012946 f i libucrt:output.obj
 0001:00011961       ?state_case_precision@?$output_processor@_WV?$string_output_adapter@_W@__crt_stdio_output@@V?$format_validation_base@_WV?$string_output_adapter@_W@__crt_stdio_output@@@2@@__crt_stdio_output@@AAE_NXZ 10012961 f i libucrt:output.obj
 0001:0001198a       ?state_case_size@?$output_processor@_WV?$string_output_adapter@_W@__crt_stdio_output@@V?$format_validation_base@_WV?$string_output_adapter@_W@__crt_stdio_output@@@2@@__crt_stdio_output@@AAE_NXZ 1001298a f i libucrt:output.obj
 0001:00011b06       ?state_case_type@?$output_processor@_WV?$string_output_adapter@_W@__crt_stdio_output@@V?$format_validation_base@_WV?$string_output_adapter@_W@__crt_stdio_output@@@2@@__crt_stdio_output@@AAE_NXZ 10012b06 f i libucrt:output.obj
 0001:00011d64       ?state_case_width@?$output_processor@_WV?$string_output_adapter@_W@__crt_stdio_output@@V?$format_validation_base@_WV?$string_output_adapter@_W@__crt_stdio_output@@@2@@__crt_stdio_output@@AAE_NXZ 10012d64 f i libucrt:output.obj
 0001:00011d90       ?to_integer_size@__crt_stdio_output@@YAIW4length_modifier@1@@Z 10012d90 f i libucrt:output.obj
 0001:00011dec       ?type_case_Z@?$output_processor@_WV?$string_output_adapter@_W@__crt_stdio_output@@V?$format_validation_base@_WV?$string_output_adapter@_W@__crt_stdio_output@@@2@@__crt_stdio_output@@AAE_NXZ 10012dec f i libucrt:output.obj
 0001:00011e4f       ?type_case_a@?$output_processor@_WV?$string_output_adapter@_W@__crt_stdio_output@@V?$format_validation_base@_WV?$string_output_adapter@_W@__crt_stdio_output@@@2@@__crt_stdio_output@@AAE_NXZ 10012e4f f i libucrt:output.obj
 0001:00011fc1       ?type_case_c_tchar@?$output_processor@_WV?$string_output_adapter@_W@__crt_stdio_output@@V?$format_validation_base@_WV?$string_output_adapter@_W@__crt_stdio_output@@@2@@__crt_stdio_output@@AAE_N_W@Z 10012fc1 f i libucrt:output.obj
 0001:00012059       ?type_case_integer@?$output_processor@_WV?$string_output_adapter@_W@__crt_stdio_output@@V?$format_validation_base@_WV?$string_output_adapter@_W@__crt_stdio_output@@@2@@__crt_stdio_output@@AAE_NI_N@Z 10013059 f i libucrt:output.obj
 0001:000121ab       ?type_case_n@?$output_processor@_WV?$string_output_adapter@_W@__crt_stdio_output@@V?$format_validation_base@_WV?$string_output_adapter@_W@__crt_stdio_output@@@2@@__crt_stdio_output@@AAE_NXZ 100131ab f i libucrt:output.obj
 0001:0001221f       ?type_case_o@?$output_processor@_WV?$string_output_adapter@_W@__crt_stdio_output@@V?$format_validation_base@_WV?$string_output_adapter@_W@__crt_stdio_output@@@2@@__crt_stdio_output@@AAE_NXZ 1001321f f i libucrt:output.obj
 0001:0001223e       ?type_case_p@?$output_processor@_WV?$string_output_adapter@_W@__crt_stdio_output@@V?$format_validation_base@_WV?$string_output_adapter@_W@__crt_stdio_output@@@2@@__crt_stdio_output@@AAE_NXZ 1001323e f i libucrt:output.obj
 0001:00012256       ?type_case_s@?$output_processor@_WV?$string_output_adapter@_W@__crt_stdio_output@@V?$format_validation_base@_WV?$string_output_adapter@_W@__crt_stdio_output@@@2@@__crt_stdio_output@@AAE_NXZ 10013256 f i libucrt:output.obj
 0001:000122ca       ?type_case_s_compute_narrow_string_length@?$output_processor@_WV?$string_output_adapter@_W@__crt_stdio_output@@V?$format_validation_base@_WV?$string_output_adapter@_W@__crt_stdio_output@@@2@@__crt_stdio_output@@ABEHH_W@Z 100132ca f i libucrt:output.obj
 0001:0001230a       ?validate@?$c_string_character_source@_W@__crt_strtox@@QBE_NXZ 1001330a f i libucrt:atox.obj
 0001:0001230a       ?validate@?$string_output_adapter@_W@__crt_stdio_output@@QBE_NXZ 1001330a f i libucrt:output.obj
 0001:00012325       ?validate_and_update_state_at_end_of_format_string@?$format_validation_base@_WV?$string_output_adapter@_W@__crt_stdio_output@@@__crt_stdio_output@@IBE_NXZ 10013325 f i libucrt:output.obj
 0001:00012347       ?write_character@?$string_output_adapter@_W@__crt_stdio_output@@QBE_N_WQAH@Z 10013347 f i libucrt:output.obj
 0001:0001238c       ?write_stored_string_tchar@?$output_processor@_WV?$string_output_adapter@_W@__crt_stdio_output@@V?$format_validation_base@_WV?$string_output_adapter@_W@__crt_stdio_output@@@2@@__crt_stdio_output@@AAE_N_W@Z 1001338c f i libucrt:output.obj
 0001:00012418       ?write_string@?$string_output_adapter@_W@__crt_stdio_output@@QBEXQB_WHQAHAAV__crt_deferred_errno_cache@@@Z 10013418 f i libucrt:output.obj
 0001:0001248b       ___stdio_common_vswprintf_s 1001348b f   libucrt:output.obj
 0001:000124af       __seh_filter_dll           100134af f   libucrt:exception_filter.obj
 0001:000124cf       __seh_filter_exe           100134cf f   libucrt:exception_filter.obj
 0001:00012642       ??$?RV<lambda_03b1d95aef87969028cfba75ccab2455>@@AAV<lambda_6e4b09c48022b2350581041d5f6b0c4c>@@V<lambda_22bdf7517842c4b3e53723af5aa32b9e>@@@?$__crt_seh_guarded_call@X@@QAEX$$QAV<lambda_03b1d95aef87969028cfba75ccab2455>@@AAV<lambda_6e4b09c48022b2350581041d5f6b0c4c>@@$$QAV<lambda_22bdf7517842c4b3e53723af5aa32b9e>@@@Z 10013642 f i libucrt:exit.obj
 0001:00012685       ??$__acrt_lock_and_call@V<lambda_6e4b09c48022b2350581041d5f6b0c4c>@@@@YAXW4__acrt_lock_id@@$$QAV<lambda_6e4b09c48022b2350581041d5f6b0c4c>@@@Z 10013685 f i libucrt:exit.obj
 0001:000128e2       ___acrt_initialize_thread_local_exit_callback 100138e2 f   libucrt:exit.obj
 0001:000128f1       __cexit                    100138f1 f   libucrt:exit.obj
 0001:00012900       __exit                     10013900 f   libucrt:exit.obj
 0001:00012916       __is_c_termination_complete 10013916 f   libucrt:exit.obj
 0001:00012bc7       ___acrt_allocate_buffer_for_argv 10013bc7 f   libucrt:argv_parsing.obj
 0001:00012c1c       __configure_narrow_argv    10013c1c f   libucrt:argv_parsing.obj
 0001:00012d80       ??$uninitialize@A6AXAAPAPAD@Z@?$dual_state_global@PAPAD@__crt_state_management@@QAEXA6AXAAPAPAD@Z@Z 10013d80 f i libucrt:environment_initialization.obj
 0001:00012d80       ??$uninitialize@A6AXAAPAPA_W@Z@?$dual_state_global@PAPA_W@__crt_state_management@@QAEXA6AXAAPAPA_W@Z@Z 10013d80 f i libucrt:environment_initialization.obj
 0001:00012df6       ?initialize@?$dual_state_global@PAU__crt_multibyte_data@@@__crt_state_management@@QAEXQAU__crt_multibyte_data@@@Z 10013df6 f i libucrt:mbctype.obj
 0001:00012df6       ?initialize@?$dual_state_global@PAPAD@__crt_state_management@@QAEXQAPAD@Z 10013df6 f i libucrt:environment_initialization.obj
 0001:00012df6       ?initialize@?$dual_state_global@P6AHI@Z@__crt_state_management@@QAEXQ6AHI@Z@Z 10013df6 f i libucrt:new_handler.obj
 0001:00012df6       ?initialize@?$dual_state_global@PAU__crt_locale_data@@@__crt_state_management@@QAEXQAU__crt_locale_data@@@Z 10013df6 f i libucrt:initialization.obj
 0001:00012df6       ?initialize@?$dual_state_global@P6AXH@Z@__crt_state_management@@QAEXQ6AXH@Z@Z 10013df6 f i libucrt:signal.obj
 0001:00012df6       ?initialize@?$dual_state_global@P6AHPAU_exception@@@Z@__crt_state_management@@QAEXQ6AHPAU_exception@@@Z@Z 10013df6 f i libucrt:matherr.obj
 0001:00012e27       ___dcrt_uninitialize_environments_nolock 10013e27 f   libucrt:environment_initialization.obj
 0001:00012e5e       __initialize_narrow_environment 10013e5e f   libucrt:environment_initialization.obj
 0001:00012e63       ??$?RV<lambda_69a2805e680e0e292e8ba93315fe43a8>@@AAV<lambda_f03950bc5685219e0bcd2087efbe011e>@@V<lambda_03fcd07e894ec930e3f35da366ca99d6>@@@?$__crt_seh_guarded_call@H@@QAEH$$QAV<lambda_69a2805e680e0e292e8ba93315fe43a8>@@AAV<lambda_f03950bc5685219e0bcd2087efbe011e>@@$$QAV<lambda_03fcd07e894ec930e3f35da366ca99d6>@@@Z 10013e63 f i libucrt:onexit.obj
 0001:00012eb4       ??$?RV<lambda_8e746cf0007f6ed984d6f78af1fec997>@@AAV<lambda_22ebabd17bc4fa466a2aca6d8deb888d>@@V<lambda_18ed0c0b38a6dc0daf1e7ac6d6adf05e>@@@?$__crt_seh_guarded_call@H@@QAEH$$QAV<lambda_8e746cf0007f6ed984d6f78af1fec997>@@AAV<lambda_22ebabd17bc4fa466a2aca6d8deb888d>@@$$QAV<lambda_18ed0c0b38a6dc0daf1e7ac6d6adf05e>@@@Z 10013eb4 f i libucrt:onexit.obj
 0001:00012f05       ??$__acrt_lock_and_call@V<lambda_22ebabd17bc4fa466a2aca6d8deb888d>@@@@YAHW4__acrt_lock_id@@$$QAV<lambda_22ebabd17bc4fa466a2aca6d8deb888d>@@@Z 10013f05 f i libucrt:onexit.obj
 0001:00012f2d       ??$__acrt_lock_and_call@V<lambda_f03950bc5685219e0bcd2087efbe011e>@@@@YAHW4__acrt_lock_id@@$$QAV<lambda_f03950bc5685219e0bcd2087efbe011e>@@@Z 10013f2d f i libucrt:onexit.obj
 0001:00012f55       ??$__crt_fast_encode_pointer@P6AHXZ@@YAP6AHXZQ6AHXZ@Z 10013f55 f i libucrt:onexit.obj
 0001:000131d3       __crt_atexit               100141d3 f   libucrt:onexit.obj
 0001:000131e9       __execute_onexit_table     100141e9 f   libucrt:onexit.obj
 0001:00013206       __initialize_onexit_table  10014206 f   libucrt:onexit.obj
 0001:00013243       __register_onexit_function 10014243 f   libucrt:onexit.obj
 0001:00013293       ___acrt_uninitialize_command_line 10014293 f   libucrt:argv_data.obj
 0001:00013376       ___acrt_initialize         10014376 f   libucrt:initialization.obj
 0001:00013388       ___acrt_thread_attach      10014388 f   libucrt:initialization.obj
 0001:00013393       ___acrt_thread_detach      10014393 f   libucrt:initialization.obj
 0001:0001339b       ___acrt_uninitialize       1001439b f   libucrt:initialization.obj
 0001:000133ad       ___acrt_uninitialize_critical 100143ad f   libucrt:initialization.obj
 0001:000133bf       __initterm                 100143bf f   libucrt:initterm.obj
 0001:0001341b       __initterm_e               1001441b f   libucrt:initterm.obj
 0001:00013460       ___acrt_initialize_new_handler 10014460 f   libucrt:new_handler.obj
 0001:00013474       __callnewh                 10014474 f   libucrt:new_handler.obj
 0001:000134b8       __query_new_handler        100144b8 f   libucrt:new_handler.obj
 0001:0001350a       _terminate                 1001450a f   libucrt:terminate.obj
 0001:00013546       _abort                     10014546 f   libucrt:abort.obj
 0001:00013589       _strcpy_s                  10014589 f   libucrt:strcpy_s.obj
 0001:000135e3       _wcsncmp                   100145e3 f   libucrt:wcsncmp.obj
 0001:0001361d       ??$is_overflow_condition@K@__crt_strtox@@YA_NIK@Z 1001461d f i libucrt:atox.obj
 0001:00013650       ??$parse_integer@KV?$c_string_character_source@_W@__crt_strtox@@@__crt_strtox@@YAKQAU__crt_locale_pointers@@V?$c_string_character_source@_W@0@H_N@Z 10014650 f i libucrt:atox.obj
 0001:00013d35       ?unget@?$c_string_character_source@_W@__crt_strtox@@QAEX_W@Z 10014d35 f i libucrt:atox.obj
 0001:00013d61       __chvalidchk_l             10014d61 f i libucrt:atox.obj
 0001:00013d8b       __ischartype_l             10014d8b f i libucrt:atox.obj
 0001:00013dc0       _strncmp                   10014dc0 f   libucrt:strncmp.obj
 0001:00013e38       __free_base                10014e38 f   libucrt:free_base.obj
 0001:00013e72       ??$?RV<lambda_15ade71b0218206bbe3333a0c9b79046>@@AAV<lambda_da44e0f8b0f19ba52fefafb335991732>@@V<lambda_207f2d024fc103971653565357d6cd41>@@@?$__crt_seh_guarded_call@X@@QAEX$$QAV<lambda_15ade71b0218206bbe3333a0c9b79046>@@AAV<lambda_da44e0f8b0f19ba52fefafb335991732>@@$$QAV<lambda_207f2d024fc103971653565357d6cd41>@@@Z 10014e72 f i libucrt:per_thread_data.obj
 0001:00013eba       ??$?RV<lambda_38edbb1296d33220d7e4dd0ed76b244a>@@AAV<lambda_5ce1d447e08cb34b2473517608e21441>@@V<lambda_fb385d3da700c9147fc39e65dd577a8c>@@@?$__crt_seh_guarded_call@X@@QAEX$$QAV<lambda_38edbb1296d33220d7e4dd0ed76b244a>@@AAV<lambda_5ce1d447e08cb34b2473517608e21441>@@$$QAV<lambda_fb385d3da700c9147fc39e65dd577a8c>@@@Z 10014eba f i libucrt:per_thread_data.obj
 0001:00013f1b       ??$?RV<lambda_6affb1475c98b40b75cdec977db92e3c>@@AAV<lambda_b8d4b9c228a6ecc3f80208dbb4b4a104>@@V<lambda_608742c3c92a14382c1684fc64f96c88>@@@?$__crt_seh_guarded_call@X@@QAEX$$QAV<lambda_6affb1475c98b40b75cdec977db92e3c>@@AAV<lambda_b8d4b9c228a6ecc3f80208dbb4b4a104>@@$$QAV<lambda_608742c3c92a14382c1684fc64f96c88>@@@Z 10014f1b f i libucrt:per_thread_data.obj
 0001:00013f66       ??$?RV<lambda_a7e850c220f1c8d1e6efeecdedd162c6>@@AAV<lambda_46720907175c18b6c9d2717bc0d2d362>@@V<lambda_9048902d66e8d99359bc9897bbb930a8>@@@?$__crt_seh_guarded_call@X@@QAEX$$QAV<lambda_a7e850c220f1c8d1e6efeecdedd162c6>@@AAV<lambda_46720907175c18b6c9d2717bc0d2d362>@@$$QAV<lambda_9048902d66e8d99359bc9897bbb930a8>@@@Z 10014f66 f i libucrt:per_thread_data.obj
 0001:00013fb6       ??$__acrt_lock_and_call@V<lambda_46720907175c18b6c9d2717bc0d2d362>@@@@YAXW4__acrt_lock_id@@$$QAV<lambda_46720907175c18b6c9d2717bc0d2d362>@@@Z 10014fb6 f i libucrt:per_thread_data.obj
 0001:00013fde       ??$__acrt_lock_and_call@V<lambda_5ce1d447e08cb34b2473517608e21441>@@@@YAXW4__acrt_lock_id@@$$QAV<lambda_5ce1d447e08cb34b2473517608e21441>@@@Z 10014fde f i libucrt:per_thread_data.obj
 0001:00014006       ??$__acrt_lock_and_call@V<lambda_b8d4b9c228a6ecc3f80208dbb4b4a104>@@@@YAXW4__acrt_lock_id@@$$QAV<lambda_b8d4b9c228a6ecc3f80208dbb4b4a104>@@@Z 10015006 f i libucrt:per_thread_data.obj
 0001:0001402e       ??$__acrt_lock_and_call@V<lambda_da44e0f8b0f19ba52fefafb335991732>@@@@YAXW4__acrt_lock_id@@$$QAV<lambda_da44e0f8b0f19ba52fefafb335991732>@@@Z 1001502e f i libucrt:per_thread_data.obj
 0001:000141e4       ___acrt_freeptd            100151e4 f   libucrt:per_thread_data.obj
 0001:00014210       ___acrt_getptd             10015210 f   libucrt:per_thread_data.obj
 0001:000142c4       ___acrt_getptd_head        100152c4 f   libucrt:per_thread_data.obj
 0001:0001435e       ___acrt_getptd_noexit      1001535e f   libucrt:per_thread_data.obj
 0001:00014411       ___acrt_initialize_ptd     10015411 f   libucrt:per_thread_data.obj
 0001:0001443d       ___acrt_uninitialize_ptd   1001543d f   libucrt:per_thread_data.obj
 0001:00014457       __calloc_base              10015457 f   libucrt:calloc_base.obj
 0001:000144b4       __malloc_base              100154b4 f   libucrt:malloc_base.obj
 0001:00014502       __msize                    10015502 f   libucrt:msize.obj
 0001:0001450d       __msize_base               1001550d f   libucrt:msize.obj
 0001:00014540       __realloc_base             10015540 f   libucrt:realloc_base.obj
 0001:00014727       ___acrt_AppPolicyGetProcessTerminationMethodInternal@4 10015727 f   libucrt:winapi_thunks.obj
 0001:0001477e       ___acrt_FlsAlloc@4         1001577e f   libucrt:winapi_thunks.obj
 0001:000147d4       ___acrt_FlsFree@4          100157d4 f   libucrt:winapi_thunks.obj
 0001:0001482a       ___acrt_FlsGetValue@4      1001582a f   libucrt:winapi_thunks.obj
 0001:00014880       ___acrt_FlsSetValue@8      10015880 f   libucrt:winapi_thunks.obj
 0001:000148d9       ___acrt_InitializeCriticalSectionEx@12 100158d9 f   libucrt:winapi_thunks.obj
 0001:0001493b       ___acrt_LCMapStringEx@36   1001593b f   libucrt:winapi_thunks.obj
 0001:000149af       ___acrt_LocaleNameToLCID@8 100159af f   libucrt:winapi_thunks.obj
 0001:000149f7       ___acrt_SetThreadStackGuarantee@4 100159f7 f   libucrt:winapi_thunks.obj
 0001:00014a49       ___acrt_initialize_winapi_thunks 10015a49 f   libucrt:winapi_thunks.obj
 0001:00014a6f       ___acrt_uninitialize_winapi_thunks 10015a6f f   libucrt:winapi_thunks.obj
 0001:00014aa5       __isdigit_l                10015aa5 f i libucrt:_ctype.obj
 0001:00014add       _isdigit                   10015add f i libucrt:_ctype.obj
 0001:00014c71       __tolower_l                10015c71 f   libucrt:tolower_toupper.obj
 0001:00014c8b       _tolower                   10015c8b f   libucrt:tolower_toupper.obj
 0001:00014cbb       ??$make_c_string_character_source@_WPAPA_W@__crt_strtox@@YA?AV?$c_string_character_source@_W@0@QB_WQAPA_W@Z 10015cbb f i libucrt:strtox.obj
 0001:00014cd6       _wcstol                    10015cd6 f   libucrt:strtox.obj
 0001:00014d02       __mbtowc_l                 10015d02 f   libucrt:mbtowc.obj
 0001:00014dfc       _mbtowc                    10015dfc f   libucrt:mbtowc.obj
 0001:00014e16       _wcsnlen                   10015e16 f   libucrt:strnlen.obj
 0001:00014fcd       ___acrt_update_locale_info 10015fcd f   libucrt:locale_update.obj
 0001:00014ffa       ___acrt_update_multibyte_info 10015ffa f   libucrt:locale_update.obj
 0001:00015027       ?__acrt_fp_classify@@YA?AW4__acrt_fp_class@@ABN@Z 10016027 f i libucrt:cvt.obj
 0001:0001508f       ?__acrt_fp_is_negative@@YA_NABN@Z 1001608f f i libucrt:cvt.obj
 0001:000158ff       ___acrt_fp_format          100168ff f   libucrt:cvt.obj
 0001:00015a49       __fileno                   10016a49 f   libucrt:fileno.obj
 0001:00015a6f       ___acrt_initialize_stdio   10016a6f f   libucrt:_file.obj
 0001:00015b37       ___acrt_uninitialize_stdio 10016b37 f   libucrt:_file.obj
 0001:00015b83       __lock_file                10016b83 f   libucrt:_file.obj
 0001:00015b97       __unlock_file              10016b97 f   libucrt:_file.obj
 0001:00015bab       __get_printf_count_output  10016bab f   libucrt:printf_count_output.obj
 0001:00015bc0       ??$?RV<lambda_e5124f882df8998aaf41531e079ba474>@@AAV<lambda_3e16ef9562a7dcce91392c22ab16ea36>@@V<lambda_e25ca0880e6ef98be67edffd8c599615>@@@?$__crt_seh_guarded_call@X@@QAEX$$QAV<lambda_e5124f882df8998aaf41531e079ba474>@@AAV<lambda_3e16ef9562a7dcce91392c22ab16ea36>@@$$QAV<lambda_e25ca0880e6ef98be67edffd8c599615>@@@Z 10016bc0 f i libucrt:wsetlocale.obj
 0001:00015c09       ??$__acrt_lock_and_call@V<lambda_3e16ef9562a7dcce91392c22ab16ea36>@@@@YAXW4__acrt_lock_id@@$$QAV<lambda_3e16ef9562a7dcce91392c22ab16ea36>@@@Z 10016c09 f i libucrt:wsetlocale.obj
 0001:00015c31       ??$uninitialize@V<lambda_88ce03f932007f29bf8b8056cbaba4f3>@@@?$dual_state_global@PAU__crt_locale_data@@@__crt_state_management@@QAEX$$QAV<lambda_88ce03f932007f29bf8b8056cbaba4f3>@@@Z 10016c31 f i libucrt:wsetlocale.obj
 0001:00015c60       ___acrt_set_locale_changed 10016c60 f   libucrt:wsetlocale.obj
 0001:00015c6b       ___acrt_uninitialize_locale 10016c6b f   libucrt:wsetlocale.obj
 0001:00015dec       ___acrt_initialize_lowio   10016dec f   libucrt:ioinit.obj
 0001:00015e42       ___acrt_uninitialize_lowio 10016e42 f   libucrt:ioinit.obj
 0001:00015e6e       ___acrt_initialize_locks   10016e6e f   libucrt:locks.obj
 0001:00015eaf       ___acrt_lock               10016eaf f   libucrt:locks.obj
 0001:00015ec6       ___acrt_uninitialize_locks 10016ec6 f   libucrt:locks.obj
 0001:00015ef7       ___acrt_unlock             10016ef7 f   libucrt:locks.obj
 0001:00015f0e       ___acrt_get_process_end_policy 10016f0e f   libucrt:win_policies.obj
 0001:000163e5       ___acrt_expand_narrow_argv_wildcards 100173e5 f   libucrt:argv_wildcards.obj
 0001:000163f0       ??$?RV<lambda_ceb1ee4838e85a9d631eb091e2fbe199>@@AAV<lambda_ae742caa10f662c28703da3d2ea5e57e>@@V<lambda_cd08b5d6af4937fe54fc07d0c9bf6b37>@@@?$__crt_seh_guarded_call@X@@QAEX$$QAV<lambda_ceb1ee4838e85a9d631eb091e2fbe199>@@AAV<lambda_ae742caa10f662c28703da3d2ea5e57e>@@$$QAV<lambda_cd08b5d6af4937fe54fc07d0c9bf6b37>@@@Z 100173f0 f i libucrt:mbctype.obj
 0001:00016433       ??$__acrt_lock_and_call@V<lambda_ae742caa10f662c28703da3d2ea5e57e>@@@@YAXW4__acrt_lock_id@@$$QAV<lambda_ae742caa10f662c28703da3d2ea5e57e>@@@Z 10017433 f i libucrt:mbctype.obj
 0001:00016928       ___acrt_initialize_multibyte 10017928 f   libucrt:mbctype.obj
 0001:00016975       ___acrt_update_thread_multibyte_data 10017975 f   libucrt:mbctype.obj
 0001:00016989       __setmbcp_nolock           10017989 f   libucrt:mbctype.obj
 0001:00016c54       __ismbblead                10017c54 f   libucrt:ismbbyte.obj
 0001:00016c6c       ___acrt_initialize_command_line 10017c6c f   libucrt:argv_data.obj
 0001:00016cbc       ___dcrt_get_narrow_environment_from_os 10017cbc f   libucrt:get_environment_from_os.obj
 0001:00016d3f       ___acrt_initialize_heap    10017d3f f   libucrt:heap_handle.obj
 0001:00016d50       ___acrt_uninitialize_heap  10017d50 f   libucrt:heap_handle.obj
 0001:00016d5a       ___acrt_execute_initializers 10017d5a f   libucrt:shared_initialization.obj
 0001:00016ddd       ___acrt_execute_uninitializers 10017ddd f   libucrt:shared_initialization.obj
 0001:00016e2a       ??$?RV<lambda_cbab9ec6f41b0180b23cc171c22676b0>@@AAV<lambda_44731a7d0e6d81c3e6aa82d741081786>@@V<lambda_4b292cb8dd18144e164572427af410ab>@@@?$__crt_seh_guarded_call@P6AXH@Z@@QAEP6AXH@Z$$QAV<lambda_cbab9ec6f41b0180b23cc171c22676b0>@@AAV<lambda_44731a7d0e6d81c3e6aa82d741081786>@@$$QAV<lambda_4b292cb8dd18144e164572427af410ab>@@@Z 10017e2a f i libucrt:signal.obj
 0001:00016e84       ??$__acrt_lock_and_call@V<lambda_44731a7d0e6d81c3e6aa82d741081786>@@@@YAP6AXH@ZW4__acrt_lock_id@@$$QAV<lambda_44731a7d0e6d81c3e6aa82d741081786>@@@Z 10017e84 f i libucrt:signal.obj
 0001:00016f16       ___acrt_get_sigabrt_handler 10017f16 f   libucrt:signal.obj
 0001:00016f2d       ___acrt_initialize_signal_handlers 10017f2d f   libucrt:signal.obj
 0001:00016f68       ___fpecode                 10017f68 f   libucrt:signal.obj
 0001:00016f71       _raise                     10017f71 f   libucrt:signal.obj
 0001:00017179       ___acrt_has_user_matherr   10018179 f   libucrt:matherr.obj
 0001:00017192       ___acrt_initialize_user_matherr 10018192 f   libucrt:matherr.obj
 0001:000171a6       ___acrt_invoke_user_matherr 100181a6 f   libucrt:matherr.obj
 0001:000171ef       ___pctype_func             100181ef f   libucrt:ctype.obj
 0001:00017215       _iswctype                  10018215 f   libucrt:iswctype.obj
 0001:00017274       __isctype_l                10018274 f   libucrt:isctype.obj
 0001:00017346       ___acrt_add_locale_ref     10018346 f   libucrt:locale_refcounting.obj
 0001:000173c3       ___acrt_free_locale        100183c3 f   libucrt:locale_refcounting.obj
 0001:0001750d       ___acrt_locale_add_lc_time_reference 1001850d f   libucrt:locale_refcounting.obj
 0001:00017536       ___acrt_locale_free_lc_time_if_unreferenced 10018536 f   libucrt:locale_refcounting.obj
 0001:00017566       ___acrt_locale_release_lc_time_reference 10018566 f   libucrt:locale_refcounting.obj
 0001:0001758f       ___acrt_release_locale_ref 1001858f f   libucrt:locale_refcounting.obj
 0001:00017610       ___acrt_update_thread_locale_data 10018610 f   libucrt:locale_refcounting.obj
 0001:00017687       __updatetlocinfoEx_nolock  10018687 f   libucrt:locale_refcounting.obj
 0001:000176d7       __query_new_mode           100186d7 f   libucrt:new_mode.obj
 0001:00017799       ___acrt_DownlevelLocaleNameToLCID 10018799 f   libucrt:lcidtoname_downlevel.obj
 0001:000177c5       __isleadbyte_l             100187c5 f i libucrt:_wctype.obj
 0001:00017a1b       ___acrt_LCMapStringA       10018a1b f   libucrt:lcmapstringa.obj
 0001:00017a66       __freea_crt                10018a66 f i libucrt:lcmapstringa.obj
 0001:00017a86       ___acrt_fp_strflt_to_string 10018a86 f   libucrt:_fptostr.obj
 0001:00017b50       ?divide@__crt_strtox@@YA_KAAUbig_integer@1@ABU21@@Z 10018b50 f i libucrt:cfout.obj
 0001:00017ffe       ___acrt_fltout             10018ffe f   libucrt:cfout.obj
 0001:000193f2       __fcloseall                1001a3f2 f   libucrt:closeall.obj
 0001:00019492       ??$?RV<lambda_2866be3712abc81a800a822484c830d8>@@AAV<lambda_39ca0ed439415581b5b15c265174cece>@@V<lambda_2b24c74d71094a6cd0cb82e44167d71b>@@@?$__crt_seh_guarded_call@X@@QAEX$$QAV<lambda_2866be3712abc81a800a822484c830d8>@@AAV<lambda_39ca0ed439415581b5b15c265174cece>@@$$QAV<lambda_2b24c74d71094a6cd0cb82e44167d71b>@@@Z 1001a492 f i libucrt:fflush.obj
 0001:00019513       ??$?RV<lambda_2cc53f568c5a2bb6f192f930a45d44ea>@@AAV<lambda_ab61a845afdef5b7c387490eaf3616ee>@@V<lambda_c2ffc0b7726aa6be21d5f0026187e748>@@@?$__crt_seh_guarded_call@X@@QAEX$$QAV<lambda_2cc53f568c5a2bb6f192f930a45d44ea>@@AAV<lambda_ab61a845afdef5b7c387490eaf3616ee>@@$$QAV<lambda_c2ffc0b7726aa6be21d5f0026187e748>@@@Z 1001a513 f i libucrt:fflush.obj
 0001:000195a6       ??$__acrt_lock_and_call@V<lambda_ab61a845afdef5b7c387490eaf3616ee>@@@@YAXW4__acrt_lock_id@@$$QAV<lambda_ab61a845afdef5b7c387490eaf3616ee>@@@Z 1001a5a6 f i libucrt:fflush.obj
 0001:000195ce       ??$__acrt_lock_stream_and_call@V<lambda_39ca0ed439415581b5b15c265174cece>@@@@YAXQAU_iobuf@@$$QAV<lambda_39ca0ed439415581b5b15c265174cece>@@@Z 1001a5ce f i libucrt:fflush.obj
 0001:0001968a       ___acrt_stdio_flush_nolock 1001a68a f   libucrt:fflush.obj
 0001:000196ed       __fflush_nolock            1001a6ed f   libucrt:fflush.obj
 0001:00019734       __flushall                 1001a734 f   libucrt:fflush.obj
 0001:0001973d       ___acrt_stdio_free_buffer_nolock 1001a73d f   libucrt:_freebuf.obj
 0001:0001977b       __isatty                   1001a77b f   libucrt:isatty.obj
 0001:000197d1       ___acrt_locale_free_monetary 1001a7d1 f   libucrt:initmon.obj
 0001:000198cf       ___acrt_locale_free_numeric 1001a8cf f   libucrt:initnum.obj
 0001:00019974       ___acrt_locale_free_time   1001a974 f   libucrt:inittime.obj
 0001:00019a58       ___acrt_GetStringTypeA     1001aa58 f   libucrt:getstringtypea.obj
 0001:00019b75       ___acrt_lowio_create_handle_array 1001ab75 f   libucrt:osfinfo.obj
 0001:00019bef       ___acrt_lowio_destroy_handle_array 1001abef f   libucrt:osfinfo.obj
 0001:00019c24       ___acrt_lowio_ensure_fh_exists 1001ac24 f   libucrt:osfinfo.obj
 0001:00019cbc       ___acrt_lowio_lock_fh      1001acbc f   libucrt:osfinfo.obj
 0001:00019cdf       ___acrt_lowio_unlock_fh    1001acdf f   libucrt:osfinfo.obj
 0001:00019d02       __free_osfhnd              1001ad02 f   libucrt:osfinfo.obj
 0001:00019d93       __get_osfhandle            1001ad93 f   libucrt:osfinfo.obj
 0001:00019ee0       _qsort                     1001aee0 f   libucrt:qsort.obj
 0001:0001a32b       _strncpy_s                 1001b32b f   libucrt:strncpy_s.obj
 0001:0001a340       _strpbrk                   1001b340 f   libucrt:strpbrk.obj
 0001:0001a380       __mbsdec                   1001b380 f   libucrt:mbsdec.obj
 0001:0001a397       __mbsdec_l                 1001b397 f   libucrt:mbsdec.obj
 0001:0001a433       ___strncnt                 1001b433 f   libucrt:strncnt.obj
 0001:0001a44f       _fegetenv                  1001b44f f   libucrt:fegetenv.obj
 0001:0001a46c       _fesetenv                  1001b46c f   libucrt:fesetenv.obj
 0001:0001a4b5       _feholdexcept              1001b4b5 f   libucrt:feholdexcept.obj
 0001:0001a510       _log10                     1001b510 f   libucrt:log10.obj
 0001:0001a550       __CIlog10                  1001b550 f   libucrt:log10.obj
 0001:0001a58b       __CIlog10_default          1001b58b f   libucrt:log10.obj
 0001:0001a59f       __log10_default            1001b59f     libucrt:log10.obj
 0001:0001a660       _ceil                      1001b660 f   libucrt:ceil_pentium4.obj
 0001:0001a6a0       __ceil_pentium4            1001b6a0 f   libucrt:ceil_pentium4.obj
 0001:0001ad1f       __write                    1001bd1f f   libucrt:write.obj
 0001:0001ae0a       __write_nolock             1001be0a f   libucrt:write.obj
 0001:0001b0a1       __lseeki64_nolock          1001c0a1 f   libucrt:lseek.obj
 0001:0001b0bc       __fclose_nolock            1001c0bc f   libucrt:fclose.obj
 0001:0001b132       _fclose                    1001c132 f   libucrt:fclose.obj
 0001:0001b1b2       ??$?RV<lambda_9e9de3de5fa147e2223d7db92bc10aa6>@@AAV<lambda_38ce7e780aa69e748d6df282ebc68efe>@@V<lambda_8ca6da459f0f6780f1cff60fdc3d00e5>@@@?$__crt_seh_guarded_call@H@@QAEH$$QAV<lambda_9e9de3de5fa147e2223d7db92bc10aa6>@@AAV<lambda_38ce7e780aa69e748d6df282ebc68efe>@@$$QAV<lambda_8ca6da459f0f6780f1cff60fdc3d00e5>@@@Z 1001c1b2 f i libucrt:commit.obj
 0001:0001b24a       ??$__acrt_lowio_lock_fh_and_call@V<lambda_38ce7e780aa69e748d6df282ebc68efe>@@@@YAHH$$QAV<lambda_38ce7e780aa69e748d6df282ebc68efe>@@@Z 1001c24a f i libucrt:commit.obj
 0001:0001b272       __commit                   1001c272 f   libucrt:commit.obj
 0001:0001b2e1       __query_app_type           1001c2e1 f   libucrt:report_runtime_error.obj
 0001:0001b58a       __getfpcontrolword         1001c58a f   libucrt:_fenvutils.obj
 0001:0001b5cd       __getfpstatusword          1001c5cd f   libucrt:_fenvutils.obj
 0001:0001b675       __setfpcontrolword         1001c675 f   libucrt:_fenvutils.obj
 0001:0001b6f5       __setfpstatusword          1001c6f5 f   libucrt:_fenvutils.obj
 0001:0001b775       __clearfp                  1001c775 f   libucrt:ieee87.obj
 0001:0001b853       ___acrt_initialize_sse2    1001c853 f   libucrt:mathfcns.obj
 0001:0001b870       __CIlog10_pentium4         1001c870 f   libucrt:log10_pentium4.obj
 0001:0001b888       __log10_pentium4           1001c888     libucrt:log10_pentium4.obj
 0001:0001bb11       __fFEXP                    1001cb11     libucrt:87tran.obj
 0001:0001bb68       __rtinfpopse               1001cb68     libucrt:87tran.obj
 0001:0001bb6a       __rtinfnpopse              1001cb6a     libucrt:87tran.obj
 0001:0001bb7a       __fFLN                     1001cb7a     libucrt:87tran.obj
 0001:0001bc2f       __rtinfpop                 1001cc2f     libucrt:87tran.obj
 0001:0001bc31       __rtinfnpop                1001cc31     libucrt:87tran.obj
 0001:0001bc4e       __ffexpm1                  1001cc4e     libucrt:87tran.obj
 0001:0001bd00       __trandisp1                1001cd00 f   libucrt:87disp.obj
 0001:0001bd67       __trandisp2                1001cd67 f   libucrt:87disp.obj
 0001:0001bdf3       __rttospopde               1001cdf3     libucrt:87disp.obj
 0001:0001bdf8       __rttospop                 1001cdf8     libucrt:87disp.obj
 0001:0001bdfa       __rtnospop                 1001cdfa     libucrt:87disp.obj
 0001:0001bdfc       __rttosnpop                1001cdfc     libucrt:87disp.obj
 0001:0001bdfd       __rtnospopde               1001cdfd     libucrt:87disp.obj
 0001:0001be04       __rtzeropop                1001ce04     libucrt:87disp.obj
 0001:0001be06       __rtzeronpop               1001ce06     libucrt:87disp.obj
 0001:0001be0b       __rtzerospop               1001ce0b     libucrt:87disp.obj
 0001:0001be18       __rtonepop                 1001ce18     libucrt:87disp.obj
 0001:0001be1a       __rtonenpop                1001ce1a     libucrt:87disp.obj
 0001:0001be1f       __tosnan1                  1001ce1f     libucrt:87disp.obj
 0001:0001be4a       __nosnan2                  1001ce4a     libucrt:87disp.obj
 0001:0001be4c       __tosnan2                  1001ce4c     libucrt:87disp.obj
 0001:0001be74       __nan2                     1001ce74     libucrt:87disp.obj
 0001:0001beb3       __rtindfpop                1001ceb3     libucrt:87disp.obj
 0001:0001beb5       __rtindfnpop               1001ceb5     libucrt:87disp.obj
 0001:0001bec6       __rttosnpopde              1001cec6     libucrt:87disp.obj
 0001:0001bed0       __rtatan2inf               1001ced0     libucrt:87disp.obj
 0001:0001beed       __rtchsifneg               1001ceed     libucrt:87disp.obj
 0001:0001bf00       __twoToTOS                 1001cf00 f   libucrt:common.obj
 0001:0001bf15       __load_CW                  1001cf15 f   libucrt:common.obj
 0001:0001bf2c       __convertTOStoQNaN         1001cf2c f   libucrt:common.obj
 0001:0001bf45       __fload_withFB             1001cf45 f   libucrt:common.obj
 0001:0001bf88       __checkTOS_withFB          1001cf88 f   libucrt:common.obj
 0001:0001bf9e       __fast_exit                1001cf9e f   libucrt:common.obj
 0001:0001bfab       __math_exit                1001cfab f   libucrt:common.obj
 0001:0001bfd5       __check_overflow_exit      1001cfd5 f   libucrt:common.obj
 0001:0001bfe9       __check_range_exit         1001cfe9 f   libucrt:common.obj
 0001:0001c090       __startTwoArgErrorHandling 1001d090 f   libucrt:genexcep.obj
 0001:0001c0a7       __startOneArgErrorHandling 1001d0a7 f   libucrt:genexcep.obj
 0001:0001c0e3       ___libm_error_support      1001d0e3 f   libucrt:libm_error.obj
 0001:0001c2fb       __ceil_default             1001d2fb f   libucrt:ceil.obj
 0001:0001c3b4       __putwch_nolock            1001d3b4 f   libucrt:putwch.obj
 0001:0001c3f9       ??$?RV<lambda_218ce3db14220d0be481dae8ef3383b6>@@AAV<lambda_628dfdc04ba53c8bfc02c9951375f3f5>@@V<lambda_57dc472bd5c9d5f3b2cbca59b8a843ae>@@@?$__crt_seh_guarded_call@H@@QAEH$$QAV<lambda_218ce3db14220d0be481dae8ef3383b6>@@AAV<lambda_628dfdc04ba53c8bfc02c9951375f3f5>@@$$QAV<lambda_57dc472bd5c9d5f3b2cbca59b8a843ae>@@@Z 1001d3f9 f i libucrt:close.obj
 0001:0001c47b       ??$__acrt_lowio_lock_fh_and_call@V<lambda_628dfdc04ba53c8bfc02c9951375f3f5>@@@@YAHH$$QAV<lambda_628dfdc04ba53c8bfc02c9951375f3f5>@@@Z 1001d47b f i libucrt:close.obj
 0001:0001c4a3       __close                    1001d4a3 f   libucrt:close.obj
 0001:0001c522       __close_nolock             1001d522 f   libucrt:close.obj
 0001:0001c5be       ?__acrt_stdio_free_stream@@YAXV__crt_stdio_stream@@@Z 1001d5be f   libucrt:stream.obj
 0001:0001c600       ___ascii_strnicmp          1001d600 f   libucrt:_strnicm.obj
 0001:0001c661       __clrfp                    1001d661 f   libucrt:fpctrl.obj
 0001:0001c674       __ctrlfp                   1001d674 f   libucrt:fpctrl.obj
 0001:0001c6a0       __set_statfp               1001d6a0 f   libucrt:fpctrl.obj
 0001:0001c6fb       __statfp                   1001d6fb f   libucrt:fpctrl.obj
 0001:0001c70d       __d_inttype                1001d70d f   libucrt:powhlp.obj
 0001:0001c777       __powhlp                   1001d777 f   libucrt:powhlp.obj
 0001:0001c8a2       __87except                 1001d8a2 f   libucrt:87except.obj
 0001:0001c9ad       __frnd                     1001d9ad f   libucrt:frnd.obj
 0001:0001c9c3       __errcode                  1001d9c3 f   libucrt:fpexcept.obj
 0001:0001c9f7       __except1                  1001d9f7 f   libucrt:fpexcept.obj
 0001:0001cac5       __handle_exc               1001dac5 f   libucrt:fpexcept.obj
 0001:0001cca5       __raise_exc                1001dca5 f   libucrt:fpexcept.obj
 0001:0001ccc8       __raise_exc_ex             1001dcc8 f   libucrt:fpexcept.obj
 0001:0001cfb9       __set_errno_from_matherr   1001dfb9 f   libucrt:fpexcept.obj
 0001:0001cfe8       __umatherr                 1001dfe8 f   libucrt:fpexcept.obj
 0001:0001d08a       __decomp                   1001e08a f   libucrt:util.obj
 0001:0001d15e       __set_exp                  1001e15e f   libucrt:util.obj
 0001:0001d18d       __sptype                   1001e18d f   libucrt:util.obj
 0001:0001d1eb       ___dcrt_lowio_initialize_console_output 1001e1eb f   libucrt:initcon.obj
 0001:0001d20a       ___dcrt_terminate_console_output 1001e20a f   libucrt:initcon.obj
 0001:0001d221       __fpclass                  1001e221 f   libucrt:ieeemisc.obj
 0001:0001d2c5       _IsProcessorFeaturePresent@4 1001e2c5 f   kernel32:KERNEL32.dll
 0001:0001d2d0       __FindPESection            1001e2d0 f   LIBCMT:pesect.obj
 0001:0001d320       __IsNonwritableInCurrentImage 1001e320 f   LIBCMT:pesect.obj
 0001:0001d3e0       __ValidateImageBase        1001e3e0 f   LIBCMT:pesect.obj
 0001:0001d413       __EH_prolog3_catch         1001e413 f   LIBCMT:ehprolg3.obj
 0001:0001d450       __aulldvrm                 1001e450 f   LIBCMT:ulldvrm.obj
 0001:0001d4f0       __allmul                   1001e4f0 f   LIBCMT:llmul.obj
 0001:0001d530       __alldvrm                  1001e530 f   LIBCMT:lldvrm.obj
 0001:0001d610       __aullshr                  1001e610 f   LIBCMT:ullshr.obj
 0001:0001d630       __allshl                   1001e630 f   LIBCMT:llshl.obj
 0001:0001d650       __ftol2_sse                1001e650 f   LIBCMT:_ftol2_.obj
 0001:0001d659       __ftol2_pentium4           1001e659 f   LIBCMT:_ftol2_.obj
 0001:0001d66c       __ftol2_sse_excpt          1001e66c f   LIBCMT:_ftol2_.obj
 0001:0001d690       __ftol2                    1001e690 f   LIBCMT:_ftol2_.obj
 0001:0001d710       _strrchr                   1001e710 f   libvcruntime:strrchr.obj
 0001:0001d850       _strchr                    1001e850 f   libvcruntime:strchr.obj
 0001:0001d8be       ___from_strstr_to_strchr   1001e8be     libvcruntime:strchr.obj
 0002:00000000       __imp__RegQueryValueExW@24 1001f000     advapi32:ADVAPI32.dll
 0002:00000004       __imp__RegSetValueExW@24   1001f004     advapi32:ADVAPI32.dll
 0002:00000008       __imp__RegQueryInfoKeyW@48 1001f008     advapi32:ADVAPI32.dll
 0002:0000000c       __imp__RegOpenKeyExW@20    1001f00c     advapi32:ADVAPI32.dll
 0002:00000010       __imp__RegEnumKeyExW@32    1001f010     advapi32:ADVAPI32.dll
 0002:00000014       __imp__RegDeleteValueW@8   1001f014     advapi32:ADVAPI32.dll
 0002:00000018       __imp__RegDeleteKeyW@8     1001f018     advapi32:ADVAPI32.dll
 0002:0000001c       __imp__RegCreateKeyExW@36  1001f01c     advapi32:ADVAPI32.dll
 0002:00000020       __imp__RegCloseKey@4       1001f020     advapi32:ADVAPI32.dll
 0002:00000024       \177ADVAPI32_NULL_THUNK_DATA 1001f024     advapi32:ADVAPI32.dll
 0002:00000028       __imp__GetObjectW@12       1001f028     gdi32:GDI32.dll
 0002:0000002c       __imp__SelectObject@8      1001f02c     gdi32:GDI32.dll
 0002:00000030       __imp__DeleteObject@4      1001f030     gdi32:GDI32.dll
 0002:00000034       __imp__CreateCompatibleDC@4 1001f034     gdi32:GDI32.dll
 0002:00000038       __imp__BitBlt@36           1001f038     gdi32:GDI32.dll
 0002:0000003c       __imp__SetWindowOrgEx@16   1001f03c     gdi32:GDI32.dll
 0002:00000040       __imp__SetWindowExtEx@16   1001f040     gdi32:GDI32.dll
 0002:00000044       __imp__SetViewportOrgEx@16 1001f044     gdi32:GDI32.dll
 0002:00000048       __imp__LPtoDP@12           1001f048     gdi32:GDI32.dll
 0002:0000004c       __imp__SetMapMode@8        1001f04c     gdi32:GDI32.dll
 0002:00000050       __imp__SaveDC@4            1001f050     gdi32:GDI32.dll
 0002:00000054       __imp__RestoreDC@8         1001f054     gdi32:GDI32.dll
 0002:00000058       __imp__GetDeviceCaps@8     1001f058     gdi32:GDI32.dll
 0002:0000005c       __imp__DeleteMetaFile@4    1001f05c     gdi32:GDI32.dll
 0002:00000060       __imp__DeleteDC@4          1001f060     gdi32:GDI32.dll
 0002:00000064       __imp__CreateRectRgnIndirect@4 1001f064     gdi32:GDI32.dll
 0002:00000068       __imp__CreateMetaFileW@4   1001f068     gdi32:GDI32.dll
 0002:0000006c       __imp__CreateDCW@16        1001f06c     gdi32:GDI32.dll
 0002:00000070       __imp__CloseMetaFile@4     1001f070     gdi32:GDI32.dll
 0002:00000074       \177GDI32_NULL_THUNK_DATA  1001f074     gdi32:GDI32.dll
 0002:00000078       __imp__CloseHandle@4       1001f078     kernel32:KERNEL32.dll
 0002:0000007c       __imp__SetEvent@4          1001f07c     kernel32:KERNEL32.dll
 0002:00000080       __imp__CreateMutexW@12     1001f080     kernel32:KERNEL32.dll
 0002:00000084       __imp__CreateEventW@16     1001f084     kernel32:KERNEL32.dll
 0002:00000088       __imp__GetCurrentProcessId@0 1001f088     kernel32:KERNEL32.dll
 0002:0000008c       __imp__WriteConsoleW@20    1001f08c     kernel32:KERNEL32.dll
 0002:00000090       __imp__FlushFileBuffers@4  1001f090     kernel32:KERNEL32.dll
 0002:00000094       __imp__SetFilePointerEx@20 1001f094     kernel32:KERNEL32.dll
 0002:00000098       __imp__GetConsoleMode@8    1001f098     kernel32:KERNEL32.dll
 0002:0000009c       __imp__GetConsoleCP@0      1001f09c     kernel32:KERNEL32.dll
 0002:000000a0       __imp__WriteFile@20        1001f0a0     kernel32:KERNEL32.dll
 0002:000000a4       __imp__SetStdHandle@8      1001f0a4     kernel32:KERNEL32.dll
 0002:000000a8       __imp__GetStringTypeW@16   1001f0a8     kernel32:KERNEL32.dll
 0002:000000ac       __imp__FreeEnvironmentStringsW@4 1001f0ac     kernel32:KERNEL32.dll
 0002:000000b0       __imp__GetEnvironmentStringsW@0 1001f0b0     kernel32:KERNEL32.dll
 0002:000000b4       __imp__GetCommandLineW@0   1001f0b4     kernel32:KERNEL32.dll
 0002:000000b8       __imp__lstrcmpiW@8         1001f0b8     kernel32:KERNEL32.dll
 0002:000000bc       __imp__GetCPInfo@8         1001f0bc     kernel32:KERNEL32.dll
 0002:000000c0       __imp__GetOEMCP@0          1001f0c0     kernel32:KERNEL32.dll
 0002:000000c4       __imp__IsValidCodePage@4   1001f0c4     kernel32:KERNEL32.dll
 0002:000000c8       __imp__FindNextFileA@8     1001f0c8     kernel32:KERNEL32.dll
 0002:000000cc       __imp__FindFirstFileExA@24 1001f0cc     kernel32:KERNEL32.dll
 0002:000000d0       __imp__FindClose@4         1001f0d0     kernel32:KERNEL32.dll
 0002:000000d4       __imp__GetFileType@4       1001f0d4     kernel32:KERNEL32.dll
 0002:000000d8       __imp__GetStdHandle@4      1001f0d8     kernel32:KERNEL32.dll
 0002:000000dc       __imp__GetACP@0            1001f0dc     kernel32:KERNEL32.dll
 0002:000000e0       __imp__LCMapStringW@24     1001f0e0     kernel32:KERNEL32.dll
 0002:000000e4       __imp__HeapReAlloc@16      1001f0e4     kernel32:KERNEL32.dll
 0002:000000e8       __imp__HeapSize@12         1001f0e8     kernel32:KERNEL32.dll
 0002:000000ec       __imp__MulDiv@12           1001f0ec     kernel32:KERNEL32.dll
 0002:000000f0       __imp__GlobalUnlock@4      1001f0f0     kernel32:KERNEL32.dll
 0002:000000f4       __imp__GlobalLock@4        1001f0f4     kernel32:KERNEL32.dll
 0002:000000f8       __imp__GlobalAlloc@8       1001f0f8     kernel32:KERNEL32.dll
 0002:000000fc       __imp__FindResourceW@12    1001f0fc     kernel32:KERNEL32.dll
 0002:00000100       __imp__SizeofResource@8    1001f100     kernel32:KERNEL32.dll
 0002:00000104       __imp__LoadResource@8      1001f104     kernel32:KERNEL32.dll
 0002:00000108       __imp__LoadLibraryExW@12   1001f108     kernel32:KERNEL32.dll
 0002:0000010c       __imp__GetProcAddress@8    1001f10c     kernel32:KERNEL32.dll
 0002:00000110       __imp__GetModuleHandleW@4  1001f110     kernel32:KERNEL32.dll
 0002:00000114       __imp__GetModuleFileNameW@12 1001f114     kernel32:KERNEL32.dll
 0002:00000118       __imp__FreeLibrary@4       1001f118     kernel32:KERNEL32.dll
 0002:0000011c       __imp__DisableThreadLibraryCalls@4 1001f11c     kernel32:KERNEL32.dll
 0002:00000120       __imp__GetCurrentThreadId@0 1001f120     kernel32:KERNEL32.dll
 0002:00000124       __imp__Sleep@4             1001f124     kernel32:KERNEL32.dll
 0002:00000128       __imp__WaitForSingleObject@8 1001f128     kernel32:KERNEL32.dll
 0002:0000012c       __imp__ReleaseMutex@4      1001f12c     kernel32:KERNEL32.dll
 0002:00000130       __imp__ResetEvent@4        1001f130     kernel32:KERNEL32.dll
 0002:00000134       __imp__EnterCriticalSection@4 1001f134     kernel32:KERNEL32.dll
 0002:00000138       __imp__LeaveCriticalSection@4 1001f138     kernel32:KERNEL32.dll
 0002:0000013c       __imp__SetLastError@4      1001f13c     kernel32:KERNEL32.dll
 0002:00000140       __imp__EncodePointer@4     1001f140     kernel32:KERNEL32.dll
 0002:00000144       __imp__DeleteCriticalSection@4 1001f144     kernel32:KERNEL32.dll
 0002:00000148       __imp__InitializeCriticalSectionAndSpinCount@8 1001f148     kernel32:KERNEL32.dll
 0002:0000014c       __imp__GetLastError@0      1001f14c     kernel32:KERNEL32.dll
 0002:00000150       __imp__RaiseException@16   1001f150     kernel32:KERNEL32.dll
 0002:00000154       __imp__DecodePointer@4     1001f154     kernel32:KERNEL32.dll
 0002:00000158       __imp__WideCharToMultiByte@32 1001f158     kernel32:KERNEL32.dll
 0002:0000015c       __imp__GetCommandLineA@0   1001f15c     kernel32:KERNEL32.dll
 0002:00000160       __imp__MultiByteToWideChar@24 1001f160     kernel32:KERNEL32.dll
 0002:00000164       __imp__CreateFileW@28      1001f164     kernel32:KERNEL32.dll
 0002:00000168       __imp__GetModuleFileNameA@12 1001f168     kernel32:KERNEL32.dll
 0002:0000016c       __imp__GetModuleHandleExW@12 1001f16c     kernel32:KERNEL32.dll
 0002:00000170       __imp__ExitProcess@4       1001f170     kernel32:KERNEL32.dll
 0002:00000174       __imp__VirtualQuery@12     1001f174     kernel32:KERNEL32.dll
 0002:00000178       __imp__VirtualProtect@16   1001f178     kernel32:KERNEL32.dll
 0002:0000017c       __imp__GetSystemInfo@4     1001f17c     kernel32:KERNEL32.dll
 0002:00000180       __imp__TlsFree@4           1001f180     kernel32:KERNEL32.dll
 0002:00000184       __imp__TlsSetValue@8       1001f184     kernel32:KERNEL32.dll
 0002:00000188       __imp__TlsGetValue@4       1001f188     kernel32:KERNEL32.dll
 0002:0000018c       __imp__TlsAlloc@0          1001f18c     kernel32:KERNEL32.dll
 0002:00000190       __imp__InterlockedFlushSList@4 1001f190     kernel32:KERNEL32.dll
 0002:00000194       __imp__RtlUnwind@16        1001f194     kernel32:KERNEL32.dll
 0002:00000198       __imp__LoadLibraryExA@12   1001f198     kernel32:KERNEL32.dll
 0002:0000019c       __imp__VirtualFree@12      1001f19c     kernel32:KERNEL32.dll
 0002:000001a0       __imp__VirtualAlloc@16     1001f1a0     kernel32:KERNEL32.dll
 0002:000001a4       __imp__FlushInstructionCache@12 1001f1a4     kernel32:KERNEL32.dll
 0002:000001a8       __imp__InterlockedPushEntrySList@8 1001f1a8     kernel32:KERNEL32.dll
 0002:000001ac       __imp__InterlockedPopEntrySList@4 1001f1ac     kernel32:KERNEL32.dll
 0002:000001b0       __imp__GetProcessHeap@0    1001f1b0     kernel32:KERNEL32.dll
 0002:000001b4       __imp__HeapFree@12         1001f1b4     kernel32:KERNEL32.dll
 0002:000001b8       __imp__HeapAlloc@12        1001f1b8     kernel32:KERNEL32.dll
 0002:000001bc       __imp__OutputDebugStringW@4 1001f1bc     kernel32:KERNEL32.dll
 0002:000001c0       __imp__InitializeSListHead@4 1001f1c0     kernel32:KERNEL32.dll
 0002:000001c4       __imp__GetSystemTimeAsFileTime@4 1001f1c4     kernel32:KERNEL32.dll
 0002:000001c8       __imp__QueryPerformanceCounter@4 1001f1c8     kernel32:KERNEL32.dll
 0002:000001cc       __imp__GetStartupInfoW@4   1001f1cc     kernel32:KERNEL32.dll
 0002:000001d0       __imp__IsDebuggerPresent@0 1001f1d0     kernel32:KERNEL32.dll
 0002:000001d4       __imp__IsProcessorFeaturePresent@4 1001f1d4     kernel32:KERNEL32.dll
 0002:000001d8       __imp__TerminateProcess@8  1001f1d8     kernel32:KERNEL32.dll
 0002:000001dc       __imp__GetCurrentProcess@0 1001f1dc     kernel32:KERNEL32.dll
 0002:000001e0       __imp__WaitForSingleObjectEx@12 1001f1e0     kernel32:KERNEL32.dll
 0002:000001e4       __imp__UnhandledExceptionFilter@4 1001f1e4     kernel32:KERNEL32.dll
 0002:000001e8       __imp__SetUnhandledExceptionFilter@4 1001f1e8     kernel32:KERNEL32.dll
 0002:000001ec       \177KERNEL32_NULL_THUNK_DATA 1001f1ec     kernel32:KERNEL32.dll
 0002:000001f0       __imp__OleCreatePropertyFrame@44 1001f1f0     oleaut32:OLEAUT32.dll
 0002:000001f4       __imp__UnRegisterTypeLib@20 1001f1f4     oleaut32:OLEAUT32.dll
 0002:000001f8       __imp__RegisterTypeLib@12  1001f1f8     oleaut32:OLEAUT32.dll
 0002:000001fc       __imp__LoadRegTypeLib@20   1001f1fc     oleaut32:OLEAUT32.dll
 0002:00000200       __imp__LoadTypeLib@8       1001f200     oleaut32:OLEAUT32.dll
 0002:00000204       __imp__VarUI4FromStr@16    1001f204     oleaut32:OLEAUT32.dll
 0002:00000208       __imp__VariantInit@4       1001f208     oleaut32:OLEAUT32.dll
 0002:0000020c       __imp__SysAllocStringByteLen@8 1001f20c     oleaut32:OLEAUT32.dll
 0002:00000210       __imp__SysStringByteLen@4  1001f210     oleaut32:OLEAUT32.dll
 0002:00000214       __imp__VariantChangeType@16 1001f214     oleaut32:OLEAUT32.dll
 0002:00000218       __imp__VariantClear@4      1001f218     oleaut32:OLEAUT32.dll
 0002:0000021c       __imp__SysStringLen@4      1001f21c     oleaut32:OLEAUT32.dll
 0002:00000220       __imp__SysFreeString@4     1001f220     oleaut32:OLEAUT32.dll
 0002:00000224       __imp__SysAllocStringLen@8 1001f224     oleaut32:OLEAUT32.dll
 0002:00000228       __imp__SysAllocString@4    1001f228     oleaut32:OLEAUT32.dll
 0002:0000022c       \177OLEAUT32_NULL_THUNK_DATA 1001f22c     oleaut32:OLEAUT32.dll
 0002:00000230       __imp__UnregisterClassW@8  1001f230     user32:USER32.dll
 0002:00000234       __imp__PostMessageW@16     1001f234     user32:USER32.dll
 0002:00000238       __imp__DefWindowProcW@16   1001f238     user32:USER32.dll
 0002:0000023c       __imp__CallWindowProcW@20  1001f23c     user32:USER32.dll
 0002:00000240       __imp__RegisterClassExW@4  1001f240     user32:USER32.dll
 0002:00000244       __imp__GetClassInfoExW@12  1001f244     user32:USER32.dll
 0002:00000248       __imp__CreateWindowExW@48  1001f248     user32:USER32.dll
 0002:0000024c       __imp__IsWindow@4          1001f24c     user32:USER32.dll
 0002:00000250       __imp__IsChild@8           1001f250     user32:USER32.dll
 0002:00000254       __imp__DestroyWindow@4     1001f254     user32:USER32.dll
 0002:00000258       __imp__ShowWindow@8        1001f258     user32:USER32.dll
 0002:0000025c       __imp__SetWindowPos@28     1001f25c     user32:USER32.dll
 0002:00000260       __imp__CharNextW@4         1001f260     user32:USER32.dll
 0002:00000264       __imp__SetFocus@4          1001f264     user32:USER32.dll
 0002:00000268       __imp__LoadBitmapW@8       1001f268     user32:USER32.dll
 0002:0000026c       __imp__RegisterClassW@4    1001f26c     user32:USER32.dll
 0002:00000270       __imp__PeekMessageW@20     1001f270     user32:USER32.dll
 0002:00000274       __imp__LoadCursorW@8       1001f274     user32:USER32.dll
 0002:00000278       __imp__GetParent@4         1001f278     user32:USER32.dll
 0002:0000027c       __imp__SetWindowLongW@12   1001f27c     user32:USER32.dll
 0002:00000280       __imp__GetWindowLongW@8    1001f280     user32:USER32.dll
 0002:00000284       __imp__PtInRect@12         1001f284     user32:USER32.dll
 0002:00000288       __imp__EqualRect@8         1001f288     user32:USER32.dll
 0002:0000028c       __imp__OffsetRect@12       1001f28c     user32:USER32.dll
 0002:00000290       __imp__UnionRect@12        1001f290     user32:USER32.dll
 0002:00000294       __imp__IntersectRect@12    1001f294     user32:USER32.dll
 0002:00000298       __imp__GetClientRect@8     1001f298     user32:USER32.dll
 0002:0000029c       __imp__InvalidateRect@12   1001f29c     user32:USER32.dll
 0002:000002a0       __imp__SetWindowRgn@12     1001f2a0     user32:USER32.dll
 0002:000002a4       __imp__EndPaint@8          1001f2a4     user32:USER32.dll
 0002:000002a8       __imp__BeginPaint@8        1001f2a8     user32:USER32.dll
 0002:000002ac       __imp__ReleaseDC@8         1001f2ac     user32:USER32.dll
 0002:000002b0       __imp__GetDC@4             1001f2b0     user32:USER32.dll
 0002:000002b4       __imp__GetKeyState@4       1001f2b4     user32:USER32.dll
 0002:000002b8       __imp__GetFocus@0          1001f2b8     user32:USER32.dll
 0002:000002bc       \177USER32_NULL_THUNK_DATA 1001f2bc     user32:USER32.dll
 0002:000002c0       __imp__CoCreateInstance@20 1001f2c0     ole32:ole32.dll
 0002:000002c4       __imp__CoTaskMemAlloc@4    1001f2c4     ole32:ole32.dll
 0002:000002c8       __imp__CoTaskMemRealloc@8  1001f2c8     ole32:ole32.dll
 0002:000002cc       __imp__CoTaskMemFree@4     1001f2cc     ole32:ole32.dll
 0002:000002d0       __imp__ReadClassStm@8      1001f2d0     ole32:ole32.dll
 0002:000002d4       __imp__WriteClassStm@8     1001f2d4     ole32:ole32.dll
 0002:000002d8       __imp__CreateDataAdviseHolder@4 1001f2d8     ole32:ole32.dll
 0002:000002dc       __imp__OleSaveToStream@8   1001f2dc     ole32:ole32.dll
 0002:000002e0       __imp__CreateOleAdviseHolder@4 1001f2e0     ole32:ole32.dll
 0002:000002e4       __imp__OleRegGetUserType@12 1001f2e4     ole32:ole32.dll
 0002:000002e8       __imp__OleRegGetMiscStatus@12 1001f2e8     ole32:ole32.dll
 0002:000002ec       __imp__OleRegEnumVerbs@8   1001f2ec     ole32:ole32.dll
 0002:000002f0       __imp__CLSIDFromProgID@8   1001f2f0     ole32:ole32.dll
 0002:000002f4       __imp__StringFromGUID2@12  1001f2f4     ole32:ole32.dll
 0002:000002f8       \177ole32_NULL_THUNK_DATA  1001f2f8     ole32:ole32.dll
 0002:000002fc       ___guard_check_icall_fptr  1001f2fc     LIBCMT:guard_support.obj
 0002:00000300       ___xc_a                    1001f300     LIBCMT:initializers.obj
 0002:00000318       ___xc_z                    1001f318     LIBCMT:initializers.obj
 0002:0000031c       ___xi_a                    1001f31c     LIBCMT:initializers.obj
 0002:00000324       ___acrt_stdio_initializer  1001f324     libucrt:stdio_initializer.obj
 0002:00000328       ___acrt_multibyte_initializer 1001f328     libucrt:multibyte_initializer.obj
 0002:0000032c       ___acrt_tran_sse2_initializer 1001f32c     libucrt:sse2_initializer.obj
 0002:00000330       ___xi_z                    1001f330     LIBCMT:initializers.obj
 0002:00000334       ___xl_a                    1001f334     LIBCMT:tlssup.obj
 0002:00000338       ___xl_z                    1001f338     LIBCMT:tlssup.obj
 0002:0000033c       ___xp_a                    1001f33c     LIBCMT:initializers.obj
 0002:00000340       ___acrt_locale_terminator  1001f340     libucrt:locale_initializer.obj
 0002:00000344       ___dcrt_console_output_terminator 1001f344     libucrt:console_output_initializer.obj
 0002:00000348       ___acrt_stdio_terminator   1001f348     libucrt:stdio_initializer.obj
 0002:0000034c       ___xp_z                    1001f34c     LIBCMT:initializers.obj
 0002:00000350       ___xt_a                    1001f350     LIBCMT:initializers.obj
 0002:00000354       ___xt_z                    1001f354     LIBCMT:initializers.obj
 0002:00000360       ??_C@_11LOCGONAA@@         1001f360     OposVariant.obj
 0002:00000364       ??_C@_13HADIAKP@?$AAS@     1001f364     OposVariant.obj
 0002:00000368       ??_C@_13LHMFKAAD@?$AAM@    1001f368     OposVariant.obj
 0002:0000036c       ??_C@_13MKMNOPIJ@?$AAD@    1001f36c     OposVariant.obj
 0002:00000370       ??_C@_13OPKGLAFF@?$AAB@    1001f370     OposVariant.obj
 0002:00000374       ??_C@_17LLMMEOJD@?$AAV?$AAa?$AAl@ 1001f374     OposVariant.obj
 0002:0000037c       ??_C@_1BI@JFAIJMHL@?$AAF?$AAo?$AAr?$AAc?$AAe?$AAR?$AAe?$AAm?$AAo?$AAv?$AAe@ 1001f37c     OposVariant.obj
 0002:00000394       ??_C@_1BC@GCKHIPE@?$AAN?$AAo?$AAR?$AAe?$AAm?$AAo?$AAv?$AAe@ 1001f394     OposVariant.obj
 0002:000003a8       ??_C@_1O@JDLOHAN@?$AAD?$AAe?$AAl?$AAe?$AAt?$AAe@ 1001f3a8     OposVariant.obj
 0002:000003b8       __GUID_00000000_0000_0000_c000_000000000046 1001f3b8     ElectronicJournal.obj
 0002:000003c8       __GUID_00020400_0000_0000_c000_000000000046 1001f3c8     ElectronicJournal.obj
 0002:000003d8       ??_C@_1M@KANJNLFF@?$AAC?$AAL?$AAS?$AAI?$AAD@ 1001f3d8     ElectronicJournal.obj
 0002:000003e4       ??_C@_1M@EJNEECMJ@?$AAA?$AAp?$AAp?$AAI?$AAD@ 1001f3e4     ElectronicJournal.obj
 0002:000003f0       ?_entries@?1??_GetEntries@COPOSElectronicJournal@@SGPBU_ATL_INTMAP_ENTRY@ATL@@XZ@4QBU34@B 1001f3f0     ElectronicJournal.obj
 0002:00000510       ?rgszNeverDelete@CRegParser@ATL@@1QBQB_WB 1001f510     ElectronicJournal.obj
 0002:00000540       __GUID_cf51ed10_62fe_11cf_bf86_00a0c9034836 1001f540     ElectronicJournal.obj
 0002:00000550       __GUID_0000010a_0000_0000_c000_000000000046 1001f550     ElectronicJournal.obj
 0002:00000560       __GUID_b196b283_bab4_101a_b69c_00aa00341d07 1001f560     ElectronicJournal.obj
 0002:00000570       __GUID_cb5bdc81_93c1_11cf_8f20_00805f2cd064 1001f570     ElectronicJournal.obj
 0002:00000580       ?pPropMap@?1??GetPropertyMap@COPOSElectronicJournal@@SAPBUATL_PROPMAP_ENTRY@ATL@@XZ@4QBU34@B 1001f580     ElectronicJournal.obj
 0002:000005ec       ??_C@_17DGDADEHL@?$AA_?$AAc?$AAx@ 1001f5ec     ElectronicJournal.obj
 0002:000005f4       ??_C@_17IOIMFDBO@?$AA_?$AAc?$AAy@ 1001f5f4     ElectronicJournal.obj
 0002:000005fc       ??_7CRegObject@ATL@@6B@    1001f5fc     ElectronicJournal.obj
 0002:00000614       __GUID_922eada0_3424_11cf_b670_00aa004cd6d8 1001f614     ElectronicJournal.obj
 0002:00000624       __GUID_9c2cad80_3424_11cf_b670_00aa004cd6d8 1001f624     ElectronicJournal.obj
 0002:00000634       __GUID_00000119_0000_0000_c000_000000000046 1001f634     ElectronicJournal.obj
 0002:00000644       __GUID_b196b289_bab4_101a_b69c_00aa00341d07 1001f644     ElectronicJournal.obj
 0002:00000654       __GUID_b196b286_bab4_101a_b69c_00aa00341d07 1001f654     ElectronicJournal.obj
 0002:00000664       __GUID_00000117_0000_0000_c000_000000000046 1001f664     ElectronicJournal.obj
 0002:00000674       ??_C@_1CE@PGFMOFKI@?$AAS?$AAt?$AAa?$AAt?$AAu?$AAs?$AAU?$AAp?$AAd?$AAa?$AAt?$AAe?$AAE?$AAv?$AAe@ 1001f674     ElectronicJournal.obj
 0002:00000698       ??_C@_1CI@HLBJDONE@?$AAO?$AAu?$AAt?$AAp?$AAu?$AAt?$AAC?$AAo?$AAm?$AAp?$AAl?$AAe?$AAt?$AAe?$AAE@ 1001f698     ElectronicJournal.obj
 0002:000006c0       ??_C@_1BG@LODEBHDD@?$AAE?$AAr?$AAr?$AAo?$AAr?$AAE?$AAv?$AAe?$AAn?$AAt@ 1001f6c0     ElectronicJournal.obj
 0002:000006d8       ??_C@_1BM@CBGEBBBJ@?$AAD?$AAi?$AAr?$AAe?$AAc?$AAt?$AAI?$AAO?$AAE?$AAv?$AAe?$AAn?$AAt@ 1001f6d8     ElectronicJournal.obj
 0002:000006f4       ??_C@_1BE@IEBMACEM@?$AAD?$AAa?$AAt?$AAa?$AAE?$AAv?$AAe?$AAn?$AAt@ 1001f6f4     ElectronicJournal.obj
 0002:00000708       ??_C@_1CK@OEKPKBNA@?$AAC?$AAo?$AAm?$AAp?$AAo?$AAn?$AAe?$AAn?$AAt?$AA?5?$AAC?$AAa?$AAt?$AAe?$AAg@ 1001f708     ElectronicJournal.obj
 0002:00000734       ??_C@_1BC@NKMMNMGL@?$AAF?$AAi?$AAl?$AAe?$AAT?$AAy?$AAp?$AAe@ 1001f734     ElectronicJournal.obj
 0002:00000748       ??_C@_1BE@EKPAFMCP@?$AAI?$AAn?$AAt?$AAe?$AAr?$AAf?$AAa?$AAc?$AAe@ 1001f748     ElectronicJournal.obj
 0002:0000075c       ??_C@_1BC@MAICEHGI@?$AAH?$AAa?$AAr?$AAd?$AAw?$AAa?$AAr?$AAe@ 1001f75c     ElectronicJournal.obj
 0002:00000770       ??_C@_19HLLLM@?$AAM?$AAi?$AAm?$AAe@ 1001f770     ElectronicJournal.obj
 0002:0000077c       ??_C@_17OMAOINJK@?$AAS?$AAA?$AAM@ 1001f77c     ElectronicJournal.obj
 0002:00000784       ??_C@_1BC@IBECJAAI@?$AAS?$AAE?$AAC?$AAU?$AAR?$AAI?$AAT?$AAY@ 1001f784     ElectronicJournal.obj
 0002:00000798       ??_C@_1O@GBFINDKL@?$AAS?$AAY?$AAS?$AAT?$AAE?$AAM@ 1001f798     ElectronicJournal.obj
 0002:000007a8       ??_C@_1BC@EAHCMADO@?$AAS?$AAo?$AAf?$AAt?$AAw?$AAa?$AAr?$AAe@ 1001f7a8     ElectronicJournal.obj
 0002:000007bc       ??_C@_1BA@JIHHIEDE@?$AAT?$AAy?$AAp?$AAe?$AAL?$AAi?$AAb@ 1001f7bc     ElectronicJournal.obj
 0002:00000840       ??_C@_19NCHLBIN@?$AAH?$AAK?$AAC?$AAR@ 1001f840     ElectronicJournal.obj
 0002:0000084c       ??_C@_19JAPAIJDE@?$AAH?$AAK?$AAC?$AAU@ 1001f84c     ElectronicJournal.obj
 0002:00000858       ??_C@_19PEALEEJB@?$AAH?$AAK?$AAL?$AAM@ 1001f858     ElectronicJournal.obj
 0002:00000864       ??_C@_17PJOJPMPB@?$AAH?$AAK?$AAU@ 1001f864     ElectronicJournal.obj
 0002:0000086c       ??_C@_19PNBHMJPL@?$AAH?$AAK?$AAP?$AAD@ 1001f86c     ElectronicJournal.obj
 0002:00000878       ??_C@_19GFFAIJHG@?$AAH?$AAK?$AAD?$AAD@ 1001f878     ElectronicJournal.obj
 0002:00000884       ??_C@_19OFICIBHH@?$AAH?$AAK?$AAC?$AAC@ 1001f884     ElectronicJournal.obj
 0002:00000890       ??_C@_1CE@PACHPJFI@?$AAH?$AAK?$AAE?$AAY?$AA_?$AAC?$AAL?$AAA?$AAS?$AAS?$AAE?$AAS?$AA_?$AAR?$AAO@ 1001f890     ElectronicJournal.obj
 0002:000008b4       ??_C@_1CE@HLHNCBPM@?$AAH?$AAK?$AAE?$AAY?$AA_?$AAC?$AAU?$AAR?$AAR?$AAE?$AAN?$AAT?$AA_?$AAU?$AAS@ 1001f8b4     ElectronicJournal.obj
 0002:000008d8       ??_C@_1CG@GFBEANJL@?$AAH?$AAK?$AAE?$AAY?$AA_?$AAL?$AAO?$AAC?$AAA?$AAL?$AA_?$AAM?$AAA?$AAC?$AAH@ 1001f8d8     ElectronicJournal.obj
 0002:00000900       ??_C@_1BG@BGODANIO@?$AAH?$AAK?$AAE?$AAY?$AA_?$AAU?$AAS?$AAE?$AAR?$AAS@ 1001f900     ElectronicJournal.obj
 0002:00000918       ??_C@_1CM@KHNNAOIC@?$AAH?$AAK?$AAE?$AAY?$AA_?$AAP?$AAE?$AAR?$AAF?$AAO?$AAR?$AAM?$AAA?$AAN?$AAC@ 1001f918     ElectronicJournal.obj
 0002:00000944       ??_C@_1BM@HAGMMHIA@?$AAH?$AAK?$AAE?$AAY?$AA_?$AAD?$AAY?$AAN?$AA_?$AAD?$AAA?$AAT?$AAA@ 1001f944     ElectronicJournal.obj
 0002:00000960       ??_C@_1CI@BBJOACGG@?$AAH?$AAK?$AAE?$AAY?$AA_?$AAC?$AAU?$AAR?$AAR?$AAE?$AAN?$AAT?$AA_?$AAC?$AAO@ 1001f960     ElectronicJournal.obj
 0002:00000988       ??_C@_1BC@ENICKDH@?$AAC?$AAo?$AAn?$AAt?$AAe?$AAn?$AAt?$AAs@ 1001f988     ElectronicJournal.obj
 0002:0000099c       ??_7?$CComObject@V?$CComEnum@UIEnumConnectionPoints@@$1?_GUID_b196b285_bab4_101a_b69c_00aa00341d07@@3U__s_GUID@@BPAUIConnectionPoint@@V?$_CopyInterface@UIConnectionPoint@@@ATL@@VCComSingleThreadModel@6@@ATL@@@ATL@@6B@ 1001f99c     ElectronicJournal.obj
 0002:000009c0       ??_C@_1EA@NHKLICFA@?$AAH?$AAK?$AAC?$AAU?$AA?$AN?$AA?6?$AA?$HL?$AA?7?$AAS?$AAo?$AAf?$AAt?$AAw?$AAa?$AAr@ 1001f9c0     ElectronicJournal.obj
 0002:00000a00       ??_C@_1BE@LJOLIMEM@?$AA?$AN?$AA?6?$AA?7?$AA?$HN?$AA?$AN?$AA?6?$AA?$HN?$AA?$AN?$AA?6@ 1001fa00     ElectronicJournal.obj
 0002:00000a14       __GUID_00000109_0000_0000_c000_000000000046 1001fa14     ElectronicJournal.obj
 0002:00000a24       __GUID_7fd52380_4e07_101b_ae2d_08002b2ec713 1001fa24     ElectronicJournal.obj
 0002:00000a34       ??_C@_1O@MNLDABAF@?$AAM?$AAo?$AAd?$AAu?$AAl?$AAe@ 1001fa34     ElectronicJournal.obj
 0002:00000a44       ??_C@_1BG@JBACFMF@?$AAM?$AAo?$AAd?$AAu?$AAl?$AAe?$AA_?$AAR?$AAa?$AAw@ 1001fa44     ElectronicJournal.obj
 0002:00000a5c       ??_C@_1BC@KAILKFFG@?$AAR?$AAE?$AAG?$AAI?$AAS?$AAT?$AAR?$AAY@ 1001fa5c     ElectronicJournal.obj
 0002:00000a70       __GUID_0000010e_0000_0000_c000_000000000046 1001fa70     ElectronicJournal.obj
 0002:00000a80       __GUID_b196b288_bab4_101a_b69c_00aa00341d07 1001fa80     ElectronicJournal.obj
 0002:00000a90       __GUID_00000113_0000_0000_c000_000000000046 1001fa90     ElectronicJournal.obj
 0002:00000aa0       __GUID_1c2056cc_5ef4_101b_8bc8_00aa003e3b29 1001faa0     ElectronicJournal.obj
 0002:00000ab0       __GUID_00000112_0000_0000_c000_000000000046 1001fab0     ElectronicJournal.obj
 0002:00000ac0       __GUID_3af24292_0c96_11ce_a0cf_00aa00600ab8 1001fac0     ElectronicJournal.obj
 0002:00000ad0       __GUID_00000127_0000_0000_c000_000000000046 1001fad0     ElectronicJournal.obj
 0002:00000ae0       __GUID_0000010d_0000_0000_c000_000000000046 1001fae0     ElectronicJournal.obj
 0002:00000af0       ??_7?$CComObjectCached@VCComClassFactory@ATL@@@ATL@@6B@ 1001faf0     ElectronicJournal.obj
 0002:00000b08       __GUID_b196b284_bab4_101a_b69c_00aa00341d07 1001fb08     ElectronicJournal.obj
 0002:00000b18       ??_C@_1M@PPPPCDEP@?$AAA?$AAP?$AAP?$AAI?$AAD@ 1001fb18     ElectronicJournal.obj
 0002:00000b24       ??_7?$CComContainedObject@VCOPOSElectronicJournal@@@ATL@@6B?$IDispatchImpl@UIOPOSElectronicJournal@@$1?IID_IOPOSElectronicJournal@@3U_GUID@@B$1?LIBID_OposElectronicJournal_CCO@@3U3@B$00$0A@VCComTypeInfoHolder@ATL@@@1@@ 1001fb24     ElectronicJournal.obj
 0002:00000cc4       ??_7?$CComContainedObject@VCOPOSElectronicJournal@@@ATL@@6BCComControlBase@1@@ 1001fcc4     ElectronicJournal.obj
 0002:00000cd8       ??_7?$CComContainedObject@VCOPOSElectronicJournal@@@ATL@@6B?$CWindowImpl@VCOPOSElectronicJournal@@VCWindow@ATL@@V?$CWinTraits@$0FGAAAAAA@$0A@@3@@1@@ 1001fcd8     ElectronicJournal.obj
 0002:00000ce8       ??_7?$CComContainedObject@VCOPOSElectronicJournal@@@ATL@@6B?$IPersistStreamInitImpl@VCOPOSElectronicJournal@@@1@@ 1001fce8     ElectronicJournal.obj
 0002:00000d0c       ??_7?$CComContainedObject@VCOPOSElectronicJournal@@@ATL@@6B?$IOleControlImpl@VCOPOSElectronicJournal@@@1@@ 1001fd0c     ElectronicJournal.obj
 0002:00000d28       ??_7?$CComContainedObject@VCOPOSElectronicJournal@@@ATL@@6B?$IOleObjectImpl@VCOPOSElectronicJournal@@@1@@ 1001fd28     ElectronicJournal.obj
 0002:00000d88       ??_7?$CComContainedObject@VCOPOSElectronicJournal@@@ATL@@6B?$IOleInPlaceActiveObjectImpl@VCOPOSElectronicJournal@@@1@@ 1001fd88     ElectronicJournal.obj
 0002:00000db0       ??_7?$CComContainedObject@VCOPOSElectronicJournal@@@ATL@@6B?$IViewObjectExImpl@VCOPOSElectronicJournal@@@1@@ 1001fdb0     ElectronicJournal.obj
 0002:00000dec       ??_7?$CComContainedObject@VCOPOSElectronicJournal@@@ATL@@6B?$IOleInPlaceObjectWindowlessImpl@VCOPOSElectronicJournal@@@1@@ 1001fdec     ElectronicJournal.obj
 0002:00000e18       ??_7?$CComContainedObject@VCOPOSElectronicJournal@@@ATL@@6B?$IConnectionPointContainerImpl@VCOPOSElectronicJournal@@@1@@ 1001fe18     ElectronicJournal.obj
 0002:00000e2c       ??_7?$CComContainedObject@VCOPOSElectronicJournal@@@ATL@@6B?$IPersistStorageImpl@VCOPOSElectronicJournal@@@1@@ 1001fe2c     ElectronicJournal.obj
 0002:00000e54       ??_7?$CComContainedObject@VCOPOSElectronicJournal@@@ATL@@6B?$ISpecifyPropertyPagesImpl@VCOPOSElectronicJournal@@@1@@ 1001fe54     ElectronicJournal.obj
 0002:00000e64       ??_7?$CComContainedObject@VCOPOSElectronicJournal@@@ATL@@6B?$IQuickActivateImpl@VCOPOSElectronicJournal@@@1@@ 1001fe64     ElectronicJournal.obj
 0002:00000e7c       ??_7?$CComContainedObject@VCOPOSElectronicJournal@@@ATL@@6B?$IDataObjectImpl@VCOPOSElectronicJournal@@@1@@ 1001fe7c     ElectronicJournal.obj
 0002:00000eac       ??_7?$CComContainedObject@VCOPOSElectronicJournal@@@ATL@@6B?$IProvideClassInfo2Impl@$1?CLSID_OPOSElectronicJournal@@3U_GUID@@B$1?DIID__IOPOSElectronicJournalEvents@@3U2@B$1?LIBID_OposElectronicJournal_CCO@@3U2@B$00$0A@VCComTypeInfoHolder@ATL@@@1@@ 1001feac     ElectronicJournal.obj
 0002:00000ec0       ??_7?$CComContainedObject@VCOPOSElectronicJournal@@@ATL@@6B?$IObjectSafetyImpl@VCOPOSElectronicJournal@@$02@1@@ 1001fec0     ElectronicJournal.obj
 0002:00000ed8       ??_7?$CComContainedObject@VCOPOSElectronicJournal@@@ATL@@6B?$IPropertyNotifySinkCP@VCOPOSElectronicJournal@@VCComDynamicUnkArray@ATL@@@1@@ 1001fed8     ElectronicJournal.obj
 0002:00000ef8       ??_7?$CComContainedObject@VCOPOSElectronicJournal@@@ATL@@6B?$CProxy_IOPOSEvents@VCOPOSElectronicJournal@@@@@ 1001fef8     ElectronicJournal.obj
 0002:00000f18       ??_7?$CComAggObject@VCOPOSElectronicJournal@@@ATL@@6B@ 1001ff18     ElectronicJournal.obj
 0002:00000f28       ??_7?$CComObject@VCOPOSElectronicJournal@@@ATL@@6B?$IDispatchImpl@UIOPOSElectronicJournal@@$1?IID_IOPOSElectronicJournal@@3U_GUID@@B$1?LIBID_OposElectronicJournal_CCO@@3U3@B$00$0A@VCComTypeInfoHolder@ATL@@@1@@ 1001ff28     ElectronicJournal.obj
 0002:000010c8       ??_7?$CComObject@VCOPOSElectronicJournal@@@ATL@@6BCComControlBase@1@@ 100200c8     ElectronicJournal.obj
 0002:000010dc       ??_7?$CComObject@VCOPOSElectronicJournal@@@ATL@@6B?$CWindowImpl@VCOPOSElectronicJournal@@VCWindow@ATL@@V?$CWinTraits@$0FGAAAAAA@$0A@@3@@1@@ 100200dc     ElectronicJournal.obj
 0002:000010ec       ??_7?$CComObject@VCOPOSElectronicJournal@@@ATL@@6B?$IPersistStreamInitImpl@VCOPOSElectronicJournal@@@1@@ 100200ec     ElectronicJournal.obj
 0002:00001110       ??_7?$CComObject@VCOPOSElectronicJournal@@@ATL@@6B?$IOleControlImpl@VCOPOSElectronicJournal@@@1@@ 10020110     ElectronicJournal.obj
 0002:0000112c       ??_7?$CComObject@VCOPOSElectronicJournal@@@ATL@@6B?$IOleObjectImpl@VCOPOSElectronicJournal@@@1@@ 1002012c     ElectronicJournal.obj
 0002:0000118c       ??_7?$CComObject@VCOPOSElectronicJournal@@@ATL@@6B?$IOleInPlaceActiveObjectImpl@VCOPOSElectronicJournal@@@1@@ 1002018c     ElectronicJournal.obj
 0002:000011b4       ??_7?$CComObject@VCOPOSElectronicJournal@@@ATL@@6B?$IViewObjectExImpl@VCOPOSElectronicJournal@@@1@@ 100201b4     ElectronicJournal.obj
 0002:000011f0       ??_7?$CComObject@VCOPOSElectronicJournal@@@ATL@@6B?$IOleInPlaceObjectWindowlessImpl@VCOPOSElectronicJournal@@@1@@ 100201f0     ElectronicJournal.obj
 0002:0000121c       ??_7?$CComObject@VCOPOSElectronicJournal@@@ATL@@6B?$IConnectionPointContainerImpl@VCOPOSElectronicJournal@@@1@@ 1002021c     ElectronicJournal.obj
 0002:00001230       ??_7?$CComObject@VCOPOSElectronicJournal@@@ATL@@6B?$IPersistStorageImpl@VCOPOSElectronicJournal@@@1@@ 10020230     ElectronicJournal.obj
 0002:00001258       ??_7?$CComObject@VCOPOSElectronicJournal@@@ATL@@6B?$ISpecifyPropertyPagesImpl@VCOPOSElectronicJournal@@@1@@ 10020258     ElectronicJournal.obj
 0002:00001268       ??_7?$CComObject@VCOPOSElectronicJournal@@@ATL@@6B?$IQuickActivateImpl@VCOPOSElectronicJournal@@@1@@ 10020268     ElectronicJournal.obj
 0002:00001280       ??_7?$CComObject@VCOPOSElectronicJournal@@@ATL@@6B?$IDataObjectImpl@VCOPOSElectronicJournal@@@1@@ 10020280     ElectronicJournal.obj
 0002:000012b0       ??_7?$CComObject@VCOPOSElectronicJournal@@@ATL@@6B?$IProvideClassInfo2Impl@$1?CLSID_OPOSElectronicJournal@@3U_GUID@@B$1?DIID__IOPOSElectronicJournalEvents@@3U2@B$1?LIBID_OposElectronicJournal_CCO@@3U2@B$00$0A@VCComTypeInfoHolder@ATL@@@1@@ 100202b0     ElectronicJournal.obj
 0002:000012c4       ??_7?$CComObject@VCOPOSElectronicJournal@@@ATL@@6B?$IObjectSafetyImpl@VCOPOSElectronicJournal@@$02@1@@ 100202c4     ElectronicJournal.obj
 0002:000012dc       ??_7?$CComObject@VCOPOSElectronicJournal@@@ATL@@6B?$IPropertyNotifySinkCP@VCOPOSElectronicJournal@@VCComDynamicUnkArray@ATL@@@1@@ 100202dc     ElectronicJournal.obj
 0002:000012fc       ??_7?$CComObject@VCOPOSElectronicJournal@@@ATL@@6B?$CProxy_IOPOSEvents@VCOPOSElectronicJournal@@@@@ 100202fc     ElectronicJournal.obj
 0002:0000131c       ??_C@_1O@GBFKGNEO@?$AAA?$AAT?$AAL?$AA?3?$AA?$CF?$AAp@ 1002031c     ElectronicJournal.obj
 0002:0000132c       ??_C@_1BA@PICGEGJB@?$AAD?$AAI?$AAS?$AAP?$AAL?$AAA?$AAY@ 1002032c     ElectronicJournal.obj
 0002:0000133c       __GUID_9bfbbc02_eff1_101a_84ed_00aa00341d07 1002033c     ElectronicJournal.obj
 0002:0000134c       ?_entries@?1??_GetEntries@?$CComEnum@UIEnumConnectionPoints@@$1?_GUID_b196b285_bab4_101a_b69c_00aa00341d07@@3U__s_GUID@@BPAUIConnectionPoint@@V?$_CopyInterface@UIConnectionPoint@@@ATL@@VCComSingleThreadModel@6@@ATL@@SGPBU_ATL_INTMAP_ENTRY@3@XZ@4QBU43@B 1002034c     ElectronicJournal.obj
 0002:00001364       __GUID_00020412_0000_0000_c000_000000000046 10020364     ElectronicJournal.obj
 0002:00001374       __GUID_00020401_0000_0000_c000_000000000046 10020374     ElectronicJournal.obj
 0002:00001384       ??_7CComClassFactory@ATL@@6B@ 10020384     ElectronicJournal.obj
 0002:0000139c       ?_entries@?1??_GetEntries@CComClassFactory@ATL@@SGPBU_ATL_INTMAP_ENTRY@3@XZ@4QBU43@B 1002039c     ElectronicJournal.obj
 0002:000013b4       __GUID_00000001_0000_0000_c000_000000000046 100203b4     ElectronicJournal.obj
 0002:000013c4       __GUID_55980ba0_35aa_11cf_b671_00aa004cd6d8 100203c4     ElectronicJournal.obj
 0002:000013d4       __GUID_b196b28b_bab4_101a_b69c_00aa00341d07 100203d4     ElectronicJournal.obj
 0002:000013e4       ??_7?$CComObject@V?$CComEnum@UIEnumConnections@@$1?_GUID_b196b287_bab4_101a_b69c_00aa00341d07@@3U__s_GUID@@BUtagCONNECTDATA@@V?$_Copy@UtagCONNECTDATA@@@ATL@@VCComSingleThreadModel@6@@ATL@@@ATL@@6B@ 100203e4     ElectronicJournal.obj
 0002:00001404       ?_entries@?1??_GetEntries@?$CComEnum@UIEnumConnections@@$1?_GUID_b196b287_bab4_101a_b69c_00aa00341d07@@3U__s_GUID@@BUtagCONNECTDATA@@V?$_Copy@UtagCONNECTDATA@@@ATL@@VCComSingleThreadModel@6@@ATL@@SGPBU_ATL_INTMAP_ENTRY@3@XZ@4QBU43@B 10020404     ElectronicJournal.obj
 0002:0000141c       ??_C@_1BK@BIGILECK@?$AAA?$AAd?$AAv?$AAa?$AAp?$AAi?$AA3?$AA2?$AA?4?$AAd?$AAl?$AAl@ 1002041c     ElectronicJournal.obj
 0002:00001438       ??_C@_0BI@MNCFCPFK@RegCreateKeyTransactedW@ 10020438     ElectronicJournal.obj
 0002:00001450       __GUID_b196b287_bab4_101a_b69c_00aa00341d07 10020450     ElectronicJournal.obj
 0002:00001460       __GUID_b196b285_bab4_101a_b69c_00aa00341d07 10020460     ElectronicJournal.obj
 0002:00001470       __GUID_a6bc3ac0_dbaa_11ce_9de3_00aa004bb851 10020470     ElectronicJournal.obj
 0002:00001480       _IID_IOPOSElectronicJournal_1_10 10020480     ElectronicJournal.obj
 0002:00001490       __GUID_0000010c_0000_0000_c000_000000000046 10020490     ElectronicJournal.obj
 0002:000014a0       __GUID_00000146_0000_0000_c000_000000000046 100204a0     ElectronicJournal.obj
 0002:000014b0       _IID_IOPOSElectronicJournal 100204b0     ElectronicJournal.obj
 0002:000014c0       _LIBID_OposElectronicJournal_CCO 100204c0     ElectronicJournal.obj
 0002:000014d0       _DIID__IOPOSElectronicJournalEvents 100204d0     ElectronicJournal.obj
 0002:000014e0       _CLSID_OPOSElectronicJournal 100204e0     ElectronicJournal.obj
 0002:000014f0       __GUID_00000114_0000_0000_c000_000000000046 100204f0     ElectronicJournal.obj
 0002:00001500       ??_7CComModule@ATL@@6B@    10020500     ElectronicJournal.obj
 0002:00001528       ??_C@_0BG@EKFFMJIO@RegOpenKeyTransactedW@ 10020528     ElectronicJournal.obj
 0002:00001540       ??_C@_0BI@HAKLOOGP@RegDeleteKeyTransactedW@ 10020540     ElectronicJournal.obj
 0002:00001558       ??_C@_19ILOCMLCJ@?$AA?4?$AAt?$AAl?$AAb@ 10020558     ElectronicJournal.obj
 0002:00001564       __GUID_0002e012_0000_0000_c000_000000000046 10020564     ElectronicJournal.obj
 0002:00001574       ??_C@_1O@FHBGLCIO@?$AAC?$AAL?$AAS?$AAI?$AAD?$AA?2@ 10020574     ElectronicJournal.obj
 0002:00001584       ??_C@_1CK@IFBKBFAA@?$AA?2?$AAR?$AAe?$AAq?$AAu?$AAi?$AAr?$AAe?$AAd?$AA?5?$AAC?$AAa?$AAt?$AAe?$AAg@ 10020584     ElectronicJournal.obj
 0002:000015b0       ??_C@_1DA@BIHALFED@?$AA?2?$AAI?$AAm?$AAp?$AAl?$AAe?$AAm?$AAe?$AAn?$AAt?$AAe?$AAd?$AA?5?$AAC?$AAa@ 100205b0     ElectronicJournal.obj
 0002:000015e0       ??_C@_1BK@EDKOLFBJ@?$AAO?$AAL?$AAE?$AAA?$AAU?$AAT?$AA3?$AA2?$AA?4?$AAD?$AAL?$AAL@ 100205e0     ElectronicJournal.obj
 0002:000015fc       ??_C@_0BJ@CNLFOMHB@UnRegisterTypeLibForUser@ 100205fc     ElectronicJournal.obj
 0002:00001618       ??_C@_0BH@LBOMMKPJ@RegisterTypeLibForUser@ 10020618     ElectronicJournal.obj
 0002:00001630       ??_C@_0P@MMNMMLGK@COFreezeEvents@ 10020630     ElectronicJournalImpl.obj
 0002:00001640       ??_C@_0BC@OGCGGIMP@GetPropertyNumber@ 10020640     ElectronicJournalImpl.obj
 0002:00001654       ??_C@_0BC@MDCNODNB@SetPropertyNumber@ 10020654     ElectronicJournalImpl.obj
 0002:00001668       ??_C@_0BC@CFCCMIMD@GetPropertyString@ 10020668     ElectronicJournalImpl.obj
 0002:0000167c       ??_C@_0BC@CJEDNN@SetPropertyString@ 1002067c     ElectronicJournalImpl.obj
 0002:00001690       ??_C@_0M@LNPKKKDA@OpenService@ 10020690     ElectronicJournalImpl.obj
 0002:0000169c       ??_C@_0M@PCMCHHMH@CheckHealth@ 1002069c     ElectronicJournalImpl.obj
 0002:000016a8       ??_C@_0M@JGMIDNEK@ClaimDevice@ 100206a8     ElectronicJournalImpl.obj
 0002:000016b4       ??_C@_0L@BNEIFEJC@ClearInput@ 100206b4     ElectronicJournalImpl.obj
 0002:000016c0       ??_C@_0M@JMBCPNGJ@ClearOutput@ 100206c0     ElectronicJournalImpl.obj
 0002:000016cc       ??_C@_0N@DDFIIBMP@CloseService@ 100206cc     ElectronicJournalImpl.obj
 0002:000016dc       ??_C@_08EEIHICPC@DirectIO@ 100206dc     ElectronicJournalImpl.obj
 0002:000016e8       ??_C@_0O@BCPMENMJ@ReleaseDevice@ 100206e8     ElectronicJournalImpl.obj
 0002:000016f8       ??_C@_0BA@GFABKEEE@ResetStatistics@ 100206f8     ElectronicJournalImpl.obj
 0002:00001708       ??_C@_0BD@DPALHJGC@RetrieveStatistics@ 10020708     ElectronicJournalImpl.obj
 0002:0000171c       ??_C@_0BB@KOHIKNFC@UpdateStatistics@ 1002071c     ElectronicJournalImpl.obj
 0002:00001730       ??_C@_0BH@PBKBNMGB@CompareFirmwareVersion@ 10020730     ElectronicJournalImpl.obj
 0002:00001748       ??_C@_0P@FBPDPIPA@UpdateFirmware@ 10020748     ElectronicJournalImpl.obj
 0002:00001758       ??_C@_0BD@PFECBCCO@GetMediumFreeSpace@ 10020758     ElectronicJournalImpl.obj
 0002:0000176c       ??_C@_0O@KINCGENF@GetMediumSize@ 1002076c     ElectronicJournalImpl.obj
 0002:0000177c       ??_C@_09OCHHJMKK@AddMarker@ 1002077c     ElectronicJournalImpl.obj
 0002:00001788       ??_C@_0BD@FPEIPLFC@CancelPrintContent@ 10020788     ElectronicJournalImpl.obj
 0002:0000179c       ??_C@_0BD@DAIBNPKO@CancelQueryContent@ 1002079c     ElectronicJournalImpl.obj
 0002:000017b0       ??_C@_0M@DALEHAMG@EraseMedium@ 100207b0     ElectronicJournalImpl.obj
 0002:000017bc       ??_C@_0BB@LBJHJKJA@InitializeMedium@ 100207bc     ElectronicJournalImpl.obj
 0002:000017d0       ??_C@_0N@JJCKBDAO@PrintContent@ 100207d0     ElectronicJournalImpl.obj
 0002:000017e0       ??_C@_0BB@NANNDFBE@PrintContentFile@ 100207e0     ElectronicJournalImpl.obj
 0002:000017f4       ??_C@_0N@PGODDHPC@QueryContent@ 100207f4     ElectronicJournalImpl.obj
 0002:00001804       ??_C@_0BD@EBMGMJNE@ResumePrintContent@ 10020804     ElectronicJournalImpl.obj
 0002:00001818       ??_C@_0BD@COAPONCI@ResumeQueryContent@ 10020818     ElectronicJournalImpl.obj
 0002:0000182c       ??_C@_0BG@LJLAKGMB@RetrieveCurrentMarker@ 1002082c     ElectronicJournalImpl.obj
 0002:00001844       ??_C@_0P@GJMACLNL@RetrieveMarker@ 10020844     ElectronicJournalImpl.obj
 0002:00001854       ??_C@_0BJ@ELLMKGFB@RetrieveMarkerByDateTime@ 10020854     ElectronicJournalImpl.obj
 0002:00001870       ??_C@_0BI@MAMPNAIK@RetrieveMarkersDateTime@ 10020870     ElectronicJournalImpl.obj
 0002:00001888       ??_C@_0BE@JLCGCOBI@SuspendPrintContent@ 10020888     ElectronicJournalImpl.obj
 0002:0000189c       ??_C@_0BE@PEOPAKOE@SuspendQueryContent@ 1002089c     ElectronicJournalImpl.obj
 0002:000018b0       ??_7?$CProxy_IOPOSEvents@VCOPOSElectronicJournal@@@@6B@ 100208b0     ElectronicJournalImpl.obj
 0002:000018d0       ??_C@_1BA@IFHENID@?$AA?$FL?$AAE?$AAr?$AAr?$AAo?$AAr?$AA?$FN@ 100208d0     ElectronicJournalImpl.obj
 0002:000018e0       ??_C@_0DE@NJCAGLCG@SOFTWARE?2OLEforRetail?2ServiceOP@ 100208e0     ElectronicJournalImpl.obj
 0002:00001914       ??_C@_1M@IAIJHCCH@?$AAC?$AAl?$AAo?$AAs?$AAe@ 10020914     ElectronicJournalImpl.obj
 0002:00001920       ??_C@_1M@PCPKGJAH@?$AAC?$AAl?$AAa?$AAi?$AAm@ 10020920     ElectronicJournalImpl.obj
 0002:0000192c       ??_C@_1BA@NDFKIOCP@?$AAR?$AAe?$AAl?$AAe?$AAa?$AAs?$AAe@ 1002092c     ElectronicJournalImpl.obj
 0002:0000193c       ??_C@_0BC@EPNMIABE@ElectronicJournal@ 1002093c     ElectronicJournalImpl.obj
 0002:00001950       ??_C@_1BM@IJMNMBPK@?$AAG?$AAe?$AAt?$AAO?$AAp?$AAe?$AAn?$AAR?$AAe?$AAs?$AAu?$AAl?$AAt@ 10020950     ElectronicJournalImpl.obj
 0002:0000196c       _GUID_NULL                 1002096c     uuid:cguid_i.obj
 0002:0000197c       _CLSID_StdGlobalInterfaceTable 1002097c     uuid:cguid_i.obj
 0002:0000198c       _IID_IDispatch             1002098c     uuid:oaidl_i.obj
 0002:0000199c       _IID_IPropertyNotifySink   1002099c     uuid:ocidl_i.obj
 0002:000019ac       _CLSID_StdComponentCategoriesMgr 100209ac     uuid:ieguids.obj
 0002:000019bc       _IID_IUnknown              100209bc     uuid:unknwn_i.obj
 0002:000019d0       ??_C@_1EC@JIJBPKFM@?$AAa?$AAp?$AAi?$AA?9?$AAm?$AAs?$AA?9?$AAw?$AAi?$AAn?$AA?9?$AAc?$AAo?$AAr?$AAe@ 100209d0     LIBCMT:thread_safe_statics.obj
 0002:00001a14       ??_C@_1BK@MGMFAEKH@?$AAk?$AAe?$AAr?$AAn?$AAe?$AAl?$AA3?$AA2?$AA?4?$AAd?$AAl?$AAl@ 10020a14     LIBCMT:thread_safe_statics.obj
 0002:00001a30       ??_C@_0BM@HLJJNPAH@InitializeConditionVariable@ 10020a30     LIBCMT:thread_safe_statics.obj
 0002:00001a4c       ??_C@_0BJ@JEBJOJFJ@SleepConditionVariableCS@ 10020a4c     LIBCMT:thread_safe_statics.obj
 0002:00001a68       ??_C@_0BJ@PGPPEPCC@WakeAllConditionVariable@ 10020a68     LIBCMT:thread_safe_statics.obj
 0002:00001a81       ?nothrow@std@@3Unothrow_t@1@B 10020a81     LIBCMT:std_nothrow.obj
 0002:00001a8c       __pRawDllMain              10020a8c     LIBCMT:dll_dllmain.obj
 0002:00001a8c       __pDefaultRawDllMain       10020a8c     LIBCMT:dll_dllmain.obj
 0002:00001a94       ??_7exception@std@@6B@     10020a94     LIBCMT:throw_bad_alloc.obj
 0002:00001a9c       ??_C@_0BC@EOODALEL@Unknown?5exception@ 10020a9c     LIBCMT:throw_bad_alloc.obj
 0002:00001ab4       ??_7bad_alloc@std@@6B@     10020ab4     LIBCMT:throw_bad_alloc.obj
 0002:00001abc       ??_C@_0P@GHFPNOJB@bad?5allocation@ 10020abc     LIBCMT:throw_bad_alloc.obj
 0002:00001ad0       ??_7bad_array_new_length@std@@6B@ 10020ad0     LIBCMT:throw_bad_alloc.obj
 0002:00001ad8       ??_C@_0BF@KINCDENJ@bad?5array?5new?5length@ 10020ad8     LIBCMT:throw_bad_alloc.obj
 0002:00001af4       ??_7type_info@@6B@         10020af4     LIBCMT:std_type_info_static.obj
 0002:00001af8       _GUID_ATLVer110            10020af8     atls:atlbase.obj
 0002:00001b08       ??_C@_1IC@ONKHOIDK@?$AAE?$AAR?$AAR?$AAO?$AAR?$AA?5?$AA?3?$AA?5?$AAU?$AAn?$AAa?$AAb?$AAl?$AAe?$AA?5@ 10020b08     atls:atlbase.obj
 0002:00001b8c       ??_C@_0N@FJEPLCIH@atlthunk?4dll@ 10020b8c     atls:atlthunk.obj
 0002:00001b9c       ??_C@_0BG@GAKFHCBM@AtlThunk_AllocateData@ 10020b9c     atls:atlthunk.obj
 0002:00001bb4       ??_C@_0BC@JKONFIAH@AtlThunk_InitData@ 10020bb4     atls:atlthunk.obj
 0002:00001bc8       ??_C@_0BE@IAOEELAK@AtlThunk_DataToCode@ 10020bc8     atls:atlthunk.obj
 0002:00001bdc       ??_C@_0BC@GBGKAIPI@AtlThunk_FreeData@ 10020bdc     atls:atlthunk.obj
 0002:00001c1c       ??_C@_1DM@KHCHBNEB@?$AAa?$AAp?$AAi?$AA?9?$AAm?$AAs?$AA?9?$AAw?$AAi?$AAn?$AA?9?$AAc?$AAo?$AAr?$AAe@ 10020c1c     libvcruntime:winapi_downlevel.obj
 0002:00001c58       ??_C@_1DK@LPPGFMPP@?$AAa?$AAp?$AAi?$AA?9?$AAm?$AAs?$AA?9?$AAw?$AAi?$AAn?$AA?9?$AAc?$AAo?$AAr?$AAe@ 10020c58     libvcruntime:winapi_downlevel.obj
 0002:00001c94       ??_C@_1BC@GDMECMAK@?$AAk?$AAe?$AAr?$AAn?$AAe?$AAl?$AA3?$AA2@ 10020c94     libvcruntime:winapi_downlevel.obj
 0002:00001ca8       ??_C@_1BA@PFFKHIOG@?$AAa?$AAp?$AAi?$AA?9?$AAm?$AAs?$AA?9@ 10020ca8     libvcruntime:winapi_downlevel.obj
 0002:00001cb8       ??_C@_1BA@IAIFMGEF@?$AAe?$AAx?$AAt?$AA?9?$AAm?$AAs?$AA?9@ 10020cb8     libvcruntime:winapi_downlevel.obj
 0002:00001cd0       ??_C@_08KNHFBNJ@FlsAlloc@  10020cd0     libvcruntime:winapi_downlevel.obj
 0002:00001ce4       ??_C@_07PEJMOBNF@FlsFree@  10020ce4     libvcruntime:winapi_downlevel.obj
 0002:00001cf4       ??_C@_0M@GDNOONDI@FlsGetValue@ 10020cf4     libvcruntime:winapi_downlevel.obj
 0002:00001d08       ??_C@_0M@JCPCPOEF@FlsSetValue@ 10020d08     libvcruntime:winapi_downlevel.obj
 0002:00001d1c       ??_C@_0BM@HCFOFFN@InitializeCriticalSectionEx@ 10020d1c     libvcruntime:winapi_downlevel.obj
 0002:00001d3c       ??_7bad_exception@std@@6B@ 10020d3c     libvcruntime:frame.obj
 0002:00001d44       ??_C@_0O@DPKOEFFH@bad?5exception@ 10020d44     libvcruntime:frame.obj
 0002:00001ef4       ??_C@_08EHJDFFNH@__based?$CI@ 10020ef4     libvcruntime:undname.obj
 0002:00001f00       ??_C@_07KOLFKCDI@__cdecl@  10020f00     libvcruntime:undname.obj
 0002:00001f08       ??_C@_08GHMPAG@__pascal@   10020f08     libvcruntime:undname.obj
 0002:00001f14       ??_C@_09IFJBGAPI@__stdcall@ 10020f14     libvcruntime:undname.obj
 0002:00001f20       ??_C@_0L@NPHFGOKO@__thiscall@ 10020f20     libvcruntime:undname.obj
 0002:00001f2c       ??_C@_0L@JMKHOMEK@__fastcall@ 10020f2c     libvcruntime:undname.obj
 0002:00001f38       ??_C@_0N@BCKKPABJ@__vectorcall@ 10020f38     libvcruntime:undname.obj
 0002:00001f48       ??_C@_09HIJEGCPM@__clrcall@ 10020f48     libvcruntime:undname.obj
 0002:00001f54       ??_C@_06GHPCKEAG@__eabi@   10020f54     libvcruntime:undname.obj
 0002:00001f5c       ??_C@_09IOPIDJLG@__swift_1@ 10020f5c     libvcruntime:undname.obj
 0002:00001f68       ??_C@_09KFNFGKHF@__swift_2@ 10020f68     libvcruntime:undname.obj
 0002:00001f74       ??_C@_07JOMMBBKO@__ptr64@  10020f74     libvcruntime:undname.obj
 0002:00001f7c       ??_C@_0L@PILCLIHE@__restrict@ 10020f7c     libvcruntime:undname.obj
 0002:00001f88       ??_C@_0M@GFIIJFMG@__unaligned@ 10020f88     libvcruntime:undname.obj
 0002:00001f94       ??_C@_09DHDLOLLB@restrict?$CI@ 10020f94     libvcruntime:undname.obj
 0002:00001f9e       ??_C@_00CNPNBAHC@@         10020f9e     libvcruntime:undname.obj
 0002:00001fa0       ??_C@_04NIHEBCM@?5new@     10020fa0     libvcruntime:undname.obj
 0002:00001fa8       ??_C@_07FPCDHGMM@?5delete@ 10020fa8     libvcruntime:undname.obj
 0002:00001fb0       ??_C@_01NEMOKFLO@?$DN@     10020fb0     libvcruntime:undname.obj
 0002:00001fb4       ??_C@_02GPIOPFAK@?$DO?$DO@ 10020fb4     libvcruntime:undname.obj
 0002:00001fb8       ??_C@_02FODMEDOG@?$DM?$DM@ 10020fb8     libvcruntime:undname.obj
 0002:00001fbc       ??_C@_01DCLJPIOD@?$CB@     10020fbc     libvcruntime:undname.obj
 0002:00001fc0       ??_C@_02EGOFBIJA@?$DN?$DN@ 10020fc0     libvcruntime:undname.obj
 0002:00001fc4       ??_C@_02FDNJECIE@?$CB?$DN@ 10020fc4     libvcruntime:undname.obj
 0002:00001fc8       ??_C@_02GPECMEKF@?$FL?$FN@ 10020fc8     libvcruntime:undname.obj
 0002:00001fcc       ??_C@_08LHJFAFGD@operator@ 10020fcc     libvcruntime:undname.obj
 0002:00001fd8       ??_C@_02HBOOOICD@?9?$DO@   10020fd8     libvcruntime:undname.obj
 0002:00001fdc       ??_C@_01NBENCBCI@?$CK@     10020fdc     libvcruntime:undname.obj
 0002:00001fe0       ??_C@_02ECNGHCIF@?$CL?$CL@ 10020fe0     libvcruntime:undname.obj
 0002:00001fe4       ??_C@_02BAABKJLB@?9?9@     10020fe4     libvcruntime:undname.obj
 0002:00001fe8       ??_C@_01JOAMLHOP@?9@       10020fe8     libvcruntime:undname.obj
 0002:00001fec       ??_C@_01MIFGBAGJ@?$CL@     10020fec     libvcruntime:undname.obj
 0002:00001ff0       ??_C@_01HNPIGOCE@?$CG@     10020ff0     libvcruntime:undname.obj
 0002:00001ff4       ??_C@_03MNHNFDLC@?9?$DO?$CK@ 10020ff4     libvcruntime:undname.obj
 0002:00001ff8       ??_C@_01KMDKNFGN@?1@       10020ff8     libvcruntime:undname.obj
 0002:00001ffc       ??_C@_01FGNFDNOH@?$CF@     10020ffc     libvcruntime:undname.obj
 0002:00002000       ??_C@_01MNNFJEPP@?$DM@     10021000     libvcruntime:undname.obj
 0002:00002004       ??_C@_02EHCHHCKH@?$DM?$DN@ 10021004     libvcruntime:undname.obj
 0002:00002008       ??_C@_01PPODPGHN@?$DO@     10021008     libvcruntime:undname.obj
 0002:0000200c       ??_C@_02EEKDKGMJ@?$DO?$DN@ 1002100c     libvcruntime:undname.obj
 0002:00002010       ??_C@_01IHBHIGKO@?0@       10021010     libvcruntime:undname.obj
 0002:00002014       ??_C@_02HCKGKOFO@?$CI?$CJ@ 10021014     libvcruntime:undname.obj
 0002:00002018       ??_C@_01PJKLJHI@?$HO@      10021018     libvcruntime:undname.obj
 0002:0000201c       ??_C@_01JKBOJNNK@?$FO@     1002101c     libvcruntime:undname.obj
 0002:00002020       ??_C@_01DNKMNLPK@?$HM@     10021020     libvcruntime:undname.obj
 0002:00002024       ??_C@_02PPKAJPJL@?$CG?$CG@ 10021024     libvcruntime:undname.obj
 0002:00002028       ??_C@_02NONPIBCD@?$HM?$HM@ 10021028     libvcruntime:undname.obj
 0002:0000202c       ??_C@_02FPIMKNGF@?$CK?$DN@ 1002102c     libvcruntime:undname.obj
 0002:00002030       ??_C@_02FOEOMHFC@?$CL?$DN@ 10021030     libvcruntime:undname.obj
 0002:00002034       ??_C@_02FKMDLLOA@?9?$DN@   10021034     libvcruntime:undname.obj
 0002:00002038       ??_C@_02FJEHGPIO@?1?$DN@   10021038     libvcruntime:undname.obj
 0002:0000203c       ??_C@_02FENAOKFI@?$CF?$DN@ 1002103c     libvcruntime:undname.obj
 0002:00002040       ??_C@_03IKFCCPFF@?$DO?$DO?$DN@ 10021040     libvcruntime:undname.obj
 0002:00002044       ??_C@_03CDNPDDLA@?$DM?$DM?$DN@ 10021044     libvcruntime:undname.obj
 0002:00002048       ??_C@_02FGJGFEAB@?$CG?$DN@ 10021048     libvcruntime:undname.obj
 0002:0000204c       ??_C@_02DHLNPPGH@?$HM?$DN@ 1002104c     libvcruntime:undname.obj
 0002:00002050       ??_C@_02MHEGNOJ@?$FO?$DN@  10021050     libvcruntime:undname.obj
 0002:00002054       ??_C@_09IFPLHPGF@?$GAvftable?8@ 10021054     libvcruntime:undname.obj
 0002:00002060       ??_C@_09BLBHBJP@?$GAvbtable?8@ 10021060     libvcruntime:undname.obj
 0002:0000206c       ??_C@_07FEEIOKP@?$GAvcall?8@ 1002106c     libvcruntime:undname.obj
 0002:00002074       ??_C@_08LLFFHHDJ@?$GAtypeof?8@ 10021074     libvcruntime:undname.obj
 0002:00002080       ??_C@_0BF@KDPPACIK@?$GAlocal?5static?5guard?8@ 10021080     libvcruntime:undname.obj
 0002:00002098       ??_C@_08OBABFOLI@?$GAstring?8@ 10021098     libvcruntime:undname.obj
 0002:000020a4       ??_C@_0BD@JDLKDPAB@?$GAvbase?5destructor?8@ 100210a4     libvcruntime:undname.obj
 0002:000020b8       ??_C@_0BN@DEGPLNFK@?$GAvector?5deleting?5destructor?8@ 100210b8     libvcruntime:undname.obj
 0002:000020d8       ??_C@_0BO@OBMKPJIG@?$GAdefault?5constructor?5closure?8@ 100210d8     libvcruntime:undname.obj
 0002:000020f8       ??_C@_0BN@IMDCHIKM@?$GAscalar?5deleting?5destructor?8@ 100210f8     libvcruntime:undname.obj
 0002:00002118       ??_C@_0BO@PFGOCPJJ@?$GAvector?5constructor?5iterator?8@ 10021118     libvcruntime:undname.obj
 0002:00002138       ??_C@_0BN@LFPFMEDL@?$GAvector?5destructor?5iterator?8@ 10021138     libvcruntime:undname.obj
 0002:00002158       ??_C@_0CE@IKBNEHA@?$GAvector?5vbase?5constructor?5itera@ 10021158     libvcruntime:undname.obj
 0002:0000217c       ??_C@_0BL@NILFHHPC@?$GAvirtual?5displacement?5map?8@ 1002117c     libvcruntime:undname.obj
 0002:00002198       ??_C@_0CB@JONCMFFK@?$GAeh?5vector?5constructor?5iterator@ 10021198     libvcruntime:undname.obj
 0002:000021bc       ??_C@_0CA@GCEOPDGL@?$GAeh?5vector?5destructor?5iterator?8@ 100211bc     libvcruntime:undname.obj
 0002:000021dc       ??_C@_0CH@OOJPLCPH@?$GAeh?5vector?5vbase?5constructor?5it@ 100211dc     libvcruntime:undname.obj
 0002:00002204       ??_C@_0BL@LLKPOHJI@?$GAcopy?5constructor?5closure?8@ 10021204     libvcruntime:undname.obj
 0002:00002220       ??_C@_0BA@KBCDOMBN@?$GAudt?5returning?8@ 10021220     libvcruntime:undname.obj
 0002:00002230       ??_C@_03KLGMFNMG@?$GAEH@   10021230     libvcruntime:undname.obj
 0002:00002234       ??_C@_05KHLCHHI@?$GARTTI@  10021234     libvcruntime:undname.obj
 0002:0000223c       ??_C@_0BA@KKLDJDLB@?$GAlocal?5vftable?8@ 1002123c     libvcruntime:undname.obj
 0002:0000224c       ??_C@_0CE@IIHCMGGL@?$GAlocal?5vftable?5constructor?5clos@ 1002124c     libvcruntime:undname.obj
 0002:00002270       ??_C@_06FHBGPFGH@?5new?$FL?$FN@ 10021270     libvcruntime:undname.obj
 0002:00002278       ??_C@_09LBNFPBCA@?5delete?$FL?$FN@ 10021278     libvcruntime:undname.obj
 0002:00002284       ??_C@_0P@HJKNJFNN@?$GAomni?5callsig?8@ 10021284     libvcruntime:undname.obj
 0002:00002294       ??_C@_0BL@CNOONJFP@?$GAplacement?5delete?5closure?8@ 10021294     libvcruntime:undname.obj
 0002:000022b0       ??_C@_0BN@CKNJLHMB@?$GAplacement?5delete?$FL?$FN?5closure?8@ 100212b0     libvcruntime:undname.obj
 0002:000022d0       ??_C@_0CG@CFDHKGGD@?$GAmanaged?5vector?5constructor?5ite@ 100212d0     libvcruntime:undname.obj
 0002:000022f8       ??_C@_0CF@IMGKMJNO@?$GAmanaged?5vector?5destructor?5iter@ 100212f8     libvcruntime:undname.obj
 0002:00002320       ??_C@_0CG@HLDDJMAG@?$GAeh?5vector?5copy?5constructor?5ite@ 10021320     libvcruntime:undname.obj
 0002:00002348       ??_C@_0CM@FCBBDIGB@?$GAeh?5vector?5vbase?5copy?5construct@ 10021348     libvcruntime:undname.obj
 0002:00002374       ??_C@_0BL@CLIPGLGB@?$GAdynamic?5initializer?5for?5?8@ 10021374     libvcruntime:undname.obj
 0002:00002390       ??_C@_0CB@PDBIFEP@?$GAdynamic?5atexit?5destructor?5for?5@ 10021390     libvcruntime:undname.obj
 0002:000023b4       ??_C@_0CD@CGAJBKEJ@?$GAvector?5copy?5constructor?5iterat@ 100213b4     libvcruntime:undname.obj
 0002:000023d8       ??_C@_0CJ@GJELGAMM@?$GAvector?5vbase?5copy?5constructor?5@ 100213d8     libvcruntime:undname.obj
 0002:00002404       ??_C@_0CL@FGIJHLCE@?$GAmanaged?5vector?5copy?5constructo@ 10021404     libvcruntime:undname.obj
 0002:00002430       ??_C@_0BM@PMGGMLDN@?$GAlocal?5static?5thread?5guard?8@ 10021430     libvcruntime:undname.obj
 0002:0000244c       ??_C@_0N@BDNMDMOL@operator?5?$CC?$CC?5@ 1002144c     libvcruntime:undname.obj
 0002:0000245c       ??_C@_0BC@GGEBGALA@operator?5co_await@ 1002145c     libvcruntime:undname.obj
 0002:00002470       ??_C@_0BC@DAFEJGAK@?5Type?5Descriptor?8@ 10021470     libvcruntime:undname.obj
 0002:00002484       ??_C@_0BM@LDKODKLH@?5Base?5Class?5Descriptor?5at?5?$CI@ 10021484     libvcruntime:undname.obj
 0002:000024a0       ??_C@_0BD@LGICGFMM@?5Base?5Class?5Array?8@ 100214a0     libvcruntime:undname.obj
 0002:000024b4       ??_C@_0BN@MECKDCOJ@?5Class?5Hierarchy?5Descriptor?8@ 100214b4     libvcruntime:undname.obj
 0002:000024d4       ??_C@_0BK@CFCOFLF@?5Complete?5Object?5Locator?8@ 100214d4     libvcruntime:undname.obj
 0002:000024f0       __pDestructExceptionObject 100214f0     libvcruntime:ehhelpers.obj
 0002:00002658       _format_validation_lookup_table 10021658     libucrt:output.obj
 0002:000026b4       ??_C@_1O@CEDCILHN@?$AA?$CI?$AAn?$AAu?$AAl?$AAl?$AA?$CJ?$AA?$AA@ 100216b4     libucrt:output.obj
 0002:000026c4       ??_C@_06OJHGLDPL@?$CInull?$CJ?$AA@ 100216c4     libucrt:output.obj
 0002:000026d0       ___acrt_exception_action_table 100216d0     libucrt:exception_filter.obj
 0002:00002760       ___acrt_signal_action_table_count 10021760     libucrt:exception_filter.obj
 0002:00002764       ___acrt_signal_action_first_fpe_index 10021764     libucrt:exception_filter.obj
 0002:00002768       ___acrt_signal_action_fpe_count 10021768     libucrt:exception_filter.obj
 0002:0000276c       ??_C@_1BI@BGOHAHKC@?$AAm?$AAs?$AAc?$AAo?$AAr?$AAe?$AAe?$AA?4?$AAd?$AAl?$AAl?$AA?$AA@ 1002176c     libucrt:exit.obj
 0002:00002784       ??_C@_0P@MIGLKIOC@CorExitProcess?$AA@ 10021784     libucrt:exit.obj
 0002:00002860       ??_C@_1EA@JGEFHKEI@?$AAa?$AAp?$AAi?$AA?9?$AAm?$AAs?$AA?9?$AAw?$AAi?$AAn?$AA?9?$AAc?$AAo?$AAr?$AAe?$AA?9?$AAd?$AAa?$AAt?$AAe?$AAt?$AAi?$AAm?$AAe?$AA?9?$AAl?$AA1?$AA?9?$AA1?$AA?9?$AA1?$AA?$AA@ 10021860     libucrt:winapi_thunks.obj
 0002:000028a0       ??_C@_1DM@KHCHBNEB@?$AAa?$AAp?$AAi?$AA?9?$AAm?$AAs?$AA?9?$AAw?$AAi?$AAn?$AA?9?$AAc?$AAo?$AAr?$AAe?$AA?9?$AAf?$AAi?$AAb?$AAe?$AAr?$AAs?$AA?9?$AAl?$AA1?$AA?9?$AA1?$AA?9?$AA1?$AA?$AA@ 100218a0     libucrt:winapi_thunks.obj
 0002:000028e0       ??_C@_1EI@MPIAOHOC@?$AAa?$AAp?$AAi?$AA?9?$AAm?$AAs?$AA?9?$AAw?$AAi?$AAn?$AA?9?$AAc?$AAo?$AAr?$AAe?$AA?9?$AAl?$AAo?$AAc?$AAa?$AAl?$AAi?$AAz?$AAa?$AAt?$AAi?$AAo?$AAn?$AA?9?$AAl?$AA1?$AA?9@ 100218e0     libucrt:winapi_thunks.obj
 0002:00002928       ??_C@_1FK@FPHCKFIE@?$AAa?$AAp?$AAi?$AA?9?$AAm?$AAs?$AA?9?$AAw?$AAi?$AAn?$AA?9?$AAc?$AAo?$AAr?$AAe?$AA?9?$AAl?$AAo?$AAc?$AAa?$AAl?$AAi?$AAz?$AAa?$AAt?$AAi?$AAo?$AAn?$AA?9?$AAo?$AAb?$AAs@ 10021928     libucrt:winapi_thunks.obj
 0002:00002988       ??_C@_1EM@DILCGIIO@?$AAa?$AAp?$AAi?$AA?9?$AAm?$AAs?$AA?9?$AAw?$AAi?$AAn?$AA?9?$AAc?$AAo?$AAr?$AAe?$AA?9?$AAp?$AAr?$AAo?$AAc?$AAe?$AAs?$AAs?$AAt?$AAh?$AAr?$AAe?$AAa?$AAd?$AAs?$AA?9?$AAl@ 10021988     libucrt:winapi_thunks.obj
 0002:000029d4       ??_C@_1DM@LNCGDDPN@?$AAa?$AAp?$AAi?$AA?9?$AAm?$AAs?$AA?9?$AAw?$AAi?$AAn?$AA?9?$AAc?$AAo?$AAr?$AAe?$AA?9?$AAs?$AAt?$AAr?$AAi?$AAn?$AAg?$AA?9?$AAl?$AA1?$AA?9?$AA1?$AA?9?$AA0?$AA?$AA@ 100219d4     libucrt:winapi_thunks.obj
 0002:00002a10       ??_C@_1DK@LPPGFMPP@?$AAa?$AAp?$AAi?$AA?9?$AAm?$AAs?$AA?9?$AAw?$AAi?$AAn?$AA?9?$AAc?$AAo?$AAr?$AAe?$AA?9?$AAs?$AAy?$AAn?$AAc?$AAh?$AA?9?$AAl?$AA1?$AA?9?$AA2?$AA?9?$AA0?$AA?$AA@ 10021a10     libucrt:winapi_thunks.obj
 0002:00002a4c       ??_C@_1DO@FPAPJEMD@?$AAa?$AAp?$AAi?$AA?9?$AAm?$AAs?$AA?9?$AAw?$AAi?$AAn?$AA?9?$AAc?$AAo?$AAr?$AAe?$AA?9?$AAs?$AAy?$AAs?$AAi?$AAn?$AAf?$AAo?$AA?9?$AAl?$AA1?$AA?9?$AA2?$AA?9?$AA1?$AA?$AA@ 10021a4c     libucrt:winapi_thunks.obj
 0002:00002a8c       ??_C@_1DK@NDHNAHIO@?$AAa?$AAp?$AAi?$AA?9?$AAm?$AAs?$AA?9?$AAw?$AAi?$AAn?$AA?9?$AAc?$AAo?$AAr?$AAe?$AA?9?$AAw?$AAi?$AAn?$AAr?$AAt?$AA?9?$AAl?$AA1?$AA?9?$AA1?$AA?9?$AA0?$AA?$AA@ 10021a8c     libucrt:winapi_thunks.obj
 0002:00002ac8       ??_C@_1DM@KGHDGBCM@?$AAa?$AAp?$AAi?$AA?9?$AAm?$AAs?$AA?9?$AAw?$AAi?$AAn?$AA?9?$AAc?$AAo?$AAr?$AAe?$AA?9?$AAx?$AAs?$AAt?$AAa?$AAt?$AAe?$AA?9?$AAl?$AA2?$AA?9?$AA1?$AA?9?$AA0?$AA?$AA@ 10021ac8     libucrt:winapi_thunks.obj
 0002:00002b08       ??_C@_1EO@IJIOEFOH@?$AAa?$AAp?$AAi?$AA?9?$AAm?$AAs?$AA?9?$AAw?$AAi?$AAn?$AA?9?$AAr?$AAt?$AAc?$AAo?$AAr?$AAe?$AA?9?$AAn?$AAt?$AAu?$AAs?$AAe?$AAr?$AA?9?$AAw?$AAi?$AAn?$AAd?$AAo?$AAw?$AA?9@ 10021b08     libucrt:winapi_thunks.obj
 0002:00002b58       ??_C@_1FG@HHGEKANL@?$AAa?$AAp?$AAi?$AA?9?$AAm?$AAs?$AA?9?$AAw?$AAi?$AAn?$AA?9?$AAs?$AAe?$AAc?$AAu?$AAr?$AAi?$AAt?$AAy?$AA?9?$AAs?$AAy?$AAs?$AAt?$AAe?$AAm?$AAf?$AAu?$AAn?$AAc?$AAt?$AAi@ 10021b58     libucrt:winapi_thunks.obj
 0002:00002bb0       ??_C@_1EG@DBIOJECG@?$AAe?$AAx?$AAt?$AA?9?$AAm?$AAs?$AA?9?$AAw?$AAi?$AAn?$AA?9?$AAn?$AAt?$AAu?$AAs?$AAe?$AAr?$AA?9?$AAd?$AAi?$AAa?$AAl?$AAo?$AAg?$AAb?$AAo?$AAx?$AA?9?$AAl?$AA1?$AA?9?$AA1@ 10021bb0     libucrt:winapi_thunks.obj
 0002:00002bf8       ??_C@_1EO@FIHMJCLF@?$AAe?$AAx?$AAt?$AA?9?$AAm?$AAs?$AA?9?$AAw?$AAi?$AAn?$AA?9?$AAn?$AAt?$AAu?$AAs?$AAe?$AAr?$AA?9?$AAw?$AAi?$AAn?$AAd?$AAo?$AAw?$AAs?$AAt?$AAa?$AAt?$AAi?$AAo?$AAn?$AA?9@ 10021bf8     libucrt:winapi_thunks.obj
 0002:00002c48       ??_C@_1BC@DNHGCMLG@?$AAa?$AAd?$AAv?$AAa?$AAp?$AAi?$AA3?$AA2?$AA?$AA@ 10021c48     libucrt:winapi_thunks.obj
 0002:00002c5c       ??_C@_1BC@GDMECMAK@?$AAk?$AAe?$AAr?$AAn?$AAe?$AAl?$AA3?$AA2?$AA?$AA@ 10021c5c     libucrt:winapi_thunks.obj
 0002:00002c70       ??_C@_1M@OAIMIKLP@?$AAn?$AAt?$AAd?$AAl?$AAl?$AA?$AA@ 10021c70     libucrt:winapi_thunks.obj
 0002:00002c80       ??_C@_1EG@DPGNFKGC@?$AAa?$AAp?$AAi?$AA?9?$AAm?$AAs?$AA?9?$AAw?$AAi?$AAn?$AA?9?$AAa?$AAp?$AAp?$AAm?$AAo?$AAd?$AAe?$AAl?$AA?9?$AAr?$AAu?$AAn?$AAt?$AAi?$AAm?$AAe?$AA?9?$AAl?$AA1?$AA?9?$AA1@ 10021c80     libucrt:winapi_thunks.obj
 0002:00002cc8       ??_C@_1O@BCCLBEOE@?$AAu?$AAs?$AAe?$AAr?$AA3?$AA2?$AA?$AA@ 10021cc8     libucrt:winapi_thunks.obj
 0002:00002cd8       ??_C@_1BA@PFFKHIOG@?$AAa?$AAp?$AAi?$AA?9?$AAm?$AAs?$AA?9?$AA?$AA@ 10021cd8     libucrt:winapi_thunks.obj
 0002:00002ce8       ??_C@_1BA@IAIFMGEF@?$AAe?$AAx?$AAt?$AA?9?$AAm?$AAs?$AA?9?$AA?$AA@ 10021ce8     libucrt:winapi_thunks.obj
 0002:00002d00       ??_C@_08KNHFBNJ@FlsAlloc?$AA@ 10021d00     libucrt:winapi_thunks.obj
 0002:00002d14       ??_C@_07PEJMOBNF@FlsFree?$AA@ 10021d14     libucrt:winapi_thunks.obj
 0002:00002d24       ??_C@_0M@GDNOONDI@FlsGetValue?$AA@ 10021d24     libucrt:winapi_thunks.obj
 0002:00002d38       ??_C@_0M@JCPCPOEF@FlsSetValue?$AA@ 10021d38     libucrt:winapi_thunks.obj
 0002:00002d4c       ??_C@_0BM@HCFOFFN@InitializeCriticalSectionEx?$AA@ 10021d4c     libucrt:winapi_thunks.obj
 0002:00002d70       ??_C@_0O@KKBNKAPF@LCMapStringEx?$AA@ 10021d70     libucrt:winapi_thunks.obj
 0002:00002d88       ??_C@_0BB@HBDEELFH@LocaleNameToLCID?$AA@ 10021d88     libucrt:winapi_thunks.obj
 0002:00002da0       ??_C@_0CF@OJOFEIGO@AppPolicyGetProcessTerminationMe@ 10021da0     libucrt:winapi_thunks.obj
 0002:00002dd0       ??_C@_0BI@BKLFFAPO@SetThreadStackGuarantee?$AA@ 10021dd0     libucrt:winapi_thunks.obj
 0002:00002de8       ??_C@_03OEIAHPBN@INF?$AA@  10021de8     libucrt:cvt.obj
 0002:00002dec       ??_C@_03OJHLLCGB@inf?$AA@  10021dec     libucrt:cvt.obj
 0002:00002df0       ??_C@_03LKNCIKJB@NAN?$AA@  10021df0     libucrt:cvt.obj
 0002:00002df4       ??_C@_03LHCJEHON@nan?$AA@  10021df4     libucrt:cvt.obj
 0002:00002df8       ??_C@_09OFJJIMPC@NAN?$CISNAN?$CJ?$AA@ 10021df8     libucrt:cvt.obj
 0002:00002e04       ??_C@_09IPFBKMDL@nan?$CIsnan?$CJ?$AA@ 10021e04     libucrt:cvt.obj
 0002:00002e10       ??_C@_08IKHNHAJ@NAN?$CIIND?$CJ?$AA@ 10021e10     libucrt:cvt.obj
 0002:00002e1c       ??_C@_08OFCDMILK@nan?$CIind?$CJ?$AA@ 10021e1c     libucrt:cvt.obj
 0002:00002e28       ??_C@_05KLBDPFGC@e?$CL000?$AA@ 10021e28     libucrt:cvt.obj
 0002:00002e30       ??_C@_03KOEHGMDN@Sun?$AA@  10021e30     libucrt:nlsdata.obj
 0002:00002e34       ??_C@_03PDAGKDH@Mon?$AA@   10021e34     libucrt:nlsdata.obj
 0002:00002e38       ??_C@_03NAGEINEP@Tue?$AA@  10021e38     libucrt:nlsdata.obj
 0002:00002e3c       ??_C@_03MHOMLAJA@Wed?$AA@  10021e3c     libucrt:nlsdata.obj
 0002:00002e40       ??_C@_03IOFIKPDN@Thu?$AA@  10021e40     libucrt:nlsdata.obj
 0002:00002e44       ??_C@_03IDIOELNC@Fri?$AA@  10021e44     libucrt:nlsdata.obj
 0002:00002e48       ??_C@_03FEFJNEK@Sat?$AA@   10021e48     libucrt:nlsdata.obj
 0002:00002e4c       ??_C@_06OOPIFAJ@Sunday?$AA@ 10021e4c     libucrt:nlsdata.obj
 0002:00002e54       ??_C@_06JLEDEDGH@Monday?$AA@ 10021e54     libucrt:nlsdata.obj
 0002:00002e5c       ??_C@_07BAAGCFCM@Tuesday?$AA@ 10021e5c     libucrt:nlsdata.obj
 0002:00002e64       ??_C@_09DLIGFAKA@Wednesday?$AA@ 10021e64     libucrt:nlsdata.obj
 0002:00002e70       ??_C@_08HACCIKIA@Thursday?$AA@ 10021e70     libucrt:nlsdata.obj
 0002:00002e7c       ??_C@_06JECMNKMI@Friday?$AA@ 10021e7c     libucrt:nlsdata.obj
 0002:00002e84       ??_C@_08INBOOONO@Saturday?$AA@ 10021e84     libucrt:nlsdata.obj
 0002:00002e90       ??_C@_03JIHJHPIE@Jan?$AA@  10021e90     libucrt:nlsdata.obj
 0002:00002e94       ??_C@_03HJBDCHOM@Feb?$AA@  10021e94     libucrt:nlsdata.obj
 0002:00002e98       ??_C@_03ODNJBKGA@Mar?$AA@  10021e98     libucrt:nlsdata.obj
 0002:00002e9c       ??_C@_03LEOLGMJP@Apr?$AA@  10021e9c     libucrt:nlsdata.obj
 0002:00002ea0       ??_C@_03CNMDKL@May?$AA@    10021ea0     libucrt:nlsdata.obj
 0002:00002ea4       ??_C@_03IDFGHECI@Jun?$AA@  10021ea4     libucrt:nlsdata.obj
 0002:00002ea8       ??_C@_03LBGABGKK@Jul?$AA@  10021ea8     libucrt:nlsdata.obj
 0002:00002eac       ??_C@_03IFJFEIGA@Aug?$AA@  10021eac     libucrt:nlsdata.obj
 0002:00002eb0       ??_C@_03GGCAPAJC@Sep?$AA@  10021eb0     libucrt:nlsdata.obj
 0002:00002eb4       ??_C@_03BMAOKBAD@Oct?$AA@  10021eb4     libucrt:nlsdata.obj
 0002:00002eb8       ??_C@_03JPJOFNIA@Nov?$AA@  10021eb8     libucrt:nlsdata.obj
 0002:00002ebc       ??_C@_03MKABNOCG@Dec?$AA@  10021ebc     libucrt:nlsdata.obj
 0002:00002ec0       ??_C@_07CGJPFGJA@January?$AA@ 10021ec0     libucrt:nlsdata.obj
 0002:00002ec8       ??_C@_08GNJGEPFN@February?$AA@ 10021ec8     libucrt:nlsdata.obj
 0002:00002ed4       ??_C@_05HPCKOFNC@March?$AA@ 10021ed4     libucrt:nlsdata.obj
 0002:00002edc       ??_C@_05DMJDNLEJ@April?$AA@ 10021edc     libucrt:nlsdata.obj
 0002:00002ee4       ??_C@_04CNLMGBGM@June?$AA@ 10021ee4     libucrt:nlsdata.obj
 0002:00002eec       ??_C@_04MIEPOIFP@July?$AA@ 10021eec     libucrt:nlsdata.obj
 0002:00002ef4       ??_C@_06LBBHFDDG@August?$AA@ 10021ef4     libucrt:nlsdata.obj
 0002:00002efc       ??_C@_09BHHEALKD@September?$AA@ 10021efc     libucrt:nlsdata.obj
 0002:00002f08       ??_C@_07JJNFCEND@October?$AA@ 10021f08     libucrt:nlsdata.obj
 0002:00002f10       ??_C@_08HCHEGEOA@November?$AA@ 10021f10     libucrt:nlsdata.obj
 0002:00002f1c       ??_C@_08EDHMEBNP@December?$AA@ 10021f1c     libucrt:nlsdata.obj
 0002:00002f28       ??_C@_02DEDBPAFC@AM?$AA@   10021f28     libucrt:nlsdata.obj
 0002:00002f2c       ??_C@_02CJNFDJBF@PM?$AA@   10021f2c     libucrt:nlsdata.obj
 0002:00002f30       ??_C@_08BPBNCDIB@MM?1dd?1yy?$AA@ 10021f30     libucrt:nlsdata.obj
 0002:00002f3c       ??_C@_0BE@CKGJFCPC@dddd?0?5MMMM?5dd?0?5yyyy?$AA@ 10021f3c     libucrt:nlsdata.obj
 0002:00002f50       ??_C@_08JCCMCCIL@HH?3mm?3ss?$AA@ 10021f50     libucrt:nlsdata.obj
 0002:00002f5c       ??_C@_17MBGCMIPB@?$AAS?$AAu?$AAn?$AA?$AA@ 10021f5c     libucrt:nlsdata.obj
 0002:00002f64       ??_C@_17KBOMKBF@?$AAM?$AAo?$AAn?$AA?$AA@ 10021f64     libucrt:nlsdata.obj
 0002:00002f6c       ??_C@_17BMKGEGOJ@?$AAT?$AAu?$AAe?$AA?$AA@ 10021f6c     libucrt:nlsdata.obj
 0002:00002f74       ??_C@_17CJEDCEPE@?$AAW?$AAe?$AAd?$AA?$AA@ 10021f74     libucrt:nlsdata.obj
 0002:00002f7c       ??_C@_17PDPHAADD@?$AAT?$AAh?$AAu?$AA?$AA@ 10021f7c     libucrt:nlsdata.obj
 0002:00002f84       ??_C@_17HFOLPPLP@?$AAF?$AAr?$AAi?$AA?$AA@ 10021f84     libucrt:nlsdata.obj
 0002:00002f8c       ??_C@_17GGIBDPIH@?$AAS?$AAa?$AAt?$AA?$AA@ 10021f8c     libucrt:nlsdata.obj
 0002:00002f94       ??_C@_1O@IHNHDHPB@?$AAS?$AAu?$AAn?$AAd?$AAa?$AAy?$AA?$AA@ 10021f94     libucrt:nlsdata.obj
 0002:00002fa4       ??_C@_1O@MMNBFLIA@?$AAM?$AAo?$AAn?$AAd?$AAa?$AAy?$AA?$AA@ 10021fa4     libucrt:nlsdata.obj
 0002:00002fb4       ??_C@_1BA@ENFBFFEK@?$AAT?$AAu?$AAe?$AAs?$AAd?$AAa?$AAy?$AA?$AA@ 10021fb4     libucrt:nlsdata.obj
 0002:00002fc4       ??_C@_1BE@EBOGMDOH@?$AAW?$AAe?$AAd?$AAn?$AAe?$AAs?$AAd?$AAa?$AAy?$AA?$AA@ 10021fc4     libucrt:nlsdata.obj
 0002:00002fd8       ??_C@_1BC@HHMNLIHE@?$AAT?$AAh?$AAu?$AAr?$AAs?$AAd?$AAa?$AAy?$AA?$AA@ 10021fd8     libucrt:nlsdata.obj
 0002:00002fec       ??_C@_1O@PDICJHAG@?$AAF?$AAr?$AAi?$AAd?$AAa?$AAy?$AA?$AA@ 10021fec     libucrt:nlsdata.obj
 0002:00002ffc       ??_C@_1BC@ENMNNPAJ@?$AAS?$AAa?$AAt?$AAu?$AAr?$AAd?$AAa?$AAy?$AA?$AA@ 10021ffc     libucrt:nlsdata.obj
 0002:00003010       ??_C@_17DKNBKCHM@?$AAJ?$AAa?$AAn?$AA?$AA@ 10022010     libucrt:nlsdata.obj
 0002:00003018       ??_C@_17LMDJEKJN@?$AAF?$AAe?$AAb?$AA?$AA@ 10022018     libucrt:nlsdata.obj
 0002:00003020       ??_C@_17CKNLEDEC@?$AAM?$AAa?$AAr?$AA?$AA@ 10022020     libucrt:nlsdata.obj
 0002:00003028       ??_C@_17LFPOIHDD@?$AAA?$AAp?$AAr?$AA?$AA@ 10022028     libucrt:nlsdata.obj
 0002:00003030       ??_C@_17PNNKMEED@?$AAM?$AAa?$AAy?$AA?$AA@ 10022030     libucrt:nlsdata.obj
 0002:00003038       ??_C@_17KCJGOCPB@?$AAJ?$AAu?$AAn?$AA?$AA@ 10022038     libucrt:nlsdata.obj
 0002:00003040       ??_C@_17IJPCKHK@?$AAJ?$AAu?$AAl?$AA?$AA@ 10022040     libucrt:nlsdata.obj
 0002:00003048       ??_C@_17ICPELBCN@?$AAA?$AAu?$AAg?$AA?$AA@ 10022048     libucrt:nlsdata.obj
 0002:00003050       ??_C@_17HCHCOKMG@?$AAS?$AAe?$AAp?$AA?$AA@ 10022050     libucrt:nlsdata.obj
 0002:00003058       ??_C@_17FNLKOI@?$AAO?$AAc?$AAt?$AA?$AA@ 10022058     libucrt:nlsdata.obj
 0002:00003060       ??_C@_17BBDMLCIG@?$AAN?$AAo?$AAv?$AA?$AA@ 10022060     libucrt:nlsdata.obj
 0002:00003068       ??_C@_17EGKACKIF@?$AAD?$AAe?$AAc?$AA?$AA@ 10022068     libucrt:nlsdata.obj
 0002:00003070       ??_C@_1BA@EFMEIEBA@?$AAJ?$AAa?$AAn?$AAu?$AAa?$AAr?$AAy?$AA?$AA@ 10022070     libucrt:nlsdata.obj
 0002:00003080       ??_C@_1BC@JGDDFFAM@?$AAF?$AAe?$AAb?$AAr?$AAu?$AAa?$AAr?$AAy?$AA?$AA@ 10022080     libucrt:nlsdata.obj
 0002:00003094       ??_C@_1M@IKEENEDF@?$AAM?$AAa?$AAr?$AAc?$AAh?$AA?$AA@ 10022094     libucrt:nlsdata.obj
 0002:000030a0       ??_C@_1M@GJNLMHFD@?$AAA?$AAp?$AAr?$AAi?$AAl?$AA?$AA@ 100220a0     libucrt:nlsdata.obj
 0002:000030ac       ??_C@_19EPFLPGAP@?$AAJ?$AAu?$AAn?$AAe?$AA?$AA@ 100220ac     libucrt:nlsdata.obj
 0002:000030b8       ??_C@_19BIFMLPCD@?$AAJ?$AAu?$AAl?$AAy?$AA?$AA@ 100220b8     libucrt:nlsdata.obj
 0002:000030c4       ??_C@_1O@PAHLKOAC@?$AAA?$AAu?$AAg?$AAu?$AAs?$AAt?$AA?$AA@ 100220c4     libucrt:nlsdata.obj
 0002:000030d4       ??_C@_1BE@DKAAMBJL@?$AAS?$AAe?$AAp?$AAt?$AAe?$AAm?$AAb?$AAe?$AAr?$AA?$AA@ 100220d4     libucrt:nlsdata.obj
 0002:000030e8       ??_C@_1BA@EPANDLNG@?$AAO?$AAc?$AAt?$AAo?$AAb?$AAe?$AAr?$AA?$AA@ 100220e8     libucrt:nlsdata.obj
 0002:000030f8       ??_C@_1BC@BGLIFPF@?$AAN?$AAo?$AAv?$AAe?$AAm?$AAb?$AAe?$AAr?$AA?$AA@ 100220f8     libucrt:nlsdata.obj
 0002:0000310c       ??_C@_1BC@FEMKIFH@?$AAD?$AAe?$AAc?$AAe?$AAm?$AAb?$AAe?$AAr?$AA?$AA@ 1002210c     libucrt:nlsdata.obj
 0002:00003120       ??_C@_15ODEHAHHF@?$AAA?$AAM?$AA?$AA@ 10022120     libucrt:nlsdata.obj
 0002:00003128       ??_C@_15CLMNNGEL@?$AAP?$AAM?$AA?$AA@ 10022128     libucrt:nlsdata.obj
 0002:00003130       ??_C@_1BC@IEBCMHCM@?$AAM?$AAM?$AA?1?$AAd?$AAd?$AA?1?$AAy?$AAy?$AA?$AA@ 10022130     libucrt:nlsdata.obj
 0002:00003144       ??_C@_1CI@KNAKOEBC@?$AAd?$AAd?$AAd?$AAd?$AA?0?$AA?5?$AAM?$AAM?$AAM?$AAM?$AA?5?$AAd?$AAd?$AA?0?$AA?5?$AAy?$AAy?$AAy?$AAy?$AA?$AA@ 10022144     libucrt:nlsdata.obj
 0002:0000316c       ??_C@_1BC@GDGBMEMK@?$AAH?$AAH?$AA?3?$AAm?$AAm?$AA?3?$AAs?$AAs?$AA?$AA@ 1002216c     libucrt:nlsdata.obj
 0002:00003180       ??_C@_1M@BMHNFIME@?$AAe?$AAn?$AA?9?$AAU?$AAS?$AA?$AA@ 10022180     libucrt:nlsdata.obj
 0002:00003190       ___lc_time_c               10022190     libucrt:nlsdata.obj
 0002:00003304       ??_C@_1M@HPNHIDJI@?$AAj?$AAa?$AA?9?$AAJ?$AAP?$AA?$AA@ 10022304     libucrt:mbctype.obj
 0002:00003310       ??_C@_1M@BIBDDEMK@?$AAz?$AAh?$AA?9?$AAC?$AAN?$AA?$AA@ 10022310     libucrt:mbctype.obj
 0002:0000331c       ??_C@_1M@JLOOOEGK@?$AAk?$AAo?$AA?9?$AAK?$AAR?$AA?$AA@ 1002231c     libucrt:mbctype.obj
 0002:00003328       ??_C@_1M@CLNBBOPM@?$AAz?$AAh?$AA?9?$AAT?$AAW?$AA?$AA@ 10022328     libucrt:mbctype.obj
 0002:00003338       __wctype                   10022338     libucrt:ctype.obj
 0002:00003540       ___newctype                10022540     libucrt:ctype.obj
 0002:00003840       ___newclmap                10022840     libucrt:ctype.obj
 0002:000039c0       ___newcumap                100229c0     libucrt:ctype.obj
 0002:00004260       ??_C@_15EMKDOKLE@?$AAa?$AAr?$AA?$AA@ 10023260     libucrt:lcidtoname_downlevel.obj
 0002:00004268       ??_C@_15KNPADPLH@?$AAb?$AAg?$AA?$AA@ 10023268     libucrt:lcidtoname_downlevel.obj
 0002:00004270       ??_C@_15EDMHLDMO@?$AAc?$AAa?$AA?$AA@ 10023270     libucrt:lcidtoname_downlevel.obj
 0002:00004278       ??_C@_1O@BPEAJADD@?$AAz?$AAh?$AA?9?$AAC?$AAH?$AAS?$AA?$AA@ 10023278     libucrt:lcidtoname_downlevel.obj
 0002:00004288       ??_C@_15LJNHCMNK@?$AAc?$AAs?$AA?$AA@ 10023288     libucrt:lcidtoname_downlevel.obj
 0002:00004290       ??_C@_15FOMCIDHG@?$AAd?$AAa?$AA?$AA@ 10023290     libucrt:lcidtoname_downlevel.obj
 0002:00004298       ??_C@_15NBKABECB@?$AAd?$AAe?$AA?$AA@ 10023298     libucrt:lcidtoname_downlevel.obj
 0002:000042a0       ??_C@_15GHPEIIAO@?$AAe?$AAl?$AA?$AA@ 100232a0     libucrt:lcidtoname_downlevel.obj
 0002:000042a8       ??_C@_15MNPNEAIF@?$AAe?$AAn?$AA?$AA@ 100232a8     libucrt:lcidtoname_downlevel.obj
 0002:000042b0       ??_C@_15GPIOMPMH@?$AAe?$AAs?$AA?$AA@ 100232b0     libucrt:lcidtoname_downlevel.obj
 0002:000042b8       ??_C@_15NGLOAKJC@?$AAf?$AAi?$AA?$AA@ 100232b8     libucrt:lcidtoname_downlevel.obj
 0002:000042c0       ??_C@_15FBKGNKAM@?$AAf?$AAr?$AA?$AA@ 100232c0     libucrt:lcidtoname_downlevel.obj
 0002:000042c8       ??_C@_15KGGCNEFK@?$AAh?$AAe?$AA?$AA@ 100232c8     libucrt:lcidtoname_downlevel.obj
 0002:000042d0       ??_C@_15PGHLIDMF@?$AAh?$AAu?$AA?$AA@ 100232d0     libucrt:lcidtoname_downlevel.obj
 0002:000042d8       ??_C@_15BIEMAPLM@?$AAi?$AAs?$AA?$AA@ 100232d8     libucrt:lcidtoname_downlevel.obj
 0002:000042e0       ??_C@_15IFJLDHAF@?$AAi?$AAt?$AA?$AA@ 100232e0     libucrt:lcidtoname_downlevel.obj
 0002:000042e8       ??_C@_15GEMIOCAG@?$AAj?$AAa?$AA?$AA@ 100232e8     libucrt:lcidtoname_downlevel.obj
 0002:000042f0       ??_C@_15EPELEGJA@?$AAk?$AAo?$AA?$AA@ 100232f0     libucrt:lcidtoname_downlevel.obj
 0002:000042f8       ??_C@_15NDDHIMN@?$AAn?$AAl?$AA?$AA@ 100232f8     libucrt:lcidtoname_downlevel.obj
 0002:00004300       ??_C@_15BPIGNHCD@?$AAn?$AAo?$AA?$AA@ 10023300     libucrt:lcidtoname_downlevel.obj
 0002:00004308       ??_C@_15DEOPBLCG@?$AAp?$AAl?$AA?$AA@ 10023308     libucrt:lcidtoname_downlevel.obj
 0002:00004310       ??_C@_15KBECGEFG@?$AAp?$AAt?$AA?$AA@ 10023310     libucrt:lcidtoname_downlevel.obj
 0002:00004318       ??_C@_15GLJCBFMD@?$AAr?$AAo?$AA?$AA@ 10023318     libucrt:lcidtoname_downlevel.obj
 0002:00004320       ??_C@_15FEDGKCDI@?$AAr?$AAu?$AA?$AA@ 10023320     libucrt:lcidtoname_downlevel.obj
 0002:00004328       ??_C@_15GLKMLLHM@?$AAh?$AAr?$AA?$AA@ 10023328     libucrt:lcidtoname_downlevel.obj
 0002:00004330       ??_C@_15CPKMFBDB@?$AAs?$AAk?$AA?$AA@ 10023330     libucrt:lcidtoname_downlevel.obj
 0002:00004338       ??_C@_15BAAIOGMK@?$AAs?$AAq?$AA?$AA@ 10023338     libucrt:lcidtoname_downlevel.obj
 0002:00004340       ??_C@_15INNPNOHD@?$AAs?$AAv?$AA?$AA@ 10023340     libucrt:lcidtoname_downlevel.obj
 0002:00004348       ??_C@_15CABMMOGH@?$AAt?$AAh?$AA?$AA@ 10023348     libucrt:lcidtoname_downlevel.obj
 0002:00004350       ??_C@_15BPLIHJJM@?$AAt?$AAr?$AA?$AA@ 10023350     libucrt:lcidtoname_downlevel.obj
 0002:00004358       ??_C@_15NEOEKKDJ@?$AAu?$AAr?$AA?$AA@ 10023358     libucrt:lcidtoname_downlevel.obj
 0002:00004360       ??_C@_15NFICGAJK@?$AAi?$AAd?$AA?$AA@ 10023360     libucrt:lcidtoname_downlevel.obj
 0002:00004368       ??_C@_15PJPFLCCM@?$AAu?$AAk?$AA?$AA@ 10023368     libucrt:lcidtoname_downlevel.obj
 0002:00004370       ??_C@_15HPJPHDM@?$AAb?$AAe?$AA?$AA@ 10023370     libucrt:lcidtoname_downlevel.obj
 0002:00004378       ??_C@_15LCHLGJII@?$AAs?$AAl?$AA?$AA@ 10023378     libucrt:lcidtoname_downlevel.obj
 0002:00004380       ??_C@_15PCFJPHHO@?$AAe?$AAt?$AA?$AA@ 10023380     libucrt:lcidtoname_downlevel.obj
 0002:00004388       ??_C@_15HPFPGODN@?$AAl?$AAv?$AA?$AA@ 10023388     libucrt:lcidtoname_downlevel.obj
 0002:00004390       ??_C@_15NFFGKGLG@?$AAl?$AAt?$AA?$AA@ 10023390     libucrt:lcidtoname_downlevel.obj
 0002:00004398       ??_C@_15BDAKCCHN@?$AAf?$AAa?$AA?$AA@ 10023398     libucrt:lcidtoname_downlevel.obj
 0002:000043a0       ??_C@_15NFGIAIAJ@?$AAv?$AAi?$AA?$AA@ 100233a0     libucrt:lcidtoname_downlevel.obj
 0002:000043a8       ??_C@_15LMKNDMHN@?$AAh?$AAy?$AA?$AA@ 100233a8     libucrt:lcidtoname_downlevel.obj
 0002:000043b0       ??_C@_15IJBHMCFL@?$AAa?$AAz?$AA?$AA@ 100233b0     libucrt:lcidtoname_downlevel.obj
 0002:000043b8       ??_C@_15EKOFJABL@?$AAe?$AAu?$AA?$AA@ 100233b8     libucrt:lcidtoname_downlevel.obj
 0002:000043c0       ??_C@_15BGHADCNK@?$AAm?$AAk?$AA?$AA@ 100233c0     libucrt:lcidtoname_downlevel.obj
 0002:000043c8       ??_C@_15JDNICKHM@?$AAa?$AAf?$AA?$AA@ 100233c8     libucrt:lcidtoname_downlevel.obj
 0002:000043d0       ??_C@_15KPJEDBKD@?$AAk?$AAa?$AA?$AA@ 100233d0     libucrt:lcidtoname_downlevel.obj
 0002:000043d8       ??_C@_15PDNFFFEO@?$AAf?$AAo?$AA?$AA@ 100233d8     libucrt:lcidtoname_downlevel.obj
 0002:000043e0       ??_C@_15OMLEGLOC@?$AAh?$AAi?$AA?$AA@ 100233e0     libucrt:lcidtoname_downlevel.obj
 0002:000043e8       ??_C@_15IDNNENKK@?$AAm?$AAs?$AA?$AA@ 100233e8     libucrt:lcidtoname_downlevel.obj
 0002:000043f0       ??_C@_15MACJNBMH@?$AAk?$AAk?$AA?$AA@ 100233f0     libucrt:lcidtoname_downlevel.obj
 0002:000043f8       ??_C@_15DKDJEOND@?$AAk?$AAy?$AA?$AA@ 100233f8     libucrt:lcidtoname_downlevel.obj
 0002:00004400       ??_C@_15DFGDLJBG@?$AAs?$AAw?$AA?$AA@ 10023400     libucrt:lcidtoname_downlevel.obj
 0002:00004408       ??_C@_15BBFAICNG@?$AAu?$AAz?$AA?$AA@ 10023408     libucrt:lcidtoname_downlevel.obj
 0002:00004410       ??_C@_15DKNDCGEA@?$AAt?$AAt?$AA?$AA@ 10023410     libucrt:lcidtoname_downlevel.obj
 0002:00004418       ??_C@_15MGIFMDPL@?$AAp?$AAa?$AA?$AA@ 10023418     libucrt:lcidtoname_downlevel.obj
 0002:00004420       ??_C@_15HCNDBBA@?$AAg?$AAu?$AA?$AA@ 10023420     libucrt:lcidtoname_downlevel.obj
 0002:00004428       ??_C@_15FNBEIBON@?$AAt?$AAa?$AA?$AA@ 10023428     libucrt:lcidtoname_downlevel.obj
 0002:00004430       ??_C@_15NCHGBGLK@?$AAt?$AAe?$AA?$AA@ 10023430     libucrt:lcidtoname_downlevel.obj
 0002:00004438       ??_C@_15PHPHCBPF@?$AAk?$AAn?$AA?$AA@ 10023438     libucrt:lcidtoname_downlevel.obj
 0002:00004440       ??_C@_15DLGBCKMP@?$AAm?$AAr?$AA?$AA@ 10023440     libucrt:lcidtoname_downlevel.obj
 0002:00004448       ??_C@_15EABBLBFF@?$AAs?$AAa?$AA?$AA@ 10023448     libucrt:lcidtoname_downlevel.obj
 0002:00004450       ??_C@_15CBKOMCOI@?$AAm?$AAn?$AA?$AA@ 10023450     libucrt:lcidtoname_downlevel.obj
 0002:00004458       ??_C@_15CKDMCJAF@?$AAg?$AAl?$AA?$AA@ 10023458     libucrt:lcidtoname_downlevel.obj
 0002:00004460       ??_C@_17CNJFBPG@?$AAk?$AAo?$AAk?$AA?$AA@ 10023460     libucrt:lcidtoname_downlevel.obj
 0002:00004468       ??_C@_17FFBJICPL@?$AAs?$AAy?$AAr?$AA?$AA@ 10023468     libucrt:lcidtoname_downlevel.obj
 0002:00004470       ??_C@_17KPNDCPAF@?$AAd?$AAi?$AAv?$AA?$AA@ 10023470     libucrt:lcidtoname_downlevel.obj
 0002:00004478       ??_C@_11LOCGONAA@?$AA?$AA@ 10023478     libucrt:lcidtoname_downlevel.obj
 0002:0000447c       ??_C@_1M@OKAHONE@?$AAa?$AAr?$AA?9?$AAS?$AAA?$AA?$AA@ 1002347c     libucrt:lcidtoname_downlevel.obj
 0002:00004488       ??_C@_1M@FFFIGIGK@?$AAb?$AAg?$AA?9?$AAB?$AAG?$AA?$AA@ 10023488     libucrt:lcidtoname_downlevel.obj
 0002:00004494       ??_C@_1M@BJNKEDC@?$AAc?$AAa?$AA?9?$AAE?$AAS?$AA?$AA@ 10023494     libucrt:lcidtoname_downlevel.obj
 0002:000044a0       ??_C@_1M@IJJHFJHA@?$AAc?$AAs?$AA?9?$AAC?$AAZ?$AA?$AA@ 100234a0     libucrt:lcidtoname_downlevel.obj
 0002:000044ac       ??_C@_1M@CLPEOBGI@?$AAd?$AAa?$AA?9?$AAD?$AAK?$AA?$AA@ 100234ac     libucrt:lcidtoname_downlevel.obj
 0002:000044b8       ??_C@_1M@MCMADGCB@?$AAd?$AAe?$AA?9?$AAD?$AAE?$AA?$AA@ 100234b8     libucrt:lcidtoname_downlevel.obj
 0002:000044c4       ??_C@_1M@OOCKEMAM@?$AAe?$AAl?$AA?9?$AAG?$AAR?$AA?$AA@ 100234c4     libucrt:lcidtoname_downlevel.obj
 0002:000044d0       ??_C@_1M@DDNJFGID@?$AAf?$AAi?$AA?9?$AAF?$AAI?$AA?$AA@ 100234d0     libucrt:lcidtoname_downlevel.obj
 0002:000044dc       ??_C@_1M@GLIPPMAC@?$AAf?$AAr?$AA?9?$AAF?$AAR?$AA?$AA@ 100234dc     libucrt:lcidtoname_downlevel.obj
 0002:000044e8       ??_C@_1M@GFMCHPE@?$AAh?$AAe?$AA?9?$AAI?$AAL?$AA?$AA@ 100234e8     libucrt:lcidtoname_downlevel.obj
 0002:000044f4       ??_C@_1M@MHLPGNKM@?$AAh?$AAu?$AA?9?$AAH?$AAU?$AA?$AA@ 100234f4     libucrt:lcidtoname_downlevel.obj
 0002:00004500       ??_C@_1M@LPDDNNPN@?$AAi?$AAs?$AA?9?$AAI?$AAS?$AA?$AA@ 10023500     libucrt:lcidtoname_downlevel.obj
 0002:0000450c       ??_C@_1M@MADIPODN@?$AAi?$AAt?$AA?9?$AAI?$AAT?$AA?$AA@ 1002350c     libucrt:lcidtoname_downlevel.obj
 0002:00004518       ??_C@_1M@IHBJJGG@?$AAn?$AAl?$AA?9?$AAN?$AAL?$AA?$AA@ 10023518     libucrt:lcidtoname_downlevel.obj
 0002:00004524       ??_C@_1M@EANAGDL@?$AAn?$AAb?$AA?9?$AAN?$AAO?$AA?$AA@ 10023524     libucrt:lcidtoname_downlevel.obj
 0002:00004530       ??_C@_1M@NEIEMEGP@?$AAp?$AAl?$AA?9?$AAP?$AAL?$AA?$AA@ 10023530     libucrt:lcidtoname_downlevel.obj
 0002:0000453c       ??_C@_1M@BOCFIGEP@?$AAp?$AAt?$AA?9?$AAB?$AAR?$AA?$AA@ 1002353c     libucrt:lcidtoname_downlevel.obj
 0002:00004548       ??_C@_1M@IMPFOPBG@?$AAr?$AAo?$AA?9?$AAR?$AAO?$AA?$AA@ 10023548     libucrt:lcidtoname_downlevel.obj
 0002:00004554       ??_C@_1M@IDNNEJMM@?$AAr?$AAu?$AA?9?$AAR?$AAU?$AA?$AA@ 10023554     libucrt:lcidtoname_downlevel.obj
 0002:00004560       ??_C@_1M@LILEEOGM@?$AAh?$AAr?$AA?9?$AAH?$AAR?$AA?$AA@ 10023560     libucrt:lcidtoname_downlevel.obj
 0002:0000456c       ??_C@_1M@FKIFEHPB@?$AAs?$AAk?$AA?9?$AAS?$AAK?$AA?$AA@ 1002356c     libucrt:lcidtoname_downlevel.obj
 0002:00004578       ??_C@_1M@LJMAMNPJ@?$AAs?$AAq?$AA?9?$AAA?$AAL?$AA?$AA@ 10023578     libucrt:lcidtoname_downlevel.obj
 0002:00004584       ??_C@_1M@GIAKDKJK@?$AAs?$AAv?$AA?9?$AAS?$AAE?$AA?$AA@ 10023584     libucrt:lcidtoname_downlevel.obj
 0002:00004590       ??_C@_1M@MKJKIKCL@?$AAt?$AAh?$AA?9?$AAT?$AAH?$AA?$AA@ 10023590     libucrt:lcidtoname_downlevel.obj
 0002:0000459c       ??_C@_1M@MFLCCMPB@?$AAt?$AAr?$AA?9?$AAT?$AAR?$AA?$AA@ 1002359c     libucrt:lcidtoname_downlevel.obj
 0002:000045a8       ??_C@_1M@OIJHDKJN@?$AAu?$AAr?$AA?9?$AAP?$AAK?$AA?$AA@ 100235a8     libucrt:lcidtoname_downlevel.obj
 0002:000045b4       ??_C@_1M@LHIPCIEK@?$AAi?$AAd?$AA?9?$AAI?$AAD?$AA?$AA@ 100235b4     libucrt:lcidtoname_downlevel.obj
 0002:000045c0       ??_C@_1M@MFMOBGI@?$AAu?$AAk?$AA?9?$AAU?$AAA?$AA?$AA@ 100235c0     libucrt:lcidtoname_downlevel.obj
 0002:000045cc       ??_C@_1M@OBGLJIPL@?$AAb?$AAe?$AA?9?$AAB?$AAY?$AA?$AA@ 100235cc     libucrt:lcidtoname_downlevel.obj
 0002:000045d8       ??_C@_1M@BCFAJEAD@?$AAs?$AAl?$AA?9?$AAS?$AAI?$AA?$AA@ 100235d8     libucrt:lcidtoname_downlevel.obj
 0002:000045e4       ??_C@_1M@FKFFEDDN@?$AAe?$AAt?$AA?9?$AAE?$AAE?$AA?$AA@ 100235e4     libucrt:lcidtoname_downlevel.obj
 0002:000045f0       ??_C@_1M@KGKKAACI@?$AAl?$AAv?$AA?9?$AAL?$AAV?$AA?$AA@ 100235f0     libucrt:lcidtoname_downlevel.obj
 0002:000045fc       ??_C@_1M@IFGBIJO@?$AAl?$AAt?$AA?9?$AAL?$AAT?$AA?$AA@ 100235fc     libucrt:lcidtoname_downlevel.obj
 0002:00004608       ??_C@_1M@FGEAHEDM@?$AAf?$AAa?$AA?9?$AAI?$AAR?$AA?$AA@ 10023608     libucrt:lcidtoname_downlevel.obj
 0002:00004614       ??_C@_1M@KBMAIBFN@?$AAv?$AAi?$AA?9?$AAV?$AAN?$AA?$AA@ 10023614     libucrt:lcidtoname_downlevel.obj
 0002:00004620       ??_C@_1M@GPCBKDJK@?$AAh?$AAy?$AA?9?$AAA?$AAM?$AA?$AA@ 10023620     libucrt:lcidtoname_downlevel.obj
 0002:0000462c       ??_C@_1BG@BECMDDJB@?$AAa?$AAz?$AA?9?$AAA?$AAZ?$AA?9?$AAL?$AAa?$AAt?$AAn?$AA?$AA@ 1002362c     libucrt:lcidtoname_downlevel.obj
 0002:00004644       ??_C@_1M@MAOFCAEA@?$AAe?$AAu?$AA?9?$AAE?$AAS?$AA?$AA@ 10023644     libucrt:lcidtoname_downlevel.obj
 0002:00004650       ??_C@_1M@IGHABKPI@?$AAm?$AAk?$AA?9?$AAM?$AAK?$AA?$AA@ 10023650     libucrt:lcidtoname_downlevel.obj
 0002:0000465c       ??_C@_1M@IAIGNEJG@?$AAt?$AAn?$AA?9?$AAZ?$AAA?$AA?$AA@ 1002365c     libucrt:lcidtoname_downlevel.obj
 0002:00004668       ??_C@_1M@IIJCOJFA@?$AAx?$AAh?$AA?9?$AAZ?$AAA?$AA?$AA@ 10023668     libucrt:lcidtoname_downlevel.obj
 0002:00004674       ??_C@_1M@LGPJHNJH@?$AAz?$AAu?$AA?9?$AAZ?$AAA?$AA?$AA@ 10023674     libucrt:lcidtoname_downlevel.obj
 0002:00004680       ??_C@_1M@HOKAOIO@?$AAa?$AAf?$AA?9?$AAZ?$AAA?$AA?$AA@ 10023680     libucrt:lcidtoname_downlevel.obj
 0002:0000468c       ??_C@_1M@DPCLHLIE@?$AAk?$AAa?$AA?9?$AAG?$AAE?$AA?$AA@ 1002368c     libucrt:lcidtoname_downlevel.obj
 0002:00004698       ??_C@_1M@BLKMHJBI@?$AAf?$AAo?$AA?9?$AAF?$AAO?$AA?$AA@ 10023698     libucrt:lcidtoname_downlevel.obj
 0002:000046a4       ??_C@_1M@LGGJAPPB@?$AAh?$AAi?$AA?9?$AAI?$AAN?$AA?$AA@ 100236a4     libucrt:lcidtoname_downlevel.obj
 0002:000046b0       ??_C@_1M@FIKPIHFE@?$AAm?$AAt?$AA?9?$AAM?$AAT?$AA?$AA@ 100236b0     libucrt:lcidtoname_downlevel.obj
 0002:000046bc       ??_C@_1M@HEGGPBFA@?$AAs?$AAe?$AA?9?$AAN?$AAO?$AA?$AA@ 100236bc     libucrt:lcidtoname_downlevel.obj
 0002:000046c8       ??_C@_1M@EIBJEEPA@?$AAm?$AAs?$AA?9?$AAM?$AAY?$AA?$AA@ 100236c8     libucrt:lcidtoname_downlevel.obj
 0002:000046d4       ??_C@_1M@FHLBGMPP@?$AAk?$AAk?$AA?9?$AAK?$AAZ?$AA?$AA@ 100236d4     libucrt:lcidtoname_downlevel.obj
 0002:000046e0       ??_C@_1M@NGJJLCGI@?$AAk?$AAy?$AA?9?$AAK?$AAG?$AA?$AA@ 100236e0     libucrt:lcidtoname_downlevel.obj
 0002:000046ec       ??_C@_1M@GIENNBFC@?$AAs?$AAw?$AA?9?$AAK?$AAE?$AA?$AA@ 100236ec     libucrt:lcidtoname_downlevel.obj
 0002:000046f8       ??_C@_1BG@NDGMJIMJ@?$AAu?$AAz?$AA?9?$AAU?$AAZ?$AA?9?$AAL?$AAa?$AAt?$AAn?$AA?$AA@ 100236f8     libucrt:lcidtoname_downlevel.obj
 0002:00004710       ??_C@_1M@IDCCIHBC@?$AAt?$AAt?$AA?9?$AAR?$AAU?$AA?$AA@ 10023710     libucrt:lcidtoname_downlevel.obj
 0002:0000471c       ??_C@_1M@LOICPMOJ@?$AAb?$AAn?$AA?9?$AAI?$AAN?$AA?$AA@ 1002371c     libucrt:lcidtoname_downlevel.obj
 0002:00004728       ??_C@_1M@KPKKNEAH@?$AAp?$AAa?$AA?9?$AAI?$AAN?$AA?$AA@ 10023728     libucrt:lcidtoname_downlevel.obj
 0002:00004734       ??_C@_1M@PJGPPBOG@?$AAg?$AAu?$AA?9?$AAI?$AAN?$AA?$AA@ 10023734     libucrt:lcidtoname_downlevel.obj
 0002:00004740       ??_C@_1M@KMKMOPHI@?$AAt?$AAa?$AA?9?$AAI?$AAN?$AA?$AA@ 10023740     libucrt:lcidtoname_downlevel.obj
 0002:0000474c       ??_C@_1M@KFEHEPAC@?$AAt?$AAe?$AA?9?$AAI?$AAN?$AA?$AA@ 1002374c     libucrt:lcidtoname_downlevel.obj
 0002:00004758       ??_C@_1M@CDCLMGHI@?$AAk?$AAn?$AA?9?$AAI?$AAN?$AA?$AA@ 10023758     libucrt:lcidtoname_downlevel.obj
 0002:00004764       ??_C@_1M@MIODLDKF@?$AAm?$AAl?$AA?9?$AAI?$AAN?$AA?$AA@ 10023764     libucrt:lcidtoname_downlevel.obj
 0002:00004770       ??_C@_1M@PBIEACPO@?$AAm?$AAr?$AA?9?$AAI?$AAN?$AA?$AA@ 10023770     libucrt:lcidtoname_downlevel.obj
 0002:0000477c       ??_C@_1M@NIDEAGPH@?$AAs?$AAa?$AA?9?$AAI?$AAN?$AA?$AA@ 1002377c     libucrt:lcidtoname_downlevel.obj
 0002:00004788       ??_C@_1M@FHIHCBIO@?$AAm?$AAn?$AA?9?$AAM?$AAN?$AA?$AA@ 10023788     libucrt:lcidtoname_downlevel.obj
 0002:00004794       ??_C@_1M@JAIJPENP@?$AAc?$AAy?$AA?9?$AAG?$AAB?$AA?$AA@ 10023794     libucrt:lcidtoname_downlevel.obj
 0002:000047a0       ??_C@_1M@PHGFBEPN@?$AAg?$AAl?$AA?9?$AAE?$AAS?$AA?$AA@ 100237a0     libucrt:lcidtoname_downlevel.obj
 0002:000047ac       ??_C@_1O@KPIPDNCP@?$AAk?$AAo?$AAk?$AA?9?$AAI?$AAN?$AA?$AA@ 100237ac     libucrt:lcidtoname_downlevel.obj
 0002:000047bc       ??_C@_1O@KNHJLDJA@?$AAs?$AAy?$AAr?$AA?9?$AAS?$AAY?$AA?$AA@ 100237bc     libucrt:lcidtoname_downlevel.obj
 0002:000047cc       ??_C@_1O@MKEKBLAH@?$AAd?$AAi?$AAv?$AA?9?$AAM?$AAV?$AA?$AA@ 100237cc     libucrt:lcidtoname_downlevel.obj
 0002:000047dc       ??_C@_1O@OHDCKDDF@?$AAq?$AAu?$AAz?$AA?9?$AAB?$AAO?$AA?$AA@ 100237dc     libucrt:lcidtoname_downlevel.obj
 0002:000047ec       ??_C@_1M@LEPJNLFD@?$AAn?$AAs?$AA?9?$AAZ?$AAA?$AA?$AA@ 100237ec     libucrt:lcidtoname_downlevel.obj
 0002:000047f8       ??_C@_1M@OMLEIIJB@?$AAm?$AAi?$AA?9?$AAN?$AAZ?$AA?$AA@ 100237f8     libucrt:lcidtoname_downlevel.obj
 0002:00004804       ??_C@_1M@PMPEAILG@?$AAa?$AAr?$AA?9?$AAI?$AAQ?$AA?$AA@ 10023804     libucrt:lcidtoname_downlevel.obj
 0002:00004810       ??_C@_1M@CNKPNOEE@?$AAd?$AAe?$AA?9?$AAC?$AAH?$AA?$AA@ 10023810     libucrt:lcidtoname_downlevel.obj
 0002:0000481c       ??_C@_1M@LKMGMLKO@?$AAe?$AAn?$AA?9?$AAG?$AAB?$AA?$AA@ 1002381c     libucrt:lcidtoname_downlevel.obj
 0002:00004828       ??_C@_1M@PGKJFFGL@?$AAe?$AAs?$AA?9?$AAM?$AAX?$AA?$AA@ 10023828     libucrt:lcidtoname_downlevel.obj
 0002:00004834       ??_C@_1M@DNNANBDC@?$AAf?$AAr?$AA?9?$AAB?$AAE?$AA?$AA@ 10023834     libucrt:lcidtoname_downlevel.obj
 0002:00004840       ??_C@_1M@HLGMDFHM@?$AAi?$AAt?$AA?9?$AAC?$AAH?$AA?$AA@ 10023840     libucrt:lcidtoname_downlevel.obj
 0002:0000484c       ??_C@_1M@CLLBGJH@?$AAn?$AAl?$AA?9?$AAB?$AAE?$AA?$AA@ 1002384c     libucrt:lcidtoname_downlevel.obj
 0002:00004858       ??_C@_1M@BODBOGLF@?$AAn?$AAn?$AA?9?$AAN?$AAO?$AA?$AA@ 10023858     libucrt:lcidtoname_downlevel.obj
 0002:00004864       ??_C@_1M@HFFAHKAD@?$AAp?$AAt?$AA?9?$AAP?$AAT?$AA?$AA@ 10023864     libucrt:lcidtoname_downlevel.obj
 0002:00004870       ??_C@_1BG@LNOAKHIE@?$AAs?$AAr?$AA?9?$AAS?$AAP?$AA?9?$AAL?$AAa?$AAt?$AAn?$AA?$AA@ 10023870     libucrt:lcidtoname_downlevel.obj
 0002:00004888       ??_C@_1M@HBMHBGAK@?$AAs?$AAv?$AA?9?$AAF?$AAI?$AA?$AA@ 10023888     libucrt:lcidtoname_downlevel.obj
 0002:00004894       ??_C@_1BG@DGCJGJBE@?$AAa?$AAz?$AA?9?$AAA?$AAZ?$AA?9?$AAC?$AAy?$AAr?$AAl?$AA?$AA@ 10023894     libucrt:lcidtoname_downlevel.obj
 0002:000048ac       ??_C@_1M@KEJDAAHB@?$AAs?$AAe?$AA?9?$AAS?$AAE?$AA?$AA@ 100238ac     libucrt:lcidtoname_downlevel.obj
 0002:000048b8       ??_C@_1M@HEIBJJAD@?$AAm?$AAs?$AA?9?$AAB?$AAN?$AA?$AA@ 100238b8     libucrt:lcidtoname_downlevel.obj
 0002:000048c4       ??_C@_1BG@PBGJMCEM@?$AAu?$AAz?$AA?9?$AAU?$AAZ?$AA?9?$AAC?$AAy?$AAr?$AAl?$AA?$AA@ 100238c4     libucrt:lcidtoname_downlevel.obj
 0002:000048dc       ??_C@_1O@LAOBCMDF@?$AAq?$AAu?$AAz?$AA?9?$AAE?$AAC?$AA?$AA@ 100238dc     libucrt:lcidtoname_downlevel.obj
 0002:000048ec       ??_C@_1M@POEEMAIO@?$AAa?$AAr?$AA?9?$AAE?$AAG?$AA?$AA@ 100238ec     libucrt:lcidtoname_downlevel.obj
 0002:000048f8       ??_C@_1M@EFAKDEDL@?$AAz?$AAh?$AA?9?$AAH?$AAK?$AA?$AA@ 100238f8     libucrt:lcidtoname_downlevel.obj
 0002:00004904       ??_C@_1M@HKKIJHGI@?$AAd?$AAe?$AA?9?$AAA?$AAT?$AA?$AA@ 10023904     libucrt:lcidtoname_downlevel.obj
 0002:00004910       ??_C@_1M@KBFBEHJF@?$AAe?$AAn?$AA?9?$AAA?$AAU?$AA?$AA@ 10023910     libucrt:lcidtoname_downlevel.obj
 0002:0000491c       ??_C@_1M@MNPLFAAH@?$AAe?$AAs?$AA?9?$AAE?$AAS?$AA?$AA@ 1002391c     libucrt:lcidtoname_downlevel.obj
 0002:00004928       ??_C@_1M@HJOOJFMA@?$AAf?$AAr?$AA?9?$AAC?$AAA?$AA?$AA@ 10023928     libucrt:lcidtoname_downlevel.obj
 0002:00004934       ??_C@_1BG@JPOFPNAB@?$AAs?$AAr?$AA?9?$AAS?$AAP?$AA?9?$AAC?$AAy?$AAr?$AAl?$AA?$AA@ 10023934     libucrt:lcidtoname_downlevel.obj
 0002:0000494c       ??_C@_1M@LNFOCMOB@?$AAs?$AAe?$AA?9?$AAF?$AAI?$AA?$AA@ 1002394c     libucrt:lcidtoname_downlevel.obj
 0002:00004958       ??_C@_1O@MGJBOAMB@?$AAq?$AAu?$AAz?$AA?9?$AAP?$AAE?$AA?$AA@ 10023958     libucrt:lcidtoname_downlevel.obj
 0002:00004968       ??_C@_1M@GJINLBOK@?$AAa?$AAr?$AA?9?$AAL?$AAY?$AA?$AA@ 10023968     libucrt:lcidtoname_downlevel.obj
 0002:00004974       ??_C@_1M@GGMNHJNL@?$AAz?$AAh?$AA?9?$AAS?$AAG?$AA?$AA@ 10023974     libucrt:lcidtoname_downlevel.obj
 0002:00004980       ??_C@_1M@HOIKODND@?$AAd?$AAe?$AA?9?$AAL?$AAU?$AA?$AA@ 10023980     libucrt:lcidtoname_downlevel.obj
 0002:0000498c       ??_C@_1M@DDOCCGFG@?$AAe?$AAn?$AA?9?$AAC?$AAA?$AA?$AA@ 1002398c     libucrt:lcidtoname_downlevel.obj
 0002:00004998       ??_C@_1M@BNOEMJLF@?$AAe?$AAs?$AA?9?$AAG?$AAT?$AA?$AA@ 10023998     libucrt:lcidtoname_downlevel.obj
 0002:000049a4       ??_C@_1M@EOGNKEK@?$AAf?$AAr?$AA?9?$AAC?$AAH?$AA?$AA@ 100239a4     libucrt:lcidtoname_downlevel.obj
 0002:000049b0       ??_C@_1M@FLIDJFHL@?$AAh?$AAr?$AA?9?$AAB?$AAA?$AA?$AA@ 100239b0     libucrt:lcidtoname_downlevel.obj
 0002:000049bc       ??_C@_1O@FMCELNAJ@?$AAs?$AAm?$AAj?$AA?9?$AAN?$AAO?$AA?$AA@ 100239bc     libucrt:lcidtoname_downlevel.obj
 0002:000049cc       ??_C@_1M@JHGLJMGJ@?$AAa?$AAr?$AA?9?$AAD?$AAZ?$AA?$AA@ 100239cc     libucrt:lcidtoname_downlevel.obj
 0002:000049d8       ??_C@_1M@JKKFDCNP@?$AAz?$AAh?$AA?9?$AAM?$AAO?$AA?$AA@ 100239d8     libucrt:lcidtoname_downlevel.obj
 0002:000049e4       ??_C@_1M@GEEFALPE@?$AAd?$AAe?$AA?9?$AAL?$AAI?$AA?$AA@ 100239e4     libucrt:lcidtoname_downlevel.obj
 0002:000049f0       ??_C@_1M@IGEOFBG@?$AAe?$AAn?$AA?9?$AAN?$AAZ?$AA?$AA@ 100239f0     libucrt:lcidtoname_downlevel.obj
 0002:000049fc       ??_C@_1M@KDBONEHP@?$AAe?$AAs?$AA?9?$AAC?$AAR?$AA?$AA@ 100239fc     libucrt:lcidtoname_downlevel.obj
 0002:00004a08       ??_C@_1M@FHMDOHNN@?$AAf?$AAr?$AA?9?$AAL?$AAU?$AA?$AA@ 10023a08     libucrt:lcidtoname_downlevel.obj
 0002:00004a14       ??_C@_1BG@NFKKMAFG@?$AAb?$AAs?$AA?9?$AAB?$AAA?$AA?9?$AAL?$AAa?$AAt?$AAn?$AA?$AA@ 10023a14     libucrt:lcidtoname_downlevel.obj
 0002:00004a2c       ??_C@_1O@IMNBEMCI@?$AAs?$AAm?$AAj?$AA?9?$AAS?$AAE?$AA?$AA@ 10023a2c     libucrt:lcidtoname_downlevel.obj
 0002:00004a3c       ??_C@_1M@DHHMBNDP@?$AAa?$AAr?$AA?9?$AAM?$AAA?$AA?$AA@ 10023a3c     libucrt:lcidtoname_downlevel.obj
 0002:00004a48       ??_C@_1M@BNBLJCGH@?$AAe?$AAn?$AA?9?$AAI?$AAE?$AA?$AA@ 10023a48     libucrt:lcidtoname_downlevel.obj
 0002:00004a54       ??_C@_1M@GEPAFMDL@?$AAe?$AAs?$AA?9?$AAP?$AAA?$AA?$AA@ 10023a54     libucrt:lcidtoname_downlevel.obj
 0002:00004a60       ??_C@_1M@OJONDMDL@?$AAf?$AAr?$AA?9?$AAM?$AAC?$AA?$AA@ 10023a60     libucrt:lcidtoname_downlevel.obj
 0002:00004a6c       ??_C@_1BG@OBCNFJB@?$AAs?$AAr?$AA?9?$AAB?$AAA?$AA?9?$AAL?$AAa?$AAt?$AAn?$AA?$AA@ 10023a6c     libucrt:lcidtoname_downlevel.obj
 0002:00004a84       ??_C@_1O@KEMEEGPO@?$AAs?$AAm?$AAa?$AA?9?$AAN?$AAO?$AA?$AA@ 10023a84     libucrt:lcidtoname_downlevel.obj
 0002:00004a94       ??_C@_1M@ELMGFODK@?$AAa?$AAr?$AA?9?$AAT?$AAN?$AA?$AA@ 10023a94     libucrt:lcidtoname_downlevel.obj
 0002:00004aa0       ??_C@_1M@BHDLHFAF@?$AAe?$AAn?$AA?9?$AAZ?$AAA?$AA?$AA@ 10023aa0     libucrt:lcidtoname_downlevel.obj
 0002:00004aac       ??_C@_1M@BMGIGLIF@?$AAe?$AAs?$AA?9?$AAD?$AAO?$AA?$AA@ 10023aac     libucrt:lcidtoname_downlevel.obj
 0002:00004ab8       ??_C@_1BG@CMBHIPBE@?$AAs?$AAr?$AA?9?$AAB?$AAA?$AA?9?$AAC?$AAy?$AAr?$AAl?$AA?$AA@ 10023ab8     libucrt:lcidtoname_downlevel.obj
 0002:00004ad0       ??_C@_1O@HEDBLHNP@?$AAs?$AAm?$AAa?$AA?9?$AAS?$AAE?$AA?$AA@ 10023ad0     libucrt:lcidtoname_downlevel.obj
 0002:00004ae0       ??_C@_1M@DAGCADIM@?$AAa?$AAr?$AA?9?$AAO?$AAM?$AA?$AA@ 10023ae0     libucrt:lcidtoname_downlevel.obj
 0002:00004aec       ??_C@_1M@FODLMICG@?$AAe?$AAn?$AA?9?$AAJ?$AAM?$AA?$AA@ 10023aec     libucrt:lcidtoname_downlevel.obj
 0002:00004af8       ??_C@_1M@DNMLCIHB@?$AAe?$AAs?$AA?9?$AAV?$AAE?$AA?$AA@ 10023af8     libucrt:lcidtoname_downlevel.obj
 0002:00004b04       ??_C@_1O@EOKHMKJK@?$AAs?$AAm?$AAs?$AA?9?$AAF?$AAI?$AA?$AA@ 10023b04     libucrt:lcidtoname_downlevel.obj
 0002:00004b14       ??_C@_1M@CAFJMKOF@?$AAa?$AAr?$AA?9?$AAY?$AAE?$AA?$AA@ 10023b14     libucrt:lcidtoname_downlevel.obj
 0002:00004b20       ??_C@_1M@CBFHIJLI@?$AAe?$AAn?$AA?9?$AAC?$AAB?$AA?$AA@ 10023b20     libucrt:lcidtoname_downlevel.obj
 0002:00004b2c       ??_C@_1M@BGNFLDN@?$AAe?$AAs?$AA?9?$AAC?$AAO?$AA?$AA@ 10023b2c     libucrt:lcidtoname_downlevel.obj
 0002:00004b38       ??_C@_1O@JMPHMAMC@?$AAs?$AAm?$AAn?$AA?9?$AAF?$AAI?$AA?$AA@ 10023b38     libucrt:lcidtoname_downlevel.obj
 0002:00004b48       ??_C@_1M@JLANABKE@?$AAa?$AAr?$AA?9?$AAS?$AAY?$AA?$AA@ 10023b48     libucrt:lcidtoname_downlevel.obj
 0002:00004b54       ??_C@_1M@HPKGCFGN@?$AAe?$AAn?$AA?9?$AAB?$AAZ?$AA?$AA@ 10023b54     libucrt:lcidtoname_downlevel.obj
 0002:00004b60       ??_C@_1M@OLJCMLGM@?$AAe?$AAs?$AA?9?$AAP?$AAE?$AA?$AA@ 10023b60     libucrt:lcidtoname_downlevel.obj
 0002:00004b6c       ??_C@_1M@MKKGFKLE@?$AAa?$AAr?$AA?9?$AAJ?$AAO?$AA?$AA@ 10023b6c     libucrt:lcidtoname_downlevel.obj
 0002:00004b78       ??_C@_1M@EKPGLDNI@?$AAe?$AAn?$AA?9?$AAT?$AAT?$AA?$AA@ 10023b78     libucrt:lcidtoname_downlevel.obj
 0002:00004b84       ??_C@_1M@OONGHFHE@?$AAe?$AAs?$AA?9?$AAA?$AAR?$AA?$AA@ 10023b84     libucrt:lcidtoname_downlevel.obj
 0002:00004b90       ??_C@_1M@OOJFGBHE@?$AAa?$AAr?$AA?9?$AAL?$AAB?$AA?$AA@ 10023b90     libucrt:lcidtoname_downlevel.obj
 0002:00004b9c       ??_C@_1M@GCEJHNEG@?$AAe?$AAn?$AA?9?$AAZ?$AAW?$AA?$AA@ 10023b9c     libucrt:lcidtoname_downlevel.obj
 0002:00004ba8       ??_C@_1M@JNOCAHJI@?$AAe?$AAs?$AA?9?$AAE?$AAC?$AA?$AA@ 10023ba8     libucrt:lcidtoname_downlevel.obj
 0002:00004bb4       ??_C@_1M@JEFHPGGB@?$AAa?$AAr?$AA?9?$AAK?$AAW?$AA?$AA@ 10023bb4     libucrt:lcidtoname_downlevel.obj
 0002:00004bc0       ??_C@_1M@MLKIBJOJ@?$AAe?$AAn?$AA?9?$AAP?$AAH?$AA?$AA@ 10023bc0     libucrt:lcidtoname_downlevel.obj
 0002:00004bcc       ??_C@_1M@BDNIPEND@?$AAe?$AAs?$AA?9?$AAC?$AAL?$AA?$AA@ 10023bcc     libucrt:lcidtoname_downlevel.obj
 0002:00004bd8       ??_C@_1M@MPNMEKBD@?$AAa?$AAr?$AA?9?$AAA?$AAE?$AA?$AA@ 10023bd8     libucrt:lcidtoname_downlevel.obj
 0002:00004be4       ??_C@_1M@KBJALCPI@?$AAe?$AAs?$AA?9?$AAU?$AAY?$AA?$AA@ 10023be4     libucrt:lcidtoname_downlevel.obj
 0002:00004bf0       ??_C@_1M@LLCCOAGA@?$AAa?$AAr?$AA?9?$AAB?$AAH?$AA?$AA@ 10023bf0     libucrt:lcidtoname_downlevel.obj
 0002:00004bfc       ??_C@_1M@PBFNCDEL@?$AAe?$AAs?$AA?9?$AAP?$AAY?$AA?$AA@ 10023bfc     libucrt:lcidtoname_downlevel.obj
 0002:00004c08       ??_C@_1M@EDGINPNP@?$AAa?$AAr?$AA?9?$AAQ?$AAA?$AA?$AA@ 10023c08     libucrt:lcidtoname_downlevel.obj
 0002:00004c14       ??_C@_1M@MKDBIIJI@?$AAe?$AAs?$AA?9?$AAB?$AAO?$AA?$AA@ 10023c14     libucrt:lcidtoname_downlevel.obj
 0002:00004c20       ??_C@_1M@CPKKEBLD@?$AAe?$AAs?$AA?9?$AAS?$AAV?$AA?$AA@ 10023c20     libucrt:lcidtoname_downlevel.obj
 0002:00004c2c       ??_C@_1M@NDBGMMJL@?$AAe?$AAs?$AA?9?$AAH?$AAN?$AA?$AA@ 10023c2c     libucrt:lcidtoname_downlevel.obj
 0002:00004c38       ??_C@_1M@JIJIBHDP@?$AAe?$AAs?$AA?9?$AAN?$AAI?$AA?$AA@ 10023c38     libucrt:lcidtoname_downlevel.obj
 0002:00004c44       ??_C@_1M@CGFMKEEK@?$AAe?$AAs?$AA?9?$AAP?$AAR?$AA?$AA@ 10023c44     libucrt:lcidtoname_downlevel.obj
 0002:00004c50       ??_C@_1O@ICJHKIIK@?$AAz?$AAh?$AA?9?$AAC?$AAH?$AAT?$AA?$AA@ 10023c50     libucrt:lcidtoname_downlevel.obj
 0002:00004c60       ??_C@_15CLNEJCE@?$AAs?$AAr?$AA?$AA@ 10023c60     libucrt:lcidtoname_downlevel.obj
 0002:00005388       ??_C@_1M@KAHEKEIG@?$AAa?$AAf?$AA?9?$AAz?$AAa?$AA?$AA@ 10024388     libucrt:lcidtoname_downlevel.obj
 0002:00005394       ??_C@_1M@GIECOABL@?$AAa?$AAr?$AA?9?$AAa?$AAe?$AA?$AA@ 10024394     libucrt:lcidtoname_downlevel.obj
 0002:000053a0       ??_C@_1M@BMLMEKGI@?$AAa?$AAr?$AA?9?$AAb?$AAh?$AA?$AA@ 100243a0     libucrt:lcidtoname_downlevel.obj
 0002:000053ac       ??_C@_1M@DAPFDGGB@?$AAa?$AAr?$AA?9?$AAd?$AAz?$AA?$AA@ 100243ac     libucrt:lcidtoname_downlevel.obj
 0002:000053b8       ??_C@_1M@FJNKGKIG@?$AAa?$AAr?$AA?9?$AAe?$AAg?$AA?$AA@ 100243b8     libucrt:lcidtoname_downlevel.obj
 0002:000053c4       ??_C@_1M@FLGKKCLO@?$AAa?$AAr?$AA?9?$AAi?$AAq?$AA?$AA@ 100243c4     libucrt:lcidtoname_downlevel.obj
 0002:000053d0       ??_C@_1M@GNDIPALM@?$AAa?$AAr?$AA?9?$AAj?$AAo?$AA?$AA@ 100243d0     libucrt:lcidtoname_downlevel.obj
 0002:000053dc       ??_C@_1M@DDMJFMGJ@?$AAa?$AAr?$AA?9?$AAk?$AAw?$AA?$AA@ 100243dc     libucrt:lcidtoname_downlevel.obj
 0002:000053e8       ??_C@_1M@EJALMLHM@?$AAa?$AAr?$AA?9?$AAl?$AAb?$AA?$AA@ 100243e8     libucrt:lcidtoname_downlevel.obj
 0002:000053f4       ??_C@_1M@MOBDBLOC@?$AAa?$AAr?$AA?9?$AAl?$AAy?$AA?$AA@ 100243f4     libucrt:lcidtoname_downlevel.obj
 0002:00005400       ??_C@_1M@JAOCLHDH@?$AAa?$AAr?$AA?9?$AAm?$AAa?$AA?$AA@ 10024400     libucrt:lcidtoname_downlevel.obj
 0002:0000540c       ??_C@_1M@JHPMKJIE@?$AAa?$AAr?$AA?9?$AAo?$AAm?$AA?$AA@ 1002440c     libucrt:lcidtoname_downlevel.obj
 0002:00005418       ??_C@_1M@OEPGHFNH@?$AAa?$AAr?$AA?9?$AAq?$AAa?$AA?$AA@ 10024418     libucrt:lcidtoname_downlevel.obj
 0002:00005424       ??_C@_1M@KJDONENM@?$AAa?$AAr?$AA?9?$AAs?$AAa?$AA?$AA@ 10024424     libucrt:lcidtoname_downlevel.obj
 0002:00005430       ??_C@_1M@DMJDKLKM@?$AAa?$AAr?$AA?9?$AAs?$AAy?$AA?$AA@ 10024430     libucrt:lcidtoname_downlevel.obj
 0002:0000543c       ??_C@_1M@OMFIPEDC@?$AAa?$AAr?$AA?9?$AAt?$AAn?$AA?$AA@ 1002443c     libucrt:lcidtoname_downlevel.obj
 0002:00005448       ??_C@_1M@IHMHGAON@?$AAa?$AAr?$AA?9?$AAy?$AAe?$AA?$AA@ 10024448     libucrt:lcidtoname_downlevel.obj
 0002:00005454       ??_C@_1BG@KDCPGJGB@?$AAa?$AAz?$AA?9?$AAa?$AAz?$AA?9?$AAc?$AAy?$AAr?$AAl?$AA?$AA@ 10024454     libucrt:lcidtoname_downlevel.obj
 0002:0000546c       ??_C@_1BG@IBCKDDOE@?$AAa?$AAz?$AA?9?$AAa?$AAz?$AA?9?$AAl?$AAa?$AAt?$AAn?$AA?$AA@ 1002446c     libucrt:lcidtoname_downlevel.obj
 0002:00005484       ??_C@_1M@EGPFDCPD@?$AAb?$AAe?$AA?9?$AAb?$AAy?$AA?$AA@ 10024484     libucrt:lcidtoname_downlevel.obj
 0002:00005490       ??_C@_1M@PCMGMCGC@?$AAb?$AAg?$AA?9?$AAb?$AAg?$AA?$AA@ 10024490     libucrt:lcidtoname_downlevel.obj
 0002:0000549c       ??_C@_1M@BJBMFGOB@?$AAb?$AAn?$AA?9?$AAi?$AAn?$AA?$AA@ 1002449c     libucrt:lcidtoname_downlevel.obj
 0002:000054a8       ??_C@_1BG@EAKMMACD@?$AAb?$AAs?$AA?9?$AAb?$AAa?$AA?9?$AAl?$AAa?$AAt?$AAn?$AA?$AA@ 100244a8     libucrt:lcidtoname_downlevel.obj
 0002:000054c0       ??_C@_1M@KGADAODK@?$AAc?$AAa?$AA?9?$AAe?$AAs?$AA?$AA@ 100244c0     libucrt:lcidtoname_downlevel.obj
 0002:000054cc       ??_C@_1M@COAJPDHI@?$AAc?$AAs?$AA?9?$AAc?$AAz?$AA?$AA@ 100244cc     libucrt:lcidtoname_downlevel.obj
 0002:000054d8       ??_C@_1M@DHBHFONH@?$AAc?$AAy?$AA?9?$AAg?$AAb?$AA?$AA@ 100244d8     libucrt:lcidtoname_downlevel.obj
 0002:000054e4       ??_C@_1M@IMGKELGA@?$AAd?$AAa?$AA?9?$AAd?$AAk?$AA?$AA@ 100244e4     libucrt:lcidtoname_downlevel.obj
 0002:000054f0       ??_C@_1M@NNDGDNGA@?$AAd?$AAe?$AA?9?$AAa?$AAt?$AA?$AA@ 100244f0     libucrt:lcidtoname_downlevel.obj
 0002:000054fc       ??_C@_1M@IKDBHEEM@?$AAd?$AAe?$AA?9?$AAc?$AAh?$AA?$AA@ 100244fc     libucrt:lcidtoname_downlevel.obj
 0002:00005508       ??_C@_1M@GFFOJMCJ@?$AAd?$AAe?$AA?9?$AAd?$AAe?$AA?$AA@ 10024508     libucrt:lcidtoname_downlevel.obj
 0002:00005514       ??_C@_1M@MDNLKBPM@?$AAd?$AAe?$AA?9?$AAl?$AAi?$AA?$AA@ 10024514     libucrt:lcidtoname_downlevel.obj
 0002:00005520       ??_C@_1M@NJBEEJNL@?$AAd?$AAe?$AA?9?$AAl?$AAu?$AA?$AA@ 10024520     libucrt:lcidtoname_downlevel.obj
 0002:0000552c       ??_C@_1O@GNNELBAP@?$AAd?$AAi?$AAv?$AA?9?$AAm?$AAv?$AA?$AA@ 1002452c     libucrt:lcidtoname_downlevel.obj
 0002:0000553c       ??_C@_1M@EJLEOGAE@?$AAe?$AAl?$AA?9?$AAg?$AAr?$AA?$AA@ 1002453c     libucrt:lcidtoname_downlevel.obj
 0002:00005548       ??_C@_1M@GMPONJN@?$AAe?$AAn?$AA?9?$AAa?$AAu?$AA?$AA@ 10024548     libucrt:lcidtoname_downlevel.obj
 0002:00005554       ??_C@_1M@NIDIIPGF@?$AAe?$AAn?$AA?9?$AAb?$AAz?$AA?$AA@ 10024554     libucrt:lcidtoname_downlevel.obj
 0002:00005560       ??_C@_1M@JEHMIMFO@?$AAe?$AAn?$AA?9?$AAc?$AAa?$AA?$AA@ 10024560     libucrt:lcidtoname_downlevel.obj
 0002:0000556c       ??_C@_1M@IGMJCDLA@?$AAe?$AAn?$AA?9?$AAc?$AAb?$AA?$AA@ 1002456c     libucrt:lcidtoname_downlevel.obj
 0002:00005578       ??_C@_1M@BNFIGBKG@?$AAe?$AAn?$AA?9?$AAg?$AAb?$AA?$AA@ 10024578     libucrt:lcidtoname_downlevel.obj
 0002:00005584       ??_C@_1M@LKIFDIGP@?$AAe?$AAn?$AA?9?$AAi?$AAe?$AA?$AA@ 10024584     libucrt:lcidtoname_downlevel.obj
 0002:00005590       ??_C@_1M@PJKFGCCO@?$AAe?$AAn?$AA?9?$AAj?$AAm?$AA?$AA@ 10024590     libucrt:lcidtoname_downlevel.obj
 0002:0000559c       ??_C@_1M@KPPKEPBO@?$AAe?$AAn?$AA?9?$AAn?$AAz?$AA?$AA@ 1002459c     libucrt:lcidtoname_downlevel.obj
 0002:000055a8       ??_C@_1M@GMDGLDOB@?$AAe?$AAn?$AA?9?$AAp?$AAh?$AA?$AA@ 100245a8     libucrt:lcidtoname_downlevel.obj
 0002:000055b4       ??_C@_1M@ONGIBJNA@?$AAe?$AAn?$AA?9?$AAt?$AAt?$AA?$AA@ 100245b4     libucrt:lcidtoname_downlevel.obj
 0002:000055c0       ??_C@_1M@LLODPCMM@?$AAe?$AAn?$AA?9?$AAu?$AAs?$AA?$AA@ 100245c0     libucrt:lcidtoname_downlevel.obj
 0002:000055cc       ??_C@_1M@LAKFNPAN@?$AAe?$AAn?$AA?9?$AAz?$AAa?$AA?$AA@ 100245cc     libucrt:lcidtoname_downlevel.obj
 0002:000055d8       ??_C@_1M@MFNHNHEO@?$AAe?$AAn?$AA?9?$AAz?$AAw?$AA?$AA@ 100245d8     libucrt:lcidtoname_downlevel.obj
 0002:000055e4       ??_C@_1M@EJEINPHM@?$AAe?$AAs?$AA?9?$AAa?$AAr?$AA?$AA@ 100245e4     libucrt:lcidtoname_downlevel.obj
 0002:000055f0       ??_C@_1M@GNKPCCJA@?$AAe?$AAs?$AA?9?$AAb?$AAo?$AA?$AA@ 100245f0     libucrt:lcidtoname_downlevel.obj
 0002:000055fc       ??_C@_1M@LEEGFONL@?$AAe?$AAs?$AA?9?$AAc?$AAl?$AA?$AA@ 100245fc     libucrt:lcidtoname_downlevel.obj
 0002:00005608       ??_C@_1M@KGPDPBDF@?$AAe?$AAs?$AA?9?$AAc?$AAo?$AA?$AA@ 10024608     libucrt:lcidtoname_downlevel.obj
 0002:00005614       ??_C@_1M@EIAHOHH@?$AAe?$AAs?$AA?9?$AAc?$AAr?$AA?$AA@ 10024614     libucrt:lcidtoname_downlevel.obj
 0002:00005620       ??_C@_1M@LLPGMBIN@?$AAe?$AAs?$AA?9?$AAd?$AAo?$AA?$AA@ 10024620     libucrt:lcidtoname_downlevel.obj
 0002:0000562c       ??_C@_1M@DKHMKNJA@?$AAe?$AAs?$AA?9?$AAe?$AAc?$AA?$AA@ 1002462c     libucrt:lcidtoname_downlevel.obj
 0002:00005638       ??_C@_1M@GKGFPKAP@?$AAe?$AAs?$AA?9?$AAe?$AAs?$AA?$AA@ 10024638     libucrt:lcidtoname_downlevel.obj
 0002:00005644       ??_C@_1M@LKHKGDLN@?$AAe?$AAs?$AA?9?$AAg?$AAt?$AA?$AA@ 10024644     libucrt:lcidtoname_downlevel.obj
 0002:00005650       ??_C@_1M@HEIIGGJD@?$AAe?$AAs?$AA?9?$AAh?$AAn?$AA?$AA@ 10024650     libucrt:lcidtoname_downlevel.obj
 0002:0000565c       ??_C@_1M@FBDHPPGD@?$AAe?$AAs?$AA?9?$AAm?$AAx?$AA?$AA@ 1002465c     libucrt:lcidtoname_downlevel.obj
 0002:00005668       ??_C@_1M@DPAGLNDH@?$AAe?$AAs?$AA?9?$AAn?$AAi?$AA?$AA@ 10024668     libucrt:lcidtoname_downlevel.obj
 0002:00005674       ??_C@_1M@MDGOPGDD@?$AAe?$AAs?$AA?9?$AAp?$AAa?$AA?$AA@ 10024674     libucrt:lcidtoname_downlevel.obj
 0002:00005680       ??_C@_1M@EMAMGBGE@?$AAe?$AAs?$AA?9?$AAp?$AAe?$AA?$AA@ 10024680     libucrt:lcidtoname_downlevel.obj
 0002:0000568c       ??_C@_1M@IBMCAOEC@?$AAe?$AAs?$AA?9?$AAp?$AAr?$AA?$AA@ 1002468c     libucrt:lcidtoname_downlevel.obj
 0002:00005698       ??_C@_1M@FGMDIJED@?$AAe?$AAs?$AA?9?$AAp?$AAy?$AA?$AA@ 10024698     libucrt:lcidtoname_downlevel.obj
 0002:000056a4       ??_C@_1M@IIDEOLLL@?$AAe?$AAs?$AA?9?$AAs?$AAv?$AA?$AA@ 100246a4     libucrt:lcidtoname_downlevel.obj
 0002:000056b0       ??_C@_1M@GAOBIPA@?$AAe?$AAs?$AA?9?$AAu?$AAy?$AA?$AA@ 100246b0     libucrt:lcidtoname_downlevel.obj
 0002:000056bc       ??_C@_1M@JKFFICHJ@?$AAe?$AAs?$AA?9?$AAv?$AAe?$AA?$AA@ 100246bc     libucrt:lcidtoname_downlevel.obj
 0002:000056c8       ??_C@_1M@PNMLOJDF@?$AAe?$AAt?$AA?9?$AAe?$AAe?$AA?$AA@ 100246c8     libucrt:lcidtoname_downlevel.obj
 0002:000056d4       ??_C@_1M@GHHLIKEI@?$AAe?$AAu?$AA?9?$AAe?$AAs?$AA?$AA@ 100246d4     libucrt:lcidtoname_downlevel.obj
 0002:000056e0       ??_C@_1M@PBNONODE@?$AAf?$AAa?$AA?9?$AAi?$AAr?$AA?$AA@ 100246e0     libucrt:lcidtoname_downlevel.obj
 0002:000056ec       ??_C@_1M@JEEHPMIL@?$AAf?$AAi?$AA?9?$AAf?$AAi?$AA?$AA@ 100246ec     libucrt:lcidtoname_downlevel.obj
 0002:000056f8       ??_C@_1M@LMDCNDBA@?$AAf?$AAo?$AA?9?$AAf?$AAo?$AA?$AA@ 100246f8     libucrt:lcidtoname_downlevel.obj
 0002:00005704       ??_C@_1M@JKEOHLDK@?$AAf?$AAr?$AA?9?$AAb?$AAe?$AA?$AA@ 10024704     libucrt:lcidtoname_downlevel.obj
 0002:00005710       ??_C@_1M@NOHADPMI@?$AAf?$AAr?$AA?9?$AAc?$AAa?$AA?$AA@ 10024710     libucrt:lcidtoname_downlevel.obj
 0002:0000571c       ??_C@_1M@KDHIHAEC@?$AAf?$AAr?$AA?9?$AAc?$AAh?$AA?$AA@ 1002471c     libucrt:lcidtoname_downlevel.obj
 0002:00005728       ??_C@_1M@MMBBFGAK@?$AAf?$AAr?$AA?9?$AAf?$AAr?$AA?$AA@ 10024728     libucrt:lcidtoname_downlevel.obj
 0002:00005734       ??_C@_1M@PAFNENNF@?$AAf?$AAr?$AA?9?$AAl?$AAu?$AA?$AA@ 10024734     libucrt:lcidtoname_downlevel.obj
 0002:00005740       ??_C@_1M@EOHDJGDD@?$AAf?$AAr?$AA?9?$AAm?$AAc?$AA?$AA@ 10024740     libucrt:lcidtoname_downlevel.obj
 0002:0000574c       ??_C@_1M@FAPLLOPF@?$AAg?$AAl?$AA?9?$AAe?$AAs?$AA?$AA@ 1002474c     libucrt:lcidtoname_downlevel.obj
 0002:00005758       ??_C@_1M@FOPBFLOO@?$AAg?$AAu?$AA?9?$AAi?$AAn?$AA?$AA@ 10024758     libucrt:lcidtoname_downlevel.obj
 0002:00005764       ??_C@_1M@KBMCINPM@?$AAh?$AAe?$AA?9?$AAi?$AAl?$AA?$AA@ 10024764     libucrt:lcidtoname_downlevel.obj
 0002:00005770       ??_C@_1M@BBPHKFPJ@?$AAh?$AAi?$AA?9?$AAi?$AAn?$AA?$AA@ 10024770     libucrt:lcidtoname_downlevel.obj
 0002:0000577c       ??_C@_1M@PMBNDPHD@?$AAh?$AAr?$AA?9?$AAb?$AAa?$AA?$AA@ 1002477c     libucrt:lcidtoname_downlevel.obj
 0002:00005788       ??_C@_1M@BPCKOEGE@?$AAh?$AAr?$AA?9?$AAh?$AAr?$AA?$AA@ 10024788     libucrt:lcidtoname_downlevel.obj
 0002:00005794       ??_C@_1M@GACBMHKE@?$AAh?$AAu?$AA?9?$AAh?$AAu?$AA?$AA@ 10024794     libucrt:lcidtoname_downlevel.obj
 0002:000057a0       ??_C@_1M@MILPAJJC@?$AAh?$AAy?$AA?9?$AAa?$AAm?$AA?$AA@ 100247a0     libucrt:lcidtoname_downlevel.obj
 0002:000057ac       ??_C@_1M@BABBICEC@?$AAi?$AAd?$AA?9?$AAi?$AAd?$AA?$AA@ 100247ac     libucrt:lcidtoname_downlevel.obj
 0002:000057b8       ??_C@_1M@BIKNHHPF@?$AAi?$AAs?$AA?9?$AAi?$AAs?$AA?$AA@ 100247b8     libucrt:lcidtoname_downlevel.obj
 0002:000057c4       ??_C@_1M@NMPCJPHE@?$AAi?$AAt?$AA?9?$AAc?$AAh?$AA?$AA@ 100247c4     libucrt:lcidtoname_downlevel.obj
 0002:000057d0       ??_C@_1M@GHKGFEDF@?$AAi?$AAt?$AA?9?$AAi?$AAt?$AA?$AA@ 100247d0     libucrt:lcidtoname_downlevel.obj
 0002:000057dc       ??_C@_1M@NIEJCJJA@?$AAj?$AAa?$AA?9?$AAj?$AAp?$AA?$AA@ 100247dc     libucrt:lcidtoname_downlevel.obj
 0002:000057e8       ??_C@_1M@JILFNBIM@?$AAk?$AAa?$AA?9?$AAg?$AAe?$AA?$AA@ 100247e8     libucrt:lcidtoname_downlevel.obj
 0002:000057f4       ??_C@_1M@PACPMGPH@?$AAk?$AAk?$AA?9?$AAk?$AAz?$AA?$AA@ 100247f4     libucrt:lcidtoname_downlevel.obj
 0002:00005800       ??_C@_1M@IELFGMHA@?$AAk?$AAn?$AA?9?$AAi?$AAn?$AA?$AA@ 10024800     libucrt:lcidtoname_downlevel.obj
 0002:0000580c       ??_C@_1O@IBBJHCH@?$AAk?$AAo?$AAk?$AA?9?$AAi?$AAn?$AA?$AA@ 1002480c     libucrt:lcidtoname_downlevel.obj
 0002:0000581c       ??_C@_1M@DMHAEOGC@?$AAk?$AAo?$AA?9?$AAk?$AAr?$AA?$AA@ 1002481c     libucrt:lcidtoname_downlevel.obj
 0002:00005828       ??_C@_1M@HBAHBIGA@?$AAk?$AAy?$AA?9?$AAk?$AAg?$AA?$AA@ 10024828     libucrt:lcidtoname_downlevel.obj
 0002:00005834       ??_C@_1M@KPMILCJG@?$AAl?$AAt?$AA?9?$AAl?$AAt?$AA?$AA@ 10024834     libucrt:lcidtoname_downlevel.obj
 0002:00005840       ??_C@_1M@BDEKKCA@?$AAl?$AAv?$AA?9?$AAl?$AAv?$AA?$AA@ 10024840     libucrt:lcidtoname_downlevel.obj
 0002:0000584c       ??_C@_1M@ELCKCCJJ@?$AAm?$AAi?$AA?9?$AAn?$AAz?$AA?$AA@ 1002484c     libucrt:lcidtoname_downlevel.obj
 0002:00005858       ??_C@_1M@CBOOLAPA@?$AAm?$AAk?$AA?9?$AAm?$AAk?$AA?$AA@ 10024858     libucrt:lcidtoname_downlevel.obj
 0002:00005864       ??_C@_1M@GPHNBJKN@?$AAm?$AAl?$AA?9?$AAi?$AAn?$AA?$AA@ 10024864     libucrt:lcidtoname_downlevel.obj
 0002:00005870       ??_C@_1M@PABJILIG@?$AAm?$AAn?$AA?9?$AAm?$AAn?$AA?$AA@ 10024870     libucrt:lcidtoname_downlevel.obj
 0002:0000587c       ??_C@_1M@FGBKKIPG@?$AAm?$AAr?$AA?9?$AAi?$AAn?$AA?$AA@ 1002487c     libucrt:lcidtoname_downlevel.obj
 0002:00005888       ??_C@_1M@NDBPDDAL@?$AAm?$AAs?$AA?9?$AAb?$AAn?$AA?$AA@ 10024888     libucrt:lcidtoname_downlevel.obj
 0002:00005894       ??_C@_1M@OPIHOOPI@?$AAm?$AAs?$AA?9?$AAm?$AAy?$AA?$AA@ 10024894     libucrt:lcidtoname_downlevel.obj
 0002:000058a0       ??_C@_1M@PPDBCNFM@?$AAm?$AAt?$AA?9?$AAm?$AAt?$AA?$AA@ 100248a0     libucrt:lcidtoname_downlevel.obj
 0002:000058ac       ??_C@_1M@KDJDKMDD@?$AAn?$AAb?$AA?9?$AAn?$AAo?$AA?$AA@ 100248ac     libucrt:lcidtoname_downlevel.obj
 0002:000058b8       ??_C@_1M@KFCFLMJP@?$AAn?$AAl?$AA?9?$AAb?$AAe?$AA?$AA@ 100248b8     libucrt:lcidtoname_downlevel.obj
 0002:000058c4       ??_C@_1M@KPOPDDGO@?$AAn?$AAl?$AA?9?$AAn?$AAl?$AA?$AA@ 100248c4     libucrt:lcidtoname_downlevel.obj
 0002:000058d0       ??_C@_1M@LJKPEMLN@?$AAn?$AAn?$AA?9?$AAn?$AAo?$AA?$AA@ 100248d0     libucrt:lcidtoname_downlevel.obj
 0002:000058dc       ??_C@_1M@BDGHHBFL@?$AAn?$AAs?$AA?9?$AAz?$AAa?$AA?$AA@ 100248dc     libucrt:lcidtoname_downlevel.obj
 0002:000058e8       ??_C@_1M@IDEHOAP@?$AAp?$AAa?$AA?9?$AAi?$AAn?$AA?$AA@ 100248e8     libucrt:lcidtoname_downlevel.obj
 0002:000058f4       ??_C@_1M@HDBKGOGH@?$AAp?$AAl?$AA?9?$AAp?$AAl?$AA?$AA@ 100248f4     libucrt:lcidtoname_downlevel.obj
 0002:00005900       ??_C@_1M@LJLLCMEH@?$AAp?$AAt?$AA?9?$AAb?$AAr?$AA?$AA@ 10024900     libucrt:lcidtoname_downlevel.obj
 0002:0000590c       ??_C@_1M@NCMONAAL@?$AAp?$AAt?$AA?9?$AAp?$AAt?$AA?$AA@ 1002490c     libucrt:lcidtoname_downlevel.obj
 0002:00005918       ??_C@_1O@EAKMAJDN@?$AAq?$AAu?$AAz?$AA?9?$AAb?$AAo?$AA?$AA@ 10024918     libucrt:lcidtoname_downlevel.obj
 0002:00005928       ??_C@_1O@BHHPIGDN@?$AAq?$AAu?$AAz?$AA?9?$AAe?$AAc?$AA?$AA@ 10024928     libucrt:lcidtoname_downlevel.obj
 0002:00005938       ??_C@_1O@GBAPEKMJ@?$AAq?$AAu?$AAz?$AA?9?$AAp?$AAe?$AA?$AA@ 10024938     libucrt:lcidtoname_downlevel.obj
 0002:00005948       ??_C@_1M@CLGLEFBO@?$AAr?$AAo?$AA?9?$AAr?$AAo?$AA?$AA@ 10024948     libucrt:lcidtoname_downlevel.obj
 0002:00005954       ??_C@_1M@CEEDODME@?$AAr?$AAu?$AA?9?$AAr?$AAu?$AA?$AA@ 10024954     libucrt:lcidtoname_downlevel.obj
 0002:00005960       ??_C@_1M@HPKKKMPP@?$AAs?$AAa?$AA?9?$AAi?$AAn?$AA?$AA@ 10024960     libucrt:lcidtoname_downlevel.obj
 0002:0000596c       ??_C@_1M@BKMAIGOJ@?$AAs?$AAe?$AA?9?$AAf?$AAi?$AA?$AA@ 1002496c     libucrt:lcidtoname_downlevel.obj
 0002:00005978       ??_C@_1M@NDPIFLFI@?$AAs?$AAe?$AA?9?$AAn?$AAo?$AA?$AA@ 10024978     libucrt:lcidtoname_downlevel.obj
 0002:00005984       ??_C@_1M@DANKKHJ@?$AAs?$AAe?$AA?9?$AAs?$AAe?$AA?$AA@ 10024984     libucrt:lcidtoname_downlevel.obj
 0002:00005990       ??_C@_1M@PNBLONPJ@?$AAs?$AAk?$AA?9?$AAs?$AAk?$AA?$AA@ 10024990     libucrt:lcidtoname_downlevel.obj
 0002:0000599c       ??_C@_1M@LFMODOAL@?$AAs?$AAl?$AA?9?$AAs?$AAi?$AA?$AA@ 1002499c     libucrt:lcidtoname_downlevel.obj
 0002:000059a8       ??_C@_1O@DFKOMPG@?$AAs?$AAm?$AAa?$AA?9?$AAn?$AAo?$AA?$AA@ 100249a8     libucrt:lcidtoname_downlevel.obj
 0002:000059b8       ??_C@_1O@NDKPBNNH@?$AAs?$AAm?$AAa?$AA?9?$AAs?$AAe?$AA?$AA@ 100249b8     libucrt:lcidtoname_downlevel.obj
 0002:000059c8       ??_C@_1O@PLLKBHAB@?$AAs?$AAm?$AAj?$AA?9?$AAn?$AAo?$AA?$AA@ 100249c8     libucrt:lcidtoname_downlevel.obj
 0002:000059d8       ??_C@_1O@CLEPOGCA@?$AAs?$AAm?$AAj?$AA?9?$AAs?$AAe?$AA?$AA@ 100249d8     libucrt:lcidtoname_downlevel.obj
 0002:000059e8       ??_C@_1O@DLGJGKMK@?$AAs?$AAm?$AAn?$AA?9?$AAf?$AAi?$AA?$AA@ 100249e8     libucrt:lcidtoname_downlevel.obj
 0002:000059f8       ??_C@_1O@OJDJGAJC@?$AAs?$AAm?$AAs?$AA?9?$AAf?$AAi?$AA?$AA@ 100249f8     libucrt:lcidtoname_downlevel.obj
 0002:00005a08       ??_C@_1M@BOFOGHPB@?$AAs?$AAq?$AA?9?$AAa?$AAl?$AA?$AA@ 10024a08     libucrt:lcidtoname_downlevel.obj
 0002:00005a14       ??_C@_1BG@LJBBIPGB@?$AAs?$AAr?$AA?9?$AAb?$AAa?$AA?9?$AAc?$AAy?$AAr?$AAl?$AA?$AA@ 10024a14     libucrt:lcidtoname_downlevel.obj
 0002:00005a2c       ??_C@_1BG@JLBENFOE@?$AAs?$AAr?$AA?9?$AAb?$AAa?$AA?9?$AAl?$AAa?$AAt?$AAn?$AA?$AA@ 10024a2c     libucrt:lcidtoname_downlevel.obj
 0002:00005a44       ??_C@_1BG@KODPNHE@?$AAs?$AAr?$AA?9?$AAs?$AAp?$AA?9?$AAc?$AAy?$AAr?$AAl?$AA?$AA@ 10024a44     libucrt:lcidtoname_downlevel.obj
 0002:00005a5c       ??_C@_1BG@CIOGKHPB@?$AAs?$AAr?$AA?9?$AAs?$AAp?$AA?9?$AAl?$AAa?$AAt?$AAn?$AA?$AA@ 10024a5c     libucrt:lcidtoname_downlevel.obj
 0002:00005a74       ??_C@_1M@NGFJLMAC@?$AAs?$AAv?$AA?9?$AAf?$AAi?$AA?$AA@ 10024a74     libucrt:lcidtoname_downlevel.obj
 0002:00005a80       ??_C@_1M@MPJEJAJC@?$AAs?$AAv?$AA?9?$AAs?$AAe?$AA?$AA@ 10024a80     libucrt:lcidtoname_downlevel.obj
 0002:00005a8c       ??_C@_1M@MPNDHLFK@?$AAs?$AAw?$AA?9?$AAk?$AAe?$AA?$AA@ 10024a8c     libucrt:lcidtoname_downlevel.obj
 0002:00005a98       ??_C@_1O@KOHBJJI@?$AAs?$AAy?$AAr?$AA?9?$AAs?$AAy?$AA?$AA@ 10024a98     libucrt:lcidtoname_downlevel.obj
 0002:00005aa8       ??_C@_1M@LDCEFHA@?$AAt?$AAa?$AA?9?$AAi?$AAn?$AA?$AA@ 10024aa8     libucrt:lcidtoname_downlevel.obj
 0002:00005ab4       ??_C@_1M@CNJOFAK@?$AAt?$AAe?$AA?9?$AAi?$AAn?$AA?$AA@ 10024ab4     libucrt:lcidtoname_downlevel.obj
 0002:00005ac0       ??_C@_1M@GNAECACD@?$AAt?$AAh?$AA?9?$AAt?$AAh?$AA?$AA@ 10024ac0     libucrt:lcidtoname_downlevel.obj
 0002:00005acc       ??_C@_1M@CHBIHOJO@?$AAt?$AAn?$AA?9?$AAz?$AAa?$AA?$AA@ 10024acc     libucrt:lcidtoname_downlevel.obj
 0002:00005ad8       ??_C@_1M@GCCMIGPJ@?$AAt?$AAr?$AA?9?$AAt?$AAr?$AA?$AA@ 10024ad8     libucrt:lcidtoname_downlevel.obj
 0002:00005ae4       ??_C@_1M@CELMCNBK@?$AAt?$AAt?$AA?9?$AAr?$AAu?$AA?$AA@ 10024ae4     libucrt:lcidtoname_downlevel.obj
 0002:00005af0       ??_C@_1M@KLMCELGA@?$AAu?$AAk?$AA?9?$AAu?$AAa?$AA?$AA@ 10024af0     libucrt:lcidtoname_downlevel.obj
 0002:00005afc       ??_C@_1M@EPAJJAJF@?$AAu?$AAr?$AA?9?$AAp?$AAk?$AA?$AA@ 10024afc     libucrt:lcidtoname_downlevel.obj
 0002:00005b08       ??_C@_1BG@GEGPMCDJ@?$AAu?$AAz?$AA?9?$AAu?$AAz?$AA?9?$AAc?$AAy?$AAr?$AAl?$AA?$AA@ 10024b08     libucrt:lcidtoname_downlevel.obj
 0002:00005b20       ??_C@_1BG@EGGKJILM@?$AAu?$AAz?$AA?9?$AAu?$AAz?$AA?9?$AAl?$AAa?$AAt?$AAn?$AA?$AA@ 10024b20     libucrt:lcidtoname_downlevel.obj
 0002:00005b38       ??_C@_1M@GFOCLFF@?$AAv?$AAi?$AA?9?$AAv?$AAn?$AA?$AA@ 10024b38     libucrt:lcidtoname_downlevel.obj
 0002:00005b44       ??_C@_1M@CPAMEDFI@?$AAx?$AAh?$AA?9?$AAz?$AAa?$AA?$AA@ 10024b44     libucrt:lcidtoname_downlevel.obj
 0002:00005b50       ??_C@_1O@EBKIFIGN@?$AAz?$AAh?$AA?9?$AAc?$AAh?$AAs?$AA?$AA@ 10024b50     libucrt:lcidtoname_downlevel.obj
 0002:00005b60       ??_C@_1O@NMHPGANE@?$AAz?$AAh?$AA?9?$AAc?$AAh?$AAt?$AA?$AA@ 10024b60     libucrt:lcidtoname_downlevel.obj
 0002:00005b70       ??_C@_1M@LPINJOMC@?$AAz?$AAh?$AA?9?$AAc?$AAn?$AA?$AA@ 10024b70     libucrt:lcidtoname_downlevel.obj
 0002:00005b7c       ??_C@_1M@OCJEJODD@?$AAz?$AAh?$AA?9?$AAh?$AAk?$AA?$AA@ 10024b7c     libucrt:lcidtoname_downlevel.obj
 0002:00005b88       ??_C@_1M@DNDLJINH@?$AAz?$AAh?$AA?9?$AAm?$AAo?$AA?$AA@ 10024b88     libucrt:lcidtoname_downlevel.obj
 0002:00005b94       ??_C@_1M@MBFDNDND@?$AAz?$AAh?$AA?9?$AAs?$AAg?$AA?$AA@ 10024b94     libucrt:lcidtoname_downlevel.obj
 0002:00005ba0       ??_C@_1M@IMEPLEPE@?$AAz?$AAh?$AA?9?$AAt?$AAw?$AA?$AA@ 10024ba0     libucrt:lcidtoname_downlevel.obj
 0002:00005bac       ??_C@_1M@BBGHNHJP@?$AAz?$AAu?$AA?9?$AAz?$AAa?$AA?$AA@ 10024bac     libucrt:lcidtoname_downlevel.obj
 0002:00005bb8       ?large_power_data@?1??multiply_by_power_of_ten@__crt_strtox@@YA_NAAUbig_integer@2@I@Z@4QBIB 10024bb8     libucrt:cfout.obj
 0002:000064c0       ?large_power_indices@?1??multiply_by_power_of_ten@__crt_strtox@@YA_NAAUbig_integer@2@I@Z@4QBUunpack_index@?1??12@YA_N0I@Z@B 100254c0     libucrt:cfout.obj
 0002:00006558       ?small_powers_of_ten@?1??multiply_by_power_of_ten@__crt_strtox@@YA_NAAUbig_integer@2@I@Z@4QBIB 10025558     libucrt:cfout.obj
 0002:0000657c       ??_C@_01GBGANLPD@0?$AA@    1002557c     libucrt:cfout.obj
 0002:00006580       ??_C@_05DNEBIAHO@1?$CDINF?$AA@ 10025580     libucrt:cfout.obj
 0002:00006588       ??_C@_06IMKFLFPG@1?$CDQNAN?$AA@ 10025588     libucrt:cfout.obj
 0002:00006590       ??_C@_06PGGFOGJG@1?$CDSNAN?$AA@ 10025590     libucrt:cfout.obj
 0002:00006598       ??_C@_05PHHOCPM@1?$CDIND?$AA@ 10025598     libucrt:cfout.obj
 0002:00006700       __infinity                 10025700     libucrt:87tran.obj
 0002:0000670a       __minfinity                1002570a     libucrt:87tran.obj
 0002:00006714       __logemax                  10025714     libucrt:87tran.obj
 0002:0000673a       __OP_EXPjmptab             1002573a     libucrt:87tran.obj
 0002:00006760       __indefinite               10025760     libucrt:87disp.obj
 0002:0000676a       __piby2                    1002576a     libucrt:87disp.obj
 0002:00006774       __piby4                    10025774     libucrt:87disp.obj
 0002:000067a8       __DEFAULT_CW_in_mem        100257a8     libucrt:common.obj
 0002:000067aa       __pi_by_2_to_61            100257aa     libucrt:common.obj
 0002:000067e4       ??_C@_03MGHMBJCF@log?$AA@  100257e4     libucrt:libm_error.obj
 0002:000067e8       ??_C@_05HGHHAHAP@log10?$AA@ 100257e8     libucrt:libm_error.obj
 0002:000067f0       ??_C@_03KHJOGHMM@exp?$AA@  100257f0     libucrt:libm_error.obj
 0002:000067f4       ??_C@_03JGHBODFD@pow?$AA@  100257f4     libucrt:libm_error.obj
 0002:000067f8       ??_C@_04FIHNOPOL@asin?$AA@ 100257f8     libucrt:libm_error.obj
 0002:00006800       ??_C@_04PDIFKINK@acos?$AA@ 10025800     libucrt:libm_error.obj
 0002:00006808       ??_C@_04EIAKFFMI@sqrt?$AA@ 10025808     libucrt:libm_error.obj
 0002:00006810       __real@3ff0000000000000    10025810     libucrt:libm_error.obj
 0002:00006830       ___acrt_log10_table_t      10025830     libucrt:log10_tables.obj
 0002:00006c40       ___acrt_log10_table_cb     10025c40     libucrt:log10_tables.obj
 0002:00007050       __real@3fe0000000000000    10026050     libucrt:powhlp.obj
 0002:00007140       ??_C@_04COOMCNPB@sinh?$AA@ 10026140     libucrt:fpexcept.obj
 0002:00007148       ??_C@_04HPJJNFIM@cosh?$AA@ 10026148     libucrt:fpexcept.obj
 0002:00007150       ??_C@_04FJHINJAO@tanh?$AA@ 10026150     libucrt:fpexcept.obj
 0002:00007158       ??_C@_04MLLJIGOK@atan?$AA@ 10026158     libucrt:fpexcept.obj
 0002:00007160       ??_C@_05KNGEOGJB@atan2?$AA@ 10026160     libucrt:fpexcept.obj
 0002:00007168       ??_C@_03BLEJJJBH@sin?$AA@  10026168     libucrt:fpexcept.obj
 0002:0000716c       ??_C@_03LALBNOCG@cos?$AA@  1002616c     libucrt:fpexcept.obj
 0002:00007170       ??_C@_03IIINPABG@tan?$AA@  10026170     libucrt:fpexcept.obj
 0002:00007174       ??_C@_04GFPJNGEK@ceil?$AA@ 10026174     libucrt:fpexcept.obj
 0002:0000717c       ??_C@_05PBJFFIGL@floor?$AA@ 1002617c     libucrt:fpexcept.obj
 0002:00007184       ??_C@_04ODHECPBC@fabs?$AA@ 10026184     libucrt:fpexcept.obj
 0002:0000718c       ??_C@_04EHEDPDJG@modf?$AA@ 1002618c     libucrt:fpexcept.obj
 0002:00007194       ??_C@_05CEJMAHNP@ldexp?$AA@ 10026194     libucrt:fpexcept.obj
 0002:0000719c       ??_C@_05KBKMEMPO@_cabs?$AA@ 1002619c     libucrt:fpexcept.obj
 0002:000071a4       ??_C@_06MEIMCGCF@_hypot?$AA@ 100261a4     libucrt:fpexcept.obj
 0002:000071ac       ??_C@_04KEPJIHGP@fmod?$AA@ 100261ac     libucrt:fpexcept.obj
 0002:000071b4       ??_C@_05GKKHEGJL@frexp?$AA@ 100261b4     libucrt:fpexcept.obj
 0002:000071bc       ??_C@_03MJLDFKDL@_y0?$AA@  100261bc     libucrt:fpexcept.obj
 0002:000071c0       ??_C@_03NAKIGLHK@_y1?$AA@  100261c0     libucrt:fpexcept.obj
 0002:000071c4       ??_C@_03ONILCKOB@_yn?$AA@  100261c4     libucrt:fpexcept.obj
 0002:000071c8       ??_C@_05JGDBENOH@_logb?$AA@ 100261c8     libucrt:fpexcept.obj
 0002:000071d0       ??_C@_0L@KDOEJCKC@_nextafter?$AA@ 100261d0     libucrt:fpexcept.obj
 0002:000071e0       __d_inf                    100261e0     libucrt:util.obj
 0002:000071e8       __d_max                    100261e8     libucrt:util.obj
 0002:000071f0       __d_mzero                  100261f0     libucrt:util.obj
 0002:000071f8       ??_C@_1BA@BALFACEM@?$AAC?$AAO?$AAN?$AAO?$AAU?$AAT?$AA$?$AA?$AA@ 100261f8     libucrt:initcon.obj
 0002:00007268       __load_config_used         10026268     LIBCMT:loadcfg.obj
 0002:00007308       __tls_used                 10026308     LIBCMT:tlssup.obj
 0002:00007320       ??_R4exception@std@@6B@    10026320     LIBCMT:throw_bad_alloc.obj
 0002:00007334       ??_R3exception@std@@8      10026334     LIBCMT:throw_bad_alloc.obj
 0002:00007344       ??_R2exception@std@@8      10026344     LIBCMT:throw_bad_alloc.obj
 0002:0000734c       ??_R1A@?0A@EA@exception@std@@8 1002634c     LIBCMT:throw_bad_alloc.obj
 0002:00007368       ??_R4bad_alloc@std@@6B@    10026368     LIBCMT:throw_bad_alloc.obj
 0002:0000737c       ??_R3bad_alloc@std@@8      1002637c     LIBCMT:throw_bad_alloc.obj
 0002:0000738c       ??_R2bad_alloc@std@@8      1002638c     LIBCMT:throw_bad_alloc.obj
 0002:00007398       ??_R1A@?0A@EA@bad_alloc@std@@8 10026398     LIBCMT:throw_bad_alloc.obj
 0002:000073b4       ??_R4bad_array_new_length@std@@6B@ 100263b4     LIBCMT:throw_bad_alloc.obj
 0002:000073c8       ??_R3bad_array_new_length@std@@8 100263c8     LIBCMT:throw_bad_alloc.obj
 0002:000073d8       ??_R2bad_array_new_length@std@@8 100263d8     LIBCMT:throw_bad_alloc.obj
 0002:000073e8       ??_R1A@?0A@EA@bad_array_new_length@std@@8 100263e8     LIBCMT:throw_bad_alloc.obj
 0002:00007404       ??_R4type_info@@6B@        10026404     LIBCMT:std_type_info_static.obj
 0002:00007418       ??_R3type_info@@8          10026418     LIBCMT:std_type_info_static.obj
 0002:00007428       ??_R2type_info@@8          10026428     LIBCMT:std_type_info_static.obj
 0002:00007430       ??_R1A@?0A@EA@type_info@@8 10026430     LIBCMT:std_type_info_static.obj
 0002:0000744c       ??_R4bad_exception@std@@6B@ 1002644c     libvcruntime:frame.obj
 0002:00007460       ??_R3bad_exception@std@@8  10026460     libvcruntime:frame.obj
 0002:00007470       ??_R2bad_exception@std@@8  10026470     libvcruntime:frame.obj
 0002:0000747c       ??_R1A@?0A@EA@bad_exception@std@@8 1002647c     libvcruntime:frame.obj
 0002:000074a0       ___safe_se_handler_table   100264a0     <linker-defined>
 0002:000078a4       ___rtc_iaa                 100268a4     LIBCMT:_initsect_.obj
 0002:000078a8       ___rtc_izz                 100268a8     LIBCMT:_initsect_.obj
 0002:000078ac       ___rtc_taa                 100268ac     LIBCMT:_initsect_.obj
 0002:000078b0       ___rtc_tzz                 100268b0     LIBCMT:_initsect_.obj
 0002:000078b4       __tls_start                100268b4     LIBCMT:tlssup.obj
 0002:000078b8       __Init_thread_epoch        100268b8     LIBCMT:thread_safe_statics.obj
 0002:000078bc       __tls_end                  100268bc     LIBCMT:tlssup.obj
 0002:000079d4       __TI2?AVbad_alloc@std@@    100269d4     LIBCMT:throw_bad_alloc.obj
 0002:000079e4       __CTA2?AVbad_alloc@std@@   100269e4     LIBCMT:throw_bad_alloc.obj
 0002:000079f0       __CT??_R0?AVbad_alloc@std@@@8??0bad_alloc@std@@QAE@ABV01@@Z12 100269f0     LIBCMT:throw_bad_alloc.obj
 0002:00007a0c       __CT??_R0?AVexception@std@@@8??0exception@std@@QAE@ABV01@@Z12 10026a0c     LIBCMT:throw_bad_alloc.obj
 0002:00007a28       __TI3?AVbad_array_new_length@std@@ 10026a28     LIBCMT:throw_bad_alloc.obj
 0002:00007a38       __CTA3?AVbad_array_new_length@std@@ 10026a38     LIBCMT:throw_bad_alloc.obj
 0002:00007a48       __CT??_R0?AVbad_array_new_length@std@@@8??0bad_array_new_length@std@@QAE@ABV01@@Z12 10026a48     LIBCMT:throw_bad_alloc.obj
 0002:00007b4c       __TI2?AVbad_exception@std@@ 10026b4c     libvcruntime:frame.obj
 0002:00007b5c       __CTA2?AVbad_exception@std@@ 10026b5c     libvcruntime:frame.obj
 0002:00007b68       __CT??_R0?AVbad_exception@std@@@8??0bad_exception@std@@QAE@ABV01@@Z12 10026b68     libvcruntime:frame.obj
 0002:00007ee4       ___pobjMapEntryFirst       10026ee4     OposVariant.obj
 0002:00007ee8       ___pobjMapEntryLast        10026ee8     OposVariant.obj
 0002:00007fa4       __IMPORT_DESCRIPTOR_KERNEL32 10026fa4     kernel32:KERNEL32.dll
 0002:00007fb8       __IMPORT_DESCRIPTOR_USER32 10026fb8     user32:USER32.dll
 0002:00007fcc       __IMPORT_DESCRIPTOR_GDI32  10026fcc     gdi32:GDI32.dll
 0002:00007fe0       __IMPORT_DESCRIPTOR_ADVAPI32 10026fe0     advapi32:ADVAPI32.dll
 0002:00007ff4       __IMPORT_DESCRIPTOR_ole32  10026ff4     ole32:ole32.dll
 0002:00008008       __IMPORT_DESCRIPTOR_OLEAUT32 10027008     oleaut32:OLEAUT32.dll
 0002:0000801c       __NULL_IMPORT_DESCRIPTOR   1002701c     kernel32:KERNEL32.dll
 0003:00000000       ?_tih@?$IProvideClassInfo2Impl@$1?CLSID_OPOSElectronicJournal@@3U_GUID@@B$1?DIID__IOPOSElectronicJournalEvents@@3U2@B$1?LIBID_OposElectronicJournal_CCO@@3U2@B$00$0A@VCComTypeInfoHolder@ATL@@@ATL@@1VCComTypeInfoHolder@2@A 10028000     ElectronicJournal.obj
 0003:0000001c       ?vszContents@?6??Save@?$IPersistStorageImpl@VCOPOSElectronicJournal@@@ATL@@UAGJPAUIStorage@@H@Z@4PB_WB 1002801c     ElectronicJournal.obj
 0003:00000020       ?wc@?1??GetWndClassInfo@?$CWindowImpl@VCOPOSElectronicJournal@@VCWindow@ATL@@V?$CWinTraits@$0FGAAAAAA@$0A@@3@@ATL@@SAAAU_ATL_WNDCLASSINFOW@3@XZ@4U43@A 10028020     ElectronicJournal.obj
 0003:000000ac       ?s_Claim@?7??GetIDsOfNames@CComTypeInfoHolder@ATL@@QAEJABU_GUID@@PAPA_WIKPAJ@Z@4PA_WA 100280ac     ElectronicJournal.obj
 0003:000000c4       ?s_Release@?7??GetIDsOfNames@CComTypeInfoHolder@ATL@@QAEJABU_GUID@@PAPA_WIKPAJ@Z@4PA_WA 100280c4     ElectronicJournal.obj
 0003:000000e0       ?rcDefault@CWindow@ATL@@2UtagRECT@@A 100280e0     ElectronicJournal.obj
 0003:000000f0       ?_tih@?$IDispatchImpl@UIOPOSElectronicJournal@@$1?IID_IOPOSElectronicJournal@@3U_GUID@@B$1?LIBID_OposElectronicJournal_CCO@@3U3@B$00$0A@VCComTypeInfoHolder@ATL@@@ATL@@1VCComTypeInfoHolder@2@A 100280f0     ElectronicJournal.obj
 0003:00000158       ?g_ControlVersion@@3JA     10028158     ElectronicJournalImpl.obj
 0003:0000015c       ?g_WindowName@@3PA_WA      1002815c     ElectronicJournalImpl.obj
 0003:00000190       ?g_ControlDescription@@3PADA 10028190     ElectronicJournalImpl.obj
 0003:00000268       ___scrt_native_dllmain_reason 10028268     LIBCMT:utility.obj
 0003:0000026c       __Init_global_epoch        1002826c     LIBCMT:thread_safe_statics.obj
 0003:00000270       ___security_cookie_complement 10028270     LIBCMT:gs_cookie.obj
 0003:00000274       ___security_cookie         10028274     LIBCMT:gs_cookie.obj
 0003:00000278       ___isa_enabled             10028278     LIBCMT:_cpu_disp_.obj
 0003:00000290       __NLG_Destination          10028290     libvcruntime:_exsup_.obj
 0003:000002a8       ___abort_behavior          100282a8     libucrt:abort.obj
 0003:000002b8       __iob                      100282b8     libucrt:_file.obj
 0003:00000360       ___acrt_initial_locale_data 10028360     libucrt:nlsdata.obj
 0003:00000418       ___acrt_initial_locale_pointers 10028418     libucrt:nlsdata.obj
 0003:00000420       ___acrt_wide_c_locale_string 10028420     libucrt:nlsdata.obj
 0003:00000728       ___acrt_initial_multibyte_data 10028728     libucrt:mbctype.obj
 0003:00000948       __pwctype                  10028948     libucrt:ctype.obj
 0003:0000094c       ___globallocalestatus      1002894c     libucrt:glstatus.obj
 0003:00000950       ___acrt_lconv_static_decimal 10028950     libucrt:localeconv.obj
 0003:00000954       ___acrt_lconv_static_W_decimal 10028954     libucrt:localeconv.obj
 0003:00000958       ___acrt_lconv_c            10028958     libucrt:localeconv.obj
 0003:000009b0       ___dcrt_lowio_console_output_handle 100289b0     libucrt:initcon.obj
 0003:000009c0       __fltused                  100289c0     LIBCMT:fltused.obj
 0003:000009d0       ??_R0?AVbad_alloc@std@@@8  100289d0     LIBCMT:throw_bad_alloc.obj
 0003:000009ec       ??_R0?AVexception@std@@@8  100289ec     LIBCMT:throw_bad_alloc.obj
 0003:00000a08       ??_R0?AVbad_array_new_length@std@@@8 10028a08     LIBCMT:throw_bad_alloc.obj
 0003:00000a30       ??_R0?AVtype_info@@@8      10028a30     LIBCMT:std_type_info_static.obj
 0003:00000a48       ??_R0?AVbad_exception@std@@@8 10028a48     libvcruntime:frame.obj
 0003:00000a68       ?m_bInitFailed@CAtlBaseModule@ATL@@2_NA 10028a68     OposVariant.obj
 0003:00000a6c       ?_pPerfRegFunc@ATL@@3P6AJPAUHINSTANCE__@@@ZA 10028a6c     OposVariant.obj
 0003:00000a70       ?_pPerfUnRegFunc@ATL@@3P6AJXZA 10028a70     OposVariant.obj
 0003:00000a74       ?_AtlRegisterPerUser@ATL@@3_NA 10028a74     OposVariant.obj
 0003:00000a78       ?_pAtlModule@ATL@@3PAVCAtlModule@1@A 10028a78     OposVariant.obj
 0003:00000a7c       ?_pModule@ATL@@3PAVCComModule@1@A 10028a7c     OposVariant.obj
 0003:00000a80       ?_AtlComModule@ATL@@3VCAtlComModule@1@A 10028a80     OposVariant.obj
 0003:00000aa8       ?_AtlWinModule@ATL@@3VCAtlWinModule@1@A 10028aa8     OposVariant.obj
 0003:00000ad4       ?_entries@?1??GetConnMap@COPOSElectronicJournal@@SAPBU_ATL_CONNMAP_ENTRY@ATL@@PAH@Z@4QBU34@B 10028ad4     ElectronicJournal.obj
 0003:00000ae0       ?$TSS0@?1??GetConnMap@COPOSElectronicJournal@@SAPBU_ATL_CONNMAP_ENTRY@ATL@@PAH@Z@4HA 10028ae0     ElectronicJournal.obj
 0003:00000ae8       ?_OptionsStorage@?1??__local_stdio_printf_options@@9@4_KA 10028ae8     ElectronicJournal.obj
 0003:00000af0       ?m_libid@CAtlModule@ATL@@2U_GUID@@A 10028af0     ElectronicJournal.obj
 0003:00000b00       ?_Module@@3VCComModule@ATL@@A 10028b00     ElectronicJournal.obj
 0003:00000b30       ?pConnMap@?$IConnectionPointContainerImpl@VCOPOSElectronicJournal@@@ATL@@0PBU_ATL_CONNMAP_ENTRY@2@B 10028b30     ElectronicJournal.obj
 0003:00000b34       ?s_nInstances@COPOSElectronicJournal@@1HA 10028b34     ElectronicJournalImpl.obj
 0003:00000b38       ___scrt_current_native_startup_state 10028b38     LIBCMT:utility.obj
 0003:00000b3c       ___scrt_native_startup_lock 10028b3c     LIBCMT:utility.obj
 0003:00000ea4       __tls_index                10028ea4     LIBCMT:tlssup.obj
 0003:00000eac       ___isa_available           10028eac     LIBCMT:_cpu_disp_.obj
 0003:00000eb0       ___favor                   10028eb0     LIBCMT:_cpu_disp_.obj
 0003:00000eb4       ___scrt_debugger_hook_flag 10028eb4     LIBCMT:utility_desktop.obj
 0003:00000eb8       ?__type_info_root_node@@3U__type_info_node@@A 10028eb8     LIBCMT:tncleanup.obj
 0003:00000ec0       ?_OptionsStorage@?1??__local_stdio_scanf_options@@9@4_KA 10028ec0     LIBCMT:default_local_stdio_options.obj
 0003:00000ec8       ?_AtlBaseModule@ATL@@3VCAtlBaseModule@1@A 10028ec8     atls:atlbase.obj
 0003:00000f00       ?__AtlThunkPool@@3PAT_SLIST_HEADER@@A 10028f00     atls:atlthunk.obj
 0003:00000f18       ___@@_PchSym_@00@UyrmzirvhUrmgvinvwrzgvUexgllohUzgohOmzgrevkilqPBACIAJCBDBUlyqiUcIGUhgwzucOlyq@4B2008FD98C1DD4 10028f18     atls:stdafx.obj
 0003:00000f1c       ___pPurecall               10028f1c     libvcruntime:purevirt_data.obj
 0003:00000f84       ?pArgList@UnDecorator@@0PAVReplicator@@A 10028f84     libvcruntime:undname.obj
 0003:00000f88       ?pZNameList@UnDecorator@@0PAVReplicator@@A 10028f88     libvcruntime:undname.obj
 0003:00000f8c       ?pTemplateArgList@UnDecorator@@0PAVReplicator@@A 10028f8c     libvcruntime:undname.obj
 0003:00000f90       ?gName@UnDecorator@@0PBDB  10028f90     libvcruntime:undname.obj
 0003:00000f94       ?name@UnDecorator@@0PBDB   10028f94     libvcruntime:undname.obj
 0003:00000f98       ?disableFlags@UnDecorator@@0KA 10028f98     libvcruntime:undname.obj
 0003:00000f9c       ?fExplicitTemplateParams@UnDecorator@@0_NA 10028f9c     libvcruntime:undname.obj
 0003:00000f9d       ?fGetTemplateArgumentList@UnDecorator@@0_NA 10028f9d     libvcruntime:undname.obj
 0003:00000fa0       ?m_pGetParameter@UnDecorator@@0P6APADJ@ZA 10028fa0     libvcruntime:undname.obj
 0003:00000fa4       ?m_CHPENameOffset@UnDecorator@@0KA 10028fa4     libvcruntime:undname.obj
 0003:00000fa8       ?m_recursionLevel@UnDecorator@@0KA 10028fa8     libvcruntime:undname.obj
 0003:00000fc0       ?__WinRTOutOfMemoryExceptionCallback@@3P6GPAXXZA 10028fc0     libvcruntime:ehhelpers.obj
 0003:00000fd0       ?c_exit_complete@?1???R<lambda_6e4b09c48022b2350581041d5f6b0c4c>@@QBE@XZ@4_NA 10028fd0     libucrt:exit.obj
 0003:000010e0       __environ_table            100290e0     libucrt:environment_initialization.obj
 0003:000010e4       __wenviron_table           100290e4     libucrt:environment_initialization.obj
 0003:000010e8       ___dcrt_initial_wide_environment 100290e8     libucrt:environment_initialization.obj
 0003:000010ec       ___dcrt_initial_narrow_environment 100290ec     libucrt:environment_initialization.obj
 0003:000010f0       ___acrt_atexit_table       100290f0     libucrt:onexit.obj
 0003:000010fc       ___acrt_at_quick_exit_table 100290fc     libucrt:onexit.obj
 0003:000011e8       __nstream                  100291e8     libucrt:_file.obj
 0003:000011ec       ___piob                    100291ec     libucrt:_file.obj
 0003:000011f4       ___acrt_stdout_buffer      100291f4     libucrt:_sftbuf.obj
 0003:000011f8       ___acrt_stderr_buffer      100291f8     libucrt:_sftbuf.obj
 0003:000011fc       ___acrt_locale_changed_data 100291fc     libucrt:wsetlocale.obj
 0003:00001200       ___acrt_current_locale_data 10029200     libucrt:nlsdata.obj
 0003:00001208       ___pioinfo                 10029208     libucrt:ioinit.obj
 0003:00001408       __nhandle                  10029408     libucrt:ioinit.obj
 0003:00001564       __mbctype                  10029564     libucrt:mbctype.obj
 0003:00001568       __mbcasemap                10029568     libucrt:mbctype.obj
 0003:0000156c       ___acrt_current_multibyte_data 1002956c     libucrt:mbctype.obj
 0003:00001578       ___argc                    10029578     libucrt:argv_data.obj
 0003:0000157c       ___argv                    1002957c     libucrt:argv_data.obj
 0003:00001580       ___wargv                   10029580     libucrt:argv_data.obj
 0003:00001584       __acmdln                   10029584     libucrt:argv_data.obj
 0003:00001588       __wcmdln                   10029588     libucrt:argv_data.obj
 0003:0000158c       __pgmptr                   1002958c     libucrt:argv_data.obj
 0003:00001590       ___acrt_heap               10029590     libucrt:heap_handle.obj
 0003:000015ac       ___acrt_lconv_static_null  100295ac     libucrt:localeconv.obj
 0003:000015b0       ___acrt_lconv_static_W_null 100295b0     libucrt:localeconv.obj
 0003:000015b8       ___fastflag                100295b8     libucrt:fp_flags.obj
 0003:000015c0       ___dyn_tls_init_callback   100295c0     <common>
 0003:000015c4       ___scrt_ucrt_dll_is_in_use 100295c4     <common>
 0003:000015c8       __pmatherr                 100295c8     <common>
 0003:000015cc       ___use_sse2_mathfcns       100295cc     <common>

 entry point at        0001:0000c4bd

 Static symbols

 0000:fffce000       .debug$S                   10000000     kernel32:KERNEL32.dll
 0000:fffce000       .debug$S                   10000000     kernel32:KERNEL32.dll
 0000:fffce000       .debug$S                   10000000     kernel32:KERNEL32.dll
 0000:fffce000       .debug$S                   10000000     kernel32:KERNEL32.dll
 0000:fffce000       .debug$S                   10000000     kernel32:KERNEL32.dll
 0000:fffce000       .debug$S                   10000000     kernel32:KERNEL32.dll
 0000:fffce000       .debug$S                   10000000     kernel32:KERNEL32.dll
 0000:fffce000       .debug$S                   10000000     kernel32:KERNEL32.dll
 0000:fffce000       .debug$S                   10000000     kernel32:KERNEL32.dll
 0000:fffce000       .debug$S                   10000000     kernel32:KERNEL32.dll
 0000:fffce000       .debug$S                   10000000     kernel32:KERNEL32.dll
 0000:fffce000       .debug$S                   10000000     kernel32:KERNEL32.dll
 0000:fffce000       .debug$S                   10000000     kernel32:KERNEL32.dll
 0000:fffce000       .debug$S                   10000000     kernel32:KERNEL32.dll
 0000:fffce000       .debug$S                   10000000     kernel32:KERNEL32.dll
 0000:fffce000       .debug$S                   10000000     OPOSElectronicJournal.exp
 0000:fffce000       .debug$S                   10000000     kernel32:KERNEL32.dll
 0000:fffce000       .debug$S                   10000000     kernel32:KERNEL32.dll
 0000:fffce000       .debug$S                   10000000     kernel32:KERNEL32.dll
 0000:fffce000       .debug$S                   10000000     kernel32:KERNEL32.dll
 0000:fffce000       .debug$S                   10000000     kernel32:KERNEL32.dll
 0000:fffce000       .debug$S                   10000000     kernel32:KERNEL32.dll
 0000:fffce000       .debug$S                   10000000     kernel32:KERNEL32.dll
 0000:fffce000       .debug$S                   10000000     kernel32:KERNEL32.dll
 0000:fffce000       .debug$S                   10000000     kernel32:KERNEL32.dll
 0000:fffce000       .debug$S                   10000000     kernel32:KERNEL32.dll
 0000:fffce000       .debug$S                   10000000     kernel32:KERNEL32.dll
 0000:fffce000       .debug$S                   10000000     kernel32:KERNEL32.dll
 0000:fffce000       .debug$S                   10000000     kernel32:KERNEL32.dll
 0000:fffce000       .debug$S                   10000000     kernel32:KERNEL32.dll
 0000:fffce000       .debug$S                   10000000     kernel32:KERNEL32.dll
 0000:fffce000       .debug$S                   10000000     kernel32:KERNEL32.dll
 0000:fffce000       .debug$S                   10000000     kernel32:KERNEL32.dll
 0000:fffce000       .debug$S                   10000000     kernel32:KERNEL32.dll
 0000:fffce000       .debug$S                   10000000     kernel32:KERNEL32.dll
 0000:fffce000       .debug$S                   10000000     kernel32:KERNEL32.dll
 0000:fffce000       .debug$S                   10000000     kernel32:KERNEL32.dll
 0000:fffce000       .debug$S                   10000000     kernel32:KERNEL32.dll
 0000:fffce000       .debug$S                   10000000     kernel32:KERNEL32.dll
 0000:fffce000       .debug$S                   10000000     kernel32:KERNEL32.dll
 0000:fffce000       .debug$S                   10000000     kernel32:KERNEL32.dll
 0000:fffce000       .debug$S                   10000000     kernel32:KERNEL32.dll
 0000:fffce000       .debug$S                   10000000     kernel32:KERNEL32.dll
 0000:fffce000       .debug$S                   10000000     kernel32:KERNEL32.dll
 0000:fffce000       .debug$S                   10000000     kernel32:KERNEL32.dll
 0000:fffce000       .debug$S                   10000000     kernel32:KERNEL32.dll
 0000:fffce000       .debug$S                   10000000     kernel32:KERNEL32.dll
 0000:fffce000       .debug$S                   10000000     kernel32:KERNEL32.dll
 0000:fffce000       .debug$S                   10000000     kernel32:KERNEL32.dll
 0000:fffce000       .debug$S                   10000000     kernel32:KERNEL32.dll
 0000:fffce000       .debug$S                   10000000     kernel32:KERNEL32.dll
 0000:fffce000       .debug$S                   10000000     kernel32:KERNEL32.dll
 0000:fffce000       .debug$S                   10000000     kernel32:KERNEL32.dll
 0000:fffce000       .debug$S                   10000000     kernel32:KERNEL32.dll
 0000:fffce000       .debug$S                   10000000     kernel32:KERNEL32.dll
 0000:fffce000       .debug$S                   10000000     kernel32:KERNEL32.dll
 0000:fffce000       .debug$S                   10000000     kernel32:KERNEL32.dll
 0000:fffce000       .debug$S                   10000000     kernel32:KERNEL32.dll
 0000:fffce000       .debug$S                   10000000     kernel32:KERNEL32.dll
 0000:fffce000       .debug$S                   10000000     kernel32:KERNEL32.dll
 0000:fffce000       .debug$S                   10000000     kernel32:KERNEL32.dll
 0000:fffce000       .debug$S                   10000000     kernel32:KERNEL32.dll
 0000:fffce000       .debug$S                   10000000     kernel32:KERNEL32.dll
 0000:fffce000       .debug$S                   10000000     kernel32:KERNEL32.dll
 0000:fffce000       .debug$S                   10000000     kernel32:KERNEL32.dll
 0000:fffce000       .debug$S                   10000000     kernel32:KERNEL32.dll
 0000:fffce000       .debug$S                   10000000     kernel32:KERNEL32.dll
 0000:fffce000       .debug$S                   10000000     kernel32:KERNEL32.dll
 0000:fffce000       .debug$S                   10000000     kernel32:KERNEL32.dll
 0000:fffce000       .debug$S                   10000000     kernel32:KERNEL32.dll
 0000:fffce000       .debug$S                   10000000     kernel32:KERNEL32.dll
 0000:fffce000       .debug$S                   10000000     kernel32:KERNEL32.dll
 0000:fffce000       .debug$S                   10000000     kernel32:KERNEL32.dll
 0000:fffce000       .debug$S                   10000000     kernel32:KERNEL32.dll
 0000:fffce000       .debug$S                   10000000     kernel32:KERNEL32.dll
 0000:fffce000       .debug$S                   10000000     kernel32:KERNEL32.dll
 0000:fffce000       .debug$S                   10000000     kernel32:KERNEL32.dll
 0000:fffce000       .debug$S                   10000000     kernel32:KERNEL32.dll
 0000:fffce000       .debug$S                   10000000     kernel32:KERNEL32.dll
 0000:fffce000       .debug$S                   10000000     kernel32:KERNEL32.dll
 0000:fffce000       .debug$S                   10000000     kernel32:KERNEL32.dll
 0000:fffce000       .debug$S                   10000000     kernel32:KERNEL32.dll
 0000:fffce000       .debug$S                   10000000     kernel32:KERNEL32.dll
 0000:fffce000       .debug$S                   10000000     kernel32:KERNEL32.dll
 0000:fffce000       .debug$S                   10000000     kernel32:KERNEL32.dll
 0000:fffce000       .debug$S                   10000000     kernel32:KERNEL32.dll
 0000:fffce000       .debug$S                   10000000     kernel32:KERNEL32.dll
 0000:fffce000       .debug$S                   10000000     kernel32:KERNEL32.dll
 0000:fffce000       .debug$S                   10000000     kernel32:KERNEL32.dll
 0000:fffce000       .debug$S                   10000000     kernel32:KERNEL32.dll
 0000:fffce000       .debug$S                   10000000     kernel32:KERNEL32.dll
 0000:fffce000       .debug$S                   10000000     kernel32:KERNEL32.dll
 0000:fffce000       .debug$S                   10000000     kernel32:KERNEL32.dll
 0000:fffce000       .debug$S                   10000000     kernel32:KERNEL32.dll
 0000:fffce000       .debug$S                   10000000     kernel32:KERNEL32.dll
 0000:fffce000       .debug$S                   10000000     kernel32:KERNEL32.dll
 0000:fffce000       .debug$S                   10000000     kernel32:KERNEL32.dll
 0000:fffce000       .debug$S                   10000000     kernel32:KERNEL32.dll
 0000:fffce000       .debug$S                   10000000     kernel32:KERNEL32.dll
 0000:fffce000       .debug$S                   10000000     kernel32:KERNEL32.dll
 0000:fffce000       .debug$S                   10000000     kernel32:KERNEL32.dll
 0000:fffce000       .debug$S                   10000000     kernel32:KERNEL32.dll
 0000:fffce000       .debug$S                   10000000     kernel32:KERNEL32.dll
 0000:fffce000       .debug$S                   10000000     kernel32:KERNEL32.dll
 0000:fffce000       .debug$S                   10000000     kernel32:KERNEL32.dll
 0000:fffce000       .debug$S                   10000000     kernel32:KERNEL32.dll
 0000:fffce000       .debug$S                   10000000     kernel32:KERNEL32.dll
 0000:fffce000       .debug$S                   10000000     kernel32:KERNEL32.dll
 0000:fffce000       .debug$S                   10000000     user32:USER32.dll
 0000:fffce000       .debug$S                   10000000     user32:USER32.dll
 0000:fffce000       .debug$S                   10000000     user32:USER32.dll
 0000:fffce000       .debug$S                   10000000     user32:USER32.dll
 0000:fffce000       .debug$S                   10000000     user32:USER32.dll
 0000:fffce000       .debug$S                   10000000     user32:USER32.dll
 0000:fffce000       .debug$S                   10000000     user32:USER32.dll
 0000:fffce000       .debug$S                   10000000     user32:USER32.dll
 0000:fffce000       .debug$S                   10000000     user32:USER32.dll
 0000:fffce000       .debug$S                   10000000     user32:USER32.dll
 0000:fffce000       .debug$S                   10000000     user32:USER32.dll
 0000:fffce000       .debug$S                   10000000     user32:USER32.dll
 0000:fffce000       .debug$S                   10000000     user32:USER32.dll
 0000:fffce000       .debug$S                   10000000     user32:USER32.dll
 0000:fffce000       .debug$S                   10000000     user32:USER32.dll
 0000:fffce000       .debug$S                   10000000     user32:USER32.dll
 0000:fffce000       .debug$S                   10000000     user32:USER32.dll
 0000:fffce000       .debug$S                   10000000     user32:USER32.dll
 0000:fffce000       .debug$S                   10000000     user32:USER32.dll
 0000:fffce000       .debug$S                   10000000     user32:USER32.dll
 0000:fffce000       .debug$S                   10000000     user32:USER32.dll
 0000:fffce000       .debug$S                   10000000     user32:USER32.dll
 0000:fffce000       .debug$S                   10000000     user32:USER32.dll
 0000:fffce000       .debug$S                   10000000     user32:USER32.dll
 0000:fffce000       .debug$S                   10000000     user32:USER32.dll
 0000:fffce000       .debug$S                   10000000     user32:USER32.dll
 0000:fffce000       .debug$S                   10000000     user32:USER32.dll
 0000:fffce000       .debug$S                   10000000     user32:USER32.dll
 0000:fffce000       .debug$S                   10000000     user32:USER32.dll
 0000:fffce000       .debug$S                   10000000     user32:USER32.dll
 0000:fffce000       .debug$S                   10000000     user32:USER32.dll
 0000:fffce000       .debug$S                   10000000     user32:USER32.dll
 0000:fffce000       .debug$S                   10000000     user32:USER32.dll
 0000:fffce000       .debug$S                   10000000     user32:USER32.dll
 0000:fffce000       .debug$S                   10000000     user32:USER32.dll
 0000:fffce000       .debug$S                   10000000     gdi32:GDI32.dll
 0000:fffce000       .debug$S                   10000000     gdi32:GDI32.dll
 0000:fffce000       .debug$S                   10000000     gdi32:GDI32.dll
 0000:fffce000       .debug$S                   10000000     gdi32:GDI32.dll
 0000:fffce000       .debug$S                   10000000     gdi32:GDI32.dll
 0000:fffce000       .debug$S                   10000000     gdi32:GDI32.dll
 0000:fffce000       .debug$S                   10000000     gdi32:GDI32.dll
 0000:fffce000       .debug$S                   10000000     gdi32:GDI32.dll
 0000:fffce000       .debug$S                   10000000     gdi32:GDI32.dll
 0000:fffce000       .debug$S                   10000000     gdi32:GDI32.dll
 0000:fffce000       .debug$S                   10000000     gdi32:GDI32.dll
 0000:fffce000       .debug$S                   10000000     gdi32:GDI32.dll
 0000:fffce000       .debug$S                   10000000     gdi32:GDI32.dll
 0000:fffce000       .debug$S                   10000000     gdi32:GDI32.dll
 0000:fffce000       .debug$S                   10000000     gdi32:GDI32.dll
 0000:fffce000       .debug$S                   10000000     gdi32:GDI32.dll
 0000:fffce000       .debug$S                   10000000     gdi32:GDI32.dll
 0000:fffce000       .debug$S                   10000000     gdi32:GDI32.dll
 0000:fffce000       .debug$S                   10000000     gdi32:GDI32.dll
 0000:fffce000       .debug$S                   10000000     advapi32:ADVAPI32.dll
 0000:fffce000       .debug$S                   10000000     advapi32:ADVAPI32.dll
 0000:fffce000       .debug$S                   10000000     advapi32:ADVAPI32.dll
 0000:fffce000       .debug$S                   10000000     advapi32:ADVAPI32.dll
 0000:fffce000       .debug$S                   10000000     advapi32:ADVAPI32.dll
 0000:fffce000       .debug$S                   10000000     advapi32:ADVAPI32.dll
 0000:fffce000       .debug$S                   10000000     advapi32:ADVAPI32.dll
 0000:fffce000       .debug$S                   10000000     advapi32:ADVAPI32.dll
 0000:fffce000       .debug$S                   10000000     advapi32:ADVAPI32.dll
 0000:fffce000       .debug$S                   10000000     ole32:ole32.dll
 0000:fffce000       .debug$S                   10000000     ole32:ole32.dll
 0000:fffce000       .debug$S                   10000000     ole32:ole32.dll
 0000:fffce000       .debug$S                   10000000     ole32:ole32.dll
 0000:fffce000       .debug$S                   10000000     ole32:ole32.dll
 0000:fffce000       .debug$S                   10000000     ole32:ole32.dll
 0000:fffce000       .debug$S                   10000000     ole32:ole32.dll
 0000:fffce000       .debug$S                   10000000     ole32:ole32.dll
 0000:fffce000       .debug$S                   10000000     ole32:ole32.dll
 0000:fffce000       .debug$S                   10000000     ole32:ole32.dll
 0000:fffce000       .debug$S                   10000000     ole32:ole32.dll
 0000:fffce000       .debug$S                   10000000     ole32:ole32.dll
 0000:fffce000       .debug$S                   10000000     ole32:ole32.dll
 0000:fffce000       .debug$S                   10000000     ole32:ole32.dll
 0000:fffce000       .debug$S                   10000000     oleaut32:OLEAUT32.dll
 0000:fffce000       .debug$S                   10000000     oleaut32:OLEAUT32.dll
 0000:fffce000       .debug$S                   10000000     oleaut32:OLEAUT32.dll
 0000:fffce000       .debug$S                   10000000     oleaut32:OLEAUT32.dll
 0000:fffce000       .debug$S                   10000000     oleaut32:OLEAUT32.dll
 0000:fffce000       .debug$S                   10000000     oleaut32:OLEAUT32.dll
 0000:fffce000       .debug$S                   10000000     oleaut32:OLEAUT32.dll
 0000:fffce000       .debug$S                   10000000     oleaut32:OLEAUT32.dll
 0000:fffce000       .debug$S                   10000000     oleaut32:OLEAUT32.dll
 0000:fffce000       .debug$S                   10000000     oleaut32:OLEAUT32.dll
 0000:fffce000       .debug$S                   10000000     oleaut32:OLEAUT32.dll
 0000:fffce000       .debug$S                   10000000     oleaut32:OLEAUT32.dll
 0000:fffce000       .debug$S                   10000000     oleaut32:OLEAUT32.dll
 0000:fffce000       .debug$S                   10000000     oleaut32:OLEAUT32.dll
 0000:fffce000       .debug$S                   10000000     oleaut32:OLEAUT32.dll
 0000:fffce000       .debug$S                   10000000     oleaut32:OLEAUT32.dll
 0001:00000000       ??__E_AtlComModule@ATL@@YAXXZ 10001000 f   OposVariant.obj
 0001:00000016       ??__E_AtlWinModule@ATL@@YAXXZ 10001016 f   OposVariant.obj
 0001:0000002c       ??__E?pConnMap@?$IConnectionPointContainerImpl@VCOPOSElectronicJournal@@@ATL@@0PBU_ATL_CONNMAP_ENTRY@2@B@@YAXXZ 1000102c f   ElectronicJournal.obj
 0001:0000003a       ??__E_Module@@YAXXZ        1000103a f   ElectronicJournal.obj
 0001:00000064       ??__E_AtlBaseModule@ATL@@YAXXZ 10001064 f   atls:atlbase.obj
 0001:0000286a       $LN37                      1000386a     ElectronicJournal.obj
 0001:00005de7       $LN53                      10006de7     ElectronicJournal.obj
 0001:00005dff       $LN49                      10006dff     ElectronicJournal.obj
 0001:00007c37       $LN45                      10008c37     ElectronicJournal.obj
 0001:00007c4f       $LN36                      10008c4f     ElectronicJournal.obj
 0001:00009202       $LN87                      1000a202     ElectronicJournal.obj
 0001:0000921a       $LN81                      1000a21a     ElectronicJournal.obj
 0001:000094f8       _memcpy_s                  1000a4f8 f   ElectronicJournal.obj
 0001:0000b8b3       ?find_pe_section@@YAPAU_IMAGE_SECTION_HEADER@@QAEI@Z 1000c8b3 f   LIBCMT:utility.obj
 0001:0000bbfe       ?__scrt_initialize_thread_safe_statics@@YAHXZ 1000cbfe f   LIBCMT:thread_safe_statics.obj
 0001:0000bc25       ?__scrt_initialize_thread_safe_statics_platform_specific@@YAXXZ 1000cc25 f   LIBCMT:thread_safe_statics.obj
 0001:0000bd14       ?__scrt_uninitialize_thread_safe_statics@@YAXXZ 1000cd14 f   LIBCMT:thread_safe_statics.obj
 0001:0000c0a1       __catch$??2@YAPAXIABUnothrow_t@std@@@Z$0 1000d0a1 f   LIBCMT:new_scalar_nothrow.obj
 0001:0000c0e0       $$000000                   1000d0e0     LIBCMT:_sehprolg4gs_.obj
 0001:0000c140       $$000000                   1000d140     LIBCMT:alloca16.obj
 0001:0000c170       $$000000                   1000d170     LIBCMT:chkstk.obj
 0001:0000c19d       ?dllmain_crt_dispatch@@YGHQAUHINSTANCE__@@KQAX@Z 1000d19d f   LIBCMT:dll_dllmain.obj
 0001:0000c1f0       ?dllmain_crt_process_attach@@YAHQAUHINSTANCE__@@QAX@Z 1000d1f0 f   LIBCMT:dll_dllmain.obj
 0001:0000c2fa       ?dllmain_crt_process_detach@@YAH_N@Z 1000d2fa f   LIBCMT:dll_dllmain.obj
 0001:0000c38c       ?dllmain_dispatch@@YAHQAUHINSTANCE__@@KQAX@Z 1000d38c f   LIBCMT:dll_dllmain.obj
 0001:0000c492       ?dllmain_raw@@YGHQAUHINSTANCE__@@KQAX@Z 1000d492 f   LIBCMT:dll_dllmain.obj
 0001:0000c7e0       $$000000                   1000d7e0     LIBCMT:_sehprolg4_.obj
 0001:0000c83c       ___get_entropy             1000d83c f   LIBCMT:gs_support.obj
 0001:0000cb33       ??$GetProcAddressAll@P6GXPAUAtlThunkData_t@@@Z@@YAP6GXPAUAtlThunkData_t@@@ZPAP6GX0@Z@Z 1000db33 f   atls:atlthunk.obj
 0001:0000cb33       ??$GetProcAddressAll@P6GP6GJPAUHWND__@@IIJ@ZPAUAtlThunkData_t@@@Z@@YAP6GP6GJPAUHWND__@@IIJ@ZPAUAtlThunkData_t@@@ZPAP6GP6GJ0IIJ@Z1@Z@Z 1000db33 f   atls:atlthunk.obj
 0001:0000cb33       ??$GetProcAddressAll@P6GXPAUAtlThunkData_t@@PAXI@Z@@YAP6GXPAUAtlThunkData_t@@PAXI@ZPAP6GX01I@Z@Z 1000db33 f   atls:atlthunk.obj
 0001:0000cb33       ??$GetProcAddressAll@P6GPAUAtlThunkData_t@@XZ@@YAP6GPAUAtlThunkData_t@@XZPAP6GPAU0@XZ@Z 1000db33 f   atls:atlthunk.obj
 0001:0000cbe3       ?GetProcAddressSingle@@YA_NPAUHINSTANCE__@@PBDPAPAX@Z 1000dbe3 f   atls:atlthunk.obj
 0001:0000cd35       ?__InitializeThunkPool@@YAHXZ 1000dd35 f   atls:atlthunk.obj
 0001:0000d1a0       _ValidateLocalCookies      1000e1a0 f   libvcruntime:_chandler4_.obj
 0001:0000e25b       $LN1285                    1000f25b     libvcruntime:_memcmp_.obj
 0001:0000e2e0       $$000000                   1000f2e0     libvcruntime:memcpy.obj
 0001:0000e544       TrailingUpVec              1000f544     libvcruntime:memcpy.obj
 0001:0000e5f0       TrailingDownVec            1000f5f0     libvcruntime:memcpy.obj
 0001:0000e860       $$000000                   1000f860     libvcruntime:memset.obj
 0001:0000ef20       $$000000                   1000ff20     libvcruntime:memmove.obj
 0001:0000f184       TrailingUpVec              10010184     libvcruntime:memmove.obj
 0001:0000f230       TrailingDownVec            10010230     libvcruntime:memmove.obj
 0001:0000f4a0       $$000000                   100104a0     libvcruntime:_exsup4_.obj
 0001:0000f530       __unwind_handler4          10010530 f   libvcruntime:_exsup4_.obj
 0001:0000f80f       ?try_get_first_available_module@@YAPAUHINSTANCE__@@QBW4module_id@?A0x03f7da57@@0@Z 1001080f f   libvcruntime:winapi_downlevel.obj
 0001:0000f8d3       ?try_get_function@@YAPAXW4function_id@?A0x03f7da57@@QBDQBW4module_id@2@2@Z 100108d3 f   libvcruntime:winapi_downlevel.obj
 0001:0000fad3       ??$BuildCatchObjectHelperInternal@$$CBU_s_HandlerType@@@@YAHPAUEHExceptionRecord@@PAXPBU_s_HandlerType@@PBU_s_CatchableType@@@Z 10010ad3 f   libvcruntime:frame.obj
 0001:0000fc12       ??$BuildCatchObjectInternal@$$CBU_s_HandlerType@@@@YAXPAUEHExceptionRecord@@PAXPBU_s_HandlerType@@PBU_s_CatchableType@@@Z 10010c12 f   libvcruntime:frame.obj
 0001:0000fcab       ??$CatchIt@V__FrameHandler3@@@@YAXPAUEHExceptionRecord@@PAUEHRegistrationNode@@PAU_CONTEXT@@PAXPBU_s_FuncInfo@@PBU_s_HandlerType@@PBU_s_CatchableType@@PBU_s_TryBlockMapEntry@@H1E@Z 10010cab f   libvcruntime:frame.obj
 0001:0000fd2b       ??$FindHandler@V__FrameHandler3@@@@YAXPAUEHExceptionRecord@@PAUEHRegistrationNode@@PAU_CONTEXT@@PAXPBU_s_FuncInfo@@EH1@Z 10010d2b f   libvcruntime:frame.obj
 0001:000100b9       ??$FindHandlerForForeignException@V__FrameHandler3@@@@YAXPAUEHExceptionRecord@@PAUEHRegistrationNode@@PAU_CONTEXT@@PAXPBU_s_FuncInfo@@HH1@Z 100110b9 f   libvcruntime:frame.obj
 0001:000103ac       ?CallCatchBlock@@YAPAXPAUEHExceptionRecord@@PAUEHRegistrationNode@@PAU_CONTEXT@@PBU_s_FuncInfo@@PAXHK@Z 100113ac f   libvcruntime:frame.obj
 0001:00010570       ?CallUnexpected@@YAXPBU_s_ESTypeList@@@Z 10011570 f   libvcruntime:frame.obj
 0001:00010590       __catch$?CallUnexpected@@YAXPBU_s_ESTypeList@@@Z$0 10011590 f   libvcruntime:frame.obj
 0001:000105aa       ?ExFilterRethrow@@YAHPAU_EXCEPTION_POINTERS@@@Z 100115aa f   libvcruntime:frame.obj
 0001:000106f4       ?IsInExceptionSpec@@YAEPAUEHExceptionRecord@@PBU_s_ESTypeList@@@Z 100116f4 f   libvcruntime:frame.obj
 0001:000107c0       $$000000                   100117c0     libvcruntime:lowhelpr.obj
 0001:00010810       $$000000                   10011810     libvcruntime:_exsup_.obj
 0001:00010831       __unwind_handler           10011831 f   libvcruntime:_exsup_.obj
 0001:00010fbc       ??$common_tcsncpy_s@_W@@YAHQA_WIQB_WI@Z 10011fbc f   libucrt:wcsncpy_s.obj
 0001:00011094       ??$common_vsprintf@Vformat_validation_base@__crt_stdio_output@@_W@@YAH_KQA_WIQB_WQAU__crt_locale_pointers@@QAD@Z 10012094 f   libucrt:output.obj
 0001:0001121d       ??$common_vsprintf_s@_W@@YAH_KQA_WIQB_WQAU__crt_locale_pointers@@QAD@Z 1001221d f   libucrt:output.obj
 0001:000118ca       $LN52                      100128ca     libucrt:output.obj
 0001:00011dbc       $LN19                      10012dbc     libucrt:output.obj
 0001:000126ad       ??R<lambda_6e4b09c48022b2350581041d5f6b0c4c>@@QBE@XZ 100136ad f   libucrt:exit.obj
 0001:00012789       ?atexit_exception_filter@@YAHK@Z 10013789 f   libucrt:exit.obj
 0001:0001279c       ?common_exit@@YAXHW4_crt_exit_cleanup_mode@@W4_crt_exit_return_mode@@@Z 1001379c f   libucrt:exit.obj
 0001:000127f2       ?exit_or_terminate_process@@YAXI@Z 100137f2 f   libucrt:exit.obj
 0001:00012834       ?is_managed_app@@YA_NXZ    10013834 f   libucrt:exit.obj
 0001:00012878       ?try_cor_exit_process@@YAXI@Z 10013878 f   libucrt:exit.obj
 0001:0001291c       ??$common_configure_argv@D@@YAHW4_crt_argv_mode@@@Z 1001391c f   libucrt:argv_parsing.obj
 0001:00012a52       ??$parse_command_line@D@@YAXPADPAPAD0PAI2@Z 10013a52 f   libucrt:argv_parsing.obj
 0001:00012c27       ??$common_initialize_environment_nolock@D@@YAHXZ 10013c27 f   libucrt:environment_initialization.obj
 0001:00012c80       ??$create_environment@D@@YAQAPADQAD@Z 10013c80 f   libucrt:environment_initialization.obj
 0001:00012d51       ??$free_environment@_W@@YAXQAPA_W@Z 10013d51 f   libucrt:environment_initialization.obj
 0001:00012d51       ??$free_environment@D@@YAXQAPAD@Z 10013d51 f   libucrt:environment_initialization.obj
 0001:00012dc0       ??$uninitialize_environment_internal@D@@YAXAAPAPAD@Z 10013dc0 f   libucrt:environment_initialization.obj
 0001:00012ddb       ??$uninitialize_environment_internal@_W@@YAXAAPAPA_W@Z 10013ddb f   libucrt:environment_initialization.obj
 0001:00012f74       ??R<lambda_22ebabd17bc4fa466a2aca6d8deb888d>@@QBEHXZ 10013f74 f   libucrt:onexit.obj
 0001:000130b5       ??R<lambda_f03950bc5685219e0bcd2087efbe011e>@@QBEHXZ 100140b5 f   libucrt:onexit.obj
 0001:00013267       _initialize_global_variables 10014267 f   libucrt:initialization.obj
 0001:00013279       _initialize_c              10014279 f   libucrt:initialization.obj
 0001:00013293       _initialize_environment    10014293 f   libucrt:initialization.obj
 0001:00013293       _uninitialize_global_state_isolation 10014293 f   libucrt:initialization.obj
 0001:00013293       _initialize_global_state_isolation 10014293 f   libucrt:initialization.obj
 0001:00013293       _report_memory_leaks       10014293 f   libucrt:initialization.obj
 0001:00013293       _uninitialize_c            10014293 f   libucrt:initialization.obj
 0001:00013296       _uninitialize_environment  10014296 f   libucrt:initialization.obj
 0001:0001329e       _initialize_pointers       1001429e f   libucrt:initialization.obj
 0001:000132db       _uninitialize_vcruntime    100142db f   libucrt:initialization.obj
 0001:000132e4       _uninitialize_allocated_memory 100142e4 f   libucrt:initialization.obj
 0001:00013348       ??R<lambda_af42a3ee9806e9a7305d451646e05244>@@QBEXAAPAU__crt_multibyte_data@@@Z 10014348 f   libucrt:initialization.obj
 0001:00013dc0       $$000000                   10014dc0     libucrt:strncmp.obj
 0001:00014056       ?construct_ptd@@YAXQAU__acrt_ptd@@QAPAU__crt_locale_data@@@Z 10015056 f   libucrt:per_thread_data.obj
 0001:000140cf       ?destroy_fls@@YGXPAX@Z     100150cf f   libucrt:per_thread_data.obj
 0001:000140f0       ?destroy_ptd@@YAXQAU__acrt_ptd@@@Z 100150f0 f   libucrt:per_thread_data.obj
 0001:00014199       ?replace_current_thread_locale_nolock@@YAXQAU__acrt_ptd@@QAU__crt_locale_data@@@Z 10015199 f   libucrt:per_thread_data.obj
 0001:000145a9       ?try_get_LCMapStringEx@@YAP6GHPB_WK0HPA_WHPAU_nlsversioninfo@@PAXJ@ZXZ 100155a9 f   libucrt:winapi_thunks.obj
 0001:000145c3       ?try_get_LocaleNameToLCID@@YAP6GKPB_WK@ZXZ 100155c3 f   libucrt:winapi_thunks.obj
 0001:000145dd       ?try_get_first_available_module@@YAPAUHINSTANCE__@@QBW4module_id@?A0x391cf84c@@0@Z 100155dd f   libucrt:winapi_thunks.obj
 0001:000146a5       ?try_get_function@@YAPAXW4function_id@?A0x391cf84c@@QBDQBW4module_id@2@2@Z 100156a5 f   libucrt:winapi_thunks.obj
 0001:00014b0a       ??$common_tox_l@$1?internal_isupper_l@@YA_NHQAU__crt_locale_pointers@@@Z$1?internal_map_lower@@YAHH0@Z@@YAHHKQAU__crt_locale_pointers@@@Z 10015b0a f   libucrt:tolower_toupper.obj
 0001:00014c54       ?internal_isupper_l@@YA_NHQAU__crt_locale_pointers@@@Z 10015c54 f   libucrt:tolower_toupper.obj
 0001:000150ad       ?fp_format_a@@YAHQBNPADIQADIH_NIQAU__crt_locale_pointers@@@Z 100160ad f   libucrt:cvt.obj
 0001:000153c1       ?fp_format_e@@YAHQBNQADI1IH_NIQAU__crt_locale_pointers@@@Z 100163c1 f   libucrt:cvt.obj
 0001:0001545c       ?fp_format_e_internal@@YAHQADIH_NIQAU_strflt@@1QAU__crt_locale_pointers@@@Z 1001645c f   libucrt:cvt.obj
 0001:000155a7       ?fp_format_f@@YAHQBNQADI1IHQAU__crt_locale_pointers@@@Z 100165a7 f   libucrt:cvt.obj
 0001:00015634       ?fp_format_f_internal@@YAHQADIHQAU_strflt@@_NQAU__crt_locale_pointers@@@Z 10016634 f   libucrt:cvt.obj
 0001:0001570b       ?fp_format_g@@YAHQBNQADI1IH_NIQAU__crt_locale_pointers@@@Z 1001670b f   libucrt:cvt.obj
 0001:000157d3       ?fp_format_nan_or_infinity@@YAHW4__acrt_fp_class@@_NPADI1@Z 100167d3 f   libucrt:cvt.obj
 0001:000158cb       ?shift_bytes@@YAXQADI0H@Z  100168cb f   libucrt:cvt.obj
 0001:00015c82       ?initialize_inherited_file_handles_nolock@@YAXXZ 10016c82 f   libucrt:ioinit.obj
 0001:00015d38       ?initialize_stdio_handles_nolock@@YAXXZ 10016d38 f   libucrt:ioinit.obj
 0001:00015f2e       ?<lambda_invoker_cdecl>@<lambda_86056e3c024bff449830248dc1621ed2>@@CAHPBX0@Z 10016f2e f   libucrt:argv_wildcards.obj
 0001:00015f46       ??$common_expand_argv_wildcards@D@@YAHQAPADQAPAPAD@Z 10016f46 f   libucrt:argv_wildcards.obj
 0001:00016126       ??$copy_and_add_argument_to_buffer@D@@YAHQBD0IAAV?$argument_list@D@?A0x5f5c8891@@@Z 10017126 f   libucrt:argv_wildcards.obj
 0001:000161da       ??$expand_argument_wildcards@D@@YAHQAD0AAV?$argument_list@D@?A0x5f5c8891@@@Z 100171da f   libucrt:argv_wildcards.obj
 0001:0001635e       ?expand_if_necessary@?$argument_list@D@?A0x5f5c8891@@AAEHXZ 1001735e f   libucrt:argv_wildcards.obj
 0001:0001645b       ??R<lambda_ae742caa10f662c28703da3d2ea5e57e>@@QBEXXZ 1001745b f   libucrt:mbctype.obj
 0001:000164de       ?CPtoLocaleName@@YAPB_WH@Z 100174de f   libucrt:mbctype.obj
 0001:0001651c       ?getSystemCP@@YAHH@Z       1001751c f   libucrt:mbctype.obj
 0001:0001658f       ?setSBCS@@YAXPAU__crt_multibyte_data@@@Z 1001758f f   libucrt:mbctype.obj
 0001:000165f4       ?setSBUpLow@@YAXPAU__crt_multibyte_data@@@Z 100175f4 f   libucrt:mbctype.obj
 0001:00016788       ?setmbcp_internal@@YAHH_NQAU__acrt_ptd@@QAPAU__crt_multibyte_data@@@Z 10017788 f   libucrt:mbctype.obj
 0001:00016895       ?update_thread_multibyte_data_internal@@YAPAU__crt_multibyte_data@@QAU__acrt_ptd@@QAU1@@Z 10017895 f   libucrt:mbctype.obj
 0001:00016b7a       _memcpy_s                  10017b7a f   libucrt:mbctype.obj
 0001:00016b7a       _memcpy_s                  10017b7a f   libucrt:cfout.obj
 0001:00016bfb       ?x_ismbbtype_l@@YAHPAU__crt_locale_pointers@@IHH@Z 10017bfb f   libucrt:ismbbyte.obj
 0001:00016c85       ?find_end_of_double_null_terminated_sequence@@YAPB_WQB_W@Z 10017c85 f   libucrt:get_environment_from_os.obj
 0001:00016eac       ?get_global_action_nolock@@YAPAP6AXH@ZH@Z 10017eac f   libucrt:signal.obj
 0001:00016eee       ?siglookup@@YAPAU__crt_signal_action_t@@HQAU1@@Z 10017eee f   libucrt:signal.obj
 0001:000176dd       ?GetTableIndexFromLocaleName@@YAHPB_W@Z 100186dd f   libucrt:lcidtoname_downlevel.obj
 0001:000177fe       ?__acrt_LCMapStringA_stat@@YAHPAU__crt_locale_pointers@@PB_WKPBDHPADHHH@Z 100187fe f   libucrt:lcmapstringa.obj
 0001:000195f6       ?common_flush_all@@YAH_N@Z 1001a5f6 f   libucrt:fflush.obj
 0001:00019635       ?common_flush_all_should_try_to_flush_stream@@YA_NV__crt_stdio_stream@@QAH@Z 1001a635 f   libucrt:fflush.obj
 0001:00019667       ?is_stream_flushable_or_commitable@@YA_NJ@Z 1001a667 f   libucrt:fflush.obj
 0001:00019938       ?free_crt_array_internal@@YAXQAPBXI@Z 1001a938 f   libucrt:inittime.obj
 0001:00019e00       ?shortsort@@YAXPAD0IP6AHPBX1@Z@Z 1001ae00 f   libucrt:qsort.obj
 0001:00019ea0       ?swap@@YAXPAD0I@Z          1001aea0 f   libucrt:qsort.obj
 0001:0001a27a       ??$common_tcsncpy_s@D@@YAHQADIQBDI@Z 1001b27a f   libucrt:strncpy_s.obj
 0001:0001a340       $$000000                   1001b340     libucrt:strpbrk.obj
 0001:0001a424       ?initialize_multibyte@@YAHXZ 1001b424 f   libucrt:multibyte_initializer.obj
 0001:0001a510       $$000000                   1001b510     libucrt:log10.obj
 0001:0001a660       $$000000                   1001b660     libucrt:ceil_pentium4.obj
 0001:0001a77d       ?write_double_translated_ansi_nolock@@YA?AUwrite_result@?A0x17268360@@HQBDI@Z 1001b77d f   libucrt:write.obj
 0001:0001a942       ?write_double_translated_unicode_nolock@@YA?AUwrite_result@?A0x17268360@@QBDI@Z 1001b942 f   libucrt:write.obj
 0001:0001a9af       ?write_requires_double_translation_nolock@@YA_NH@Z 1001b9af f   libucrt:write.obj
 0001:0001aa25       ?write_text_ansi_nolock@@YA?AUwrite_result@?A0x17268360@@HQBDI@Z 1001ba25 f   libucrt:write.obj
 0001:0001ab04       ?write_text_utf16le_nolock@@YA?AUwrite_result@?A0x17268360@@HQBDI@Z 1001bb04 f   libucrt:write.obj
 0001:0001abf2       ?write_text_utf8_nolock@@YA?AUwrite_result@?A0x17268360@@HQBDI@Z 1001bbf2 f   libucrt:write.obj
 0001:0001b023       ??$common_lseek_nolock@_J@@YA_JH_JH@Z 1001c023 f   libucrt:lseek.obj
 0001:0001b2e7       ___get_abstract_control_sse2 1001c2e7 f   libucrt:_fenvutils.obj
 0001:0001b364       ___get_abstract_control_x87 1001c364 f   libucrt:_fenvutils.obj
 0001:0001b3d7       ___get_machine_control     1001c3d7 f   libucrt:_fenvutils.obj
 0001:0001b448       ___get_machine_control_sse2 1001c448 f   libucrt:_fenvutils.obj
 0001:0001b4c8       ___get_machine_status_sse2 1001c4c8 f   libucrt:_fenvutils.obj
 0001:0001b529       ___get_machine_status_x87  1001c529 f   libucrt:_fenvutils.obj
 0001:0001b870       $$000000                   1001c870     libucrt:log10_pentium4.obj
 0001:0001bb00       $$000000                   1001cb00     libucrt:87tran.obj
 0001:0001bd00       $$000000                   1001cd00     libucrt:87disp.obj
 0001:0001bf00       $$000000                   1001cf00     libucrt:common.obj
 0001:0001c090       $$000000                   1001d090     libucrt:genexcep.obj
 0001:0001c600       $$000000                   1001d600     libucrt:_strnicm.obj
 0001:0001d450       $$000000                   1001e450     LIBCMT:ulldvrm.obj
 0001:0001d4f0       $$000000                   1001e4f0     LIBCMT:llmul.obj
 0001:0001d530       $$000000                   1001e530     LIBCMT:lldvrm.obj
 0001:0001d610       $$000000                   1001e610     LIBCMT:ullshr.obj
 0001:0001d630       $$000000                   1001e630     LIBCMT:llshl.obj
 0001:0001d650       $$000000                   1001e650     LIBCMT:_ftol2_.obj
 0001:0001d710       $$000000                   1001e710     libvcruntime:strrchr.obj
 0001:0001d850       $$000000                   1001e850     libvcruntime:strchr.obj
 0001:0001d97b       __ehhandler$?__scrt_initialize_thread_safe_statics_platform_specific@@YAXXZ 1001e97b f   LIBCMT:thread_safe_statics.obj
 0001:0001d996       __ehhandler$??2@YAPAXIABUnothrow_t@std@@@Z 1001e996 f   LIBCMT:new_scalar_nothrow.obj
 0001:0001d9b1       __ehhandler$?CallUnexpected@@YAXPBU_s_ESTypeList@@@Z 1001e9b1 f   libvcruntime:frame.obj
 0001:0001d9cc       ??__F_AtlComModule@ATL@@YAXXZ 1001e9cc f   OposVariant.obj
 0001:0001d9d6       ??__F_AtlWinModule@ATL@@YAXXZ 1001e9d6 f   OposVariant.obj
 0001:0001d9f0       ??__F_Module@@YAXXZ        1001e9f0 f   ElectronicJournal.obj
 0001:0001da04       ??__F_AtlBaseModule@ATL@@YAXXZ 1001ea04 f   atls:atlbase.obj
 0002:00000304       ?_AtlBaseModule$initializer$@ATL@@3P6AXXZA 1001f304     atls:atlbase.obj
 0002:00000308       ?_AtlComModule$initializer$@ATL@@3P6AXXZA 1001f308     OposVariant.obj
 0002:0000030c       ?_AtlWinModule$initializer$@ATL@@3P6AXXZA 1001f30c     OposVariant.obj
 0002:00000310       ?_Module$initializer$@@3P6AXXZA 1001f310     ElectronicJournal.obj
 0002:00000314       ??pConnMap$initializer$@?$IConnectionPointContainerImpl@VCOPOSElectronicJournal@@@ATL@@0P6AXXZA@@3P6AXXZA 1001f314     ElectronicJournal.obj
 0002:00000320       ?__scrt_initialize_tss_var@@3P6AHXZA 1001f320     LIBCMT:thread_safe_statics.obj
 0002:000007d0       ?map@?1??HKeyFromString@CRegParser@ATL@@KAPAUHKEY__@@PA_W@Z@4QBUkeymap@?1??123@KAPAU4@0@Z@B 1001f7d0     ElectronicJournal.obj
 0002:00001a84       _GS_ExceptionPointers      10020a84     LIBCMT:gs_report.obj
 0002:00001bf0       ?ExceptionTemplate@?1??_CxxThrowException@@9@8@4UEHExceptionRecord@@B 10020bf0     libvcruntime:throw.obj
 0002:00001c10       ?module_names@?A0x03f7da57@@3QBQB_WB 10020c10     libvcruntime:winapi_downlevel.obj
 0002:00001cc8       ?candidate_modules@?1??try_get_FlsAlloc@@YAP6GKP6GXPAX@Z@ZXZ@4QBW4module_id@?A0x03f7da57@@B 10020cc8     libvcruntime:winapi_downlevel.obj
 0002:00001cdc       ?candidate_modules@?1??try_get_FlsFree@@YAP6GHK@ZXZ@4QBW4module_id@?A0x03f7da57@@B 10020cdc     libvcruntime:winapi_downlevel.obj
 0002:00001cec       ?candidate_modules@?1??try_get_FlsGetValue@@YAP6GPAXK@ZXZ@4QBW4module_id@?A0x03f7da57@@B 10020cec     libvcruntime:winapi_downlevel.obj
 0002:00001d00       ?candidate_modules@?1??try_get_FlsSetValue@@YAP6GHKPAX@ZXZ@4QBW4module_id@?A0x03f7da57@@B 10020d00     libvcruntime:winapi_downlevel.obj
 0002:00001d14       ?candidate_modules@?1??try_get_InitializeCriticalSectionEx@@YAP6GHPAU_RTL_CRITICAL_SECTION@@KK@ZXZ@4QBW4module_id@?A0x03f7da57@@B 10020d14     libvcruntime:winapi_downlevel.obj
 0002:00001d58       ?tokenTable@@3QBQBDB       10020d58     libvcruntime:undname.obj
 0002:00001d98       ?nameTable@@3QBQBDB        10020d98     libvcruntime:undname.obj
 0002:00001ee0       ?rttiTable@@3QBQBDB        10020ee0     libvcruntime:undname.obj
 0002:000024f8       ?errtable@@3QBUerrentry@?A0x31fdb9ec@@B 100214f8     libucrt:errno.obj
 0002:00002798       ___acrt_initializers       10021798     libucrt:initialization.obj
 0002:00002810       ?module_names@?A0x391cf84c@@3QBQB_WB 10021810     libucrt:winapi_thunks.obj
 0002:00002cf8       ?candidate_modules@?1??try_get_FlsAlloc@@YAP6GKP6GXPAX@Z@ZXZ@4QBW4module_id@?A0x391cf84c@@B 10021cf8     libucrt:winapi_thunks.obj
 0002:00002d0c       ?candidate_modules@?1??try_get_FlsFree@@YAP6GHK@ZXZ@4QBW4module_id@?A0x391cf84c@@B 10021d0c     libucrt:winapi_thunks.obj
 0002:00002d1c       ?candidate_modules@?1??try_get_FlsGetValue@@YAP6GPAXK@ZXZ@4QBW4module_id@?A0x391cf84c@@B 10021d1c     libucrt:winapi_thunks.obj
 0002:00002d30       ?candidate_modules@?1??try_get_FlsSetValue@@YAP6GHKPAX@ZXZ@4QBW4module_id@?A0x391cf84c@@B 10021d30     libucrt:winapi_thunks.obj
 0002:00002d44       ?candidate_modules@?1??try_get_InitializeCriticalSectionEx@@YAP6GHPAU_RTL_CRITICAL_SECTION@@KK@ZXZ@4QBW4module_id@?A0x391cf84c@@B 10021d44     libucrt:winapi_thunks.obj
 0002:00002d68       ?candidate_modules@?1??try_get_LCMapStringEx@@YAP6GHPB_WK0HPA_WHPAU_nlsversioninfo@@PAXJ@ZXZ@4QBW4module_id@?A0x391cf84c@@B 10021d68     libucrt:winapi_thunks.obj
 0002:00002d80       ?candidate_modules@?1??try_get_LocaleNameToLCID@@YAP6GKPB_WK@ZXZ@4QBW4module_id@?A0x391cf84c@@B 10021d80     libucrt:winapi_thunks.obj
 0002:00002d9c       ?candidate_modules@?1??try_get_AppPolicyGetProcessTerminationMethod@@YAP6GJPAXPAW4AppPolicyProcessTerminationMethod@@@ZXZ@4QBW4module_id@?A0x391cf84c@@B 10021d9c     libucrt:winapi_thunks.obj
 0002:00002dc8       ?candidate_modules@?1??try_get_SetThreadStackGuarantee@@YAP6GHPAK@ZXZ@4QBW4module_id@?A0x391cf84c@@B 10021dc8     libucrt:winapi_thunks.obj
 0002:000032f4       ?_mb_locale_names@@3QBQB_WB 100222f4     libucrt:mbctype.obj
 0002:00003b40       ?LcidToLocaleNameTable@?A0x881e4c05@@3QBULcidToLocaleName@1@B 10022b40     libucrt:lcidtoname_downlevel.obj
 0002:00004c68       ?LocaleNameToIndexTable@?A0x881e4c05@@3QBULocaleNameIndex@1@B 10023c68     libucrt:lcidtoname_downlevel.obj
 0002:000065a0       LOG_name                   100255a0     libucrt:log10.obj
 0002:000065b0       _One                       100255b0     libucrt:ceil_pentium4.obj
 0002:000065c0       _Bns                       100255c0     libucrt:ceil_pentium4.obj
 0002:000065d0       _Zero                      100255d0     libucrt:ceil_pentium4.obj
 0002:000065e0       _S                         100255e0     libucrt:ceil_pentium4.obj
 0002:000065f0       _NegZero                   100255f0     libucrt:ceil_pentium4.obj
 0002:00006600       emask                      10025600     libucrt:log10_pentium4.obj
 0002:00006610       CC                         10025610     libucrt:log10_pentium4.obj
 0002:00006620       Magic                      10025620     libucrt:log10_pentium4.obj
 0002:00006630       hi_mask                    10025630     libucrt:log10_pentium4.obj
 0002:00006640       LOG10_2                    10025640     libucrt:log10_pentium4.obj
 0002:00006650       place_L                    10025650     libucrt:log10_pentium4.obj
 0002:00006670       One                        10025670     libucrt:log10_pentium4.obj
 0002:00006680       Zero                       10025680     libucrt:log10_pentium4.obj
 0002:00006690       Two52                      10025690     libucrt:log10_pentium4.obj
 0002:000066a0       Infs                       100256a0     libucrt:log10_pentium4.obj
 0002:000066b0       NaN                        100256b0     libucrt:log10_pentium4.obj
 0002:000066c0       coeff                      100256c0     libucrt:log10_pentium4.obj
 0002:0000671e       _log2max                   1002571e     libucrt:87tran.obj
 0002:00006728       _smallarg                  10025728     libucrt:87tran.obj
 0002:00006732       _half                      10025732     libucrt:87tran.obj
 0002:0000677e       One                        1002577e     libucrt:87disp.obj
 0002:00006786       Three                      10025786     libucrt:87disp.obj
 0002:0000678e       XAMtoTagTab                1002578e     libucrt:87disp.obj
 0002:000067a0       One                        100257a0     libucrt:common.obj
 0002:000067b4       DblMax                     100257b4     libucrt:common.obj
 0002:000067bc       DblMin                     100257bc     libucrt:common.obj
 0002:000067c4       IeeeAdjO                   100257c4     libucrt:common.obj
 0002:000067cc       IeeeAdjU                   100257cc     libucrt:common.obj
 0002:000067d4       _infinity                  100257d4     libucrt:common.obj
 0002:000067dc       _zero                      100257dc     libucrt:common.obj
 0002:00006818       _over                      10025818     libucrt:fpctrl.obj
 0002:00006824       _under                     10025824     libucrt:fpctrl.obj
 0002:00007058       ?_names@?1??_get_fname@@9@9 10026058     libucrt:fpexcept.obj
 0002:000078c0       __sehtable$?_AtlVerifyStackAvailable@_ATL_SAFE_ALLOCA_IMPL@ATL@@YA_NK@Z 100268c0     ElectronicJournal.obj
 0002:000078e0       __sehtable$___scrt_is_nonwritable_in_current_image 100268e0     LIBCMT:utility.obj
 0002:000078fc       __ehfuncinfo$?__scrt_initialize_thread_safe_statics_platform_specific@@YAXXZ 100268fc     LIBCMT:thread_safe_statics.obj
 0002:00007920       __catchsym$??2@YAPAXIABUnothrow_t@std@@@Z$2 10026920     LIBCMT:new_scalar_nothrow.obj
 0002:00007930       __unwindtable$??2@YAPAXIABUnothrow_t@std@@@Z 10026930     LIBCMT:new_scalar_nothrow.obj
 0002:00007940       __tryblocktable$??2@YAPAXIABUnothrow_t@std@@@Z 10026940     LIBCMT:new_scalar_nothrow.obj
 0002:00007954       __ehfuncinfo$??2@YAPAXIABUnothrow_t@std@@@Z 10026954     LIBCMT:new_scalar_nothrow.obj
 0002:00007978       __sehtable$?dllmain_crt_process_attach@@YAHQAUHINSTANCE__@@QAX@Z 10026978     LIBCMT:dll_dllmain.obj
 0002:00007998       __sehtable$?dllmain_crt_process_detach@@YAH_N@Z 10026998     LIBCMT:dll_dllmain.obj
 0002:000079b8       __sehtable$?dllmain_dispatch@@YAHQAUHINSTANCE__@@KQAX@Z 100269b8     LIBCMT:dll_dllmain.obj
 0002:00007a68       __sehtable$?FrameUnwindToState@__FrameHandler3@@SAXPAUEHRegistrationNode@@PAXPBU_s_FuncInfo@@H@Z 10026a68     libvcruntime:frame.obj
 0002:00007a90       __sehtable$?CallCatchBlock@@YAPAXPAUEHExceptionRecord@@PAUEHRegistrationNode@@PAU_CONTEXT@@PBU_s_FuncInfo@@PAXHK@Z 10026a90     libvcruntime:frame.obj
 0002:00007ab8       __catchsym$?CallUnexpected@@YAXPBU_s_ESTypeList@@@Z$2 10026ab8     libvcruntime:frame.obj
 0002:00007ac8       __unwindtable$?CallUnexpected@@YAXPBU_s_ESTypeList@@@Z 10026ac8     libvcruntime:frame.obj
 0002:00007ad8       __tryblocktable$?CallUnexpected@@YAXPBU_s_ESTypeList@@@Z 10026ad8     libvcruntime:frame.obj
 0002:00007aec       __ehfuncinfo$?CallUnexpected@@YAXPBU_s_ESTypeList@@@Z 10026aec     libvcruntime:frame.obj
 0002:00007b10       __sehtable$??$BuildCatchObjectHelperInternal@$$CBU_s_HandlerType@@@@YAHPAUEHExceptionRecord@@PAXPBU_s_HandlerType@@PBU_s_CatchableType@@@Z 10026b10     libvcruntime:frame.obj
 0002:00007b30       __sehtable$??$BuildCatchObjectInternal@$$CBU_s_HandlerType@@@@YAXPAUEHExceptionRecord@@PAXPBU_s_HandlerType@@PBU_s_CatchableType@@@Z 10026b30     libvcruntime:frame.obj
 0002:00007b88       __sehtable$___DestructExceptionObject 10026b88     libvcruntime:ehhelpers.obj
 0002:00007ba8       __sehtable$??R<lambda_6e4b09c48022b2350581041d5f6b0c4c>@@QBE@XZ 10026ba8     libucrt:exit.obj
 0002:00007bc8       __sehtable$??$?RV<lambda_03b1d95aef87969028cfba75ccab2455>@@AAV<lambda_6e4b09c48022b2350581041d5f6b0c4c>@@V<lambda_22bdf7517842c4b3e53723af5aa32b9e>@@@?$__crt_seh_guarded_call@X@@QAEX$$QAV<lambda_03b1d95aef87969028cfba75ccab2455>@@AAV<lambda_6e4b09c48022b2350581041d5f6b0c4c>@@$$QAV<lambda_22bdf7517842c4b3e53723af5aa32b9e>@@@Z 10026bc8     libucrt:exit.obj
 0002:00007be8       __sehtable$??$?RV<lambda_8e746cf0007f6ed984d6f78af1fec997>@@AAV<lambda_22ebabd17bc4fa466a2aca6d8deb888d>@@V<lambda_18ed0c0b38a6dc0daf1e7ac6d6adf05e>@@@?$__crt_seh_guarded_call@H@@QAEH$$QAV<lambda_8e746cf0007f6ed984d6f78af1fec997>@@AAV<lambda_22ebabd17bc4fa466a2aca6d8deb888d>@@$$QAV<lambda_18ed0c0b38a6dc0daf1e7ac6d6adf05e>@@@Z 10026be8     libucrt:onexit.obj
 0002:00007c08       __sehtable$??$?RV<lambda_69a2805e680e0e292e8ba93315fe43a8>@@AAV<lambda_f03950bc5685219e0bcd2087efbe011e>@@V<lambda_03fcd07e894ec930e3f35da366ca99d6>@@@?$__crt_seh_guarded_call@H@@QAEH$$QAV<lambda_69a2805e680e0e292e8ba93315fe43a8>@@AAV<lambda_f03950bc5685219e0bcd2087efbe011e>@@$$QAV<lambda_03fcd07e894ec930e3f35da366ca99d6>@@@Z 10026c08     libucrt:onexit.obj
 0002:00007c28       __sehtable$__query_new_handler 10026c28     libucrt:new_handler.obj
 0002:00007c48       __sehtable$_terminate      10026c48     libucrt:terminate.obj
 0002:00007c68       __sehtable$??$?RV<lambda_15ade71b0218206bbe3333a0c9b79046>@@AAV<lambda_da44e0f8b0f19ba52fefafb335991732>@@V<lambda_207f2d024fc103971653565357d6cd41>@@@?$__crt_seh_guarded_call@X@@QAEX$$QAV<lambda_15ade71b0218206bbe3333a0c9b79046>@@AAV<lambda_da44e0f8b0f19ba52fefafb335991732>@@$$QAV<lambda_207f2d024fc103971653565357d6cd41>@@@Z 10026c68     libucrt:per_thread_data.obj
 0002:00007c88       __sehtable$??$?RV<lambda_a7e850c220f1c8d1e6efeecdedd162c6>@@AAV<lambda_46720907175c18b6c9d2717bc0d2d362>@@V<lambda_9048902d66e8d99359bc9897bbb930a8>@@@?$__crt_seh_guarded_call@X@@QAEX$$QAV<lambda_a7e850c220f1c8d1e6efeecdedd162c6>@@AAV<lambda_46720907175c18b6c9d2717bc0d2d362>@@$$QAV<lambda_9048902d66e8d99359bc9897bbb930a8>@@@Z 10026c88     libucrt:per_thread_data.obj
 0002:00007ca8       __sehtable$??$?RV<lambda_38edbb1296d33220d7e4dd0ed76b244a>@@AAV<lambda_5ce1d447e08cb34b2473517608e21441>@@V<lambda_fb385d3da700c9147fc39e65dd577a8c>@@@?$__crt_seh_guarded_call@X@@QAEX$$QAV<lambda_38edbb1296d33220d7e4dd0ed76b244a>@@AAV<lambda_5ce1d447e08cb34b2473517608e21441>@@$$QAV<lambda_fb385d3da700c9147fc39e65dd577a8c>@@@Z 10026ca8     libucrt:per_thread_data.obj
 0002:00007cc8       __sehtable$??$?RV<lambda_6affb1475c98b40b75cdec977db92e3c>@@AAV<lambda_b8d4b9c228a6ecc3f80208dbb4b4a104>@@V<lambda_608742c3c92a14382c1684fc64f96c88>@@@?$__crt_seh_guarded_call@X@@QAEX$$QAV<lambda_6affb1475c98b40b75cdec977db92e3c>@@AAV<lambda_b8d4b9c228a6ecc3f80208dbb4b4a104>@@$$QAV<lambda_608742c3c92a14382c1684fc64f96c88>@@@Z 10026cc8     libucrt:per_thread_data.obj
 0002:00007ce8       __sehtable$??$?RV<lambda_e5124f882df8998aaf41531e079ba474>@@AAV<lambda_3e16ef9562a7dcce91392c22ab16ea36>@@V<lambda_e25ca0880e6ef98be67edffd8c599615>@@@?$__crt_seh_guarded_call@X@@QAEX$$QAV<lambda_e5124f882df8998aaf41531e079ba474>@@AAV<lambda_3e16ef9562a7dcce91392c22ab16ea36>@@$$QAV<lambda_e25ca0880e6ef98be67edffd8c599615>@@@Z 10026ce8     libucrt:wsetlocale.obj
 0002:00007d08       __sehtable$___acrt_initialize_lowio 10026d08     libucrt:ioinit.obj
 0002:00007d28       __sehtable$?update_thread_multibyte_data_internal@@YAPAU__crt_multibyte_data@@QAU__acrt_ptd@@QAU1@@Z 10026d28     libucrt:mbctype.obj
 0002:00007d48       __sehtable$??$?RV<lambda_ceb1ee4838e85a9d631eb091e2fbe199>@@AAV<lambda_ae742caa10f662c28703da3d2ea5e57e>@@V<lambda_cd08b5d6af4937fe54fc07d0c9bf6b37>@@@?$__crt_seh_guarded_call@X@@QAEX$$QAV<lambda_ceb1ee4838e85a9d631eb091e2fbe199>@@AAV<lambda_ae742caa10f662c28703da3d2ea5e57e>@@$$QAV<lambda_cd08b5d6af4937fe54fc07d0c9bf6b37>@@@Z 10026d48     libucrt:mbctype.obj
 0002:00007d68       __sehtable$_raise          10026d68     libucrt:signal.obj
 0002:00007d88       __sehtable$??$?RV<lambda_cbab9ec6f41b0180b23cc171c22676b0>@@AAV<lambda_44731a7d0e6d81c3e6aa82d741081786>@@V<lambda_4b292cb8dd18144e164572427af410ab>@@@?$__crt_seh_guarded_call@P6AXH@Z@@QAEP6AXH@Z$$QAV<lambda_cbab9ec6f41b0180b23cc171c22676b0>@@AAV<lambda_44731a7d0e6d81c3e6aa82d741081786>@@$$QAV<lambda_4b292cb8dd18144e164572427af410ab>@@@Z 10026d88     libucrt:signal.obj
 0002:00007da8       __sehtable$___acrt_update_thread_locale_data 10026da8     libucrt:locale_refcounting.obj
 0002:00007dc8       __sehtable$__fcloseall     10026dc8     libucrt:closeall.obj
 0002:00007de8       __sehtable$??$?RV<lambda_2866be3712abc81a800a822484c830d8>@@AAV<lambda_39ca0ed439415581b5b15c265174cece>@@V<lambda_2b24c74d71094a6cd0cb82e44167d71b>@@@?$__crt_seh_guarded_call@X@@QAEX$$QAV<lambda_2866be3712abc81a800a822484c830d8>@@AAV<lambda_39ca0ed439415581b5b15c265174cece>@@$$QAV<lambda_2b24c74d71094a6cd0cb82e44167d71b>@@@Z 10026de8     libucrt:fflush.obj
 0002:00007e08       __sehtable$??$?RV<lambda_2cc53f568c5a2bb6f192f930a45d44ea>@@AAV<lambda_ab61a845afdef5b7c387490eaf3616ee>@@V<lambda_c2ffc0b7726aa6be21d5f0026187e748>@@@?$__crt_seh_guarded_call@X@@QAEX$$QAV<lambda_2cc53f568c5a2bb6f192f930a45d44ea>@@AAV<lambda_ab61a845afdef5b7c387490eaf3616ee>@@$$QAV<lambda_c2ffc0b7726aa6be21d5f0026187e748>@@@Z 10026e08     libucrt:fflush.obj
 0002:00007e28       __sehtable$___acrt_lowio_ensure_fh_exists 10026e28     libucrt:osfinfo.obj
 0002:00007e48       __sehtable$__write         10026e48     libucrt:write.obj
 0002:00007e68       __sehtable$_fclose         10026e68     libucrt:fclose.obj
 0002:00007e88       __sehtable$??$?RV<lambda_9e9de3de5fa147e2223d7db92bc10aa6>@@AAV<lambda_38ce7e780aa69e748d6df282ebc68efe>@@V<lambda_8ca6da459f0f6780f1cff60fdc3d00e5>@@@?$__crt_seh_guarded_call@H@@QAEH$$QAV<lambda_9e9de3de5fa147e2223d7db92bc10aa6>@@AAV<lambda_38ce7e780aa69e748d6df282ebc68efe>@@$$QAV<lambda_8ca6da459f0f6780f1cff60fdc3d00e5>@@@Z 10026e88     libucrt:commit.obj
 0002:00007ea8       __sehtable$??$?RV<lambda_218ce3db14220d0be481dae8ef3383b6>@@AAV<lambda_628dfdc04ba53c8bfc02c9951375f3f5>@@V<lambda_57dc472bd5c9d5f3b2cbca59b8a843ae>@@@?$__crt_seh_guarded_call@H@@QAEH$$QAV<lambda_218ce3db14220d0be481dae8ef3383b6>@@AAV<lambda_628dfdc04ba53c8bfc02c9951375f3f5>@@$$QAV<lambda_57dc472bd5c9d5f3b2cbca59b8a843ae>@@@Z 10026ea8     libucrt:close.obj
 0002:00007ec8       __sehtable$__IsNonwritableInCurrentImage 10026ec8     LIBCMT:pesect.obj
 0002:00007ef0       .edata                     10026ef0     OPOSElectronicJournal.exp
 0002:00007f18       rgpv                       10026f18     OPOSElectronicJournal.exp
 0002:00007f28       rgszName                   10026f28     OPOSElectronicJournal.exp
 0002:00007f38       rgwOrd                     10026f38     OPOSElectronicJournal.exp
 0002:00007f40       szName                     10026f40     OPOSElectronicJournal.exp
 0002:00007f5a       $N00001                    10026f5a     OPOSElectronicJournal.exp
 0002:00007f6a       $N00002                    10026f6a     OPOSElectronicJournal.exp
 0002:00007f7c       $N00003                    10026f7c     OPOSElectronicJournal.exp
 0002:00007f8e       $N00004                    10026f8e     OPOSElectronicJournal.exp
 0002:000085a8       .idata$6                   100275a8     kernel32:KERNEL32.dll
 0002:000087bc       .idata$6                   100277bc     user32:USER32.dll
 0002:000088f0       .idata$6                   100278f0     gdi32:GDI32.dll
 0002:00008996       .idata$6                   10027996     advapi32:ADVAPI32.dll
 0002:00008ab2       .idata$6                   10027ab2     ole32:ole32.dll
 0002:00008abc       .idata$6                   10027abc     oleaut32:OLEAUT32.dll
 0003:00000110       ?ObjectMap@@3PAU_ATL_OBJMAP_ENTRY30@ATL@@A 10028110     ElectronicJournal.obj
 0003:000001d0       ?s_SOMethodNames@@3PAPADA  100281d0     ElectronicJournalImpl.obj
 0003:00000264       ?s_RequiredMethodsPerRelease@@3PAHA 10028264     ElectronicJournalImpl.obj
 0003:00000280       ?__vcrt_flsindex@@3KA      10028280     libvcruntime:per_thread_data.obj
 0003:000002a0       ?errno_no_memory@@3HA      100282a0     libucrt:errno.obj
 0003:000002a4       ?doserrno_no_memory@@3KA   100282a4     libucrt:errno.obj
 0003:000002b0       ?__acrt_flsindex@@3KA      100282b0     libucrt:per_thread_data.obj
 0003:00000428       __mbctypes                 10028428     libucrt:mbctype.obj
 0003:00000530       __mbcasemaps               10028530     libucrt:mbctype.obj
 0003:00000630       ?__rgctypeflag@@3PADA      10028630     libucrt:mbctype.obj
 0003:00000638       ?__rgcode_page_info@@3PAUcode_page_info@@A 10028638     libucrt:mbctype.obj
 0003:00000b40       ?is_initialized_as_dll@@3_NA 10028b40     LIBCMT:utility.obj
 0003:00000b41       ?module_local_atexit_table_initialized@@3_NA 10028b41     LIBCMT:utility.obj
 0003:00000b44       ?module_local_atexit_table@@3U_onexit_table_t@@A 10028b44     LIBCMT:utility.obj
 0003:00000b50       ?module_local_at_quick_exit_table@@3U_onexit_table_t@@A 10028b50     LIBCMT:utility.obj
 0003:00000b5c       ?_Tss_mutex@@3U_RTL_CRITICAL_SECTION@@A 10028b5c     LIBCMT:thread_safe_statics.obj
 0003:00000b74       ?_Tss_cv@@3U_RTL_CONDITION_VARIABLE@@A 10028b74     LIBCMT:thread_safe_statics.obj
 0003:00000b78       ?_Tss_event@@3PAXA         10028b78     LIBCMT:thread_safe_statics.obj
 0003:00000b7c       ?encoded_sleep_condition_variable_cs@@3P6GHPAU_RTL_CONDITION_VARIABLE@@PAU_RTL_CRITICAL_SECTION@@K@ZA 10028b7c     LIBCMT:thread_safe_statics.obj
 0003:00000b80       ?encoded_wake_all_condition_variable@@3P6GXPAU_RTL_CONDITION_VARIABLE@@@ZA 10028b80     LIBCMT:thread_safe_statics.obj
 0003:00000b88       _GS_ExceptionRecord        10028b88     LIBCMT:gs_report.obj
 0003:00000bd8       _GS_ContextRecord          10028bd8     LIBCMT:gs_report.obj
 0003:00000ea8       ?__proc_attached@@3HA      10028ea8     LIBCMT:dll_dllmain.obj
 0003:00000f04       ?AllocateData@@3P6GPAUAtlThunkData_t@@XZA 10028f04     atls:atlthunk.obj
 0003:00000f08       ?InitData@@3P6GXPAUAtlThunkData_t@@PAXI@ZA 10028f08     atls:atlthunk.obj
 0003:00000f0c       ?DataToCode@@3P6GP6GJPAUHWND__@@IIJ@ZPAUAtlThunkData_t@@@ZA 10028f0c     atls:atlthunk.obj
 0003:00000f10       ?FreeData@@3P6GXPAUAtlThunkData_t@@@ZA 10028f10     atls:atlthunk.obj
 0003:00000f14       ?Initialized@@3_NA         10028f14     atls:atlthunk.obj
 0003:00000f20       ?__vcrt_startup_thread_ptd@@3U__vcrt_ptd@@A 10028f20     libvcruntime:per_thread_data.obj
 0003:00000f48       ___vcrt_lock_table         10028f48     libvcruntime:locks.obj
 0003:00000f60       ___vcrt_locks_initialized  10028f60     libvcruntime:locks.obj
 0003:00000f64       ?module_handles@@3PAPAUHINSTANCE__@@A 10028f64     libvcruntime:winapi_downlevel.obj
 0003:00000f70       ?encoded_function_pointers@@3PAPAXA 10028f70     libvcruntime:winapi_downlevel.obj
 0003:00000fac       ?heap@@3V_HeapManager@@A   10028fac     libvcruntime:undname.obj
 0003:00000fc4       ?__acrt_invalid_parameter_handler@@3V?$dual_state_global@P6AXPB_W00II@Z@__crt_state_management@@A 10028fc4     libucrt:invalid_parameter.obj
 0003:00000fc8       ?c_termination_complete@@3JA 10028fc8     libucrt:exit.obj
 0003:00000fcc       ?thread_local_exit_callback_func@@3P6GXPAXK0@ZA 10028fcc     libucrt:exit.obj
 0003:00000fd8       ?program_name@?1???$common_configure_argv@D@@YAHW4_crt_argv_mode@@@Z@4PADA 10028fd8     libucrt:argv_parsing.obj
 0003:00001108       ?__acrt_new_handler@@3V?$dual_state_global@P6AHI@Z@__crt_state_management@@A 10029108     libucrt:new_handler.obj
 0003:00001110       ?module_handles@@3PAPAUHINSTANCE__@@A 10029110     libucrt:winapi_thunks.obj
 0003:00001160       ?encoded_function_pointers@@3PAPAXA 10029160     libucrt:winapi_thunks.obj
 0003:000011f0       ?enable_percent_n@@3IA     100291f0     libucrt:printf_count_output.obj
 0003:00001410       ?__acrt_lock_table@@3PAU_RTL_CRITICAL_SECTION@@A 10029410     libucrt:locks.obj
 0003:00001560       ?__acrt_locks_initialized@@3IA 10029560     libucrt:locks.obj
 0003:00001570       ?fSystemSet@@3HA           10029570     libucrt:mbctype.obj
 0003:00001574       ?initialized@?1??__acrt_initialize_multibyte@@9@4_NA 10029574     libucrt:mbctype.obj
 0003:00001594       ?ctrlc_action@@3V?$dual_state_global@P6AXH@Z@__crt_state_management@@A 10029594     libucrt:signal.obj
 0003:00001598       ?ctrlbreak_action@@3V?$dual_state_global@P6AXH@Z@__crt_state_management@@A 10029598     libucrt:signal.obj
 0003:0000159c       ?abort_action@@3V?$dual_state_global@P6AXH@Z@__crt_state_management@@A 1002959c     libucrt:signal.obj
 0003:000015a0       ?term_action@@3V?$dual_state_global@P6AXH@Z@__crt_state_management@@A 100295a0     libucrt:signal.obj
 0003:000015a4       ?user_matherr@@3V?$dual_state_global@P6AHPAU_exception@@@Z@__crt_state_management@@A 100295a4     libucrt:matherr.obj
 0003:000015a8       ?__acrt_global_new_mode@@3V?$dual_state_global@J@__crt_state_management@@A 100295a8     libucrt:new_mode.obj
 0003:000015b4       ?__acrt_app_type@@3W4_crt_app_type@@A 100295b4     libucrt:report_runtime_error.obj
 0003:000015bc       __pmatherr_set             100295bc     libucrt:libm_error.obj
 0004:00000220       $R000000                   1002a220     ElectronicJournal.res
 0004:00000bb8       $R000998                   1002abb8     ElectronicJournal.res
 0004:00000ca0       $R000A80                   1002aca0     ElectronicJournal.res
 0004:00000f08       $R000CE8                   1002af08     ElectronicJournal.res
 0004:00001410       $R0011F0                   1002b410     ElectronicJournal.res
 0004:000050c8       $R004EA8                   1002f0c8     ElectronicJournal.res
 0004:00005110       $R004EF0                   1002f110     ElectronicJournal.res
