 OPOSCoinAcceptor

 Timestamp is 600f77f9 (Tue Jan 26 11:01:29 2021)

 Preferred load address is 10000000

 Start         Length     Name                   Class
 0001:00000000 00000080H .text$di                CODE
 0001:00000080 0001e293H .text$mn                CODE
 0001:0001e313 0000003aH .text$x                 CODE
 0001:0001e34d 00000042H .text$yd                CODE
 0002:00000000 000002fcH .idata$5                DATA
 0002:000002fc 00000004H .00cfg                  DATA
 0002:00000300 00000004H .CRT$XCA                DATA
 0002:00000304 00000004H .CRT$XCL                DATA
 0002:00000308 00000010H .CRT$XCU                DATA
 0002:00000318 00000004H .CRT$XCZ                DATA
 0002:0000031c 00000004H .CRT$XIA                DATA
 0002:00000320 00000010H .CRT$XIC                DATA
 0002:00000330 00000004H .CRT$XIZ                DATA
 0002:00000334 00000004H .CRT$XLA                DATA
 0002:00000338 00000004H .CRT$XLZ                DATA
 0002:0000033c 00000004H .CRT$XPA                DATA
 0002:00000340 00000008H .CRT$XPX                DATA
 0002:00000348 00000004H .CRT$XPXA               DATA
 0002:0000034c 00000004H .CRT$XPZ                DATA
 0002:00000350 00000004H .CRT$XTA                DATA
 0002:00000354 0000000cH .CRT$XTZ                DATA
 0002:00000358 00000000H .gfids$y                DATA
 0002:00000360 000072a0H .rdata                  DATA
 0002:00007600 00000000H .rdata$CastGuardVftablesA DATA
 0002:00007600 00000000H .rdata$CastGuardVftablesC DATA
 0002:00007600 00000018H .rdata$T                DATA
 0002:00007618 00000178H .rdata$r                DATA
 0002:00007790 0000001cH .rdata$sxdata           DATA
 0002:000077ac 000003e0H .rdata$zzzdbg           DATA
 0002:00007b8c 00000004H .rtc$IAA                DATA
 0002:00007b90 00000004H .rtc$IZZ                DATA
 0002:00007b94 00000004H .rtc$TAA                DATA
 0002:00007b98 00000004H .rtc$TZZ                DATA
 0002:00007b9c 00000004H .tls                    DATA
 0002:00007ba0 00000004H .tls$                   DATA
 0002:00007ba4 00000004H .tls$ZZZ                DATA
 0002:00007ba8 0000062cH .xdata$x                DATA
 0002:000081d4 00000004H ATL$__a                 DATA
 0002:000081d8 00000008H ATL$__z                 DATA
 0002:000081e0 000000b0H .edata                  DATA
 0002:00008290 00000078H .idata$2                DATA
 0002:00008308 00000014H .idata$3                DATA
 0002:0000831c 000002fcH .idata$4                DATA
 0002:00008618 00000bceH .idata$6                DATA
 0003:00000000 00000aa0H .data                   DATA
 0003:00000aa0 00000098H .data$r                 DATA
 0003:00000b38 00000b88H .bss                    DATA
 0004:00000000 00000220H .rsrc$01                DATA
 0004:00000220 000040c8H .rsrc$02                DATA

  Address         Publics by Value              Rva+Base       Lib:Object

 0000:00000000       ___guard_fids_count        00000000     <absolute>
 0000:00000000       ___guard_longjmp_table     00000000     <absolute>
 0000:00000000       ___volatile_metadata       00000000     <absolute>
 0000:00000000       ___arm64x_extra_rfe_table  00000000     <absolute>
 0000:00000000       ___guard_eh_cont_table     00000000     <absolute>
 0000:00000000       ___arm64x_redirection_metadata 00000000     <absolute>
 0000:00000000       ___guard_eh_cont_count     00000000     <absolute>
 0000:00000000       ___guard_iat_count         00000000     <absolute>
 0000:00000000       __except_list              00000000     <absolute>
 0000:00000000       ___hybrid_code_map_count   00000000     <absolute>
 0000:00000000       ___x64_code_ranges_to_entry_points_count 00000000     <absolute>
 0000:00000000       ___x64_code_ranges_to_entry_points 00000000     <absolute>
 0000:00000000       ___guard_iat_table         00000000     <absolute>
 0000:00000000       ___arm64x_native_entrypoint 00000000     <absolute>
 0000:00000000       ___hybrid_code_map         00000000     <absolute>
 0000:00000000       ___arm64x_extra_rfe_table_size 00000000     <absolute>
 0000:00000000       ___guard_longjmp_count     00000000     <absolute>
 0000:00000000       ___arm64x_redirection_metadata_count 00000000     <absolute>
 0000:00000000       ___hybrid_auxiliary_iat    00000000     <absolute>
 0000:00000000       ___dynamic_value_reloc_table 00000000     <absolute>
 0000:00000000       ___AbsoluteZero            00000000     <absolute>
 0000:00000000       ___enclave_config          00000000     <absolute>
 0000:00000000       ___guard_fids_table        00000000     <absolute>
 0000:00000007       ___safe_se_handler_count   00000007     <absolute>
 0000:0000002c       __tls_array                0000002c     <absolute>
 0000:00000100       ___guard_flags             00000100     <absolute>
 0000:00000000       ___ImageBase               10000000     <linker-defined>
 0001:00000080       ?DupWide@_CW@@AAEXXZ       10001080 f   CWString.obj
 0001:0000009c       ?cw_dup@@YGXPBDAAHAAPA_W1@Z 1000109c f   CWString.obj
 0001:00000124       ?cw_memcpy@@YGHPA_WPBDH@Z  10001124 f   CWString.obj
 0001:00000150       ?cw_strcpy@@YAHPA_WPBD@Z   10001150 f   CWString.obj
 0001:00000163       ?cw_strlen@@YAHPBD@Z       10001163 f   CWString.obj
 0001:0000017c       ??0CAtlComModule@ATL@@QAE@XZ 1000117c f i OposVariant.obj
 0001:000001c1       ??0CAtlWinModule@ATL@@QAE@XZ 100011c1 f i OposVariant.obj
 0001:000001f8       ??0OposDispParms@@QAE@PAVOposVariant@@H@Z 100011f8 f   OposVariant.obj
 0001:00000269       ??1OposDispParms@@QAE@XZ   10001269 f   OposVariant.obj
 0001:00000277       ??A?$CSimpleArray@GV?$CSimpleArrayEqualHelper@G@ATL@@@ATL@@QAEAAGH@Z 10001277 f i OposVariant.obj
 0001:0000029c       ??_Estringdispid@CComTypeInfoHolder@ATL@@QAEPAXI@Z 1000129c f i OposVariant.obj
 0001:00000308       ?AtlWinModuleInit@ATL@@YGJPAU_ATL_WIN_MODULE70@1@@Z 10001308 f i OposVariant.obj
 0001:0000032e       ?AtlWinModuleTerm@ATL@@YGJPAU_ATL_WIN_MODULE70@1@PAUHINSTANCE__@@@Z 1000132e f i OposVariant.obj
 0001:00000391       ?ChangeBSTR@OposVariant@@QAEXPAPA_WAAJ@Z 10001391 f   OposVariant.obj
 0001:000003d2       ?ChangeLONG@OposVariant@@QAEXPAJAAJ@Z 100013d2 f   OposVariant.obj
 0001:00000413       ?GetLONG@OposVariant@@QAEJXZ 10001413 f   OposVariant.obj
 0001:0000042e       ?Init@CComCriticalSection@ATL@@QAEJXZ 1000142e f i OposVariant.obj
 0001:00000456       ?RemoveAll@?$CSimpleArray@PAUHINSTANCE__@@V?$CSimpleArrayEqualHelper@PAUHINSTANCE__@@@ATL@@@ATL@@QAEXXZ 10001456 f i atls:atlbase.obj
 0001:00000456       ?RemoveAll@?$CSimpleArray@GV?$CSimpleArrayEqualHelper@G@ATL@@@ATL@@QAEXXZ 10001456 f i OposVariant.obj
 0001:00000473       ?SetBSTR@OposVariant@@QAEXPA_WAAJ@Z 10001473 f   OposVariant.obj
 0001:000004a7       ?SetBSTR_Copy@OposVariant@@QAEXPA_WAAJ@Z 100014a7 f   OposVariant.obj
 0001:000004f7       ?SetBSTR_InOutPtr@OposVariant@@QAE_NPAPA_WAAJ@Z 100014f7 f   OposVariant.obj
 0001:0000052e       ?SetBSTR_OutPtr@OposVariant@@QAE_NPAPA_WAAJ@Z 1000152e f   OposVariant.obj
 0001:0000054a       ?SetDispatch_Ptr@OposVariant@@QAEXPAUIDispatch@@AAJ@Z 1000154a f   OposVariant.obj
 0001:00000585       ?SetLONG@OposVariant@@QAEXJ@Z 10001585 f   OposVariant.obj
 0001:000005a7       ?SetLONG_Ptr@OposVariant@@QAEXPAJAAJ@Z 100015a7 f   OposVariant.obj
 0001:000005da       ?SetString@OposVariant@@QAEXPB_WAAJ@Z 100015da f   OposVariant.obj
 0001:00000620       ?SetVARIANT_BOOL@OposVariant@@QAEXF@Z 10001620 f   OposVariant.obj
 0001:0000064a       ?SetVARIANT_BOOL_Ptr@OposVariant@@QAEXPAFAAJ@Z 1000164a f   OposVariant.obj
 0001:0000067d       ?Term@CAtlComModule@ATL@@QAEXXZ 1000167d f i OposVariant.obj
 0001:000006c7       ?_AtlRaiseException@ATL@@YAXKK@Z 100016c7 f i OposVariant.obj
 0001:000006dc       ?Release@?$CComObject@VCOPOSCoinAcceptor@@@ATL@@WIM@AGKXZ 100016dc f i CoinAcceptor.obj
 0001:000006e9       ?QueryInterface@?$CComObject@VCOPOSCoinAcceptor@@@ATL@@WJA@AGJABU_GUID@@PAPAX@Z 100016e9 f i CoinAcceptor.obj
 0001:000006f6       ?AddRef@?$CComObject@VCOPOSCoinAcceptor@@@ATL@@WJA@AGKXZ 100016f6 f i CoinAcceptor.obj
 0001:00000703       ?Release@?$CComObject@VCOPOSCoinAcceptor@@@ATL@@WJA@AGKXZ 10001703 f i CoinAcceptor.obj
 0001:00000710       ?QueryInterface@?$CComObject@VCOPOSCoinAcceptor@@@ATL@@WJE@AGJABU_GUID@@PAPAX@Z 10001710 f i CoinAcceptor.obj
 0001:0000071d       ?AddRef@?$CComObject@VCOPOSCoinAcceptor@@@ATL@@WJE@AGKXZ 1000171d f i CoinAcceptor.obj
 0001:0000072a       ?Release@?$CComObject@VCOPOSCoinAcceptor@@@ATL@@WJE@AGKXZ 1000172a f i CoinAcceptor.obj
 0001:00000737       ?QueryInterface@?$CComObject@VCOPOSCoinAcceptor@@@ATL@@WJI@AGJABU_GUID@@PAPAX@Z 10001737 f i CoinAcceptor.obj
 0001:00000744       ?AddRef@?$CComObject@VCOPOSCoinAcceptor@@@ATL@@WJI@AGKXZ 10001744 f i CoinAcceptor.obj
 0001:00000751       ?Release@?$CComObject@VCOPOSCoinAcceptor@@@ATL@@WJI@AGKXZ 10001751 f i CoinAcceptor.obj
 0001:0000075e       ?QueryInterface@?$CComObject@VCOPOSCoinAcceptor@@@ATL@@WJM@AGJABU_GUID@@PAPAX@Z 1000175e f i CoinAcceptor.obj
 0001:0000076b       ?AddRef@?$CComObject@VCOPOSCoinAcceptor@@@ATL@@WJM@AGKXZ 1000176b f i CoinAcceptor.obj
 0001:00000778       ?Release@?$CComObject@VCOPOSCoinAcceptor@@@ATL@@WJM@AGKXZ 10001778 f i CoinAcceptor.obj
 0001:00000785       ?QueryInterface@?$CComObject@VCOPOSCoinAcceptor@@@ATL@@WKA@AGJABU_GUID@@PAPAX@Z 10001785 f i CoinAcceptor.obj
 0001:00000792       ?AddRef@?$CComObject@VCOPOSCoinAcceptor@@@ATL@@WKA@AGKXZ 10001792 f i CoinAcceptor.obj
 0001:0000079f       ?Release@?$CComObject@VCOPOSCoinAcceptor@@@ATL@@WKA@AGKXZ 1000179f f i CoinAcceptor.obj
 0001:000007ac       ?AddRef@?$CComObject@VCOPOSCoinAcceptor@@@ATL@@WKI@AGKXZ 100017ac f i CoinAcceptor.obj
 0001:000007b9       ?Release@?$CComObject@VCOPOSCoinAcceptor@@@ATL@@WKI@AGKXZ 100017b9 f i CoinAcceptor.obj
 0001:000007c6       ?AddRef@?$CComObject@VCOPOSCoinAcceptor@@@ATL@@WLE@AGKXZ 100017c6 f i CoinAcceptor.obj
 0001:000007d3       ?Release@?$CComObject@VCOPOSCoinAcceptor@@@ATL@@WLE@AGKXZ 100017d3 f i CoinAcceptor.obj
 0001:000007e0       ??_E?$CComContainedObject@VCOPOSCoinAcceptor@@@ATL@@W3AEPAXI@Z 100017e0 f i CoinAcceptor.obj
 0001:000007e8       ??_E?$CComContainedObject@VCOPOSCoinAcceptor@@@ATL@@WEM@AEPAXI@Z 100017e8 f i CoinAcceptor.obj
 0001:000007f0       ?QueryInterface@?$CComContainedObject@VCOPOSCoinAcceptor@@@ATL@@WHA@AGJABU_GUID@@PAPAX@Z 100017f0 f i CoinAcceptor.obj
 0001:000007fa       ?AddRef@?$CComContainedObject@VCOPOSCoinAcceptor@@@ATL@@WHA@AGKXZ 100017fa f i CoinAcceptor.obj
 0001:00000804       ?Release@?$CComContainedObject@VCOPOSCoinAcceptor@@@ATL@@WHA@AGKXZ 10001804 f i CoinAcceptor.obj
 0001:0000080e       ?QueryInterface@?$CComContainedObject@VCOPOSCoinAcceptor@@@ATL@@WHE@AGJABU_GUID@@PAPAX@Z 1000180e f i CoinAcceptor.obj
 0001:00000818       ?AddRef@?$CComContainedObject@VCOPOSCoinAcceptor@@@ATL@@WHE@AGKXZ 10001818 f i CoinAcceptor.obj
 0001:00000822       ?Release@?$CComContainedObject@VCOPOSCoinAcceptor@@@ATL@@WHE@AGKXZ 10001822 f i CoinAcceptor.obj
 0001:0000082c       ?QueryInterface@?$CComContainedObject@VCOPOSCoinAcceptor@@@ATL@@WHI@AGJABU_GUID@@PAPAX@Z 1000182c f i CoinAcceptor.obj
 0001:00000836       ?AddRef@?$CComContainedObject@VCOPOSCoinAcceptor@@@ATL@@WHI@AGKXZ 10001836 f i CoinAcceptor.obj
 0001:00000840       ?Release@?$CComContainedObject@VCOPOSCoinAcceptor@@@ATL@@WHI@AGKXZ 10001840 f i CoinAcceptor.obj
 0001:0000084a       ?QueryInterface@?$CComContainedObject@VCOPOSCoinAcceptor@@@ATL@@WHM@AGJABU_GUID@@PAPAX@Z 1000184a f i CoinAcceptor.obj
 0001:00000854       ?AddRef@?$CComContainedObject@VCOPOSCoinAcceptor@@@ATL@@WHM@AGKXZ 10001854 f i CoinAcceptor.obj
 0001:0000085e       ?Release@?$CComContainedObject@VCOPOSCoinAcceptor@@@ATL@@WHM@AGKXZ 1000185e f i CoinAcceptor.obj
 0001:00000868       ?QueryInterface@?$CComContainedObject@VCOPOSCoinAcceptor@@@ATL@@WIA@AGJABU_GUID@@PAPAX@Z 10001868 f i CoinAcceptor.obj
 0001:00000875       ?AddRef@?$CComContainedObject@VCOPOSCoinAcceptor@@@ATL@@WIA@AGKXZ 10001875 f i CoinAcceptor.obj
 0001:00000882       ?Release@?$CComContainedObject@VCOPOSCoinAcceptor@@@ATL@@WIA@AGKXZ 10001882 f i CoinAcceptor.obj
 0001:0000088f       ?QueryInterface@?$CComContainedObject@VCOPOSCoinAcceptor@@@ATL@@WIE@AGJABU_GUID@@PAPAX@Z 1000188f f i CoinAcceptor.obj
 0001:0000089c       ?AddRef@?$CComContainedObject@VCOPOSCoinAcceptor@@@ATL@@WIE@AGKXZ 1000189c f i CoinAcceptor.obj
 0001:000008a9       ?Release@?$CComContainedObject@VCOPOSCoinAcceptor@@@ATL@@WIE@AGKXZ 100018a9 f i CoinAcceptor.obj
 0001:000008b6       ?QueryInterface@?$CComContainedObject@VCOPOSCoinAcceptor@@@ATL@@WII@AGJABU_GUID@@PAPAX@Z 100018b6 f i CoinAcceptor.obj
 0001:000008c3       ?AddRef@?$CComContainedObject@VCOPOSCoinAcceptor@@@ATL@@WII@AGKXZ 100018c3 f i CoinAcceptor.obj
 0001:000008d0       ?Release@?$CComContainedObject@VCOPOSCoinAcceptor@@@ATL@@WII@AGKXZ 100018d0 f i CoinAcceptor.obj
 0001:000008dd       ?QueryInterface@?$CComContainedObject@VCOPOSCoinAcceptor@@@ATL@@WIM@AGJABU_GUID@@PAPAX@Z 100018dd f i CoinAcceptor.obj
 0001:000008ea       ?AddRef@?$CComContainedObject@VCOPOSCoinAcceptor@@@ATL@@WIM@AGKXZ 100018ea f i CoinAcceptor.obj
 0001:000008f7       ?Release@?$CComContainedObject@VCOPOSCoinAcceptor@@@ATL@@WIM@AGKXZ 100018f7 f i CoinAcceptor.obj
 0001:00000904       ?QueryInterface@?$CComContainedObject@VCOPOSCoinAcceptor@@@ATL@@WJA@AGJABU_GUID@@PAPAX@Z 10001904 f i CoinAcceptor.obj
 0001:00000911       ?AddRef@?$CComContainedObject@VCOPOSCoinAcceptor@@@ATL@@WJA@AGKXZ 10001911 f i CoinAcceptor.obj
 0001:0000091e       ?Release@?$CComContainedObject@VCOPOSCoinAcceptor@@@ATL@@WJA@AGKXZ 1000191e f i CoinAcceptor.obj
 0001:0000092b       ?QueryInterface@?$CComContainedObject@VCOPOSCoinAcceptor@@@ATL@@WJE@AGJABU_GUID@@PAPAX@Z 1000192b f i CoinAcceptor.obj
 0001:00000938       ?AddRef@?$CComContainedObject@VCOPOSCoinAcceptor@@@ATL@@WJE@AGKXZ 10001938 f i CoinAcceptor.obj
 0001:00000945       ?Release@?$CComContainedObject@VCOPOSCoinAcceptor@@@ATL@@WJE@AGKXZ 10001945 f i CoinAcceptor.obj
 0001:00000952       ?QueryInterface@?$CComContainedObject@VCOPOSCoinAcceptor@@@ATL@@WJI@AGJABU_GUID@@PAPAX@Z 10001952 f i CoinAcceptor.obj
 0001:0000095f       ?AddRef@?$CComContainedObject@VCOPOSCoinAcceptor@@@ATL@@WJI@AGKXZ 1000195f f i CoinAcceptor.obj
 0001:0000096c       ?Release@?$CComContainedObject@VCOPOSCoinAcceptor@@@ATL@@WJI@AGKXZ 1000196c f i CoinAcceptor.obj
 0001:00000979       ?QueryInterface@?$CComContainedObject@VCOPOSCoinAcceptor@@@ATL@@WJM@AGJABU_GUID@@PAPAX@Z 10001979 f i CoinAcceptor.obj
 0001:00000986       ?AddRef@?$CComContainedObject@VCOPOSCoinAcceptor@@@ATL@@WJM@AGKXZ 10001986 f i CoinAcceptor.obj
 0001:00000993       ?Release@?$CComContainedObject@VCOPOSCoinAcceptor@@@ATL@@WJM@AGKXZ 10001993 f i CoinAcceptor.obj
 0001:000009a0       ?QueryInterface@?$CComContainedObject@VCOPOSCoinAcceptor@@@ATL@@WKA@AGJABU_GUID@@PAPAX@Z 100019a0 f i CoinAcceptor.obj
 0001:000009ad       ?AddRef@?$CComContainedObject@VCOPOSCoinAcceptor@@@ATL@@WKA@AGKXZ 100019ad f i CoinAcceptor.obj
 0001:000009ba       ?Release@?$CComContainedObject@VCOPOSCoinAcceptor@@@ATL@@WKA@AGKXZ 100019ba f i CoinAcceptor.obj
 0001:000009c7       ?AddRef@?$CComContainedObject@VCOPOSCoinAcceptor@@@ATL@@WKI@AGKXZ 100019c7 f i CoinAcceptor.obj
 0001:000009d4       ?Release@?$CComContainedObject@VCOPOSCoinAcceptor@@@ATL@@WKI@AGKXZ 100019d4 f i CoinAcceptor.obj
 0001:000009e1       ?AddRef@?$CComContainedObject@VCOPOSCoinAcceptor@@@ATL@@WLE@AGKXZ 100019e1 f i CoinAcceptor.obj
 0001:000009ee       ?Release@?$CComContainedObject@VCOPOSCoinAcceptor@@@ATL@@WLE@AGKXZ 100019ee f i CoinAcceptor.obj
 0001:000009fb       ?CreateInstance@CComClassFactory@ATL@@UAGJPAUIUnknown@@ABU_GUID@@PAPAX@Z 100019fb f i CoinAcceptor.obj
 0001:00000a39       ?LockServer@CComClassFactory@ATL@@UAGJH@Z 10001a39 f i CoinAcceptor.obj
 0001:00000a58       ??_GCComClassFactory@ATL@@UAEPAXI@Z 10001a58 f i CoinAcceptor.obj
 0001:00000a58       ??_ECComClassFactory@ATL@@UAEPAXI@Z 10001a58 f i CoinAcceptor.obj
 0001:00000a83       ?GetWindowProc@?$CWindowImplBaseT@VCWindow@ATL@@V?$CWinTraits@$0FGAAAAAA@$0A@@2@@ATL@@UAEP6GJPAUHWND__@@IIJ@ZXZ 10001a83 f i CoinAcceptor.obj
 0001:00000a89       ?StartWindowProc@?$CWindowImplBaseT@VCWindow@ATL@@V?$CWinTraits@$0FGAAAAAA@$0A@@2@@ATL@@SGJPAUHWND__@@IIJ@Z 10001a89 f i CoinAcceptor.obj
 0001:00000add       ?OnFinalMessage@?$CWindowImplBaseT@VCWindow@ATL@@V?$CWinTraits@$0FGAAAAAA@$0A@@2@@ATL@@UAEXPAUHWND__@@@Z 10001add f i CoinAcceptor.obj
 0001:00000add       ?ObjectMain@CComObjectRootBase@ATL@@SGX_N@Z 10001add f i CoinAcceptor.obj
 0001:00000ae0       ?GetTypeInfoCount@?$IDispatchImpl@UIOPOSCoinAcceptor@@$1?IID_IOPOSCoinAcceptor@@3U_GUID@@B$1?LIBID_OposCoinAcceptor_CCO@@3U3@B$00$0A@VCComTypeInfoHolder@ATL@@@ATL@@UAGJPAI@Z 10001ae0 f i CoinAcceptor.obj
 0001:00000afd       ?GetTypeInfo@?$IDispatchImpl@UIOPOSCoinAcceptor@@$1?IID_IOPOSCoinAcceptor@@3U_GUID@@B$1?LIBID_OposCoinAcceptor_CCO@@3U3@B$00$0A@VCComTypeInfoHolder@ATL@@@ATL@@UAGJIKPAPAUITypeInfo@@@Z 10001afd f i CoinAcceptor.obj
 0001:00000b21       ?GetIDsOfNames@?$IDispatchImpl@UIOPOSCoinAcceptor@@$1?IID_IOPOSCoinAcceptor@@3U_GUID@@B$1?LIBID_OposCoinAcceptor_CCO@@3U3@B$00$0A@VCComTypeInfoHolder@ATL@@@ATL@@UAGJABU_GUID@@PAPA_WIKPAJ@Z 10001b21 f i CoinAcceptor.obj
 0001:00000b41       ?Invoke@?$IDispatchImpl@UIOPOSCoinAcceptor@@$1?IID_IOPOSCoinAcceptor@@3U_GUID@@B$1?LIBID_OposCoinAcceptor_CCO@@3U3@B$00$0A@VCComTypeInfoHolder@ATL@@@ATL@@UAGJJABU_GUID@@KGPAUtagDISPPARAMS@@PAUtagVARIANT@@PAUtagEXCEPINFO@@PAI@Z 10001b41 f i CoinAcceptor.obj
 0001:00000b4f       ?CreateControlWindow@?$CComControl@VCOPOSCoinAcceptor@@V?$CWindowImpl@VCOPOSCoinAcceptor@@VCWindow@ATL@@V?$CWinTraits@$0FGAAAAAA@$0A@@3@@ATL@@@ATL@@UAEPAUHWND__@@PAU3@AAUtagRECT@@@Z 10001b4f f i CoinAcceptor.obj
 0001:00000b7e       ?ControlQueryInterface@?$CComControl@VCOPOSCoinAcceptor@@V?$CWindowImpl@VCOPOSCoinAcceptor@@VCWindow@ATL@@V?$CWinTraits@$0FGAAAAAA@$0A@@3@@ATL@@@ATL@@UAEJABU_GUID@@PAPAX@Z 10001b7e f i CoinAcceptor.obj
 0001:00000b99       ?GetUserClassID@?$IOleObjectImpl@VCOPOSCoinAcceptor@@@ATL@@UAGJPAU_GUID@@@Z 10001b99 f i CoinAcceptor.obj
 0001:00000b99       ?GetClassID@?$IPersistStorageImpl@VCOPOSCoinAcceptor@@@ATL@@UAGJPAU_GUID@@@Z 10001b99 f i CoinAcceptor.obj
 0001:00000b99       ?GetClassID@?$IPersistStreamInitImpl@VCOPOSCoinAcceptor@@@ATL@@UAGJPAU_GUID@@@Z 10001b99 f i CoinAcceptor.obj
 0001:00000bbd       ?IsDirty@?$IPersistStreamInitImpl@VCOPOSCoinAcceptor@@@ATL@@UAGJXZ 10001bbd f i CoinAcceptor.obj
 0001:00000bdc       ?Load@?$IPersistStreamInitImpl@VCOPOSCoinAcceptor@@@ATL@@UAGJPAUIStream@@@Z 10001bdc f i CoinAcceptor.obj
 0001:00000bfb       ?Save@?$IPersistStreamInitImpl@VCOPOSCoinAcceptor@@@ATL@@UAGJPAUIStream@@H@Z 10001bfb f i CoinAcceptor.obj
 0001:00000c1d       ?GetSizeMax@?$IPersistStreamInitImpl@VCOPOSCoinAcceptor@@@ATL@@UAGJPAT_ULARGE_INTEGER@@@Z 10001c1d f i CoinAcceptor.obj
 0001:00000dfc       ?InitNew@?$IPersistStreamInitImpl@VCOPOSCoinAcceptor@@@ATL@@UAGJXZ 10001dfc f i CoinAcceptor.obj
 0001:00000e19       ?Unfreeze@?$IViewObjectExImpl@VCOPOSCoinAcceptor@@@ATL@@UAGJK@Z 10001e19 f i CoinAcceptor.obj
 0001:00000e19       ?GetDropTarget@?$IOleInPlaceObjectWindowlessImpl@VCOPOSCoinAcceptor@@@ATL@@UAGJPAPAUIDropTarget@@@Z 10001e19 f i CoinAcceptor.obj
 0001:00000e19       ?SetColorScheme@?$IOleObjectImpl@VCOPOSCoinAcceptor@@@ATL@@UAGJPAUtagLOGPALETTE@@@Z 10001e19 f i CoinAcceptor.obj
 0001:00000e19       ?ContextSensitiveHelp@?$IOleInPlaceActiveObjectImpl@VCOPOSCoinAcceptor@@@ATL@@UAGJH@Z 10001e19 f i CoinAcceptor.obj
 0001:00000e19       ?GetControlInfo@?$IOleControlImpl@VCOPOSCoinAcceptor@@@ATL@@UAGJPAUtagCONTROLINFO@@@Z 10001e19 f i CoinAcceptor.obj
 0001:00000e19       ?QueryGetData@?$IDataObjectImpl@VCOPOSCoinAcceptor@@@ATL@@UAGJPAUtagFORMATETC@@@Z 10001e19 f i CoinAcceptor.obj
 0001:00000e19       ?SOOutputCompleteDummy@COPOSCoinAcceptor@@MAGJJ@Z 10001e19 f i CoinAcceptor.obj
 0001:00000e19       ?ContextSensitiveHelp@?$IOleInPlaceObjectWindowlessImpl@VCOPOSCoinAcceptor@@@ATL@@UAGJH@Z 10001e19 f i CoinAcceptor.obj
 0001:00000e19       ?OnMnemonic@?$IOleControlImpl@VCOPOSCoinAcceptor@@@ATL@@UAGJPAUtagMSG@@@Z 10001e19 f i CoinAcceptor.obj
 0001:00000e21       ?OnFrameWindowActivate@?$IOleInPlaceActiveObjectImpl@VCOPOSCoinAcceptor@@@ATL@@UAGJH@Z 10001e21 f i CoinAcceptor.obj
 0001:00000e21       ?SaveCompleted@?$IPersistStorageImpl@VCOPOSCoinAcceptor@@@ATL@@UAGJPAUIStorage@@@Z 10001e21 f i CoinAcceptor.obj
 0001:00000e21       ?EnableModeless@?$IOleInPlaceActiveObjectImpl@VCOPOSCoinAcceptor@@@ATL@@UAGJH@Z 10001e21 f i CoinAcceptor.obj
 0001:00000e21       ?OnAmbientPropertyChange@?$IOleControlImpl@VCOPOSCoinAcceptor@@@ATL@@UAGJJ@Z 10001e21 f i CoinAcceptor.obj
 0001:00000e26       ?SetClientSite@?$IOleObjectImpl@VCOPOSCoinAcceptor@@@ATL@@UAGJPAUIOleClientSite@@@Z 10001e26 f i CoinAcceptor.obj
 0001:00000e43       ?GetClientSite@?$IOleObjectImpl@VCOPOSCoinAcceptor@@@ATL@@UAGJPAPAUIOleClientSite@@@Z 10001e43 f i CoinAcceptor.obj
 0001:00000e60       ?SetHostNames@?$IOleObjectImpl@VCOPOSCoinAcceptor@@@ATL@@UAGJPB_W0@Z 10001e60 f i CoinAcceptor.obj
 0001:00000e65       ?Close@?$IOleObjectImpl@VCOPOSCoinAcceptor@@@ATL@@UAGJK@Z 10001e65 f i CoinAcceptor.obj
 0001:00000e82       ?EnumFormatEtc@?$IDataObjectImpl@VCOPOSCoinAcceptor@@@ATL@@UAGJKPAPAUIEnumFORMATETC@@@Z 10001e82 f i CoinAcceptor.obj
 0001:00000e82       ?GetCanonicalFormatEtc@?$IDataObjectImpl@VCOPOSCoinAcceptor@@@ATL@@UAGJPAUtagFORMATETC@@0@Z 10001e82 f i CoinAcceptor.obj
 0001:00000e82       ?QueryInterface@CRegObject@ATL@@UAGJABU_GUID@@PAPAX@Z 10001e82 f i CoinAcceptor.obj
 0001:00000e82       ?GetRect@?$IViewObjectExImpl@VCOPOSCoinAcceptor@@@ATL@@UAGJKPAU_RECTL@@@Z 10001e82 f i CoinAcceptor.obj
 0001:00000e82       ?SetMoniker@?$IOleObjectImpl@VCOPOSCoinAcceptor@@@ATL@@UAGJKPAUIMoniker@@@Z 10001e82 f i CoinAcceptor.obj
 0001:00000e82       ?GetDataHere@?$IDataObjectImpl@VCOPOSCoinAcceptor@@@ATL@@UAGJPAUtagFORMATETC@@PAUtagSTGMEDIUM@@@Z 10001e82 f i CoinAcceptor.obj
 0001:00000e82       ?GetClipboardData@?$IOleObjectImpl@VCOPOSCoinAcceptor@@@ATL@@UAGJKPAPAUIDataObject@@@Z 10001e82 f i CoinAcceptor.obj
 0001:00000e8a       ?SetData@?$IDataObjectImpl@VCOPOSCoinAcceptor@@@ATL@@UAGJPAUtagFORMATETC@@PAUtagSTGMEDIUM@@H@Z 10001e8a f i CoinAcceptor.obj
 0001:00000e8a       ?GetMoniker@?$IOleObjectImpl@VCOPOSCoinAcceptor@@@ATL@@UAGJKKPAPAUIMoniker@@@Z 10001e8a f i CoinAcceptor.obj
 0001:00000e8a       ?InitFromData@?$IOleObjectImpl@VCOPOSCoinAcceptor@@@ATL@@UAGJPAUIDataObject@@HK@Z 10001e8a f i CoinAcceptor.obj
 0001:00000e92       ?DoVerb@?$IOleObjectImpl@VCOPOSCoinAcceptor@@@ATL@@UAGJJPAUtagMSG@@PAUIOleClientSite@@JPAUHWND__@@PBUtagRECT@@@Z 10001e92 f i CoinAcceptor.obj
 0001:00000f86       ?EnumVerbs@?$IOleObjectImpl@VCOPOSCoinAcceptor@@@ATL@@UAGJPAPAUIEnumOLEVERB@@@Z 10001f86 f i CoinAcceptor.obj
 0001:00000fa8       ?Release@CRegObject@ATL@@UAGKXZ 10001fa8 f i CoinAcceptor.obj
 0001:00000fa8       ?IsUpToDate@?$IOleObjectImpl@VCOPOSCoinAcceptor@@@ATL@@UAGJXZ 10001fa8 f i CoinAcceptor.obj
 0001:00000fa8       ?HandsOffStorage@?$IPersistStorageImpl@VCOPOSCoinAcceptor@@@ATL@@UAGJXZ 10001fa8 f i CoinAcceptor.obj
 0001:00000fa8       ?Update@?$IOleObjectImpl@VCOPOSCoinAcceptor@@@ATL@@UAGJXZ 10001fa8 f i CoinAcceptor.obj
 0001:00000fad       ?GetUserType@?$IOleObjectImpl@VCOPOSCoinAcceptor@@@ATL@@UAGJKPAPA_W@Z 10001fad f i CoinAcceptor.obj
 0001:00000fc5       ?SetExtent@?$IOleObjectImpl@VCOPOSCoinAcceptor@@@ATL@@UAGJKPAUtagSIZE@@@Z 10001fc5 f i CoinAcceptor.obj
 0001:00000fe5       ?GetExtent@?$IOleObjectImpl@VCOPOSCoinAcceptor@@@ATL@@UAGJKPAUtagSIZE@@@Z 10001fe5 f i CoinAcceptor.obj
 0001:00001023       ?Advise@?$IOleObjectImpl@VCOPOSCoinAcceptor@@@ATL@@UAGJPAUIAdviseSink@@PAK@Z 10002023 f i CoinAcceptor.obj
 0001:00001043       ?Unadvise@?$IOleObjectImpl@VCOPOSCoinAcceptor@@@ATL@@UAGJK@Z 10002043 f i CoinAcceptor.obj
 0001:00001072       ?EnumAdvise@?$IOleObjectImpl@VCOPOSCoinAcceptor@@@ATL@@UAGJPAPAUIEnumSTATDATA@@@Z 10002072 f i CoinAcceptor.obj
 0001:000010b2       ?GetMiscStatus@?$IOleObjectImpl@VCOPOSCoinAcceptor@@@ATL@@UAGJKPAK@Z 100020b2 f i CoinAcceptor.obj
 0001:000010ca       ?GetWindow@?$IOleInPlaceActiveObjectImpl@VCOPOSCoinAcceptor@@@ATL@@UAGJPAPAUHWND__@@@Z 100020ca f i CoinAcceptor.obj
 0001:00001117       ?TranslateAcceleratorW@?$IOleInPlaceActiveObjectImpl@VCOPOSCoinAcceptor@@@ATL@@UAGJPAUtagMSG@@@Z 10002117 f i CoinAcceptor.obj
 0001:000011c5       ?OnDocWindowActivate@?$IOleInPlaceActiveObjectImpl@VCOPOSCoinAcceptor@@@ATL@@UAGJH@Z 100021c5 f i CoinAcceptor.obj
 0001:000011e7       ?ResizeBorder@?$IOleInPlaceActiveObjectImpl@VCOPOSCoinAcceptor@@@ATL@@UAGJPBUtagRECT@@PAUIOleInPlaceUIWindow@@H@Z 100021e7 f i CoinAcceptor.obj
 0001:000011ec       ?Draw@?$IViewObjectExImpl@VCOPOSCoinAcceptor@@@ATL@@UAGJKJPAXPAUtagDVTARGETDEVICE@@PAUHDC__@@2PBU_RECTL@@3P6GHK@ZK@Z 100021ec f i CoinAcceptor.obj
 0001:0000121e       ?GetColorSet@?$IViewObjectExImpl@VCOPOSCoinAcceptor@@@ATL@@UAGJKJPAXPAUtagDVTARGETDEVICE@@PAUHDC__@@PAPAUtagLOGPALETTE@@@Z 1000221e f i CoinAcceptor.obj
 0001:00001226       ?SOErrorDummy@COPOSCoinAcceptor@@MAGJJJJPAJ@Z 10002226 f i CoinAcceptor.obj
 0001:00001226       ?Freeze@?$IViewObjectExImpl@VCOPOSCoinAcceptor@@@ATL@@UAGJKJPAXPAK@Z 10002226 f i CoinAcceptor.obj
 0001:0000122e       ?SetAdvise@?$IViewObjectExImpl@VCOPOSCoinAcceptor@@@ATL@@UAGJKKPAUIAdviseSink@@@Z 1000222e f i CoinAcceptor.obj
 0001:0000124d       ?GetAdvise@?$IViewObjectExImpl@VCOPOSCoinAcceptor@@@ATL@@UAGJPAK0PAPAUIAdviseSink@@@Z 1000224d f i CoinAcceptor.obj
 0001:00001282       ?GetExtent@?$IViewObjectExImpl@VCOPOSCoinAcceptor@@@ATL@@UAGJKJPAUtagDVTARGETDEVICE@@PAUtagSIZE@@@Z 10002282 f i CoinAcceptor.obj
 0001:000012b3       ?GetViewStatus@?$IViewObjectExImpl@VCOPOSCoinAcceptor@@@ATL@@UAGJPAK@Z 100022b3 f i CoinAcceptor.obj
 0001:000012d0       ?QueryHitPoint@?$IViewObjectExImpl@VCOPOSCoinAcceptor@@@ATL@@UAGJKPBUtagRECT@@UtagPOINT@@JPAK@Z 100022d0 f i CoinAcceptor.obj
 0001:00001311       ?QueryHitRect@?$IViewObjectExImpl@VCOPOSCoinAcceptor@@@ATL@@UAGJKPBUtagRECT@@0JPAK@Z 10002311 f i CoinAcceptor.obj
 0001:0000136c       ?GetNaturalExtent@?$IViewObjectExImpl@VCOPOSCoinAcceptor@@@ATL@@UAGJKJPAUtagDVTARGETDEVICE@@PAUHDC__@@PAUtagExtentInfo@@PAUtagSIZE@@@Z 1000236c f i CoinAcceptor.obj
 0001:000013b7       ?GetWindow@?$IOleInPlaceObjectWindowlessImpl@VCOPOSCoinAcceptor@@@ATL@@UAGJPAPAUHWND__@@@Z 100023b7 f i CoinAcceptor.obj
 0001:00001404       ?InPlaceDeactivate@?$IOleInPlaceObjectWindowlessImpl@VCOPOSCoinAcceptor@@@ATL@@UAGJXZ 10002404 f i CoinAcceptor.obj
 0001:0000141e       ?UIDeactivate@?$IOleInPlaceObjectWindowlessImpl@VCOPOSCoinAcceptor@@@ATL@@UAGJXZ 1000241e f i CoinAcceptor.obj
 0001:00001438       ?SetObjectRects@?$IOleInPlaceObjectWindowlessImpl@VCOPOSCoinAcceptor@@@ATL@@UAGJPBUtagRECT@@0@Z 10002438 f i CoinAcceptor.obj
 0001:00001458       ?ReactivateAndUndo@?$IOleInPlaceObjectWindowlessImpl@VCOPOSCoinAcceptor@@@ATL@@UAGJXZ 10002458 f i CoinAcceptor.obj
 0001:00001460       ?OnWindowMessage@?$IOleInPlaceObjectWindowlessImpl@VCOPOSCoinAcceptor@@@ATL@@UAGJIIJPAJ@Z 10002460 f i CoinAcceptor.obj
 0001:000014d0       ?EnumConnectionPoints@?$IConnectionPointContainerImpl@VCOPOSCoinAcceptor@@@ATL@@UAGJPAPAUIEnumConnectionPoints@@@Z 100024d0 f i CoinAcceptor.obj
 0001:0000165c       ?FindConnectionPoint@?$IConnectionPointContainerImpl@VCOPOSCoinAcceptor@@@ATL@@UAGJABU_GUID@@PAPAUIConnectionPoint@@@Z 1000265c f i CoinAcceptor.obj
 0001:000016ff       ?IsDirty@?$IPersistStorageImpl@VCOPOSCoinAcceptor@@@ATL@@UAGJXZ 100026ff f i CoinAcceptor.obj
 0001:0000172f       ?InitNew@?$IPersistStorageImpl@VCOPOSCoinAcceptor@@@ATL@@UAGJPAUIStorage@@@Z 1000272f f i CoinAcceptor.obj
 0001:0000175f       ?Load@?$IPersistStorageImpl@VCOPOSCoinAcceptor@@@ATL@@UAGJPAUIStorage@@@Z 1000275f f i CoinAcceptor.obj
 0001:000017cb       ?Save@?$IPersistStorageImpl@VCOPOSCoinAcceptor@@@ATL@@UAGJPAUIStorage@@H@Z 100027cb f i CoinAcceptor.obj
 0001:0000183e       ?GetPages@?$ISpecifyPropertyPagesImpl@VCOPOSCoinAcceptor@@@ATL@@UAGJPAUtagCAUUID@@@Z 1000283e f i CoinAcceptor.obj
 0001:00001855       ?QuickActivate@?$IQuickActivateImpl@VCOPOSCoinAcceptor@@@ATL@@UAGJPAUtagQACONTAINER@@PAUtagQACONTROL@@@Z 10002855 f i CoinAcceptor.obj
 0001:00001878       ?SetContentExtent@?$IQuickActivateImpl@VCOPOSCoinAcceptor@@@ATL@@UAGJPAUtagSIZE@@@Z 10002878 f i CoinAcceptor.obj
 0001:000018a4       ?GetContentExtent@?$IQuickActivateImpl@VCOPOSCoinAcceptor@@@ATL@@UAGJPAUtagSIZE@@@Z 100028a4 f i CoinAcceptor.obj
 0001:000018e0       ?GetData@?$IDataObjectImpl@VCOPOSCoinAcceptor@@@ATL@@UAGJPAUtagFORMATETC@@PAUtagSTGMEDIUM@@@Z 100028e0 f i CoinAcceptor.obj
 0001:00001903       ?DAdvise@?$IDataObjectImpl@VCOPOSCoinAcceptor@@@ATL@@UAGJPAUtagFORMATETC@@KPAUIAdviseSink@@PAK@Z 10002903 f i CoinAcceptor.obj
 0001:00001944       ?DUnadvise@?$IDataObjectImpl@VCOPOSCoinAcceptor@@@ATL@@UAGJK@Z 10002944 f i CoinAcceptor.obj
 0001:00001972       ?EnumDAdvise@?$IDataObjectImpl@VCOPOSCoinAcceptor@@@ATL@@UAGJPAPAUIEnumSTATDATA@@@Z 10002972 f i CoinAcceptor.obj
 0001:000019b1       ?GetClassInfoW@?$IProvideClassInfo2Impl@$1?CLSID_OPOSCoinAcceptor@@3U_GUID@@B$1?DIID__IOPOSCoinAcceptorEvents@@3U2@B$1?LIBID_OposCoinAcceptor_CCO@@3U2@B$00$0A@VCComTypeInfoHolder@ATL@@@ATL@@UAGJPAPAUITypeInfo@@@Z 100029b1 f i CoinAcceptor.obj
 0001:000019c7       ?GetGUID@?$IProvideClassInfo2Impl@$1?CLSID_OPOSCoinAcceptor@@3U_GUID@@B$1?DIID__IOPOSCoinAcceptorEvents@@3U2@B$1?LIBID_OposCoinAcceptor_CCO@@3U2@B$00$0A@VCComTypeInfoHolder@ATL@@@ATL@@UAGJKPAU_GUID@@@Z 100029c7 f i CoinAcceptor.obj
 0001:00001a05       ?FAccessAllowed@?$IObjectSafetyImpl@VCOPOSCoinAcceptor@@$02@ATL@@MAEHXZ 10002a05 f i CoinAcceptor.obj
 0001:00001a05       __get_startup_argv_mode    10002a05 f i LIBCMT:argv_mode.obj
 0001:00001a09       ?GetInterfaceSafetyOptions@?$IObjectSafetyImpl@VCOPOSCoinAcceptor@@$02@ATL@@UAGJABU_GUID@@PAK1@Z 10002a09 f i CoinAcceptor.obj
 0001:00001a7d       ?SetInterfaceSafetyOptions@?$IObjectSafetyImpl@VCOPOSCoinAcceptor@@$02@ATL@@UAGJABU_GUID@@KK@Z 10002a7d f i CoinAcceptor.obj
 0001:00001af7       ?_LocCPQueryInterface@?$IConnectionPointImpl@VCOPOSCoinAcceptor@@$1?IID_IPropertyNotifySink@@3U_GUID@@BVCComDynamicUnkArray@ATL@@@ATL@@UAGJABU_GUID@@PAPAX@Z 10002af7 f i CoinAcceptor.obj
 0001:00001af7       ?_LocCPQueryInterface@?$IConnectionPointImpl@VCOPOSCoinAcceptor@@$1?DIID__IOPOSCoinAcceptorEvents@@3U_GUID@@BVCComDynamicUnkArray@ATL@@@ATL@@UAGJABU_GUID@@PAPAX@Z 10002af7 f i CoinAcceptor.obj
 0001:00001b44       ?GetConnectionInterface@?$IConnectionPointImpl@VCOPOSCoinAcceptor@@$1?IID_IPropertyNotifySink@@3U_GUID@@BVCComDynamicUnkArray@ATL@@@ATL@@UAGJPAU_GUID@@@Z 10002b44 f i CoinAcceptor.obj
 0001:00001b68       ?GetConnectionPointContainer@?$IConnectionPointImpl@VCOPOSCoinAcceptor@@$1?IID_IPropertyNotifySink@@3U_GUID@@BVCComDynamicUnkArray@ATL@@@ATL@@UAGJPAPAUIConnectionPointContainer@@@Z 10002b68 f i CoinAcceptor.obj
 0001:00001b8b       ?Advise@?$IConnectionPointImpl@VCOPOSCoinAcceptor@@$1?DIID__IOPOSCoinAcceptorEvents@@3U_GUID@@BVCComDynamicUnkArray@ATL@@@ATL@@UAGJPAUIUnknown@@PAK@Z 10002b8b f i CoinAcceptor.obj
 0001:00001b8b       ?Advise@?$IConnectionPointImpl@VCOPOSCoinAcceptor@@$1?IID_IPropertyNotifySink@@3U_GUID@@BVCComDynamicUnkArray@ATL@@@ATL@@UAGJPAUIUnknown@@PAK@Z 10002b8b f i CoinAcceptor.obj
 0001:00001c2b       ?Unadvise@?$IConnectionPointImpl@VCOPOSCoinAcceptor@@$1?IID_IPropertyNotifySink@@3U_GUID@@BVCComDynamicUnkArray@ATL@@@ATL@@UAGJK@Z 10002c2b f i CoinAcceptor.obj
 0001:00001c2b       ?Unadvise@?$IConnectionPointImpl@VCOPOSCoinAcceptor@@$1?DIID__IOPOSCoinAcceptorEvents@@3U_GUID@@BVCComDynamicUnkArray@ATL@@@ATL@@UAGJK@Z 10002c2b f i CoinAcceptor.obj
 0001:00001c6b       ?EnumConnections@?$IConnectionPointImpl@VCOPOSCoinAcceptor@@$1?IID_IPropertyNotifySink@@3U_GUID@@BVCComDynamicUnkArray@ATL@@@ATL@@UAGJPAPAUIEnumConnections@@@Z 10002c6b f i CoinAcceptor.obj
 0001:00001c6b       ?EnumConnections@?$IConnectionPointImpl@VCOPOSCoinAcceptor@@$1?DIID__IOPOSCoinAcceptorEvents@@3U_GUID@@BVCComDynamicUnkArray@ATL@@@ATL@@UAGJPAPAUIEnumConnections@@@Z 10002c6b f i CoinAcceptor.obj
 0001:00001d66       ?GetObjectDescription@?$CComCoClass@VCOPOSCoinAcceptor@@$1?CLSID_OPOSCoinAcceptor@@3U_GUID@@B@ATL@@SGPB_WXZ 10002d66 f i CoinAcceptor.obj
 0001:00001d66       ?GetCategoryMap@CComObjectRootBase@ATL@@SAPBU_ATL_CATMAP_ENTRY@2@XZ 10002d66 f i CoinAcceptor.obj
 0001:00001d69       ?GetConnectionInterface@?$IConnectionPointImpl@VCOPOSCoinAcceptor@@$1?DIID__IOPOSCoinAcceptorEvents@@3U_GUID@@BVCComDynamicUnkArray@ATL@@@ATL@@UAGJPAU_GUID@@@Z 10002d69 f i CoinAcceptor.obj
 0001:00001d8d       ?GetConnectionPointContainer@?$IConnectionPointImpl@VCOPOSCoinAcceptor@@$1?DIID__IOPOSCoinAcceptorEvents@@3U_GUID@@BVCComDynamicUnkArray@ATL@@@ATL@@UAGJPAPAUIConnectionPointContainer@@@Z 10002d8d f i CoinAcceptor.obj
 0001:00001db0       ?UpdateRegistry@COPOSCoinAcceptor@@SGJH@Z 10002db0 f i CoinAcceptor.obj
 0001:00001dc8       ?ProcessWindowMessage@COPOSCoinAcceptor@@UAEHPAUHWND__@@IIJAAJK@Z 10002dc8 f i CoinAcceptor.obj
 0001:00001e11       ?SOData@COPOSCoinAcceptor@@MAGJJ@Z 10002e11 f i CoinAcceptor.obj
 0001:00001e4a       ?SODirectIO@COPOSCoinAcceptor@@MAGJJPAJPAPA_W@Z 10002e4a f i CoinAcceptor.obj
 0001:00001e93       ?SOStatusUpdate@COPOSCoinAcceptor@@MAGJJ@Z 10002e93 f i CoinAcceptor.obj
 0001:00001ecc       ?Lock@CAtlModule@ATL@@UAEJXZ 10002ecc f i CoinAcceptor.obj
 0001:00001ed6       ?Unlock@CAtlModule@ATL@@UAEJXZ 10002ed6 f i CoinAcceptor.obj
 0001:00001ee0       ?GetLockCount@CAtlModule@ATL@@UAEJXZ 10002ee0 f i CoinAcceptor.obj
 0001:00001ee4       ?GetGITPtr@CAtlModule@ATL@@UAEJPAPAUIGlobalInterfaceTable@@@Z 10002ee4 f i CoinAcceptor.obj
 0001:00001f30       ?AddCommonRGSReplacements@?$CAtlModuleT@VCComModule@ATL@@@ATL@@UAEJPAUIRegistrarBase@@@Z 10002f30 f i CoinAcceptor.obj
 0001:00001f4a       ?UpdateRegistryFromResourceD@CComModule@ATL@@UAGJIHPAU_ATL_REGMAP_ENTRY@2@@Z 10002f4a f i CoinAcceptor.obj
 0001:00001f4a       ?UpdateRegistryFromResourceD@CComModule@ATL@@UAGJPB_WHPAU_ATL_REGMAP_ENTRY@2@@Z 10002f4a f i CoinAcceptor.obj
 0001:00001f52       ?UpdateRegistryFromResource@CComModule@ATL@@UAGJPB_WHPAU_ATL_REGMAP_ENTRY@2@@Z 10002f52 f i CoinAcceptor.obj
 0001:00001f5b       ?UpdateRegistryFromResource@CComModule@ATL@@UAGJIHPAU_ATL_REGMAP_ENTRY@2@@Z 10002f5b f i CoinAcceptor.obj
 0001:00001f64       ??_ECComModule@ATL@@UAEPAXI@Z 10002f64 f i CoinAcceptor.obj
 0001:00001f64       ??_GCComModule@ATL@@UAEPAXI@Z 10002f64 f i CoinAcceptor.obj
 0001:00001f8c       ?CreateInstance@?$CComCreator@V?$CComObjectCached@VCComClassFactory@ATL@@@ATL@@@ATL@@SGJPAXABU_GUID@@PAPAX@Z 10002f8c f i CoinAcceptor.obj
 0001:0000202c       ?CreateInstance@?$CComCreator2@V?$CComCreator@V?$CComObject@VCOPOSCoinAcceptor@@@ATL@@@ATL@@V?$CComCreator@V?$CComAggObject@VCOPOSCoinAcceptor@@@ATL@@@2@@ATL@@SGJPAXABU_GUID@@PAPAX@Z 1000302c f i CoinAcceptor.obj
 0001:0000204c       ?AddRef@?$CComObjectCached@VCComClassFactory@ATL@@@ATL@@UAGKXZ 1000304c f i CoinAcceptor.obj
 0001:00002073       ?Release@?$CComObjectCached@VCComClassFactory@ATL@@@ATL@@UAGKXZ 10003073 f i CoinAcceptor.obj
 0001:000020a9       ?QueryInterface@?$CComObjectCached@VCComClassFactory@ATL@@@ATL@@UAGJABU_GUID@@PAPAX@Z 100030a9 f i CoinAcceptor.obj
 0001:000020c3       ??_G?$CComObjectCached@VCComClassFactory@ATL@@@ATL@@UAEPAXI@Z 100030c3 f i CoinAcceptor.obj
 0001:000020c3       ??_E?$CComObjectCached@VCComClassFactory@ATL@@@ATL@@UAEPAXI@Z 100030c3 f i CoinAcceptor.obj
 0001:000020e5       ?Next@?$CComEnumImpl@UIEnumConnectionPoints@@$1?_GUID_b196b285_bab4_101a_b69c_00aa00341d07@@3U__s_GUID@@BPAUIConnectionPoint@@V?$_CopyInterface@UIConnectionPoint@@@ATL@@@ATL@@UAGJKPAPAUIConnectionPoint@@PAK@Z 100030e5 f i CoinAcceptor.obj
 0001:000021bc       ?Skip@?$CComEnumImpl@UIEnumConnectionPoints@@$1?_GUID_b196b285_bab4_101a_b69c_00aa00341d07@@3U__s_GUID@@BPAUIConnectionPoint@@V?$_CopyInterface@UIConnectionPoint@@@ATL@@@ATL@@UAGJK@Z 100031bc f i CoinAcceptor.obj
 0001:000021e9       ?Reset@?$CComEnumImpl@UIEnumConnections@@$1?_GUID_b196b287_bab4_101a_b69c_00aa00341d07@@3U__s_GUID@@BUtagCONNECTDATA@@V?$_Copy@UtagCONNECTDATA@@@ATL@@@ATL@@UAGJXZ 100031e9 f i CoinAcceptor.obj
 0001:000021e9       ?Reset@?$CComEnumImpl@UIEnumConnectionPoints@@$1?_GUID_b196b285_bab4_101a_b69c_00aa00341d07@@3U__s_GUID@@BPAUIConnectionPoint@@V?$_CopyInterface@UIConnectionPoint@@@ATL@@@ATL@@UAGJXZ 100031e9 f i CoinAcceptor.obj
 0001:000021fb       ?Clone@?$CComEnumImpl@UIEnumConnectionPoints@@$1?_GUID_b196b285_bab4_101a_b69c_00aa00341d07@@3U__s_GUID@@BPAUIConnectionPoint@@V?$_CopyInterface@UIConnectionPoint@@@ATL@@@ATL@@UAGJPAPAUIEnumConnectionPoints@@@Z 100031fb f i CoinAcceptor.obj
 0001:000022dc       ?AddRef@?$CComObject@V?$CComEnum@UIEnumConnections@@$1?_GUID_b196b287_bab4_101a_b69c_00aa00341d07@@3U__s_GUID@@BUtagCONNECTDATA@@V?$_Copy@UtagCONNECTDATA@@@ATL@@VCComSingleThreadModel@6@@ATL@@@ATL@@UAGKXZ 100032dc f i CoinAcceptor.obj
 0001:000022dc       ?AddRef@?$CComObject@V?$CComEnum@UIEnumConnectionPoints@@$1?_GUID_b196b285_bab4_101a_b69c_00aa00341d07@@3U__s_GUID@@BPAUIConnectionPoint@@V?$_CopyInterface@UIConnectionPoint@@@ATL@@VCComSingleThreadModel@6@@ATL@@@ATL@@UAGKXZ 100032dc f i CoinAcceptor.obj
 0001:000022ed       ?Release@?$CComObject@V?$CComEnum@UIEnumConnections@@$1?_GUID_b196b287_bab4_101a_b69c_00aa00341d07@@3U__s_GUID@@BUtagCONNECTDATA@@V?$_Copy@UtagCONNECTDATA@@@ATL@@VCComSingleThreadModel@6@@ATL@@@ATL@@UAGKXZ 100032ed f i CoinAcceptor.obj
 0001:000022ed       ?Release@?$CComObject@V?$CComEnum@UIEnumConnectionPoints@@$1?_GUID_b196b285_bab4_101a_b69c_00aa00341d07@@3U__s_GUID@@BPAUIConnectionPoint@@V?$_CopyInterface@UIConnectionPoint@@@ATL@@VCComSingleThreadModel@6@@ATL@@@ATL@@UAGKXZ 100032ed f i CoinAcceptor.obj
 0001:00002329       ?QueryInterface@?$CComObject@V?$CComEnum@UIEnumConnectionPoints@@$1?_GUID_b196b285_bab4_101a_b69c_00aa00341d07@@3U__s_GUID@@BPAUIConnectionPoint@@V?$_CopyInterface@UIConnectionPoint@@@ATL@@VCComSingleThreadModel@6@@ATL@@@ATL@@UAGJABU_GUID@@PAPAX@Z 10003329 f i CoinAcceptor.obj
 0001:00002343       ??_E?$CComObject@V?$CComEnum@UIEnumConnectionPoints@@$1?_GUID_b196b285_bab4_101a_b69c_00aa00341d07@@3U__s_GUID@@BPAUIConnectionPoint@@V?$_CopyInterface@UIConnectionPoint@@@ATL@@VCComSingleThreadModel@6@@ATL@@@ATL@@UAEPAXI@Z 10003343 f i CoinAcceptor.obj
 0001:00002343       ??_G?$CComObject@V?$CComEnum@UIEnumConnectionPoints@@$1?_GUID_b196b285_bab4_101a_b69c_00aa00341d07@@3U__s_GUID@@BPAUIConnectionPoint@@V?$_CopyInterface@UIConnectionPoint@@@ATL@@VCComSingleThreadModel@6@@ATL@@@ATL@@UAEPAXI@Z 10003343 f i CoinAcceptor.obj
 0001:00002365       ?AddRef@CRegObject@ATL@@UAGKXZ 10003365 f i CoinAcceptor.obj
 0001:0000236b       ?AddReplacement@CRegObject@ATL@@UAGJPB_W0@Z 1000336b f i CoinAcceptor.obj
 0001:000023a4       ?ClearReplacements@CRegObject@ATL@@UAGJXZ 100033a4 f i CoinAcceptor.obj
 0001:000023b6       ??_ECRegObject@ATL@@UAEPAXI@Z 100033b6 f i CoinAcceptor.obj
 0001:000023b6       ??_GCRegObject@ATL@@UAEPAXI@Z 100033b6 f i CoinAcceptor.obj
 0001:000023d8       ?AddRef@?$CComAggObject@VCOPOSCoinAcceptor@@@ATL@@UAGKXZ 100033d8 f i CoinAcceptor.obj
 0001:000023e9       ?Release@?$CComAggObject@VCOPOSCoinAcceptor@@@ATL@@UAGKXZ 100033e9 f i CoinAcceptor.obj
 0001:00002425       ?QueryInterface@?$CComAggObject@VCOPOSCoinAcceptor@@@ATL@@UAGJABU_GUID@@PAPAX@Z 10003425 f i CoinAcceptor.obj
 0001:00002474       ?AddRef@?$CComContainedObject@VCOPOSCoinAcceptor@@@ATL@@UAGKXZ 10003474 f i CoinAcceptor.obj
 0001:0000248a       ?Release@?$CComContainedObject@VCOPOSCoinAcceptor@@@ATL@@UAGKXZ 1000348a f i CoinAcceptor.obj
 0001:000024a0       ?QueryInterface@?$CComContainedObject@VCOPOSCoinAcceptor@@@ATL@@UAGJABU_GUID@@PAPAX@Z 100034a0 f i CoinAcceptor.obj
 0001:000024bb       ??_E?$CComAggObject@VCOPOSCoinAcceptor@@@ATL@@UAEPAXI@Z 100034bb f i CoinAcceptor.obj
 0001:000024bb       ??_G?$CComAggObject@VCOPOSCoinAcceptor@@@ATL@@UAEPAXI@Z 100034bb f i CoinAcceptor.obj
 0001:000024e0       ?AddRef@?$CComObject@VCOPOSCoinAcceptor@@@ATL@@UAGKXZ 100034e0 f i CoinAcceptor.obj
 0001:000024f7       ?Release@?$CComObject@VCOPOSCoinAcceptor@@@ATL@@UAGKXZ 100034f7 f i CoinAcceptor.obj
 0001:00002539       ?QueryInterface@?$CComObject@VCOPOSCoinAcceptor@@@ATL@@UAGJABU_GUID@@PAPAX@Z 10003539 f i CoinAcceptor.obj
 0001:00002553       ?OnDrawAdvanced@CComControlBase@ATL@@UAEJAAUATL_DRAWINFO@@@Z 10003553 f i CoinAcceptor.obj
 0001:00002646       ?Next@?$CComEnumImpl@UIEnumConnections@@$1?_GUID_b196b287_bab4_101a_b69c_00aa00341d07@@3U__s_GUID@@BUtagCONNECTDATA@@V?$_Copy@UtagCONNECTDATA@@@ATL@@@ATL@@UAGJKPAUtagCONNECTDATA@@PAK@Z 10003646 f i CoinAcceptor.obj
 0001:0000271d       ?Skip@?$CComEnumImpl@UIEnumConnections@@$1?_GUID_b196b287_bab4_101a_b69c_00aa00341d07@@3U__s_GUID@@BUtagCONNECTDATA@@V?$_Copy@UtagCONNECTDATA@@@ATL@@@ATL@@UAGJK@Z 1000371d f i CoinAcceptor.obj
 0001:0000274a       ?Clone@?$CComEnumImpl@UIEnumConnections@@$1?_GUID_b196b287_bab4_101a_b69c_00aa00341d07@@3U__s_GUID@@BUtagCONNECTDATA@@V?$_Copy@UtagCONNECTDATA@@@ATL@@@ATL@@UAGJPAPAUIEnumConnections@@@Z 1000374a f i CoinAcceptor.obj
 0001:0000282b       ?QueryInterface@?$CComObject@V?$CComEnum@UIEnumConnections@@$1?_GUID_b196b287_bab4_101a_b69c_00aa00341d07@@3U__s_GUID@@BUtagCONNECTDATA@@V?$_Copy@UtagCONNECTDATA@@@ATL@@VCComSingleThreadModel@6@@ATL@@@ATL@@UAGJABU_GUID@@PAPAX@Z 1000382b f i CoinAcceptor.obj
 0001:00002845       ??_G?$CComObject@V?$CComEnum@UIEnumConnections@@$1?_GUID_b196b287_bab4_101a_b69c_00aa00341d07@@3U__s_GUID@@BUtagCONNECTDATA@@V?$_Copy@UtagCONNECTDATA@@@ATL@@VCComSingleThreadModel@6@@ATL@@@ATL@@UAEPAXI@Z 10003845 f i CoinAcceptor.obj
 0001:00002845       ??_E?$CComObject@V?$CComEnum@UIEnumConnections@@$1?_GUID_b196b287_bab4_101a_b69c_00aa00341d07@@3U__s_GUID@@BUtagCONNECTDATA@@V?$_Copy@UtagCONNECTDATA@@@ATL@@VCComSingleThreadModel@6@@ATL@@@ATL@@UAEPAXI@Z 10003845 f i CoinAcceptor.obj
 0001:00002867       ??_E?$CComObject@VCOPOSCoinAcceptor@@@ATL@@W3AEPAXI@Z 10003867 f i CoinAcceptor.obj
 0001:0000286f       ??_E?$CComObject@VCOPOSCoinAcceptor@@@ATL@@WEM@AEPAXI@Z 1000386f f i CoinAcceptor.obj
 0001:00002877       ?QueryInterface@?$CComObject@VCOPOSCoinAcceptor@@@ATL@@WHA@AGJABU_GUID@@PAPAX@Z 10003877 f i CoinAcceptor.obj
 0001:00002881       ?AddRef@?$CComObject@VCOPOSCoinAcceptor@@@ATL@@WHA@AGKXZ 10003881 f i CoinAcceptor.obj
 0001:0000288b       ?Release@?$CComObject@VCOPOSCoinAcceptor@@@ATL@@WHA@AGKXZ 1000388b f i CoinAcceptor.obj
 0001:00002895       ?QueryInterface@?$CComObject@VCOPOSCoinAcceptor@@@ATL@@WHE@AGJABU_GUID@@PAPAX@Z 10003895 f i CoinAcceptor.obj
 0001:0000289f       ?AddRef@?$CComObject@VCOPOSCoinAcceptor@@@ATL@@WHE@AGKXZ 1000389f f i CoinAcceptor.obj
 0001:000028a9       ?Release@?$CComObject@VCOPOSCoinAcceptor@@@ATL@@WHE@AGKXZ 100038a9 f i CoinAcceptor.obj
 0001:000028b3       ?QueryInterface@?$CComObject@VCOPOSCoinAcceptor@@@ATL@@WHI@AGJABU_GUID@@PAPAX@Z 100038b3 f i CoinAcceptor.obj
 0001:000028bd       ?AddRef@?$CComObject@VCOPOSCoinAcceptor@@@ATL@@WHI@AGKXZ 100038bd f i CoinAcceptor.obj
 0001:000028c7       ?Release@?$CComObject@VCOPOSCoinAcceptor@@@ATL@@WHI@AGKXZ 100038c7 f i CoinAcceptor.obj
 0001:000028d1       ?QueryInterface@?$CComObject@VCOPOSCoinAcceptor@@@ATL@@WHM@AGJABU_GUID@@PAPAX@Z 100038d1 f i CoinAcceptor.obj
 0001:000028db       ?AddRef@?$CComObject@VCOPOSCoinAcceptor@@@ATL@@WHM@AGKXZ 100038db f i CoinAcceptor.obj
 0001:000028e5       ?Release@?$CComObject@VCOPOSCoinAcceptor@@@ATL@@WHM@AGKXZ 100038e5 f i CoinAcceptor.obj
 0001:000028ef       ?QueryInterface@?$CComObject@VCOPOSCoinAcceptor@@@ATL@@WIA@AGJABU_GUID@@PAPAX@Z 100038ef f i CoinAcceptor.obj
 0001:000028fc       ?AddRef@?$CComObject@VCOPOSCoinAcceptor@@@ATL@@WIA@AGKXZ 100038fc f i CoinAcceptor.obj
 0001:00002909       ?Release@?$CComObject@VCOPOSCoinAcceptor@@@ATL@@WIA@AGKXZ 10003909 f i CoinAcceptor.obj
 0001:00002916       ?QueryInterface@?$CComObject@VCOPOSCoinAcceptor@@@ATL@@WIE@AGJABU_GUID@@PAPAX@Z 10003916 f i CoinAcceptor.obj
 0001:00002923       ?AddRef@?$CComObject@VCOPOSCoinAcceptor@@@ATL@@WIE@AGKXZ 10003923 f i CoinAcceptor.obj
 0001:00002930       ?Release@?$CComObject@VCOPOSCoinAcceptor@@@ATL@@WIE@AGKXZ 10003930 f i CoinAcceptor.obj
 0001:0000293d       ?QueryInterface@?$CComObject@VCOPOSCoinAcceptor@@@ATL@@WII@AGJABU_GUID@@PAPAX@Z 1000393d f i CoinAcceptor.obj
 0001:0000294a       ?AddRef@?$CComObject@VCOPOSCoinAcceptor@@@ATL@@WII@AGKXZ 1000394a f i CoinAcceptor.obj
 0001:00002957       ?Release@?$CComObject@VCOPOSCoinAcceptor@@@ATL@@WII@AGKXZ 10003957 f i CoinAcceptor.obj
 0001:00002964       ?QueryInterface@?$CComObject@VCOPOSCoinAcceptor@@@ATL@@WIM@AGJABU_GUID@@PAPAX@Z 10003964 f i CoinAcceptor.obj
 0001:00002971       ?AddRef@?$CComObject@VCOPOSCoinAcceptor@@@ATL@@WIM@AGKXZ 10003971 f i CoinAcceptor.obj
 0001:0000297e       ??$?4UITypeInfo2@@@?$CComPtr@UITypeInfo@@@ATL@@QAEPAUITypeInfo@@ABV?$CComPtr@UITypeInfo2@@@1@@Z 1000397e f i CoinAcceptor.obj
 0001:000029ab       ??$AtlAdd@K@ATL@@YAJPAKKK@Z 100039ab f i CoinAcceptor.obj
 0001:000029ce       ??$AtlAdd@_K@ATL@@YAJPA_K_K1@Z 100039ce f i CoinAcceptor.obj
 0001:00002a06       ??$AtlAddThrow@K@ATL@@YAKKK@Z 10003a06 f i CoinAcceptor.obj
 0001:00002a2c       ??$AtlModuleRegisterWndClassInfoT@VAtlModuleRegisterWndClassInfoParamW@ATL@@@ATL@@YAGPAU_ATL_BASE_MODULE70@0@PAU_ATL_WIN_MODULE70@0@PAU_ATL_WNDCLASSINFOW@0@PAP6GJPAUHWND__@@IIJ@ZVAtlModuleRegisterWndClassInfoParamW@0@@Z 10003a2c f i CoinAcceptor.obj
 0001:00002b7a       ??$AtlMultiply@H@ATL@@YAJPAHHH@Z 10003b7a f i CoinAcceptor.obj
 0001:00002bb2       ??$AtlMultiply@I@ATL@@YAJPAIII@Z 10003bb2 f i CoinAcceptor.obj
 0001:00002bb2       ??$AtlMultiply@K@ATL@@YAJPAKKK@Z 10003bb2 f i CoinAcceptor.obj
 0001:00002bd4       ??$AtlMultiplyThrow@I@ATL@@YAIII@Z 10003bd4 f i CoinAcceptor.obj
 0001:00002bfa       ??0?$CComAggObject@VCOPOSCoinAcceptor@@@ATL@@QAE@PAX@Z 10003bfa f i CoinAcceptor.obj
 0001:00002c27       ??0?$CComContainedObject@VCOPOSCoinAcceptor@@@ATL@@QAE@PAX@Z 10003c27 f i CoinAcceptor.obj
 0001:00002ce0       ??0?$CComObject@V?$CComEnum@UIEnumConnectionPoints@@$1?_GUID_b196b285_bab4_101a_b69c_00aa00341d07@@3U__s_GUID@@BPAUIConnectionPoint@@V?$_CopyInterface@UIConnectionPoint@@@ATL@@VCComSingleThreadModel@6@@ATL@@@ATL@@QAE@PAX@Z 10003ce0 f i CoinAcceptor.obj
 0001:00002d0e       ??0?$CComObject@V?$CComEnum@UIEnumConnections@@$1?_GUID_b196b287_bab4_101a_b69c_00aa00341d07@@3U__s_GUID@@BUtagCONNECTDATA@@V?$_Copy@UtagCONNECTDATA@@@ATL@@VCComSingleThreadModel@6@@ATL@@@ATL@@QAE@PAX@Z 10003d0e f i CoinAcceptor.obj
 0001:00002d3c       ??0?$CComObject@VCOPOSCoinAcceptor@@@ATL@@QAE@PAX@Z 10003d3c f i CoinAcceptor.obj
 0001:00002df3       ??0?$CComQIPtr@UIOleControlSite@@$1?_GUID_b196b289_bab4_101a_b69c_00aa00341d07@@3U__s_GUID@@B@ATL@@QAE@PAUIUnknown@@@Z 10003df3 f i CoinAcceptor.obj
 0001:00002e1c       ??0CAtlModule@ATL@@QAE@XZ  10003e1c f i CoinAcceptor.obj
 0001:00002e5d       ??0CParseBuffer@CRegParser@ATL@@QAE@H@Z 10003e5d f i CoinAcceptor.obj
 0001:00002e93       ??0_ATL_MSG@ATL@@QAE@PAUHWND__@@IIJH@Z 10003e93 f i CoinAcceptor.obj
 0001:00002ecb       ??1?$CComAggObject@VCOPOSCoinAcceptor@@@ATL@@UAE@XZ 10003ecb f i CoinAcceptor.obj
 0001:00002eef       ??1?$CComEnumImpl@UIEnumConnectionPoints@@$1?_GUID_b196b285_bab4_101a_b69c_00aa00341d07@@3U__s_GUID@@BPAUIConnectionPoint@@V?$_CopyInterface@UIConnectionPoint@@@ATL@@@ATL@@UAE@XZ 10003eef f i CoinAcceptor.obj
 0001:00002f2f       ??1?$CComEnumImpl@UIEnumConnections@@$1?_GUID_b196b287_bab4_101a_b69c_00aa00341d07@@3U__s_GUID@@BUtagCONNECTDATA@@V?$_Copy@UtagCONNECTDATA@@@ATL@@@ATL@@UAE@XZ 10003f2f f i CoinAcceptor.obj
 0001:00002f6f       ??1?$CComObject@V?$CComEnum@UIEnumConnectionPoints@@$1?_GUID_b196b285_bab4_101a_b69c_00aa00341d07@@3U__s_GUID@@BPAUIConnectionPoint@@V?$_CopyInterface@UIConnectionPoint@@@ATL@@VCComSingleThreadModel@6@@ATL@@@ATL@@UAE@XZ 10003f6f f i CoinAcceptor.obj
 0001:00002f92       ??1?$CComObject@V?$CComEnum@UIEnumConnections@@$1?_GUID_b196b287_bab4_101a_b69c_00aa00341d07@@3U__s_GUID@@BUtagCONNECTDATA@@V?$_Copy@UtagCONNECTDATA@@@ATL@@VCComSingleThreadModel@6@@ATL@@@ATL@@UAE@XZ 10003f92 f i CoinAcceptor.obj
 0001:00002fb5       ??1?$CComObject@VCOPOSCoinAcceptor@@@ATL@@UAE@XZ 10003fb5 f i CoinAcceptor.obj
 0001:00003073       ??1?$CComObjectCached@VCComClassFactory@ATL@@@ATL@@UAE@XZ 10004073 f i CoinAcceptor.obj
 0001:00003089       ??1?$CComObjectRootEx@VCComMultiThreadModel@ATL@@@ATL@@QAE@XZ 10004089 f i CoinAcceptor.obj
 0001:0000309e       ??1CRegObject@ATL@@UAE@XZ  1000409e f i CoinAcceptor.obj
 0001:000030be       ??4?$CComPtr@UIUnknown@@@ATL@@QAEPAUIUnknown@@PAU2@@Z 100040be f i CoinAcceptor.obj
 0001:000030be       ??4?$CComPtr@UIAdviseSink@@@ATL@@QAEPAUIAdviseSink@@PAU2@@Z 100040be f i CoinAcceptor.obj
 0001:000030be       ??4?$CComPtr@UIOleClientSite@@@ATL@@QAEPAUIOleClientSite@@PAU2@@Z 100040be f i CoinAcceptor.obj
 0001:000030f2       ??_E?$CComContainedObject@VCOPOSCoinAcceptor@@@ATL@@UAEPAXI@Z 100040f2 f i CoinAcceptor.obj
 0001:000030f2       ??_G?$CComContainedObject@VCOPOSCoinAcceptor@@@ATL@@UAEPAXI@Z 100040f2 f i CoinAcceptor.obj
 0001:00003117       ??_G?$CComObject@VCOPOSCoinAcceptor@@@ATL@@UAEPAXI@Z 10004117 f i CoinAcceptor.obj
 0001:00003117       ??_E?$CComObject@VCOPOSCoinAcceptor@@@ATL@@UAEPAXI@Z 10004117 f i CoinAcceptor.obj
 0001:0000313c       ?Add@?$CSimpleArray@GV?$CSimpleArrayEqualHelper@G@ATL@@@ATL@@QAEHABG@Z 1000413c f i CoinAcceptor.obj
 0001:000031c0       ?Add@?$CSimpleMap@PA_WPA_WVCExpansionVectorEqualHelper@ATL@@@ATL@@QAEHABQA_W0@Z 100041c0 f i CoinAcceptor.obj
 0001:00003215       ?Add@CComDynamicUnkArray@ATL@@QAEKPAUIUnknown@@@Z 10004215 f i CoinAcceptor.obj
 0001:000032cb       ?Add@CExpansionVector@ATL@@QAEHPB_W0@Z 100042cb f i CoinAcceptor.obj
 0001:000033d4       ?AddString@CParseBuffer@CRegParser@ATL@@QAEHPB_W@Z 100043d4 f i CoinAcceptor.obj
 0001:00003409       ?AddTermFunc@CAtlModule@ATL@@QAEJP6GXK@ZK@Z 10004409 f i CoinAcceptor.obj
 0001:0000346c       ?AddValue@CRegParser@ATL@@IAEJAAVCRegKey@2@PB_WPA_W@Z 1000446c f i CoinAcceptor.obj
 0001:00003786       ?Allocate@?$CAtlSafeAllocBufferManager@VCCRTAllocator@ATL@@@_ATL_SAFE_ALLOCA_IMPL@ATL@@QAEPAXK@Z 10004786 f i CoinAcceptor.obj
 0001:000037b3       ?Allocate@?$CTempBuffer@E$0BAA@VCCRTAllocator@ATL@@@ATL@@QAEPAEI@Z 100047b3 f i CoinAcceptor.obj
 0001:000037e2       ?Allocate@?$CTempBuffer@_W$0BAA@VCCRTAllocator@ATL@@@ATL@@QAEPA_WI@Z 100047e2 f i CoinAcceptor.obj
 0001:00003811       ?Allocate@?$CTempBuffer@_W$0EAA@VCCRTAllocator@ATL@@@ATL@@QAEPA_WI@Z 10004811 f i CoinAcceptor.obj
 0001:00003840       ?AllocateHeap@?$CTempBuffer@_W$0BAA@VCCRTAllocator@ATL@@@ATL@@AAEXI@Z 10004840 f i CoinAcceptor.obj
 0001:00003840       ?AllocateHeap@?$CTempBuffer@E$0BAA@VCCRTAllocator@ATL@@@ATL@@AAEXI@Z 10004840 f i CoinAcceptor.obj
 0001:00003840       ?AllocateHeap@?$CTempBuffer@_W$0EAA@VCCRTAllocator@ATL@@@ATL@@AAEXI@Z 10004840 f i CoinAcceptor.obj
 0001:00003865       ?Append@CParseBuffer@CRegParser@ATL@@QAEHPB_WH@Z 10004865 f i CoinAcceptor.obj
 0001:000038f3       ?AtlCoTaskMemCAlloc@ATL@@YAPAXKK@Z 100048f3 f i CoinAcceptor.obj
 0001:00003920       ?AtlCoTaskMemRecalloc@ATL@@YAPAXPAXKK@Z 10004920 f i CoinAcceptor.obj
 0001:00003950       ?AtlComModuleGetClassObject@ATL@@YGJPAU_ATL_COM_MODULE70@1@ABU_GUID@@1PAPAX@Z 10004950 f i CoinAcceptor.obj
 0001:00003a43       ?AtlComModuleRegisterServer@ATL@@YGJPAU_ATL_COM_MODULE70@1@HPBU_GUID@@@Z 10004a43 f i CoinAcceptor.obj
 0001:00003acb       ?AtlComModuleUnregisterServer@ATL@@YGJPAU_ATL_COM_MODULE70@1@HPBU_GUID@@@Z 10004acb f i CoinAcceptor.obj
 0001:00003b53       ?AtlComQIPtrAssign2@ATL@@YAXPAPAUIUnknown@@PAU2@ABU_GUID@@@Z 10004b53 f i CoinAcceptor.obj
 0001:00003b82       ?AtlCreateTargetDC@ATL@@YGPAUHDC__@@PAU2@PAUtagDVTARGETDEVICE@@@Z 10004b82 f i CoinAcceptor.obj
 0001:00003beb       ?AtlCrtErrorCheck@ATL@@YAHH@Z 10004beb f i CoinAcceptor.obj
 0001:00003c26       ?AtlHiMetricToPixel@ATL@@YGXPBUtagSIZE@@PAU2@@Z 10004c26 f i CoinAcceptor.obj
 0001:00003c9b       ?AtlHresultFromLastError@ATL@@YAJXZ 10004c9b f i CoinAcceptor.obj
 0001:00003cb2       ?AtlHresultFromWin32@ATL@@YAJK@Z 10004cb2 f i CoinAcceptor.obj
 0001:00003cc7       ?AtlInternalOleLoadFromStream@ATL@@YAJPAUIStream@@ABU_GUID@@PAPAXTClassesAllowedInStream@1@K@Z 10004cc7 f i CoinAcceptor.obj
 0001:00003de5       ?AtlInternalQueryInterface@ATL@@YGJPAXPBU_ATL_INTMAP_ENTRY@1@ABU_GUID@@PAPAX@Z 10004de5 f i CoinAcceptor.obj
 0001:00003e88       ?AtlLoadTypeLib@ATL@@YGJPAUHINSTANCE__@@PB_WPAPA_WPAPAUITypeLib@@@Z 10004e88 f i CoinAcceptor.obj
 0001:00004066       ?AtlRegisterClassCategoriesHelper@ATL@@YGJABU_GUID@@PBU_ATL_CATMAP_ENTRY@1@H@Z 10005066 f i CoinAcceptor.obj
 0001:00004362       ?AtlRegisterTypeLib@ATL@@YGJPAUHINSTANCE__@@PB_W@Z 10005362 f i CoinAcceptor.obj
 0001:000044ea       ?AtlThrowImpl@ATL@@YGXJ@Z  100054ea f i CoinAcceptor.obj
 0001:00004508       ?AtlUnRegisterTypeLib@ATL@@YGJPAUHINSTANCE__@@PB_W@Z 10005508 f i CoinAcceptor.obj
 0001:000045b3       ?AtlWinModuleAddCreateWndData@ATL@@YGXPAU_ATL_WIN_MODULE70@1@PAU_AtlCreateWndData@1@PAX@Z 100055b3 f i CoinAcceptor.obj
 0001:00004607       ?AtlWinModuleExtractCreateWndData@ATL@@YGPAXPAU_ATL_WIN_MODULE70@1@@Z 10005607 f i CoinAcceptor.obj
 0001:0000466a       ?AtlWinModuleRegisterClassExW@ATL@@YGGPAU_ATL_WIN_MODULE70@1@PBUtagWNDCLASSEXW@@@Z 1000566a f i CoinAcceptor.obj
 0001:000046a9       ?CanForceRemoveKey@CRegParser@ATL@@IAEHPB_W@Z 100056a9 f i CoinAcceptor.obj
 0001:000046d8       ?ChToByte@CRegParser@ATL@@KAE_W@Z 100056d8 f i CoinAcceptor.obj
 0001:0000470b       ?Cleanup@CComTypeInfoHolder@ATL@@SGXK@Z 1000570b f i CoinAcceptor.obj
 0001:0000473e       ?ClearReplacements@CExpansionVector@ATL@@QAEJXZ 1000573e f i CoinAcceptor.obj
 0001:0000477b       ?Close@CRegKey@ATL@@QAEJXZ 1000577b f i CoinAcceptor.obj
 0001:00004795       ?CreateInstance@?$CComCreator@V?$CComAggObject@VCOPOSCoinAcceptor@@@ATL@@@ATL@@SGJPAXABU_GUID@@PAPAX@Z 10005795 f i CoinAcceptor.obj
 0001:0000480a       ?CreateInstance@?$CComCreator@V?$CComObject@VCOPOSCoinAcceptor@@@ATL@@@ATL@@SGJPAXABU_GUID@@PAPAX@Z 1000580a f i CoinAcceptor.obj
 0001:0000488a       ?CreateInstance@?$CComObject@V?$CComEnum@UIEnumConnectionPoints@@$1?_GUID_b196b285_bab4_101a_b69c_00aa00341d07@@3U__s_GUID@@BPAUIConnectionPoint@@V?$_CopyInterface@UIConnectionPoint@@@ATL@@VCComSingleThreadModel@6@@ATL@@@ATL@@SGJPAPAV12@@Z 1000588a f i CoinAcceptor.obj
 0001:000048d4       ?CreateInstance@?$CComObject@V?$CComEnum@UIEnumConnections@@$1?_GUID_b196b287_bab4_101a_b69c_00aa00341d07@@3U__s_GUID@@BUtagCONNECTDATA@@V?$_Copy@UtagCONNECTDATA@@@ATL@@VCComSingleThreadModel@6@@ATL@@@ATL@@SGJPAPAV12@@Z 100058d4 f i CoinAcceptor.obj
 0001:0000491e       ?DefaultReflectionHandler@?$CWindowImplRoot@VCWindow@ATL@@@ATL@@SAHPAUHWND__@@IIJAAJ@Z 1000591e f i CoinAcceptor.obj
 0001:00004991       ?DeleteSubKey@CRegKey@ATL@@QAEJPB_W@Z 10005991 f i CoinAcceptor.obj
 0001:00004a0a       ?DoEvent@COPOSCoinAcceptor@@IAEXIIJ@Z 10005a0a f i CoinAcceptor.obj
 0001:00004a8a       ?DoVerbHide@?$IOleObjectImpl@VCOPOSCoinAcceptor@@@ATL@@QAEJPBUtagRECT@@PAUHWND__@@@Z 10005a8a f i CoinAcceptor.obj
 0001:00004ac0       ?DoVerbInPlaceActivate@?$IOleObjectImpl@VCOPOSCoinAcceptor@@@ATL@@QAEJPBUtagRECT@@PAUHWND__@@@Z 10005ac0 f i CoinAcceptor.obj
 0001:00004af3       ?DoVerbPrimary@?$IOleObjectImpl@VCOPOSCoinAcceptor@@@ATL@@QAEJPBUtagRECT@@PAUHWND__@@@Z 10005af3 f i CoinAcceptor.obj
 0001:00004b7f       ?DoVerbProperties@CComControlBase@ATL@@QAEJPBUtagRECT@@PAUHWND__@@@Z 10005b7f f i CoinAcceptor.obj
 0001:00004cfe       ?DoVerbUIActivate@?$IOleObjectImpl@VCOPOSCoinAcceptor@@@ATL@@QAEJPBUtagRECT@@PAUHWND__@@@Z 10005cfe f i CoinAcceptor.obj
 0001:00004d3b       ?DoesVerbActivate@CComControlBase@ATL@@QAEHJ@Z 10005d3b f i CoinAcceptor.obj
 0001:00004d5c       ?DoesVerbUIActivate@CComControlBase@ATL@@QAEHJ@Z 10005d5c f i CoinAcceptor.obj
 0001:00004d91       ?EndOfVar@CRegParser@ATL@@IAEHXZ 10005d91 f i CoinAcceptor.obj
 0001:00004db1       ?EscapeSingleQuote@CAtlModule@ATL@@SAXPA_WIPB_W@Z 10005db1 f i CoinAcceptor.obj
 0001:00004e00       ?FindKey@?$CSimpleMap@PA_WPA_WVCExpansionVectorEqualHelper@ATL@@@ATL@@QBEHABQA_W@Z 10005e00 f i CoinAcceptor.obj
 0001:00004e37       ?FireTheEvent@?$CProxy_IOPOSEvents@VCOPOSCoinAcceptor@@@@IAEXPAVOposVariant@@IAAJPB_WJ@Z 10005e37 f i CoinAcceptor.obj
 0001:00004ec9       ?FireViewChange@CComControlBase@ATL@@QAEJXZ 10005ec9 f i CoinAcceptor.obj
 0001:00004f12       ?Fire_DataEvent@?$CProxy_IOPOSEvents@VCOPOSCoinAcceptor@@@@QAEXJ@Z 10005f12 f i CoinAcceptor.obj
 0001:00004fa8       ?Fire_DirectIOEvent@?$CProxy_IOPOSEvents@VCOPOSCoinAcceptor@@@@QAEXJPAJPAPA_W@Z 10005fa8 f i CoinAcceptor.obj
 0001:00005094       ?Fire_StatusUpdateEvent@?$CProxy_IOPOSEvents@VCOPOSCoinAcceptor@@@@QAEXJ@Z 10006094 f i CoinAcceptor.obj
 0001:0000512a       ?FreeHeap@?$CTempBuffer@_W$0EAA@VCCRTAllocator@ATL@@@ATL@@AAEXXZ 1000612a f i CoinAcceptor.obj
 0001:0000512a       ?FreeHeap@?$CTempBuffer@_W$0BAA@VCCRTAllocator@ATL@@@ATL@@AAEXXZ 1000612a f i CoinAcceptor.obj
 0001:0000512a       ?FreeHeap@?$CTempBuffer@E$0BAA@VCCRTAllocator@ATL@@@ATL@@AAEXXZ 1000612a f i CoinAcceptor.obj
 0001:00005133       ?GetAmbientLocaleID@CComControlBase@ATL@@QAEJAAK@Z 10006133 f i CoinAcceptor.obj
 0001:0000518f       ?GetAmbientUserMode@CComControlBase@ATL@@QAEJAAH@Z 1000618f f i CoinAcceptor.obj
 0001:000051ff       ?GetAt@CComDynamicUnkArray@ATL@@QAEPAUIUnknown@@H@Z 100061ff f i CoinAcceptor.obj
 0001:0000521b       ?GetClassObject@CComModule@ATL@@QAEJABU_GUID@@0PAPAX@Z 1000621b f i CoinAcceptor.obj
 0001:000052bd       ?GetConnMap@COPOSCoinAcceptor@@SAPBU_ATL_CONNMAP_ENTRY@ATL@@PAH@Z 100062bd f i CoinAcceptor.obj
 0001:0000532d       ?GetCookie@CComDynamicUnkArray@ATL@@QAGKPAPAUIUnknown@@@Z 1000632d f i CoinAcceptor.obj
 0001:00005365       ?GetIDsOfNames@CComTypeInfoHolder@ATL@@QAEJABU_GUID@@PAPA_WIKPAJ@Z 10006365 f i CoinAcceptor.obj
 0001:0000548c       ?GetKeyAt@?$CSimpleMap@PA_WPA_WVCExpansionVectorEqualHelper@ATL@@@ATL@@QBEAAPA_WH@Z 1000648c f i CoinAcceptor.obj
 0001:000054b1       ?GetPagesHelper@?$ISpecifyPropertyPagesImpl@VCOPOSCoinAcceptor@@@ATL@@IAEJPAUtagCAUUID@@PBUATL_PROPMAP_ENTRY@2@@Z 100064b1 f i CoinAcceptor.obj
 0001:000055d8       ?GetProperty@?$CComPtr@UIDispatch@@@ATL@@SAJPAUIDispatch@@JPAUtagVARIANT@@@Z 100065d8 f i CoinAcceptor.obj
 0001:00005627       ?GetSizeMax@CComVariant@ATL@@QBEJPAT_ULARGE_INTEGER@@@Z 10006627 f i CoinAcceptor.obj
 0001:000057e9       ?GetTI@CComTypeInfoHolder@ATL@@QAEJK@Z 100067e9 f i CoinAcceptor.obj
 0001:000059c8       ?GetTI@CComTypeInfoHolder@ATL@@QAEJKPAPAUITypeInfo@@@Z 100069c8 f i CoinAcceptor.obj
 0001:00005a0a       ?GetUnknown@CComDynamicUnkArray@ATL@@QAGPAUIUnknown@@K@Z 10006a0a f i CoinAcceptor.obj
 0001:00005a2b       ?GetValueAt@?$CSimpleMap@PA_WPA_WVCExpansionVectorEqualHelper@ATL@@@ATL@@QBEAAPA_WH@Z 10006a2b f i CoinAcceptor.obj
 0001:00005a51       ?GetZoomInfo@CComControlBase@ATL@@QAEXAAUATL_DRAWINFO@@@Z 10006a51 f i CoinAcceptor.obj
 0001:00005ae4       ?HKeyFromString@CRegParser@ATL@@KAPAUHKEY__@@PA_W@Z 10006ae4 f i CoinAcceptor.obj
 0001:00005b12       ?HasSubKeys@CRegParser@ATL@@IAEHPAUHKEY__@@@Z 10006b12 f i CoinAcceptor.obj
 0001:00005b47       ?IDataObject_GetData@CComControlBase@ATL@@QAEJPAUtagFORMATETC@@PAUtagSTGMEDIUM@@@Z 10006b47 f i CoinAcceptor.obj
 0001:00005ced       ?IOleInPlaceObject_InPlaceDeactivate@CComControlBase@ATL@@QAEJXZ 10006ced f i CoinAcceptor.obj
 0001:00005d74       ?IOleInPlaceObject_SetObjectRects@CComControlBase@ATL@@QAEJPBUtagRECT@@0@Z 10006d74 f i CoinAcceptor.obj
 0001:00005e41       ?IOleInPlaceObject_UIDeactivate@CComControlBase@ATL@@QAEJXZ 10006e41 f i CoinAcceptor.obj
 0001:00005f03       ?IOleObject_Advise@CComControlBase@ATL@@QAEJPAUIAdviseSink@@PAK@Z 10006f03 f i CoinAcceptor.obj
 0001:00005f2d       ?IOleObject_Close@CComControlBase@ATL@@QAEJK@Z 10006f2d f i CoinAcceptor.obj
 0001:00006011       ?IOleObject_GetClientSite@CComControlBase@ATL@@QAEJPAPAUIOleClientSite@@@Z 10007011 f i CoinAcceptor.obj
 0001:0000603a       ?IOleObject_SetClientSite@CComControlBase@ATL@@QAEJPAUIOleClientSite@@@Z 1000703a f i CoinAcceptor.obj
 0001:00006079       ?IOleObject_SetExtent@CComControlBase@ATL@@QAEJKPAUtagSIZE@@@Z 10007079 f i CoinAcceptor.obj
 0001:0000612b       ?IPSI_GetIPersistStreamInit@?$IPersistStorageImpl@VCOPOSCoinAcceptor@@@ATL@@AAEPAUIPersistStreamInit@@XZ 1000712b f i CoinAcceptor.obj
 0001:000061d3       ?IPersistStreamInit_Load@?$IPersistStreamInitImpl@VCOPOSCoinAcceptor@@@ATL@@QAEJPAUIStream@@PBUATL_PROPMAP_ENTRY@2@@Z 100071d3 f i CoinAcceptor.obj
 0001:00006448       ?IPersistStreamInit_Save@?$IPersistStreamInitImpl@VCOPOSCoinAcceptor@@@ATL@@QAEJPAUIStream@@HPBUATL_PROPMAP_ENTRY@2@@Z 10007448 f i CoinAcceptor.obj
 0001:00006636       ?IQuickActivate_QuickActivate@CComControlBase@ATL@@QAEJPAUtagQACONTAINER@@PAUtagQACONTROL@@@Z 10007636 f i CoinAcceptor.obj
 0001:00006878       ?IViewObject_Draw@CComControlBase@ATL@@QAEJKJPAXPAUtagDVTARGETDEVICE@@PAUHDC__@@2PBU_RECTL@@3@Z 10007878 f i CoinAcceptor.obj
 0001:00006920       ?InPlaceActivate@CComControlBase@ATL@@QAEJJPBUtagRECT@@@Z 10007920 f i CoinAcceptor.obj
 0001:00006b91       ?Init@?$CComEnumImpl@UIEnumConnectionPoints@@$1?_GUID_b196b285_bab4_101a_b69c_00aa00341d07@@3U__s_GUID@@BPAUIConnectionPoint@@V?$_CopyInterface@UIConnectionPoint@@@ATL@@@ATL@@QAEJPAPAUIConnectionPoint@@0PAUIUnknown@@W4CComEnumFlags@2@@Z 10007b91 f i CoinAcceptor.obj
 0001:00006c70       ?Init@?$CComEnumImpl@UIEnumConnections@@$1?_GUID_b196b287_bab4_101a_b69c_00aa00341d07@@3U__s_GUID@@BUtagCONNECTDATA@@V?$_Copy@UtagCONNECTDATA@@@ATL@@@ATL@@QAEJPAUtagCONNECTDATA@@0PAUIUnknown@@W4CComEnumFlags@2@@Z 10007c70 f i CoinAcceptor.obj
 0001:00006d4f       ?Init@CComModule@ATL@@QAEJPAU_ATL_OBJMAP_ENTRY30@2@PAUHINSTANCE__@@PBU_GUID@@@Z 10007d4f f i CoinAcceptor.obj
 0001:00006dae       ?Init@CDynamicStdCallThunk2@ATL@@QAEHKPAX@Z 10007dae f i CoinAcceptor.obj
 0001:00006dd9       ?InlineIsEqualUnknown@ATL@@YGHABU_GUID@@@Z 10007dd9 f i CoinAcceptor.obj
 0001:00006e01       ?InternalSetAtIndex@?$CSimpleMap@PA_WPA_WVCExpansionVectorEqualHelper@ATL@@@ATL@@QAEXHABQA_W0@Z 10007e01 f i CoinAcceptor.obj
 0001:00006e2b       ?Invoke@CComTypeInfoHolder@ATL@@QAEJPAUIDispatch@@JABU_GUID@@KGPAUtagDISPPARAMS@@PAUtagVARIANT@@PAUtagEXCEPINFO@@PAI@Z 10007e2b f i CoinAcceptor.obj
 0001:00006e6e       ?IsEqualObject@?$CComPtrBase@UIOleClientSite@@@ATL@@QAE_NPAUIUnknown@@@Z 10007e6e f i CoinAcceptor.obj
 0001:00006e6e       ?IsEqualObject@?$CComPtrBase@UITypeInfo@@@ATL@@QAE_NPAUIUnknown@@@Z 10007e6e f i CoinAcceptor.obj
 0001:00006edb       ?IsSpace@CRegParser@ATL@@IAEH_W@Z 10007edb f i CoinAcceptor.obj
 0001:00006f05       ?LoadNameCache@CComTypeInfoHolder@ATL@@QAEJPAUITypeInfo@@@Z 10007f05 f i CoinAcceptor.obj
 0001:0000703a       ?Lookup@?$CSimpleMap@PA_WPA_WVCExpansionVectorEqualHelper@ATL@@@ATL@@QBEPA_WABQA_W@Z 1000803a f i CoinAcceptor.obj
 0001:00007060       ?NextToken@CRegParser@ATL@@IAEJPA_W@Z 10008060 f i CoinAcceptor.obj
 0001:00007198       ?OnKillFocus@CComControlBase@ATL@@QAEJIIJAAH@Z 10008198 f i CoinAcceptor.obj
 0001:000071f3       ?OnMouseActivate@CComControlBase@ATL@@QAEJIIJAAH@Z 100081f3 f i CoinAcceptor.obj
 0001:00007261       ?OnPaint@CComControlBase@ATL@@QAEJIIJAAH@Z 10008261 f i CoinAcceptor.obj
 0001:00007313       ?OnSetFocus@CComControlBase@ATL@@QAEJIIJAAH@Z 10008313 f i CoinAcceptor.obj
 0001:0000739c       ?Open@CRegKey@ATL@@QAEJPAUHKEY__@@PB_WK@Z 1000839c f i CoinAcceptor.obj
 0001:000073f1       ?PreProcessBuffer@CRegParser@ATL@@QAEJPA_WPAPA_W@Z 100083f1 f i CoinAcceptor.obj
 0001:00007660       ?ProcessWindowMessage@?$CComControl@VCOPOSCoinAcceptor@@V?$CWindowImpl@VCOPOSCoinAcceptor@@VCWindow@ATL@@V?$CWinTraits@$0FGAAAAAA@$0A@@3@@ATL@@@ATL@@UAEHPAUHWND__@@IIJAAJK@Z 10008660 f i CoinAcceptor.obj
 0001:000076ff       ?ReadFromStream@CComBSTR@ATL@@QAEJPAUIStream@@@Z 100086ff f i CoinAcceptor.obj
 0001:00007822       ?ReadFromStream@CComVariant@ATL@@QAEJPAUIStream@@GTClassesAllowedInStream@2@K@Z 10008822 f i CoinAcceptor.obj
 0001:000079ac       ?RecurseDeleteKey@CRegKey@ATL@@QAEJPB_W@Z 100089ac f i CoinAcceptor.obj
 0001:00007a9a       ?RegCreateKeyExW@CAtlTransactionManager@ATL@@QAEJPAUHKEY__@@PB_WKPA_WKKQAU_SECURITY_ATTRIBUTES@@PAPAU3@PAK@Z 10008a9a f i CoinAcceptor.obj
 0001:00007afd       ?RegDeleteKeyW@CAtlTransactionManager@ATL@@QAEJPAUHKEY__@@PB_W@Z 10008afd f i CoinAcceptor.obj
 0001:00007b4f       ?RegOpenKeyExW@CAtlTransactionManager@ATL@@QAEJPAUHKEY__@@PB_WKKPAPAU3@@Z 10008b4f f i CoinAcceptor.obj
 0001:00007ba6       ?Register@_ATL_WNDCLASSINFOW@ATL@@QAEGPAP6GJPAUHWND__@@IIJ@Z@Z 10008ba6 f i CoinAcceptor.obj
 0001:00007bc6       ?RegisterBuffer@CRegParser@ATL@@QAEJPA_WH@Z 10008bc6 f i CoinAcceptor.obj
 0001:00007d0d       ?RegisterFromResource@CRegObject@ATL@@IAEJPB_W00H@Z 10008d0d f i CoinAcceptor.obj
 0001:00007e43       ?RegisterServer@?$CAtlModuleT@VCComModule@ATL@@@ATL@@QAEJHPBU_GUID@@@Z 10008e43 f i CoinAcceptor.obj
 0001:00007e71       ?RegisterServer@CComModule@ATL@@QAEJHPBU_GUID@@@Z 10008e71 f i CoinAcceptor.obj
 0001:00007ee7       ?RegisterSubkeys@CRegParser@ATL@@IAEJPA_WPAUHKEY__@@HH@Z 10008ee7 f i CoinAcceptor.obj
 0001:00008594       ?Remove@CComDynamicUnkArray@ATL@@QAEHK@Z 10009594 f i CoinAcceptor.obj
 0001:000085bd       ?RemoveAll@?$CSimpleMap@PA_WPA_WVCExpansionVectorEqualHelper@ATL@@@ATL@@QAEXXZ 100095bd f i CoinAcceptor.obj
 0001:000085e9       ?ResourceRegisterSz@CRegObject@ATL@@QAGJPB_W00@Z 100095e9 f i CoinAcceptor.obj
 0001:00008616       ?ResourceUnregisterSz@CRegObject@ATL@@QAGJPB_W00@Z 10009616 f i CoinAcceptor.obj
 0001:00008643       ?SendOnDataChange@CComControlBase@ATL@@QAEJK@Z 10009643 f i CoinAcceptor.obj
 0001:00008690       ?SetControlFocus@CComControlBase@ATL@@QAEHH@Z 10009690 f i CoinAcceptor.obj
 0001:0000872d       ?SetMultiStringValue@CRegKey@ATL@@QAEJPB_W0@Z 1000972d f i CoinAcceptor.obj
 0001:00008789       ?SetStringValue@CRegKey@ATL@@QAEJPB_W0K@Z 10009789 f i CoinAcceptor.obj
 0001:000087d2       ?SkipAssignment@CRegParser@ATL@@IAEJPA_W@Z 100097d2 f i CoinAcceptor.obj
 0001:00008837       ?SkipWhiteSpace@CRegParser@ATL@@IAEXXZ 10009837 f i CoinAcceptor.obj
 0001:00008859       ?StrChrW@CRegParser@ATL@@KAPA_WPA_W_W@Z 10009859 f i CoinAcceptor.obj
 0001:00008896       ?Term@CAtlModule@ATL@@QAEXXZ 10009896 f i CoinAcceptor.obj
 0001:000088e9       ?Term@CComModule@ATL@@QAEXXZ 100098e9 f i CoinAcceptor.obj
 0001:00008941       ?UnregisterServer@?$CAtlModuleT@VCComModule@ATL@@@ATL@@QAEJHPBU_GUID@@@Z 10009941 f i CoinAcceptor.obj
 0001:00008967       ?UnregisterServer@CComModule@ATL@@QAEJHPBU_GUID@@@Z 10009967 f i CoinAcceptor.obj
 0001:000089dd       ?UpdateRegistryFromResource@CAtlModule@ATL@@QAGJIHPAU_ATL_REGMAP_ENTRY@2@@Z 100099dd f i CoinAcceptor.obj
 0001:00008ba8       ?UpdateRegistryFromResource@CAtlModule@ATL@@QAGJPB_WHPAU_ATL_REGMAP_ENTRY@2@@Z 10009ba8 f i CoinAcceptor.obj
 0001:00008d79       ?VTFromRegType@CRegParser@ATL@@KAHPB_WAAG@Z 10009d79 f i CoinAcceptor.obj
 0001:00008de6       ?WindowProc@?$CWindowImplBaseT@VCWindow@ATL@@V?$CWinTraits@$0FGAAAAAA@$0A@@2@@ATL@@SGJPAUHWND__@@IIJ@Z 10009de6 f i CoinAcceptor.obj
 0001:00008ed8       ?WriteToStream@CComBSTR@ATL@@QAEJPAUIStream@@@Z 10009ed8 f i CoinAcceptor.obj
 0001:00008f3a       ?WriteToStream@CComVariant@ATL@@QAEJPAUIStream@@@Z 10009f3a f i CoinAcceptor.obj
 0001:000090b4       ?WriteToStream@CComVariant@ATL@@QAEJPAUIStream@@G@Z 1000a0b4 f i CoinAcceptor.obj
 0001:0000911d       ?_AtlInitialConstruct@?$CComObjectRootEx@VCComMultiThreadModel@ATL@@@ATL@@QAEJXZ 1000a11d f i CoinAcceptor.obj
 0001:00009132       ?_AtlVerifyStackAvailable@_ATL_SAFE_ALLOCA_IMPL@ATL@@YA_NK@Z 1000a132 f i CoinAcceptor.obj
 0001:000091b0       ?atlCreate@?$CWindowImpl@VCOPOSCoinAcceptor@@VCWindow@ATL@@V?$CWinTraits@$0FGAAAAAA@$0A@@3@@ATL@@QAEPAUHWND__@@PAU3@V_U_RECT@2@PB_WKKV_U_MENUorID@2@PAX@Z 1000a1b0 f i CoinAcceptor.obj
 0001:000091f4       ?atlCreate@?$CWindowImplBaseT@VCWindow@ATL@@V?$CWinTraits@$0FGAAAAAA@$0A@@2@@ATL@@QAEPAUHWND__@@PAU3@V_U_RECT@2@PB_WKKV_U_MENUorID@2@GPAX@Z 1000a1f4 f i CoinAcceptor.obj
 0001:00009290       ?copy@?$_Copy@UtagCONNECTDATA@@@ATL@@SAJPAUtagCONNECTDATA@@PBU3@@Z 1000a290 f i CoinAcceptor.obj
 0001:000092c6       ?copy@?$_CopyInterface@UIConnectionPoint@@@ATL@@SAJPAPAUIConnectionPoint@@PBQAU3@@Z 1000a2c6 f i CoinAcceptor.obj
 0001:000092f4       ?memcpy_s@Checked@ATL@@YAXPAXIPBXI@Z 1000a2f4 f i CoinAcceptor.obj
 0001:00009313       ?ocscpy_s@@YA_NPA_WIPB_W@Z 1000a313 f i CoinAcceptor.obj
 0001:0000935d       ?wcscpy_s@Checked@ATL@@YAXPA_WIPB_W@Z 1000a35d f i CoinAcceptor.obj
 0001:00009379       _DllCanUnloadNow@0         1000a379 f   CoinAcceptor.obj
 0001:00009385       _DllGetClassObject@12      1000a385 f   CoinAcceptor.obj
 0001:00009393       _DllMain@12                1000a393 f   CoinAcceptor.obj
 0001:000093d5       _DllRegisterServer@0       1000a3d5 f   CoinAcceptor.obj
 0001:000093e4       _DllUnregisterServer@0     1000a3e4 f   CoinAcceptor.obj
 0001:000093f3       _InlineIsEqualGUID         1000a3f3 f i CoinAcceptor.obj
 0001:00009423       ___local_stdio_printf_options 1000a423 f i CoinAcceptor.obj
 0001:00009429       __vswprintf_s_l            1000a429 f i CoinAcceptor.obj
 0001:000094d6       _swprintf_s                1000a4d6 f i CoinAcceptor.obj
 0001:000094f2       ??0?$CComControl@VCOPOSCoinAcceptor@@V?$CWindowImpl@VCOPOSCoinAcceptor@@VCWindow@ATL@@V?$CWinTraits@$0FGAAAAAA@$0A@@3@@ATL@@@ATL@@QAE@XZ 1000a4f2 f i CoinAcceptorImpl.obj
 0001:00009519       ??0CComControlBase@ATL@@QAE@AAPAUHWND__@@@Z 1000a519 f i CoinAcceptorImpl.obj
 0001:00009569       ??0COPOSCoinAcceptor@@QAE@XZ 1000a569 f   CoinAcceptorImpl.obj
 0001:000095bf       ??1?$CComControl@VCOPOSCoinAcceptor@@V?$CWindowImpl@VCOPOSCoinAcceptor@@VCWindow@ATL@@V?$CWinTraits@$0FGAAAAAA@$0A@@3@@ATL@@@ATL@@UAE@XZ 1000a5bf f i CoinAcceptorImpl.obj
 0001:000095d8       ??1?$IConnectionPointImpl@VCOPOSCoinAcceptor@@$1?IID_IPropertyNotifySink@@3U_GUID@@BVCComDynamicUnkArray@ATL@@@ATL@@QAE@XZ 1000a5d8 f i CoinAcceptorImpl.obj
 0001:000095d8       ??1?$IConnectionPointImpl@VCOPOSCoinAcceptor@@$1?DIID__IOPOSCoinAcceptorEvents@@3U_GUID@@BVCComDynamicUnkArray@ATL@@@ATL@@QAE@XZ 1000a5d8 f i CoinAcceptorImpl.obj
 0001:00009615       ??1CComControlBase@ATL@@UAE@XZ 1000a615 f i CoinAcceptorImpl.obj
 0001:00009678       ??1COPOSCoinAcceptor@@UAE@XZ 1000a678 f   CoinAcceptorImpl.obj
 0001:000096c0       ?AdjustCashCounts@COPOSCoinAcceptor@@UAGJPA_WPAJ@Z 1000a6c0 f   CoinAcceptorImpl.obj
 0001:00009717       ?BeginDeposit@COPOSCoinAcceptor@@UAGJPAJ@Z 1000a717 f   CoinAcceptorImpl.obj
 0001:00009732       ?CheckHealth@COPOSCoinAcceptor@@UAGJJPAJ@Z 1000a732 f   CoinAcceptorImpl.obj
 0001:00009781       ?ClaimDevice@COPOSCoinAcceptor@@UAGJJPAJ@Z 1000a781 f   CoinAcceptorImpl.obj
 0001:000097f6       ?ClearInput@COPOSCoinAcceptor@@UAGJPAJ@Z 1000a7f6 f   CoinAcceptorImpl.obj
 0001:00009811       ?Close@COPOSCoinAcceptor@@UAGJPAJ@Z 1000a811 f   CoinAcceptorImpl.obj
 0001:0000987f       ?CompareFirmwareVersion@COPOSCoinAcceptor@@UAGJPA_WPAJ1@Z 1000a87f f   CoinAcceptorImpl.obj
 0001:000098ff       ?DirectIO@COPOSCoinAcceptor@@UAGJJPAJPAPA_W0@Z 1000a8ff f   CoinAcceptorImpl.obj
 0001:000099ad       ?DoInvoke@COPOSCoinAcceptor@@IAEJJPAVOposVariant@@IHPAJ_N@Z 1000a9ad f   CoinAcceptorImpl.obj
 0001:00009a89       ?EndDeposit@COPOSCoinAcceptor@@UAGJJPAJ@Z 1000aa89 f   CoinAcceptorImpl.obj
 0001:00009ad8       ?EventClose@COPOSCoinAcceptor@@IAEXXZ 1000aad8 f i CoinAcceptorImpl.obj
 0001:00009b0b       ?EventInit@COPOSCoinAcceptor@@IAEJXZ 1000ab0b f i CoinAcceptorImpl.obj
 0001:00009bd7       ?EventUninit@COPOSCoinAcceptor@@IAEXXZ 1000abd7 f i CoinAcceptorImpl.obj
 0001:00009c29       ?EventWindowProc@COPOSCoinAcceptor@@IAGJIIJ@Z 1000ac29 f i CoinAcceptorImpl.obj
 0001:00009cc3       ?FinalConstruct@COPOSCoinAcceptor@@QAEJXZ 1000acc3 f   CoinAcceptorImpl.obj
 0001:00009cfc       ?FireEventCleanup@COPOSCoinAcceptor@@IAEXXZ 1000acfc f i CoinAcceptorImpl.obj
 0001:00009d12       ?FireEventSetup@COPOSCoinAcceptor@@IAE_NXZ 1000ad12 f i CoinAcceptorImpl.obj
 0001:00009d46       ?FixDeposit@COPOSCoinAcceptor@@UAGJPAJ@Z 1000ad46 f   CoinAcceptorImpl.obj
 0001:00009d61       ?FreezeEvents@COPOSCoinAcceptor@@MAGJH@Z 1000ad61 f   CoinAcceptorImpl.obj
 0001:00009db2       ?GetOposProp@COPOSCoinAcceptor@@IAEJJPAFJ@Z 1000adb2 f   CoinAcceptorImpl.obj
 0001:00009dd5       ?GetOposProp@COPOSCoinAcceptor@@IAEJJPAJJ@Z 1000add5 f   CoinAcceptorImpl.obj
 0001:00009ea4       ?GetOposProp@COPOSCoinAcceptor@@IAEJJPAPA_WJ@Z 1000aea4 f   CoinAcceptorImpl.obj
 0001:00009f80       ?OnDraw@COPOSCoinAcceptor@@MAEJAAUATL_DRAWINFO@@@Z 1000af80 f   CoinAcceptorImpl.obj
 0001:0000a020       ?Open@COPOSCoinAcceptor@@UAGJPA_WPAJ@Z 1000b020 f   CoinAcceptorImpl.obj
 0001:0000a862       ?PauseDeposit@COPOSCoinAcceptor@@UAGJJPAJ@Z 1000b862 f   CoinAcceptorImpl.obj
 0001:0000a8b1       ?ReadCashCounts@COPOSCoinAcceptor@@UAGJPAPA_WPAFPAJ@Z 1000b8b1 f   CoinAcceptorImpl.obj
 0001:0000a931       ?ReleaseDevice@COPOSCoinAcceptor@@UAGJPAJ@Z 1000b931 f   CoinAcceptorImpl.obj
 0001:0000a980       ?ResetStatistics@COPOSCoinAcceptor@@UAGJPA_WPAJ@Z 1000b980 f   CoinAcceptorImpl.obj
 0001:0000a9d7       ?RetrieveStatistics@COPOSCoinAcceptor@@UAGJPAPA_WPAJ@Z 1000b9d7 f   CoinAcceptorImpl.obj
 0001:0000aa2e       ?SOProcessID@COPOSCoinAcceptor@@UAGJPAJ@Z 1000ba2e f   CoinAcceptorImpl.obj
 0001:0000aa42       ?SetCOFreezeEvents@COPOSCoinAcceptor@@IAEXF@Z 1000ba42 f   CoinAcceptorImpl.obj
 0001:0000aae2       ?SetOposProp@COPOSCoinAcceptor@@IAEJJJJ@Z 1000bae2 f   CoinAcceptorImpl.obj
 0001:0000abd9       ?SetOposProp@COPOSCoinAcceptor@@IAEJJPA_WJ@Z 1000bbd9 f   CoinAcceptorImpl.obj
 0001:0000acda       ?UpdateFirmware@COPOSCoinAcceptor@@UAGJPA_WPAJ@Z 1000bcda f   CoinAcceptorImpl.obj
 0001:0000ad31       ?UpdateStatistics@COPOSCoinAcceptor@@UAGJPA_WPAJ@Z 1000bd31 f   CoinAcceptorImpl.obj
 0001:0000ad88       ?get_BinaryConversion@COPOSCoinAcceptor@@UAGJPAJ@Z 1000bd88 f   CoinAcceptorImpl.obj
 0001:0000ad9e       ?get_CapCompareFirmwareVersion@COPOSCoinAcceptor@@UAGJPAF@Z 1000bd9e f   CoinAcceptorImpl.obj
 0001:0000adb7       ?get_CapDiscrepancy@COPOSCoinAcceptor@@UAGJPAF@Z 1000bdb7 f   CoinAcceptorImpl.obj
 0001:0000add0       ?get_CapFullSensor@COPOSCoinAcceptor@@UAGJPAF@Z 1000bdd0 f   CoinAcceptorImpl.obj
 0001:0000ade9       ?get_CapJamSensor@COPOSCoinAcceptor@@UAGJPAF@Z 1000bde9 f   CoinAcceptorImpl.obj
 0001:0000ae02       ?get_CapNearFullSensor@COPOSCoinAcceptor@@UAGJPAF@Z 1000be02 f   CoinAcceptorImpl.obj
 0001:0000ae1b       ?get_CapPauseDeposit@COPOSCoinAcceptor@@UAGJPAF@Z 1000be1b f   CoinAcceptorImpl.obj
 0001:0000ae34       ?get_CapPowerReporting@COPOSCoinAcceptor@@UAGJPAJ@Z 1000be34 f   CoinAcceptorImpl.obj
 0001:0000ae4d       ?get_CapRealTimeData@COPOSCoinAcceptor@@UAGJPAF@Z 1000be4d f   CoinAcceptorImpl.obj
 0001:0000ae66       ?get_CapStatisticsReporting@COPOSCoinAcceptor@@UAGJPAF@Z 1000be66 f   CoinAcceptorImpl.obj
 0001:0000ae7f       ?get_CapUpdateFirmware@COPOSCoinAcceptor@@UAGJPAF@Z 1000be7f f   CoinAcceptorImpl.obj
 0001:0000ae98       ?get_CapUpdateStatistics@COPOSCoinAcceptor@@UAGJPAF@Z 1000be98 f   CoinAcceptorImpl.obj
 0001:0000aeb1       ?get_CheckHealthText@COPOSCoinAcceptor@@UAGJPAPA_W@Z 1000beb1 f   CoinAcceptorImpl.obj
 0001:0000aeca       ?get_Claimed@COPOSCoinAcceptor@@UAGJPAF@Z 1000beca f   CoinAcceptorImpl.obj
 0001:0000aee0       ?get_ControlObjectDescription@COPOSCoinAcceptor@@UAGJPAPA_W@Z 1000bee0 f   CoinAcceptorImpl.obj
 0001:0000af2e       ?get_ControlObjectVersion@COPOSCoinAcceptor@@UAGJPAJ@Z 1000bf2e f   CoinAcceptorImpl.obj
 0001:0000af41       ?get_CurrencyCode@COPOSCoinAcceptor@@UAGJPAPA_W@Z 1000bf41 f   CoinAcceptorImpl.obj
 0001:0000af5a       ?get_DataCount@COPOSCoinAcceptor@@UAGJPAJ@Z 1000bf5a f   CoinAcceptorImpl.obj
 0001:0000af70       ?get_DataEventEnabled@COPOSCoinAcceptor@@UAGJPAF@Z 1000bf70 f   CoinAcceptorImpl.obj
 0001:0000af86       ?get_DepositAmount@COPOSCoinAcceptor@@UAGJPAJ@Z 1000bf86 f   CoinAcceptorImpl.obj
 0001:0000af9f       ?get_DepositCashList@COPOSCoinAcceptor@@UAGJPAPA_W@Z 1000bf9f f   CoinAcceptorImpl.obj
 0001:0000afb8       ?get_DepositCodeList@COPOSCoinAcceptor@@UAGJPAPA_W@Z 1000bfb8 f   CoinAcceptorImpl.obj
 0001:0000afd1       ?get_DepositCounts@COPOSCoinAcceptor@@UAGJPAPA_W@Z 1000bfd1 f   CoinAcceptorImpl.obj
 0001:0000afea       ?get_DepositStatus@COPOSCoinAcceptor@@UAGJPAJ@Z 1000bfea f   CoinAcceptorImpl.obj
 0001:0000b003       ?get_DeviceDescription@COPOSCoinAcceptor@@UAGJPAPA_W@Z 1000c003 f   CoinAcceptorImpl.obj
 0001:0000b01c       ?get_DeviceEnabled@COPOSCoinAcceptor@@UAGJPAF@Z 1000c01c f   CoinAcceptorImpl.obj
 0001:0000b032       ?get_DeviceName@COPOSCoinAcceptor@@UAGJPAPA_W@Z 1000c032 f   CoinAcceptorImpl.obj
 0001:0000b04b       ?get_FreezeEvents@COPOSCoinAcceptor@@UAGJPAF@Z 1000c04b f   CoinAcceptorImpl.obj
 0001:0000b061       ?get_FullStatus@COPOSCoinAcceptor@@UAGJPAJ@Z 1000c061 f   CoinAcceptorImpl.obj
 0001:0000b07a       ?get_OpenResult@COPOSCoinAcceptor@@UAGJPAJ@Z 1000c07a f   CoinAcceptorImpl.obj
 0001:0000b091       ?get_PowerNotify@COPOSCoinAcceptor@@UAGJPAJ@Z 1000c091 f   CoinAcceptorImpl.obj
 0001:0000b0a7       ?get_PowerState@COPOSCoinAcceptor@@UAGJPAJ@Z 1000c0a7 f   CoinAcceptorImpl.obj
 0001:0000b0bd       ?get_RealTimeDataEnabled@COPOSCoinAcceptor@@UAGJPAF@Z 1000c0bd f   CoinAcceptorImpl.obj
 0001:0000b0d6       ?get_ResultCode@COPOSCoinAcceptor@@UAGJPAJ@Z 1000c0d6 f   CoinAcceptorImpl.obj
 0001:0000b114       ?get_ResultCodeExtended@COPOSCoinAcceptor@@UAGJPAJ@Z 1000c114 f   CoinAcceptorImpl.obj
 0001:0000b12a       ?get_ServiceObjectDescription@COPOSCoinAcceptor@@UAGJPAPA_W@Z 1000c12a f   CoinAcceptorImpl.obj
 0001:0000b143       ?get_ServiceObjectVersion@COPOSCoinAcceptor@@UAGJPAJ@Z 1000c143 f   CoinAcceptorImpl.obj
 0001:0000b159       ?get_State@COPOSCoinAcceptor@@UAGJPAJ@Z 1000c159 f   CoinAcceptorImpl.obj
 0001:0000b185       ?put_BinaryConversion@COPOSCoinAcceptor@@UAGJJ@Z 1000c185 f   CoinAcceptorImpl.obj
 0001:0000b19b       ?put_CurrencyCode@COPOSCoinAcceptor@@UAGJPA_W@Z 1000c19b f   CoinAcceptorImpl.obj
 0001:0000b1b4       ?put_DataEventEnabled@COPOSCoinAcceptor@@UAGJF@Z 1000c1b4 f   CoinAcceptorImpl.obj
 0001:0000b1d1       ?put_DeviceEnabled@COPOSCoinAcceptor@@UAGJF@Z 1000c1d1 f   CoinAcceptorImpl.obj
 0001:0000b1ee       ?put_FreezeEvents@COPOSCoinAcceptor@@UAGJF@Z 1000c1ee f   CoinAcceptorImpl.obj
 0001:0000b23a       ?put_PowerNotify@COPOSCoinAcceptor@@UAGJJ@Z 1000c23a f   CoinAcceptorImpl.obj
 0001:0000b250       ?s_EventWindowProc@COPOSCoinAcceptor@@KGJPAUHWND__@@IIJ@Z 1000c250 f i CoinAcceptorImpl.obj
 0001:0000b2a2       ??_U@YAPAXI@Z              1000c2a2 f   LIBCMT:new_array.obj
 0001:0000b2ab       ??3@YAXPAXI@Z              1000c2ab f   LIBCMT:delete_scalar_size.obj
 0001:0000b2b9       ??_V@YAXPAX@Z              1000c2b9 f   LIBCMT:delete_array.obj
 0001:0000b2be       ??_V@YAXPAXI@Z             1000c2be f   LIBCMT:delete_array_size.obj
 0001:0000b310       ___scrt_acquire_startup_lock 1000c310 f   LIBCMT:utility.obj
 0001:0000b342       ___scrt_dllmain_after_initialize_c 1000c342 f   LIBCMT:utility.obj
 0001:0000b36d       ___scrt_dllmain_before_initialize_c 1000c36d f   LIBCMT:utility.obj
 0001:0000b37b       ___scrt_dllmain_crt_thread_attach 1000c37b f   LIBCMT:utility.obj
 0001:0000b39a       ___scrt_dllmain_crt_thread_detach 1000c39a f   LIBCMT:utility.obj
 0001:0000b3a7       ___scrt_dllmain_exception_filter 1000c3a7 f   LIBCMT:utility.obj
 0001:0000b3db       ___scrt_dllmain_uninitialize_c 1000c3db f   LIBCMT:utility.obj
 0001:0000b3fe       ___scrt_dllmain_uninitialize_critical 1000c3fe f   LIBCMT:utility.obj
 0001:0000b40b       ___scrt_initialize_crt     1000c40b f   LIBCMT:utility.obj
 0001:0000b444       ___scrt_initialize_onexit_tables 1000c444 f   LIBCMT:utility.obj
 0001:0000b4cb       ___scrt_is_nonwritable_in_current_image 1000c4cb f   LIBCMT:utility.obj
 0001:0000b55f       ___scrt_release_startup_lock 1000c55f f   LIBCMT:utility.obj
 0001:0000b57c       ___scrt_uninitialize_crt   1000c57c f   LIBCMT:utility.obj
 0001:0000b5a4       __onexit                   1000c5a4 f   LIBCMT:utility.obj
 0001:0000b5d1       _atexit                    1000c5d1 f   LIBCMT:utility.obj
 0001:0000b5e6       ??3@YAXPAX@Z               1000c5e6 f   LIBCMT:delete_scalar.obj
 0001:0000b6b0       __Init_thread_footer       1000c6b0 f   LIBCMT:thread_safe_statics.obj
 0001:0000b6fa       __Init_thread_header       1000c6fa f   LIBCMT:thread_safe_statics.obj
 0001:0000b74c       __Init_thread_notify       1000c74c f   LIBCMT:thread_safe_statics.obj
 0001:0000b782       __Init_thread_wait         1000c782 f   LIBCMT:thread_safe_statics.obj
 0001:0000b7d0       ___raise_securityfailure   1000c7d0 f   LIBCMT:gs_report.obj
 0001:0000b7f8       ___report_gsfailure        1000c7f8 f   LIBCMT:gs_report.obj
 0001:0000b8f1       ___report_rangecheckfailure 1000c8f1 f   LIBCMT:gs_report.obj
 0001:0000b8fd       ___report_securityfailure  1000c8fd f   LIBCMT:gs_report.obj
 0001:0000b9cb       ??2@YAPAXIABUnothrow_t@std@@@Z 1000c9cb f   LIBCMT:new_scalar_nothrow.obj
 0001:0000ba20       ??_U@YAPAXIABUnothrow_t@std@@@Z 1000ca20 f   LIBCMT:new_array_nothrow.obj
 0001:0000ba29       @__security_check_cookie@4 1000ca29 f   LIBCMT:secchk.obj
 0001:0000ba40       __SEH_prolog4_GS           1000ca40 f   LIBCMT:sehprolg4gs.obj
 0001:0000ba87       __SEH_epilog4_GS           1000ca87 f   LIBCMT:sehprolg4gs.obj
 0001:0000baa0       __alloca_probe_16          1000caa0 f   LIBCMT:alloca16.obj
 0001:0000bab6       __alloca_probe_8           1000cab6     LIBCMT:alloca16.obj
 0001:0000bad0       __alloca_probe             1000cad0 f   LIBCMT:chkstk.obj
 0001:0000bad0       __chkstk                   1000cad0 f   LIBCMT:chkstk.obj
 0001:0000be3d       __DllMainCRTStartup@12     1000ce3d f   LIBCMT:dll_dllmain.obj
 0001:0000be60       ??2@YAPAXI@Z               1000ce60 f   LIBCMT:new_scalar.obj
 0001:0000be90       ___isa_available_init      1000ce90 f   LIBCMT:cpu_disp.obj
 0001:0000c060       ___scrt_is_ucrt_dll_in_use 1000d060 f   LIBCMT:ucrt_detection.obj
 0001:0000c06c       ___scrt_fastfail           1000d06c f   LIBCMT:utility_desktop.obj
 0001:0000c186       __crt_debugger_hook        1000d186 f   LIBCMT:utility_desktop.obj
 0001:0000c190       __SEH_prolog4              1000d190 f   LIBCMT:sehprolg4.obj
 0001:0000c1d4       __SEH_epilog4              1000d1d4 f   LIBCMT:sehprolg4.obj
 0001:0000c1e8       @_guard_check_icall_nop@4  1000d1e8 f i LIBCMT:guard_support.obj
 0001:0000c238       ___security_init_cookie    1000d238 f   LIBCMT:gs_support.obj
 0001:0000c283       ?__scrt_initialize_type_info@@YAXXZ 1000d283 f   LIBCMT:tncleanup.obj
 0001:0000c28f       ?__scrt_uninitialize_type_info@@YAXXZ 1000d28f f   LIBCMT:tncleanup.obj
 0001:0000c29b       ___local_stdio_scanf_options 1000d29b f i LIBCMT:default_local_stdio_options.obj
 0001:0000c2a1       ___scrt_initialize_default_local_stdio_options 1000d2a1 f   LIBCMT:default_local_stdio_options.obj
 0001:0000c2be       ___scrt_get_dyn_tls_init_callback 1000d2be f   LIBCMT:dyn_tls_init.obj
 0001:0000c2c4       __RTC_Initialize           1000d2c4 f   LIBCMT:initsect.obj
 0001:0000c2f0       __RTC_Terminate            1000d2f0 f   LIBCMT:initsect.obj
 0001:0000c31c       ??0bad_alloc@std@@QAE@ABV01@@Z 1000d31c f i LIBCMT:throw_bad_alloc.obj
 0001:0000c337       ??0bad_alloc@std@@QAE@XZ   1000d337 f i LIBCMT:throw_bad_alloc.obj
 0001:0000c34f       ??0bad_array_new_length@std@@QAE@ABV01@@Z 1000d34f f i LIBCMT:throw_bad_alloc.obj
 0001:0000c36a       ??0bad_array_new_length@std@@QAE@XZ 1000d36a f i LIBCMT:throw_bad_alloc.obj
 0001:0000c382       ??0exception@std@@QAE@ABV01@@Z 1000d382 f i LIBCMT:throw_bad_alloc.obj
 0001:0000c3ae       ??1bad_alloc@std@@UAE@XZ   1000d3ae f i LIBCMT:throw_bad_alloc.obj
 0001:0000c3ae       ??1bad_exception@std@@UAE@XZ 1000d3ae f i libvcruntime:frame.obj
 0001:0000c3ae       ??1bad_array_new_length@std@@UAE@XZ 1000d3ae f i LIBCMT:throw_bad_alloc.obj
 0001:0000c3bf       ??_Eexception@std@@UAEPAXI@Z 1000d3bf f i LIBCMT:throw_bad_alloc.obj
 0001:0000c3bf       ??_Gbad_array_new_length@std@@UAEPAXI@Z 1000d3bf f i LIBCMT:throw_bad_alloc.obj
 0001:0000c3bf       ??_Gbad_alloc@std@@UAEPAXI@Z 1000d3bf f i LIBCMT:throw_bad_alloc.obj
 0001:0000c3bf       ??_Gbad_exception@std@@UAEPAXI@Z 1000d3bf f i libvcruntime:frame.obj
 0001:0000c3bf       ??_Ebad_array_new_length@std@@UAEPAXI@Z 1000d3bf f i LIBCMT:throw_bad_alloc.obj
 0001:0000c3bf       ??_Ebad_exception@std@@UAEPAXI@Z 1000d3bf f i libvcruntime:frame.obj
 0001:0000c3bf       ??_Gexception@std@@UAEPAXI@Z 1000d3bf f i LIBCMT:throw_bad_alloc.obj
 0001:0000c3bf       ??_Ebad_alloc@std@@UAEPAXI@Z 1000d3bf f i LIBCMT:throw_bad_alloc.obj
 0001:0000c3ec       ?__scrt_throw_std_bad_alloc@@YAXXZ 1000d3ec f   LIBCMT:throw_bad_alloc.obj
 0001:0000c409       ?__scrt_throw_std_bad_array_new_length@@YAXXZ 1000d409 f   LIBCMT:throw_bad_alloc.obj
 0001:0000c426       ?what@exception@std@@UBEPBDXZ 1000d426 f i LIBCMT:throw_bad_alloc.obj
 0001:0000c433       ??_Gtype_info@@UAEPAXI@Z   1000d433 f i LIBCMT:std_type_info_static.obj
 0001:0000c433       ??_Etype_info@@UAEPAXI@Z   1000d433 f i LIBCMT:std_type_info_static.obj
 0001:0000c456       ??0CAtlBaseModule@ATL@@QAE@XZ 1000d456 f   atls:atlbase.obj
 0001:0000c4a9       ??0_ATL_BASE_MODULE70@ATL@@QAE@XZ 1000d4a9 f i atls:atlbase.obj
 0001:0000c4cc       ??1CAtlBaseModule@ATL@@QAE@XZ 1000d4cc f   atls:atlbase.obj
 0001:0000c5b9       ?Init@_stdcallthunk@ATL@@QAEHKPAX@Z 1000d5b9 f i atls:atlthunk.obj
 0001:0000c5ee       ?__AllocStdCallThunk_cmn@@YAPAXXZ 1000d5ee f   atls:atlthunk.obj
 0001:0000c6b4       ?__FreeStdCallThunk_cmn@@YAXPAX@Z 1000d6b4 f   atls:atlthunk.obj
 0001:0000c74f       _AtlThunk_AllocateData@0   1000d74f f   atls:atlthunk.obj
 0001:0000c7b4       _AtlThunk_DataToCode@4     1000d7b4 f   atls:atlthunk.obj
 0001:0000c7fb       _AtlThunk_FreeData@4       1000d7fb f   atls:atlthunk.obj
 0001:0000c851       _AtlThunk_InitData@12      1000d851 f   atls:atlthunk.obj
 0001:0000c8a0       __get_purecall_handler     1000d8a0 f   libvcruntime:purevirt.obj
 0001:0000c8a6       __purecall                 1000d8a6 f   libvcruntime:purevirt.obj
 0001:0000c8c2       _wcsstr                    1000d8c2 f   libvcruntime:wcsstr.obj
 0001:0000cb70       __except_handler4          1000db70 f   libvcruntime:chandler4.obj
 0001:0000ccce       _memcmp                    1000dcce f   libvcruntime:memcmp.obj
 0001:0000dbe0       _memcpy                    1000ebe0 f   libvcruntime:memcpy.obj
 0001:0000e160       _memset                    1000f160 f   libvcruntime:memset.obj
 0001:0000e2ba       ___vcrt_initialize         1000f2ba f   libvcruntime:initialization.obj
 0001:0000e2d9       ___vcrt_thread_attach      1000f2d9 f   libvcruntime:initialization.obj
 0001:0000e2e4       ___vcrt_thread_detach      1000f2e4 f   libvcruntime:initialization.obj
 0001:0000e2ef       ___vcrt_uninitialize       1000f2ef f   libvcruntime:initialization.obj
 0001:0000e306       ___vcrt_uninitialize_critical 1000f306 f   libvcruntime:initialization.obj
 0001:0000e30e       ?GetRangeOfTrysToCheck@__FrameHandler3@@SA?AU?$pair@Viterator@TryBlockMap@__FrameHandler3@@V123@@std@@AAVTryBlockMap@1@HPAXPBU_s_FuncInfo@@H@Z 1000f30e f   libvcruntime:trnsctrl.obj
 0001:0000e37e       ?_CallCatchBlock2@@YAPAXPAUEHRegistrationNode@@PBU_s_FuncInfo@@PAXHK@Z 1000f37e f   libvcruntime:trnsctrl.obj
 0001:0000e3dc       ?_CallSETranslator@@YAHPAUEHExceptionRecord@@PAUEHRegistrationNode@@PAX2PBU_s_FuncInfo@@H1@Z 1000f3dc f   libvcruntime:trnsctrl.obj
 0001:0000e4c2       ?_JumpToContinuation@@YGXPAXPAUEHRegistrationNode@@@Z 1000f4c2 f   libvcruntime:trnsctrl.obj
 0001:0000e4f2       ?_UnwindNestedFrames@@YGXPAUEHRegistrationNode@@PAUEHExceptionRecord@@@Z 1000f4f2 f   libvcruntime:trnsctrl.obj
 0001:0000e545       __CatchGuardHandler        1000f545 f   libvcruntime:trnsctrl.obj
 0001:0000e576       __CreateFrameInfo          1000f576 f   libvcruntime:trnsctrl.obj
 0001:0000e59a       __FindAndUnlinkFrame       1000f59a f   libvcruntime:trnsctrl.obj
 0001:0000e5e2       __TranslatorGuardHandler   1000f5e2 f   libvcruntime:trnsctrl.obj
 0001:0000e67f       ___CxxFrameHandler3        1000f67f f   libvcruntime:trnsctrl.obj
 0001:0000e6b5       ___DestructExceptionObject 1000f6b5 f   libvcruntime:ehhelpers.obj
 0001:0000e756       ?_CallMemberFunction0@@YGXQAX0@Z 1000f756 f i libvcruntime:ehhelpers.obj
 0001:0000e7bb       __IsExceptionObjectToBeDestroyed 1000f7bb f   libvcruntime:ehhelpers.obj
 0001:0000e7e1       ___AdjustPointer           1000f7e1 f   libvcruntime:ehhelpers.obj
 0001:0000e806       ___FrameUnwindFilter       1000f806 f   libvcruntime:ehhelpers.obj
 0001:0000e85c       ___std_type_info_compare   1000f85c f   libvcruntime:std_type_info.obj
 0001:0000e898       ___std_type_info_destroy_list 1000f898 f   libvcruntime:std_type_info.obj
 0001:0000e8bb       ___std_exception_copy      1000f8bb f   libvcruntime:std_exception.obj
 0001:0000e91e       ___std_exception_destroy   1000f91e f   libvcruntime:std_exception.obj
 0001:0000e93d       __CxxThrowException@8      1000f93d f   libvcruntime:throw.obj
 0001:0000e9b0       _memmove                   1000f9b0 f   libvcruntime:memmove.obj
 0001:0000ef30       __local_unwind4            1000ff30 f   libvcruntime:exsup4.obj
 0001:0000f004       __seh_longjmp_unwind4@4    10010004 f   libvcruntime:exsup4.obj
 0001:0000f02c       @_EH4_CallFilterFunc@8     1001002c f   libvcruntime:exsup4.obj
 0001:0000f044       @_EH4_TransferToHandler@8  10010044 f   libvcruntime:exsup4.obj
 0001:0000f060       @_EH4_GlobalUnwind2@8      10010060 f   libvcruntime:exsup4.obj
 0001:0000f07c       @_EH4_LocalUnwind@16       1001007c f   libvcruntime:exsup4.obj
 0001:0000f093       ___except_validate_context_record 10010093 f   libvcruntime:jbcxrval.obj
 0001:0000f0c3       ___except_validate_jump_buffer 100100c3 f   libvcruntime:jbcxrval.obj
 0001:0000f0f0       ___vcrt_freefls@4          100100f0 f   libvcruntime:per_thread_data.obj
 0001:0000f10c       ___vcrt_freeptd            1001010c f   libvcruntime:per_thread_data.obj
 0001:0000f142       ___vcrt_getptd             10010142 f   libvcruntime:per_thread_data.obj
 0001:0000f150       ___vcrt_getptd_noexit      10010150 f   libvcruntime:per_thread_data.obj
 0001:0000f1e2       ___vcrt_initialize_ptd     100101e2 f   libvcruntime:per_thread_data.obj
 0001:0000f215       ___vcrt_uninitialize_ptd   10010215 f   libvcruntime:per_thread_data.obj
 0001:0000f230       ___vcrt_initialize_locks   10010230 f   libvcruntime:locks.obj
 0001:0000f26c       ___vcrt_uninitialize_locks 1001026c f   libvcruntime:locks.obj
 0001:0000f9de       ??$TypeMatchHelper@V__FrameHandler3@@@@YAHPBU_s_HandlerType@@PBU_s_CatchableType@@PBU_s_ThrowInfo@@@Z 100109de f i libvcruntime:frame.obj
 0001:0000fa6c       ??$__InternalCxxFrameHandler@V__FrameHandler3@@@@YA?AW4_EXCEPTION_DISPOSITION@@PAUEHExceptionRecord@@PAUEHRegistrationNode@@PAU_CONTEXT@@PAXPBU_s_FuncInfo@@H1E@Z 10010a6c f i libvcruntime:frame.obj
 0001:0000fb6e       ??0bad_exception@std@@QAE@ABV01@@Z 10010b6e f i libvcruntime:frame.obj
 0001:0000fb89       ??0bad_exception@std@@QAE@XZ 10010b89 f i libvcruntime:frame.obj
 0001:0000fba1       ??8type_info@@QBE_NABV0@@Z 10010ba1 f i libvcruntime:frame.obj
 0001:0000fe0d       ?FrameUnwindToEmptyState@__FrameHandler3@@SAXPAUEHRegistrationNode@@PAXPBU_s_FuncInfo@@@Z 10010e0d f   libvcruntime:frame.obj
 0001:0000fe25       ?FrameUnwindToState@__FrameHandler3@@SAXPAUEHRegistrationNode@@PAXPBU_s_FuncInfo@@H@Z 10010e25 f   libvcruntime:frame.obj
 0001:0000ffa7       ?_CallMemberFunction1@@YGXQAX00@Z 10010fa7 f i libvcruntime:frame.obj
 0001:0000ffb7       ?_CallMemberFunction2@@YGXQAX00H@Z 10010fb7 f i libvcruntime:frame.obj
 0001:0000ffca       ?getESTypes@__FrameHandler3@@SAPBU_s_ESTypeList@@PBU_s_FuncInfo@@@Z 10010fca f i libvcruntime:frame.obj
 0001:0000ffe0       __CallSettingFrame@12      10010fe0 f   libvcruntime:lowhelpr.obj
 0001:00010007       __NLG_Return               10011007     libvcruntime:lowhelpr.obj
 0001:00010030       __global_unwind2           10011030 f   libvcruntime:exsup.obj
 0001:00010096       __local_unwind2            10011096 f   libvcruntime:exsup.obj
 0001:0001011a       __abnormal_termination     1001111a f   libvcruntime:exsup.obj
 0001:00010140       __NLG_Notify1              10011140 f   libvcruntime:exsup.obj
 0001:0001014c       __NLG_Notify               1001114c f   libvcruntime:exsup.obj
 0001:00010163       __NLG_Dispatch             10011163     libvcruntime:exsup.obj
 0001:00010163       __NLG_Dispatch2            10011163     libvcruntime:exsup.obj
 0001:0001016b       __NLG_Call                 1001116b f   libvcruntime:exsup.obj
 0001:0001016d       __NLG_Return2              1001116d     libvcruntime:exsup.obj
 0001:00010251       ___vcrt_FlsAlloc           10011251 f   libvcruntime:winapi_downlevel.obj
 0001:0001028c       ___vcrt_FlsFree            1001128c f   libvcruntime:winapi_downlevel.obj
 0001:000102c7       ___vcrt_FlsGetValue        100112c7 f   libvcruntime:winapi_downlevel.obj
 0001:00010302       ___vcrt_FlsSetValue        10011302 f   libvcruntime:winapi_downlevel.obj
 0001:00010340       ___vcrt_InitializeCriticalSectionEx 10011340 f   libvcruntime:winapi_downlevel.obj
 0001:00010387       _unexpected                10011387 f   libvcruntime:unexpected.obj
 0001:000103a4       ?GetCurrentState@__FrameHandler3@@SAHPAUEHRegistrationNode@@PAXPBU_s_FuncInfo@@@Z 100113a4 f   libvcruntime:ehstate.obj
 0001:000103c1       ?SetState@__FrameHandler3@@SAXPAUEHRegistrationNode@@PBU_s_FuncInfo@@H@Z 100113c1 f   libvcruntime:ehstate.obj
 0001:000103cf       _free                      100113cf f   libucrt:free.obj
 0001:000103ea       ___acrt_call_reportfault   100113ea f   libucrt:invalid_parameter.obj
 0001:00010523       ___acrt_initialize_invalid_parameter_handler 10011523 f   libucrt:invalid_parameter.obj
 0001:00010532       __invalid_parameter        10011532 f   libucrt:invalid_parameter.obj
 0001:00010596       __invalid_parameter_noinfo 10011596 f   libucrt:invalid_parameter.obj
 0001:000105a6       __invoke_watson            100115a6 f   libucrt:invalid_parameter.obj
 0001:000105da       ___acrt_errno_from_os_error 100115da f   libucrt:errno.obj
 0001:0001061d       ___acrt_errno_map_os_error 1001161d f   libucrt:errno.obj
 0001:00010640       ___doserrno                10011640 f   libucrt:errno.obj
 0001:00010653       __errno                    10011653 f   libucrt:errno.obj
 0001:00010666       _calloc                    10011666 f   libucrt:calloc.obj
 0001:00010671       _malloc                    10011671 f   libucrt:malloc.obj
 0001:0001067c       __recalloc                 1001167c f   libucrt:recalloc.obj
 0001:00010687       __recalloc_base            10011687 f   libucrt:recalloc.obj
 0001:000106f4       __resetstkoflw             100116f4 f   libucrt:resetstk.obj
 0001:000107b9       _wcscat_s                  100117b9 f   libucrt:wcscat_s.obj
 0001:0001082e       _wcscpy_s                  1001182e f   libucrt:wcscpy_s.obj
 0001:0001095d       _wcsncpy_s                 1001195d f   libucrt:wcsncpy_s.obj
 0001:00010b69       ??$count@D@formatting_buffer@__crt_stdio_output@@QBEIXZ 10011b69 f i libucrt:output.obj
 0001:00010b81       ??$count@_W@formatting_buffer@__crt_stdio_output@@QBEIXZ 10011b81 f i libucrt:output.obj
 0001:00010b9a       ??$ensure_buffer_is_big_enough@D@formatting_buffer@__crt_stdio_output@@QAE_NI@Z 10011b9a f i libucrt:output.obj
 0001:00010c17       ??$ensure_buffer_is_big_enough@_W@formatting_buffer@__crt_stdio_output@@QAE_NI@Z 10011c17 f i libucrt:output.obj
 0001:00010c95       ??$is_wide_character_specifier@_W@__crt_stdio_output@@YA_N_K_WW4length_modifier@0@@Z 10011c95 f i libucrt:output.obj
 0001:00010ce3       ??$scratch_data@D@formatting_buffer@__crt_stdio_output@@QAEPADXZ 10011ce3 f i libucrt:output.obj
 0001:00010d01       ??$type_case_integer_parse_into_buffer@I@?$output_processor@_WV?$string_output_adapter@_W@__crt_stdio_output@@V?$format_validation_base@_WV?$string_output_adapter@_W@__crt_stdio_output@@@2@@__crt_stdio_output@@AAEXII_N@Z 10011d01 f i libucrt:output.obj
 0001:00010d88       ??$type_case_integer_parse_into_buffer@_K@?$output_processor@_WV?$string_output_adapter@_W@__crt_stdio_output@@V?$format_validation_base@_WV?$string_output_adapter@_W@__crt_stdio_output@@@2@@__crt_stdio_output@@AAEX_KI_N@Z 10011d88 f i libucrt:output.obj
 0001:00010e2a       ??$write_multiple_characters@V?$string_output_adapter@_W@__crt_stdio_output@@D@__crt_stdio_output@@YAXABV?$string_output_adapter@_W@0@DHQAH@Z 10011e2a f i libucrt:output.obj
 0001:00010e5b       ??0?$common_data@_W@__crt_stdio_output@@IAE@XZ 10011e5b f i libucrt:output.obj
 0001:00010ea5       ??0?$output_adapter_data@_WV?$string_output_adapter@_W@__crt_stdio_output@@@__crt_stdio_output@@IAE@ABV?$string_output_adapter@_W@1@_KQB_WQAU__crt_locale_pointers@@QAD@Z 10011ea5 f i libucrt:output.obj
 0001:00010ee1       ??0_LocaleUpdate@@QAE@QAU__crt_locale_pointers@@@Z 10011ee1 f i libucrt:output.obj
 0001:00010f64       ??1formatting_buffer@__crt_stdio_output@@QAE@XZ 10011f64 f i libucrt:output.obj
 0001:00010f7e       ??4?$__crt_unique_heap_ptr@DU__crt_internal_free_policy@@@@QAEAAV0@$$QAV0@@Z 10011f7e f i libucrt:output.obj
 0001:00010fb0       ?crop_zeroes@__crt_stdio_output@@YAXPADQAU__crt_locale_pointers@@@Z 10011fb0 f i libucrt:output.obj
 0001:00011031       ?find_next_state@?$output_processor@_WV?$string_output_adapter@_W@__crt_stdio_output@@V?$format_validation_base@_WV?$string_output_adapter@_W@__crt_stdio_output@@@2@@__crt_stdio_output@@ABE?AW4state@2@_WW432@@Z 10012031 f i libucrt:output.obj
 0001:00011070       ?force_decimal_point@__crt_stdio_output@@YAXPADQAU__crt_locale_pointers@@@Z 10012070 f i libucrt:output.obj
 0001:000110d5       ?parse_int_from_format_string@?$output_processor@_WV?$string_output_adapter@_W@__crt_stdio_output@@V?$format_validation_base@_WV?$string_output_adapter@_W@__crt_stdio_output@@@2@@__crt_stdio_output@@AAE_NQAH@Z 100120d5 f i libucrt:output.obj
 0001:0001114b       ?process@?$output_processor@_WV?$string_output_adapter@_W@__crt_stdio_output@@V?$format_validation_base@_WV?$string_output_adapter@_W@__crt_stdio_output@@@2@@__crt_stdio_output@@QAEHXZ 1001214b f i libucrt:output.obj
 0001:00011273       ?state_case_flag@?$output_processor@_WV?$string_output_adapter@_W@__crt_stdio_output@@V?$format_validation_base@_WV?$string_output_adapter@_W@__crt_stdio_output@@@2@@__crt_stdio_output@@AAE_NXZ 10012273 f i libucrt:output.obj
 0001:000112b0       ?state_case_normal@?$output_processor@_WV?$string_output_adapter@_W@__crt_stdio_output@@V?$format_validation_base@_WV?$string_output_adapter@_W@__crt_stdio_output@@@2@@__crt_stdio_output@@AAE_NXZ 100122b0 f i libucrt:output.obj
 0001:000112cf       ?state_case_normal_common@?$output_processor@_WV?$string_output_adapter@_W@__crt_stdio_output@@V?$format_validation_base@_WV?$string_output_adapter@_W@__crt_stdio_output@@@2@@__crt_stdio_output@@AAE_NXZ 100122cf f i libucrt:output.obj
 0001:000112ea       ?state_case_precision@?$output_processor@_WV?$string_output_adapter@_W@__crt_stdio_output@@V?$format_validation_base@_WV?$string_output_adapter@_W@__crt_stdio_output@@@2@@__crt_stdio_output@@AAE_NXZ 100122ea f i libucrt:output.obj
 0001:00011311       ?state_case_size@?$output_processor@_WV?$string_output_adapter@_W@__crt_stdio_output@@V?$format_validation_base@_WV?$string_output_adapter@_W@__crt_stdio_output@@@2@@__crt_stdio_output@@AAE_NXZ 10012311 f i libucrt:output.obj
 0001:00011489       ?state_case_type@?$output_processor@_WV?$string_output_adapter@_W@__crt_stdio_output@@V?$format_validation_base@_WV?$string_output_adapter@_W@__crt_stdio_output@@@2@@__crt_stdio_output@@AAE_NXZ 10012489 f i libucrt:output.obj
 0001:000116e6       ?state_case_width@?$output_processor@_WV?$string_output_adapter@_W@__crt_stdio_output@@V?$format_validation_base@_WV?$string_output_adapter@_W@__crt_stdio_output@@@2@@__crt_stdio_output@@AAE_NXZ 100126e6 f i libucrt:output.obj
 0001:00011720       ?to_integer_size@__crt_stdio_output@@YAIW4length_modifier@1@@Z 10012720 f i libucrt:output.obj
 0001:0001177c       ?type_case_Z@?$output_processor@_WV?$string_output_adapter@_W@__crt_stdio_output@@V?$format_validation_base@_WV?$string_output_adapter@_W@__crt_stdio_output@@@2@@__crt_stdio_output@@AAE_NXZ 1001277c f i libucrt:output.obj
 0001:000117d6       ?type_case_a@?$output_processor@_WV?$string_output_adapter@_W@__crt_stdio_output@@V?$format_validation_base@_WV?$string_output_adapter@_W@__crt_stdio_output@@@2@@__crt_stdio_output@@AAE_NXZ 100127d6 f i libucrt:output.obj
 0001:0001193d       ?type_case_c_tchar@?$output_processor@_WV?$string_output_adapter@_W@__crt_stdio_output@@V?$format_validation_base@_WV?$string_output_adapter@_W@__crt_stdio_output@@@2@@__crt_stdio_output@@AAE_N_W@Z 1001293d f i libucrt:output.obj
 0001:000119d3       ?type_case_integer@?$output_processor@_WV?$string_output_adapter@_W@__crt_stdio_output@@V?$format_validation_base@_WV?$string_output_adapter@_W@__crt_stdio_output@@@2@@__crt_stdio_output@@AAE_NI_N@Z 100129d3 f i libucrt:output.obj
 0001:00011b28       ?type_case_n@?$output_processor@_WV?$string_output_adapter@_W@__crt_stdio_output@@V?$format_validation_base@_WV?$string_output_adapter@_W@__crt_stdio_output@@@2@@__crt_stdio_output@@AAE_NXZ 10012b28 f i libucrt:output.obj
 0001:00011b9c       ?type_case_o@?$output_processor@_WV?$string_output_adapter@_W@__crt_stdio_output@@V?$format_validation_base@_WV?$string_output_adapter@_W@__crt_stdio_output@@@2@@__crt_stdio_output@@AAE_NXZ 10012b9c f i libucrt:output.obj
 0001:00011bbb       ?type_case_p@?$output_processor@_WV?$string_output_adapter@_W@__crt_stdio_output@@V?$format_validation_base@_WV?$string_output_adapter@_W@__crt_stdio_output@@@2@@__crt_stdio_output@@AAE_NXZ 10012bbb f i libucrt:output.obj
 0001:00011bd3       ?type_case_s@?$output_processor@_WV?$string_output_adapter@_W@__crt_stdio_output@@V?$format_validation_base@_WV?$string_output_adapter@_W@__crt_stdio_output@@@2@@__crt_stdio_output@@AAE_NXZ 10012bd3 f i libucrt:output.obj
 0001:00011c46       ?type_case_s_compute_narrow_string_length@?$output_processor@_WV?$string_output_adapter@_W@__crt_stdio_output@@V?$format_validation_base@_WV?$string_output_adapter@_W@__crt_stdio_output@@@2@@__crt_stdio_output@@ABEHH_W@Z 10012c46 f i libucrt:output.obj
 0001:00011c8d       ?validate@?$string_output_adapter@_W@__crt_stdio_output@@QBE_NXZ 10012c8d f i libucrt:output.obj
 0001:00011c8d       ?validate@?$c_string_character_source@_W@__crt_strtox@@QBE_NXZ 10012c8d f i libucrt:atox.obj
 0001:00011ca8       ?validate_and_update_state_at_end_of_format_string@?$format_validation_base@_WV?$string_output_adapter@_W@__crt_stdio_output@@@__crt_stdio_output@@IBE_NXZ 10012ca8 f i libucrt:output.obj
 0001:00011cca       ?write_character@?$string_output_adapter@_W@__crt_stdio_output@@QBE_N_WQAH@Z 10012cca f i libucrt:output.obj
 0001:00011d0f       ?write_stored_string_tchar@?$output_processor@_WV?$string_output_adapter@_W@__crt_stdio_output@@V?$format_validation_base@_WV?$string_output_adapter@_W@__crt_stdio_output@@@2@@__crt_stdio_output@@AAE_N_W@Z 10012d0f f i libucrt:output.obj
 0001:00011d9c       ?write_string@?$string_output_adapter@_W@__crt_stdio_output@@QBEXQB_WHQAHAAV__crt_deferred_errno_cache@@@Z 10012d9c f i libucrt:output.obj
 0001:00011e0d       ___acrt_locale_get_ctype_array_value 10012e0d f i libucrt:output.obj
 0001:00011e2f       ___stdio_common_vswprintf_s 10012e2f f   libucrt:output.obj
 0001:00011e53       __seh_filter_dll           10012e53 f   libucrt:exception_filter.obj
 0001:00011e73       __seh_filter_exe           10012e73 f   libucrt:exception_filter.obj
 0001:00012241       ___acrt_initialize_thread_local_exit_callback 10013241 f   libucrt:exit.obj
 0001:00012250       __cexit                    10013250 f   libucrt:exit.obj
 0001:0001225f       __exit                     1001325f f   libucrt:exit.obj
 0001:00012275       __is_c_termination_complete 10013275 f   libucrt:exit.obj
 0001:00012526       ___acrt_allocate_buffer_for_argv 10013526 f   libucrt:argv_parsing.obj
 0001:00012575       __configure_narrow_argv    10013575 f   libucrt:argv_parsing.obj
 0001:000126d2       ??$uninitialize@A6AXAAPAPAD@Z@?$dual_state_global@PAPAD@__crt_state_management@@QAEXA6AXAAPAPAD@Z@Z 100136d2 f i libucrt:environment_initialization.obj
 0001:000126d2       ??$uninitialize@A6AXAAPAPA_W@Z@?$dual_state_global@PAPA_W@__crt_state_management@@QAEXA6AXAAPAPA_W@Z@Z 100136d2 f i libucrt:environment_initialization.obj
 0001:00012731       ___dcrt_uninitialize_environments_nolock 10013731 f   libucrt:environment_initialization.obj
 0001:00012768       __initialize_narrow_environment 10013768 f   libucrt:environment_initialization.obj
 0001:00012823       ??$__crt_fast_encode_pointer@PAP6AXXZ@@YAPAP6AXXZQAP6AXXZ@Z 10013823 f i libucrt:onexit.obj
 0001:00012823       ??$__crt_fast_encode_pointer@PAX@@YAPAXQAX@Z 10013823 f i libucrt:initialization.obj
 0001:00012823       ??$__crt_fast_encode_pointer@P6AHXZ@@YAP6AHXZQ6AHXZ@Z 10013823 f i libucrt:onexit.obj
 0001:00012a45       __crt_atexit               10013a45 f   libucrt:onexit.obj
 0001:00012a5b       __execute_onexit_table     10013a5b f   libucrt:onexit.obj
 0001:00012a88       __initialize_onexit_table  10013a88 f   libucrt:onexit.obj
 0001:00012ab1       __register_onexit_function 10013ab1 f   libucrt:onexit.obj
 0001:00012b0b       ___acrt_uninitialize_command_line 10013b0b f   libucrt:argv_data.obj
 0001:00012be2       ___acrt_initialize         10013be2 f   libucrt:initialization.obj
 0001:00012bf4       ___acrt_thread_attach      10013bf4 f   libucrt:initialization.obj
 0001:00012bff       ___acrt_thread_detach      10013bff f   libucrt:initialization.obj
 0001:00012c07       ___acrt_uninitialize       10013c07 f   libucrt:initialization.obj
 0001:00012c37       ___acrt_uninitialize_critical 10013c37 f   libucrt:initialization.obj
 0001:00012c49       __initterm                 10013c49 f   libucrt:initterm.obj
 0001:00012c8e       __initterm_e               10013c8e f   libucrt:initterm.obj
 0001:00012cbc       ___acrt_initialize_new_handler 10013cbc f   libucrt:new_handler.obj
 0001:00012ccb       __callnewh                 10013ccb f   libucrt:new_handler.obj
 0001:00012cf8       __query_new_handler        10013cf8 f   libucrt:new_handler.obj
 0001:00012d54       _terminate                 10013d54 f   libucrt:terminate.obj
 0001:00012d90       _abort                     10013d90 f   libucrt:abort.obj
 0001:00012dd4       _strcpy_s                  10013dd4 f   libucrt:strcpy_s.obj
 0001:00012e2e       ??$is_overflow_condition@K@__crt_strtox@@YA_NIK@Z 10013e2e f i libucrt:atox.obj
 0001:00012e5f       ??$parse_integer@KV?$c_string_character_source@_W@__crt_strtox@@@__crt_strtox@@YAKQAU__crt_locale_pointers@@V?$c_string_character_source@_W@0@H_N@Z 10013e5f f i libucrt:atox.obj
 0001:00013467       ?unget@?$c_string_character_source@_W@__crt_strtox@@QAEX_W@Z 10014467 f i libucrt:atox.obj
 0001:000134a0       _strncmp                   100144a0 f   libucrt:strncmp.obj
 0001:00013518       _wcsncmp                   10014518 f   libucrt:wcsncmp.obj
 0001:00013552       __free_base                10014552 f   libucrt:free_base.obj
 0001:000138ca       ___acrt_freeptd            100148ca f   libucrt:per_thread_data.obj
 0001:000138f6       ___acrt_getptd             100148f6 f   libucrt:per_thread_data.obj
 0001:000139b3       ___acrt_getptd_head        100149b3 f   libucrt:per_thread_data.obj
 0001:00013a4d       ___acrt_getptd_noexit      10014a4d f   libucrt:per_thread_data.obj
 0001:00013b02       ___acrt_initialize_ptd     10014b02 f   libucrt:per_thread_data.obj
 0001:00013b2e       ___acrt_uninitialize_ptd   10014b2e f   libucrt:per_thread_data.obj
 0001:00013b48       __calloc_base              10014b48 f   libucrt:calloc_base.obj
 0001:00013ba5       __malloc_base              10014ba5 f   libucrt:malloc_base.obj
 0001:00013bf3       __msize_base               10014bf3 f   libucrt:msize.obj
 0001:00013c26       __realloc_base             10014c26 f   libucrt:realloc_base.obj
 0001:00013e27       ___acrt_AppPolicyGetProcessTerminationMethodInternal@4 10014e27 f   libucrt:winapi_thunks.obj
 0001:00013e67       ___acrt_AreFileApisANSI@0  10014e67 f   libucrt:winapi_thunks.obj
 0001:00013e86       ___acrt_FlsAlloc@4         10014e86 f   libucrt:winapi_thunks.obj
 0001:00013ec5       ___acrt_FlsFree@4          10014ec5 f   libucrt:winapi_thunks.obj
 0001:00013f04       ___acrt_FlsGetValue@4      10014f04 f   libucrt:winapi_thunks.obj
 0001:00013f43       ___acrt_FlsSetValue@8      10014f43 f   libucrt:winapi_thunks.obj
 0001:00013f85       ___acrt_InitializeCriticalSectionEx@12 10014f85 f   libucrt:winapi_thunks.obj
 0001:00013fd0       ___acrt_LCMapStringEx@36   10014fd0 f   libucrt:winapi_thunks.obj
 0001:0001402d       ___acrt_LocaleNameToLCID@8 1001502d f   libucrt:winapi_thunks.obj
 0001:0001405e       ___acrt_SetThreadStackGuarantee@4 1001505e f   libucrt:winapi_thunks.obj
 0001:00014099       ___acrt_initialize_winapi_thunks 10015099 f   libucrt:winapi_thunks.obj
 0001:000140c4       ___acrt_uninitialize_winapi_thunks 100150c4 f   libucrt:winapi_thunks.obj
 0001:000140fa       ??$make_c_string_character_source@_WPAPA_W@__crt_strtox@@YA?AV?$c_string_character_source@_W@0@QB_WQAPA_W@Z 100150fa f i libucrt:strtox.obj
 0001:00014115       _wcstol                    10015115 f   libucrt:strtox.obj
 0001:0001413f       __mbtowc_l                 1001513f f   libucrt:mbtowc.obj
 0001:00014281       _mbtowc                    10015281 f   libucrt:mbtowc.obj
 0001:0001429b       _wcsnlen                   1001529b f   libucrt:strnlen.obj
 0001:0001444b       ___acrt_update_locale_info 1001544b f   libucrt:locale_update.obj
 0001:00014478       ___acrt_update_multibyte_info 10015478 f   libucrt:locale_update.obj
 0001:000144a5       ?__acrt_fp_classify@@YA?AW4__acrt_fp_class@@ABN@Z 100154a5 f i libucrt:cvt.obj
 0001:00014e57       ___acrt_fp_format          10015e57 f   libucrt:cvt.obj
 0001:00014fb5       __fileno                   10015fb5 f   libucrt:fileno.obj
 0001:00014fdc       ___acrt_initialize_stdio   10015fdc f   libucrt:_file.obj
 0001:000150a4       ___acrt_uninitialize_stdio 100160a4 f   libucrt:_file.obj
 0001:000150f0       __lock_file                100160f0 f   libucrt:_file.obj
 0001:00015104       __unlock_file              10016104 f   libucrt:_file.obj
 0001:00015118       __get_printf_count_output  10016118 f   libucrt:printf_count_output.obj
 0001:0001519b       ___acrt_set_locale_changed 1001619b f   libucrt:wsetlocale.obj
 0001:000151a6       ___acrt_uninitialize_locale 100161a6 f   libucrt:wsetlocale.obj
 0001:00015337       ___acrt_initialize_lowio   10016337 f   libucrt:ioinit.obj
 0001:00015397       ___acrt_uninitialize_lowio 10016397 f   libucrt:ioinit.obj
 0001:000153c3       ___acrt_initialize_locks   100163c3 f   libucrt:locks.obj
 0001:00015404       ___acrt_lock               10016404 f   libucrt:locks.obj
 0001:0001541b       ___acrt_uninitialize_locks 1001641b f   libucrt:locks.obj
 0001:0001544c       ___acrt_unlock             1001644c f   libucrt:locks.obj
 0001:00015463       ___acrt_get_process_end_policy 10016463 f   libucrt:win_policies.obj
 0001:0001562d       ??$__acrt_mbs_to_wcs_cp@U__crt_win32_buffer_internal_dynamic_resizing@@@@YAHQBDAAV?$__crt_win32_buffer@_WU__crt_win32_buffer_internal_dynamic_resizing@@@@I@Z 1001662d f i libucrt:argv_wildcards.obj
 0001:00015b41       ?__acrt_get_utf8_acp_compatibility_codepage@@YAIXZ 10016b41 f i libucrt:argv_wildcards.obj
 0001:00015b80       ?_deallocate@?$__crt_win32_buffer@_WU__crt_win32_buffer_internal_dynamic_resizing@@@@AAEXXZ 10016b80 f i libucrt:argv_wildcards.obj
 0001:00015b80       ?_deallocate@?$__crt_win32_buffer@DU__crt_win32_buffer_internal_dynamic_resizing@@@@AAEXXZ 10016b80 f i libucrt:argv_wildcards.obj
 0001:00015b9a       ?allocate@?$__crt_win32_buffer@DU__crt_win32_buffer_internal_dynamic_resizing@@@@QAEHI@Z 10016b9a f i libucrt:argv_wildcards.obj
 0001:00015bd6       ?allocate@?$__crt_win32_buffer@_WU__crt_win32_buffer_internal_dynamic_resizing@@@@QAEHI@Z 10016bd6 f i libucrt:argv_wildcards.obj
 0001:00015c15       ?allocate@__crt_win32_buffer_internal_dynamic_resizing@@SAHQAPAXIABV__crt_win32_buffer_empty_debug_info@@@Z 10016c15 f i libucrt:argv_wildcards.obj
 0001:00015cbb       ___acrt_expand_narrow_argv_wildcards 10016cbb f   libucrt:argv_wildcards.obj
 0001:00015d8d       ?allocate@?$__crt_win32_buffer@DU__crt_win32_buffer_no_resizing@@@@QAEHI@Z 10016d8d f i libucrt:getmodulefilenamea.obj
 0001:00015db4       ?set_to_nullptr@?$__crt_win32_buffer@DU__crt_win32_buffer_no_resizing@@@@QAEXXZ 10016db4 f i libucrt:getmodulefilenamea.obj
 0001:00015dc8       ___acrt_GetModuleFileNameA 10016dc8 f   libucrt:getmodulefilenamea.obj
 0001:00016381       ___acrt_initialize_multibyte 10017381 f   libucrt:mbctype.obj
 0001:000163c9       ___acrt_update_thread_multibyte_data 100173c9 f   libucrt:mbctype.obj
 0001:000163dc       __setmbcp_nolock           100173dc f   libucrt:mbctype.obj
 0001:000166a7       __ismbblead                100176a7 f   libucrt:ismbbyte.obj
 0001:000166bf       ___acrt_initialize_command_line 100176bf f   libucrt:argv_data.obj
 0001:000166d8       ___acrt_MultiByteToWideChar 100176d8 f   libucrt:multibytetowidechar.obj
 0001:00016754       ___acrt_WideCharToMultiByte 10017754 f   libucrt:widechartomultibyte.obj
 0001:00016842       ___dcrt_get_narrow_environment_from_os 10017842 f   libucrt:get_environment_from_os.obj
 0001:000168c6       ___acrt_initialize_heap    100178c6 f   libucrt:heap_handle.obj
 0001:000168d7       ___acrt_uninitialize_heap  100178d7 f   libucrt:heap_handle.obj
 0001:000168e1       ___acrt_execute_initializers 100178e1 f   libucrt:shared_initialization.obj
 0001:00016949       ___acrt_execute_uninitializers 10017949 f   libucrt:shared_initialization.obj
 0001:00016a48       ___acrt_get_sigabrt_handler 10017a48 f   libucrt:signal.obj
 0001:00016a6f       ___acrt_initialize_signal_handlers 10017a6f f   libucrt:signal.obj
 0001:00016a8d       _raise                     10017a8d f   libucrt:signal.obj
 0001:00016c80       ___acrt_has_user_matherr   10017c80 f   libucrt:matherr.obj
 0001:00016c98       ___acrt_initialize_user_matherr 10017c98 f   libucrt:matherr.obj
 0001:00016ca7       ___acrt_invoke_user_matherr 10017ca7 f   libucrt:matherr.obj
 0001:00016eb6       ___acrt_stdio_flush_nolock 10017eb6 f   libucrt:fflush.obj
 0001:00016f1b       __fflush_nolock            10017f1b f   libucrt:fflush.obj
 0001:00016f63       __flushall                 10017f63 f   libucrt:fflush.obj
 0001:00016f6c       ___pctype_func             10017f6c f   libucrt:ctype.obj
 0001:00016f90       _iswctype                  10017f90 f   libucrt:iswctype.obj
 0001:00016ff9       ___acrt_add_locale_ref     10017ff9 f   libucrt:locale_refcounting.obj
 0001:00017076       ___acrt_free_locale        10018076 f   libucrt:locale_refcounting.obj
 0001:000171be       ___acrt_locale_add_lc_time_reference 100181be f   libucrt:locale_refcounting.obj
 0001:000171e7       ___acrt_locale_free_lc_time_if_unreferenced 100181e7 f   libucrt:locale_refcounting.obj
 0001:00017218       ___acrt_locale_release_lc_time_reference 10018218 f   libucrt:locale_refcounting.obj
 0001:00017241       ___acrt_release_locale_ref 10018241 f   libucrt:locale_refcounting.obj
 0001:000172c2       ___acrt_update_thread_locale_data 100182c2 f   libucrt:locale_refcounting.obj
 0001:00017343       __updatetlocinfoEx_nolock  10018343 f   libucrt:locale_refcounting.obj
 0001:00017393       __query_new_mode           10018393 f   libucrt:new_mode.obj
 0001:000173ea       ___acrt_DownlevelLocaleNameToLCID 100183ea f   libucrt:lcidtoname_downlevel.obj
 0001:00017416       __isleadbyte_l             10018416 f i libucrt:_wctype.obj
 0001:0001747c       ?__mbrtowc_utf8@__crt_mbstring@@YAIPA_WPBDIPAU_Mbstatet@@@Z 1001847c f   libucrt:mbrtowc.obj
 0001:000174bc       ?__mbsrtowcs_utf8@__crt_mbstring@@YAIPA_WPAPBDIPAU_Mbstatet@@@Z 100184bc f   libucrt:mbrtowc.obj
 0001:000175b7       ?return_illegal_sequence@__crt_mbstring@@YAIPAU_Mbstatet@@@Z 100185b7 f i libucrt:c32rtomb.obj
 0001:00017641       ___acrt_fp_strflt_to_string 10018641 f   libucrt:_fptostr.obj
 0001:00017720       ?divide@__crt_strtox@@YA_KAAUbig_integer@1@ABU21@@Z 10018720 f i libucrt:cfout.obj
 0001:00017bb8       ___acrt_fltout             10018bb8 f   libucrt:cfout.obj
 0001:000190bf       _fegetround                1001a0bf f   libucrt:fegetround.obj
 0001:000190cc       __fcloseall                1001a0cc f   libucrt:closeall.obj
 0001:00019177       ___acrt_stdio_free_buffer_nolock 1001a177 f   libucrt:_freebuf.obj
 0001:000191b7       __isatty                   1001a1b7 f   libucrt:isatty.obj
 0001:0001920d       ___acrt_locale_free_monetary 1001a20d f   libucrt:initmon.obj
 0001:0001930b       ___acrt_locale_free_numeric 1001a30b f   libucrt:initnum.obj
 0001:000193ac       ___acrt_locale_free_time   1001a3ac f   libucrt:inittime.obj
 0001:00019490       ___acrt_GetStringTypeA     1001a490 f   libucrt:getstringtypea.obj
 0001:00019593       __freea_crt                1001a593 f i libucrt:getstringtypea.obj
 0001:000195b3       ___acrt_lowio_create_handle_array 1001a5b3 f   libucrt:osfinfo.obj
 0001:0001962e       ___acrt_lowio_destroy_handle_array 1001a62e f   libucrt:osfinfo.obj
 0001:00019663       ___acrt_lowio_ensure_fh_exists 1001a663 f   libucrt:osfinfo.obj
 0001:00019701       ___acrt_lowio_lock_fh      1001a701 f   libucrt:osfinfo.obj
 0001:00019724       ___acrt_lowio_unlock_fh    1001a724 f   libucrt:osfinfo.obj
 0001:00019747       __free_osfhnd              1001a747 f   libucrt:osfinfo.obj
 0001:000197d8       __get_osfhandle            1001a7d8 f   libucrt:osfinfo.obj
 0001:00019850       _qsort                     1001a850 f   libucrt:qsort.obj
 0001:00019df1       _strncpy_s                 1001adf1 f   libucrt:strncpy_s.obj
 0001:00019e00       _strpbrk                   1001ae00 f   libucrt:strpbrk.obj
 0001:00019e40       __mbsdec                   1001ae40 f   libucrt:mbsdec.obj
 0001:00019e57       __mbsdec_l                 1001ae57 f   libucrt:mbsdec.obj
 0001:0001a0ce       ___acrt_LCMapStringA       1001b0ce f   libucrt:lcmapstringa.obj
 0001:0001a1c8       __commit                   1001b1c8 f   libucrt:commit.obj
 0001:0001a9c0       __write                    1001b9c0 f   libucrt:write.obj
 0001:0001aab2       __write_nolock             1001bab2 f   libucrt:write.obj
 0001:0001ac8c       ___acrt_GetStringTypeW     1001bc8c f   libucrt:getstringtypew.obj
 0001:0001aca5       ___ascii_wcsnicmp          1001bca5 f   libucrt:wcsnicmp.obj
 0001:0001acf4       ?__mbrtoc32_utf8@__crt_mbstring@@YAIPA_UPBDIPAU_Mbstatet@@@Z 1001bcf4 f   libucrt:mbrtoc32.obj
 0001:0001ae9b       __controlfp_s              1001be9b f   libucrt:contrlfp.obj
 0001:0001aefa       _fegetenv                  1001befa f   libucrt:fegetenv.obj
 0001:0001af17       _fesetenv                  1001bf17 f   libucrt:fesetenv.obj
 0001:0001af62       _feholdexcept              1001bf62 f   libucrt:feholdexcept.obj
 0001:0001afb0       __CIlog10                  1001bfb0 f   libucrt:log10_impl.obj
 0001:0001afeb       __CIlog10_default          1001bfeb f   libucrt:log10_impl.obj
 0001:0001afff       __log10_default            1001bfff     libucrt:log10_impl.obj
 0001:0001b0c0       _ceil                      1001c0c0 f   libucrt:ceil_pentium4.obj
 0001:0001b100       __ceil_pentium4            1001c100 f   libucrt:ceil_pentium4.obj
 0001:0001b4fa       ___acrt_fenv_get_common_round_control 1001c4fa f   libucrt:_fenvutils.obj
 0001:0001b51c       ___acrt_fenv_get_control   1001c51c f   libucrt:_fenvutils.obj
 0001:0001b59c       ___acrt_fenv_get_status    1001c59c f   libucrt:_fenvutils.obj
 0001:0001b654       ___acrt_fenv_set_control   1001c654 f   libucrt:_fenvutils.obj
 0001:0001b6bc       ___acrt_fenv_set_status    1001c6bc f   libucrt:_fenvutils.obj
 0001:0001b82f       __lseeki64_nolock          1001c82f f   libucrt:lseek.obj
 0001:0001b84a       __fclose_nolock            1001c84a f   libucrt:fclose.obj
 0001:0001b8c1       _fclose                    1001c8c1 f   libucrt:fclose.obj
 0001:0001b945       __query_app_type           1001c945 f   libucrt:report_runtime_error.obj
 0001:0001b94b       ___strncnt                 1001c94b f   libucrt:strncnt.obj
 0001:0001b967       __putwch_nolock            1001c967 f   libucrt:putwch.obj
 0001:0001ba40       __clearfp                  1001ca40 f   libucrt:ieee87.obj
 0001:0001bb1e       __control87                1001cb1e f   libucrt:ieee87.obj
 0001:0001bebd       ___acrt_initialize_sse2    1001cebd f   libucrt:mathfcns.obj
 0001:0001bed0       __CIlog10_pentium4         1001ced0 f   libucrt:log10_pentium4.obj
 0001:0001bee8       __log10_pentium4           1001cee8     libucrt:log10_pentium4.obj
 0001:0001c180       __fFEXP                    1001d180 f   libucrt:87tran.obj
 0001:0001c1d7       __rtinfpopse               1001d1d7     libucrt:87tran.obj
 0001:0001c1d9       __rtinfnpopse              1001d1d9     libucrt:87tran.obj
 0001:0001c1e9       __fFLN                     1001d1e9     libucrt:87tran.obj
 0001:0001c29e       __rtinfpop                 1001d29e     libucrt:87tran.obj
 0001:0001c2a0       __rtinfnpop                1001d2a0     libucrt:87tran.obj
 0001:0001c2b0       __rtforexpinf              1001d2b0 f   libucrt:87tran.obj
 0001:0001c2bd       __ffexpm1                  1001d2bd     libucrt:87tran.obj
 0001:0001c370       __trandisp1                1001d370 f   libucrt:87disp.obj
 0001:0001c3e5       __trandisp2                1001d3e5 f   libucrt:87disp.obj
 0001:0001c47f       __rttospopde               1001d47f     libucrt:87disp.obj
 0001:0001c484       __rttospop                 1001d484     libucrt:87disp.obj
 0001:0001c490       __rtnospop                 1001d490 f   libucrt:87disp.obj
 0001:0001c4a0       __rttosnpop                1001d4a0 f   libucrt:87disp.obj
 0001:0001c4a1       __rtnospopde               1001d4a1     libucrt:87disp.obj
 0001:0001c4a8       __rtzeropop                1001d4a8     libucrt:87disp.obj
 0001:0001c4aa       __rtzeronpop               1001d4aa     libucrt:87disp.obj
 0001:0001c4b0       __rtzerospop               1001d4b0 f   libucrt:87disp.obj
 0001:0001c4bd       __rtonepop                 1001d4bd     libucrt:87disp.obj
 0001:0001c4c0       __rtonenpop                1001d4c0 f   libucrt:87disp.obj
 0001:0001c4d0       __tosnan1                  1001d4d0 f   libucrt:87disp.obj
 0001:0001c500       __nosnan2                  1001d500 f   libucrt:87disp.obj
 0001:0001c510       __tosnan2                  1001d510 f   libucrt:87disp.obj
 0001:0001c540       __nan2                     1001d540 f   libucrt:87disp.obj
 0001:0001c580       __rtindfpop                1001d580 f   libucrt:87disp.obj
 0001:0001c582       __rtindfnpop               1001d582     libucrt:87disp.obj
 0001:0001c593       __rttosnpopde              1001d593     libucrt:87disp.obj
 0001:0001c5a0       __rtatan2inf               1001d5a0 f   libucrt:87disp.obj
 0001:0001c5bd       __rtchsifneg               1001d5bd     libucrt:87disp.obj
 0001:0001c5d0       __twoToTOS                 1001d5d0 f   libucrt:common.obj
 0001:0001c5e5       __load_CW                  1001d5e5 f   libucrt:common.obj
 0001:0001c5fc       __convertTOStoQNaN         1001d5fc f   libucrt:common.obj
 0001:0001c615       __fload_withFB             1001d615 f   libucrt:common.obj
 0001:0001c658       __checkTOS_withFB          1001d658 f   libucrt:common.obj
 0001:0001c66e       __fast_exit                1001d66e f   libucrt:common.obj
 0001:0001c67b       __math_exit                1001d67b f   libucrt:common.obj
 0001:0001c6a5       __check_overflow_exit      1001d6a5 f   libucrt:common.obj
 0001:0001c6b9       __check_range_exit         1001d6b9 f   libucrt:common.obj
 0001:0001c760       __startTwoArgErrorHandling 1001d760 f   libucrt:genexcep.obj
 0001:0001c777       __startOneArgErrorHandling 1001d777 f   libucrt:genexcep.obj
 0001:0001c7b3       ___libm_error_support      1001d7b3 f   libucrt:libm_error.obj
 0001:0001c9a7       __ceil_default             1001d9a7 f   libucrt:ceil.obj
 0001:0001cae8       __close                    1001dae8 f   libucrt:close.obj
 0001:0001cb75       __close_nolock             1001db75 f   libucrt:close.obj
 0001:0001cc11       ?__acrt_stdio_free_stream@@YAXV__crt_stdio_stream@@@Z 1001dc11 f   libucrt:stream.obj
 0001:0001cc50       ___ascii_strnicmp          1001dc50 f   libucrt:_strnicm.obj
 0001:0001ccd0       ___dcrt_lowio_ensure_console_output_initialized 1001dcd0 f   libucrt:initcon.obj
 0001:0001ccef       ___dcrt_terminate_console_output 1001dcef f   libucrt:initcon.obj
 0001:0001cd06       ___dcrt_write_console      1001dd06 f   libucrt:initcon.obj
 0001:0001cd5b       ___set_fpsr_sse2           1001dd5b f   libucrt:fpctrl.obj
 0001:0001cddb       __clrfp                    1001dddb f   libucrt:fpctrl.obj
 0001:0001cdec       __ctrlfp                   1001ddec f   libucrt:fpctrl.obj
 0001:0001ce16       __set_statfp               1001de16 f   libucrt:fpctrl.obj
 0001:0001ce6f       __statfp                   1001de6f f   libucrt:fpctrl.obj
 0001:0001ce7f       __d_inttype                1001de7f f   libucrt:powhlp.obj
 0001:0001cee7       __powhlp                   1001dee7 f   libucrt:powhlp.obj
 0001:0001d012       __87except                 1001e012 f   libucrt:87except.obj
 0001:0001d11c       __frnd                     1001e11c f   libucrt:frnd.obj
 0001:0001d130       __errcode                  1001e130 f   libucrt:fpexcept.obj
 0001:0001d164       __except1                  1001e164 f   libucrt:fpexcept.obj
 0001:0001d232       __handle_exc               1001e232 f   libucrt:fpexcept.obj
 0001:0001d41d       __raise_exc                1001e41d f   libucrt:fpexcept.obj
 0001:0001d440       __raise_exc_ex             1001e440 f   libucrt:fpexcept.obj
 0001:0001d736       __set_errno_from_matherr   1001e736 f   libucrt:fpexcept.obj
 0001:0001d765       __umatherr                 1001e765 f   libucrt:fpexcept.obj
 0001:0001d805       __decomp                   1001e805 f   libucrt:util.obj
 0001:0001d8d7       __set_exp                  1001e8d7 f   libucrt:util.obj
 0001:0001d904       __sptype                   1001e904 f   libucrt:util.obj
 0001:0001d962       __fpclass                  1001e962 f   libucrt:ieeemisc.obj
 0001:0001da06       _IsProcessorFeaturePresent@4 1001ea06 f   kernel32:KERNEL32.dll
 0001:0001da10       __FindPESection            1001ea10 f   LIBCMT:pesect.obj
 0001:0001da60       __IsNonwritableInCurrentImage 1001ea60 f   LIBCMT:pesect.obj
 0001:0001db20       __ValidateImageBase        1001eb20 f   LIBCMT:pesect.obj
 0001:0001db53       __EH_prolog3_catch         1001eb53 f   LIBCMT:ehprolg3.obj
 0001:0001db90       __aulldvrm                 1001eb90 f   LIBCMT:ulldvrm.obj
 0001:0001dc30       __allmul                   1001ec30 f   LIBCMT:llmul.obj
 0001:0001dc70       __alldvrm                  1001ec70 f   LIBCMT:lldvrm.obj
 0001:0001dd50       __allshl                   1001ed50 f   LIBCMT:llshl.obj
 0001:0001dd70       __aullshr                  1001ed70 f   LIBCMT:ullshr.obj
 0001:0001dd90       __ftol2_sse_excpt          1001ed90     LIBCMT:ftol2.obj
 0001:0001dd90       __ftol2_sse                1001ed90     LIBCMT:ftol2.obj
 0001:0001dd90       __ftoi2                    1001ed90 f   LIBCMT:ftol2.obj
 0001:0001de10       __ftoui2                   1001ee10 f   LIBCMT:ftol2.obj
 0001:0001dec0       __ftol2                    1001eec0 f   LIBCMT:ftol2.obj
 0001:0001df70       __ftoul2                   1001ef70 f   LIBCMT:ftol2.obj
 0001:0001e030       _strrchr                   1001f030 f   libvcruntime:strrchr.obj
 0001:0001e170       _strchr                    1001f170 f   libvcruntime:strchr.obj
 0001:0001e1de       ___from_strstr_to_strchr   1001f1de     libvcruntime:strchr.obj
 0001:0001e29b       __filter_x86_sse2_floating_point_exception 1001f29b f   LIBCMT:x86_exception_filter.obj
 0001:0001e29b       __filter_x86_sse2_floating_point_exception_default 1001f29b f   LIBCMT:x86_exception_filter.obj
 0002:00000000       __imp__RegQueryValueExW@24 10020000     advapi32:ADVAPI32.dll
 0002:00000004       __imp__RegSetValueExW@24   10020004     advapi32:ADVAPI32.dll
 0002:00000008       __imp__RegQueryInfoKeyW@48 10020008     advapi32:ADVAPI32.dll
 0002:0000000c       __imp__RegOpenKeyExW@20    1002000c     advapi32:ADVAPI32.dll
 0002:00000010       __imp__RegEnumKeyExW@32    10020010     advapi32:ADVAPI32.dll
 0002:00000014       __imp__RegDeleteValueW@8   10020014     advapi32:ADVAPI32.dll
 0002:00000018       __imp__RegDeleteKeyW@8     10020018     advapi32:ADVAPI32.dll
 0002:0000001c       __imp__RegCreateKeyExW@36  1002001c     advapi32:ADVAPI32.dll
 0002:00000020       __imp__RegCloseKey@4       10020020     advapi32:ADVAPI32.dll
 0002:00000024       \177ADVAPI32_NULL_THUNK_DATA 10020024     advapi32:ADVAPI32.dll
 0002:00000028       __imp__GetObjectW@12       10020028     gdi32:GDI32.dll
 0002:0000002c       __imp__SelectObject@8      1002002c     gdi32:GDI32.dll
 0002:00000030       __imp__DeleteObject@4      10020030     gdi32:GDI32.dll
 0002:00000034       __imp__CreateCompatibleDC@4 10020034     gdi32:GDI32.dll
 0002:00000038       __imp__BitBlt@36           10020038     gdi32:GDI32.dll
 0002:0000003c       __imp__SetWindowOrgEx@16   1002003c     gdi32:GDI32.dll
 0002:00000040       __imp__SetWindowExtEx@16   10020040     gdi32:GDI32.dll
 0002:00000044       __imp__SetViewportOrgEx@16 10020044     gdi32:GDI32.dll
 0002:00000048       __imp__LPtoDP@12           10020048     gdi32:GDI32.dll
 0002:0000004c       __imp__SetMapMode@8        1002004c     gdi32:GDI32.dll
 0002:00000050       __imp__SaveDC@4            10020050     gdi32:GDI32.dll
 0002:00000054       __imp__RestoreDC@8         10020054     gdi32:GDI32.dll
 0002:00000058       __imp__GetDeviceCaps@8     10020058     gdi32:GDI32.dll
 0002:0000005c       __imp__DeleteMetaFile@4    1002005c     gdi32:GDI32.dll
 0002:00000060       __imp__DeleteDC@4          10020060     gdi32:GDI32.dll
 0002:00000064       __imp__CreateRectRgnIndirect@4 10020064     gdi32:GDI32.dll
 0002:00000068       __imp__CreateMetaFileW@4   10020068     gdi32:GDI32.dll
 0002:0000006c       __imp__CreateDCW@16        1002006c     gdi32:GDI32.dll
 0002:00000070       __imp__CloseMetaFile@4     10020070     gdi32:GDI32.dll
 0002:00000074       \177GDI32_NULL_THUNK_DATA  10020074     gdi32:GDI32.dll
 0002:00000078       __imp__CloseHandle@4       10020078     kernel32:KERNEL32.dll
 0002:0000007c       __imp__SetEvent@4          1002007c     kernel32:KERNEL32.dll
 0002:00000080       __imp__CreateMutexW@12     10020080     kernel32:KERNEL32.dll
 0002:00000084       __imp__CreateEventW@16     10020084     kernel32:KERNEL32.dll
 0002:00000088       __imp__GetCurrentProcessId@0 10020088     kernel32:KERNEL32.dll
 0002:0000008c       __imp__CreateFileW@28      1002008c     kernel32:KERNEL32.dll
 0002:00000090       __imp__GetConsoleMode@8    10020090     kernel32:KERNEL32.dll
 0002:00000094       __imp__GetConsoleOutputCP@0 10020094     kernel32:KERNEL32.dll
 0002:00000098       __imp__WriteFile@20        10020098     kernel32:KERNEL32.dll
 0002:0000009c       __imp__FlushFileBuffers@4  1002009c     kernel32:KERNEL32.dll
 0002:000000a0       __imp__SetStdHandle@8      100200a0     kernel32:KERNEL32.dll
 0002:000000a4       __imp__GetStringTypeW@16   100200a4     kernel32:KERNEL32.dll
 0002:000000a8       __imp__SetFilePointerEx@20 100200a8     kernel32:KERNEL32.dll
 0002:000000ac       __imp__FreeEnvironmentStringsW@4 100200ac     kernel32:KERNEL32.dll
 0002:000000b0       __imp__GetEnvironmentStringsW@0 100200b0     kernel32:KERNEL32.dll
 0002:000000b4       __imp__lstrcmpiW@8         100200b4     kernel32:KERNEL32.dll
 0002:000000b8       __imp__GetCommandLineA@0   100200b8     kernel32:KERNEL32.dll
 0002:000000bc       __imp__GetCPInfo@8         100200bc     kernel32:KERNEL32.dll
 0002:000000c0       __imp__GetOEMCP@0          100200c0     kernel32:KERNEL32.dll
 0002:000000c4       __imp__GetACP@0            100200c4     kernel32:KERNEL32.dll
 0002:000000c8       __imp__IsValidCodePage@4   100200c8     kernel32:KERNEL32.dll
 0002:000000cc       __imp__FindNextFileW@8     100200cc     kernel32:KERNEL32.dll
 0002:000000d0       __imp__FindFirstFileExW@24 100200d0     kernel32:KERNEL32.dll
 0002:000000d4       __imp__FindClose@4         100200d4     kernel32:KERNEL32.dll
 0002:000000d8       __imp__GetFileType@4       100200d8     kernel32:KERNEL32.dll
 0002:000000dc       __imp__GetStdHandle@4      100200dc     kernel32:KERNEL32.dll
 0002:000000e0       __imp__LCMapStringW@24     100200e0     kernel32:KERNEL32.dll
 0002:000000e4       __imp__HeapReAlloc@16      100200e4     kernel32:KERNEL32.dll
 0002:000000e8       __imp__HeapSize@12         100200e8     kernel32:KERNEL32.dll
 0002:000000ec       __imp__MulDiv@12           100200ec     kernel32:KERNEL32.dll
 0002:000000f0       __imp__GlobalLock@4        100200f0     kernel32:KERNEL32.dll
 0002:000000f4       __imp__GlobalUnlock@4      100200f4     kernel32:KERNEL32.dll
 0002:000000f8       __imp__GlobalAlloc@8       100200f8     kernel32:KERNEL32.dll
 0002:000000fc       __imp__FindResourceW@12    100200fc     kernel32:KERNEL32.dll
 0002:00000100       __imp__SizeofResource@8    10020100     kernel32:KERNEL32.dll
 0002:00000104       __imp__LoadResource@8      10020104     kernel32:KERNEL32.dll
 0002:00000108       __imp__LoadLibraryExW@12   10020108     kernel32:KERNEL32.dll
 0002:0000010c       __imp__GetProcAddress@8    1002010c     kernel32:KERNEL32.dll
 0002:00000110       __imp__GetModuleHandleW@4  10020110     kernel32:KERNEL32.dll
 0002:00000114       __imp__GetModuleFileNameW@12 10020114     kernel32:KERNEL32.dll
 0002:00000118       __imp__FreeLibrary@4       10020118     kernel32:KERNEL32.dll
 0002:0000011c       __imp__DisableThreadLibraryCalls@4 1002011c     kernel32:KERNEL32.dll
 0002:00000120       __imp__GetCurrentThreadId@0 10020120     kernel32:KERNEL32.dll
 0002:00000124       __imp__Sleep@4             10020124     kernel32:KERNEL32.dll
 0002:00000128       __imp__WaitForSingleObject@8 10020128     kernel32:KERNEL32.dll
 0002:0000012c       __imp__ReleaseMutex@4      1002012c     kernel32:KERNEL32.dll
 0002:00000130       __imp__ResetEvent@4        10020130     kernel32:KERNEL32.dll
 0002:00000134       __imp__EnterCriticalSection@4 10020134     kernel32:KERNEL32.dll
 0002:00000138       __imp__LeaveCriticalSection@4 10020138     kernel32:KERNEL32.dll
 0002:0000013c       __imp__SetLastError@4      1002013c     kernel32:KERNEL32.dll
 0002:00000140       __imp__EncodePointer@4     10020140     kernel32:KERNEL32.dll
 0002:00000144       __imp__DeleteCriticalSection@4 10020144     kernel32:KERNEL32.dll
 0002:00000148       __imp__InitializeCriticalSectionEx@12 10020148     kernel32:KERNEL32.dll
 0002:0000014c       __imp__GetLastError@0      1002014c     kernel32:KERNEL32.dll
 0002:00000150       __imp__RaiseException@16   10020150     kernel32:KERNEL32.dll
 0002:00000154       __imp__DecodePointer@4     10020154     kernel32:KERNEL32.dll
 0002:00000158       __imp__WideCharToMultiByte@32 10020158     kernel32:KERNEL32.dll
 0002:0000015c       __imp__GetCommandLineW@0   1002015c     kernel32:KERNEL32.dll
 0002:00000160       __imp__MultiByteToWideChar@24 10020160     kernel32:KERNEL32.dll
 0002:00000164       __imp__WriteConsoleW@20    10020164     kernel32:KERNEL32.dll
 0002:00000168       __imp__GetModuleHandleExW@12 10020168     kernel32:KERNEL32.dll
 0002:0000016c       __imp__ExitProcess@4       1002016c     kernel32:KERNEL32.dll
 0002:00000170       __imp__VirtualQuery@12     10020170     kernel32:KERNEL32.dll
 0002:00000174       __imp__VirtualProtect@16   10020174     kernel32:KERNEL32.dll
 0002:00000178       __imp__GetSystemInfo@4     10020178     kernel32:KERNEL32.dll
 0002:0000017c       __imp__TlsFree@4           1002017c     kernel32:KERNEL32.dll
 0002:00000180       __imp__TlsSetValue@8       10020180     kernel32:KERNEL32.dll
 0002:00000184       __imp__TlsGetValue@4       10020184     kernel32:KERNEL32.dll
 0002:00000188       __imp__TlsAlloc@0          10020188     kernel32:KERNEL32.dll
 0002:0000018c       __imp__InterlockedFlushSList@4 1002018c     kernel32:KERNEL32.dll
 0002:00000190       __imp__RtlUnwind@16        10020190     kernel32:KERNEL32.dll
 0002:00000194       __imp__LoadLibraryExA@12   10020194     kernel32:KERNEL32.dll
 0002:00000198       __imp__VirtualFree@12      10020198     kernel32:KERNEL32.dll
 0002:0000019c       __imp__VirtualAlloc@16     1002019c     kernel32:KERNEL32.dll
 0002:000001a0       __imp__FlushInstructionCache@12 100201a0     kernel32:KERNEL32.dll
 0002:000001a4       __imp__InterlockedPushEntrySList@8 100201a4     kernel32:KERNEL32.dll
 0002:000001a8       __imp__InterlockedPopEntrySList@4 100201a8     kernel32:KERNEL32.dll
 0002:000001ac       __imp__GetProcessHeap@0    100201ac     kernel32:KERNEL32.dll
 0002:000001b0       __imp__HeapFree@12         100201b0     kernel32:KERNEL32.dll
 0002:000001b4       __imp__HeapAlloc@12        100201b4     kernel32:KERNEL32.dll
 0002:000001b8       __imp__OutputDebugStringW@4 100201b8     kernel32:KERNEL32.dll
 0002:000001bc       __imp__InitializeSListHead@4 100201bc     kernel32:KERNEL32.dll
 0002:000001c0       __imp__GetSystemTimeAsFileTime@4 100201c0     kernel32:KERNEL32.dll
 0002:000001c4       __imp__QueryPerformanceCounter@4 100201c4     kernel32:KERNEL32.dll
 0002:000001c8       __imp__GetStartupInfoW@4   100201c8     kernel32:KERNEL32.dll
 0002:000001cc       __imp__IsDebuggerPresent@0 100201cc     kernel32:KERNEL32.dll
 0002:000001d0       __imp__IsProcessorFeaturePresent@4 100201d0     kernel32:KERNEL32.dll
 0002:000001d4       __imp__TerminateProcess@8  100201d4     kernel32:KERNEL32.dll
 0002:000001d8       __imp__GetCurrentProcess@0 100201d8     kernel32:KERNEL32.dll
 0002:000001dc       __imp__SetUnhandledExceptionFilter@4 100201dc     kernel32:KERNEL32.dll
 0002:000001e0       __imp__UnhandledExceptionFilter@4 100201e0     kernel32:KERNEL32.dll
 0002:000001e4       __imp__InitializeCriticalSectionAndSpinCount@8 100201e4     kernel32:KERNEL32.dll
 0002:000001e8       __imp__WaitForSingleObjectEx@12 100201e8     kernel32:KERNEL32.dll
 0002:000001ec       \177KERNEL32_NULL_THUNK_DATA 100201ec     kernel32:KERNEL32.dll
 0002:000001f0       __imp__OleCreatePropertyFrame@44 100201f0     oleaut32:OLEAUT32.dll
 0002:000001f4       __imp__UnRegisterTypeLib@20 100201f4     oleaut32:OLEAUT32.dll
 0002:000001f8       __imp__RegisterTypeLib@12  100201f8     oleaut32:OLEAUT32.dll
 0002:000001fc       __imp__LoadRegTypeLib@20   100201fc     oleaut32:OLEAUT32.dll
 0002:00000200       __imp__LoadTypeLib@8       10020200     oleaut32:OLEAUT32.dll
 0002:00000204       __imp__VarUI4FromStr@16    10020204     oleaut32:OLEAUT32.dll
 0002:00000208       __imp__VariantInit@4       10020208     oleaut32:OLEAUT32.dll
 0002:0000020c       __imp__SysAllocStringByteLen@8 1002020c     oleaut32:OLEAUT32.dll
 0002:00000210       __imp__SysStringByteLen@4  10020210     oleaut32:OLEAUT32.dll
 0002:00000214       __imp__VariantChangeType@16 10020214     oleaut32:OLEAUT32.dll
 0002:00000218       __imp__VariantClear@4      10020218     oleaut32:OLEAUT32.dll
 0002:0000021c       __imp__SysStringLen@4      1002021c     oleaut32:OLEAUT32.dll
 0002:00000220       __imp__SysFreeString@4     10020220     oleaut32:OLEAUT32.dll
 0002:00000224       __imp__SysAllocStringLen@8 10020224     oleaut32:OLEAUT32.dll
 0002:00000228       __imp__SysAllocString@4    10020228     oleaut32:OLEAUT32.dll
 0002:0000022c       \177OLEAUT32_NULL_THUNK_DATA 1002022c     oleaut32:OLEAUT32.dll
 0002:00000230       __imp__UnregisterClassW@8  10020230     user32:USER32.dll
 0002:00000234       __imp__PostMessageW@16     10020234     user32:USER32.dll
 0002:00000238       __imp__DefWindowProcW@16   10020238     user32:USER32.dll
 0002:0000023c       __imp__CallWindowProcW@20  1002023c     user32:USER32.dll
 0002:00000240       __imp__RegisterClassExW@4  10020240     user32:USER32.dll
 0002:00000244       __imp__GetClassInfoExW@12  10020244     user32:USER32.dll
 0002:00000248       __imp__CreateWindowExW@48  10020248     user32:USER32.dll
 0002:0000024c       __imp__IsWindow@4          1002024c     user32:USER32.dll
 0002:00000250       __imp__IsChild@8           10020250     user32:USER32.dll
 0002:00000254       __imp__DestroyWindow@4     10020254     user32:USER32.dll
 0002:00000258       __imp__ShowWindow@8        10020258     user32:USER32.dll
 0002:0000025c       __imp__SetWindowPos@28     1002025c     user32:USER32.dll
 0002:00000260       __imp__CharNextW@4         10020260     user32:USER32.dll
 0002:00000264       __imp__SetFocus@4          10020264     user32:USER32.dll
 0002:00000268       __imp__LoadBitmapW@8       10020268     user32:USER32.dll
 0002:0000026c       __imp__RegisterClassW@4    1002026c     user32:USER32.dll
 0002:00000270       __imp__PeekMessageW@20     10020270     user32:USER32.dll
 0002:00000274       __imp__LoadCursorW@8       10020274     user32:USER32.dll
 0002:00000278       __imp__GetParent@4         10020278     user32:USER32.dll
 0002:0000027c       __imp__SetWindowLongW@12   1002027c     user32:USER32.dll
 0002:00000280       __imp__GetWindowLongW@8    10020280     user32:USER32.dll
 0002:00000284       __imp__PtInRect@12         10020284     user32:USER32.dll
 0002:00000288       __imp__EqualRect@8         10020288     user32:USER32.dll
 0002:0000028c       __imp__OffsetRect@12       1002028c     user32:USER32.dll
 0002:00000290       __imp__UnionRect@12        10020290     user32:USER32.dll
 0002:00000294       __imp__IntersectRect@12    10020294     user32:USER32.dll
 0002:00000298       __imp__GetClientRect@8     10020298     user32:USER32.dll
 0002:0000029c       __imp__InvalidateRect@12   1002029c     user32:USER32.dll
 0002:000002a0       __imp__SetWindowRgn@12     100202a0     user32:USER32.dll
 0002:000002a4       __imp__EndPaint@8          100202a4     user32:USER32.dll
 0002:000002a8       __imp__BeginPaint@8        100202a8     user32:USER32.dll
 0002:000002ac       __imp__ReleaseDC@8         100202ac     user32:USER32.dll
 0002:000002b0       __imp__GetDC@4             100202b0     user32:USER32.dll
 0002:000002b4       __imp__GetKeyState@4       100202b4     user32:USER32.dll
 0002:000002b8       __imp__GetFocus@0          100202b8     user32:USER32.dll
 0002:000002bc       \177USER32_NULL_THUNK_DATA 100202bc     user32:USER32.dll
 0002:000002c0       __imp__StringFromGUID2@12  100202c0     ole32:ole32.dll
 0002:000002c4       __imp__CoTaskMemAlloc@4    100202c4     ole32:ole32.dll
 0002:000002c8       __imp__CoTaskMemRealloc@8  100202c8     ole32:ole32.dll
 0002:000002cc       __imp__CoTaskMemFree@4     100202cc     ole32:ole32.dll
 0002:000002d0       __imp__ReadClassStm@8      100202d0     ole32:ole32.dll
 0002:000002d4       __imp__WriteClassStm@8     100202d4     ole32:ole32.dll
 0002:000002d8       __imp__CreateDataAdviseHolder@4 100202d8     ole32:ole32.dll
 0002:000002dc       __imp__OleSaveToStream@8   100202dc     ole32:ole32.dll
 0002:000002e0       __imp__CreateOleAdviseHolder@4 100202e0     ole32:ole32.dll
 0002:000002e4       __imp__OleRegGetUserType@12 100202e4     ole32:ole32.dll
 0002:000002e8       __imp__OleRegGetMiscStatus@12 100202e8     ole32:ole32.dll
 0002:000002ec       __imp__OleRegEnumVerbs@8   100202ec     ole32:ole32.dll
 0002:000002f0       __imp__CLSIDFromProgID@8   100202f0     ole32:ole32.dll
 0002:000002f4       __imp__CoCreateInstance@20 100202f4     ole32:ole32.dll
 0002:000002f8       \177ole32_NULL_THUNK_DATA  100202f8     ole32:ole32.dll
 0002:000002fc       ___guard_check_icall_fptr  100202fc     LIBCMT:guard_support.obj
 0002:00000300       ___xc_a                    10020300     LIBCMT:initializers.obj
 0002:00000318       ___xc_z                    10020318     LIBCMT:initializers.obj
 0002:0000031c       ___xi_a                    1002031c     LIBCMT:initializers.obj
 0002:00000324       ___acrt_stdio_initializer  10020324     libucrt:stdio_initializer.obj
 0002:00000328       ___acrt_multibyte_initializer 10020328     libucrt:multibyte_initializer.obj
 0002:0000032c       ___acrt_tran_sse2_initializer 1002032c     libucrt:sse2_initializer.obj
 0002:00000330       ___xi_z                    10020330     LIBCMT:initializers.obj
 0002:00000334       ___xl_a                    10020334     LIBCMT:tlssup.obj
 0002:00000338       ___xl_z                    10020338     LIBCMT:tlssup.obj
 0002:0000033c       ___xp_a                    1002033c     LIBCMT:initializers.obj
 0002:00000340       ___acrt_locale_terminator  10020340     libucrt:locale_initializer.obj
 0002:00000344       ___dcrt_console_output_terminator 10020344     libucrt:console_output_initializer.obj
 0002:00000348       ___acrt_stdio_terminator   10020348     libucrt:stdio_initializer.obj
 0002:0000034c       ___xp_z                    1002034c     LIBCMT:initializers.obj
 0002:00000350       ___xt_a                    10020350     LIBCMT:initializers.obj
 0002:00000354       ___xt_z                    10020354     LIBCMT:initializers.obj
 0002:00000360       ??_C@_13HADIAKP@?$AAS@     10020360     OposVariant.obj
 0002:00000364       ??_C@_13LHMFKAAD@?$AAM@    10020364     OposVariant.obj
 0002:00000368       ??_C@_13MKMNOPIJ@?$AAD@    10020368     OposVariant.obj
 0002:0000036c       ??_C@_13OPKGLAFF@?$AAB@    1002036c     OposVariant.obj
 0002:00000370       ??_C@_17LLMMEOJD@?$AAV?$AAa?$AAl@ 10020370     OposVariant.obj
 0002:00000378       ??_C@_1BI@JFAIJMHL@?$AAF?$AAo?$AAr?$AAc?$AAe?$AAR?$AAe?$AAm?$AAo?$AAv?$AAe@ 10020378     OposVariant.obj
 0002:00000390       ??_C@_1BC@GCKHIPE@?$AAN?$AAo?$AAR?$AAe?$AAm?$AAo?$AAv?$AAe@ 10020390     OposVariant.obj
 0002:000003a4       ??_C@_1O@JDLOHAN@?$AAD?$AAe?$AAl?$AAe?$AAt?$AAe@ 100203a4     OposVariant.obj
 0002:000003b4       ??_C@_11LOCGONAA@@         100203b4     OposVariant.obj
 0002:000003b8       ??_7CComClassFactory@ATL@@6B@ 100203b8     CoinAcceptor.obj
 0002:000003d0       ?_entries@?1??_GetEntries@CComClassFactory@ATL@@SGPBU_ATL_INTMAP_ENTRY@3@XZ@4QBU43@B 100203d0     CoinAcceptor.obj
 0002:000003e8       __GUID_00000001_0000_0000_c000_000000000046 100203e8     CoinAcceptor.obj
 0002:000003f8       _IID_IOPOSCoinAcceptor_1_11 100203f8     CoinAcceptor.obj
 0002:00000408       _IID_IOPOSCoinAcceptor     10020408     CoinAcceptor.obj
 0002:00000418       _LIBID_OposCoinAcceptor_CCO 10020418     CoinAcceptor.obj
 0002:00000428       _DIID__IOPOSCoinAcceptorEvents 10020428     CoinAcceptor.obj
 0002:00000438       _CLSID_OPOSCoinAcceptor    10020438     CoinAcceptor.obj
 0002:00000448       ??_C@_1BK@BIGILECK@?$AAA?$AAd?$AAv?$AAa?$AAp?$AAi?$AA3?$AA2?$AA?4?$AAd?$AAl?$AAl@ 10020448     CoinAcceptor.obj
 0002:00000464       __GUID_00000114_0000_0000_c000_000000000046 10020464     CoinAcceptor.obj
 0002:00000474       ??_C@_0BI@MNCFCPFK@RegCreateKeyTransactedW@ 10020474     CoinAcceptor.obj
 0002:0000048c       __GUID_b196b287_bab4_101a_b69c_00aa00341d07 1002048c     CoinAcceptor.obj
 0002:0000049c       __GUID_b196b285_bab4_101a_b69c_00aa00341d07 1002049c     CoinAcceptor.obj
 0002:000004ac       __GUID_a6bc3ac0_dbaa_11ce_9de3_00aa004bb851 100204ac     CoinAcceptor.obj
 0002:000004bc       __GUID_0000010c_0000_0000_c000_000000000046 100204bc     CoinAcceptor.obj
 0002:000004cc       __GUID_00000146_0000_0000_c000_000000000046 100204cc     CoinAcceptor.obj
 0002:000004e0       ?_entries@?1??_GetEntries@COPOSCoinAcceptor@@SGPBU_ATL_INTMAP_ENTRY@ATL@@XZ@4QBU34@B 100204e0     CoinAcceptor.obj
 0002:00000600       __GUID_cf51ed10_62fe_11cf_bf86_00a0c9034836 10020600     CoinAcceptor.obj
 0002:00000610       __GUID_0000010a_0000_0000_c000_000000000046 10020610     CoinAcceptor.obj
 0002:00000620       __GUID_b196b283_bab4_101a_b69c_00aa00341d07 10020620     CoinAcceptor.obj
 0002:00000630       __GUID_cb5bdc81_93c1_11cf_8f20_00805f2cd064 10020630     CoinAcceptor.obj
 0002:00000640       ?pPropMap@?1??GetPropertyMap@COPOSCoinAcceptor@@SAPBUATL_PROPMAP_ENTRY@ATL@@XZ@4QBU34@B 10020640     CoinAcceptor.obj
 0002:000006ac       ??_C@_17DGDADEHL@?$AA_?$AAc?$AAx@ 100206ac     CoinAcceptor.obj
 0002:000006b4       ??_C@_17IOIMFDBO@?$AA_?$AAc?$AAy@ 100206b4     CoinAcceptor.obj
 0002:000006bc       ??_7CComModule@ATL@@6B@    100206bc     CoinAcceptor.obj
 0002:000006e4       __GUID_922eada0_3424_11cf_b670_00aa004cd6d8 100206e4     CoinAcceptor.obj
 0002:000006f4       __GUID_9c2cad80_3424_11cf_b670_00aa004cd6d8 100206f4     CoinAcceptor.obj
 0002:00000704       __GUID_00000119_0000_0000_c000_000000000046 10020704     CoinAcceptor.obj
 0002:00000714       __GUID_b196b289_bab4_101a_b69c_00aa00341d07 10020714     CoinAcceptor.obj
 0002:00000724       ??_7?$CComObjectCached@VCComClassFactory@ATL@@@ATL@@6B@ 10020724     CoinAcceptor.obj
 0002:0000073c       __GUID_00000000_0000_0000_c000_000000000046 1002073c     CoinAcceptor.obj
 0002:0000074c       __GUID_00020400_0000_0000_c000_000000000046 1002074c     CoinAcceptor.obj
 0002:0000075c       ??_C@_1CE@PGFMOFKI@?$AAS?$AAt?$AAa?$AAt?$AAu?$AAs?$AAU?$AAp?$AAd?$AAa?$AAt?$AAe?$AAE?$AAv?$AAe@ 1002075c     CoinAcceptor.obj
 0002:00000780       ??_C@_1BM@CBGEBBBJ@?$AAD?$AAi?$AAr?$AAe?$AAc?$AAt?$AAI?$AAO?$AAE?$AAv?$AAe?$AAn?$AAt@ 10020780     CoinAcceptor.obj
 0002:0000079c       ??_C@_1BE@IEBMACEM@?$AAD?$AAa?$AAt?$AAa?$AAE?$AAv?$AAe?$AAn?$AAt@ 1002079c     CoinAcceptor.obj
 0002:000007b0       __GUID_b196b286_bab4_101a_b69c_00aa00341d07 100207b0     CoinAcceptor.obj
 0002:000007c0       __GUID_00000117_0000_0000_c000_000000000046 100207c0     CoinAcceptor.obj
 0002:000007d0       ??_C@_1BC@ENICKDH@?$AAC?$AAo?$AAn?$AAt?$AAe?$AAn?$AAt?$AAs@ 100207d0     CoinAcceptor.obj
 0002:000007e4       ??_7?$CComObject@V?$CComEnum@UIEnumConnectionPoints@@$1?_GUID_b196b285_bab4_101a_b69c_00aa00341d07@@3U__s_GUID@@BPAUIConnectionPoint@@V?$_CopyInterface@UIConnectionPoint@@@ATL@@VCComSingleThreadModel@6@@ATL@@@ATL@@6B@ 100207e4     CoinAcceptor.obj
 0002:00000804       ??_C@_1M@KANJNLFF@?$AAC?$AAL?$AAS?$AAI?$AAD@ 10020804     CoinAcceptor.obj
 0002:00000810       ??_C@_1M@EJNEECMJ@?$AAA?$AAp?$AAp?$AAI?$AAD@ 10020810     CoinAcceptor.obj
 0002:0000081c       __GUID_0000010e_0000_0000_c000_000000000046 1002081c     CoinAcceptor.obj
 0002:0000082c       __GUID_b196b288_bab4_101a_b69c_00aa00341d07 1002082c     CoinAcceptor.obj
 0002:0000083c       ?rgszNeverDelete@CRegParser@ATL@@1QBQB_WB 1002083c     CoinAcceptor.obj
 0002:0000086c       ??_7CRegObject@ATL@@6B@    1002086c     CoinAcceptor.obj
 0002:00000884       __GUID_00000113_0000_0000_c000_000000000046 10020884     CoinAcceptor.obj
 0002:00000894       __GUID_1c2056cc_5ef4_101b_8bc8_00aa003e3b29 10020894     CoinAcceptor.obj
 0002:000008a4       ??_C@_1CK@OEKPKBNA@?$AAC?$AAo?$AAm?$AAp?$AAo?$AAn?$AAe?$AAn?$AAt?$AA?5?$AAC?$AAa?$AAt?$AAe?$AAg@ 100208a4     CoinAcceptor.obj
 0002:000008d0       ??_C@_1BC@NKMMNMGL@?$AAF?$AAi?$AAl?$AAe?$AAT?$AAy?$AAp?$AAe@ 100208d0     CoinAcceptor.obj
 0002:000008e4       ??_C@_1BE@EKPAFMCP@?$AAI?$AAn?$AAt?$AAe?$AAr?$AAf?$AAa?$AAc?$AAe@ 100208e4     CoinAcceptor.obj
 0002:000008f8       ??_C@_1BC@MAICEHGI@?$AAH?$AAa?$AAr?$AAd?$AAw?$AAa?$AAr?$AAe@ 100208f8     CoinAcceptor.obj
 0002:0000090c       ??_C@_19HLLLM@?$AAM?$AAi?$AAm?$AAe@ 1002090c     CoinAcceptor.obj
 0002:00000918       ??_C@_17OMAOINJK@?$AAS?$AAA?$AAM@ 10020918     CoinAcceptor.obj
 0002:00000920       ??_C@_1BC@IBECJAAI@?$AAS?$AAE?$AAC?$AAU?$AAR?$AAI?$AAT?$AAY@ 10020920     CoinAcceptor.obj
 0002:00000934       ??_C@_1O@GBFINDKL@?$AAS?$AAY?$AAS?$AAT?$AAE?$AAM@ 10020934     CoinAcceptor.obj
 0002:00000944       ??_C@_1BC@EAHCMADO@?$AAS?$AAo?$AAf?$AAt?$AAw?$AAa?$AAr?$AAe@ 10020944     CoinAcceptor.obj
 0002:00000958       ??_C@_1BA@JIHHIEDE@?$AAT?$AAy?$AAp?$AAe?$AAL?$AAi?$AAb@ 10020958     CoinAcceptor.obj
 0002:00000968       ?map@?1??HKeyFromString@CRegParser@ATL@@KAPAUHKEY__@@PA_W@Z@4QBUkeymap@?1??123@KAPAU4@0@Z@B 10020968     CoinAcceptor.obj
 0002:000009d8       ??_C@_19NCHLBIN@?$AAH?$AAK?$AAC?$AAR@ 100209d8     CoinAcceptor.obj
 0002:000009e4       ??_C@_19JAPAIJDE@?$AAH?$AAK?$AAC?$AAU@ 100209e4     CoinAcceptor.obj
 0002:000009f0       ??_C@_19PEALEEJB@?$AAH?$AAK?$AAL?$AAM@ 100209f0     CoinAcceptor.obj
 0002:000009fc       ??_C@_17PJOJPMPB@?$AAH?$AAK?$AAU@ 100209fc     CoinAcceptor.obj
 0002:00000a04       ??_C@_19PNBHMJPL@?$AAH?$AAK?$AAP?$AAD@ 10020a04     CoinAcceptor.obj
 0002:00000a10       ??_C@_19GFFAIJHG@?$AAH?$AAK?$AAD?$AAD@ 10020a10     CoinAcceptor.obj
 0002:00000a1c       ??_C@_19OFICIBHH@?$AAH?$AAK?$AAC?$AAC@ 10020a1c     CoinAcceptor.obj
 0002:00000a28       ??_C@_1CE@PACHPJFI@?$AAH?$AAK?$AAE?$AAY?$AA_?$AAC?$AAL?$AAA?$AAS?$AAS?$AAE?$AAS?$AA_?$AAR?$AAO@ 10020a28     CoinAcceptor.obj
 0002:00000a4c       ??_C@_1CE@HLHNCBPM@?$AAH?$AAK?$AAE?$AAY?$AA_?$AAC?$AAU?$AAR?$AAR?$AAE?$AAN?$AAT?$AA_?$AAU?$AAS@ 10020a4c     CoinAcceptor.obj
 0002:00000a70       ??_C@_1CG@GFBEANJL@?$AAH?$AAK?$AAE?$AAY?$AA_?$AAL?$AAO?$AAC?$AAA?$AAL?$AA_?$AAM?$AAA?$AAC?$AAH@ 10020a70     CoinAcceptor.obj
 0002:00000a98       ??_C@_1BG@BGODANIO@?$AAH?$AAK?$AAE?$AAY?$AA_?$AAU?$AAS?$AAE?$AAR?$AAS@ 10020a98     CoinAcceptor.obj
 0002:00000ab0       ??_C@_1CM@KHNNAOIC@?$AAH?$AAK?$AAE?$AAY?$AA_?$AAP?$AAE?$AAR?$AAF?$AAO?$AAR?$AAM?$AAA?$AAN?$AAC@ 10020ab0     CoinAcceptor.obj
 0002:00000adc       ??_C@_1BM@HAGMMHIA@?$AAH?$AAK?$AAE?$AAY?$AA_?$AAD?$AAY?$AAN?$AA_?$AAD?$AAA?$AAT?$AAA@ 10020adc     CoinAcceptor.obj
 0002:00000af8       ??_C@_1CI@BBJOACGG@?$AAH?$AAK?$AAE?$AAY?$AA_?$AAC?$AAU?$AAR?$AAR?$AAE?$AAN?$AAT?$AA_?$AAC?$AAO@ 10020af8     CoinAcceptor.obj
 0002:00000b20       __GUID_00000109_0000_0000_c000_000000000046 10020b20     CoinAcceptor.obj
 0002:00000b30       __GUID_7fd52380_4e07_101b_ae2d_08002b2ec713 10020b30     CoinAcceptor.obj
 0002:00000b40       __GUID_00000112_0000_0000_c000_000000000046 10020b40     CoinAcceptor.obj
 0002:00000b50       __GUID_3af24292_0c96_11ce_a0cf_00aa00600ab8 10020b50     CoinAcceptor.obj
 0002:00000b60       __GUID_00000127_0000_0000_c000_000000000046 10020b60     CoinAcceptor.obj
 0002:00000b70       __GUID_0000010d_0000_0000_c000_000000000046 10020b70     CoinAcceptor.obj
 0002:00000b80       ??_C@_1EA@NHKLICFA@?$AAH?$AAK?$AAC?$AAU?$AA?$AN?$AA?6?$AA?$HL?$AA?7?$AAS?$AAo?$AAf?$AAt?$AAw?$AAa?$AAr@ 10020b80     CoinAcceptor.obj
 0002:00000bc0       ??_C@_1BE@LJOLIMEM@?$AA?$AN?$AA?6?$AA?7?$AA?$HN?$AA?$AN?$AA?6?$AA?$HN?$AA?$AN?$AA?6@ 10020bc0     CoinAcceptor.obj
 0002:00000bd4       ??_C@_1M@PPPPCDEP@?$AAA?$AAP?$AAP?$AAI?$AAD@ 10020bd4     CoinAcceptor.obj
 0002:00000be0       ??_C@_1O@MNLDABAF@?$AAM?$AAo?$AAd?$AAu?$AAl?$AAe@ 10020be0     CoinAcceptor.obj
 0002:00000bf0       ??_C@_1BG@JBACFMF@?$AAM?$AAo?$AAd?$AAu?$AAl?$AAe?$AA_?$AAR?$AAa?$AAw@ 10020bf0     CoinAcceptor.obj
 0002:00000c08       ??_C@_1BC@KAILKFFG@?$AAR?$AAE?$AAG?$AAI?$AAS?$AAT?$AAR?$AAY@ 10020c08     CoinAcceptor.obj
 0002:00000c1c       ??_7?$CComContainedObject@VCOPOSCoinAcceptor@@@ATL@@6B?$IDispatchImpl@UIOPOSCoinAcceptor@@$1?IID_IOPOSCoinAcceptor@@3U_GUID@@B$1?LIBID_OposCoinAcceptor_CCO@@3U3@B$00$0A@VCComTypeInfoHolder@ATL@@@1@@ 10020c1c     CoinAcceptor.obj
 0002:00000d48       ??_7?$CComContainedObject@VCOPOSCoinAcceptor@@@ATL@@6BCComControlBase@1@@ 10020d48     CoinAcceptor.obj
 0002:00000d5c       ??_7?$CComContainedObject@VCOPOSCoinAcceptor@@@ATL@@6B?$CWindowImpl@VCOPOSCoinAcceptor@@VCWindow@ATL@@V?$CWinTraits@$0FGAAAAAA@$0A@@3@@1@@ 10020d5c     CoinAcceptor.obj
 0002:00000d6c       ??_7?$CComContainedObject@VCOPOSCoinAcceptor@@@ATL@@6B?$IPersistStreamInitImpl@VCOPOSCoinAcceptor@@@1@@ 10020d6c     CoinAcceptor.obj
 0002:00000d90       ??_7?$CComContainedObject@VCOPOSCoinAcceptor@@@ATL@@6B?$IOleControlImpl@VCOPOSCoinAcceptor@@@1@@ 10020d90     CoinAcceptor.obj
 0002:00000dac       ??_7?$CComContainedObject@VCOPOSCoinAcceptor@@@ATL@@6B?$IOleObjectImpl@VCOPOSCoinAcceptor@@@1@@ 10020dac     CoinAcceptor.obj
 0002:00000e0c       ??_7?$CComContainedObject@VCOPOSCoinAcceptor@@@ATL@@6B?$IOleInPlaceActiveObjectImpl@VCOPOSCoinAcceptor@@@1@@ 10020e0c     CoinAcceptor.obj
 0002:00000e34       ??_7?$CComContainedObject@VCOPOSCoinAcceptor@@@ATL@@6B?$IViewObjectExImpl@VCOPOSCoinAcceptor@@@1@@ 10020e34     CoinAcceptor.obj
 0002:00000e70       ??_7?$CComContainedObject@VCOPOSCoinAcceptor@@@ATL@@6B?$IOleInPlaceObjectWindowlessImpl@VCOPOSCoinAcceptor@@@1@@ 10020e70     CoinAcceptor.obj
 0002:00000e9c       ??_7?$CComContainedObject@VCOPOSCoinAcceptor@@@ATL@@6B?$IConnectionPointContainerImpl@VCOPOSCoinAcceptor@@@1@@ 10020e9c     CoinAcceptor.obj
 0002:00000eb0       ??_7?$CComContainedObject@VCOPOSCoinAcceptor@@@ATL@@6B?$IPersistStorageImpl@VCOPOSCoinAcceptor@@@1@@ 10020eb0     CoinAcceptor.obj
 0002:00000ed8       ??_7?$CComContainedObject@VCOPOSCoinAcceptor@@@ATL@@6B?$ISpecifyPropertyPagesImpl@VCOPOSCoinAcceptor@@@1@@ 10020ed8     CoinAcceptor.obj
 0002:00000ee8       ??_7?$CComContainedObject@VCOPOSCoinAcceptor@@@ATL@@6B?$IQuickActivateImpl@VCOPOSCoinAcceptor@@@1@@ 10020ee8     CoinAcceptor.obj
 0002:00000f00       ??_7?$CComContainedObject@VCOPOSCoinAcceptor@@@ATL@@6B?$IDataObjectImpl@VCOPOSCoinAcceptor@@@1@@ 10020f00     CoinAcceptor.obj
 0002:00000f30       ??_7?$CComContainedObject@VCOPOSCoinAcceptor@@@ATL@@6B?$IProvideClassInfo2Impl@$1?CLSID_OPOSCoinAcceptor@@3U_GUID@@B$1?DIID__IOPOSCoinAcceptorEvents@@3U2@B$1?LIBID_OposCoinAcceptor_CCO@@3U2@B$00$0A@VCComTypeInfoHolder@ATL@@@1@@ 10020f30     CoinAcceptor.obj
 0002:00000f44       ??_7?$CComContainedObject@VCOPOSCoinAcceptor@@@ATL@@6B?$IObjectSafetyImpl@VCOPOSCoinAcceptor@@$02@1@@ 10020f44     CoinAcceptor.obj
 0002:00000f5c       ??_7?$CComContainedObject@VCOPOSCoinAcceptor@@@ATL@@6B?$IPropertyNotifySinkCP@VCOPOSCoinAcceptor@@VCComDynamicUnkArray@ATL@@@1@@ 10020f5c     CoinAcceptor.obj
 0002:00000f7c       ??_7?$CComContainedObject@VCOPOSCoinAcceptor@@@ATL@@6B?$CProxy_IOPOSEvents@VCOPOSCoinAcceptor@@@@@ 10020f7c     CoinAcceptor.obj
 0002:00000f9c       ??_7?$CComAggObject@VCOPOSCoinAcceptor@@@ATL@@6B@ 10020f9c     CoinAcceptor.obj
 0002:00000fac       ??_7?$CComObject@VCOPOSCoinAcceptor@@@ATL@@6B?$IDispatchImpl@UIOPOSCoinAcceptor@@$1?IID_IOPOSCoinAcceptor@@3U_GUID@@B$1?LIBID_OposCoinAcceptor_CCO@@3U3@B$00$0A@VCComTypeInfoHolder@ATL@@@1@@ 10020fac     CoinAcceptor.obj
 0002:000010d8       ??_7?$CComObject@VCOPOSCoinAcceptor@@@ATL@@6BCComControlBase@1@@ 100210d8     CoinAcceptor.obj
 0002:000010ec       ??_7?$CComObject@VCOPOSCoinAcceptor@@@ATL@@6B?$CWindowImpl@VCOPOSCoinAcceptor@@VCWindow@ATL@@V?$CWinTraits@$0FGAAAAAA@$0A@@3@@1@@ 100210ec     CoinAcceptor.obj
 0002:000010fc       ??_7?$CComObject@VCOPOSCoinAcceptor@@@ATL@@6B?$IPersistStreamInitImpl@VCOPOSCoinAcceptor@@@1@@ 100210fc     CoinAcceptor.obj
 0002:00001120       ??_7?$CComObject@VCOPOSCoinAcceptor@@@ATL@@6B?$IOleControlImpl@VCOPOSCoinAcceptor@@@1@@ 10021120     CoinAcceptor.obj
 0002:0000113c       ??_7?$CComObject@VCOPOSCoinAcceptor@@@ATL@@6B?$IOleObjectImpl@VCOPOSCoinAcceptor@@@1@@ 1002113c     CoinAcceptor.obj
 0002:0000119c       ??_7?$CComObject@VCOPOSCoinAcceptor@@@ATL@@6B?$IOleInPlaceActiveObjectImpl@VCOPOSCoinAcceptor@@@1@@ 1002119c     CoinAcceptor.obj
 0002:000011c4       ??_7?$CComObject@VCOPOSCoinAcceptor@@@ATL@@6B?$IViewObjectExImpl@VCOPOSCoinAcceptor@@@1@@ 100211c4     CoinAcceptor.obj
 0002:00001200       ??_7?$CComObject@VCOPOSCoinAcceptor@@@ATL@@6B?$IOleInPlaceObjectWindowlessImpl@VCOPOSCoinAcceptor@@@1@@ 10021200     CoinAcceptor.obj
 0002:0000122c       ??_7?$CComObject@VCOPOSCoinAcceptor@@@ATL@@6B?$IConnectionPointContainerImpl@VCOPOSCoinAcceptor@@@1@@ 1002122c     CoinAcceptor.obj
 0002:00001240       ??_7?$CComObject@VCOPOSCoinAcceptor@@@ATL@@6B?$IPersistStorageImpl@VCOPOSCoinAcceptor@@@1@@ 10021240     CoinAcceptor.obj
 0002:00001268       ??_7?$CComObject@VCOPOSCoinAcceptor@@@ATL@@6B?$ISpecifyPropertyPagesImpl@VCOPOSCoinAcceptor@@@1@@ 10021268     CoinAcceptor.obj
 0002:00001278       ??_7?$CComObject@VCOPOSCoinAcceptor@@@ATL@@6B?$IQuickActivateImpl@VCOPOSCoinAcceptor@@@1@@ 10021278     CoinAcceptor.obj
 0002:00001290       ??_7?$CComObject@VCOPOSCoinAcceptor@@@ATL@@6B?$IDataObjectImpl@VCOPOSCoinAcceptor@@@1@@ 10021290     CoinAcceptor.obj
 0002:000012c0       ??_7?$CComObject@VCOPOSCoinAcceptor@@@ATL@@6B?$IProvideClassInfo2Impl@$1?CLSID_OPOSCoinAcceptor@@3U_GUID@@B$1?DIID__IOPOSCoinAcceptorEvents@@3U2@B$1?LIBID_OposCoinAcceptor_CCO@@3U2@B$00$0A@VCComTypeInfoHolder@ATL@@@1@@ 100212c0     CoinAcceptor.obj
 0002:000012d4       ??_7?$CComObject@VCOPOSCoinAcceptor@@@ATL@@6B?$IObjectSafetyImpl@VCOPOSCoinAcceptor@@$02@1@@ 100212d4     CoinAcceptor.obj
 0002:000012ec       ??_7?$CComObject@VCOPOSCoinAcceptor@@@ATL@@6B?$IPropertyNotifySinkCP@VCOPOSCoinAcceptor@@VCComDynamicUnkArray@ATL@@@1@@ 100212ec     CoinAcceptor.obj
 0002:0000130c       ??_7?$CComObject@VCOPOSCoinAcceptor@@@ATL@@6B?$CProxy_IOPOSEvents@VCOPOSCoinAcceptor@@@@@ 1002130c     CoinAcceptor.obj
 0002:0000132c       ??_C@_1O@GBFKGNEO@?$AAA?$AAT?$AAL?$AA?3?$AA?$CF?$AAp@ 1002132c     CoinAcceptor.obj
 0002:0000133c       ??_C@_1BA@PICGEGJB@?$AAD?$AAI?$AAS?$AAP?$AAL?$AAA?$AAY@ 1002133c     CoinAcceptor.obj
 0002:0000134c       __GUID_9bfbbc02_eff1_101a_84ed_00aa00341d07 1002134c     CoinAcceptor.obj
 0002:0000135c       __GUID_b196b284_bab4_101a_b69c_00aa00341d07 1002135c     CoinAcceptor.obj
 0002:0000136c       ?_entries@?1??_GetEntries@?$CComEnum@UIEnumConnectionPoints@@$1?_GUID_b196b285_bab4_101a_b69c_00aa00341d07@@3U__s_GUID@@BPAUIConnectionPoint@@V?$_CopyInterface@UIConnectionPoint@@@ATL@@VCComSingleThreadModel@6@@ATL@@SGPBU_ATL_INTMAP_ENTRY@3@XZ@4QBU43@B 1002136c     CoinAcceptor.obj
 0002:00001384       __GUID_00020412_0000_0000_c000_000000000046 10021384     CoinAcceptor.obj
 0002:00001394       __GUID_00020401_0000_0000_c000_000000000046 10021394     CoinAcceptor.obj
 0002:000013a4       ??_7?$CComObject@V?$CComEnum@UIEnumConnections@@$1?_GUID_b196b287_bab4_101a_b69c_00aa00341d07@@3U__s_GUID@@BUtagCONNECTDATA@@V?$_Copy@UtagCONNECTDATA@@@ATL@@VCComSingleThreadModel@6@@ATL@@@ATL@@6B@ 100213a4     CoinAcceptor.obj
 0002:000013c4       __GUID_55980ba0_35aa_11cf_b671_00aa004cd6d8 100213c4     CoinAcceptor.obj
 0002:000013d4       __GUID_b196b28b_bab4_101a_b69c_00aa00341d07 100213d4     CoinAcceptor.obj
 0002:000013e4       ?_entries@?1??_GetEntries@?$CComEnum@UIEnumConnections@@$1?_GUID_b196b287_bab4_101a_b69c_00aa00341d07@@3U__s_GUID@@BUtagCONNECTDATA@@V?$_Copy@UtagCONNECTDATA@@@ATL@@VCComSingleThreadModel@6@@ATL@@SGPBU_ATL_INTMAP_ENTRY@3@XZ@4QBU43@B 100213e4     CoinAcceptor.obj
 0002:000013fc       ??_C@_0BG@EKFFMJIO@RegOpenKeyTransactedW@ 100213fc     CoinAcceptor.obj
 0002:00001414       ??_C@_0BI@HAKLOOGP@RegDeleteKeyTransactedW@ 10021414     CoinAcceptor.obj
 0002:0000142c       ??_C@_0BA@LILAPHGE@RegDeleteKeyExW@ 1002142c     CoinAcceptor.obj
 0002:0000143c       ??_C@_19ILOCMLCJ@?$AA?4?$AAt?$AAl?$AAb@ 1002143c     CoinAcceptor.obj
 0002:00001448       __GUID_0002e012_0000_0000_c000_000000000046 10021448     CoinAcceptor.obj
 0002:00001458       ??_C@_1O@FHBGLCIO@?$AAC?$AAL?$AAS?$AAI?$AAD?$AA?2@ 10021458     CoinAcceptor.obj
 0002:00001468       ??_C@_1CK@IFBKBFAA@?$AA?2?$AAR?$AAe?$AAq?$AAu?$AAi?$AAr?$AAe?$AAd?$AA?5?$AAC?$AAa?$AAt?$AAe?$AAg@ 10021468     CoinAcceptor.obj
 0002:00001494       ??_C@_1DA@BIHALFED@?$AA?2?$AAI?$AAm?$AAp?$AAl?$AAe?$AAm?$AAe?$AAn?$AAt?$AAe?$AAd?$AA?5?$AAC?$AAa@ 10021494     CoinAcceptor.obj
 0002:000014c4       ??_C@_1BK@EDKOLFBJ@?$AAO?$AAL?$AAE?$AAA?$AAU?$AAT?$AA3?$AA2?$AA?4?$AAD?$AAL?$AAL@ 100214c4     CoinAcceptor.obj
 0002:000014e0       ??_C@_0BJ@CNLFOMHB@UnRegisterTypeLibForUser@ 100214e0     CoinAcceptor.obj
 0002:000014fc       ??_C@_0BH@LBOMMKPJ@RegisterTypeLibForUser@ 100214fc     CoinAcceptor.obj
 0002:00001514       ??_C@_0P@MMNMMLGK@COFreezeEvents@ 10021514     CoinAcceptorImpl.obj
 0002:00001524       ??_C@_0BC@OGCGGIMP@GetPropertyNumber@ 10021524     CoinAcceptorImpl.obj
 0002:00001538       ??_C@_0BC@MDCNODNB@SetPropertyNumber@ 10021538     CoinAcceptorImpl.obj
 0002:0000154c       ??_C@_0BC@CFCCMIMD@GetPropertyString@ 1002154c     CoinAcceptorImpl.obj
 0002:00001560       ??_C@_0BC@CJEDNN@SetPropertyString@ 10021560     CoinAcceptorImpl.obj
 0002:00001574       ??_C@_0M@LNPKKKDA@OpenService@ 10021574     CoinAcceptorImpl.obj
 0002:00001580       ??_C@_0M@PCMCHHMH@CheckHealth@ 10021580     CoinAcceptorImpl.obj
 0002:0000158c       ??_C@_0M@JGMIDNEK@ClaimDevice@ 1002158c     CoinAcceptorImpl.obj
 0002:00001598       ??_C@_0L@BNEIFEJC@ClearInput@ 10021598     CoinAcceptorImpl.obj
 0002:000015a4       ??_C@_0N@DDFIIBMP@CloseService@ 100215a4     CoinAcceptorImpl.obj
 0002:000015b4       ??_C@_08EEIHICPC@DirectIO@ 100215b4     CoinAcceptorImpl.obj
 0002:000015c0       ??_C@_0O@BCPMENMJ@ReleaseDevice@ 100215c0     CoinAcceptorImpl.obj
 0002:000015d0       ??_C@_0BA@GFABKEEE@ResetStatistics@ 100215d0     CoinAcceptorImpl.obj
 0002:000015e0       ??_C@_0BD@DPALHJGC@RetrieveStatistics@ 100215e0     CoinAcceptorImpl.obj
 0002:000015f4       ??_C@_0BB@KOHIKNFC@UpdateStatistics@ 100215f4     CoinAcceptorImpl.obj
 0002:00001608       ??_C@_0BH@PBKBNMGB@CompareFirmwareVersion@ 10021608     CoinAcceptorImpl.obj
 0002:00001620       ??_C@_0P@FBPDPIPA@UpdateFirmware@ 10021620     CoinAcceptorImpl.obj
 0002:00001630       ??_C@_0BB@OAMAKNAK@AdjustCashCounts@ 10021630     CoinAcceptorImpl.obj
 0002:00001644       ??_C@_0N@EMNBHBJF@BeginDeposit@ 10021644     CoinAcceptorImpl.obj
 0002:00001654       ??_C@_0L@OMAABOPC@EndDeposit@ 10021654     CoinAcceptorImpl.obj
 0002:00001660       ??_C@_0L@NNMKNCOP@FixDeposit@ 10021660     CoinAcceptorImpl.obj
 0002:0000166c       ??_C@_0N@NPMPKLIN@PauseDeposit@ 1002166c     CoinAcceptorImpl.obj
 0002:0000167c       ??_C@_0P@HELDJPLA@ReadCashCounts@ 1002167c     CoinAcceptorImpl.obj
 0002:0000168c       ??_7?$CProxy_IOPOSEvents@VCOPOSCoinAcceptor@@@@6B@ 1002168c     CoinAcceptorImpl.obj
 0002:000016ac       ??_C@_1BA@IFHENID@?$AA?$FL?$AAE?$AAr?$AAr?$AAo?$AAr?$AA?$FN@ 100216ac     CoinAcceptorImpl.obj
 0002:000016bc       ??_C@_0CP@MMDMPADE@SOFTWARE?2OLEforRetail?2ServiceOP@ 100216bc     CoinAcceptorImpl.obj
 0002:000016ec       ??_C@_1M@IAIJHCCH@?$AAC?$AAl?$AAo?$AAs?$AAe@ 100216ec     CoinAcceptorImpl.obj
 0002:000016f8       ??_C@_1M@PCPKGJAH@?$AAC?$AAl?$AAa?$AAi?$AAm@ 100216f8     CoinAcceptorImpl.obj
 0002:00001704       ??_C@_1BA@NDFKIOCP@?$AAR?$AAe?$AAl?$AAe?$AAa?$AAs?$AAe@ 10021704     CoinAcceptorImpl.obj
 0002:00001714       ??_C@_0N@HIFKBDPP@CoinAcceptor@ 10021714     CoinAcceptorImpl.obj
 0002:00001724       ??_C@_1BM@IJMNMBPK@?$AAG?$AAe?$AAt?$AAO?$AAp?$AAe?$AAn?$AAR?$AAe?$AAs?$AAu?$AAl?$AAt@ 10021724     CoinAcceptorImpl.obj
 0002:00001740       _IID_IPropertyNotifySink   10021740     uuid:ocidl_i.obj
 0002:00001750       _GUID_NULL                 10021750     uuid:cguid_i.obj
 0002:00001760       _CLSID_StdGlobalInterfaceTable 10021760     uuid:cguid_i.obj
 0002:00001770       _IID_IDispatch             10021770     uuid:oaidl_i.obj
 0002:00001780       _CLSID_StdComponentCategoriesMgr 10021780     uuid:ieguids.obj
 0002:00001790       _IID_IUnknown              10021790     uuid:unknwn_i.obj
 0002:000017a0       ??_C@_1EC@JIJBPKFM@?$AAa?$AAp?$AAi?$AA?9?$AAm?$AAs?$AA?9?$AAw?$AAi?$AAn?$AA?9?$AAc?$AAo?$AAr?$AAe@ 100217a0     LIBCMT:thread_safe_statics.obj
 0002:000017e4       ??_C@_1BK@MGMFAEKH@?$AAk?$AAe?$AAr?$AAn?$AAe?$AAl?$AA3?$AA2?$AA?4?$AAd?$AAl?$AAl@ 100217e4     LIBCMT:thread_safe_statics.obj
 0002:00001800       ??_C@_0BJ@JEBJOJFJ@SleepConditionVariableCS@ 10021800     LIBCMT:thread_safe_statics.obj
 0002:0000181c       ??_C@_0BJ@PGPPEPCC@WakeAllConditionVariable@ 1002181c     LIBCMT:thread_safe_statics.obj
 0002:00001835       ?nothrow@std@@3Unothrow_t@1@B 10021835     LIBCMT:std_nothrow.obj
 0002:00001840       __pRawDllMain              10021840     LIBCMT:dll_dllmain.obj
 0002:00001840       __pDefaultRawDllMain       10021840     LIBCMT:dll_dllmain.obj
 0002:00001848       ??_7exception@std@@6B@     10021848     LIBCMT:throw_bad_alloc.obj
 0002:00001850       ??_C@_0BC@EOODALEL@Unknown?5exception@ 10021850     LIBCMT:throw_bad_alloc.obj
 0002:00001868       ??_7bad_alloc@std@@6B@     10021868     LIBCMT:throw_bad_alloc.obj
 0002:00001870       ??_C@_0P@GHFPNOJB@bad?5allocation@ 10021870     LIBCMT:throw_bad_alloc.obj
 0002:00001884       ??_7bad_array_new_length@std@@6B@ 10021884     LIBCMT:throw_bad_alloc.obj
 0002:0000188c       ??_C@_0BF@KINCDENJ@bad?5array?5new?5length@ 1002188c     LIBCMT:throw_bad_alloc.obj
 0002:000018a8       ??_7type_info@@6B@         100218a8     LIBCMT:std_type_info_static.obj
 0002:000018ac       _GUID_ATLVer110            100218ac     atls:atlbase.obj
 0002:000018c0       ??_C@_1IC@ONKHOIDK@?$AAE?$AAR?$AAR?$AAO?$AAR?$AA?5?$AA?3?$AA?5?$AAU?$AAn?$AAa?$AAb?$AAl?$AAe?$AA?5@ 100218c0     atls:atlbase.obj
 0002:00001944       ??_C@_0N@FJEPLCIH@atlthunk?4dll@ 10021944     atls:atlthunk.obj
 0002:00001954       ??_C@_0BG@GAKFHCBM@AtlThunk_AllocateData@ 10021954     atls:atlthunk.obj
 0002:0000196c       ??_C@_0BC@JKONFIAH@AtlThunk_InitData@ 1002196c     atls:atlthunk.obj
 0002:00001980       ??_C@_0BE@IAOEELAK@AtlThunk_DataToCode@ 10021980     atls:atlthunk.obj
 0002:00001994       ??_C@_0BC@GBGKAIPI@AtlThunk_FreeData@ 10021994     atls:atlthunk.obj
 0002:000019a8       __pDestructExceptionObject 100219a8     libvcruntime:ehhelpers.obj
 0002:000019b0       ??_7bad_exception@std@@6B@ 100219b0     libvcruntime:frame.obj
 0002:000019b8       ??_C@_0O@DPKOEFFH@bad?5exception@ 100219b8     libvcruntime:frame.obj
 0002:00001d48       ??_C@_08EHJDFFNH@__based?$CI@ 10021d48     libvcruntime:undname.obj
 0002:00001d54       ??_C@_07KOLFKCDI@__cdecl@  10021d54     libvcruntime:undname.obj
 0002:00001d5c       ??_C@_08GHMPAG@__pascal@   10021d5c     libvcruntime:undname.obj
 0002:00001d68       ??_C@_09IFJBGAPI@__stdcall@ 10021d68     libvcruntime:undname.obj
 0002:00001d74       ??_C@_0L@NPHFGOKO@__thiscall@ 10021d74     libvcruntime:undname.obj
 0002:00001d80       ??_C@_0L@JMKHOMEK@__fastcall@ 10021d80     libvcruntime:undname.obj
 0002:00001d8c       ??_C@_0N@BCKKPABJ@__vectorcall@ 10021d8c     libvcruntime:undname.obj
 0002:00001d9c       ??_C@_09HIJEGCPM@__clrcall@ 10021d9c     libvcruntime:undname.obj
 0002:00001da8       ??_C@_06GHPCKEAG@__eabi@   10021da8     libvcruntime:undname.obj
 0002:00001db0       ??_C@_09IOPIDJLG@__swift_1@ 10021db0     libvcruntime:undname.obj
 0002:00001dbc       ??_C@_09KFNFGKHF@__swift_2@ 10021dbc     libvcruntime:undname.obj
 0002:00001dc8       ??_C@_07JOMMBBKO@__ptr64@  10021dc8     libvcruntime:undname.obj
 0002:00001dd0       ??_C@_0L@PILCLIHE@__restrict@ 10021dd0     libvcruntime:undname.obj
 0002:00001ddc       ??_C@_0M@GFIIJFMG@__unaligned@ 10021ddc     libvcruntime:undname.obj
 0002:00001de8       ??_C@_09DHDLOLLB@restrict?$CI@ 10021de8     libvcruntime:undname.obj
 0002:00001df2       ??_C@_00CNPNBAHC@@         10021df2     libvcruntime:undname.obj
 0002:00001df4       ??_C@_04NIHEBCM@?5new@     10021df4     libvcruntime:undname.obj
 0002:00001dfc       ??_C@_07FPCDHGMM@?5delete@ 10021dfc     libvcruntime:undname.obj
 0002:00001e04       ??_C@_01NEMOKFLO@?$DN@     10021e04     libvcruntime:undname.obj
 0002:00001e08       ??_C@_02GPIOPFAK@?$DO?$DO@ 10021e08     libvcruntime:undname.obj
 0002:00001e0c       ??_C@_02FODMEDOG@?$DM?$DM@ 10021e0c     libvcruntime:undname.obj
 0002:00001e10       ??_C@_01DCLJPIOD@?$CB@     10021e10     libvcruntime:undname.obj
 0002:00001e14       ??_C@_02EGOFBIJA@?$DN?$DN@ 10021e14     libvcruntime:undname.obj
 0002:00001e18       ??_C@_02FDNJECIE@?$CB?$DN@ 10021e18     libvcruntime:undname.obj
 0002:00001e1c       ??_C@_02GPECMEKF@?$FL?$FN@ 10021e1c     libvcruntime:undname.obj
 0002:00001e20       ??_C@_08LHJFAFGD@operator@ 10021e20     libvcruntime:undname.obj
 0002:00001e2c       ??_C@_02HBOOOICD@?9?$DO@   10021e2c     libvcruntime:undname.obj
 0002:00001e30       ??_C@_01NBENCBCI@?$CK@     10021e30     libvcruntime:undname.obj
 0002:00001e34       ??_C@_02ECNGHCIF@?$CL?$CL@ 10021e34     libvcruntime:undname.obj
 0002:00001e38       ??_C@_02BAABKJLB@?9?9@     10021e38     libvcruntime:undname.obj
 0002:00001e3c       ??_C@_01JOAMLHOP@?9@       10021e3c     libvcruntime:undname.obj
 0002:00001e40       ??_C@_01MIFGBAGJ@?$CL@     10021e40     libvcruntime:undname.obj
 0002:00001e44       ??_C@_01HNPIGOCE@?$CG@     10021e44     libvcruntime:undname.obj
 0002:00001e48       ??_C@_03MNHNFDLC@?9?$DO?$CK@ 10021e48     libvcruntime:undname.obj
 0002:00001e4c       ??_C@_01KMDKNFGN@?1@       10021e4c     libvcruntime:undname.obj
 0002:00001e50       ??_C@_01FGNFDNOH@?$CF@     10021e50     libvcruntime:undname.obj
 0002:00001e54       ??_C@_01MNNFJEPP@?$DM@     10021e54     libvcruntime:undname.obj
 0002:00001e58       ??_C@_02EHCHHCKH@?$DM?$DN@ 10021e58     libvcruntime:undname.obj
 0002:00001e5c       ??_C@_01PPODPGHN@?$DO@     10021e5c     libvcruntime:undname.obj
 0002:00001e60       ??_C@_02EEKDKGMJ@?$DO?$DN@ 10021e60     libvcruntime:undname.obj
 0002:00001e64       ??_C@_01IHBHIGKO@?0@       10021e64     libvcruntime:undname.obj
 0002:00001e68       ??_C@_02HCKGKOFO@?$CI?$CJ@ 10021e68     libvcruntime:undname.obj
 0002:00001e6c       ??_C@_01PJKLJHI@?$HO@      10021e6c     libvcruntime:undname.obj
 0002:00001e70       ??_C@_01JKBOJNNK@?$FO@     10021e70     libvcruntime:undname.obj
 0002:00001e74       ??_C@_01DNKMNLPK@?$HM@     10021e74     libvcruntime:undname.obj
 0002:00001e78       ??_C@_02PPKAJPJL@?$CG?$CG@ 10021e78     libvcruntime:undname.obj
 0002:00001e7c       ??_C@_02NONPIBCD@?$HM?$HM@ 10021e7c     libvcruntime:undname.obj
 0002:00001e80       ??_C@_02FPIMKNGF@?$CK?$DN@ 10021e80     libvcruntime:undname.obj
 0002:00001e84       ??_C@_02FOEOMHFC@?$CL?$DN@ 10021e84     libvcruntime:undname.obj
 0002:00001e88       ??_C@_02FKMDLLOA@?9?$DN@   10021e88     libvcruntime:undname.obj
 0002:00001e8c       ??_C@_02FJEHGPIO@?1?$DN@   10021e8c     libvcruntime:undname.obj
 0002:00001e90       ??_C@_02FENAOKFI@?$CF?$DN@ 10021e90     libvcruntime:undname.obj
 0002:00001e94       ??_C@_03IKFCCPFF@?$DO?$DO?$DN@ 10021e94     libvcruntime:undname.obj
 0002:00001e98       ??_C@_03CDNPDDLA@?$DM?$DM?$DN@ 10021e98     libvcruntime:undname.obj
 0002:00001e9c       ??_C@_02FGJGFEAB@?$CG?$DN@ 10021e9c     libvcruntime:undname.obj
 0002:00001ea0       ??_C@_02DHLNPPGH@?$HM?$DN@ 10021ea0     libvcruntime:undname.obj
 0002:00001ea4       ??_C@_02MHEGNOJ@?$FO?$DN@  10021ea4     libvcruntime:undname.obj
 0002:00001ea8       ??_C@_09IFPLHPGF@?$GAvftable?8@ 10021ea8     libvcruntime:undname.obj
 0002:00001eb4       ??_C@_09BLBHBJP@?$GAvbtable?8@ 10021eb4     libvcruntime:undname.obj
 0002:00001ec0       ??_C@_07FEEIOKP@?$GAvcall?8@ 10021ec0     libvcruntime:undname.obj
 0002:00001ec8       ??_C@_08LLFFHHDJ@?$GAtypeof?8@ 10021ec8     libvcruntime:undname.obj
 0002:00001ed4       ??_C@_0BF@KDPPACIK@?$GAlocal?5static?5guard?8@ 10021ed4     libvcruntime:undname.obj
 0002:00001eec       ??_C@_08OBABFOLI@?$GAstring?8@ 10021eec     libvcruntime:undname.obj
 0002:00001ef8       ??_C@_0BD@JDLKDPAB@?$GAvbase?5destructor?8@ 10021ef8     libvcruntime:undname.obj
 0002:00001f0c       ??_C@_0BN@DEGPLNFK@?$GAvector?5deleting?5destructor?8@ 10021f0c     libvcruntime:undname.obj
 0002:00001f2c       ??_C@_0BO@OBMKPJIG@?$GAdefault?5constructor?5closure?8@ 10021f2c     libvcruntime:undname.obj
 0002:00001f4c       ??_C@_0BN@IMDCHIKM@?$GAscalar?5deleting?5destructor?8@ 10021f4c     libvcruntime:undname.obj
 0002:00001f6c       ??_C@_0BO@PFGOCPJJ@?$GAvector?5constructor?5iterator?8@ 10021f6c     libvcruntime:undname.obj
 0002:00001f8c       ??_C@_0BN@LFPFMEDL@?$GAvector?5destructor?5iterator?8@ 10021f8c     libvcruntime:undname.obj
 0002:00001fac       ??_C@_0CE@IKBNEHA@?$GAvector?5vbase?5constructor?5itera@ 10021fac     libvcruntime:undname.obj
 0002:00001fd0       ??_C@_0BL@NILFHHPC@?$GAvirtual?5displacement?5map?8@ 10021fd0     libvcruntime:undname.obj
 0002:00001fec       ??_C@_0CB@JONCMFFK@?$GAeh?5vector?5constructor?5iterator@ 10021fec     libvcruntime:undname.obj
 0002:00002010       ??_C@_0CA@GCEOPDGL@?$GAeh?5vector?5destructor?5iterator?8@ 10022010     libvcruntime:undname.obj
 0002:00002030       ??_C@_0CH@OOJPLCPH@?$GAeh?5vector?5vbase?5constructor?5it@ 10022030     libvcruntime:undname.obj
 0002:00002058       ??_C@_0BL@LLKPOHJI@?$GAcopy?5constructor?5closure?8@ 10022058     libvcruntime:undname.obj
 0002:00002074       ??_C@_0BA@KBCDOMBN@?$GAudt?5returning?8@ 10022074     libvcruntime:undname.obj
 0002:00002084       ??_C@_03KLGMFNMG@?$GAEH@   10022084     libvcruntime:undname.obj
 0002:00002088       ??_C@_05KHLCHHI@?$GARTTI@  10022088     libvcruntime:undname.obj
 0002:00002090       ??_C@_0BA@KKLDJDLB@?$GAlocal?5vftable?8@ 10022090     libvcruntime:undname.obj
 0002:000020a0       ??_C@_0CE@IIHCMGGL@?$GAlocal?5vftable?5constructor?5clos@ 100220a0     libvcruntime:undname.obj
 0002:000020c4       ??_C@_06FHBGPFGH@?5new?$FL?$FN@ 100220c4     libvcruntime:undname.obj
 0002:000020cc       ??_C@_09LBNFPBCA@?5delete?$FL?$FN@ 100220cc     libvcruntime:undname.obj
 0002:000020d8       ??_C@_0P@HJKNJFNN@?$GAomni?5callsig?8@ 100220d8     libvcruntime:undname.obj
 0002:000020e8       ??_C@_0BL@CNOONJFP@?$GAplacement?5delete?5closure?8@ 100220e8     libvcruntime:undname.obj
 0002:00002104       ??_C@_0BN@CKNJLHMB@?$GAplacement?5delete?$FL?$FN?5closure?8@ 10022104     libvcruntime:undname.obj
 0002:00002124       ??_C@_0CG@CFDHKGGD@?$GAmanaged?5vector?5constructor?5ite@ 10022124     libvcruntime:undname.obj
 0002:0000214c       ??_C@_0CF@IMGKMJNO@?$GAmanaged?5vector?5destructor?5iter@ 1002214c     libvcruntime:undname.obj
 0002:00002174       ??_C@_0CG@HLDDJMAG@?$GAeh?5vector?5copy?5constructor?5ite@ 10022174     libvcruntime:undname.obj
 0002:0000219c       ??_C@_0CM@FCBBDIGB@?$GAeh?5vector?5vbase?5copy?5construct@ 1002219c     libvcruntime:undname.obj
 0002:000021c8       ??_C@_0BL@CLIPGLGB@?$GAdynamic?5initializer?5for?5?8@ 100221c8     libvcruntime:undname.obj
 0002:000021e4       ??_C@_0CB@PDBIFEP@?$GAdynamic?5atexit?5destructor?5for?5@ 100221e4     libvcruntime:undname.obj
 0002:00002208       ??_C@_0CD@CGAJBKEJ@?$GAvector?5copy?5constructor?5iterat@ 10022208     libvcruntime:undname.obj
 0002:0000222c       ??_C@_0CJ@GJELGAMM@?$GAvector?5vbase?5copy?5constructor?5@ 1002222c     libvcruntime:undname.obj
 0002:00002258       ??_C@_0CL@FGIJHLCE@?$GAmanaged?5vector?5copy?5constructo@ 10022258     libvcruntime:undname.obj
 0002:00002284       ??_C@_0BM@PMGGMLDN@?$GAlocal?5static?5thread?5guard?8@ 10022284     libvcruntime:undname.obj
 0002:000022a0       ??_C@_0N@BDNMDMOL@operator?5?$CC?$CC?5@ 100222a0     libvcruntime:undname.obj
 0002:000022b0       ??_C@_0BC@GGEBGALA@operator?5co_await@ 100222b0     libvcruntime:undname.obj
 0002:000022c4       ??_C@_0M@GAAIMMOH@operator?$DM?$DN?$DO@ 100222c4     libvcruntime:undname.obj
 0002:000022d0       ??_C@_0BC@DAFEJGAK@?5Type?5Descriptor?8@ 100222d0     libvcruntime:undname.obj
 0002:000022e4       ??_C@_0BM@LDKODKLH@?5Base?5Class?5Descriptor?5at?5?$CI@ 100222e4     libvcruntime:undname.obj
 0002:00002300       ??_C@_0BD@LGICGFMM@?5Base?5Class?5Array?8@ 10022300     libvcruntime:undname.obj
 0002:00002314       ??_C@_0BN@MECKDCOJ@?5Class?5Hierarchy?5Descriptor?8@ 10022314     libvcruntime:undname.obj
 0002:00002334       ??_C@_0BK@CFCOFLF@?5Complete?5Object?5Locator?8@ 10022334     libvcruntime:undname.obj
 0002:00002350       ??_C@_0BG@JNJLAMPM@?$GAanonymous?5namespace?8@ 10022350     libvcruntime:undname.obj
 0002:00002374       ??_C@_1DM@KHCHBNEB@?$AAa?$AAp?$AAi?$AA?9?$AAm?$AAs?$AA?9?$AAw?$AAi?$AAn?$AA?9?$AAc?$AAo?$AAr?$AAe@ 10022374     libvcruntime:winapi_downlevel.obj
 0002:000023b0       ??_C@_1DK@LPPGFMPP@?$AAa?$AAp?$AAi?$AA?9?$AAm?$AAs?$AA?9?$AAw?$AAi?$AAn?$AA?9?$AAc?$AAo?$AAr?$AAe@ 100223b0     libvcruntime:winapi_downlevel.obj
 0002:000023ec       ??_C@_1BC@GDMECMAK@?$AAk?$AAe?$AAr?$AAn?$AAe?$AAl?$AA3?$AA2@ 100223ec     libvcruntime:winapi_downlevel.obj
 0002:00002400       ??_C@_1BA@PFFKHIOG@?$AAa?$AAp?$AAi?$AA?9?$AAm?$AAs?$AA?9@ 10022400     libvcruntime:winapi_downlevel.obj
 0002:00002418       ??_C@_08KNHFBNJ@FlsAlloc@  10022418     libvcruntime:winapi_downlevel.obj
 0002:0000242c       ??_C@_07PEJMOBNF@FlsFree@  1002242c     libvcruntime:winapi_downlevel.obj
 0002:0000243c       ??_C@_0M@GDNOONDI@FlsGetValue@ 1002243c     libvcruntime:winapi_downlevel.obj
 0002:00002450       ??_C@_0M@JCPCPOEF@FlsSetValue@ 10022450     libvcruntime:winapi_downlevel.obj
 0002:00002464       ??_C@_0BM@HCFOFFN@InitializeCriticalSectionEx@ 10022464     libvcruntime:winapi_downlevel.obj
 0002:000025e8       ?format_validation_lookup_table_spectre@__crt_stdio_output@@3V?$spectre_mitigated_lookup_table@Ustate_transition_pair@__crt_stdio_output@@$0IA@@1@B 100225e8     libucrt:output.obj
 0002:000029e8       ??_C@_1O@CEDCILHN@?$AA?$CI?$AAn?$AAu?$AAl?$AAl?$AA?$CJ@ 100229e8     libucrt:output.obj
 0002:000029f8       ??_C@_06OJHGLDPL@?$CInull?$CJ@ 100229f8     libucrt:output.obj
 0002:00002a00       ___acrt_exception_action_table 10022a00     libucrt:exception_filter.obj
 0002:00002a90       ___acrt_signal_action_table_count 10022a90     libucrt:exception_filter.obj
 0002:00002a94       ___acrt_signal_action_first_fpe_index 10022a94     libucrt:exception_filter.obj
 0002:00002a98       ___acrt_signal_action_fpe_count 10022a98     libucrt:exception_filter.obj
 0002:00002a9c       ??_C@_1BI@BGOHAHKC@?$AAm?$AAs?$AAc?$AAo?$AAr?$AAe?$AAe?$AA?4?$AAd?$AAl?$AAl@ 10022a9c     libucrt:exit.obj
 0002:00002ab4       ??_C@_0P@MIGLKIOC@CorExitProcess@ 10022ab4     libucrt:exit.obj
 0002:00002b98       ??_C@_1EA@JGEFHKEI@?$AAa?$AAp?$AAi?$AA?9?$AAm?$AAs?$AA?9?$AAw?$AAi?$AAn?$AA?9?$AAc?$AAo?$AAr?$AAe@ 10022b98     libucrt:winapi_thunks.obj
 0002:00002bd8       ??_C@_1DI@IJCEHOCB@?$AAa?$AAp?$AAi?$AA?9?$AAm?$AAs?$AA?9?$AAw?$AAi?$AAn?$AA?9?$AAc?$AAo?$AAr?$AAe@ 10022bd8     libucrt:winapi_thunks.obj
 0002:00002c10       ??_C@_1EI@MPIAOHOC@?$AAa?$AAp?$AAi?$AA?9?$AAm?$AAs?$AA?9?$AAw?$AAi?$AAn?$AA?9?$AAc?$AAo?$AAr?$AAe@ 10022c10     libucrt:winapi_thunks.obj
 0002:00002c58       ??_C@_1FK@FPHCKFIE@?$AAa?$AAp?$AAi?$AA?9?$AAm?$AAs?$AA?9?$AAw?$AAi?$AAn?$AA?9?$AAc?$AAo?$AAr?$AAe@ 10022c58     libucrt:winapi_thunks.obj
 0002:00002cb8       ??_C@_1EM@DILCGIIO@?$AAa?$AAp?$AAi?$AA?9?$AAm?$AAs?$AA?9?$AAw?$AAi?$AAn?$AA?9?$AAc?$AAo?$AAr?$AAe@ 10022cb8     libucrt:winapi_thunks.obj
 0002:00002d04       ??_C@_1DM@LNCGDDPN@?$AAa?$AAp?$AAi?$AA?9?$AAm?$AAs?$AA?9?$AAw?$AAi?$AAn?$AA?9?$AAc?$AAo?$AAr?$AAe@ 10022d04     libucrt:winapi_thunks.obj
 0002:00002d40       ??_C@_1DO@FPAPJEMD@?$AAa?$AAp?$AAi?$AA?9?$AAm?$AAs?$AA?9?$AAw?$AAi?$AAn?$AA?9?$AAc?$AAo?$AAr?$AAe@ 10022d40     libucrt:winapi_thunks.obj
 0002:00002d80       ??_C@_1DK@NDHNAHIO@?$AAa?$AAp?$AAi?$AA?9?$AAm?$AAs?$AA?9?$AAw?$AAi?$AAn?$AA?9?$AAc?$AAo?$AAr?$AAe@ 10022d80     libucrt:winapi_thunks.obj
 0002:00002dbc       ??_C@_1DM@KGHDGBCM@?$AAa?$AAp?$AAi?$AA?9?$AAm?$AAs?$AA?9?$AAw?$AAi?$AAn?$AA?9?$AAc?$AAo?$AAr?$AAe@ 10022dbc     libucrt:winapi_thunks.obj
 0002:00002df8       ??_C@_1EO@IJIOEFOH@?$AAa?$AAp?$AAi?$AA?9?$AAm?$AAs?$AA?9?$AAw?$AAi?$AAn?$AA?9?$AAr?$AAt?$AAc?$AAo@ 10022df8     libucrt:winapi_thunks.obj
 0002:00002e48       ??_C@_1FG@HHGEKANL@?$AAa?$AAp?$AAi?$AA?9?$AAm?$AAs?$AA?9?$AAw?$AAi?$AAn?$AA?9?$AAs?$AAe?$AAc?$AAu@ 10022e48     libucrt:winapi_thunks.obj
 0002:00002ea0       ??_C@_1EG@DBIOJECG@?$AAe?$AAx?$AAt?$AA?9?$AAm?$AAs?$AA?9?$AAw?$AAi?$AAn?$AA?9?$AAn?$AAt?$AAu?$AAs@ 10022ea0     libucrt:winapi_thunks.obj
 0002:00002ee8       ??_C@_1EO@FIHMJCLF@?$AAe?$AAx?$AAt?$AA?9?$AAm?$AAs?$AA?9?$AAw?$AAi?$AAn?$AA?9?$AAn?$AAt?$AAu?$AAs@ 10022ee8     libucrt:winapi_thunks.obj
 0002:00002f38       ??_C@_1BC@DNHGCMLG@?$AAa?$AAd?$AAv?$AAa?$AAp?$AAi?$AA3?$AA2@ 10022f38     libucrt:winapi_thunks.obj
 0002:00002f4c       ??_C@_1M@OAIMIKLP@?$AAn?$AAt?$AAd?$AAl?$AAl@ 10022f4c     libucrt:winapi_thunks.obj
 0002:00002f58       ??_C@_1EG@DPGNFKGC@?$AAa?$AAp?$AAi?$AA?9?$AAm?$AAs?$AA?9?$AAw?$AAi?$AAn?$AA?9?$AAa?$AAp?$AAp?$AAm@ 10022f58     libucrt:winapi_thunks.obj
 0002:00002fa0       ??_C@_1O@BCCLBEOE@?$AAu?$AAs?$AAe?$AAr?$AA3?$AA2@ 10022fa0     libucrt:winapi_thunks.obj
 0002:00002fb0       ??_C@_1BA@IAIFMGEF@?$AAe?$AAx?$AAt?$AA?9?$AAm?$AAs?$AA?9@ 10022fb0     libucrt:winapi_thunks.obj
 0002:00002fc4       ??_C@_0BA@FHFNEAED@AreFileApisANSI@ 10022fc4     libucrt:winapi_thunks.obj
 0002:00003004       ??_C@_0O@KKBNKAPF@LCMapStringEx@ 10023004     libucrt:winapi_thunks.obj
 0002:0000301c       ??_C@_0BB@HBDEELFH@LocaleNameToLCID@ 1002301c     libucrt:winapi_thunks.obj
 0002:00003034       ??_C@_0CF@OJOFEIGO@AppPolicyGetProcessTerminationM@ 10023034     libucrt:winapi_thunks.obj
 0002:00003064       ??_C@_0BI@BKLFFAPO@SetThreadStackGuarantee@ 10023064     libucrt:winapi_thunks.obj
 0002:000030c0       ??_C@_03OEIAHPBN@INF@      100230c0     libucrt:cvt.obj
 0002:000030c4       ??_C@_03OJHLLCGB@inf@      100230c4     libucrt:cvt.obj
 0002:000030c8       ??_C@_03LKNCIKJB@NAN@      100230c8     libucrt:cvt.obj
 0002:000030cc       ??_C@_03LHCJEHON@nan@      100230cc     libucrt:cvt.obj
 0002:000030d0       ??_C@_09OFJJIMPC@NAN?$CISNAN?$CJ@ 100230d0     libucrt:cvt.obj
 0002:000030dc       ??_C@_09IPFBKMDL@nan?$CIsnan?$CJ@ 100230dc     libucrt:cvt.obj
 0002:000030e8       ??_C@_08IKHNHAJ@NAN?$CIIND?$CJ@ 100230e8     libucrt:cvt.obj
 0002:000030f4       ??_C@_08OFCDMILK@nan?$CIind?$CJ@ 100230f4     libucrt:cvt.obj
 0002:00003100       ??_C@_05KLBDPFGC@e?$CL000@ 10023100     libucrt:cvt.obj
 0002:00003108       ___lc_time_c               10023108     libucrt:nlsdata.obj
 0002:0000326c       ??_C@_03KOEHGMDN@Sun@      1002326c     libucrt:nlsdata.obj
 0002:00003270       ??_C@_03PDAGKDH@Mon@       10023270     libucrt:nlsdata.obj
 0002:00003274       ??_C@_03NAGEINEP@Tue@      10023274     libucrt:nlsdata.obj
 0002:00003278       ??_C@_03MHOMLAJA@Wed@      10023278     libucrt:nlsdata.obj
 0002:0000327c       ??_C@_03IOFIKPDN@Thu@      1002327c     libucrt:nlsdata.obj
 0002:00003280       ??_C@_03IDIOELNC@Fri@      10023280     libucrt:nlsdata.obj
 0002:00003284       ??_C@_03FEFJNEK@Sat@       10023284     libucrt:nlsdata.obj
 0002:00003288       ??_C@_06OOPIFAJ@Sunday@    10023288     libucrt:nlsdata.obj
 0002:00003290       ??_C@_06JLEDEDGH@Monday@   10023290     libucrt:nlsdata.obj
 0002:00003298       ??_C@_07BAAGCFCM@Tuesday@  10023298     libucrt:nlsdata.obj
 0002:000032a0       ??_C@_09DLIGFAKA@Wednesday@ 100232a0     libucrt:nlsdata.obj
 0002:000032ac       ??_C@_08HACCIKIA@Thursday@ 100232ac     libucrt:nlsdata.obj
 0002:000032b8       ??_C@_06JECMNKMI@Friday@   100232b8     libucrt:nlsdata.obj
 0002:000032c0       ??_C@_08INBOOONO@Saturday@ 100232c0     libucrt:nlsdata.obj
 0002:000032cc       ??_C@_03JIHJHPIE@Jan@      100232cc     libucrt:nlsdata.obj
 0002:000032d0       ??_C@_03HJBDCHOM@Feb@      100232d0     libucrt:nlsdata.obj
 0002:000032d4       ??_C@_03ODNJBKGA@Mar@      100232d4     libucrt:nlsdata.obj
 0002:000032d8       ??_C@_03LEOLGMJP@Apr@      100232d8     libucrt:nlsdata.obj
 0002:000032dc       ??_C@_03CNMDKL@May@        100232dc     libucrt:nlsdata.obj
 0002:000032e0       ??_C@_03IDFGHECI@Jun@      100232e0     libucrt:nlsdata.obj
 0002:000032e4       ??_C@_03LBGABGKK@Jul@      100232e4     libucrt:nlsdata.obj
 0002:000032e8       ??_C@_03IFJFEIGA@Aug@      100232e8     libucrt:nlsdata.obj
 0002:000032ec       ??_C@_03GGCAPAJC@Sep@      100232ec     libucrt:nlsdata.obj
 0002:000032f0       ??_C@_03BMAOKBAD@Oct@      100232f0     libucrt:nlsdata.obj
 0002:000032f4       ??_C@_03JPJOFNIA@Nov@      100232f4     libucrt:nlsdata.obj
 0002:000032f8       ??_C@_03MKABNOCG@Dec@      100232f8     libucrt:nlsdata.obj
 0002:000032fc       ??_C@_07CGJPFGJA@January@  100232fc     libucrt:nlsdata.obj
 0002:00003304       ??_C@_08GNJGEPFN@February@ 10023304     libucrt:nlsdata.obj
 0002:00003310       ??_C@_05HPCKOFNC@March@    10023310     libucrt:nlsdata.obj
 0002:00003318       ??_C@_05DMJDNLEJ@April@    10023318     libucrt:nlsdata.obj
 0002:00003320       ??_C@_04CNLMGBGM@June@     10023320     libucrt:nlsdata.obj
 0002:00003328       ??_C@_04MIEPOIFP@July@     10023328     libucrt:nlsdata.obj
 0002:00003330       ??_C@_06LBBHFDDG@August@   10023330     libucrt:nlsdata.obj
 0002:00003338       ??_C@_09BHHEALKD@September@ 10023338     libucrt:nlsdata.obj
 0002:00003344       ??_C@_07JJNFCEND@October@  10023344     libucrt:nlsdata.obj
 0002:0000334c       ??_C@_08HCHEGEOA@November@ 1002334c     libucrt:nlsdata.obj
 0002:00003358       ??_C@_08EDHMEBNP@December@ 10023358     libucrt:nlsdata.obj
 0002:00003364       ??_C@_02DEDBPAFC@AM@       10023364     libucrt:nlsdata.obj
 0002:00003368       ??_C@_02CJNFDJBF@PM@       10023368     libucrt:nlsdata.obj
 0002:0000336c       ??_C@_08BPBNCDIB@MM?1dd?1yy@ 1002336c     libucrt:nlsdata.obj
 0002:00003378       ??_C@_0BE@CKGJFCPC@dddd?0?5MMMM?5dd?0?5yyyy@ 10023378     libucrt:nlsdata.obj
 0002:0000338c       ??_C@_08JCCMCCIL@HH?3mm?3ss@ 1002338c     libucrt:nlsdata.obj
 0002:00003398       ??_C@_17MBGCMIPB@?$AAS?$AAu?$AAn@ 10023398     libucrt:nlsdata.obj
 0002:000033a0       ??_C@_17KBOMKBF@?$AAM?$AAo?$AAn@ 100233a0     libucrt:nlsdata.obj
 0002:000033a8       ??_C@_17BMKGEGOJ@?$AAT?$AAu?$AAe@ 100233a8     libucrt:nlsdata.obj
 0002:000033b0       ??_C@_17CJEDCEPE@?$AAW?$AAe?$AAd@ 100233b0     libucrt:nlsdata.obj
 0002:000033b8       ??_C@_17PDPHAADD@?$AAT?$AAh?$AAu@ 100233b8     libucrt:nlsdata.obj
 0002:000033c0       ??_C@_17HFOLPPLP@?$AAF?$AAr?$AAi@ 100233c0     libucrt:nlsdata.obj
 0002:000033c8       ??_C@_17GGIBDPIH@?$AAS?$AAa?$AAt@ 100233c8     libucrt:nlsdata.obj
 0002:000033d0       ??_C@_1O@IHNHDHPB@?$AAS?$AAu?$AAn?$AAd?$AAa?$AAy@ 100233d0     libucrt:nlsdata.obj
 0002:000033e0       ??_C@_1O@MMNBFLIA@?$AAM?$AAo?$AAn?$AAd?$AAa?$AAy@ 100233e0     libucrt:nlsdata.obj
 0002:000033f0       ??_C@_1BA@ENFBFFEK@?$AAT?$AAu?$AAe?$AAs?$AAd?$AAa?$AAy@ 100233f0     libucrt:nlsdata.obj
 0002:00003400       ??_C@_1BE@EBOGMDOH@?$AAW?$AAe?$AAd?$AAn?$AAe?$AAs?$AAd?$AAa?$AAy@ 10023400     libucrt:nlsdata.obj
 0002:00003414       ??_C@_1BC@HHMNLIHE@?$AAT?$AAh?$AAu?$AAr?$AAs?$AAd?$AAa?$AAy@ 10023414     libucrt:nlsdata.obj
 0002:00003428       ??_C@_1O@PDICJHAG@?$AAF?$AAr?$AAi?$AAd?$AAa?$AAy@ 10023428     libucrt:nlsdata.obj
 0002:00003438       ??_C@_1BC@ENMNNPAJ@?$AAS?$AAa?$AAt?$AAu?$AAr?$AAd?$AAa?$AAy@ 10023438     libucrt:nlsdata.obj
 0002:0000344c       ??_C@_17DKNBKCHM@?$AAJ?$AAa?$AAn@ 1002344c     libucrt:nlsdata.obj
 0002:00003454       ??_C@_17LMDJEKJN@?$AAF?$AAe?$AAb@ 10023454     libucrt:nlsdata.obj
 0002:0000345c       ??_C@_17CKNLEDEC@?$AAM?$AAa?$AAr@ 1002345c     libucrt:nlsdata.obj
 0002:00003464       ??_C@_17LFPOIHDD@?$AAA?$AAp?$AAr@ 10023464     libucrt:nlsdata.obj
 0002:0000346c       ??_C@_17PNNKMEED@?$AAM?$AAa?$AAy@ 1002346c     libucrt:nlsdata.obj
 0002:00003474       ??_C@_17KCJGOCPB@?$AAJ?$AAu?$AAn@ 10023474     libucrt:nlsdata.obj
 0002:0000347c       ??_C@_17IJPCKHK@?$AAJ?$AAu?$AAl@ 1002347c     libucrt:nlsdata.obj
 0002:00003484       ??_C@_17ICPELBCN@?$AAA?$AAu?$AAg@ 10023484     libucrt:nlsdata.obj
 0002:0000348c       ??_C@_17HCHCOKMG@?$AAS?$AAe?$AAp@ 1002348c     libucrt:nlsdata.obj
 0002:00003494       ??_C@_17FNLKOI@?$AAO?$AAc?$AAt@ 10023494     libucrt:nlsdata.obj
 0002:0000349c       ??_C@_17BBDMLCIG@?$AAN?$AAo?$AAv@ 1002349c     libucrt:nlsdata.obj
 0002:000034a4       ??_C@_17EGKACKIF@?$AAD?$AAe?$AAc@ 100234a4     libucrt:nlsdata.obj
 0002:000034ac       ??_C@_1BA@EFMEIEBA@?$AAJ?$AAa?$AAn?$AAu?$AAa?$AAr?$AAy@ 100234ac     libucrt:nlsdata.obj
 0002:000034bc       ??_C@_1BC@JGDDFFAM@?$AAF?$AAe?$AAb?$AAr?$AAu?$AAa?$AAr?$AAy@ 100234bc     libucrt:nlsdata.obj
 0002:000034d0       ??_C@_1M@IKEENEDF@?$AAM?$AAa?$AAr?$AAc?$AAh@ 100234d0     libucrt:nlsdata.obj
 0002:000034dc       ??_C@_1M@GJNLMHFD@?$AAA?$AAp?$AAr?$AAi?$AAl@ 100234dc     libucrt:nlsdata.obj
 0002:000034e8       ??_C@_19EPFLPGAP@?$AAJ?$AAu?$AAn?$AAe@ 100234e8     libucrt:nlsdata.obj
 0002:000034f4       ??_C@_19BIFMLPCD@?$AAJ?$AAu?$AAl?$AAy@ 100234f4     libucrt:nlsdata.obj
 0002:00003500       ??_C@_1O@PAHLKOAC@?$AAA?$AAu?$AAg?$AAu?$AAs?$AAt@ 10023500     libucrt:nlsdata.obj
 0002:00003510       ??_C@_1BE@DKAAMBJL@?$AAS?$AAe?$AAp?$AAt?$AAe?$AAm?$AAb?$AAe?$AAr@ 10023510     libucrt:nlsdata.obj
 0002:00003524       ??_C@_1BA@EPANDLNG@?$AAO?$AAc?$AAt?$AAo?$AAb?$AAe?$AAr@ 10023524     libucrt:nlsdata.obj
 0002:00003534       ??_C@_1BC@BGLIFPF@?$AAN?$AAo?$AAv?$AAe?$AAm?$AAb?$AAe?$AAr@ 10023534     libucrt:nlsdata.obj
 0002:00003548       ??_C@_1BC@FEMKIFH@?$AAD?$AAe?$AAc?$AAe?$AAm?$AAb?$AAe?$AAr@ 10023548     libucrt:nlsdata.obj
 0002:0000355c       ??_C@_15ODEHAHHF@?$AAA?$AAM@ 1002355c     libucrt:nlsdata.obj
 0002:00003564       ??_C@_15CLMNNGEL@?$AAP?$AAM@ 10023564     libucrt:nlsdata.obj
 0002:0000356c       ??_C@_1BC@IEBCMHCM@?$AAM?$AAM?$AA?1?$AAd?$AAd?$AA?1?$AAy?$AAy@ 1002356c     libucrt:nlsdata.obj
 0002:00003580       ??_C@_1CI@KNAKOEBC@?$AAd?$AAd?$AAd?$AAd?$AA?0?$AA?5?$AAM?$AAM?$AAM?$AAM?$AA?5?$AAd?$AAd?$AA?0?$AA?5@ 10023580     libucrt:nlsdata.obj
 0002:000035a8       ??_C@_1BC@GDGBMEMK@?$AAH?$AAH?$AA?3?$AAm?$AAm?$AA?3?$AAs?$AAs@ 100235a8     libucrt:nlsdata.obj
 0002:000035bc       ??_C@_1M@BMHNFIME@?$AAe?$AAn?$AA?9?$AAU?$AAS@ 100235bc     libucrt:nlsdata.obj
 0002:000035d8       ??_C@_1M@HPNHIDJI@?$AAj?$AAa?$AA?9?$AAJ?$AAP@ 100235d8     libucrt:mbctype.obj
 0002:000035e4       ??_C@_1M@BIBDDEMK@?$AAz?$AAh?$AA?9?$AAC?$AAN@ 100235e4     libucrt:mbctype.obj
 0002:000035f0       ??_C@_1M@JLOOOEGK@?$AAk?$AAo?$AA?9?$AAK?$AAR@ 100235f0     libucrt:mbctype.obj
 0002:000035fc       ??_C@_1M@CLNBBOPM@?$AAz?$AAh?$AA?9?$AAT?$AAW@ 100235fc     libucrt:mbctype.obj
 0002:00003608       ___newctype                10023608     libucrt:ctype.obj
 0002:00003908       ___newclmap                10023908     libucrt:ctype.obj
 0002:00003a88       ___newcumap                10023a88     libucrt:ctype.obj
 0002:00003c08       __wctype                   10023c08     libucrt:ctype.obj
 0002:00004530       ??_C@_15EMKDOKLE@?$AAa?$AAr@ 10024530     libucrt:lcidtoname_downlevel.obj
 0002:00004538       ??_C@_15KNPADPLH@?$AAb?$AAg@ 10024538     libucrt:lcidtoname_downlevel.obj
 0002:00004540       ??_C@_15EDMHLDMO@?$AAc?$AAa@ 10024540     libucrt:lcidtoname_downlevel.obj
 0002:00004548       ??_C@_1O@BPEAJADD@?$AAz?$AAh?$AA?9?$AAC?$AAH?$AAS@ 10024548     libucrt:lcidtoname_downlevel.obj
 0002:00004558       ??_C@_15LJNHCMNK@?$AAc?$AAs@ 10024558     libucrt:lcidtoname_downlevel.obj
 0002:00004560       ??_C@_15FOMCIDHG@?$AAd?$AAa@ 10024560     libucrt:lcidtoname_downlevel.obj
 0002:00004568       ??_C@_15NBKABECB@?$AAd?$AAe@ 10024568     libucrt:lcidtoname_downlevel.obj
 0002:00004570       ??_C@_15GHPEIIAO@?$AAe?$AAl@ 10024570     libucrt:lcidtoname_downlevel.obj
 0002:00004578       ??_C@_15MNPNEAIF@?$AAe?$AAn@ 10024578     libucrt:lcidtoname_downlevel.obj
 0002:00004580       ??_C@_15GPIOMPMH@?$AAe?$AAs@ 10024580     libucrt:lcidtoname_downlevel.obj
 0002:00004588       ??_C@_15NGLOAKJC@?$AAf?$AAi@ 10024588     libucrt:lcidtoname_downlevel.obj
 0002:00004590       ??_C@_15FBKGNKAM@?$AAf?$AAr@ 10024590     libucrt:lcidtoname_downlevel.obj
 0002:00004598       ??_C@_15KGGCNEFK@?$AAh?$AAe@ 10024598     libucrt:lcidtoname_downlevel.obj
 0002:000045a0       ??_C@_15PGHLIDMF@?$AAh?$AAu@ 100245a0     libucrt:lcidtoname_downlevel.obj
 0002:000045a8       ??_C@_15BIEMAPLM@?$AAi?$AAs@ 100245a8     libucrt:lcidtoname_downlevel.obj
 0002:000045b0       ??_C@_15IFJLDHAF@?$AAi?$AAt@ 100245b0     libucrt:lcidtoname_downlevel.obj
 0002:000045b8       ??_C@_15GEMIOCAG@?$AAj?$AAa@ 100245b8     libucrt:lcidtoname_downlevel.obj
 0002:000045c0       ??_C@_15EPELEGJA@?$AAk?$AAo@ 100245c0     libucrt:lcidtoname_downlevel.obj
 0002:000045c8       ??_C@_15NDDHIMN@?$AAn?$AAl@ 100245c8     libucrt:lcidtoname_downlevel.obj
 0002:000045d0       ??_C@_15BPIGNHCD@?$AAn?$AAo@ 100245d0     libucrt:lcidtoname_downlevel.obj
 0002:000045d8       ??_C@_15DEOPBLCG@?$AAp?$AAl@ 100245d8     libucrt:lcidtoname_downlevel.obj
 0002:000045e0       ??_C@_15KBECGEFG@?$AAp?$AAt@ 100245e0     libucrt:lcidtoname_downlevel.obj
 0002:000045e8       ??_C@_15GLJCBFMD@?$AAr?$AAo@ 100245e8     libucrt:lcidtoname_downlevel.obj
 0002:000045f0       ??_C@_15FEDGKCDI@?$AAr?$AAu@ 100245f0     libucrt:lcidtoname_downlevel.obj
 0002:000045f8       ??_C@_15GLKMLLHM@?$AAh?$AAr@ 100245f8     libucrt:lcidtoname_downlevel.obj
 0002:00004600       ??_C@_15CPKMFBDB@?$AAs?$AAk@ 10024600     libucrt:lcidtoname_downlevel.obj
 0002:00004608       ??_C@_15BAAIOGMK@?$AAs?$AAq@ 10024608     libucrt:lcidtoname_downlevel.obj
 0002:00004610       ??_C@_15INNPNOHD@?$AAs?$AAv@ 10024610     libucrt:lcidtoname_downlevel.obj
 0002:00004618       ??_C@_15CABMMOGH@?$AAt?$AAh@ 10024618     libucrt:lcidtoname_downlevel.obj
 0002:00004620       ??_C@_15BPLIHJJM@?$AAt?$AAr@ 10024620     libucrt:lcidtoname_downlevel.obj
 0002:00004628       ??_C@_15NEOEKKDJ@?$AAu?$AAr@ 10024628     libucrt:lcidtoname_downlevel.obj
 0002:00004630       ??_C@_15NFICGAJK@?$AAi?$AAd@ 10024630     libucrt:lcidtoname_downlevel.obj
 0002:00004638       ??_C@_15PJPFLCCM@?$AAu?$AAk@ 10024638     libucrt:lcidtoname_downlevel.obj
 0002:00004640       ??_C@_15HPJPHDM@?$AAb?$AAe@ 10024640     libucrt:lcidtoname_downlevel.obj
 0002:00004648       ??_C@_15LCHLGJII@?$AAs?$AAl@ 10024648     libucrt:lcidtoname_downlevel.obj
 0002:00004650       ??_C@_15PCFJPHHO@?$AAe?$AAt@ 10024650     libucrt:lcidtoname_downlevel.obj
 0002:00004658       ??_C@_15HPFPGODN@?$AAl?$AAv@ 10024658     libucrt:lcidtoname_downlevel.obj
 0002:00004660       ??_C@_15NFFGKGLG@?$AAl?$AAt@ 10024660     libucrt:lcidtoname_downlevel.obj
 0002:00004668       ??_C@_15BDAKCCHN@?$AAf?$AAa@ 10024668     libucrt:lcidtoname_downlevel.obj
 0002:00004670       ??_C@_15NFGIAIAJ@?$AAv?$AAi@ 10024670     libucrt:lcidtoname_downlevel.obj
 0002:00004678       ??_C@_15LMKNDMHN@?$AAh?$AAy@ 10024678     libucrt:lcidtoname_downlevel.obj
 0002:00004680       ??_C@_15IJBHMCFL@?$AAa?$AAz@ 10024680     libucrt:lcidtoname_downlevel.obj
 0002:00004688       ??_C@_15EKOFJABL@?$AAe?$AAu@ 10024688     libucrt:lcidtoname_downlevel.obj
 0002:00004690       ??_C@_15BGHADCNK@?$AAm?$AAk@ 10024690     libucrt:lcidtoname_downlevel.obj
 0002:00004698       ??_C@_15JDNICKHM@?$AAa?$AAf@ 10024698     libucrt:lcidtoname_downlevel.obj
 0002:000046a0       ??_C@_15KPJEDBKD@?$AAk?$AAa@ 100246a0     libucrt:lcidtoname_downlevel.obj
 0002:000046a8       ??_C@_15PDNFFFEO@?$AAf?$AAo@ 100246a8     libucrt:lcidtoname_downlevel.obj
 0002:000046b0       ??_C@_15OMLEGLOC@?$AAh?$AAi@ 100246b0     libucrt:lcidtoname_downlevel.obj
 0002:000046b8       ??_C@_15IDNNENKK@?$AAm?$AAs@ 100246b8     libucrt:lcidtoname_downlevel.obj
 0002:000046c0       ??_C@_15MACJNBMH@?$AAk?$AAk@ 100246c0     libucrt:lcidtoname_downlevel.obj
 0002:000046c8       ??_C@_15DKDJEOND@?$AAk?$AAy@ 100246c8     libucrt:lcidtoname_downlevel.obj
 0002:000046d0       ??_C@_15DFGDLJBG@?$AAs?$AAw@ 100246d0     libucrt:lcidtoname_downlevel.obj
 0002:000046d8       ??_C@_15BBFAICNG@?$AAu?$AAz@ 100246d8     libucrt:lcidtoname_downlevel.obj
 0002:000046e0       ??_C@_15DKNDCGEA@?$AAt?$AAt@ 100246e0     libucrt:lcidtoname_downlevel.obj
 0002:000046e8       ??_C@_15MGIFMDPL@?$AAp?$AAa@ 100246e8     libucrt:lcidtoname_downlevel.obj
 0002:000046f0       ??_C@_15HCNDBBA@?$AAg?$AAu@ 100246f0     libucrt:lcidtoname_downlevel.obj
 0002:000046f8       ??_C@_15FNBEIBON@?$AAt?$AAa@ 100246f8     libucrt:lcidtoname_downlevel.obj
 0002:00004700       ??_C@_15NCHGBGLK@?$AAt?$AAe@ 10024700     libucrt:lcidtoname_downlevel.obj
 0002:00004708       ??_C@_15PHPHCBPF@?$AAk?$AAn@ 10024708     libucrt:lcidtoname_downlevel.obj
 0002:00004710       ??_C@_15DLGBCKMP@?$AAm?$AAr@ 10024710     libucrt:lcidtoname_downlevel.obj
 0002:00004718       ??_C@_15EABBLBFF@?$AAs?$AAa@ 10024718     libucrt:lcidtoname_downlevel.obj
 0002:00004720       ??_C@_15CBKOMCOI@?$AAm?$AAn@ 10024720     libucrt:lcidtoname_downlevel.obj
 0002:00004728       ??_C@_15CKDMCJAF@?$AAg?$AAl@ 10024728     libucrt:lcidtoname_downlevel.obj
 0002:00004730       ??_C@_17CNJFBPG@?$AAk?$AAo?$AAk@ 10024730     libucrt:lcidtoname_downlevel.obj
 0002:00004738       ??_C@_17FFBJICPL@?$AAs?$AAy?$AAr@ 10024738     libucrt:lcidtoname_downlevel.obj
 0002:00004740       ??_C@_17KPNDCPAF@?$AAd?$AAi?$AAv@ 10024740     libucrt:lcidtoname_downlevel.obj
 0002:00004748       ??_C@_1M@OKAHONE@?$AAa?$AAr?$AA?9?$AAS?$AAA@ 10024748     libucrt:lcidtoname_downlevel.obj
 0002:00004754       ??_C@_1M@FFFIGIGK@?$AAb?$AAg?$AA?9?$AAB?$AAG@ 10024754     libucrt:lcidtoname_downlevel.obj
 0002:00004760       ??_C@_1M@BJNKEDC@?$AAc?$AAa?$AA?9?$AAE?$AAS@ 10024760     libucrt:lcidtoname_downlevel.obj
 0002:0000476c       ??_C@_1M@IJJHFJHA@?$AAc?$AAs?$AA?9?$AAC?$AAZ@ 1002476c     libucrt:lcidtoname_downlevel.obj
 0002:00004778       ??_C@_1M@CLPEOBGI@?$AAd?$AAa?$AA?9?$AAD?$AAK@ 10024778     libucrt:lcidtoname_downlevel.obj
 0002:00004784       ??_C@_1M@MCMADGCB@?$AAd?$AAe?$AA?9?$AAD?$AAE@ 10024784     libucrt:lcidtoname_downlevel.obj
 0002:00004790       ??_C@_1M@OOCKEMAM@?$AAe?$AAl?$AA?9?$AAG?$AAR@ 10024790     libucrt:lcidtoname_downlevel.obj
 0002:0000479c       ??_C@_1M@DDNJFGID@?$AAf?$AAi?$AA?9?$AAF?$AAI@ 1002479c     libucrt:lcidtoname_downlevel.obj
 0002:000047a8       ??_C@_1M@GLIPPMAC@?$AAf?$AAr?$AA?9?$AAF?$AAR@ 100247a8     libucrt:lcidtoname_downlevel.obj
 0002:000047b4       ??_C@_1M@GFMCHPE@?$AAh?$AAe?$AA?9?$AAI?$AAL@ 100247b4     libucrt:lcidtoname_downlevel.obj
 0002:000047c0       ??_C@_1M@MHLPGNKM@?$AAh?$AAu?$AA?9?$AAH?$AAU@ 100247c0     libucrt:lcidtoname_downlevel.obj
 0002:000047cc       ??_C@_1M@LPDDNNPN@?$AAi?$AAs?$AA?9?$AAI?$AAS@ 100247cc     libucrt:lcidtoname_downlevel.obj
 0002:000047d8       ??_C@_1M@MADIPODN@?$AAi?$AAt?$AA?9?$AAI?$AAT@ 100247d8     libucrt:lcidtoname_downlevel.obj
 0002:000047e4       ??_C@_1M@IHBJJGG@?$AAn?$AAl?$AA?9?$AAN?$AAL@ 100247e4     libucrt:lcidtoname_downlevel.obj
 0002:000047f0       ??_C@_1M@EANAGDL@?$AAn?$AAb?$AA?9?$AAN?$AAO@ 100247f0     libucrt:lcidtoname_downlevel.obj
 0002:000047fc       ??_C@_1M@NEIEMEGP@?$AAp?$AAl?$AA?9?$AAP?$AAL@ 100247fc     libucrt:lcidtoname_downlevel.obj
 0002:00004808       ??_C@_1M@BOCFIGEP@?$AAp?$AAt?$AA?9?$AAB?$AAR@ 10024808     libucrt:lcidtoname_downlevel.obj
 0002:00004814       ??_C@_1M@IMPFOPBG@?$AAr?$AAo?$AA?9?$AAR?$AAO@ 10024814     libucrt:lcidtoname_downlevel.obj
 0002:00004820       ??_C@_1M@IDNNEJMM@?$AAr?$AAu?$AA?9?$AAR?$AAU@ 10024820     libucrt:lcidtoname_downlevel.obj
 0002:0000482c       ??_C@_1M@LILEEOGM@?$AAh?$AAr?$AA?9?$AAH?$AAR@ 1002482c     libucrt:lcidtoname_downlevel.obj
 0002:00004838       ??_C@_1M@FKIFEHPB@?$AAs?$AAk?$AA?9?$AAS?$AAK@ 10024838     libucrt:lcidtoname_downlevel.obj
 0002:00004844       ??_C@_1M@LJMAMNPJ@?$AAs?$AAq?$AA?9?$AAA?$AAL@ 10024844     libucrt:lcidtoname_downlevel.obj
 0002:00004850       ??_C@_1M@GIAKDKJK@?$AAs?$AAv?$AA?9?$AAS?$AAE@ 10024850     libucrt:lcidtoname_downlevel.obj
 0002:0000485c       ??_C@_1M@MKJKIKCL@?$AAt?$AAh?$AA?9?$AAT?$AAH@ 1002485c     libucrt:lcidtoname_downlevel.obj
 0002:00004868       ??_C@_1M@MFLCCMPB@?$AAt?$AAr?$AA?9?$AAT?$AAR@ 10024868     libucrt:lcidtoname_downlevel.obj
 0002:00004874       ??_C@_1M@OIJHDKJN@?$AAu?$AAr?$AA?9?$AAP?$AAK@ 10024874     libucrt:lcidtoname_downlevel.obj
 0002:00004880       ??_C@_1M@LHIPCIEK@?$AAi?$AAd?$AA?9?$AAI?$AAD@ 10024880     libucrt:lcidtoname_downlevel.obj
 0002:0000488c       ??_C@_1M@MFMOBGI@?$AAu?$AAk?$AA?9?$AAU?$AAA@ 1002488c     libucrt:lcidtoname_downlevel.obj
 0002:00004898       ??_C@_1M@OBGLJIPL@?$AAb?$AAe?$AA?9?$AAB?$AAY@ 10024898     libucrt:lcidtoname_downlevel.obj
 0002:000048a4       ??_C@_1M@BCFAJEAD@?$AAs?$AAl?$AA?9?$AAS?$AAI@ 100248a4     libucrt:lcidtoname_downlevel.obj
 0002:000048b0       ??_C@_1M@FKFFEDDN@?$AAe?$AAt?$AA?9?$AAE?$AAE@ 100248b0     libucrt:lcidtoname_downlevel.obj
 0002:000048bc       ??_C@_1M@KGKKAACI@?$AAl?$AAv?$AA?9?$AAL?$AAV@ 100248bc     libucrt:lcidtoname_downlevel.obj
 0002:000048c8       ??_C@_1M@IFGBIJO@?$AAl?$AAt?$AA?9?$AAL?$AAT@ 100248c8     libucrt:lcidtoname_downlevel.obj
 0002:000048d4       ??_C@_1M@FGEAHEDM@?$AAf?$AAa?$AA?9?$AAI?$AAR@ 100248d4     libucrt:lcidtoname_downlevel.obj
 0002:000048e0       ??_C@_1M@KBMAIBFN@?$AAv?$AAi?$AA?9?$AAV?$AAN@ 100248e0     libucrt:lcidtoname_downlevel.obj
 0002:000048ec       ??_C@_1M@GPCBKDJK@?$AAh?$AAy?$AA?9?$AAA?$AAM@ 100248ec     libucrt:lcidtoname_downlevel.obj
 0002:000048f8       ??_C@_1BG@BECMDDJB@?$AAa?$AAz?$AA?9?$AAA?$AAZ?$AA?9?$AAL?$AAa?$AAt?$AAn@ 100248f8     libucrt:lcidtoname_downlevel.obj
 0002:00004910       ??_C@_1M@MAOFCAEA@?$AAe?$AAu?$AA?9?$AAE?$AAS@ 10024910     libucrt:lcidtoname_downlevel.obj
 0002:0000491c       ??_C@_1M@IGHABKPI@?$AAm?$AAk?$AA?9?$AAM?$AAK@ 1002491c     libucrt:lcidtoname_downlevel.obj
 0002:00004928       ??_C@_1M@IAIGNEJG@?$AAt?$AAn?$AA?9?$AAZ?$AAA@ 10024928     libucrt:lcidtoname_downlevel.obj
 0002:00004934       ??_C@_1M@IIJCOJFA@?$AAx?$AAh?$AA?9?$AAZ?$AAA@ 10024934     libucrt:lcidtoname_downlevel.obj
 0002:00004940       ??_C@_1M@LGPJHNJH@?$AAz?$AAu?$AA?9?$AAZ?$AAA@ 10024940     libucrt:lcidtoname_downlevel.obj
 0002:0000494c       ??_C@_1M@HOKAOIO@?$AAa?$AAf?$AA?9?$AAZ?$AAA@ 1002494c     libucrt:lcidtoname_downlevel.obj
 0002:00004958       ??_C@_1M@DPCLHLIE@?$AAk?$AAa?$AA?9?$AAG?$AAE@ 10024958     libucrt:lcidtoname_downlevel.obj
 0002:00004964       ??_C@_1M@BLKMHJBI@?$AAf?$AAo?$AA?9?$AAF?$AAO@ 10024964     libucrt:lcidtoname_downlevel.obj
 0002:00004970       ??_C@_1M@LGGJAPPB@?$AAh?$AAi?$AA?9?$AAI?$AAN@ 10024970     libucrt:lcidtoname_downlevel.obj
 0002:0000497c       ??_C@_1M@FIKPIHFE@?$AAm?$AAt?$AA?9?$AAM?$AAT@ 1002497c     libucrt:lcidtoname_downlevel.obj
 0002:00004988       ??_C@_1M@HEGGPBFA@?$AAs?$AAe?$AA?9?$AAN?$AAO@ 10024988     libucrt:lcidtoname_downlevel.obj
 0002:00004994       ??_C@_1M@EIBJEEPA@?$AAm?$AAs?$AA?9?$AAM?$AAY@ 10024994     libucrt:lcidtoname_downlevel.obj
 0002:000049a0       ??_C@_1M@FHLBGMPP@?$AAk?$AAk?$AA?9?$AAK?$AAZ@ 100249a0     libucrt:lcidtoname_downlevel.obj
 0002:000049ac       ??_C@_1M@NGJJLCGI@?$AAk?$AAy?$AA?9?$AAK?$AAG@ 100249ac     libucrt:lcidtoname_downlevel.obj
 0002:000049b8       ??_C@_1M@GIENNBFC@?$AAs?$AAw?$AA?9?$AAK?$AAE@ 100249b8     libucrt:lcidtoname_downlevel.obj
 0002:000049c4       ??_C@_1BG@NDGMJIMJ@?$AAu?$AAz?$AA?9?$AAU?$AAZ?$AA?9?$AAL?$AAa?$AAt?$AAn@ 100249c4     libucrt:lcidtoname_downlevel.obj
 0002:000049dc       ??_C@_1M@IDCCIHBC@?$AAt?$AAt?$AA?9?$AAR?$AAU@ 100249dc     libucrt:lcidtoname_downlevel.obj
 0002:000049e8       ??_C@_1M@LOICPMOJ@?$AAb?$AAn?$AA?9?$AAI?$AAN@ 100249e8     libucrt:lcidtoname_downlevel.obj
 0002:000049f4       ??_C@_1M@KPKKNEAH@?$AAp?$AAa?$AA?9?$AAI?$AAN@ 100249f4     libucrt:lcidtoname_downlevel.obj
 0002:00004a00       ??_C@_1M@PJGPPBOG@?$AAg?$AAu?$AA?9?$AAI?$AAN@ 10024a00     libucrt:lcidtoname_downlevel.obj
 0002:00004a0c       ??_C@_1M@KMKMOPHI@?$AAt?$AAa?$AA?9?$AAI?$AAN@ 10024a0c     libucrt:lcidtoname_downlevel.obj
 0002:00004a18       ??_C@_1M@KFEHEPAC@?$AAt?$AAe?$AA?9?$AAI?$AAN@ 10024a18     libucrt:lcidtoname_downlevel.obj
 0002:00004a24       ??_C@_1M@CDCLMGHI@?$AAk?$AAn?$AA?9?$AAI?$AAN@ 10024a24     libucrt:lcidtoname_downlevel.obj
 0002:00004a30       ??_C@_1M@MIODLDKF@?$AAm?$AAl?$AA?9?$AAI?$AAN@ 10024a30     libucrt:lcidtoname_downlevel.obj
 0002:00004a3c       ??_C@_1M@PBIEACPO@?$AAm?$AAr?$AA?9?$AAI?$AAN@ 10024a3c     libucrt:lcidtoname_downlevel.obj
 0002:00004a48       ??_C@_1M@NIDEAGPH@?$AAs?$AAa?$AA?9?$AAI?$AAN@ 10024a48     libucrt:lcidtoname_downlevel.obj
 0002:00004a54       ??_C@_1M@FHIHCBIO@?$AAm?$AAn?$AA?9?$AAM?$AAN@ 10024a54     libucrt:lcidtoname_downlevel.obj
 0002:00004a60       ??_C@_1M@JAIJPENP@?$AAc?$AAy?$AA?9?$AAG?$AAB@ 10024a60     libucrt:lcidtoname_downlevel.obj
 0002:00004a6c       ??_C@_1M@PHGFBEPN@?$AAg?$AAl?$AA?9?$AAE?$AAS@ 10024a6c     libucrt:lcidtoname_downlevel.obj
 0002:00004a78       ??_C@_1O@KPIPDNCP@?$AAk?$AAo?$AAk?$AA?9?$AAI?$AAN@ 10024a78     libucrt:lcidtoname_downlevel.obj
 0002:00004a88       ??_C@_1O@KNHJLDJA@?$AAs?$AAy?$AAr?$AA?9?$AAS?$AAY@ 10024a88     libucrt:lcidtoname_downlevel.obj
 0002:00004a98       ??_C@_1O@MKEKBLAH@?$AAd?$AAi?$AAv?$AA?9?$AAM?$AAV@ 10024a98     libucrt:lcidtoname_downlevel.obj
 0002:00004aa8       ??_C@_1O@OHDCKDDF@?$AAq?$AAu?$AAz?$AA?9?$AAB?$AAO@ 10024aa8     libucrt:lcidtoname_downlevel.obj
 0002:00004ab8       ??_C@_1M@LEPJNLFD@?$AAn?$AAs?$AA?9?$AAZ?$AAA@ 10024ab8     libucrt:lcidtoname_downlevel.obj
 0002:00004ac4       ??_C@_1M@OMLEIIJB@?$AAm?$AAi?$AA?9?$AAN?$AAZ@ 10024ac4     libucrt:lcidtoname_downlevel.obj
 0002:00004ad0       ??_C@_1M@PMPEAILG@?$AAa?$AAr?$AA?9?$AAI?$AAQ@ 10024ad0     libucrt:lcidtoname_downlevel.obj
 0002:00004adc       ??_C@_1M@CNKPNOEE@?$AAd?$AAe?$AA?9?$AAC?$AAH@ 10024adc     libucrt:lcidtoname_downlevel.obj
 0002:00004ae8       ??_C@_1M@LKMGMLKO@?$AAe?$AAn?$AA?9?$AAG?$AAB@ 10024ae8     libucrt:lcidtoname_downlevel.obj
 0002:00004af4       ??_C@_1M@PGKJFFGL@?$AAe?$AAs?$AA?9?$AAM?$AAX@ 10024af4     libucrt:lcidtoname_downlevel.obj
 0002:00004b00       ??_C@_1M@DNNANBDC@?$AAf?$AAr?$AA?9?$AAB?$AAE@ 10024b00     libucrt:lcidtoname_downlevel.obj
 0002:00004b0c       ??_C@_1M@HLGMDFHM@?$AAi?$AAt?$AA?9?$AAC?$AAH@ 10024b0c     libucrt:lcidtoname_downlevel.obj
 0002:00004b18       ??_C@_1M@CLLBGJH@?$AAn?$AAl?$AA?9?$AAB?$AAE@ 10024b18     libucrt:lcidtoname_downlevel.obj
 0002:00004b24       ??_C@_1M@BODBOGLF@?$AAn?$AAn?$AA?9?$AAN?$AAO@ 10024b24     libucrt:lcidtoname_downlevel.obj
 0002:00004b30       ??_C@_1M@HFFAHKAD@?$AAp?$AAt?$AA?9?$AAP?$AAT@ 10024b30     libucrt:lcidtoname_downlevel.obj
 0002:00004b3c       ??_C@_1BG@LNOAKHIE@?$AAs?$AAr?$AA?9?$AAS?$AAP?$AA?9?$AAL?$AAa?$AAt?$AAn@ 10024b3c     libucrt:lcidtoname_downlevel.obj
 0002:00004b54       ??_C@_1M@HBMHBGAK@?$AAs?$AAv?$AA?9?$AAF?$AAI@ 10024b54     libucrt:lcidtoname_downlevel.obj
 0002:00004b60       ??_C@_1BG@DGCJGJBE@?$AAa?$AAz?$AA?9?$AAA?$AAZ?$AA?9?$AAC?$AAy?$AAr?$AAl@ 10024b60     libucrt:lcidtoname_downlevel.obj
 0002:00004b78       ??_C@_1M@KEJDAAHB@?$AAs?$AAe?$AA?9?$AAS?$AAE@ 10024b78     libucrt:lcidtoname_downlevel.obj
 0002:00004b84       ??_C@_1M@HEIBJJAD@?$AAm?$AAs?$AA?9?$AAB?$AAN@ 10024b84     libucrt:lcidtoname_downlevel.obj
 0002:00004b90       ??_C@_1BG@PBGJMCEM@?$AAu?$AAz?$AA?9?$AAU?$AAZ?$AA?9?$AAC?$AAy?$AAr?$AAl@ 10024b90     libucrt:lcidtoname_downlevel.obj
 0002:00004ba8       ??_C@_1O@LAOBCMDF@?$AAq?$AAu?$AAz?$AA?9?$AAE?$AAC@ 10024ba8     libucrt:lcidtoname_downlevel.obj
 0002:00004bb8       ??_C@_1M@POEEMAIO@?$AAa?$AAr?$AA?9?$AAE?$AAG@ 10024bb8     libucrt:lcidtoname_downlevel.obj
 0002:00004bc4       ??_C@_1M@EFAKDEDL@?$AAz?$AAh?$AA?9?$AAH?$AAK@ 10024bc4     libucrt:lcidtoname_downlevel.obj
 0002:00004bd0       ??_C@_1M@HKKIJHGI@?$AAd?$AAe?$AA?9?$AAA?$AAT@ 10024bd0     libucrt:lcidtoname_downlevel.obj
 0002:00004bdc       ??_C@_1M@KBFBEHJF@?$AAe?$AAn?$AA?9?$AAA?$AAU@ 10024bdc     libucrt:lcidtoname_downlevel.obj
 0002:00004be8       ??_C@_1M@MNPLFAAH@?$AAe?$AAs?$AA?9?$AAE?$AAS@ 10024be8     libucrt:lcidtoname_downlevel.obj
 0002:00004bf4       ??_C@_1M@HJOOJFMA@?$AAf?$AAr?$AA?9?$AAC?$AAA@ 10024bf4     libucrt:lcidtoname_downlevel.obj
 0002:00004c00       ??_C@_1BG@JPOFPNAB@?$AAs?$AAr?$AA?9?$AAS?$AAP?$AA?9?$AAC?$AAy?$AAr?$AAl@ 10024c00     libucrt:lcidtoname_downlevel.obj
 0002:00004c18       ??_C@_1M@LNFOCMOB@?$AAs?$AAe?$AA?9?$AAF?$AAI@ 10024c18     libucrt:lcidtoname_downlevel.obj
 0002:00004c24       ??_C@_1O@MGJBOAMB@?$AAq?$AAu?$AAz?$AA?9?$AAP?$AAE@ 10024c24     libucrt:lcidtoname_downlevel.obj
 0002:00004c34       ??_C@_1M@GJINLBOK@?$AAa?$AAr?$AA?9?$AAL?$AAY@ 10024c34     libucrt:lcidtoname_downlevel.obj
 0002:00004c40       ??_C@_1M@GGMNHJNL@?$AAz?$AAh?$AA?9?$AAS?$AAG@ 10024c40     libucrt:lcidtoname_downlevel.obj
 0002:00004c4c       ??_C@_1M@HOIKODND@?$AAd?$AAe?$AA?9?$AAL?$AAU@ 10024c4c     libucrt:lcidtoname_downlevel.obj
 0002:00004c58       ??_C@_1M@DDOCCGFG@?$AAe?$AAn?$AA?9?$AAC?$AAA@ 10024c58     libucrt:lcidtoname_downlevel.obj
 0002:00004c64       ??_C@_1M@BNOEMJLF@?$AAe?$AAs?$AA?9?$AAG?$AAT@ 10024c64     libucrt:lcidtoname_downlevel.obj
 0002:00004c70       ??_C@_1M@EOGNKEK@?$AAf?$AAr?$AA?9?$AAC?$AAH@ 10024c70     libucrt:lcidtoname_downlevel.obj
 0002:00004c7c       ??_C@_1M@FLIDJFHL@?$AAh?$AAr?$AA?9?$AAB?$AAA@ 10024c7c     libucrt:lcidtoname_downlevel.obj
 0002:00004c88       ??_C@_1O@FMCELNAJ@?$AAs?$AAm?$AAj?$AA?9?$AAN?$AAO@ 10024c88     libucrt:lcidtoname_downlevel.obj
 0002:00004c98       ??_C@_1M@JHGLJMGJ@?$AAa?$AAr?$AA?9?$AAD?$AAZ@ 10024c98     libucrt:lcidtoname_downlevel.obj
 0002:00004ca4       ??_C@_1M@JKKFDCNP@?$AAz?$AAh?$AA?9?$AAM?$AAO@ 10024ca4     libucrt:lcidtoname_downlevel.obj
 0002:00004cb0       ??_C@_1M@GEEFALPE@?$AAd?$AAe?$AA?9?$AAL?$AAI@ 10024cb0     libucrt:lcidtoname_downlevel.obj
 0002:00004cbc       ??_C@_1M@IGEOFBG@?$AAe?$AAn?$AA?9?$AAN?$AAZ@ 10024cbc     libucrt:lcidtoname_downlevel.obj
 0002:00004cc8       ??_C@_1M@KDBONEHP@?$AAe?$AAs?$AA?9?$AAC?$AAR@ 10024cc8     libucrt:lcidtoname_downlevel.obj
 0002:00004cd4       ??_C@_1M@FHMDOHNN@?$AAf?$AAr?$AA?9?$AAL?$AAU@ 10024cd4     libucrt:lcidtoname_downlevel.obj
 0002:00004ce0       ??_C@_1BG@NFKKMAFG@?$AAb?$AAs?$AA?9?$AAB?$AAA?$AA?9?$AAL?$AAa?$AAt?$AAn@ 10024ce0     libucrt:lcidtoname_downlevel.obj
 0002:00004cf8       ??_C@_1O@IMNBEMCI@?$AAs?$AAm?$AAj?$AA?9?$AAS?$AAE@ 10024cf8     libucrt:lcidtoname_downlevel.obj
 0002:00004d08       ??_C@_1M@DHHMBNDP@?$AAa?$AAr?$AA?9?$AAM?$AAA@ 10024d08     libucrt:lcidtoname_downlevel.obj
 0002:00004d14       ??_C@_1M@BNBLJCGH@?$AAe?$AAn?$AA?9?$AAI?$AAE@ 10024d14     libucrt:lcidtoname_downlevel.obj
 0002:00004d20       ??_C@_1M@GEPAFMDL@?$AAe?$AAs?$AA?9?$AAP?$AAA@ 10024d20     libucrt:lcidtoname_downlevel.obj
 0002:00004d2c       ??_C@_1M@OJONDMDL@?$AAf?$AAr?$AA?9?$AAM?$AAC@ 10024d2c     libucrt:lcidtoname_downlevel.obj
 0002:00004d38       ??_C@_1BG@OBCNFJB@?$AAs?$AAr?$AA?9?$AAB?$AAA?$AA?9?$AAL?$AAa?$AAt?$AAn@ 10024d38     libucrt:lcidtoname_downlevel.obj
 0002:00004d50       ??_C@_1O@KEMEEGPO@?$AAs?$AAm?$AAa?$AA?9?$AAN?$AAO@ 10024d50     libucrt:lcidtoname_downlevel.obj
 0002:00004d60       ??_C@_1M@ELMGFODK@?$AAa?$AAr?$AA?9?$AAT?$AAN@ 10024d60     libucrt:lcidtoname_downlevel.obj
 0002:00004d6c       ??_C@_1M@BHDLHFAF@?$AAe?$AAn?$AA?9?$AAZ?$AAA@ 10024d6c     libucrt:lcidtoname_downlevel.obj
 0002:00004d78       ??_C@_1M@BMGIGLIF@?$AAe?$AAs?$AA?9?$AAD?$AAO@ 10024d78     libucrt:lcidtoname_downlevel.obj
 0002:00004d84       ??_C@_1BG@CMBHIPBE@?$AAs?$AAr?$AA?9?$AAB?$AAA?$AA?9?$AAC?$AAy?$AAr?$AAl@ 10024d84     libucrt:lcidtoname_downlevel.obj
 0002:00004d9c       ??_C@_1O@HEDBLHNP@?$AAs?$AAm?$AAa?$AA?9?$AAS?$AAE@ 10024d9c     libucrt:lcidtoname_downlevel.obj
 0002:00004dac       ??_C@_1M@DAGCADIM@?$AAa?$AAr?$AA?9?$AAO?$AAM@ 10024dac     libucrt:lcidtoname_downlevel.obj
 0002:00004db8       ??_C@_1M@FODLMICG@?$AAe?$AAn?$AA?9?$AAJ?$AAM@ 10024db8     libucrt:lcidtoname_downlevel.obj
 0002:00004dc4       ??_C@_1M@DNMLCIHB@?$AAe?$AAs?$AA?9?$AAV?$AAE@ 10024dc4     libucrt:lcidtoname_downlevel.obj
 0002:00004dd0       ??_C@_1O@EOKHMKJK@?$AAs?$AAm?$AAs?$AA?9?$AAF?$AAI@ 10024dd0     libucrt:lcidtoname_downlevel.obj
 0002:00004de0       ??_C@_1M@CAFJMKOF@?$AAa?$AAr?$AA?9?$AAY?$AAE@ 10024de0     libucrt:lcidtoname_downlevel.obj
 0002:00004dec       ??_C@_1M@CBFHIJLI@?$AAe?$AAn?$AA?9?$AAC?$AAB@ 10024dec     libucrt:lcidtoname_downlevel.obj
 0002:00004df8       ??_C@_1M@BGNFLDN@?$AAe?$AAs?$AA?9?$AAC?$AAO@ 10024df8     libucrt:lcidtoname_downlevel.obj
 0002:00004e04       ??_C@_1O@JMPHMAMC@?$AAs?$AAm?$AAn?$AA?9?$AAF?$AAI@ 10024e04     libucrt:lcidtoname_downlevel.obj
 0002:00004e14       ??_C@_1M@JLANABKE@?$AAa?$AAr?$AA?9?$AAS?$AAY@ 10024e14     libucrt:lcidtoname_downlevel.obj
 0002:00004e20       ??_C@_1M@HPKGCFGN@?$AAe?$AAn?$AA?9?$AAB?$AAZ@ 10024e20     libucrt:lcidtoname_downlevel.obj
 0002:00004e2c       ??_C@_1M@OLJCMLGM@?$AAe?$AAs?$AA?9?$AAP?$AAE@ 10024e2c     libucrt:lcidtoname_downlevel.obj
 0002:00004e38       ??_C@_1M@MKKGFKLE@?$AAa?$AAr?$AA?9?$AAJ?$AAO@ 10024e38     libucrt:lcidtoname_downlevel.obj
 0002:00004e44       ??_C@_1M@EKPGLDNI@?$AAe?$AAn?$AA?9?$AAT?$AAT@ 10024e44     libucrt:lcidtoname_downlevel.obj
 0002:00004e50       ??_C@_1M@OONGHFHE@?$AAe?$AAs?$AA?9?$AAA?$AAR@ 10024e50     libucrt:lcidtoname_downlevel.obj
 0002:00004e5c       ??_C@_1M@OOJFGBHE@?$AAa?$AAr?$AA?9?$AAL?$AAB@ 10024e5c     libucrt:lcidtoname_downlevel.obj
 0002:00004e68       ??_C@_1M@GCEJHNEG@?$AAe?$AAn?$AA?9?$AAZ?$AAW@ 10024e68     libucrt:lcidtoname_downlevel.obj
 0002:00004e74       ??_C@_1M@JNOCAHJI@?$AAe?$AAs?$AA?9?$AAE?$AAC@ 10024e74     libucrt:lcidtoname_downlevel.obj
 0002:00004e80       ??_C@_1M@JEFHPGGB@?$AAa?$AAr?$AA?9?$AAK?$AAW@ 10024e80     libucrt:lcidtoname_downlevel.obj
 0002:00004e8c       ??_C@_1M@MLKIBJOJ@?$AAe?$AAn?$AA?9?$AAP?$AAH@ 10024e8c     libucrt:lcidtoname_downlevel.obj
 0002:00004e98       ??_C@_1M@BDNIPEND@?$AAe?$AAs?$AA?9?$AAC?$AAL@ 10024e98     libucrt:lcidtoname_downlevel.obj
 0002:00004ea4       ??_C@_1M@MPNMEKBD@?$AAa?$AAr?$AA?9?$AAA?$AAE@ 10024ea4     libucrt:lcidtoname_downlevel.obj
 0002:00004eb0       ??_C@_1M@KBJALCPI@?$AAe?$AAs?$AA?9?$AAU?$AAY@ 10024eb0     libucrt:lcidtoname_downlevel.obj
 0002:00004ebc       ??_C@_1M@LLCCOAGA@?$AAa?$AAr?$AA?9?$AAB?$AAH@ 10024ebc     libucrt:lcidtoname_downlevel.obj
 0002:00004ec8       ??_C@_1M@PBFNCDEL@?$AAe?$AAs?$AA?9?$AAP?$AAY@ 10024ec8     libucrt:lcidtoname_downlevel.obj
 0002:00004ed4       ??_C@_1M@EDGINPNP@?$AAa?$AAr?$AA?9?$AAQ?$AAA@ 10024ed4     libucrt:lcidtoname_downlevel.obj
 0002:00004ee0       ??_C@_1M@MKDBIIJI@?$AAe?$AAs?$AA?9?$AAB?$AAO@ 10024ee0     libucrt:lcidtoname_downlevel.obj
 0002:00004eec       ??_C@_1M@CPKKEBLD@?$AAe?$AAs?$AA?9?$AAS?$AAV@ 10024eec     libucrt:lcidtoname_downlevel.obj
 0002:00004ef8       ??_C@_1M@NDBGMMJL@?$AAe?$AAs?$AA?9?$AAH?$AAN@ 10024ef8     libucrt:lcidtoname_downlevel.obj
 0002:00004f04       ??_C@_1M@JIJIBHDP@?$AAe?$AAs?$AA?9?$AAN?$AAI@ 10024f04     libucrt:lcidtoname_downlevel.obj
 0002:00004f10       ??_C@_1M@CGFMKEEK@?$AAe?$AAs?$AA?9?$AAP?$AAR@ 10024f10     libucrt:lcidtoname_downlevel.obj
 0002:00004f1c       ??_C@_1O@ICJHKIIK@?$AAz?$AAh?$AA?9?$AAC?$AAH?$AAT@ 10024f1c     libucrt:lcidtoname_downlevel.obj
 0002:00004f2c       ??_C@_15CLNEJCE@?$AAs?$AAr@ 10024f2c     libucrt:lcidtoname_downlevel.obj
 0002:00005658       ??_C@_1M@KAHEKEIG@?$AAa?$AAf?$AA?9?$AAz?$AAa@ 10025658     libucrt:lcidtoname_downlevel.obj
 0002:00005664       ??_C@_1M@GIECOABL@?$AAa?$AAr?$AA?9?$AAa?$AAe@ 10025664     libucrt:lcidtoname_downlevel.obj
 0002:00005670       ??_C@_1M@BMLMEKGI@?$AAa?$AAr?$AA?9?$AAb?$AAh@ 10025670     libucrt:lcidtoname_downlevel.obj
 0002:0000567c       ??_C@_1M@DAPFDGGB@?$AAa?$AAr?$AA?9?$AAd?$AAz@ 1002567c     libucrt:lcidtoname_downlevel.obj
 0002:00005688       ??_C@_1M@FJNKGKIG@?$AAa?$AAr?$AA?9?$AAe?$AAg@ 10025688     libucrt:lcidtoname_downlevel.obj
 0002:00005694       ??_C@_1M@FLGKKCLO@?$AAa?$AAr?$AA?9?$AAi?$AAq@ 10025694     libucrt:lcidtoname_downlevel.obj
 0002:000056a0       ??_C@_1M@GNDIPALM@?$AAa?$AAr?$AA?9?$AAj?$AAo@ 100256a0     libucrt:lcidtoname_downlevel.obj
 0002:000056ac       ??_C@_1M@DDMJFMGJ@?$AAa?$AAr?$AA?9?$AAk?$AAw@ 100256ac     libucrt:lcidtoname_downlevel.obj
 0002:000056b8       ??_C@_1M@EJALMLHM@?$AAa?$AAr?$AA?9?$AAl?$AAb@ 100256b8     libucrt:lcidtoname_downlevel.obj
 0002:000056c4       ??_C@_1M@MOBDBLOC@?$AAa?$AAr?$AA?9?$AAl?$AAy@ 100256c4     libucrt:lcidtoname_downlevel.obj
 0002:000056d0       ??_C@_1M@JAOCLHDH@?$AAa?$AAr?$AA?9?$AAm?$AAa@ 100256d0     libucrt:lcidtoname_downlevel.obj
 0002:000056dc       ??_C@_1M@JHPMKJIE@?$AAa?$AAr?$AA?9?$AAo?$AAm@ 100256dc     libucrt:lcidtoname_downlevel.obj
 0002:000056e8       ??_C@_1M@OEPGHFNH@?$AAa?$AAr?$AA?9?$AAq?$AAa@ 100256e8     libucrt:lcidtoname_downlevel.obj
 0002:000056f4       ??_C@_1M@KJDONENM@?$AAa?$AAr?$AA?9?$AAs?$AAa@ 100256f4     libucrt:lcidtoname_downlevel.obj
 0002:00005700       ??_C@_1M@DMJDKLKM@?$AAa?$AAr?$AA?9?$AAs?$AAy@ 10025700     libucrt:lcidtoname_downlevel.obj
 0002:0000570c       ??_C@_1M@OMFIPEDC@?$AAa?$AAr?$AA?9?$AAt?$AAn@ 1002570c     libucrt:lcidtoname_downlevel.obj
 0002:00005718       ??_C@_1M@IHMHGAON@?$AAa?$AAr?$AA?9?$AAy?$AAe@ 10025718     libucrt:lcidtoname_downlevel.obj
 0002:00005724       ??_C@_1BG@KDCPGJGB@?$AAa?$AAz?$AA?9?$AAa?$AAz?$AA?9?$AAc?$AAy?$AAr?$AAl@ 10025724     libucrt:lcidtoname_downlevel.obj
 0002:0000573c       ??_C@_1BG@IBCKDDOE@?$AAa?$AAz?$AA?9?$AAa?$AAz?$AA?9?$AAl?$AAa?$AAt?$AAn@ 1002573c     libucrt:lcidtoname_downlevel.obj
 0002:00005754       ??_C@_1M@EGPFDCPD@?$AAb?$AAe?$AA?9?$AAb?$AAy@ 10025754     libucrt:lcidtoname_downlevel.obj
 0002:00005760       ??_C@_1M@PCMGMCGC@?$AAb?$AAg?$AA?9?$AAb?$AAg@ 10025760     libucrt:lcidtoname_downlevel.obj
 0002:0000576c       ??_C@_1M@BJBMFGOB@?$AAb?$AAn?$AA?9?$AAi?$AAn@ 1002576c     libucrt:lcidtoname_downlevel.obj
 0002:00005778       ??_C@_1BG@EAKMMACD@?$AAb?$AAs?$AA?9?$AAb?$AAa?$AA?9?$AAl?$AAa?$AAt?$AAn@ 10025778     libucrt:lcidtoname_downlevel.obj
 0002:00005790       ??_C@_1M@KGADAODK@?$AAc?$AAa?$AA?9?$AAe?$AAs@ 10025790     libucrt:lcidtoname_downlevel.obj
 0002:0000579c       ??_C@_1M@COAJPDHI@?$AAc?$AAs?$AA?9?$AAc?$AAz@ 1002579c     libucrt:lcidtoname_downlevel.obj
 0002:000057a8       ??_C@_1M@DHBHFONH@?$AAc?$AAy?$AA?9?$AAg?$AAb@ 100257a8     libucrt:lcidtoname_downlevel.obj
 0002:000057b4       ??_C@_1M@IMGKELGA@?$AAd?$AAa?$AA?9?$AAd?$AAk@ 100257b4     libucrt:lcidtoname_downlevel.obj
 0002:000057c0       ??_C@_1M@NNDGDNGA@?$AAd?$AAe?$AA?9?$AAa?$AAt@ 100257c0     libucrt:lcidtoname_downlevel.obj
 0002:000057cc       ??_C@_1M@IKDBHEEM@?$AAd?$AAe?$AA?9?$AAc?$AAh@ 100257cc     libucrt:lcidtoname_downlevel.obj
 0002:000057d8       ??_C@_1M@GFFOJMCJ@?$AAd?$AAe?$AA?9?$AAd?$AAe@ 100257d8     libucrt:lcidtoname_downlevel.obj
 0002:000057e4       ??_C@_1M@MDNLKBPM@?$AAd?$AAe?$AA?9?$AAl?$AAi@ 100257e4     libucrt:lcidtoname_downlevel.obj
 0002:000057f0       ??_C@_1M@NJBEEJNL@?$AAd?$AAe?$AA?9?$AAl?$AAu@ 100257f0     libucrt:lcidtoname_downlevel.obj
 0002:000057fc       ??_C@_1O@GNNELBAP@?$AAd?$AAi?$AAv?$AA?9?$AAm?$AAv@ 100257fc     libucrt:lcidtoname_downlevel.obj
 0002:0000580c       ??_C@_1M@EJLEOGAE@?$AAe?$AAl?$AA?9?$AAg?$AAr@ 1002580c     libucrt:lcidtoname_downlevel.obj
 0002:00005818       ??_C@_1M@GMPONJN@?$AAe?$AAn?$AA?9?$AAa?$AAu@ 10025818     libucrt:lcidtoname_downlevel.obj
 0002:00005824       ??_C@_1M@NIDIIPGF@?$AAe?$AAn?$AA?9?$AAb?$AAz@ 10025824     libucrt:lcidtoname_downlevel.obj
 0002:00005830       ??_C@_1M@JEHMIMFO@?$AAe?$AAn?$AA?9?$AAc?$AAa@ 10025830     libucrt:lcidtoname_downlevel.obj
 0002:0000583c       ??_C@_1M@IGMJCDLA@?$AAe?$AAn?$AA?9?$AAc?$AAb@ 1002583c     libucrt:lcidtoname_downlevel.obj
 0002:00005848       ??_C@_1M@BNFIGBKG@?$AAe?$AAn?$AA?9?$AAg?$AAb@ 10025848     libucrt:lcidtoname_downlevel.obj
 0002:00005854       ??_C@_1M@LKIFDIGP@?$AAe?$AAn?$AA?9?$AAi?$AAe@ 10025854     libucrt:lcidtoname_downlevel.obj
 0002:00005860       ??_C@_1M@PJKFGCCO@?$AAe?$AAn?$AA?9?$AAj?$AAm@ 10025860     libucrt:lcidtoname_downlevel.obj
 0002:0000586c       ??_C@_1M@KPPKEPBO@?$AAe?$AAn?$AA?9?$AAn?$AAz@ 1002586c     libucrt:lcidtoname_downlevel.obj
 0002:00005878       ??_C@_1M@GMDGLDOB@?$AAe?$AAn?$AA?9?$AAp?$AAh@ 10025878     libucrt:lcidtoname_downlevel.obj
 0002:00005884       ??_C@_1M@ONGIBJNA@?$AAe?$AAn?$AA?9?$AAt?$AAt@ 10025884     libucrt:lcidtoname_downlevel.obj
 0002:00005890       ??_C@_1M@LLODPCMM@?$AAe?$AAn?$AA?9?$AAu?$AAs@ 10025890     libucrt:lcidtoname_downlevel.obj
 0002:0000589c       ??_C@_1M@LAKFNPAN@?$AAe?$AAn?$AA?9?$AAz?$AAa@ 1002589c     libucrt:lcidtoname_downlevel.obj
 0002:000058a8       ??_C@_1M@MFNHNHEO@?$AAe?$AAn?$AA?9?$AAz?$AAw@ 100258a8     libucrt:lcidtoname_downlevel.obj
 0002:000058b4       ??_C@_1M@EJEINPHM@?$AAe?$AAs?$AA?9?$AAa?$AAr@ 100258b4     libucrt:lcidtoname_downlevel.obj
 0002:000058c0       ??_C@_1M@GNKPCCJA@?$AAe?$AAs?$AA?9?$AAb?$AAo@ 100258c0     libucrt:lcidtoname_downlevel.obj
 0002:000058cc       ??_C@_1M@LEEGFONL@?$AAe?$AAs?$AA?9?$AAc?$AAl@ 100258cc     libucrt:lcidtoname_downlevel.obj
 0002:000058d8       ??_C@_1M@KGPDPBDF@?$AAe?$AAs?$AA?9?$AAc?$AAo@ 100258d8     libucrt:lcidtoname_downlevel.obj
 0002:000058e4       ??_C@_1M@EIAHOHH@?$AAe?$AAs?$AA?9?$AAc?$AAr@ 100258e4     libucrt:lcidtoname_downlevel.obj
 0002:000058f0       ??_C@_1M@LLPGMBIN@?$AAe?$AAs?$AA?9?$AAd?$AAo@ 100258f0     libucrt:lcidtoname_downlevel.obj
 0002:000058fc       ??_C@_1M@DKHMKNJA@?$AAe?$AAs?$AA?9?$AAe?$AAc@ 100258fc     libucrt:lcidtoname_downlevel.obj
 0002:00005908       ??_C@_1M@GKGFPKAP@?$AAe?$AAs?$AA?9?$AAe?$AAs@ 10025908     libucrt:lcidtoname_downlevel.obj
 0002:00005914       ??_C@_1M@LKHKGDLN@?$AAe?$AAs?$AA?9?$AAg?$AAt@ 10025914     libucrt:lcidtoname_downlevel.obj
 0002:00005920       ??_C@_1M@HEIIGGJD@?$AAe?$AAs?$AA?9?$AAh?$AAn@ 10025920     libucrt:lcidtoname_downlevel.obj
 0002:0000592c       ??_C@_1M@FBDHPPGD@?$AAe?$AAs?$AA?9?$AAm?$AAx@ 1002592c     libucrt:lcidtoname_downlevel.obj
 0002:00005938       ??_C@_1M@DPAGLNDH@?$AAe?$AAs?$AA?9?$AAn?$AAi@ 10025938     libucrt:lcidtoname_downlevel.obj
 0002:00005944       ??_C@_1M@MDGOPGDD@?$AAe?$AAs?$AA?9?$AAp?$AAa@ 10025944     libucrt:lcidtoname_downlevel.obj
 0002:00005950       ??_C@_1M@EMAMGBGE@?$AAe?$AAs?$AA?9?$AAp?$AAe@ 10025950     libucrt:lcidtoname_downlevel.obj
 0002:0000595c       ??_C@_1M@IBMCAOEC@?$AAe?$AAs?$AA?9?$AAp?$AAr@ 1002595c     libucrt:lcidtoname_downlevel.obj
 0002:00005968       ??_C@_1M@FGMDIJED@?$AAe?$AAs?$AA?9?$AAp?$AAy@ 10025968     libucrt:lcidtoname_downlevel.obj
 0002:00005974       ??_C@_1M@IIDEOLLL@?$AAe?$AAs?$AA?9?$AAs?$AAv@ 10025974     libucrt:lcidtoname_downlevel.obj
 0002:00005980       ??_C@_1M@GAOBIPA@?$AAe?$AAs?$AA?9?$AAu?$AAy@ 10025980     libucrt:lcidtoname_downlevel.obj
 0002:0000598c       ??_C@_1M@JKFFICHJ@?$AAe?$AAs?$AA?9?$AAv?$AAe@ 1002598c     libucrt:lcidtoname_downlevel.obj
 0002:00005998       ??_C@_1M@PNMLOJDF@?$AAe?$AAt?$AA?9?$AAe?$AAe@ 10025998     libucrt:lcidtoname_downlevel.obj
 0002:000059a4       ??_C@_1M@GHHLIKEI@?$AAe?$AAu?$AA?9?$AAe?$AAs@ 100259a4     libucrt:lcidtoname_downlevel.obj
 0002:000059b0       ??_C@_1M@PBNONODE@?$AAf?$AAa?$AA?9?$AAi?$AAr@ 100259b0     libucrt:lcidtoname_downlevel.obj
 0002:000059bc       ??_C@_1M@JEEHPMIL@?$AAf?$AAi?$AA?9?$AAf?$AAi@ 100259bc     libucrt:lcidtoname_downlevel.obj
 0002:000059c8       ??_C@_1M@LMDCNDBA@?$AAf?$AAo?$AA?9?$AAf?$AAo@ 100259c8     libucrt:lcidtoname_downlevel.obj
 0002:000059d4       ??_C@_1M@JKEOHLDK@?$AAf?$AAr?$AA?9?$AAb?$AAe@ 100259d4     libucrt:lcidtoname_downlevel.obj
 0002:000059e0       ??_C@_1M@NOHADPMI@?$AAf?$AAr?$AA?9?$AAc?$AAa@ 100259e0     libucrt:lcidtoname_downlevel.obj
 0002:000059ec       ??_C@_1M@KDHIHAEC@?$AAf?$AAr?$AA?9?$AAc?$AAh@ 100259ec     libucrt:lcidtoname_downlevel.obj
 0002:000059f8       ??_C@_1M@MMBBFGAK@?$AAf?$AAr?$AA?9?$AAf?$AAr@ 100259f8     libucrt:lcidtoname_downlevel.obj
 0002:00005a04       ??_C@_1M@PAFNENNF@?$AAf?$AAr?$AA?9?$AAl?$AAu@ 10025a04     libucrt:lcidtoname_downlevel.obj
 0002:00005a10       ??_C@_1M@EOHDJGDD@?$AAf?$AAr?$AA?9?$AAm?$AAc@ 10025a10     libucrt:lcidtoname_downlevel.obj
 0002:00005a1c       ??_C@_1M@FAPLLOPF@?$AAg?$AAl?$AA?9?$AAe?$AAs@ 10025a1c     libucrt:lcidtoname_downlevel.obj
 0002:00005a28       ??_C@_1M@FOPBFLOO@?$AAg?$AAu?$AA?9?$AAi?$AAn@ 10025a28     libucrt:lcidtoname_downlevel.obj
 0002:00005a34       ??_C@_1M@KBMCINPM@?$AAh?$AAe?$AA?9?$AAi?$AAl@ 10025a34     libucrt:lcidtoname_downlevel.obj
 0002:00005a40       ??_C@_1M@BBPHKFPJ@?$AAh?$AAi?$AA?9?$AAi?$AAn@ 10025a40     libucrt:lcidtoname_downlevel.obj
 0002:00005a4c       ??_C@_1M@PMBNDPHD@?$AAh?$AAr?$AA?9?$AAb?$AAa@ 10025a4c     libucrt:lcidtoname_downlevel.obj
 0002:00005a58       ??_C@_1M@BPCKOEGE@?$AAh?$AAr?$AA?9?$AAh?$AAr@ 10025a58     libucrt:lcidtoname_downlevel.obj
 0002:00005a64       ??_C@_1M@GACBMHKE@?$AAh?$AAu?$AA?9?$AAh?$AAu@ 10025a64     libucrt:lcidtoname_downlevel.obj
 0002:00005a70       ??_C@_1M@MILPAJJC@?$AAh?$AAy?$AA?9?$AAa?$AAm@ 10025a70     libucrt:lcidtoname_downlevel.obj
 0002:00005a7c       ??_C@_1M@BABBICEC@?$AAi?$AAd?$AA?9?$AAi?$AAd@ 10025a7c     libucrt:lcidtoname_downlevel.obj
 0002:00005a88       ??_C@_1M@BIKNHHPF@?$AAi?$AAs?$AA?9?$AAi?$AAs@ 10025a88     libucrt:lcidtoname_downlevel.obj
 0002:00005a94       ??_C@_1M@NMPCJPHE@?$AAi?$AAt?$AA?9?$AAc?$AAh@ 10025a94     libucrt:lcidtoname_downlevel.obj
 0002:00005aa0       ??_C@_1M@GHKGFEDF@?$AAi?$AAt?$AA?9?$AAi?$AAt@ 10025aa0     libucrt:lcidtoname_downlevel.obj
 0002:00005aac       ??_C@_1M@NIEJCJJA@?$AAj?$AAa?$AA?9?$AAj?$AAp@ 10025aac     libucrt:lcidtoname_downlevel.obj
 0002:00005ab8       ??_C@_1M@JILFNBIM@?$AAk?$AAa?$AA?9?$AAg?$AAe@ 10025ab8     libucrt:lcidtoname_downlevel.obj
 0002:00005ac4       ??_C@_1M@PACPMGPH@?$AAk?$AAk?$AA?9?$AAk?$AAz@ 10025ac4     libucrt:lcidtoname_downlevel.obj
 0002:00005ad0       ??_C@_1M@IELFGMHA@?$AAk?$AAn?$AA?9?$AAi?$AAn@ 10025ad0     libucrt:lcidtoname_downlevel.obj
 0002:00005adc       ??_C@_1O@IBBJHCH@?$AAk?$AAo?$AAk?$AA?9?$AAi?$AAn@ 10025adc     libucrt:lcidtoname_downlevel.obj
 0002:00005aec       ??_C@_1M@DMHAEOGC@?$AAk?$AAo?$AA?9?$AAk?$AAr@ 10025aec     libucrt:lcidtoname_downlevel.obj
 0002:00005af8       ??_C@_1M@HBAHBIGA@?$AAk?$AAy?$AA?9?$AAk?$AAg@ 10025af8     libucrt:lcidtoname_downlevel.obj
 0002:00005b04       ??_C@_1M@KPMILCJG@?$AAl?$AAt?$AA?9?$AAl?$AAt@ 10025b04     libucrt:lcidtoname_downlevel.obj
 0002:00005b10       ??_C@_1M@BDEKKCA@?$AAl?$AAv?$AA?9?$AAl?$AAv@ 10025b10     libucrt:lcidtoname_downlevel.obj
 0002:00005b1c       ??_C@_1M@ELCKCCJJ@?$AAm?$AAi?$AA?9?$AAn?$AAz@ 10025b1c     libucrt:lcidtoname_downlevel.obj
 0002:00005b28       ??_C@_1M@CBOOLAPA@?$AAm?$AAk?$AA?9?$AAm?$AAk@ 10025b28     libucrt:lcidtoname_downlevel.obj
 0002:00005b34       ??_C@_1M@GPHNBJKN@?$AAm?$AAl?$AA?9?$AAi?$AAn@ 10025b34     libucrt:lcidtoname_downlevel.obj
 0002:00005b40       ??_C@_1M@PABJILIG@?$AAm?$AAn?$AA?9?$AAm?$AAn@ 10025b40     libucrt:lcidtoname_downlevel.obj
 0002:00005b4c       ??_C@_1M@FGBKKIPG@?$AAm?$AAr?$AA?9?$AAi?$AAn@ 10025b4c     libucrt:lcidtoname_downlevel.obj
 0002:00005b58       ??_C@_1M@NDBPDDAL@?$AAm?$AAs?$AA?9?$AAb?$AAn@ 10025b58     libucrt:lcidtoname_downlevel.obj
 0002:00005b64       ??_C@_1M@OPIHOOPI@?$AAm?$AAs?$AA?9?$AAm?$AAy@ 10025b64     libucrt:lcidtoname_downlevel.obj
 0002:00005b70       ??_C@_1M@PPDBCNFM@?$AAm?$AAt?$AA?9?$AAm?$AAt@ 10025b70     libucrt:lcidtoname_downlevel.obj
 0002:00005b7c       ??_C@_1M@KDJDKMDD@?$AAn?$AAb?$AA?9?$AAn?$AAo@ 10025b7c     libucrt:lcidtoname_downlevel.obj
 0002:00005b88       ??_C@_1M@KFCFLMJP@?$AAn?$AAl?$AA?9?$AAb?$AAe@ 10025b88     libucrt:lcidtoname_downlevel.obj
 0002:00005b94       ??_C@_1M@KPOPDDGO@?$AAn?$AAl?$AA?9?$AAn?$AAl@ 10025b94     libucrt:lcidtoname_downlevel.obj
 0002:00005ba0       ??_C@_1M@LJKPEMLN@?$AAn?$AAn?$AA?9?$AAn?$AAo@ 10025ba0     libucrt:lcidtoname_downlevel.obj
 0002:00005bac       ??_C@_1M@BDGHHBFL@?$AAn?$AAs?$AA?9?$AAz?$AAa@ 10025bac     libucrt:lcidtoname_downlevel.obj
 0002:00005bb8       ??_C@_1M@IDEHOAP@?$AAp?$AAa?$AA?9?$AAi?$AAn@ 10025bb8     libucrt:lcidtoname_downlevel.obj
 0002:00005bc4       ??_C@_1M@HDBKGOGH@?$AAp?$AAl?$AA?9?$AAp?$AAl@ 10025bc4     libucrt:lcidtoname_downlevel.obj
 0002:00005bd0       ??_C@_1M@LJLLCMEH@?$AAp?$AAt?$AA?9?$AAb?$AAr@ 10025bd0     libucrt:lcidtoname_downlevel.obj
 0002:00005bdc       ??_C@_1M@NCMONAAL@?$AAp?$AAt?$AA?9?$AAp?$AAt@ 10025bdc     libucrt:lcidtoname_downlevel.obj
 0002:00005be8       ??_C@_1O@EAKMAJDN@?$AAq?$AAu?$AAz?$AA?9?$AAb?$AAo@ 10025be8     libucrt:lcidtoname_downlevel.obj
 0002:00005bf8       ??_C@_1O@BHHPIGDN@?$AAq?$AAu?$AAz?$AA?9?$AAe?$AAc@ 10025bf8     libucrt:lcidtoname_downlevel.obj
 0002:00005c08       ??_C@_1O@GBAPEKMJ@?$AAq?$AAu?$AAz?$AA?9?$AAp?$AAe@ 10025c08     libucrt:lcidtoname_downlevel.obj
 0002:00005c18       ??_C@_1M@CLGLEFBO@?$AAr?$AAo?$AA?9?$AAr?$AAo@ 10025c18     libucrt:lcidtoname_downlevel.obj
 0002:00005c24       ??_C@_1M@CEEDODME@?$AAr?$AAu?$AA?9?$AAr?$AAu@ 10025c24     libucrt:lcidtoname_downlevel.obj
 0002:00005c30       ??_C@_1M@HPKKKMPP@?$AAs?$AAa?$AA?9?$AAi?$AAn@ 10025c30     libucrt:lcidtoname_downlevel.obj
 0002:00005c3c       ??_C@_1M@BKMAIGOJ@?$AAs?$AAe?$AA?9?$AAf?$AAi@ 10025c3c     libucrt:lcidtoname_downlevel.obj
 0002:00005c48       ??_C@_1M@NDPIFLFI@?$AAs?$AAe?$AA?9?$AAn?$AAo@ 10025c48     libucrt:lcidtoname_downlevel.obj
 0002:00005c54       ??_C@_1M@DANKKHJ@?$AAs?$AAe?$AA?9?$AAs?$AAe@ 10025c54     libucrt:lcidtoname_downlevel.obj
 0002:00005c60       ??_C@_1M@PNBLONPJ@?$AAs?$AAk?$AA?9?$AAs?$AAk@ 10025c60     libucrt:lcidtoname_downlevel.obj
 0002:00005c6c       ??_C@_1M@LFMODOAL@?$AAs?$AAl?$AA?9?$AAs?$AAi@ 10025c6c     libucrt:lcidtoname_downlevel.obj
 0002:00005c78       ??_C@_1O@DFKOMPG@?$AAs?$AAm?$AAa?$AA?9?$AAn?$AAo@ 10025c78     libucrt:lcidtoname_downlevel.obj
 0002:00005c88       ??_C@_1O@NDKPBNNH@?$AAs?$AAm?$AAa?$AA?9?$AAs?$AAe@ 10025c88     libucrt:lcidtoname_downlevel.obj
 0002:00005c98       ??_C@_1O@PLLKBHAB@?$AAs?$AAm?$AAj?$AA?9?$AAn?$AAo@ 10025c98     libucrt:lcidtoname_downlevel.obj
 0002:00005ca8       ??_C@_1O@CLEPOGCA@?$AAs?$AAm?$AAj?$AA?9?$AAs?$AAe@ 10025ca8     libucrt:lcidtoname_downlevel.obj
 0002:00005cb8       ??_C@_1O@DLGJGKMK@?$AAs?$AAm?$AAn?$AA?9?$AAf?$AAi@ 10025cb8     libucrt:lcidtoname_downlevel.obj
 0002:00005cc8       ??_C@_1O@OJDJGAJC@?$AAs?$AAm?$AAs?$AA?9?$AAf?$AAi@ 10025cc8     libucrt:lcidtoname_downlevel.obj
 0002:00005cd8       ??_C@_1M@BOFOGHPB@?$AAs?$AAq?$AA?9?$AAa?$AAl@ 10025cd8     libucrt:lcidtoname_downlevel.obj
 0002:00005ce4       ??_C@_1BG@LJBBIPGB@?$AAs?$AAr?$AA?9?$AAb?$AAa?$AA?9?$AAc?$AAy?$AAr?$AAl@ 10025ce4     libucrt:lcidtoname_downlevel.obj
 0002:00005cfc       ??_C@_1BG@JLBENFOE@?$AAs?$AAr?$AA?9?$AAb?$AAa?$AA?9?$AAl?$AAa?$AAt?$AAn@ 10025cfc     libucrt:lcidtoname_downlevel.obj
 0002:00005d14       ??_C@_1BG@KODPNHE@?$AAs?$AAr?$AA?9?$AAs?$AAp?$AA?9?$AAc?$AAy?$AAr?$AAl@ 10025d14     libucrt:lcidtoname_downlevel.obj
 0002:00005d2c       ??_C@_1BG@CIOGKHPB@?$AAs?$AAr?$AA?9?$AAs?$AAp?$AA?9?$AAl?$AAa?$AAt?$AAn@ 10025d2c     libucrt:lcidtoname_downlevel.obj
 0002:00005d44       ??_C@_1M@NGFJLMAC@?$AAs?$AAv?$AA?9?$AAf?$AAi@ 10025d44     libucrt:lcidtoname_downlevel.obj
 0002:00005d50       ??_C@_1M@MPJEJAJC@?$AAs?$AAv?$AA?9?$AAs?$AAe@ 10025d50     libucrt:lcidtoname_downlevel.obj
 0002:00005d5c       ??_C@_1M@MPNDHLFK@?$AAs?$AAw?$AA?9?$AAk?$AAe@ 10025d5c     libucrt:lcidtoname_downlevel.obj
 0002:00005d68       ??_C@_1O@KOHBJJI@?$AAs?$AAy?$AAr?$AA?9?$AAs?$AAy@ 10025d68     libucrt:lcidtoname_downlevel.obj
 0002:00005d78       ??_C@_1M@LDCEFHA@?$AAt?$AAa?$AA?9?$AAi?$AAn@ 10025d78     libucrt:lcidtoname_downlevel.obj
 0002:00005d84       ??_C@_1M@CNJOFAK@?$AAt?$AAe?$AA?9?$AAi?$AAn@ 10025d84     libucrt:lcidtoname_downlevel.obj
 0002:00005d90       ??_C@_1M@GNAECACD@?$AAt?$AAh?$AA?9?$AAt?$AAh@ 10025d90     libucrt:lcidtoname_downlevel.obj
 0002:00005d9c       ??_C@_1M@CHBIHOJO@?$AAt?$AAn?$AA?9?$AAz?$AAa@ 10025d9c     libucrt:lcidtoname_downlevel.obj
 0002:00005da8       ??_C@_1M@GCCMIGPJ@?$AAt?$AAr?$AA?9?$AAt?$AAr@ 10025da8     libucrt:lcidtoname_downlevel.obj
 0002:00005db4       ??_C@_1M@CELMCNBK@?$AAt?$AAt?$AA?9?$AAr?$AAu@ 10025db4     libucrt:lcidtoname_downlevel.obj
 0002:00005dc0       ??_C@_1M@KLMCELGA@?$AAu?$AAk?$AA?9?$AAu?$AAa@ 10025dc0     libucrt:lcidtoname_downlevel.obj
 0002:00005dcc       ??_C@_1M@EPAJJAJF@?$AAu?$AAr?$AA?9?$AAp?$AAk@ 10025dcc     libucrt:lcidtoname_downlevel.obj
 0002:00005dd8       ??_C@_1BG@GEGPMCDJ@?$AAu?$AAz?$AA?9?$AAu?$AAz?$AA?9?$AAc?$AAy?$AAr?$AAl@ 10025dd8     libucrt:lcidtoname_downlevel.obj
 0002:00005df0       ??_C@_1BG@EGGKJILM@?$AAu?$AAz?$AA?9?$AAu?$AAz?$AA?9?$AAl?$AAa?$AAt?$AAn@ 10025df0     libucrt:lcidtoname_downlevel.obj
 0002:00005e08       ??_C@_1M@GFOCLFF@?$AAv?$AAi?$AA?9?$AAv?$AAn@ 10025e08     libucrt:lcidtoname_downlevel.obj
 0002:00005e14       ??_C@_1M@CPAMEDFI@?$AAx?$AAh?$AA?9?$AAz?$AAa@ 10025e14     libucrt:lcidtoname_downlevel.obj
 0002:00005e20       ??_C@_1O@EBKIFIGN@?$AAz?$AAh?$AA?9?$AAc?$AAh?$AAs@ 10025e20     libucrt:lcidtoname_downlevel.obj
 0002:00005e30       ??_C@_1O@NMHPGANE@?$AAz?$AAh?$AA?9?$AAc?$AAh?$AAt@ 10025e30     libucrt:lcidtoname_downlevel.obj
 0002:00005e40       ??_C@_1M@LPINJOMC@?$AAz?$AAh?$AA?9?$AAc?$AAn@ 10025e40     libucrt:lcidtoname_downlevel.obj
 0002:00005e4c       ??_C@_1M@OCJEJODD@?$AAz?$AAh?$AA?9?$AAh?$AAk@ 10025e4c     libucrt:lcidtoname_downlevel.obj
 0002:00005e58       ??_C@_1M@DNDLJINH@?$AAz?$AAh?$AA?9?$AAm?$AAo@ 10025e58     libucrt:lcidtoname_downlevel.obj
 0002:00005e64       ??_C@_1M@MBFDNDND@?$AAz?$AAh?$AA?9?$AAs?$AAg@ 10025e64     libucrt:lcidtoname_downlevel.obj
 0002:00005e70       ??_C@_1M@IMEPLEPE@?$AAz?$AAh?$AA?9?$AAt?$AAw@ 10025e70     libucrt:lcidtoname_downlevel.obj
 0002:00005e7c       ??_C@_1M@BBGHNHJP@?$AAz?$AAu?$AA?9?$AAz?$AAa@ 10025e7c     libucrt:lcidtoname_downlevel.obj
 0002:00005e88       ?large_power_data@?1??multiply_by_power_of_ten@__crt_strtox@@YA_NAAUbig_integer@2@I@Z@4QBIB 10025e88     libucrt:cfout.obj
 0002:00006790       ?large_power_indices@?1??multiply_by_power_of_ten@__crt_strtox@@YA_NAAUbig_integer@2@I@Z@4QBUunpack_index@?1??12@YA_N0I@Z@B 10026790     libucrt:cfout.obj
 0002:00006828       ?small_powers_of_ten@?1??multiply_by_power_of_ten@__crt_strtox@@YA_NAAUbig_integer@2@I@Z@4QBIB 10026828     libucrt:cfout.obj
 0002:0000684c       ??_C@_01GBGANLPD@0@        1002684c     libucrt:cfout.obj
 0002:00006850       ??_C@_05DNEBIAHO@1?$CDINF@ 10026850     libucrt:cfout.obj
 0002:00006858       ??_C@_06IMKFLFPG@1?$CDQNAN@ 10026858     libucrt:cfout.obj
 0002:00006860       ??_C@_06PGGFOGJG@1?$CDSNAN@ 10026860     libucrt:cfout.obj
 0002:00006868       ??_C@_05PHHOCPM@1?$CDIND@  10026868     libucrt:cfout.obj
 0002:000069d0       __infinity                 100269d0     libucrt:87tran.obj
 0002:000069da       __minfinity                100269da     libucrt:87tran.obj
 0002:000069e4       __logemax                  100269e4     libucrt:87tran.obj
 0002:00006a0a       __OP_EXPjmptab             10026a0a     libucrt:87tran.obj
 0002:00006a30       __indefinite               10026a30     libucrt:87disp.obj
 0002:00006a3a       __piby2                    10026a3a     libucrt:87disp.obj
 0002:00006a44       __piby4                    10026a44     libucrt:87disp.obj
 0002:00006a78       __DEFAULT_CW_in_mem        10026a78     libucrt:common.obj
 0002:00006a7a       __pi_by_2_to_61            10026a7a     libucrt:common.obj
 0002:00006ab4       ??_C@_03MGHMBJCF@log@      10026ab4     libucrt:libm_error.obj
 0002:00006ab8       ??_C@_05HGHHAHAP@log10@    10026ab8     libucrt:libm_error.obj
 0002:00006ac0       ??_C@_03KHJOGHMM@exp@      10026ac0     libucrt:libm_error.obj
 0002:00006ac4       ??_C@_03JGHBODFD@pow@      10026ac4     libucrt:libm_error.obj
 0002:00006ac8       ??_C@_04FIHNOPOL@asin@     10026ac8     libucrt:libm_error.obj
 0002:00006ad0       ??_C@_04PDIFKINK@acos@     10026ad0     libucrt:libm_error.obj
 0002:00006ad8       ??_C@_04EIAKFFMI@sqrt@     10026ad8     libucrt:libm_error.obj
 0002:00006ae0       __real@3ff0000000000000    10026ae0     libucrt:libm_error.obj
 0002:00006ae8       ??_C@_1BA@BALFACEM@?$AAC?$AAO?$AAN?$AAO?$AAU?$AAT?$AA$@ 10026ae8     libucrt:initcon.obj
 0002:00006b10       ___acrt_log10_table_t      10026b10     libucrt:log10_tables.obj
 0002:00006f20       ___acrt_log10_table_cb     10026f20     libucrt:log10_tables.obj
 0002:00007330       __real@3fe0000000000000    10027330     libucrt:powhlp.obj
 0002:00007420       ??_C@_04COOMCNPB@sinh@     10027420     libucrt:fpexcept.obj
 0002:00007428       ??_C@_04HPJJNFIM@cosh@     10027428     libucrt:fpexcept.obj
 0002:00007430       ??_C@_04FJHINJAO@tanh@     10027430     libucrt:fpexcept.obj
 0002:00007438       ??_C@_04MLLJIGOK@atan@     10027438     libucrt:fpexcept.obj
 0002:00007440       ??_C@_05KNGEOGJB@atan2@    10027440     libucrt:fpexcept.obj
 0002:00007448       ??_C@_03BLEJJJBH@sin@      10027448     libucrt:fpexcept.obj
 0002:0000744c       ??_C@_03LALBNOCG@cos@      1002744c     libucrt:fpexcept.obj
 0002:00007450       ??_C@_03IIINPABG@tan@      10027450     libucrt:fpexcept.obj
 0002:00007454       ??_C@_04GFPJNGEK@ceil@     10027454     libucrt:fpexcept.obj
 0002:0000745c       ??_C@_05PBJFFIGL@floor@    1002745c     libucrt:fpexcept.obj
 0002:00007464       ??_C@_04ODHECPBC@fabs@     10027464     libucrt:fpexcept.obj
 0002:0000746c       ??_C@_04EHEDPDJG@modf@     1002746c     libucrt:fpexcept.obj
 0002:00007474       ??_C@_05CEJMAHNP@ldexp@    10027474     libucrt:fpexcept.obj
 0002:0000747c       ??_C@_05KBKMEMPO@_cabs@    1002747c     libucrt:fpexcept.obj
 0002:00007484       ??_C@_06MEIMCGCF@_hypot@   10027484     libucrt:fpexcept.obj
 0002:0000748c       ??_C@_04KEPJIHGP@fmod@     1002748c     libucrt:fpexcept.obj
 0002:00007494       ??_C@_05GKKHEGJL@frexp@    10027494     libucrt:fpexcept.obj
 0002:0000749c       ??_C@_03MJLDFKDL@_y0@      1002749c     libucrt:fpexcept.obj
 0002:000074a0       ??_C@_03NAKIGLHK@_y1@      100274a0     libucrt:fpexcept.obj
 0002:000074a4       ??_C@_03ONILCKOB@_yn@      100274a4     libucrt:fpexcept.obj
 0002:000074a8       ??_C@_05JGDBENOH@_logb@    100274a8     libucrt:fpexcept.obj
 0002:000074b0       ??_C@_0L@KDOEJCKC@_nextafter@ 100274b0     libucrt:fpexcept.obj
 0002:000074c0       __d_inf                    100274c0     libucrt:util.obj
 0002:000074c8       __d_max                    100274c8     libucrt:util.obj
 0002:000074d0       __d_mzero                  100274d0     libucrt:util.obj
 0002:00007540       __load_config_used         10027540     LIBCMT:loadcfg.obj
 0002:00007600       __tls_used                 10027600     LIBCMT:tlssup.obj
 0002:00007618       ??_R4exception@std@@6B@    10027618     LIBCMT:throw_bad_alloc.obj
 0002:0000762c       ??_R3exception@std@@8      1002762c     LIBCMT:throw_bad_alloc.obj
 0002:0000763c       ??_R2exception@std@@8      1002763c     LIBCMT:throw_bad_alloc.obj
 0002:00007644       ??_R1A@?0A@EA@exception@std@@8 10027644     LIBCMT:throw_bad_alloc.obj
 0002:00007660       ??_R4bad_alloc@std@@6B@    10027660     LIBCMT:throw_bad_alloc.obj
 0002:00007674       ??_R3bad_alloc@std@@8      10027674     LIBCMT:throw_bad_alloc.obj
 0002:00007684       ??_R2bad_alloc@std@@8      10027684     LIBCMT:throw_bad_alloc.obj
 0002:00007690       ??_R1A@?0A@EA@bad_alloc@std@@8 10027690     LIBCMT:throw_bad_alloc.obj
 0002:000076ac       ??_R4bad_array_new_length@std@@6B@ 100276ac     LIBCMT:throw_bad_alloc.obj
 0002:000076c0       ??_R3bad_array_new_length@std@@8 100276c0     LIBCMT:throw_bad_alloc.obj
 0002:000076d0       ??_R2bad_array_new_length@std@@8 100276d0     LIBCMT:throw_bad_alloc.obj
 0002:000076e0       ??_R1A@?0A@EA@bad_array_new_length@std@@8 100276e0     LIBCMT:throw_bad_alloc.obj
 0002:000076fc       ??_R4type_info@@6B@        100276fc     LIBCMT:std_type_info_static.obj
 0002:00007710       ??_R3type_info@@8          10027710     LIBCMT:std_type_info_static.obj
 0002:00007720       ??_R2type_info@@8          10027720     LIBCMT:std_type_info_static.obj
 0002:00007728       ??_R1A@?0A@EA@type_info@@8 10027728     LIBCMT:std_type_info_static.obj
 0002:00007744       ??_R4bad_exception@std@@6B@ 10027744     libvcruntime:frame.obj
 0002:00007758       ??_R3bad_exception@std@@8  10027758     libvcruntime:frame.obj
 0002:00007768       ??_R2bad_exception@std@@8  10027768     libvcruntime:frame.obj
 0002:00007774       ??_R1A@?0A@EA@bad_exception@std@@8 10027774     libvcruntime:frame.obj
 0002:00007790       ___safe_se_handler_table   10027790     <linker-defined>
 0002:00007b8c       ___rtc_iaa                 10027b8c     LIBCMT:initsect.obj
 0002:00007b90       ___rtc_izz                 10027b90     LIBCMT:initsect.obj
 0002:00007b94       ___rtc_taa                 10027b94     LIBCMT:initsect.obj
 0002:00007b98       ___rtc_tzz                 10027b98     LIBCMT:initsect.obj
 0002:00007b9c       __tls_start                10027b9c     LIBCMT:tlssup.obj
 0002:00007ba0       __Init_thread_epoch        10027ba0     LIBCMT:thread_safe_statics.obj
 0002:00007ba4       __tls_end                  10027ba4     LIBCMT:tlssup.obj
 0002:00007ca4       __TI2?AVbad_alloc@std@@    10027ca4     LIBCMT:throw_bad_alloc.obj
 0002:00007cb4       __CTA2?AVbad_alloc@std@@   10027cb4     LIBCMT:throw_bad_alloc.obj
 0002:00007cc0       __CT??_R0?AVbad_alloc@std@@@8??0bad_alloc@std@@QAE@ABV01@@Z12 10027cc0     LIBCMT:throw_bad_alloc.obj
 0002:00007cdc       __CT??_R0?AVexception@std@@@8??0exception@std@@QAE@ABV01@@Z12 10027cdc     LIBCMT:throw_bad_alloc.obj
 0002:00007cf8       __TI3?AVbad_array_new_length@std@@ 10027cf8     LIBCMT:throw_bad_alloc.obj
 0002:00007d08       __CTA3?AVbad_array_new_length@std@@ 10027d08     LIBCMT:throw_bad_alloc.obj
 0002:00007d18       __CT??_R0?AVbad_array_new_length@std@@@8??0bad_array_new_length@std@@QAE@ABV01@@Z12 10027d18     LIBCMT:throw_bad_alloc.obj
 0002:00007e3c       __TI2?AVbad_exception@std@@ 10027e3c     libvcruntime:frame.obj
 0002:00007e4c       __CTA2?AVbad_exception@std@@ 10027e4c     libvcruntime:frame.obj
 0002:00007e58       __CT??_R0?AVbad_exception@std@@@8??0bad_exception@std@@QAE@ABV01@@Z12 10027e58     libvcruntime:frame.obj
 0002:000081d4       ___pobjMapEntryFirst       100281d4     OposVariant.obj
 0002:000081d8       ___pobjMapEntryLast        100281d8     OposVariant.obj
 0002:00008290       __IMPORT_DESCRIPTOR_KERNEL32 10028290     kernel32:KERNEL32.dll
 0002:000082a4       __IMPORT_DESCRIPTOR_USER32 100282a4     user32:USER32.dll
 0002:000082b8       __IMPORT_DESCRIPTOR_GDI32  100282b8     gdi32:GDI32.dll
 0002:000082cc       __IMPORT_DESCRIPTOR_ADVAPI32 100282cc     advapi32:ADVAPI32.dll
 0002:000082e0       __IMPORT_DESCRIPTOR_ole32  100282e0     ole32:ole32.dll
 0002:000082f4       __IMPORT_DESCRIPTOR_OLEAUT32 100282f4     oleaut32:OLEAUT32.dll
 0002:00008308       __NULL_IMPORT_DESCRIPTOR   10028308     kernel32:KERNEL32.dll
 0003:00000000       ?s_Claim@?7??GetIDsOfNames@CComTypeInfoHolder@ATL@@QAEJABU_GUID@@PAPA_WIKPAJ@Z@4PA_WA 1002a000     CoinAcceptor.obj
 0003:00000018       ?s_Release@?7??GetIDsOfNames@CComTypeInfoHolder@ATL@@QAEJABU_GUID@@PAPA_WIKPAJ@Z@4PA_WA 1002a018     CoinAcceptor.obj
 0003:00000034       ?_tih@?$IDispatchImpl@UIOPOSCoinAcceptor@@$1?IID_IOPOSCoinAcceptor@@3U_GUID@@B$1?LIBID_OposCoinAcceptor_CCO@@3U3@B$00$0A@VCComTypeInfoHolder@ATL@@@ATL@@1VCComTypeInfoHolder@2@A 1002a034     CoinAcceptor.obj
 0003:00000050       ?_tih@?$IProvideClassInfo2Impl@$1?CLSID_OPOSCoinAcceptor@@3U_GUID@@B$1?DIID__IOPOSCoinAcceptorEvents@@3U2@B$1?LIBID_OposCoinAcceptor_CCO@@3U2@B$00$0A@VCComTypeInfoHolder@ATL@@@ATL@@1VCComTypeInfoHolder@2@A 1002a050     CoinAcceptor.obj
 0003:0000006c       ?vszContents@?6??Save@?$IPersistStorageImpl@VCOPOSCoinAcceptor@@@ATL@@UAGJPAUIStorage@@H@Z@4PB_WB 1002a06c     CoinAcceptor.obj
 0003:00000070       ?wc@?1??GetWndClassInfo@?$CWindowImpl@VCOPOSCoinAcceptor@@VCWindow@ATL@@V?$CWinTraits@$0FGAAAAAA@$0A@@3@@ATL@@SAAAU_ATL_WNDCLASSINFOW@3@XZ@4U43@A 1002a070     CoinAcceptor.obj
 0003:000000fc       ?rcDefault@CWindow@ATL@@2UtagRECT@@A 1002a0fc     CoinAcceptor.obj
 0003:00000158       ?g_WindowName@@3PA_WA      1002a158     CoinAcceptorImpl.obj
 0003:00000180       ?g_ControlDescription@@3PADA 1002a180     CoinAcceptorImpl.obj
 0003:000001cc       ?g_ControlVersion@@3JA     1002a1cc     CoinAcceptorImpl.obj
 0003:00000234       ___scrt_native_dllmain_reason 1002a234     LIBCMT:utility.obj
 0003:00000238       __Init_global_epoch        1002a238     LIBCMT:thread_safe_statics.obj
 0003:00000240       ___security_cookie_complement 1002a240     LIBCMT:gs_cookie.obj
 0003:00000244       ___security_cookie         1002a244     LIBCMT:gs_cookie.obj
 0003:00000248       ___isa_enabled             1002a248     LIBCMT:cpu_disp.obj
 0003:00000260       __NLG_Destination          1002a260     libvcruntime:exsup.obj
 0003:00000278       ___abort_behavior          1002a278     libucrt:abort.obj
 0003:00000288       __iob                      1002a288     libucrt:_file.obj
 0003:00000330       ___acrt_initial_locale_data 1002a330     libucrt:nlsdata.obj
 0003:000003e8       ___acrt_initial_locale_pointers 1002a3e8     libucrt:nlsdata.obj
 0003:000003f0       ___acrt_wide_c_locale_string 1002a3f0     libucrt:nlsdata.obj
 0003:000003f8       ___acrt_initial_multibyte_data 1002a3f8     libucrt:mbctype.obj
 0003:00000918       __pwctype                  1002a918     libucrt:ctype.obj
 0003:0000091c       ___globallocalestatus      1002a91c     libucrt:glstatus.obj
 0003:00000920       ___acrt_lconv_c            1002a920     libucrt:localeconv.obj
 0003:00000970       ___acrt_lconv_static_decimal 1002a970     libucrt:localeconv.obj
 0003:00000974       ___acrt_lconv_static_W_decimal 1002a974     libucrt:localeconv.obj
 0003:00000980       __lookuptrailbytes         1002a980     libucrt:read.obj
 0003:00000a90       __fltused                  1002aa90     LIBCMT:fltused.obj
 0003:00000aa0       ??_R0?AVbad_alloc@std@@@8  1002aaa0     LIBCMT:throw_bad_alloc.obj
 0003:00000abc       ??_R0?AVexception@std@@@8  1002aabc     LIBCMT:throw_bad_alloc.obj
 0003:00000ad8       ??_R0?AVbad_array_new_length@std@@@8 1002aad8     LIBCMT:throw_bad_alloc.obj
 0003:00000b00       ??_R0?AVtype_info@@@8      1002ab00     LIBCMT:std_type_info_static.obj
 0003:00000b18       ??_R0?AVbad_exception@std@@@8 1002ab18     libvcruntime:frame.obj
 0003:00000b38       ?m_bInitFailed@CAtlBaseModule@ATL@@2_NA 1002ab38     OposVariant.obj
 0003:00000b3c       ?_pPerfRegFunc@ATL@@3P6AJPAUHINSTANCE__@@@ZA 1002ab3c     OposVariant.obj
 0003:00000b40       ?_pPerfUnRegFunc@ATL@@3P6AJXZA 1002ab40     OposVariant.obj
 0003:00000b44       ?_AtlRegisterPerUser@ATL@@3_NA 1002ab44     OposVariant.obj
 0003:00000b48       ?_pAtlModule@ATL@@3PAVCAtlModule@1@A 1002ab48     OposVariant.obj
 0003:00000b4c       ?_pModule@ATL@@3PAVCComModule@1@A 1002ab4c     OposVariant.obj
 0003:00000b50       ?_AtlComModule@ATL@@3VCAtlComModule@1@A 1002ab50     OposVariant.obj
 0003:00000b78       ?_AtlWinModule@ATL@@3VCAtlWinModule@1@A 1002ab78     OposVariant.obj
 0003:00000ba4       ?m_libid@CAtlModule@ATL@@2U_GUID@@A 1002aba4     CoinAcceptor.obj
 0003:00000bb4       ?_entries@?1??GetConnMap@COPOSCoinAcceptor@@SAPBU_ATL_CONNMAP_ENTRY@ATL@@PAH@Z@4QBU34@B 1002abb4     CoinAcceptor.obj
 0003:00000bc0       ?$TSS0@?1??GetConnMap@COPOSCoinAcceptor@@SAPBU_ATL_CONNMAP_ENTRY@ATL@@PAH@Z@4HA 1002abc0     CoinAcceptor.obj
 0003:00000bc8       ?_OptionsStorage@?1??__local_stdio_printf_options@@9@4_KA 1002abc8     CoinAcceptor.obj
 0003:00000bd0       ?pfnRegDeleteKeyEx@?1??DeleteSubKey@CRegKey@ATL@@QAEJPB_W@Z@4P6GJPAUHKEY__@@0KK@ZA 1002abd0     CoinAcceptor.obj
 0003:00000bd4       ?bInitialized@?1??DeleteSubKey@CRegKey@ATL@@QAEJPB_W@Z@4_NA 1002abd4     CoinAcceptor.obj
 0003:00000bd8       ?_Module@@3VCComModule@ATL@@A 1002abd8     CoinAcceptor.obj
 0003:00000c08       ?pConnMap@?$IConnectionPointContainerImpl@VCOPOSCoinAcceptor@@@ATL@@0PBU_ATL_CONNMAP_ENTRY@2@B 1002ac08     CoinAcceptor.obj
 0003:00000c0c       ?s_nInstances@COPOSCoinAcceptor@@1HA 1002ac0c     CoinAcceptorImpl.obj
 0003:00000c10       ___scrt_current_native_startup_state 1002ac10     LIBCMT:utility.obj
 0003:00000c14       ___scrt_native_startup_lock 1002ac14     LIBCMT:utility.obj
 0003:00000f7c       __tls_index                1002af7c     LIBCMT:tlssup.obj
 0003:00000f84       ___isa_available           1002af84     LIBCMT:cpu_disp.obj
 0003:00000f88       ___favor                   1002af88     LIBCMT:cpu_disp.obj
 0003:00000f8c       ___scrt_debugger_hook_flag 1002af8c     LIBCMT:utility_desktop.obj
 0003:00000f90       ___castguard_check_failure_os_handled_fptr 1002af90     LIBCMT:guard_support.obj
 0003:00000f98       ?__type_info_root_node@@3U__type_info_node@@A 1002af98     LIBCMT:tncleanup.obj
 0003:00000fa0       ?_OptionsStorage@?1??__local_stdio_scanf_options@@9@4_KA 1002afa0     LIBCMT:default_local_stdio_options.obj
 0003:00000fa8       ?_AtlBaseModule@ATL@@3VCAtlBaseModule@1@A 1002afa8     atls:atlbase.obj
 0003:00000fe0       ?__AtlThunkPool@@3PAT_SLIST_HEADER@@A 1002afe0     atls:atlthunk.obj
 0003:00000ff8       ___@@_PchSym_@00@UztvmgUPdlipUFHUhUrmgvinvwrzgvUexgllohUzgohOmzgrevkilqPBACIAJCBDBUlyqiUcIGUhgwzucOlyq@4B2008FD98C1DD4 1002aff8     atls:stdafx.obj
 0003:00000ffc       ?__WinRTOutOfMemoryExceptionCallback@@3P6GPAXXZA 1002affc     libvcruntime:ehhelpers.obj
 0003:00001000       ___pPurecall               1002b000     libvcruntime:purevirt_data.obj
 0003:00001048       ?pArgList@UnDecorator@@0PAVReplicator@@A 1002b048     libvcruntime:undname.obj
 0003:0000104c       ?pZNameList@UnDecorator@@0PAVReplicator@@A 1002b04c     libvcruntime:undname.obj
 0003:00001050       ?pTemplateArgList@UnDecorator@@0PAVReplicator@@A 1002b050     libvcruntime:undname.obj
 0003:00001054       ?gName@UnDecorator@@0PBDB  1002b054     libvcruntime:undname.obj
 0003:00001058       ?name@UnDecorator@@0PBDB   1002b058     libvcruntime:undname.obj
 0003:0000105c       ?disableFlags@UnDecorator@@0KA 1002b05c     libvcruntime:undname.obj
 0003:00001060       ?fExplicitTemplateParams@UnDecorator@@0_NA 1002b060     libvcruntime:undname.obj
 0003:00001061       ?fGetTemplateArgumentList@UnDecorator@@0_NA 1002b061     libvcruntime:undname.obj
 0003:00001064       ?m_pGetParameter@UnDecorator@@0P6APADJ@ZA 1002b064     libvcruntime:undname.obj
 0003:00001068       ?m_CHPENameOffset@UnDecorator@@0KA 1002b068     libvcruntime:undname.obj
 0003:0000106c       ?m_recursionLevel@UnDecorator@@0KA 1002b06c     libvcruntime:undname.obj
 0003:000010b0       ?c_exit_complete@?1???R<lambda_6e4b09c48022b2350581041d5f6b0c4c>@@QBE@XZ@4_NA 1002b0b0     libucrt:exit.obj
 0003:000011c0       __environ_table            1002b1c0     libucrt:environment_initialization.obj
 0003:000011c4       __wenviron_table           1002b1c4     libucrt:environment_initialization.obj
 0003:000011c8       ___dcrt_initial_wide_environment 1002b1c8     libucrt:environment_initialization.obj
 0003:000011cc       ___dcrt_initial_narrow_environment 1002b1cc     libucrt:environment_initialization.obj
 0003:000011d0       ___acrt_atexit_table       1002b1d0     libucrt:onexit.obj
 0003:000011dc       ___acrt_at_quick_exit_table 1002b1dc     libucrt:onexit.obj
 0003:000012d0       __nstream                  1002b2d0     libucrt:_file.obj
 0003:000012d4       ___piob                    1002b2d4     libucrt:_file.obj
 0003:000012dc       ___acrt_stdout_buffer      1002b2dc     libucrt:_sftbuf.obj
 0003:000012e0       ___acrt_stderr_buffer      1002b2e0     libucrt:_sftbuf.obj
 0003:000012e4       ___acrt_locale_changed_data 1002b2e4     libucrt:wsetlocale.obj
 0003:000012e8       ___acrt_current_locale_data 1002b2e8     libucrt:nlsdata.obj
 0003:000012f0       ___pioinfo                 1002b2f0     libucrt:ioinit.obj
 0003:000014f0       __nhandle                  1002b4f0     libucrt:ioinit.obj
 0003:0000164c       __mbctype                  1002b64c     libucrt:mbctype.obj
 0003:00001650       __mbcasemap                1002b650     libucrt:mbctype.obj
 0003:00001654       ___acrt_current_multibyte_data 1002b654     libucrt:mbctype.obj
 0003:00001660       __pgmptr                   1002b660     libucrt:argv_data.obj
 0003:00001664       ___argc                    1002b664     libucrt:argv_data.obj
 0003:00001668       ___argv                    1002b668     libucrt:argv_data.obj
 0003:0000166c       ___wargv                   1002b66c     libucrt:argv_data.obj
 0003:00001670       __acmdln                   1002b670     libucrt:argv_data.obj
 0003:00001674       __wcmdln                   1002b674     libucrt:argv_data.obj
 0003:00001678       ___acrt_heap               1002b678     libucrt:heap_handle.obj
 0003:00001694       ___acrt_lconv_static_null  1002b694     libucrt:localeconv.obj
 0003:00001698       ___acrt_lconv_static_W_null 1002b698     libucrt:localeconv.obj
 0003:000016a8       ___fastflag                1002b6a8     libucrt:fp_flags.obj
 0003:000016b0       ___dyn_tls_init_callback   1002b6b0     <common>
 0003:000016b4       ___scrt_ucrt_dll_is_in_use 1002b6b4     <common>
 0003:000016b8       __pmatherr                 1002b6b8     <common>
 0003:000016bc       ___use_sse2_mathfcns       1002b6bc     <common>

 entry point at        0001:0000be3d

 Static symbols

 0000:fffcd000       .debug$S                   10000000     OPOSCoinAcceptor.exp
 0000:fffcd000       .debug$S                   10000000     advapi32:ADVAPI32.dll
 0000:fffcd000       .debug$S                   10000000     advapi32:ADVAPI32.dll
 0000:fffcd000       .debug$S                   10000000     advapi32:ADVAPI32.dll
 0000:fffcd000       .debug$S                   10000000     advapi32:ADVAPI32.dll
 0000:fffcd000       .debug$S                   10000000     advapi32:ADVAPI32.dll
 0000:fffcd000       .debug$S                   10000000     advapi32:ADVAPI32.dll
 0000:fffcd000       .debug$S                   10000000     advapi32:ADVAPI32.dll
 0000:fffcd000       .debug$S                   10000000     advapi32:ADVAPI32.dll
 0000:fffcd000       .debug$S                   10000000     advapi32:ADVAPI32.dll
 0000:fffcd000       .debug$S                   10000000     gdi32:GDI32.dll
 0000:fffcd000       .debug$S                   10000000     gdi32:GDI32.dll
 0000:fffcd000       .debug$S                   10000000     gdi32:GDI32.dll
 0000:fffcd000       .debug$S                   10000000     gdi32:GDI32.dll
 0000:fffcd000       .debug$S                   10000000     gdi32:GDI32.dll
 0000:fffcd000       .debug$S                   10000000     gdi32:GDI32.dll
 0000:fffcd000       .debug$S                   10000000     gdi32:GDI32.dll
 0000:fffcd000       .debug$S                   10000000     gdi32:GDI32.dll
 0000:fffcd000       .debug$S                   10000000     gdi32:GDI32.dll
 0000:fffcd000       .debug$S                   10000000     gdi32:GDI32.dll
 0000:fffcd000       .debug$S                   10000000     gdi32:GDI32.dll
 0000:fffcd000       .debug$S                   10000000     gdi32:GDI32.dll
 0000:fffcd000       .debug$S                   10000000     gdi32:GDI32.dll
 0000:fffcd000       .debug$S                   10000000     gdi32:GDI32.dll
 0000:fffcd000       .debug$S                   10000000     gdi32:GDI32.dll
 0000:fffcd000       .debug$S                   10000000     gdi32:GDI32.dll
 0000:fffcd000       .debug$S                   10000000     gdi32:GDI32.dll
 0000:fffcd000       .debug$S                   10000000     gdi32:GDI32.dll
 0000:fffcd000       .debug$S                   10000000     gdi32:GDI32.dll
 0000:fffcd000       .debug$S                   10000000     kernel32:KERNEL32.dll
 0000:fffcd000       .debug$S                   10000000     kernel32:KERNEL32.dll
 0000:fffcd000       .debug$S                   10000000     kernel32:KERNEL32.dll
 0000:fffcd000       .debug$S                   10000000     kernel32:KERNEL32.dll
 0000:fffcd000       .debug$S                   10000000     kernel32:KERNEL32.dll
 0000:fffcd000       .debug$S                   10000000     kernel32:KERNEL32.dll
 0000:fffcd000       .debug$S                   10000000     kernel32:KERNEL32.dll
 0000:fffcd000       .debug$S                   10000000     kernel32:KERNEL32.dll
 0000:fffcd000       .debug$S                   10000000     kernel32:KERNEL32.dll
 0000:fffcd000       .debug$S                   10000000     kernel32:KERNEL32.dll
 0000:fffcd000       .debug$S                   10000000     kernel32:KERNEL32.dll
 0000:fffcd000       .debug$S                   10000000     kernel32:KERNEL32.dll
 0000:fffcd000       .debug$S                   10000000     kernel32:KERNEL32.dll
 0000:fffcd000       .debug$S                   10000000     kernel32:KERNEL32.dll
 0000:fffcd000       .debug$S                   10000000     kernel32:KERNEL32.dll
 0000:fffcd000       .debug$S                   10000000     kernel32:KERNEL32.dll
 0000:fffcd000       .debug$S                   10000000     kernel32:KERNEL32.dll
 0000:fffcd000       .debug$S                   10000000     kernel32:KERNEL32.dll
 0000:fffcd000       .debug$S                   10000000     kernel32:KERNEL32.dll
 0000:fffcd000       .debug$S                   10000000     kernel32:KERNEL32.dll
 0000:fffcd000       .debug$S                   10000000     kernel32:KERNEL32.dll
 0000:fffcd000       .debug$S                   10000000     kernel32:KERNEL32.dll
 0000:fffcd000       .debug$S                   10000000     kernel32:KERNEL32.dll
 0000:fffcd000       .debug$S                   10000000     kernel32:KERNEL32.dll
 0000:fffcd000       .debug$S                   10000000     kernel32:KERNEL32.dll
 0000:fffcd000       .debug$S                   10000000     kernel32:KERNEL32.dll
 0000:fffcd000       .debug$S                   10000000     kernel32:KERNEL32.dll
 0000:fffcd000       .debug$S                   10000000     kernel32:KERNEL32.dll
 0000:fffcd000       .debug$S                   10000000     kernel32:KERNEL32.dll
 0000:fffcd000       .debug$S                   10000000     kernel32:KERNEL32.dll
 0000:fffcd000       .debug$S                   10000000     kernel32:KERNEL32.dll
 0000:fffcd000       .debug$S                   10000000     kernel32:KERNEL32.dll
 0000:fffcd000       .debug$S                   10000000     kernel32:KERNEL32.dll
 0000:fffcd000       .debug$S                   10000000     kernel32:KERNEL32.dll
 0000:fffcd000       .debug$S                   10000000     kernel32:KERNEL32.dll
 0000:fffcd000       .debug$S                   10000000     kernel32:KERNEL32.dll
 0000:fffcd000       .debug$S                   10000000     kernel32:KERNEL32.dll
 0000:fffcd000       .debug$S                   10000000     kernel32:KERNEL32.dll
 0000:fffcd000       .debug$S                   10000000     kernel32:KERNEL32.dll
 0000:fffcd000       .debug$S                   10000000     kernel32:KERNEL32.dll
 0000:fffcd000       .debug$S                   10000000     kernel32:KERNEL32.dll
 0000:fffcd000       .debug$S                   10000000     kernel32:KERNEL32.dll
 0000:fffcd000       .debug$S                   10000000     kernel32:KERNEL32.dll
 0000:fffcd000       .debug$S                   10000000     kernel32:KERNEL32.dll
 0000:fffcd000       .debug$S                   10000000     kernel32:KERNEL32.dll
 0000:fffcd000       .debug$S                   10000000     kernel32:KERNEL32.dll
 0000:fffcd000       .debug$S                   10000000     kernel32:KERNEL32.dll
 0000:fffcd000       .debug$S                   10000000     kernel32:KERNEL32.dll
 0000:fffcd000       .debug$S                   10000000     kernel32:KERNEL32.dll
 0000:fffcd000       .debug$S                   10000000     kernel32:KERNEL32.dll
 0000:fffcd000       .debug$S                   10000000     kernel32:KERNEL32.dll
 0000:fffcd000       .debug$S                   10000000     kernel32:KERNEL32.dll
 0000:fffcd000       .debug$S                   10000000     kernel32:KERNEL32.dll
 0000:fffcd000       .debug$S                   10000000     kernel32:KERNEL32.dll
 0000:fffcd000       .debug$S                   10000000     kernel32:KERNEL32.dll
 0000:fffcd000       .debug$S                   10000000     kernel32:KERNEL32.dll
 0000:fffcd000       .debug$S                   10000000     kernel32:KERNEL32.dll
 0000:fffcd000       .debug$S                   10000000     kernel32:KERNEL32.dll
 0000:fffcd000       .debug$S                   10000000     kernel32:KERNEL32.dll
 0000:fffcd000       .debug$S                   10000000     kernel32:KERNEL32.dll
 0000:fffcd000       .debug$S                   10000000     kernel32:KERNEL32.dll
 0000:fffcd000       .debug$S                   10000000     kernel32:KERNEL32.dll
 0000:fffcd000       .debug$S                   10000000     kernel32:KERNEL32.dll
 0000:fffcd000       .debug$S                   10000000     kernel32:KERNEL32.dll
 0000:fffcd000       .debug$S                   10000000     kernel32:KERNEL32.dll
 0000:fffcd000       .debug$S                   10000000     kernel32:KERNEL32.dll
 0000:fffcd000       .debug$S                   10000000     kernel32:KERNEL32.dll
 0000:fffcd000       .debug$S                   10000000     kernel32:KERNEL32.dll
 0000:fffcd000       .debug$S                   10000000     kernel32:KERNEL32.dll
 0000:fffcd000       .debug$S                   10000000     kernel32:KERNEL32.dll
 0000:fffcd000       .debug$S                   10000000     kernel32:KERNEL32.dll
 0000:fffcd000       .debug$S                   10000000     kernel32:KERNEL32.dll
 0000:fffcd000       .debug$S                   10000000     kernel32:KERNEL32.dll
 0000:fffcd000       .debug$S                   10000000     kernel32:KERNEL32.dll
 0000:fffcd000       .debug$S                   10000000     kernel32:KERNEL32.dll
 0000:fffcd000       .debug$S                   10000000     kernel32:KERNEL32.dll
 0000:fffcd000       .debug$S                   10000000     kernel32:KERNEL32.dll
 0000:fffcd000       .debug$S                   10000000     kernel32:KERNEL32.dll
 0000:fffcd000       .debug$S                   10000000     kernel32:KERNEL32.dll
 0000:fffcd000       .debug$S                   10000000     kernel32:KERNEL32.dll
 0000:fffcd000       .debug$S                   10000000     kernel32:KERNEL32.dll
 0000:fffcd000       .debug$S                   10000000     kernel32:KERNEL32.dll
 0000:fffcd000       .debug$S                   10000000     kernel32:KERNEL32.dll
 0000:fffcd000       .debug$S                   10000000     kernel32:KERNEL32.dll
 0000:fffcd000       .debug$S                   10000000     kernel32:KERNEL32.dll
 0000:fffcd000       .debug$S                   10000000     kernel32:KERNEL32.dll
 0000:fffcd000       .debug$S                   10000000     kernel32:KERNEL32.dll
 0000:fffcd000       .debug$S                   10000000     kernel32:KERNEL32.dll
 0000:fffcd000       .debug$S                   10000000     kernel32:KERNEL32.dll
 0000:fffcd000       .debug$S                   10000000     kernel32:KERNEL32.dll
 0000:fffcd000       .debug$S                   10000000     kernel32:KERNEL32.dll
 0000:fffcd000       .debug$S                   10000000     kernel32:KERNEL32.dll
 0000:fffcd000       .debug$S                   10000000     kernel32:KERNEL32.dll
 0000:fffcd000       .debug$S                   10000000     kernel32:KERNEL32.dll
 0000:fffcd000       .debug$S                   10000000     kernel32:KERNEL32.dll
 0000:fffcd000       .debug$S                   10000000     kernel32:KERNEL32.dll
 0000:fffcd000       .debug$S                   10000000     kernel32:KERNEL32.dll
 0000:fffcd000       .debug$S                   10000000     kernel32:KERNEL32.dll
 0000:fffcd000       .debug$S                   10000000     kernel32:KERNEL32.dll
 0000:fffcd000       .debug$S                   10000000     kernel32:KERNEL32.dll
 0000:fffcd000       .debug$S                   10000000     kernel32:KERNEL32.dll
 0000:fffcd000       .debug$S                   10000000     kernel32:KERNEL32.dll
 0000:fffcd000       .debug$S                   10000000     kernel32:KERNEL32.dll
 0000:fffcd000       .debug$S                   10000000     kernel32:KERNEL32.dll
 0000:fffcd000       .debug$S                   10000000     kernel32:KERNEL32.dll
 0000:fffcd000       .debug$S                   10000000     kernel32:KERNEL32.dll
 0000:fffcd000       .debug$S                   10000000     ole32:ole32.dll
 0000:fffcd000       .debug$S                   10000000     ole32:ole32.dll
 0000:fffcd000       .debug$S                   10000000     ole32:ole32.dll
 0000:fffcd000       .debug$S                   10000000     ole32:ole32.dll
 0000:fffcd000       .debug$S                   10000000     ole32:ole32.dll
 0000:fffcd000       .debug$S                   10000000     ole32:ole32.dll
 0000:fffcd000       .debug$S                   10000000     ole32:ole32.dll
 0000:fffcd000       .debug$S                   10000000     ole32:ole32.dll
 0000:fffcd000       .debug$S                   10000000     ole32:ole32.dll
 0000:fffcd000       .debug$S                   10000000     ole32:ole32.dll
 0000:fffcd000       .debug$S                   10000000     ole32:ole32.dll
 0000:fffcd000       .debug$S                   10000000     ole32:ole32.dll
 0000:fffcd000       .debug$S                   10000000     ole32:ole32.dll
 0000:fffcd000       .debug$S                   10000000     ole32:ole32.dll
 0000:fffcd000       .debug$S                   10000000     oleaut32:OLEAUT32.dll
 0000:fffcd000       .debug$S                   10000000     oleaut32:OLEAUT32.dll
 0000:fffcd000       .debug$S                   10000000     oleaut32:OLEAUT32.dll
 0000:fffcd000       .debug$S                   10000000     oleaut32:OLEAUT32.dll
 0000:fffcd000       .debug$S                   10000000     oleaut32:OLEAUT32.dll
 0000:fffcd000       .debug$S                   10000000     oleaut32:OLEAUT32.dll
 0000:fffcd000       .debug$S                   10000000     oleaut32:OLEAUT32.dll
 0000:fffcd000       .debug$S                   10000000     oleaut32:OLEAUT32.dll
 0000:fffcd000       .debug$S                   10000000     oleaut32:OLEAUT32.dll
 0000:fffcd000       .debug$S                   10000000     oleaut32:OLEAUT32.dll
 0000:fffcd000       .debug$S                   10000000     oleaut32:OLEAUT32.dll
 0000:fffcd000       .debug$S                   10000000     oleaut32:OLEAUT32.dll
 0000:fffcd000       .debug$S                   10000000     oleaut32:OLEAUT32.dll
 0000:fffcd000       .debug$S                   10000000     oleaut32:OLEAUT32.dll
 0000:fffcd000       .debug$S                   10000000     oleaut32:OLEAUT32.dll
 0000:fffcd000       .debug$S                   10000000     oleaut32:OLEAUT32.dll
 0000:fffcd000       .debug$S                   10000000     user32:USER32.dll
 0000:fffcd000       .debug$S                   10000000     user32:USER32.dll
 0000:fffcd000       .debug$S                   10000000     user32:USER32.dll
 0000:fffcd000       .debug$S                   10000000     user32:USER32.dll
 0000:fffcd000       .debug$S                   10000000     user32:USER32.dll
 0000:fffcd000       .debug$S                   10000000     user32:USER32.dll
 0000:fffcd000       .debug$S                   10000000     user32:USER32.dll
 0000:fffcd000       .debug$S                   10000000     user32:USER32.dll
 0000:fffcd000       .debug$S                   10000000     user32:USER32.dll
 0000:fffcd000       .debug$S                   10000000     user32:USER32.dll
 0000:fffcd000       .debug$S                   10000000     user32:USER32.dll
 0000:fffcd000       .debug$S                   10000000     user32:USER32.dll
 0000:fffcd000       .debug$S                   10000000     user32:USER32.dll
 0000:fffcd000       .debug$S                   10000000     user32:USER32.dll
 0000:fffcd000       .debug$S                   10000000     user32:USER32.dll
 0000:fffcd000       .debug$S                   10000000     user32:USER32.dll
 0000:fffcd000       .debug$S                   10000000     user32:USER32.dll
 0000:fffcd000       .debug$S                   10000000     user32:USER32.dll
 0000:fffcd000       .debug$S                   10000000     user32:USER32.dll
 0000:fffcd000       .debug$S                   10000000     user32:USER32.dll
 0000:fffcd000       .debug$S                   10000000     user32:USER32.dll
 0000:fffcd000       .debug$S                   10000000     user32:USER32.dll
 0000:fffcd000       .debug$S                   10000000     user32:USER32.dll
 0000:fffcd000       .debug$S                   10000000     user32:USER32.dll
 0000:fffcd000       .debug$S                   10000000     user32:USER32.dll
 0000:fffcd000       .debug$S                   10000000     user32:USER32.dll
 0000:fffcd000       .debug$S                   10000000     user32:USER32.dll
 0000:fffcd000       .debug$S                   10000000     user32:USER32.dll
 0000:fffcd000       .debug$S                   10000000     user32:USER32.dll
 0000:fffcd000       .debug$S                   10000000     user32:USER32.dll
 0000:fffcd000       .debug$S                   10000000     user32:USER32.dll
 0000:fffcd000       .debug$S                   10000000     user32:USER32.dll
 0000:fffcd000       .debug$S                   10000000     user32:USER32.dll
 0000:fffcd000       .debug$S                   10000000     user32:USER32.dll
 0000:fffcd000       .debug$S                   10000000     user32:USER32.dll
 0001:00000000       ??__E_AtlComModule@ATL@@YAXXZ 10001000 f   OposVariant.obj
 0001:00000016       ??__E_AtlWinModule@ATL@@YAXXZ 10001016 f   OposVariant.obj
 0001:0000002c       ??__E?pConnMap@?$IConnectionPointContainerImpl@VCOPOSCoinAcceptor@@@ATL@@0PBU_ATL_CONNMAP_ENTRY@2@B@@YAXXZ 1000102c f   CoinAcceptor.obj
 0001:0000003a       ??__E_Module@@YAXXZ        1000103a f   CoinAcceptor.obj
 0001:00000064       ??__E_AtlBaseModule@ATL@@YAXXZ 10001064 f   atls:atlbase.obj
 0001:00000f66       $LN24                      10001f66     CoinAcceptor.obj
 0001:000057bb       $LN48                      100067bb     CoinAcceptor.obj
 0001:000057d3       $LN47                      100067d3     CoinAcceptor.obj
 0001:0000797e       $LN38                      1000897e     CoinAcceptor.obj
 0001:00007996       $LN37                      10008996     CoinAcceptor.obj
 0001:00009086       $LN76                      1000a086     CoinAcceptor.obj
 0001:0000909e       $LN75                      1000a09e     CoinAcceptor.obj
 0001:00009457       _memcpy_s                  1000a457 f   CoinAcceptor.obj
 0001:0000b2cc       ?find_pe_section@@YAPAU_IMAGE_SECTION_HEADER@@QAEI@Z 1000c2cc f   LIBCMT:utility.obj
 0001:0000b5eb       ?__scrt_initialize_thread_safe_statics@@YAHXZ 1000c5eb f   LIBCMT:thread_safe_statics.obj
 0001:0000b612       ?__scrt_initialize_thread_safe_statics_platform_specific@@YAXXZ 1000c612 f   LIBCMT:thread_safe_statics.obj
 0001:0000b694       ?__scrt_uninitialize_thread_safe_statics@@YAXXZ 1000c694 f   LIBCMT:thread_safe_statics.obj
 0001:0000ba03       __catch$??2@YAPAXIABUnothrow_t@std@@@Z$0 1000ca03 f   LIBCMT:new_scalar_nothrow.obj
 0001:0000ba40       $$000000                   1000ca40     LIBCMT:sehprolg4gs.obj
 0001:0000baa0       $$000000                   1000caa0     LIBCMT:alloca16.obj
 0001:0000bad0       $$000000                   1000cad0     LIBCMT:chkstk.obj
 0001:0000bafd       ?dllmain_crt_dispatch@@YGHQAUHINSTANCE__@@KQAX@Z 1000cafd f   LIBCMT:dll_dllmain.obj
 0001:0000bb50       ?dllmain_crt_process_attach@@YAHQAUHINSTANCE__@@QAX@Z 1000cb50 f   LIBCMT:dll_dllmain.obj
 0001:0000bc57       ?dllmain_crt_process_detach@@YAH_N@Z 1000cc57 f   LIBCMT:dll_dllmain.obj
 0001:0000bd07       ?dllmain_dispatch@@YAHQAUHINSTANCE__@@KQAX@Z 1000cd07 f   LIBCMT:dll_dllmain.obj
 0001:0000be12       ?dllmain_raw@@YGHQAUHINSTANCE__@@KQAX@Z 1000ce12 f   LIBCMT:dll_dllmain.obj
 0001:0000c190       $$000000                   1000d190     LIBCMT:sehprolg4.obj
 0001:0000c1eb       ___get_entropy             1000d1eb f   LIBCMT:gs_support.obj
 0001:0000c4e2       ??$GetProcAddressAll@P6GP6GJPAUHWND__@@IIJ@ZPAUAtlThunkData_t@@@Z@@YAP6GP6GJPAUHWND__@@IIJ@ZPAUAtlThunkData_t@@@ZPAP6GP6GJ0IIJ@Z1@Z@Z 1000d4e2 f   atls:atlthunk.obj
 0001:0000c4e2       ??$GetProcAddressAll@P6GPAUAtlThunkData_t@@XZ@@YAP6GPAUAtlThunkData_t@@XZPAP6GPAU0@XZ@Z 1000d4e2 f   atls:atlthunk.obj
 0001:0000c4e2       ??$GetProcAddressAll@P6GXPAUAtlThunkData_t@@@Z@@YAP6GXPAUAtlThunkData_t@@@ZPAP6GX0@Z@Z 1000d4e2 f   atls:atlthunk.obj
 0001:0000c4e2       ??$GetProcAddressAll@P6GXPAUAtlThunkData_t@@PAXI@Z@@YAP6GXPAUAtlThunkData_t@@PAXI@ZPAP6GX01I@Z@Z 1000d4e2 f   atls:atlthunk.obj
 0001:0000c592       ?GetProcAddressSingle@@YA_NPAUHINSTANCE__@@PBDPAPAX@Z 1000d592 f   atls:atlthunk.obj
 0001:0000c6e4       ?__InitializeThunkPool@@YAHXZ 1000d6e4 f   atls:atlthunk.obj
 0001:0000cb30       _ValidateLocalCookies      1000db30 f   libvcruntime:chandler4.obj
 0001:0000db5a       $LN1250                    1000eb5a     libvcruntime:memcmp.obj
 0001:0000dbe0       $$000000                   1000ebe0     libvcruntime:memcpy.obj
 0001:0000de44       TrailingUpVec              1000ee44     libvcruntime:memcpy.obj
 0001:0000def0       TrailingDownVec            1000eef0     libvcruntime:memcpy.obj
 0001:0000e160       $$000000                   1000f160     libvcruntime:memset.obj
 0001:0000e763       ?_FilterSetCurrentException@@YAKPAU_EXCEPTION_POINTERS@@E@Z 1000f763 f   libvcruntime:ehhelpers.obj
 0001:0000e9b0       $$000000                   1000f9b0     libvcruntime:memmove.obj
 0001:0000ec14       TrailingUpVec              1000fc14     libvcruntime:memmove.obj
 0001:0000ecc0       TrailingDownVec            1000fcc0     libvcruntime:memmove.obj
 0001:0000ef30       $$000000                   1000ff30     libvcruntime:exsup4.obj
 0001:0000efbd       __unwind_handler4          1000ffbd f   libvcruntime:exsup4.obj
 0001:0000f29b       ??$BuildCatchObjectHelperInternal@V__FrameHandler3@@@@YAHPAUEHExceptionRecord@@PAXPBU_s_HandlerType@@PBU_s_CatchableType@@@Z 1001029b f   libvcruntime:frame.obj
 0001:0000f3d9       ??$BuildCatchObjectInternal@V__FrameHandler3@@@@YAXPAUEHExceptionRecord@@PAXPBU_s_HandlerType@@PBU_s_CatchableType@@@Z 100103d9 f   libvcruntime:frame.obj
 0001:0000f472       ??$CatchIt@V__FrameHandler3@@@@YAXPAUEHExceptionRecord@@PAUEHRegistrationNode@@PAU_CONTEXT@@PAXPBU_s_FuncInfo@@PBU_s_HandlerType@@PBU_s_CatchableType@@PBU_s_TryBlockMapEntry@@H1EE@Z 10010472 f   libvcruntime:frame.obj
 0001:0000f4f2       ??$FindHandler@V__FrameHandler3@@@@YAXPAUEHExceptionRecord@@PAUEHRegistrationNode@@PAU_CONTEXT@@PAXPBU_s_FuncInfo@@EH1@Z 100104f2 f   libvcruntime:frame.obj
 0001:0000f8a8       ??$FindHandlerForForeignException@V__FrameHandler3@@@@YAXPAUEHExceptionRecord@@PAUEHRegistrationNode@@PAU_CONTEXT@@PAXPBU_s_FuncInfo@@HH1@Z 100108a8 f   libvcruntime:frame.obj
 0001:0000fbc0       ?CallCatchBlock@@YAPAXPAUEHExceptionRecord@@PAUEHRegistrationNode@@PAU_CONTEXT@@PBU_s_FuncInfo@@PAXHK@Z 10010bc0 f   libvcruntime:frame.obj
 0001:0000fd84       ?CallUnexpected@@YAXPBU_s_ESTypeList@@@Z 10010d84 f   libvcruntime:frame.obj
 0001:0000fda4       __catch$?CallUnexpected@@YAXPBU_s_ESTypeList@@@Z$0 10010da4 f   libvcruntime:frame.obj
 0001:0000fdc3       ?ExFilterRethrow@@YAHPAU_EXCEPTION_POINTERS@@@Z 10010dc3 f   libvcruntime:frame.obj
 0001:0000ff0d       ?IsInExceptionSpec@@YAEPAUEHExceptionRecord@@PBU_s_ESTypeList@@@Z 10010f0d f   libvcruntime:frame.obj
 0001:0000ffe0       $$000000                   10010fe0     libvcruntime:lowhelpr.obj
 0001:00010030       $$000000                   10011030     libvcruntime:exsup.obj
 0001:00010051       __unwind_handler           10011051 f   libvcruntime:exsup.obj
 0001:0001016e       ?try_get_first_available_module@@YAPAUHINSTANCE__@@QBW4module_id@?A0xb97aeec8@@0@Z 1001116e f   libvcruntime:winapi_downlevel.obj
 0001:00010208       ?try_get_function@@YAPAXW4function_id@?A0xb97aeec8@@QBDQBW4module_id@2@2@Z 10011208 f   libvcruntime:winapi_downlevel.obj
 0001:00010892       ??$common_tcsncpy_s@_W@@YAHQA_WIQB_WI@Z 10011892 f   libucrt:wcsncpy_s.obj
 0001:00010968       ??$common_vsprintf@Vformat_validation_base@__crt_stdio_output@@_W@@YAH_KQA_WIQB_WQAU__crt_locale_pointers@@QAD@Z 10011968 f   libucrt:output.obj
 0001:00010aef       ??$common_vsprintf_s@_W@@YAH_KQA_WIQB_WQAU__crt_locale_pointers@@QAD@Z 10011aef f   libucrt:output.obj
 0001:00011253       $LN48                      10012253     libucrt:output.obj
 0001:0001175c       $LN18                      1001275c     libucrt:output.obj
 0001:00011770       $LN17                      10012770     libucrt:output.obj
 0001:00011fcb       ??$?RV<lambda_03b1d95aef87969028cfba75ccab2455>@@AAV<lambda_6e4b09c48022b2350581041d5f6b0c4c>@@V<lambda_22bdf7517842c4b3e53723af5aa32b9e>@@@?$__crt_seh_guarded_call@X@@QAEX$$QAV<lambda_03b1d95aef87969028cfba75ccab2455>@@AAV<lambda_6e4b09c48022b2350581041d5f6b0c4c>@@$$QAV<lambda_22bdf7517842c4b3e53723af5aa32b9e>@@@Z 10012fcb f   libucrt:exit.obj
 0001:00012018       ??R<lambda_6e4b09c48022b2350581041d5f6b0c4c>@@QBE@XZ 10013018 f   libucrt:exit.obj
 0001:000120f2       ?atexit_exception_filter@@YAHK@Z 100130f2 f   libucrt:exit.obj
 0001:00012105       ?common_exit@@YAXHW4_crt_exit_cleanup_mode@@W4_crt_exit_return_mode@@@Z 10013105 f   libucrt:exit.obj
 0001:00012169       ?exit_or_terminate_process@@YAXI@Z 10013169 f   libucrt:exit.obj
 0001:000121ab       ?is_managed_app@@YA_NXZ    100131ab f   libucrt:exit.obj
 0001:000121ee       ?try_cor_exit_process@@YAXI@Z 100131ee f   libucrt:exit.obj
 0001:0001227c       ??$common_configure_argv@D@@YAHW4_crt_argv_mode@@@Z 1001327c f   libucrt:argv_parsing.obj
 0001:000123b2       ??$parse_command_line@D@@YAXPADPAPAD0PAI2@Z 100133b2 f   libucrt:argv_parsing.obj
 0001:00012580       ??$common_initialize_environment_nolock@D@@YAHXZ 10013580 f   libucrt:environment_initialization.obj
 0001:000125d3       ??$create_environment@D@@YAQAPADQAD@Z 100135d3 f   libucrt:environment_initialization.obj
 0001:000126a3       ??$free_environment@D@@YAXQAPAD@Z 100136a3 f   libucrt:environment_initialization.obj
 0001:000126a3       ??$free_environment@_W@@YAXQAPA_W@Z 100136a3 f   libucrt:environment_initialization.obj
 0001:000126fb       ??$uninitialize_environment_internal@D@@YAXAAPAPAD@Z 100136fb f   libucrt:environment_initialization.obj
 0001:00012716       ??$uninitialize_environment_internal@_W@@YAXAAPAPA_W@Z 10013716 f   libucrt:environment_initialization.obj
 0001:0001276d       ??$?RV<lambda_69a2805e680e0e292e8ba93315fe43a8>@@AAV<lambda_f03950bc5685219e0bcd2087efbe011e>@@V<lambda_03fcd07e894ec930e3f35da366ca99d6>@@@?$__crt_seh_guarded_call@H@@QAEH$$QAV<lambda_69a2805e680e0e292e8ba93315fe43a8>@@AAV<lambda_f03950bc5685219e0bcd2087efbe011e>@@$$QAV<lambda_03fcd07e894ec930e3f35da366ca99d6>@@@Z 1001376d f   libucrt:onexit.obj
 0001:000127c8       ??$?RV<lambda_8e746cf0007f6ed984d6f78af1fec997>@@AAV<lambda_22ebabd17bc4fa466a2aca6d8deb888d>@@V<lambda_18ed0c0b38a6dc0daf1e7ac6d6adf05e>@@@?$__crt_seh_guarded_call@H@@QAEH$$QAV<lambda_8e746cf0007f6ed984d6f78af1fec997>@@AAV<lambda_22ebabd17bc4fa466a2aca6d8deb888d>@@$$QAV<lambda_18ed0c0b38a6dc0daf1e7ac6d6adf05e>@@@Z 100137c8 f   libucrt:onexit.obj
 0001:00012842       ??R<lambda_22ebabd17bc4fa466a2aca6d8deb888d>@@QBEHXZ 10013842 f   libucrt:onexit.obj
 0001:0001296b       ??R<lambda_f03950bc5685219e0bcd2087efbe011e>@@QBEHXZ 1001396b f   libucrt:onexit.obj
 0001:00012ae4       _initialize_global_variables 10013ae4 f   libucrt:initialization.obj
 0001:00012af1       _initialize_c              10013af1 f   libucrt:initialization.obj
 0001:00012b0b       _initialize_environment    10013b0b f   libucrt:initialization.obj
 0001:00012b0b       _initialize_global_state_isolation 10013b0b f   libucrt:initialization.obj
 0001:00012b0b       _report_memory_leaks       10013b0b f   libucrt:initialization.obj
 0001:00012b0b       _uninitialize_c            10013b0b f   libucrt:initialization.obj
 0001:00012b0b       _uninitialize_global_state_isolation 10013b0b f   libucrt:initialization.obj
 0001:00012b0e       _uninitialize_environment  10013b0e f   libucrt:initialization.obj
 0001:00012b16       _initialize_pointers       10013b16 f   libucrt:initialization.obj
 0001:00012b44       _uninitialize_vcruntime    10013b44 f   libucrt:initialization.obj
 0001:00012b4d       _uninitialize_allocated_memory 10013b4d f   libucrt:initialization.obj
 0001:00012b64       _uninitialize_allocated_io_buffers 10013b64 f   libucrt:initialization.obj
 0001:00012bb4       ??R<lambda_af42a3ee9806e9a7305d451646e05244>@@QBEXAAPAU__crt_multibyte_data@@@Z 10013bb4 f   libucrt:initialization.obj
 0001:000134a0       $$000000                   100144a0     libucrt:strncmp.obj
 0001:0001358c       ??$?RV<lambda_15ade71b0218206bbe3333a0c9b79046>@@AAV<lambda_da44e0f8b0f19ba52fefafb335991732>@@V<lambda_207f2d024fc103971653565357d6cd41>@@@?$__crt_seh_guarded_call@X@@QAEX$$QAV<lambda_15ade71b0218206bbe3333a0c9b79046>@@AAV<lambda_da44e0f8b0f19ba52fefafb335991732>@@$$QAV<lambda_207f2d024fc103971653565357d6cd41>@@@Z 1001458c f   libucrt:per_thread_data.obj
 0001:000135de       ??$?RV<lambda_38edbb1296d33220d7e4dd0ed76b244a>@@AAV<lambda_5ce1d447e08cb34b2473517608e21441>@@V<lambda_fb385d3da700c9147fc39e65dd577a8c>@@@?$__crt_seh_guarded_call@X@@QAEX$$QAV<lambda_38edbb1296d33220d7e4dd0ed76b244a>@@AAV<lambda_5ce1d447e08cb34b2473517608e21441>@@$$QAV<lambda_fb385d3da700c9147fc39e65dd577a8c>@@@Z 100145de f   libucrt:per_thread_data.obj
 0001:00013649       ??$?RV<lambda_6affb1475c98b40b75cdec977db92e3c>@@AAV<lambda_b8d4b9c228a6ecc3f80208dbb4b4a104>@@V<lambda_608742c3c92a14382c1684fc64f96c88>@@@?$__crt_seh_guarded_call@X@@QAEX$$QAV<lambda_6affb1475c98b40b75cdec977db92e3c>@@AAV<lambda_b8d4b9c228a6ecc3f80208dbb4b4a104>@@$$QAV<lambda_608742c3c92a14382c1684fc64f96c88>@@@Z 10014649 f   libucrt:per_thread_data.obj
 0001:0001369e       ??$?RV<lambda_a7e850c220f1c8d1e6efeecdedd162c6>@@AAV<lambda_46720907175c18b6c9d2717bc0d2d362>@@V<lambda_9048902d66e8d99359bc9897bbb930a8>@@@?$__crt_seh_guarded_call@X@@QAEX$$QAV<lambda_a7e850c220f1c8d1e6efeecdedd162c6>@@AAV<lambda_46720907175c18b6c9d2717bc0d2d362>@@$$QAV<lambda_9048902d66e8d99359bc9897bbb930a8>@@@Z 1001469e f   libucrt:per_thread_data.obj
 0001:000136f8       ?construct_ptd@@YAXQAU__acrt_ptd@@QAPAU__crt_locale_data@@@Z 100146f8 f   libucrt:per_thread_data.obj
 0001:00013791       ?destroy_fls@@YGXPAX@Z     10014791 f   libucrt:per_thread_data.obj
 0001:000137b2       ?destroy_ptd@@YAXQAU__acrt_ptd@@@Z 100147b2 f   libucrt:per_thread_data.obj
 0001:0001387f       ?replace_current_thread_locale_nolock@@YAXQAU__acrt_ptd@@QAU__crt_locale_data@@@Z 1001487f f   libucrt:per_thread_data.obj
 0001:00013c8f       ?try_get_AreFileApisANSI@@YAP6GHXZXZ 10014c8f f   libucrt:winapi_thunks.obj
 0001:00013ca9       ?try_get_LCMapStringEx@@YAP6GHPB_WK0HPA_WHPAU_nlsversioninfo@@PAXJ@ZXZ 10014ca9 f   libucrt:winapi_thunks.obj
 0001:00013cc3       ?try_get_LocaleNameToLCID@@YAP6GKPB_WK@ZXZ 10014cc3 f   libucrt:winapi_thunks.obj
 0001:00013cdd       ?try_get_first_available_module@@YAPAUHINSTANCE__@@QBW4module_id@?A0x391cf84c@@0@Z 10014cdd f   libucrt:winapi_thunks.obj
 0001:00013da4       ?try_get_function@@YAPAXW4function_id@?A0x391cf84c@@QBDQBW4module_id@2@2@Z 10014da4 f   libucrt:winapi_thunks.obj
 0001:00014507       ?fe_to_nearest@@YA_NQBN_KF@Z 10015507 f   libucrt:cvt.obj
 0001:000145aa       ?fp_format_a@@YAHQBNPADIQADIH_NIQAU__crt_locale_pointers@@W4__acrt_rounding_mode@@@Z 100155aa f   libucrt:cvt.obj
 0001:000148b9       ?fp_format_e@@YAHQBNQADI1IH_NIQAU__crt_locale_pointers@@W4__acrt_rounding_mode@@@Z 100158b9 f   libucrt:cvt.obj
 0001:00014961       ?fp_format_e_internal@@YAHQADIH_NIQAU_strflt@@1QAU__crt_locale_pointers@@@Z 10015961 f   libucrt:cvt.obj
 0001:00014aa9       ?fp_format_f@@YAHQBNQADI1IHQAU__crt_locale_pointers@@W4__acrt_rounding_mode@@@Z 10015aa9 f   libucrt:cvt.obj
 0001:00014b3a       ?fp_format_f_internal@@YAHQADIHQAU_strflt@@_NQAU__crt_locale_pointers@@@Z 10015b3a f   libucrt:cvt.obj
 0001:00014c32       ?fp_format_g@@YAHQBNQADI1IH_NIQAU__crt_locale_pointers@@@Z 10015c32 f   libucrt:cvt.obj
 0001:00014cfb       ?fp_format_nan_or_infinity@@YAHW4__acrt_fp_class@@_NPADI1@Z 10015cfb f   libucrt:cvt.obj
 0001:00014d90       ?shift_bytes@@YAXQADI0H@Z  10015d90 f   libucrt:cvt.obj
 0001:00014dc4       ?should_round_up@@YA_NQBN_KFW4__acrt_rounding_mode@@@Z 10015dc4 f   libucrt:cvt.obj
 0001:0001512d       ??$?RV<lambda_e5124f882df8998aaf41531e079ba474>@@AAV<lambda_3e16ef9562a7dcce91392c22ab16ea36>@@V<lambda_e25ca0880e6ef98be67edffd8c599615>@@@?$__crt_seh_guarded_call@X@@QAEX$$QAV<lambda_e5124f882df8998aaf41531e079ba474>@@AAV<lambda_3e16ef9562a7dcce91392c22ab16ea36>@@$$QAV<lambda_e25ca0880e6ef98be67edffd8c599615>@@@Z 1001612d f   libucrt:wsetlocale.obj
 0001:000151cd       ?initialize_inherited_file_handles_nolock@@YAXXZ 100161cd f   libucrt:ioinit.obj
 0001:00015283       ?initialize_stdio_handles_nolock@@YAXXZ 10016283 f   libucrt:ioinit.obj
 0001:00015494       ?<lambda_invoker_cdecl>@<lambda_838c7f62c73c983481e27c09e84b0b5d>@@CAHPBX0@Z 10016494 f   libucrt:argv_wildcards.obj
 0001:000154ac       ??$__acrt_convert_wcs_mbs_cp@D_WV<lambda_62f6974d9771e494a5ea317cc32e971c>@@U__crt_win32_buffer_internal_dynamic_resizing@@@@YAHQBDAAV?$__crt_win32_buffer@_WU__crt_win32_buffer_internal_dynamic_resizing@@@@ABV<lambda_62f6974d9771e494a5ea317cc32e971c>@@I@Z 100164ac f   libucrt:argv_wildcards.obj
 0001:0001555e       ??$__acrt_convert_wcs_mbs_cp@_WDV<lambda_28bda7af82a03b66c1cb3803a755f95d>@@U__crt_win32_buffer_internal_dynamic_resizing@@@@YAHQB_WAAV?$__crt_win32_buffer@DU__crt_win32_buffer_internal_dynamic_resizing@@@@ABV<lambda_28bda7af82a03b66c1cb3803a755f95d>@@I@Z 1001655e f   libucrt:argv_wildcards.obj
 0001:0001564a       ??$common_expand_argv_wildcards@D@@YAHQAPADQAPAPAD@Z 1001664a f   libucrt:argv_wildcards.obj
 0001:00015839       ??$copy_and_add_argument_to_buffer@D@@YAHQBD0IAAV?$argument_list@D@?A0x5f5c8891@@@Z 10016839 f   libucrt:argv_wildcards.obj
 0001:000158ea       ??$expand_argument_wildcards@D@@YAHQAD0AAV?$argument_list@D@?A0x5f5c8891@@@Z 100168ea f   libucrt:argv_wildcards.obj
 0001:00015c34       ?expand_if_necessary@?$argument_list@D@?A0x5f5c8891@@AAEHXZ 10016c34 f   libucrt:argv_wildcards.obj
 0001:00015cc6       ??$__acrt_convert_wcs_mbs_cp@_WDV<lambda_0fec1a7b3f42a53036604e18c2d5e07e>@@U__crt_win32_buffer_no_resizing@@@@YAHQB_WAAV?$__crt_win32_buffer@DU__crt_win32_buffer_no_resizing@@@@ABV<lambda_0fec1a7b3f42a53036604e18c2d5e07e>@@I@Z 10016cc6 f   libucrt:getmodulefilenamea.obj
 0001:00015e69       ??$?RV<lambda_ceb1ee4838e85a9d631eb091e2fbe199>@@AAV<lambda_ae742caa10f662c28703da3d2ea5e57e>@@V<lambda_cd08b5d6af4937fe54fc07d0c9bf6b37>@@@?$__crt_seh_guarded_call@X@@QAEX$$QAV<lambda_ceb1ee4838e85a9d631eb091e2fbe199>@@AAV<lambda_ae742caa10f662c28703da3d2ea5e57e>@@$$QAV<lambda_cd08b5d6af4937fe54fc07d0c9bf6b37>@@@Z 10016e69 f   libucrt:mbctype.obj
 0001:00015eb6       ??R<lambda_ae742caa10f662c28703da3d2ea5e57e>@@QBEXXZ 10016eb6 f   libucrt:mbctype.obj
 0001:00015f39       ?CPtoLocaleName@@YAPB_WH@Z 10016f39 f   libucrt:mbctype.obj
 0001:00015f77       ?getSystemCP@@YAHH@Z       10016f77 f   libucrt:mbctype.obj
 0001:00015fe8       ?setSBCS@@YAXPAU__crt_multibyte_data@@@Z 10016fe8 f   libucrt:mbctype.obj
 0001:0001604d       ?setSBUpLow@@YAXPAU__crt_multibyte_data@@@Z 1001704d f   libucrt:mbctype.obj
 0001:000161cd       ?setmbcp_internal@@YAHH_NQAU__acrt_ptd@@QAPAU__crt_multibyte_data@@@Z 100171cd f   libucrt:mbctype.obj
 0001:000162e1       ?update_thread_multibyte_data_internal@@YAPAU__crt_multibyte_data@@QAU__acrt_ptd@@QAPAU1@@Z 100172e1 f   libucrt:mbctype.obj
 0001:000165cf       _memcpy_s                  100175cf f   libucrt:cfout.obj
 0001:000165cf       _memcpy_s                  100175cf f   libucrt:mbctype.obj
 0001:00016650       ?x_ismbbtype_l@@YAHPAU__crt_locale_pointers@@IHH@Z 10017650 f   libucrt:ismbbyte.obj
 0001:0001680b       ?find_end_of_double_null_terminated_sequence@@YAPB_WQB_W@Z 1001780b f   libucrt:get_environment_from_os.obj
 0001:0001697a       ??$?RV<lambda_cbab9ec6f41b0180b23cc171c22676b0>@@AAV<lambda_44731a7d0e6d81c3e6aa82d741081786>@@V<lambda_4b292cb8dd18144e164572427af410ab>@@@?$__crt_seh_guarded_call@P6AXH@Z@@QAEP6AXH@Z$$QAV<lambda_cbab9ec6f41b0180b23cc171c22676b0>@@AAV<lambda_44731a7d0e6d81c3e6aa82d741081786>@@$$QAV<lambda_4b292cb8dd18144e164572427af410ab>@@@Z 1001797a f   libucrt:signal.obj
 0001:000169de       ?get_global_action_nolock@@YAPAP6AXH@ZH@Z 100179de f   libucrt:signal.obj
 0001:00016a20       ?siglookup@@YAPAU__crt_signal_action_t@@HQAU1@@Z 10017a20 f   libucrt:signal.obj
 0001:00016cd9       ??$?RV<lambda_2866be3712abc81a800a822484c830d8>@@AAV<lambda_39ca0ed439415581b5b15c265174cece>@@V<lambda_2b24c74d71094a6cd0cb82e44167d71b>@@@?$__crt_seh_guarded_call@X@@QAEX$$QAV<lambda_2866be3712abc81a800a822484c830d8>@@AAV<lambda_39ca0ed439415581b5b15c265174cece>@@$$QAV<lambda_2b24c74d71094a6cd0cb82e44167d71b>@@@Z 10017cd9 f   libucrt:fflush.obj
 0001:00016d65       ??$?RV<lambda_2cc53f568c5a2bb6f192f930a45d44ea>@@AAV<lambda_ab61a845afdef5b7c387490eaf3616ee>@@V<lambda_c2ffc0b7726aa6be21d5f0026187e748>@@@?$__crt_seh_guarded_call@X@@QAEX$$QAV<lambda_2cc53f568c5a2bb6f192f930a45d44ea>@@AAV<lambda_ab61a845afdef5b7c387490eaf3616ee>@@$$QAV<lambda_c2ffc0b7726aa6be21d5f0026187e748>@@@Z 10017d65 f   libucrt:fflush.obj
 0001:00016e11       ?common_flush_all@@YAH_N@Z 10017e11 f   libucrt:fflush.obj
 0001:00016e5e       ?common_flush_all_should_try_to_flush_stream@@YA_NV__crt_stdio_stream@@QAH@Z 10017e5e f   libucrt:fflush.obj
 0001:00016e91       ?is_stream_flushable_or_commitable@@YA_NJ@Z 10017e91 f   libucrt:fflush.obj
 0001:0001739a       ?GetTableIndexFromLocaleName@@YAHPB_W@Z 1001839a f   libucrt:lcidtoname_downlevel.obj
 0001:00017450       ??R<lambda_3d301b9e52f5099be73030e1f0bf487e>@@QBEIPBD@Z 10018450 f   libucrt:mbrtowc.obj
 0001:000175d6       ?should_round_up@@YA_NQBDHW4__acrt_has_trailing_digits@@W4__acrt_rounding_mode@@@Z 100185d6 f   libucrt:_fptostr.obj
 0001:00019374       ?free_crt_array_internal@@YAXQAPBXI@Z 1001a374 f   libucrt:inittime.obj
 0001:00019d3e       ??$common_tcsncpy_s@D@@YAHQADIQBDI@Z 1001ad3e f   libucrt:strncpy_s.obj
 0001:00019e00       $$000000                   1001ae00     libucrt:strpbrk.obj
 0001:00019ee4       ?__acrt_LCMapStringA_stat@@YAHPAU__crt_locale_pointers@@PB_WKPBDHPADHHH@Z 1001aee4 f   libucrt:lcmapstringa.obj
 0001:0001a117       ?initialize_multibyte@@YAHXZ 1001b117 f   libucrt:multibyte_initializer.obj
 0001:0001a126       ??$?RV<lambda_9e9de3de5fa147e2223d7db92bc10aa6>@@AAV<lambda_38ce7e780aa69e748d6df282ebc68efe>@@V<lambda_8ca6da459f0f6780f1cff60fdc3d00e5>@@@?$__crt_seh_guarded_call@H@@QAEH$$QAV<lambda_9e9de3de5fa147e2223d7db92bc10aa6>@@AAV<lambda_38ce7e780aa69e748d6df282ebc68efe>@@$$QAV<lambda_8ca6da459f0f6780f1cff60fdc3d00e5>@@@Z 1001b126 f   libucrt:commit.obj
 0001:0001a245       ?write_double_translated_ansi_nolock@@YA?AUwrite_result@?A0x17268360@@HQBDI@Z 1001b245 f   libucrt:write.obj
 0001:0001a5f1       ?write_double_translated_unicode_nolock@@YA?AUwrite_result@?A0x17268360@@QBDI@Z 1001b5f1 f   libucrt:write.obj
 0001:0001a659       ?write_requires_double_translation_nolock@@YA_NH@Z 1001b659 f   libucrt:write.obj
 0001:0001a6ca       ?write_text_ansi_nolock@@YA?AUwrite_result@?A0x17268360@@HQBDI@Z 1001b6ca f   libucrt:write.obj
 0001:0001a7a5       ?write_text_utf16le_nolock@@YA?AUwrite_result@?A0x17268360@@HQBDI@Z 1001b7a5 f   libucrt:write.obj
 0001:0001a88e       ?write_text_utf8_nolock@@YA?AUwrite_result@?A0x17268360@@HQBDI@Z 1001b88e f   libucrt:write.obj
 0001:0001afb0       $$000000                   1001bfb0     libucrt:log10_impl.obj
 0001:0001b0c0       $$000000                   1001c0c0     libucrt:ceil_pentium4.obj
 0001:0001b1dd       ?to_abstract_control@@YA?AW4__acrt_fenv_abstract_control@@W4__acrt_fenv_machine_sse_control@@@Z 1001c1dd f   libucrt:_fenvutils.obj
 0001:0001b299       ?to_abstract_control@@YA?AW4__acrt_fenv_abstract_control@@W4__acrt_fenv_machine_x87_control@@@Z 1001c299 f   libucrt:_fenvutils.obj
 0001:0001b352       ?to_machine_sse_control@@YA?AW4__acrt_fenv_machine_sse_control@@W4__acrt_fenv_abstract_control@@@Z 1001c352 f   libucrt:_fenvutils.obj
 0001:0001b41f       ?to_machine_x87_control@@YA?AW4__acrt_fenv_machine_x87_control@@W4__acrt_fenv_abstract_control@@@Z 1001c41f f   libucrt:_fenvutils.obj
 0001:0001b7b3       ??$common_lseek_nolock@_J@@YA_JH_JH@Z 1001c7b3 f   libucrt:lseek.obj
 0001:0001b999       ___hw_cw_sse2              1001c999 f   libucrt:ieee87.obj
 0001:0001be1f       __hw_cw                    1001ce1f f   libucrt:ieee87.obj
 0001:0001bed0       $$000000                   1001ced0     libucrt:log10_pentium4.obj
 0001:0001c160       $$000000                   1001d160     libucrt:87tran.obj
 0001:0001c370       $$000000                   1001d370     libucrt:87disp.obj
 0001:0001c5d0       $$000000                   1001d5d0     libucrt:common.obj
 0001:0001c760       $$000000                   1001d760     libucrt:genexcep.obj
 0001:0001ca5c       ??$?RV<lambda_218ce3db14220d0be481dae8ef3383b6>@@AAV<lambda_628dfdc04ba53c8bfc02c9951375f3f5>@@V<lambda_57dc472bd5c9d5f3b2cbca59b8a843ae>@@@?$__crt_seh_guarded_call@H@@QAEH$$QAV<lambda_218ce3db14220d0be481dae8ef3383b6>@@AAV<lambda_628dfdc04ba53c8bfc02c9951375f3f5>@@$$QAV<lambda_57dc472bd5c9d5f3b2cbca59b8a843ae>@@@Z 1001da5c f   libucrt:close.obj
 0001:0001cc50       $$000000                   1001dc50     libucrt:_strnicm.obj
 0001:0001ccb1       ?__dcrt_lowio_initialize_console_output@@YAXXZ 1001dcb1 f   libucrt:initcon.obj
 0001:0001db90       $$000000                   1001eb90     LIBCMT:ulldvrm.obj
 0001:0001dc30       $$000000                   1001ec30     LIBCMT:llmul.obj
 0001:0001dc70       $$000000                   1001ec70     LIBCMT:lldvrm.obj
 0001:0001dd50       $$000000                   1001ed50     LIBCMT:llshl.obj
 0001:0001dd70       $$000000                   1001ed70     LIBCMT:ullshr.obj
 0001:0001dd90       $$000000                   1001ed90     LIBCMT:ftol2.obj
 0001:0001e030       $$000000                   1001f030     libvcruntime:strrchr.obj
 0001:0001e170       $$000000                   1001f170     libvcruntime:strchr.obj
 0001:0001e313       __ehhandler$??2@YAPAXIABUnothrow_t@std@@@Z 1001f313 f   LIBCMT:new_scalar_nothrow.obj
 0001:0001e330       __ehhandler$?CallUnexpected@@YAXPBU_s_ESTypeList@@@Z 1001f330 f   libvcruntime:frame.obj
 0001:0001e34d       ??__F_AtlComModule@ATL@@YAXXZ 1001f34d f   OposVariant.obj
 0001:0001e357       ??__F_AtlWinModule@ATL@@YAXXZ 1001f357 f   OposVariant.obj
 0001:0001e371       ??__F_Module@@YAXXZ        1001f371 f   CoinAcceptor.obj
 0001:0001e385       ??__F_AtlBaseModule@ATL@@YAXXZ 1001f385 f   atls:atlbase.obj
 0002:00000304       ?_AtlBaseModule$initializer$@ATL@@3P6AXXZA 10020304     atls:atlbase.obj
 0002:00000308       ?_AtlComModule$initializer$@ATL@@3P6AXXZA 10020308     OposVariant.obj
 0002:0000030c       ?_AtlWinModule$initializer$@ATL@@3P6AXXZA 1002030c     OposVariant.obj
 0002:00000310       ?_Module$initializer$@@3P6AXXZA 10020310     CoinAcceptor.obj
 0002:00000314       ??pConnMap$initializer$@?$IConnectionPointContainerImpl@VCOPOSCoinAcceptor@@@ATL@@0P6AXXZA@@3P6AXXZA 10020314     CoinAcceptor.obj
 0002:00000320       ?__scrt_initialize_tss_var@@3P6AHXZA 10020320     LIBCMT:thread_safe_statics.obj
 0002:00001838       _GS_ExceptionPointers      10021838     LIBCMT:gs_report.obj
 0002:000019c8       ?tokenTable@@3QBUStringLiteral@@B 100219c8     libvcruntime:undname.obj
 0002:00001a48       ?nameTable@@3QBUStringLiteral@@B 10021a48     libvcruntime:undname.obj
 0002:00001ce0       ?rttiTable@@3QBUStringLiteral@@B 10021ce0     libvcruntime:undname.obj
 0002:00001d08       ?IndirectionName@@3QBUStringLiteral@@B 10021d08     libvcruntime:undname.obj
 0002:00001d38       ?PrefixName@@3QBUStringLiteral@@B 10021d38     libvcruntime:undname.obj
 0002:00002368       ?module_names@?A0xb97aeec8@@3QBQB_WB 10022368     libvcruntime:winapi_downlevel.obj
 0002:00002410       ?candidate_modules@?1??try_get_FlsAlloc@@YAP6GKP6GXPAX@Z@ZXZ@4QBW4module_id@?A0xb97aeec8@@B 10022410     libvcruntime:winapi_downlevel.obj
 0002:00002424       ?candidate_modules@?1??try_get_FlsFree@@YAP6GHK@ZXZ@4QBW4module_id@?A0xb97aeec8@@B 10022424     libvcruntime:winapi_downlevel.obj
 0002:00002434       ?candidate_modules@?1??try_get_FlsGetValue@@YAP6GPAXK@ZXZ@4QBW4module_id@?A0xb97aeec8@@B 10022434     libvcruntime:winapi_downlevel.obj
 0002:00002448       ?candidate_modules@?1??try_get_FlsSetValue@@YAP6GHKPAX@ZXZ@4QBW4module_id@?A0xb97aeec8@@B 10022448     libvcruntime:winapi_downlevel.obj
 0002:0000245c       ?candidate_modules@?1??try_get_InitializeCriticalSectionEx@@YAP6GHPAU_RTL_CRITICAL_SECTION@@KK@ZXZ@4QBW4module_id@?A0xb97aeec8@@B 1002245c     libvcruntime:winapi_downlevel.obj
 0002:00002480       ?errtable@@3QBUerrentry@?A0x31fdb9ec@@B 10022480     libucrt:errno.obj
 0002:00002ac8       ___acrt_initializers       10022ac8     libucrt:initialization.obj
 0002:00002b48       ?module_names@?A0x391cf84c@@3QBQB_WB 10022b48     libucrt:winapi_thunks.obj
 0002:00002fc0       ?candidate_modules@?1??try_get_AreFileApisANSI@@YAP6GHXZXZ@4QBW4module_id@?A0x391cf84c@@B 10022fc0     libucrt:winapi_thunks.obj
 0002:00002fd4       ?candidate_modules@?1??try_get_FlsAlloc@@YAP6GKP6GXPAX@Z@ZXZ@4QBW4module_id@?A0x391cf84c@@B 10022fd4     libucrt:winapi_thunks.obj
 0002:00002fdc       ?candidate_modules@?1??try_get_FlsFree@@YAP6GHK@ZXZ@4QBW4module_id@?A0x391cf84c@@B 10022fdc     libucrt:winapi_thunks.obj
 0002:00002fe4       ?candidate_modules@?1??try_get_FlsGetValue@@YAP6GPAXK@ZXZ@4QBW4module_id@?A0x391cf84c@@B 10022fe4     libucrt:winapi_thunks.obj
 0002:00002fec       ?candidate_modules@?1??try_get_FlsSetValue@@YAP6GHKPAX@ZXZ@4QBW4module_id@?A0x391cf84c@@B 10022fec     libucrt:winapi_thunks.obj
 0002:00002ff4       ?candidate_modules@?1??try_get_InitializeCriticalSectionEx@@YAP6GHPAU_RTL_CRITICAL_SECTION@@KK@ZXZ@4QBW4module_id@?A0x391cf84c@@B 10022ff4     libucrt:winapi_thunks.obj
 0002:00002ffc       ?candidate_modules@?1??try_get_LCMapStringEx@@YAP6GHPB_WK0HPA_WHPAU_nlsversioninfo@@PAXJ@ZXZ@4QBW4module_id@?A0x391cf84c@@B 10022ffc     libucrt:winapi_thunks.obj
 0002:00003014       ?candidate_modules@?1??try_get_LocaleNameToLCID@@YAP6GKPB_WK@ZXZ@4QBW4module_id@?A0x391cf84c@@B 10023014     libucrt:winapi_thunks.obj
 0002:00003030       ?candidate_modules@?1??try_get_AppPolicyGetProcessTerminationMethod@@YAP6GJPAXPAW4AppPolicyProcessTerminationMethod@@@ZXZ@4QBW4module_id@?A0x391cf84c@@B 10023030     libucrt:winapi_thunks.obj
 0002:0000305c       ?candidate_modules@?1??try_get_SetThreadStackGuarantee@@YAP6GHPAK@ZXZ@4QBW4module_id@?A0x391cf84c@@B 1002305c     libucrt:winapi_thunks.obj
 0002:00003080       ?strings@?1??fp_format_nan_or_infinity@@YAHW4__acrt_fp_class@@_NPADI1@Z@4QAY03QBDA 10023080     libucrt:cvt.obj
 0002:000035c8       ?_mb_locale_names@@3QBQB_WB 100235c8     libucrt:mbctype.obj
 0002:00003e10       ?LcidToLocaleNameTable@?A0x881e4c05@@3QBULcidToLocaleName@1@B 10023e10     libucrt:lcidtoname_downlevel.obj
 0002:00004f38       ?LocaleNameToIndexTable@?A0x881e4c05@@3QBULocaleNameIndex@1@B 10024f38     libucrt:lcidtoname_downlevel.obj
 0002:00006870       LOG_name                   10026870     libucrt:log10_impl.obj
 0002:00006880       _One                       10026880     libucrt:ceil_pentium4.obj
 0002:00006890       _Bns                       10026890     libucrt:ceil_pentium4.obj
 0002:000068a0       _Zero                      100268a0     libucrt:ceil_pentium4.obj
 0002:000068b0       _S                         100268b0     libucrt:ceil_pentium4.obj
 0002:000068c0       _NegZero                   100268c0     libucrt:ceil_pentium4.obj
 0002:000068d0       emask                      100268d0     libucrt:log10_pentium4.obj
 0002:000068e0       CC                         100268e0     libucrt:log10_pentium4.obj
 0002:000068f0       Magic                      100268f0     libucrt:log10_pentium4.obj
 0002:00006900       hi_mask                    10026900     libucrt:log10_pentium4.obj
 0002:00006910       LOG10_2                    10026910     libucrt:log10_pentium4.obj
 0002:00006920       place_L                    10026920     libucrt:log10_pentium4.obj
 0002:00006940       One                        10026940     libucrt:log10_pentium4.obj
 0002:00006950       Zero                       10026950     libucrt:log10_pentium4.obj
 0002:00006960       Two52                      10026960     libucrt:log10_pentium4.obj
 0002:00006970       Infs                       10026970     libucrt:log10_pentium4.obj
 0002:00006980       NaN                        10026980     libucrt:log10_pentium4.obj
 0002:00006990       coeff                      10026990     libucrt:log10_pentium4.obj
 0002:000069ee       _log2max                   100269ee     libucrt:87tran.obj
 0002:000069f8       _smallarg                  100269f8     libucrt:87tran.obj
 0002:00006a02       _half                      10026a02     libucrt:87tran.obj
 0002:00006a4e       One                        10026a4e     libucrt:87disp.obj
 0002:00006a56       Three                      10026a56     libucrt:87disp.obj
 0002:00006a5e       XAMtoTagTab                10026a5e     libucrt:87disp.obj
 0002:00006a70       One                        10026a70     libucrt:common.obj
 0002:00006a84       DblMax                     10026a84     libucrt:common.obj
 0002:00006a8c       DblMin                     10026a8c     libucrt:common.obj
 0002:00006a94       IeeeAdjO                   10026a94     libucrt:common.obj
 0002:00006a9c       IeeeAdjU                   10026a9c     libucrt:common.obj
 0002:00006aa4       _infinity                  10026aa4     libucrt:common.obj
 0002:00006aac       _zero                      10026aac     libucrt:common.obj
 0002:00006af8       _over                      10026af8     libucrt:fpctrl.obj
 0002:00006b04       _under                     10026b04     libucrt:fpctrl.obj
 0002:00007338       ?_names@?1??_get_fname@@9@9 10027338     libucrt:fpexcept.obj
 0002:000074e0       two32                      100274e0     LIBCMT:ftol2.obj
 0002:000074e4       two63                      100274e4     LIBCMT:ftol2.obj
 0002:000074e8       _NaN                       100274e8     LIBCMT:ftol2.obj
 0002:00007ba8       __sehtable$?_AtlVerifyStackAvailable@_ATL_SAFE_ALLOCA_IMPL@ATL@@YA_NK@Z 10027ba8     CoinAcceptor.obj
 0002:00007bc8       __sehtable$___scrt_is_nonwritable_in_current_image 10027bc8     LIBCMT:utility.obj
 0002:00007be4       __catchsym$??2@YAPAXIABUnothrow_t@std@@@Z$2 10027be4     LIBCMT:new_scalar_nothrow.obj
 0002:00007bf4       __unwindtable$??2@YAPAXIABUnothrow_t@std@@@Z 10027bf4     LIBCMT:new_scalar_nothrow.obj
 0002:00007c04       __tryblocktable$??2@YAPAXIABUnothrow_t@std@@@Z 10027c04     LIBCMT:new_scalar_nothrow.obj
 0002:00007c18       __ehfuncinfo$??2@YAPAXIABUnothrow_t@std@@@Z 10027c18     LIBCMT:new_scalar_nothrow.obj
 0002:00007c40       __sehtable$?dllmain_crt_process_attach@@YAHQAUHINSTANCE__@@QAX@Z 10027c40     LIBCMT:dll_dllmain.obj
 0002:00007c60       __sehtable$?dllmain_crt_process_detach@@YAH_N@Z 10027c60     LIBCMT:dll_dllmain.obj
 0002:00007c88       __sehtable$?dllmain_dispatch@@YAHQAUHINSTANCE__@@KQAX@Z 10027c88     LIBCMT:dll_dllmain.obj
 0002:00007d38       __sehtable$___DestructExceptionObject 10027d38     libvcruntime:ehhelpers.obj
 0002:00007d58       __sehtable$?FrameUnwindToState@__FrameHandler3@@SAXPAUEHRegistrationNode@@PAXPBU_s_FuncInfo@@H@Z 10027d58     libvcruntime:frame.obj
 0002:00007d80       __sehtable$?CallCatchBlock@@YAPAXPAUEHExceptionRecord@@PAUEHRegistrationNode@@PAU_CONTEXT@@PBU_s_FuncInfo@@PAXHK@Z 10027d80     libvcruntime:frame.obj
 0002:00007da8       __catchsym$?CallUnexpected@@YAXPBU_s_ESTypeList@@@Z$2 10027da8     libvcruntime:frame.obj
 0002:00007db8       __unwindtable$?CallUnexpected@@YAXPBU_s_ESTypeList@@@Z 10027db8     libvcruntime:frame.obj
 0002:00007dc8       __tryblocktable$?CallUnexpected@@YAXPBU_s_ESTypeList@@@Z 10027dc8     libvcruntime:frame.obj
 0002:00007ddc       __ehfuncinfo$?CallUnexpected@@YAXPBU_s_ESTypeList@@@Z 10027ddc     libvcruntime:frame.obj
 0002:00007e00       __sehtable$??$BuildCatchObjectHelperInternal@V__FrameHandler3@@@@YAHPAUEHExceptionRecord@@PAXPBU_s_HandlerType@@PBU_s_CatchableType@@@Z 10027e00     libvcruntime:frame.obj
 0002:00007e20       __sehtable$??$BuildCatchObjectInternal@V__FrameHandler3@@@@YAXPAUEHExceptionRecord@@PAXPBU_s_HandlerType@@PBU_s_CatchableType@@@Z 10027e20     libvcruntime:frame.obj
 0002:00007e78       __sehtable$??R<lambda_6e4b09c48022b2350581041d5f6b0c4c>@@QBE@XZ 10027e78     libucrt:exit.obj
 0002:00007e98       __sehtable$??$?RV<lambda_03b1d95aef87969028cfba75ccab2455>@@AAV<lambda_6e4b09c48022b2350581041d5f6b0c4c>@@V<lambda_22bdf7517842c4b3e53723af5aa32b9e>@@@?$__crt_seh_guarded_call@X@@QAEX$$QAV<lambda_03b1d95aef87969028cfba75ccab2455>@@AAV<lambda_6e4b09c48022b2350581041d5f6b0c4c>@@$$QAV<lambda_22bdf7517842c4b3e53723af5aa32b9e>@@@Z 10027e98     libucrt:exit.obj
 0002:00007eb8       __sehtable$??$?RV<lambda_8e746cf0007f6ed984d6f78af1fec997>@@AAV<lambda_22ebabd17bc4fa466a2aca6d8deb888d>@@V<lambda_18ed0c0b38a6dc0daf1e7ac6d6adf05e>@@@?$__crt_seh_guarded_call@H@@QAEH$$QAV<lambda_8e746cf0007f6ed984d6f78af1fec997>@@AAV<lambda_22ebabd17bc4fa466a2aca6d8deb888d>@@$$QAV<lambda_18ed0c0b38a6dc0daf1e7ac6d6adf05e>@@@Z 10027eb8     libucrt:onexit.obj
 0002:00007ed8       __sehtable$??$?RV<lambda_69a2805e680e0e292e8ba93315fe43a8>@@AAV<lambda_f03950bc5685219e0bcd2087efbe011e>@@V<lambda_03fcd07e894ec930e3f35da366ca99d6>@@@?$__crt_seh_guarded_call@H@@QAEH$$QAV<lambda_69a2805e680e0e292e8ba93315fe43a8>@@AAV<lambda_f03950bc5685219e0bcd2087efbe011e>@@$$QAV<lambda_03fcd07e894ec930e3f35da366ca99d6>@@@Z 10027ed8     libucrt:onexit.obj
 0002:00007ef8       __sehtable$__query_new_handler 10027ef8     libucrt:new_handler.obj
 0002:00007f18       __sehtable$_terminate      10027f18     libucrt:terminate.obj
 0002:00007f38       __sehtable$??$?RV<lambda_15ade71b0218206bbe3333a0c9b79046>@@AAV<lambda_da44e0f8b0f19ba52fefafb335991732>@@V<lambda_207f2d024fc103971653565357d6cd41>@@@?$__crt_seh_guarded_call@X@@QAEX$$QAV<lambda_15ade71b0218206bbe3333a0c9b79046>@@AAV<lambda_da44e0f8b0f19ba52fefafb335991732>@@$$QAV<lambda_207f2d024fc103971653565357d6cd41>@@@Z 10027f38     libucrt:per_thread_data.obj
 0002:00007f58       __sehtable$??$?RV<lambda_a7e850c220f1c8d1e6efeecdedd162c6>@@AAV<lambda_46720907175c18b6c9d2717bc0d2d362>@@V<lambda_9048902d66e8d99359bc9897bbb930a8>@@@?$__crt_seh_guarded_call@X@@QAEX$$QAV<lambda_a7e850c220f1c8d1e6efeecdedd162c6>@@AAV<lambda_46720907175c18b6c9d2717bc0d2d362>@@$$QAV<lambda_9048902d66e8d99359bc9897bbb930a8>@@@Z 10027f58     libucrt:per_thread_data.obj
 0002:00007f78       __sehtable$??$?RV<lambda_38edbb1296d33220d7e4dd0ed76b244a>@@AAV<lambda_5ce1d447e08cb34b2473517608e21441>@@V<lambda_fb385d3da700c9147fc39e65dd577a8c>@@@?$__crt_seh_guarded_call@X@@QAEX$$QAV<lambda_38edbb1296d33220d7e4dd0ed76b244a>@@AAV<lambda_5ce1d447e08cb34b2473517608e21441>@@$$QAV<lambda_fb385d3da700c9147fc39e65dd577a8c>@@@Z 10027f78     libucrt:per_thread_data.obj
 0002:00007f98       __sehtable$??$?RV<lambda_6affb1475c98b40b75cdec977db92e3c>@@AAV<lambda_b8d4b9c228a6ecc3f80208dbb4b4a104>@@V<lambda_608742c3c92a14382c1684fc64f96c88>@@@?$__crt_seh_guarded_call@X@@QAEX$$QAV<lambda_6affb1475c98b40b75cdec977db92e3c>@@AAV<lambda_b8d4b9c228a6ecc3f80208dbb4b4a104>@@$$QAV<lambda_608742c3c92a14382c1684fc64f96c88>@@@Z 10027f98     libucrt:per_thread_data.obj
 0002:00007fb8       __sehtable$??$?RV<lambda_e5124f882df8998aaf41531e079ba474>@@AAV<lambda_3e16ef9562a7dcce91392c22ab16ea36>@@V<lambda_e25ca0880e6ef98be67edffd8c599615>@@@?$__crt_seh_guarded_call@X@@QAEX$$QAV<lambda_e5124f882df8998aaf41531e079ba474>@@AAV<lambda_3e16ef9562a7dcce91392c22ab16ea36>@@$$QAV<lambda_e25ca0880e6ef98be67edffd8c599615>@@@Z 10027fb8     libucrt:wsetlocale.obj
 0002:00007fd8       __sehtable$___acrt_initialize_lowio 10027fd8     libucrt:ioinit.obj
 0002:00007ff8       __sehtable$?update_thread_multibyte_data_internal@@YAPAU__crt_multibyte_data@@QAU__acrt_ptd@@QAPAU1@@Z 10027ff8     libucrt:mbctype.obj
 0002:00008018       __sehtable$??$?RV<lambda_ceb1ee4838e85a9d631eb091e2fbe199>@@AAV<lambda_ae742caa10f662c28703da3d2ea5e57e>@@V<lambda_cd08b5d6af4937fe54fc07d0c9bf6b37>@@@?$__crt_seh_guarded_call@X@@QAEX$$QAV<lambda_ceb1ee4838e85a9d631eb091e2fbe199>@@AAV<lambda_ae742caa10f662c28703da3d2ea5e57e>@@$$QAV<lambda_cd08b5d6af4937fe54fc07d0c9bf6b37>@@@Z 10028018     libucrt:mbctype.obj
 0002:00008038       __sehtable$_raise          10028038     libucrt:signal.obj
 0002:00008058       __sehtable$??$?RV<lambda_cbab9ec6f41b0180b23cc171c22676b0>@@AAV<lambda_44731a7d0e6d81c3e6aa82d741081786>@@V<lambda_4b292cb8dd18144e164572427af410ab>@@@?$__crt_seh_guarded_call@P6AXH@Z@@QAEP6AXH@Z$$QAV<lambda_cbab9ec6f41b0180b23cc171c22676b0>@@AAV<lambda_44731a7d0e6d81c3e6aa82d741081786>@@$$QAV<lambda_4b292cb8dd18144e164572427af410ab>@@@Z 10028058     libucrt:signal.obj
 0002:00008078       __sehtable$??$?RV<lambda_2866be3712abc81a800a822484c830d8>@@AAV<lambda_39ca0ed439415581b5b15c265174cece>@@V<lambda_2b24c74d71094a6cd0cb82e44167d71b>@@@?$__crt_seh_guarded_call@X@@QAEX$$QAV<lambda_2866be3712abc81a800a822484c830d8>@@AAV<lambda_39ca0ed439415581b5b15c265174cece>@@$$QAV<lambda_2b24c74d71094a6cd0cb82e44167d71b>@@@Z 10028078     libucrt:fflush.obj
 0002:00008098       __sehtable$??$?RV<lambda_2cc53f568c5a2bb6f192f930a45d44ea>@@AAV<lambda_ab61a845afdef5b7c387490eaf3616ee>@@V<lambda_c2ffc0b7726aa6be21d5f0026187e748>@@@?$__crt_seh_guarded_call@X@@QAEX$$QAV<lambda_2cc53f568c5a2bb6f192f930a45d44ea>@@AAV<lambda_ab61a845afdef5b7c387490eaf3616ee>@@$$QAV<lambda_c2ffc0b7726aa6be21d5f0026187e748>@@@Z 10028098     libucrt:fflush.obj
 0002:000080b8       __sehtable$___acrt_update_thread_locale_data 100280b8     libucrt:locale_refcounting.obj
 0002:000080d8       __sehtable$__fcloseall     100280d8     libucrt:closeall.obj
 0002:000080f8       __sehtable$___acrt_lowio_ensure_fh_exists 100280f8     libucrt:osfinfo.obj
 0002:00008118       __sehtable$??$?RV<lambda_9e9de3de5fa147e2223d7db92bc10aa6>@@AAV<lambda_38ce7e780aa69e748d6df282ebc68efe>@@V<lambda_8ca6da459f0f6780f1cff60fdc3d00e5>@@@?$__crt_seh_guarded_call@H@@QAEH$$QAV<lambda_9e9de3de5fa147e2223d7db92bc10aa6>@@AAV<lambda_38ce7e780aa69e748d6df282ebc68efe>@@$$QAV<lambda_8ca6da459f0f6780f1cff60fdc3d00e5>@@@Z 10028118     libucrt:commit.obj
 0002:00008138       __sehtable$__write         10028138     libucrt:write.obj
 0002:00008158       __sehtable$_fclose         10028158     libucrt:fclose.obj
 0002:00008178       __sehtable$??$?RV<lambda_218ce3db14220d0be481dae8ef3383b6>@@AAV<lambda_628dfdc04ba53c8bfc02c9951375f3f5>@@V<lambda_57dc472bd5c9d5f3b2cbca59b8a843ae>@@@?$__crt_seh_guarded_call@H@@QAEH$$QAV<lambda_218ce3db14220d0be481dae8ef3383b6>@@AAV<lambda_628dfdc04ba53c8bfc02c9951375f3f5>@@$$QAV<lambda_57dc472bd5c9d5f3b2cbca59b8a843ae>@@@Z 10028178     libucrt:close.obj
 0002:00008198       __sehtable$___set_fpsr_sse2 10028198     libucrt:fpctrl.obj
 0002:000081b8       __sehtable$__IsNonwritableInCurrentImage 100281b8     LIBCMT:pesect.obj
 0002:000081e0       .edata                     100281e0     OPOSCoinAcceptor.exp
 0002:00008208       rgpv                       10028208     OPOSCoinAcceptor.exp
 0002:00008218       rgszName                   10028218     OPOSCoinAcceptor.exp
 0002:00008228       rgwOrd                     10028228     OPOSCoinAcceptor.exp
 0002:00008230       szName                     10028230     OPOSCoinAcceptor.exp
 0002:00008245       $N00001                    10028245     OPOSCoinAcceptor.exp
 0002:00008255       $N00002                    10028255     OPOSCoinAcceptor.exp
 0002:00008267       $N00003                    10028267     OPOSCoinAcceptor.exp
 0002:00008279       $N00004                    10028279     OPOSCoinAcceptor.exp
 0002:0000888a       .idata$6                   1002888a     kernel32:KERNEL32.dll
 0002:00008a9e       .idata$6                   10028a9e     user32:USER32.dll
 0002:00008bd2       .idata$6                   10028bd2     gdi32:GDI32.dll
 0002:00008c78       .idata$6                   10028c78     advapi32:ADVAPI32.dll
 0002:00008d94       .idata$6                   10028d94     ole32:ole32.dll
 0002:00008d9e       .idata$6                   10028d9e     oleaut32:OLEAUT32.dll
 0003:00000110       ?ObjectMap@@3PAU_ATL_OBJMAP_ENTRY30@ATL@@A 1002a110     CoinAcceptor.obj
 0003:000001d0       ?s_SOMethodNames@@3PAPADA  1002a1d0     CoinAcceptorImpl.obj
 0003:00000230       ?s_RequiredMethodsPerRelease@@3PAHA 1002a230     CoinAcceptorImpl.obj
 0003:00000250       ?__vcrt_flsindex@@3KA      1002a250     libvcruntime:per_thread_data.obj
 0003:00000270       ?errno_no_memory@@3HA      1002a270     libucrt:errno.obj
 0003:00000274       ?doserrno_no_memory@@3KA   1002a274     libucrt:errno.obj
 0003:00000280       ?__acrt_flsindex@@3KA      1002a280     libucrt:per_thread_data.obj
 0003:00000618       __mbctypes                 1002a618     libucrt:mbctype.obj
 0003:00000720       __mbcasemaps               1002a720     libucrt:mbctype.obj
 0003:00000820       ?__rgctypeflag@@3PADA      1002a820     libucrt:mbctype.obj
 0003:00000828       ?__rgcode_page_info@@3PAUcode_page_info@@A 1002a828     libucrt:mbctype.obj
 0003:00000a80       ?__dcrt_lowio_console_output_handle@@3PAXA 1002aa80     libucrt:initcon.obj
 0003:00000a84       ?__DAZ_ENABLED@?1??__set_fpsr_sse2@@9@9 1002aa84     libucrt:fpctrl.obj
 0003:00000c18       ?is_initialized_as_dll@@3_NA 1002ac18     LIBCMT:utility.obj
 0003:00000c19       ?module_local_atexit_table_initialized@@3_NA 1002ac19     LIBCMT:utility.obj
 0003:00000c1c       ?module_local_atexit_table@@3U_onexit_table_t@@A 1002ac1c     LIBCMT:utility.obj
 0003:00000c28       ?module_local_at_quick_exit_table@@3U_onexit_table_t@@A 1002ac28     LIBCMT:utility.obj
 0003:00000c34       ?g_tss_cv@@3U_RTL_CONDITION_VARIABLE@@A 1002ac34     LIBCMT:thread_safe_statics.obj
 0003:00000c38       ?g_tss_event@@3PAXA        1002ac38     LIBCMT:thread_safe_statics.obj
 0003:00000c3c       ?g_tss_mutex@@3U_RTL_CRITICAL_SECTION@@A 1002ac3c     LIBCMT:thread_safe_statics.obj
 0003:00000c54       ?g_sleep_condition_variable_cs@@3P6GHPAU_RTL_CONDITION_VARIABLE@@PAU_RTL_CRITICAL_SECTION@@K@ZA 1002ac54     LIBCMT:thread_safe_statics.obj
 0003:00000c58       ?g_wake_all_condition_variable@@3P6GXPAU_RTL_CONDITION_VARIABLE@@@ZA 1002ac58     LIBCMT:thread_safe_statics.obj
 0003:00000c60       _GS_ExceptionRecord        1002ac60     LIBCMT:gs_report.obj
 0003:00000cb0       _GS_ContextRecord          1002acb0     LIBCMT:gs_report.obj
 0003:00000f80       ?__proc_attached@@3HA      1002af80     LIBCMT:dll_dllmain.obj
 0003:00000fe4       ?AllocateData@@3P6GPAUAtlThunkData_t@@XZA 1002afe4     atls:atlthunk.obj
 0003:00000fe8       ?InitData@@3P6GXPAUAtlThunkData_t@@PAXI@ZA 1002afe8     atls:atlthunk.obj
 0003:00000fec       ?DataToCode@@3P6GP6GJPAUHWND__@@IIJ@ZPAUAtlThunkData_t@@@ZA 1002afec     atls:atlthunk.obj
 0003:00000ff0       ?FreeData@@3P6GXPAUAtlThunkData_t@@@ZA 1002aff0     atls:atlthunk.obj
 0003:00000ff4       ?Initialized@@3_NA         1002aff4     atls:atlthunk.obj
 0003:00001004       ?__vcrt_startup_thread_ptd@@3U__vcrt_ptd@@A 1002b004     libvcruntime:per_thread_data.obj
 0003:0000102c       ___vcrt_lock_table         1002b02c     libvcruntime:locks.obj
 0003:00001044       ___vcrt_locks_initialized  1002b044     libvcruntime:locks.obj
 0003:00001070       ?heap@@3V_HeapManager@@A   1002b070     libvcruntime:undname.obj
 0003:00001084       ?module_handles@@3PAPAUHINSTANCE__@@A 1002b084     libvcruntime:winapi_downlevel.obj
 0003:00001090       ?function_pointers@@3PAPAXA 1002b090     libvcruntime:winapi_downlevel.obj
 0003:000010a4       ?__acrt_invalid_parameter_handler@@3V?$dual_state_global@P6AXPB_W00II@Z@__crt_state_management@@A 1002b0a4     libucrt:invalid_parameter.obj
 0003:000010a8       ?c_termination_complete@@3JA 1002b0a8     libucrt:exit.obj
 0003:000010ac       ?thread_local_exit_callback_func@@3P6GXPAXK0@ZA 1002b0ac     libucrt:exit.obj
 0003:000010b8       ?program_name@?1???$common_configure_argv@D@@YAHW4_crt_argv_mode@@@Z@4PADA 1002b0b8     libucrt:argv_parsing.obj
 0003:000011e8       ?__acrt_new_handler@@3V?$dual_state_global@P6AHI@Z@__crt_state_management@@A 1002b1e8     libucrt:new_handler.obj
 0003:000011f0       ?module_handles@@3PAPAUHINSTANCE__@@A 1002b1f0     libucrt:winapi_thunks.obj
 0003:00001240       ?encoded_function_pointers@@3PAPAXA 1002b240     libucrt:winapi_thunks.obj
 0003:000012c8       ?internal_state@?1??_mbtowc_l@@9@4U_Mbstatet@@A 1002b2c8     libucrt:mbtowc.obj
 0003:000012d8       ?enable_percent_n@@3IA     1002b2d8     libucrt:printf_count_output.obj
 0003:000014f8       ?__acrt_lock_table@@3PAU_RTL_CRITICAL_SECTION@@A 1002b4f8     libucrt:locks.obj
 0003:00001648       ?__acrt_locks_initialized@@3IA 1002b648     libucrt:locks.obj
 0003:00001658       ?fSystemSet@@3HA           1002b658     libucrt:mbctype.obj
 0003:0000165c       ?initialized@?1??__acrt_initialize_multibyte@@9@4_NA 1002b65c     libucrt:mbctype.obj
 0003:0000167c       ?ctrlc_action@@3V?$dual_state_global@P6AXH@Z@__crt_state_management@@A 1002b67c     libucrt:signal.obj
 0003:00001680       ?ctrlbreak_action@@3V?$dual_state_global@P6AXH@Z@__crt_state_management@@A 1002b680     libucrt:signal.obj
 0003:00001684       ?abort_action@@3V?$dual_state_global@P6AXH@Z@__crt_state_management@@A 1002b684     libucrt:signal.obj
 0003:00001688       ?term_action@@3V?$dual_state_global@P6AXH@Z@__crt_state_management@@A 1002b688     libucrt:signal.obj
 0003:0000168c       ?user_matherr@@3V?$dual_state_global@P6AHPAU_exception@@@Z@__crt_state_management@@A 1002b68c     libucrt:matherr.obj
 0003:00001690       ?__acrt_global_new_mode@@3V?$dual_state_global@J@__crt_state_management@@A 1002b690     libucrt:new_mode.obj
 0003:0000169c       ?internal_pst@?1??__mbrtoc32_utf8@__crt_mbstring@@YAIPA_UPBDIPAU_Mbstatet@@@Z@4U3@A 1002b69c     libucrt:mbrtoc32.obj
 0003:000016a4       ?__acrt_app_type@@3W4_crt_app_type@@A 1002b6a4     libucrt:report_runtime_error.obj
 0003:000016ac       __pmatherr_set             1002b6ac     libucrt:libm_error.obj
 0004:00000220       $R000000                   1002c220     CoinAcceptor.res
 0004:00000bc8       $R0009A8                   1002cbc8     CoinAcceptor.res
 0004:00000cb0       $R000A90                   1002ccb0     CoinAcceptor.res
 0004:00000f18       $R000CF8                   1002cf18     CoinAcceptor.res
 0004:00001430       $R001210                   1002d430     CoinAcceptor.res
 0004:00004130       $R003F10                   10030130     CoinAcceptor.res
 0004:00004168       $R003F48                   10030168     CoinAcceptor.res
