 OPOSBiometrics

 Timestamp is 61a75b86 (Wed Dec  1 20:24:54 2021)

 Preferred load address is 10000000

 Start         Length     Name                   Class
 0001:00000000 00000080H .text$di                CODE
 0001:00000080 0001f2e8H .text$mn                CODE
 0001:0001f368 000000d8H .text$x                 CODE
 0001:0001f440 00000042H .text$yd                CODE
 0002:00000000 00000300H .idata$5                DATA
 0002:00000300 00000008H .00cfg                  DATA
 0002:00000308 00000004H .CRT$XCA                DATA
 0002:0000030c 00000004H .CRT$XCL                DATA
 0002:00000310 00000010H .CRT$XCU                DATA
 0002:00000320 00000004H .CRT$XCZ                DATA
 0002:00000324 00000004H .CRT$XIA                DATA
 0002:00000328 00000010H .CRT$XIC                DATA
 0002:00000338 00000004H .CRT$XIZ                DATA
 0002:0000033c 00000004H .CRT$XLA                DATA
 0002:00000340 00000004H .CRT$XLZ                DATA
 0002:00000344 00000004H .CRT$XPA                DATA
 0002:00000348 00000008H .CRT$XPX                DATA
 0002:00000350 00000004H .CRT$XPXA               DATA
 0002:00000354 00000004H .CRT$XPZ                DATA
 0002:00000358 00000004H .CRT$XTA                DATA
 0002:0000035c 00000004H .CRT$XTZ                DATA
 0002:00000360 00000000H .gfids$y                DATA
 0002:00000360 00006ea0H .rdata                  DATA
 0002:00007200 00000000H .rdata$CastGuardVftablesA DATA
 0002:00007200 00000000H .rdata$CastGuardVftablesC DATA
 0002:00007200 00000018H .rdata$T                DATA
 0002:00007218 00000178H .rdata$r                DATA
 0002:00007390 0000002cH .rdata$sxdata           DATA
 0002:000073bc 00000030H .rdata$voltmd           DATA
 0002:000073ec 0000040cH .rdata$zzzdbg           DATA
 0002:000077f8 00000004H .rtc$IAA                DATA
 0002:000077fc 00000004H .rtc$IZZ                DATA
 0002:00007800 00000004H .rtc$TAA                DATA
 0002:00007804 00000004H .rtc$TZZ                DATA
 0002:00007808 00000004H .tls                    DATA
 0002:0000780c 00000004H .tls$                   DATA
 0002:00007810 00000008H .tls$ZZZ                DATA
 0002:00007818 000006dcH .xdata$x                DATA
 0002:00007ef4 00000004H ATL$__a                 DATA
 0002:00007ef8 00000008H ATL$__z                 DATA
 0002:00007f00 000000acH .edata                  DATA
 0002:00007fac 00000078H .idata$2                DATA
 0002:00008024 00000014H .idata$3                DATA
 0002:00008038 00000300H .idata$4                DATA
 0002:00008338 00000bceH .idata$6                DATA
 0003:00000000 00000ab0H .data                   DATA
 0003:00000ab0 00000080H .data$r                 DATA
 0003:00000b30 00000018H .data$rs                DATA
 0003:00000b48 00000b80H .bss                    DATA
 0004:00000000 00000220H .rsrc$01                DATA
 0004:00000220 000048a0H .rsrc$02                DATA

  Address         Publics by Value              Rva+Base       Lib:Object

 0000:00000000       ___arm64x_native_entrypoint 00000000     <absolute>
 0000:00000000       ___guard_longjmp_table     00000000     <absolute>
 0000:00000000       ___arm64x_extra_rfe_table  00000000     <absolute>
 0000:00000000       ___guard_iat_count         00000000     <absolute>
 0000:00000000       ___arm64x_redirection_metadata 00000000     <absolute>
 0000:00000000       ___guard_fids_count        00000000     <absolute>
 0000:00000000       ___guard_eh_cont_count     00000000     <absolute>
 0000:00000000       __except_list              00000000     <absolute>
 0000:00000000       ___x64_code_ranges_to_entry_points_count 00000000     <absolute>
 0000:00000000       ___hybrid_code_map_count   00000000     <absolute>
 0000:00000000       ___x64_code_ranges_to_entry_points 00000000     <absolute>
 0000:00000000       ___guard_iat_table         00000000     <absolute>
 0000:00000000       ___guard_eh_cont_table     00000000     <absolute>
 0000:00000000       ___hybrid_code_map         00000000     <absolute>
 0000:00000000       ___arm64x_extra_rfe_table_size 00000000     <absolute>
 0000:00000000       ___guard_longjmp_count     00000000     <absolute>
 0000:00000000       ___guard_check_icall_a64n_fptr 00000000     <absolute>
 0000:00000000       ___arm64x_redirection_metadata_count 00000000     <absolute>
 0000:00000000       ___hybrid_auxiliary_iat    00000000     <absolute>
 0000:00000000       ___dynamic_value_reloc_table 00000000     <absolute>
 0000:00000000       ___AbsoluteZero            00000000     <absolute>
 0000:00000000       ___enclave_config          00000000     <absolute>
 0000:00000000       ___guard_fids_table        00000000     <absolute>
 0000:00000000       ___hybrid_auxiliary_iat_copy 00000000     <absolute>
 0000:0000000b       ___safe_se_handler_count   0000000b     <absolute>
 0000:0000002c       __tls_array                0000002c     <absolute>
 0000:00000100       ___guard_flags             00000100     <absolute>
 0000:00000000       ___ImageBase               10000000     <linker-defined>
 0001:00000080       ?DupWide@_CW@@AAEXXZ       10001080 f   CWString.obj
 0001:0000009c       ?cw_dup@@YGXPBDAAHAAPA_W1@Z 1000109c f   CWString.obj
 0001:00000124       ?cw_memcpy@@YGHPA_WPBDH@Z  10001124 f   CWString.obj
 0001:00000150       ?cw_strcpy@@YAHPA_WPBD@Z   10001150 f   CWString.obj
 0001:00000163       ?cw_strlen@@YAHPBD@Z       10001163 f   CWString.obj
 0001:0000017c       ??0CAtlComModule@ATL@@QAE@XZ 1000117c f i OposVariant.obj
 0001:000001c1       ??0CAtlWinModule@ATL@@QAE@XZ 100011c1 f i OposVariant.obj
 0001:000001f8       ??0OposDispParms@@QAE@PAVOposVariant@@H@Z 100011f8 f   OposVariant.obj
 0001:00000269       ??1OposDispParms@@QAE@XZ   10001269 f   OposVariant.obj
 0001:00000277       ??A?$CSimpleArray@GV?$CSimpleArrayEqualHelper@G@ATL@@@ATL@@QAEAAGH@Z 10001277 f i OposVariant.obj
 0001:0000029c       ??_Estringdispid@CComTypeInfoHolder@ATL@@QAEPAXI@Z 1000129c f i OposVariant.obj
 0001:00000308       ?AtlWinModuleInit@ATL@@YGJPAU_ATL_WIN_MODULE70@1@@Z 10001308 f i OposVariant.obj
 0001:0000032e       ?AtlWinModuleTerm@ATL@@YGJPAU_ATL_WIN_MODULE70@1@PAUHINSTANCE__@@@Z 1000132e f i OposVariant.obj
 0001:00000391       ?ChangeBSTR@OposVariant@@QAEXPAPA_WAAJ@Z 10001391 f   OposVariant.obj
 0001:000003d2       ?ChangeLONG@OposVariant@@QAEXPAJAAJ@Z 100013d2 f   OposVariant.obj
 0001:00000413       ?GetLONG@OposVariant@@QAEJXZ 10001413 f   OposVariant.obj
 0001:0000042e       ?Init@CComCriticalSection@ATL@@QAEJXZ 1000142e f i OposVariant.obj
 0001:00000456       ?RemoveAll@?$CSimpleArray@GV?$CSimpleArrayEqualHelper@G@ATL@@@ATL@@QAEXXZ 10001456 f i OposVariant.obj
 0001:00000456       ?RemoveAll@?$CSimpleArray@PAUHINSTANCE__@@V?$CSimpleArrayEqualHelper@PAUHINSTANCE__@@@ATL@@@ATL@@QAEXXZ 10001456 f i atls:atlbase.obj
 0001:00000473       ?SetBSTR@OposVariant@@QAEXPA_WAAJ@Z 10001473 f   OposVariant.obj
 0001:000004a7       ?SetBSTR_Copy@OposVariant@@QAEXPA_WAAJ@Z 100014a7 f   OposVariant.obj
 0001:000004f7       ?SetBSTR_InOutPtr@OposVariant@@QAE_NPAPA_WAAJ@Z 100014f7 f   OposVariant.obj
 0001:0000052e       ?SetDispatch_Ptr@OposVariant@@QAEXPAUIDispatch@@AAJ@Z 1000152e f   OposVariant.obj
 0001:00000569       ?SetLONG@OposVariant@@QAEXJ@Z 10001569 f   OposVariant.obj
 0001:0000058b       ?SetLONG_Ptr@OposVariant@@QAEXPAJAAJ@Z 1000158b f   OposVariant.obj
 0001:000005be       ?SetString@OposVariant@@QAEXPB_WAAJ@Z 100015be f   OposVariant.obj
 0001:00000604       ?SetVARIANT@OposVariant@@QAEXAAUtagVARIANT@@GAAJ@Z 10001604 f   OposVariant.obj
 0001:0000064b       ?SetVARIANT_BOOL@OposVariant@@QAEXF@Z 1000164b f   OposVariant.obj
 0001:00000675       ?SetVARIANT_BOOL_Ptr@OposVariant@@QAEXPAFAAJ@Z 10001675 f   OposVariant.obj
 0001:000006a8       ?SetVARIANT_Ptr@OposVariant@@QAEXAAPAUtagVARIANT@@GAAJ@Z 100016a8 f   OposVariant.obj
 0001:000006f6       ?Term@CAtlComModule@ATL@@QAEXXZ 100016f6 f i OposVariant.obj
 0001:00000740       ?_AtlRaiseException@ATL@@YAXKK@Z 10001740 f i OposVariant.obj
 0001:00000755       ?OnDrawAdvanced@CComControlBase@ATL@@UAEJAAUATL_DRAWINFO@@@Z 10001755 f i Biometrics.obj
 0001:00000848       ?Next@?$CComEnumImpl@UIEnumConnections@@$1?_GUID_b196b287_bab4_101a_b69c_00aa00341d07@@3U__s_GUID@@BUtagCONNECTDATA@@V?$_Copy@UtagCONNECTDATA@@@ATL@@@ATL@@UAGJKPAUtagCONNECTDATA@@PAK@Z 10001848 f i Biometrics.obj
 0001:00000917       ?Skip@?$CComEnumImpl@UIEnumConnections@@$1?_GUID_b196b287_bab4_101a_b69c_00aa00341d07@@3U__s_GUID@@BUtagCONNECTDATA@@V?$_Copy@UtagCONNECTDATA@@@ATL@@@ATL@@UAGJK@Z 10001917 f i Biometrics.obj
 0001:00000944       ?Reset@?$CComEnumImpl@UIEnumConnections@@$1?_GUID_b196b287_bab4_101a_b69c_00aa00341d07@@3U__s_GUID@@BUtagCONNECTDATA@@V?$_Copy@UtagCONNECTDATA@@@ATL@@@ATL@@UAGJXZ 10001944 f i Biometrics.obj
 0001:00000944       ?Reset@?$CComEnumImpl@UIEnumConnectionPoints@@$1?_GUID_b196b285_bab4_101a_b69c_00aa00341d07@@3U__s_GUID@@BPAUIConnectionPoint@@V?$_CopyInterface@UIConnectionPoint@@@ATL@@@ATL@@UAGJXZ 10001944 f i Biometrics.obj
 0001:00000956       ?Clone@?$CComEnumImpl@UIEnumConnections@@$1?_GUID_b196b287_bab4_101a_b69c_00aa00341d07@@3U__s_GUID@@BUtagCONNECTDATA@@V?$_Copy@UtagCONNECTDATA@@@ATL@@@ATL@@UAGJPAPAUIEnumConnections@@@Z 10001956 f i Biometrics.obj
 0001:00000a37       ?AddRef@?$CComObject@V?$CComEnum@UIEnumConnections@@$1?_GUID_b196b287_bab4_101a_b69c_00aa00341d07@@3U__s_GUID@@BUtagCONNECTDATA@@V?$_Copy@UtagCONNECTDATA@@@ATL@@VCComSingleThreadModel@6@@ATL@@@ATL@@UAGKXZ 10001a37 f i Biometrics.obj
 0001:00000a37       ?AddRef@?$CComObject@V?$CComEnum@UIEnumConnectionPoints@@$1?_GUID_b196b285_bab4_101a_b69c_00aa00341d07@@3U__s_GUID@@BPAUIConnectionPoint@@V?$_CopyInterface@UIConnectionPoint@@@ATL@@VCComSingleThreadModel@6@@ATL@@@ATL@@UAGKXZ 10001a37 f i Biometrics.obj
 0001:00000a48       ?Release@?$CComObject@V?$CComEnum@UIEnumConnectionPoints@@$1?_GUID_b196b285_bab4_101a_b69c_00aa00341d07@@3U__s_GUID@@BPAUIConnectionPoint@@V?$_CopyInterface@UIConnectionPoint@@@ATL@@VCComSingleThreadModel@6@@ATL@@@ATL@@UAGKXZ 10001a48 f i Biometrics.obj
 0001:00000a48       ?Release@?$CComObject@V?$CComEnum@UIEnumConnections@@$1?_GUID_b196b287_bab4_101a_b69c_00aa00341d07@@3U__s_GUID@@BUtagCONNECTDATA@@V?$_Copy@UtagCONNECTDATA@@@ATL@@VCComSingleThreadModel@6@@ATL@@@ATL@@UAGKXZ 10001a48 f i Biometrics.obj
 0001:00000a84       ?QueryInterface@?$CComObject@V?$CComEnum@UIEnumConnections@@$1?_GUID_b196b287_bab4_101a_b69c_00aa00341d07@@3U__s_GUID@@BUtagCONNECTDATA@@V?$_Copy@UtagCONNECTDATA@@@ATL@@VCComSingleThreadModel@6@@ATL@@@ATL@@UAGJABU_GUID@@PAPAX@Z 10001a84 f i Biometrics.obj
 0001:00000a9e       ?OnFinalMessage@?$CWindowImplBaseT@VCWindow@ATL@@V?$CWinTraits@$0FGAAAAAA@$0A@@2@@ATL@@UAEXPAUHWND__@@@Z 10001a9e f i Biometrics.obj
 0001:00000a9e       ?ObjectMain@CComObjectRootBase@ATL@@SGX_N@Z 10001a9e f i Biometrics.obj
 0001:00000aa1       ?GetCategoryMap@CComObjectRootBase@ATL@@SAPBU_ATL_CATMAP_ENTRY@2@XZ 10001aa1 f i Biometrics.obj
 0001:00000aa1       ?GetObjectDescription@?$CComCoClass@VCOPOSBiometrics@@$1?CLSID_OPOSBiometrics@@3U_GUID@@B@ATL@@SGPB_WXZ 10001aa1 f i Biometrics.obj
 0001:00000aa4       ??_E?$CComObject@V?$CComEnum@UIEnumConnections@@$1?_GUID_b196b287_bab4_101a_b69c_00aa00341d07@@3U__s_GUID@@BUtagCONNECTDATA@@V?$_Copy@UtagCONNECTDATA@@@ATL@@VCComSingleThreadModel@6@@ATL@@@ATL@@UAEPAXI@Z 10001aa4 f i Biometrics.obj
 0001:00000aa4       ??_G?$CComObject@V?$CComEnum@UIEnumConnections@@$1?_GUID_b196b287_bab4_101a_b69c_00aa00341d07@@3U__s_GUID@@BUtagCONNECTDATA@@V?$_Copy@UtagCONNECTDATA@@@ATL@@VCComSingleThreadModel@6@@ATL@@@ATL@@UAEPAXI@Z 10001aa4 f i Biometrics.obj
 0001:00000ac6       ?CreateInstance@CComClassFactory@ATL@@UAGJPAUIUnknown@@ABU_GUID@@PAPAX@Z 10001ac6 f i Biometrics.obj
 0001:00000b04       ?LockServer@CComClassFactory@ATL@@UAGJH@Z 10001b04 f i Biometrics.obj
 0001:00000b23       ??_ECComClassFactory@ATL@@UAEPAXI@Z 10001b23 f i Biometrics.obj
 0001:00000b23       ??_GCComClassFactory@ATL@@UAEPAXI@Z 10001b23 f i Biometrics.obj
 0001:00000b4e       ??_E?$CComObject@VCOPOSBiometrics@@@ATL@@W3AEPAXI@Z 10001b4e f i Biometrics.obj
 0001:00000b56       ??_E?$CComObject@VCOPOSBiometrics@@@ATL@@WEM@AEPAXI@Z 10001b56 f i Biometrics.obj
 0001:00000b5e       ?QueryInterface@?$CComObject@VCOPOSBiometrics@@@ATL@@WHA@AGJABU_GUID@@PAPAX@Z 10001b5e f i Biometrics.obj
 0001:00000b68       ?AddRef@?$CComObject@VCOPOSBiometrics@@@ATL@@WHA@AGKXZ 10001b68 f i Biometrics.obj
 0001:00000b72       ?Release@?$CComObject@VCOPOSBiometrics@@@ATL@@WHA@AGKXZ 10001b72 f i Biometrics.obj
 0001:00000b7c       ?QueryInterface@?$CComObject@VCOPOSBiometrics@@@ATL@@WHE@AGJABU_GUID@@PAPAX@Z 10001b7c f i Biometrics.obj
 0001:00000b86       ?AddRef@?$CComObject@VCOPOSBiometrics@@@ATL@@WHE@AGKXZ 10001b86 f i Biometrics.obj
 0001:00000b90       ?Release@?$CComObject@VCOPOSBiometrics@@@ATL@@WHE@AGKXZ 10001b90 f i Biometrics.obj
 0001:00000b9a       ?QueryInterface@?$CComObject@VCOPOSBiometrics@@@ATL@@WHI@AGJABU_GUID@@PAPAX@Z 10001b9a f i Biometrics.obj
 0001:00000ba4       ?AddRef@?$CComObject@VCOPOSBiometrics@@@ATL@@WHI@AGKXZ 10001ba4 f i Biometrics.obj
 0001:00000bae       ?Release@?$CComObject@VCOPOSBiometrics@@@ATL@@WHI@AGKXZ 10001bae f i Biometrics.obj
 0001:00000bb8       ?QueryInterface@?$CComObject@VCOPOSBiometrics@@@ATL@@WHM@AGJABU_GUID@@PAPAX@Z 10001bb8 f i Biometrics.obj
 0001:00000bc2       ?AddRef@?$CComObject@VCOPOSBiometrics@@@ATL@@WHM@AGKXZ 10001bc2 f i Biometrics.obj
 0001:00000bcc       ?Release@?$CComObject@VCOPOSBiometrics@@@ATL@@WHM@AGKXZ 10001bcc f i Biometrics.obj
 0001:00000bd6       ?QueryInterface@?$CComObject@VCOPOSBiometrics@@@ATL@@WIA@AGJABU_GUID@@PAPAX@Z 10001bd6 f i Biometrics.obj
 0001:00000be3       ?AddRef@?$CComObject@VCOPOSBiometrics@@@ATL@@WIA@AGKXZ 10001be3 f i Biometrics.obj
 0001:00000bf0       ?Release@?$CComObject@VCOPOSBiometrics@@@ATL@@WIA@AGKXZ 10001bf0 f i Biometrics.obj
 0001:00000bfd       ?QueryInterface@?$CComObject@VCOPOSBiometrics@@@ATL@@WIE@AGJABU_GUID@@PAPAX@Z 10001bfd f i Biometrics.obj
 0001:00000c0a       ?AddRef@?$CComObject@VCOPOSBiometrics@@@ATL@@WIE@AGKXZ 10001c0a f i Biometrics.obj
 0001:00000c17       ?Release@?$CComObject@VCOPOSBiometrics@@@ATL@@WIE@AGKXZ 10001c17 f i Biometrics.obj
 0001:00000c24       ?QueryInterface@?$CComObject@VCOPOSBiometrics@@@ATL@@WII@AGJABU_GUID@@PAPAX@Z 10001c24 f i Biometrics.obj
 0001:00000c31       ?AddRef@?$CComObject@VCOPOSBiometrics@@@ATL@@WII@AGKXZ 10001c31 f i Biometrics.obj
 0001:00000c3e       ?Release@?$CComObject@VCOPOSBiometrics@@@ATL@@WII@AGKXZ 10001c3e f i Biometrics.obj
 0001:00000c4b       ?QueryInterface@?$CComObject@VCOPOSBiometrics@@@ATL@@WIM@AGJABU_GUID@@PAPAX@Z 10001c4b f i Biometrics.obj
 0001:00000c58       ?AddRef@?$CComObject@VCOPOSBiometrics@@@ATL@@WIM@AGKXZ 10001c58 f i Biometrics.obj
 0001:00000c65       ?Release@?$CComObject@VCOPOSBiometrics@@@ATL@@WIM@AGKXZ 10001c65 f i Biometrics.obj
 0001:00000c72       ?QueryInterface@?$CComObject@VCOPOSBiometrics@@@ATL@@WJA@AGJABU_GUID@@PAPAX@Z 10001c72 f i Biometrics.obj
 0001:00000c7f       ?AddRef@?$CComObject@VCOPOSBiometrics@@@ATL@@WJA@AGKXZ 10001c7f f i Biometrics.obj
 0001:00000c8c       ?Release@?$CComObject@VCOPOSBiometrics@@@ATL@@WJA@AGKXZ 10001c8c f i Biometrics.obj
 0001:00000c99       ?QueryInterface@?$CComObject@VCOPOSBiometrics@@@ATL@@WJE@AGJABU_GUID@@PAPAX@Z 10001c99 f i Biometrics.obj
 0001:00000ca6       ?AddRef@?$CComObject@VCOPOSBiometrics@@@ATL@@WJE@AGKXZ 10001ca6 f i Biometrics.obj
 0001:00000cb3       ?Release@?$CComObject@VCOPOSBiometrics@@@ATL@@WJE@AGKXZ 10001cb3 f i Biometrics.obj
 0001:00000cc0       ?QueryInterface@?$CComObject@VCOPOSBiometrics@@@ATL@@WJI@AGJABU_GUID@@PAPAX@Z 10001cc0 f i Biometrics.obj
 0001:00000ccd       ?AddRef@?$CComObject@VCOPOSBiometrics@@@ATL@@WJI@AGKXZ 10001ccd f i Biometrics.obj
 0001:00000cda       ?Release@?$CComObject@VCOPOSBiometrics@@@ATL@@WJI@AGKXZ 10001cda f i Biometrics.obj
 0001:00000ce7       ?QueryInterface@?$CComObject@VCOPOSBiometrics@@@ATL@@WJM@AGJABU_GUID@@PAPAX@Z 10001ce7 f i Biometrics.obj
 0001:00000cf4       ?AddRef@?$CComObject@VCOPOSBiometrics@@@ATL@@WJM@AGKXZ 10001cf4 f i Biometrics.obj
 0001:00000d01       ?Release@?$CComObject@VCOPOSBiometrics@@@ATL@@WJM@AGKXZ 10001d01 f i Biometrics.obj
 0001:00000d0e       ?QueryInterface@?$CComObject@VCOPOSBiometrics@@@ATL@@WKA@AGJABU_GUID@@PAPAX@Z 10001d0e f i Biometrics.obj
 0001:00000d1b       ?AddRef@?$CComObject@VCOPOSBiometrics@@@ATL@@WKA@AGKXZ 10001d1b f i Biometrics.obj
 0001:00000d28       ?Release@?$CComObject@VCOPOSBiometrics@@@ATL@@WKA@AGKXZ 10001d28 f i Biometrics.obj
 0001:00000d35       ?AddRef@?$CComObject@VCOPOSBiometrics@@@ATL@@WKI@AGKXZ 10001d35 f i Biometrics.obj
 0001:00000d42       ?Release@?$CComObject@VCOPOSBiometrics@@@ATL@@WKI@AGKXZ 10001d42 f i Biometrics.obj
 0001:00000d4f       ?AddRef@?$CComObject@VCOPOSBiometrics@@@ATL@@WLE@AGKXZ 10001d4f f i Biometrics.obj
 0001:00000d5c       ?Release@?$CComObject@VCOPOSBiometrics@@@ATL@@WLE@AGKXZ 10001d5c f i Biometrics.obj
 0001:00000d69       ??_E?$CComContainedObject@VCOPOSBiometrics@@@ATL@@W3AEPAXI@Z 10001d69 f i Biometrics.obj
 0001:00000d71       ??_E?$CComContainedObject@VCOPOSBiometrics@@@ATL@@WEM@AEPAXI@Z 10001d71 f i Biometrics.obj
 0001:00000d79       ?QueryInterface@?$CComContainedObject@VCOPOSBiometrics@@@ATL@@WHA@AGJABU_GUID@@PAPAX@Z 10001d79 f i Biometrics.obj
 0001:00000d83       ?AddRef@?$CComContainedObject@VCOPOSBiometrics@@@ATL@@WHA@AGKXZ 10001d83 f i Biometrics.obj
 0001:00000d8d       ?Release@?$CComContainedObject@VCOPOSBiometrics@@@ATL@@WHA@AGKXZ 10001d8d f i Biometrics.obj
 0001:00000d97       ?QueryInterface@?$CComContainedObject@VCOPOSBiometrics@@@ATL@@WHE@AGJABU_GUID@@PAPAX@Z 10001d97 f i Biometrics.obj
 0001:00000da1       ?AddRef@?$CComContainedObject@VCOPOSBiometrics@@@ATL@@WHE@AGKXZ 10001da1 f i Biometrics.obj
 0001:00000dab       ?Release@?$CComContainedObject@VCOPOSBiometrics@@@ATL@@WHE@AGKXZ 10001dab f i Biometrics.obj
 0001:00000db5       ?QueryInterface@?$CComContainedObject@VCOPOSBiometrics@@@ATL@@WHI@AGJABU_GUID@@PAPAX@Z 10001db5 f i Biometrics.obj
 0001:00000dbf       ?AddRef@?$CComContainedObject@VCOPOSBiometrics@@@ATL@@WHI@AGKXZ 10001dbf f i Biometrics.obj
 0001:00000dc9       ?Release@?$CComContainedObject@VCOPOSBiometrics@@@ATL@@WHI@AGKXZ 10001dc9 f i Biometrics.obj
 0001:00000dd3       ?QueryInterface@?$CComContainedObject@VCOPOSBiometrics@@@ATL@@WHM@AGJABU_GUID@@PAPAX@Z 10001dd3 f i Biometrics.obj
 0001:00000ddd       ?AddRef@?$CComContainedObject@VCOPOSBiometrics@@@ATL@@WHM@AGKXZ 10001ddd f i Biometrics.obj
 0001:00000de7       ?Release@?$CComContainedObject@VCOPOSBiometrics@@@ATL@@WHM@AGKXZ 10001de7 f i Biometrics.obj
 0001:00000df1       ?QueryInterface@?$CComContainedObject@VCOPOSBiometrics@@@ATL@@WIA@AGJABU_GUID@@PAPAX@Z 10001df1 f i Biometrics.obj
 0001:00000dfe       ?AddRef@?$CComContainedObject@VCOPOSBiometrics@@@ATL@@WIA@AGKXZ 10001dfe f i Biometrics.obj
 0001:00000e0b       ?Release@?$CComContainedObject@VCOPOSBiometrics@@@ATL@@WIA@AGKXZ 10001e0b f i Biometrics.obj
 0001:00000e18       ?QueryInterface@?$CComContainedObject@VCOPOSBiometrics@@@ATL@@WIE@AGJABU_GUID@@PAPAX@Z 10001e18 f i Biometrics.obj
 0001:00000e25       ?AddRef@?$CComContainedObject@VCOPOSBiometrics@@@ATL@@WIE@AGKXZ 10001e25 f i Biometrics.obj
 0001:00000e32       ?Release@?$CComContainedObject@VCOPOSBiometrics@@@ATL@@WIE@AGKXZ 10001e32 f i Biometrics.obj
 0001:00000e3f       ?QueryInterface@?$CComContainedObject@VCOPOSBiometrics@@@ATL@@WII@AGJABU_GUID@@PAPAX@Z 10001e3f f i Biometrics.obj
 0001:00000e4c       ?AddRef@?$CComContainedObject@VCOPOSBiometrics@@@ATL@@WII@AGKXZ 10001e4c f i Biometrics.obj
 0001:00000e59       ?Release@?$CComContainedObject@VCOPOSBiometrics@@@ATL@@WII@AGKXZ 10001e59 f i Biometrics.obj
 0001:00000e66       ?QueryInterface@?$CComContainedObject@VCOPOSBiometrics@@@ATL@@WIM@AGJABU_GUID@@PAPAX@Z 10001e66 f i Biometrics.obj
 0001:00000e73       ?AddRef@?$CComContainedObject@VCOPOSBiometrics@@@ATL@@WIM@AGKXZ 10001e73 f i Biometrics.obj
 0001:00000e80       ?Release@?$CComContainedObject@VCOPOSBiometrics@@@ATL@@WIM@AGKXZ 10001e80 f i Biometrics.obj
 0001:00000e8d       ?QueryInterface@?$CComContainedObject@VCOPOSBiometrics@@@ATL@@WJA@AGJABU_GUID@@PAPAX@Z 10001e8d f i Biometrics.obj
 0001:00000e9a       ?AddRef@?$CComContainedObject@VCOPOSBiometrics@@@ATL@@WJA@AGKXZ 10001e9a f i Biometrics.obj
 0001:00000ea7       ?Release@?$CComContainedObject@VCOPOSBiometrics@@@ATL@@WJA@AGKXZ 10001ea7 f i Biometrics.obj
 0001:00000eb4       ?QueryInterface@?$CComContainedObject@VCOPOSBiometrics@@@ATL@@WJE@AGJABU_GUID@@PAPAX@Z 10001eb4 f i Biometrics.obj
 0001:00000ec1       ?AddRef@?$CComContainedObject@VCOPOSBiometrics@@@ATL@@WJE@AGKXZ 10001ec1 f i Biometrics.obj
 0001:00000ece       ?Release@?$CComContainedObject@VCOPOSBiometrics@@@ATL@@WJE@AGKXZ 10001ece f i Biometrics.obj
 0001:00000edb       ?QueryInterface@?$CComContainedObject@VCOPOSBiometrics@@@ATL@@WJI@AGJABU_GUID@@PAPAX@Z 10001edb f i Biometrics.obj
 0001:00000ee8       ?AddRef@?$CComContainedObject@VCOPOSBiometrics@@@ATL@@WJI@AGKXZ 10001ee8 f i Biometrics.obj
 0001:00000ef5       ?Release@?$CComContainedObject@VCOPOSBiometrics@@@ATL@@WJI@AGKXZ 10001ef5 f i Biometrics.obj
 0001:00000f02       ?QueryInterface@?$CComContainedObject@VCOPOSBiometrics@@@ATL@@WJM@AGJABU_GUID@@PAPAX@Z 10001f02 f i Biometrics.obj
 0001:00000f0f       ?AddRef@?$CComContainedObject@VCOPOSBiometrics@@@ATL@@WJM@AGKXZ 10001f0f f i Biometrics.obj
 0001:00000f1c       ?Release@?$CComContainedObject@VCOPOSBiometrics@@@ATL@@WJM@AGKXZ 10001f1c f i Biometrics.obj
 0001:00000f29       ?QueryInterface@?$CComContainedObject@VCOPOSBiometrics@@@ATL@@WKA@AGJABU_GUID@@PAPAX@Z 10001f29 f i Biometrics.obj
 0001:00000f36       ?AddRef@?$CComContainedObject@VCOPOSBiometrics@@@ATL@@WKA@AGKXZ 10001f36 f i Biometrics.obj
 0001:00000f43       ?Release@?$CComContainedObject@VCOPOSBiometrics@@@ATL@@WKA@AGKXZ 10001f43 f i Biometrics.obj
 0001:00000f50       ?AddRef@?$CComContainedObject@VCOPOSBiometrics@@@ATL@@WKI@AGKXZ 10001f50 f i Biometrics.obj
 0001:00000f5d       ?Release@?$CComContainedObject@VCOPOSBiometrics@@@ATL@@WKI@AGKXZ 10001f5d f i Biometrics.obj
 0001:00000f6a       ?AddRef@?$CComContainedObject@VCOPOSBiometrics@@@ATL@@WLE@AGKXZ 10001f6a f i Biometrics.obj
 0001:00000f77       ?Release@?$CComContainedObject@VCOPOSBiometrics@@@ATL@@WLE@AGKXZ 10001f77 f i Biometrics.obj
 0001:00000f84       ?GetWindowProc@?$CWindowImplBaseT@VCWindow@ATL@@V?$CWinTraits@$0FGAAAAAA@$0A@@2@@ATL@@UAEP6GJPAUHWND__@@IIJ@ZXZ 10001f84 f i Biometrics.obj
 0001:00000f8a       ?StartWindowProc@?$CWindowImplBaseT@VCWindow@ATL@@V?$CWinTraits@$0FGAAAAAA@$0A@@2@@ATL@@SGJPAUHWND__@@IIJ@Z 10001f8a f i Biometrics.obj
 0001:00000fde       ?GetTypeInfoCount@?$IDispatchImpl@UIOPOSBiometrics@@$1?IID_IOPOSBiometrics@@3U_GUID@@B$1?LIBID_OposBiometrics_CCO@@3U3@B$00$0A@VCComTypeInfoHolder@ATL@@@ATL@@UAGJPAI@Z 10001fde f i Biometrics.obj
 0001:00000ffb       ?GetTypeInfo@?$IDispatchImpl@UIOPOSBiometrics@@$1?IID_IOPOSBiometrics@@3U_GUID@@B$1?LIBID_OposBiometrics_CCO@@3U3@B$00$0A@VCComTypeInfoHolder@ATL@@@ATL@@UAGJIKPAPAUITypeInfo@@@Z 10001ffb f i Biometrics.obj
 0001:0000101f       ?GetIDsOfNames@?$IDispatchImpl@UIOPOSBiometrics@@$1?IID_IOPOSBiometrics@@3U_GUID@@B$1?LIBID_OposBiometrics_CCO@@3U3@B$00$0A@VCComTypeInfoHolder@ATL@@@ATL@@UAGJABU_GUID@@PAPA_WIKPAJ@Z 1000201f f i Biometrics.obj
 0001:0000103f       ?Invoke@?$IDispatchImpl@UIOPOSBiometrics@@$1?IID_IOPOSBiometrics@@3U_GUID@@B$1?LIBID_OposBiometrics_CCO@@3U3@B$00$0A@VCComTypeInfoHolder@ATL@@@ATL@@UAGJJABU_GUID@@KGPAUtagDISPPARAMS@@PAUtagVARIANT@@PAUtagEXCEPINFO@@PAI@Z 1000203f f i Biometrics.obj
 0001:0000104d       ?CreateControlWindow@?$CComControl@VCOPOSBiometrics@@V?$CWindowImpl@VCOPOSBiometrics@@VCWindow@ATL@@V?$CWinTraits@$0FGAAAAAA@$0A@@3@@ATL@@@ATL@@UAEPAUHWND__@@PAU3@AAUtagRECT@@@Z 1000204d f i Biometrics.obj
 0001:0000107c       ?ControlQueryInterface@?$CComControl@VCOPOSBiometrics@@V?$CWindowImpl@VCOPOSBiometrics@@VCWindow@ATL@@V?$CWinTraits@$0FGAAAAAA@$0A@@3@@ATL@@@ATL@@UAEJABU_GUID@@PAPAX@Z 1000207c f i Biometrics.obj
 0001:00001097       ?GetUserClassID@?$IOleObjectImpl@VCOPOSBiometrics@@@ATL@@UAGJPAU_GUID@@@Z 10002097 f i Biometrics.obj
 0001:00001097       ?GetClassID@?$IPersistStreamInitImpl@VCOPOSBiometrics@@@ATL@@UAGJPAU_GUID@@@Z 10002097 f i Biometrics.obj
 0001:00001097       ?GetClassID@?$IPersistStorageImpl@VCOPOSBiometrics@@@ATL@@UAGJPAU_GUID@@@Z 10002097 f i Biometrics.obj
 0001:000010bb       ?IsDirty@?$IPersistStreamInitImpl@VCOPOSBiometrics@@@ATL@@UAGJXZ 100020bb f i Biometrics.obj
 0001:000010da       ?Load@?$IPersistStreamInitImpl@VCOPOSBiometrics@@@ATL@@UAGJPAUIStream@@@Z 100020da f i Biometrics.obj
 0001:000010f9       ?Save@?$IPersistStreamInitImpl@VCOPOSBiometrics@@@ATL@@UAGJPAUIStream@@H@Z 100020f9 f i Biometrics.obj
 0001:0000111b       ?GetSizeMax@?$IPersistStreamInitImpl@VCOPOSBiometrics@@@ATL@@UAGJPAT_ULARGE_INTEGER@@@Z 1000211b f i Biometrics.obj
 0001:000012fa       ?InitNew@?$IPersistStreamInitImpl@VCOPOSBiometrics@@@ATL@@UAGJXZ 100022fa f i Biometrics.obj
 0001:00001317       ?QueryGetData@?$IDataObjectImpl@VCOPOSBiometrics@@@ATL@@UAGJPAUtagFORMATETC@@@Z 10002317 f i Biometrics.obj
 0001:00001317       ?SOOutputCompleteDummy@COPOSBiometrics@@MAGJJ@Z 10002317 f i Biometrics.obj
 0001:00001317       ?GetDropTarget@?$IOleInPlaceObjectWindowlessImpl@VCOPOSBiometrics@@@ATL@@UAGJPAPAUIDropTarget@@@Z 10002317 f i Biometrics.obj
 0001:00001317       ?ContextSensitiveHelp@?$IOleInPlaceObjectWindowlessImpl@VCOPOSBiometrics@@@ATL@@UAGJH@Z 10002317 f i Biometrics.obj
 0001:00001317       ?Unfreeze@?$IViewObjectExImpl@VCOPOSBiometrics@@@ATL@@UAGJK@Z 10002317 f i Biometrics.obj
 0001:00001317       ?GetControlInfo@?$IOleControlImpl@VCOPOSBiometrics@@@ATL@@UAGJPAUtagCONTROLINFO@@@Z 10002317 f i Biometrics.obj
 0001:00001317       ?OnMnemonic@?$IOleControlImpl@VCOPOSBiometrics@@@ATL@@UAGJPAUtagMSG@@@Z 10002317 f i Biometrics.obj
 0001:00001317       ?ContextSensitiveHelp@?$IOleInPlaceActiveObjectImpl@VCOPOSBiometrics@@@ATL@@UAGJH@Z 10002317 f i Biometrics.obj
 0001:00001317       ?SetColorScheme@?$IOleObjectImpl@VCOPOSBiometrics@@@ATL@@UAGJPAUtagLOGPALETTE@@@Z 10002317 f i Biometrics.obj
 0001:0000131f       ?OnFrameWindowActivate@?$IOleInPlaceActiveObjectImpl@VCOPOSBiometrics@@@ATL@@UAGJH@Z 1000231f f i Biometrics.obj
 0001:0000131f       ?EnableModeless@?$IOleInPlaceActiveObjectImpl@VCOPOSBiometrics@@@ATL@@UAGJH@Z 1000231f f i Biometrics.obj
 0001:0000131f       ?SaveCompleted@?$IPersistStorageImpl@VCOPOSBiometrics@@@ATL@@UAGJPAUIStorage@@@Z 1000231f f i Biometrics.obj
 0001:0000131f       ?OnAmbientPropertyChange@?$IOleControlImpl@VCOPOSBiometrics@@@ATL@@UAGJJ@Z 1000231f f i Biometrics.obj
 0001:00001324       ?SetClientSite@?$IOleObjectImpl@VCOPOSBiometrics@@@ATL@@UAGJPAUIOleClientSite@@@Z 10002324 f i Biometrics.obj
 0001:00001341       ?GetClientSite@?$IOleObjectImpl@VCOPOSBiometrics@@@ATL@@UAGJPAPAUIOleClientSite@@@Z 10002341 f i Biometrics.obj
 0001:0000135e       ?SetHostNames@?$IOleObjectImpl@VCOPOSBiometrics@@@ATL@@UAGJPB_W0@Z 1000235e f i Biometrics.obj
 0001:00001363       ?Close@?$IOleObjectImpl@VCOPOSBiometrics@@@ATL@@UAGJK@Z 10002363 f i Biometrics.obj
 0001:00001380       ?QueryInterface@CRegObject@ATL@@UAGJABU_GUID@@PAPAX@Z 10002380 f i Biometrics.obj
 0001:00001380       ?GetDataHere@?$IDataObjectImpl@VCOPOSBiometrics@@@ATL@@UAGJPAUtagFORMATETC@@PAUtagSTGMEDIUM@@@Z 10002380 f i Biometrics.obj
 0001:00001380       ?GetCanonicalFormatEtc@?$IDataObjectImpl@VCOPOSBiometrics@@@ATL@@UAGJPAUtagFORMATETC@@0@Z 10002380 f i Biometrics.obj
 0001:00001380       ?GetClipboardData@?$IOleObjectImpl@VCOPOSBiometrics@@@ATL@@UAGJKPAPAUIDataObject@@@Z 10002380 f i Biometrics.obj
 0001:00001380       ?SetMoniker@?$IOleObjectImpl@VCOPOSBiometrics@@@ATL@@UAGJKPAUIMoniker@@@Z 10002380 f i Biometrics.obj
 0001:00001380       ?GetRect@?$IViewObjectExImpl@VCOPOSBiometrics@@@ATL@@UAGJKPAU_RECTL@@@Z 10002380 f i Biometrics.obj
 0001:00001380       ?EnumFormatEtc@?$IDataObjectImpl@VCOPOSBiometrics@@@ATL@@UAGJKPAPAUIEnumFORMATETC@@@Z 10002380 f i Biometrics.obj
 0001:00001388       ?InitFromData@?$IOleObjectImpl@VCOPOSBiometrics@@@ATL@@UAGJPAUIDataObject@@HK@Z 10002388 f i Biometrics.obj
 0001:00001388       ?SetData@?$IDataObjectImpl@VCOPOSBiometrics@@@ATL@@UAGJPAUtagFORMATETC@@PAUtagSTGMEDIUM@@H@Z 10002388 f i Biometrics.obj
 0001:00001388       ?GetMoniker@?$IOleObjectImpl@VCOPOSBiometrics@@@ATL@@UAGJKKPAPAUIMoniker@@@Z 10002388 f i Biometrics.obj
 0001:00001390       ?DoVerb@?$IOleObjectImpl@VCOPOSBiometrics@@@ATL@@UAGJJPAUtagMSG@@PAUIOleClientSite@@JPAUHWND__@@PBUtagRECT@@@Z 10002390 f i Biometrics.obj
 0001:00001484       ?EnumVerbs@?$IOleObjectImpl@VCOPOSBiometrics@@@ATL@@UAGJPAPAUIEnumOLEVERB@@@Z 10002484 f i Biometrics.obj
 0001:000014a6       ?HandsOffStorage@?$IPersistStorageImpl@VCOPOSBiometrics@@@ATL@@UAGJXZ 100024a6 f i Biometrics.obj
 0001:000014a6       ?Update@?$IOleObjectImpl@VCOPOSBiometrics@@@ATL@@UAGJXZ 100024a6 f i Biometrics.obj
 0001:000014a6       ?Release@CRegObject@ATL@@UAGKXZ 100024a6 f i Biometrics.obj
 0001:000014a6       ?IsUpToDate@?$IOleObjectImpl@VCOPOSBiometrics@@@ATL@@UAGJXZ 100024a6 f i Biometrics.obj
 0001:000014ab       ?GetUserType@?$IOleObjectImpl@VCOPOSBiometrics@@@ATL@@UAGJKPAPA_W@Z 100024ab f i Biometrics.obj
 0001:000014c3       ?SetExtent@?$IOleObjectImpl@VCOPOSBiometrics@@@ATL@@UAGJKPAUtagSIZE@@@Z 100024c3 f i Biometrics.obj
 0001:000014e3       ?GetExtent@?$IOleObjectImpl@VCOPOSBiometrics@@@ATL@@UAGJKPAUtagSIZE@@@Z 100024e3 f i Biometrics.obj
 0001:00001521       ?Advise@?$IOleObjectImpl@VCOPOSBiometrics@@@ATL@@UAGJPAUIAdviseSink@@PAK@Z 10002521 f i Biometrics.obj
 0001:00001541       ?Unadvise@?$IOleObjectImpl@VCOPOSBiometrics@@@ATL@@UAGJK@Z 10002541 f i Biometrics.obj
 0001:00001570       ?EnumAdvise@?$IOleObjectImpl@VCOPOSBiometrics@@@ATL@@UAGJPAPAUIEnumSTATDATA@@@Z 10002570 f i Biometrics.obj
 0001:000015b0       ?GetMiscStatus@?$IOleObjectImpl@VCOPOSBiometrics@@@ATL@@UAGJKPAK@Z 100025b0 f i Biometrics.obj
 0001:000015c8       ?GetWindow@?$IOleInPlaceActiveObjectImpl@VCOPOSBiometrics@@@ATL@@UAGJPAPAUHWND__@@@Z 100025c8 f i Biometrics.obj
 0001:00001615       ?TranslateAcceleratorW@?$IOleInPlaceActiveObjectImpl@VCOPOSBiometrics@@@ATL@@UAGJPAUtagMSG@@@Z 10002615 f i Biometrics.obj
 0001:000016c3       ?OnDocWindowActivate@?$IOleInPlaceActiveObjectImpl@VCOPOSBiometrics@@@ATL@@UAGJH@Z 100026c3 f i Biometrics.obj
 0001:000016e5       ?ResizeBorder@?$IOleInPlaceActiveObjectImpl@VCOPOSBiometrics@@@ATL@@UAGJPBUtagRECT@@PAUIOleInPlaceUIWindow@@H@Z 100026e5 f i Biometrics.obj
 0001:000016ea       ?Draw@?$IViewObjectExImpl@VCOPOSBiometrics@@@ATL@@UAGJKJPAXPAUtagDVTARGETDEVICE@@PAUHDC__@@2PBU_RECTL@@3P6GHK@ZK@Z 100026ea f i Biometrics.obj
 0001:0000171c       ?GetColorSet@?$IViewObjectExImpl@VCOPOSBiometrics@@@ATL@@UAGJKJPAXPAUtagDVTARGETDEVICE@@PAUHDC__@@PAPAUtagLOGPALETTE@@@Z 1000271c f i Biometrics.obj
 0001:00001724       ?Freeze@?$IViewObjectExImpl@VCOPOSBiometrics@@@ATL@@UAGJKJPAXPAK@Z 10002724 f i Biometrics.obj
 0001:0000172c       ?SetAdvise@?$IViewObjectExImpl@VCOPOSBiometrics@@@ATL@@UAGJKKPAUIAdviseSink@@@Z 1000272c f i Biometrics.obj
 0001:0000174b       ?GetAdvise@?$IViewObjectExImpl@VCOPOSBiometrics@@@ATL@@UAGJPAK0PAPAUIAdviseSink@@@Z 1000274b f i Biometrics.obj
 0001:00001780       ?GetExtent@?$IViewObjectExImpl@VCOPOSBiometrics@@@ATL@@UAGJKJPAUtagDVTARGETDEVICE@@PAUtagSIZE@@@Z 10002780 f i Biometrics.obj
 0001:000017b1       ?GetViewStatus@?$IViewObjectExImpl@VCOPOSBiometrics@@@ATL@@UAGJPAK@Z 100027b1 f i Biometrics.obj
 0001:000017ce       ?QueryHitPoint@?$IViewObjectExImpl@VCOPOSBiometrics@@@ATL@@UAGJKPBUtagRECT@@UtagPOINT@@JPAK@Z 100027ce f i Biometrics.obj
 0001:0000180f       ?QueryHitRect@?$IViewObjectExImpl@VCOPOSBiometrics@@@ATL@@UAGJKPBUtagRECT@@0JPAK@Z 1000280f f i Biometrics.obj
 0001:0000186a       ?GetNaturalExtent@?$IViewObjectExImpl@VCOPOSBiometrics@@@ATL@@UAGJKJPAUtagDVTARGETDEVICE@@PAUHDC__@@PAUtagExtentInfo@@PAUtagSIZE@@@Z 1000286a f i Biometrics.obj
 0001:000018b5       ?GetWindow@?$IOleInPlaceObjectWindowlessImpl@VCOPOSBiometrics@@@ATL@@UAGJPAPAUHWND__@@@Z 100028b5 f i Biometrics.obj
 0001:00001902       ?InPlaceDeactivate@?$IOleInPlaceObjectWindowlessImpl@VCOPOSBiometrics@@@ATL@@UAGJXZ 10002902 f i Biometrics.obj
 0001:0000191c       ?UIDeactivate@?$IOleInPlaceObjectWindowlessImpl@VCOPOSBiometrics@@@ATL@@UAGJXZ 1000291c f i Biometrics.obj
 0001:00001936       ?SetObjectRects@?$IOleInPlaceObjectWindowlessImpl@VCOPOSBiometrics@@@ATL@@UAGJPBUtagRECT@@0@Z 10002936 f i Biometrics.obj
 0001:00001956       ?ReactivateAndUndo@?$IOleInPlaceObjectWindowlessImpl@VCOPOSBiometrics@@@ATL@@UAGJXZ 10002956 f i Biometrics.obj
 0001:0000195e       ?OnWindowMessage@?$IOleInPlaceObjectWindowlessImpl@VCOPOSBiometrics@@@ATL@@UAGJIIJPAJ@Z 1000295e f i Biometrics.obj
 0001:000019ce       ?EnumConnectionPoints@?$IConnectionPointContainerImpl@VCOPOSBiometrics@@@ATL@@UAGJPAPAUIEnumConnectionPoints@@@Z 100029ce f i Biometrics.obj
 0001:00001b5e       ?FindConnectionPoint@?$IConnectionPointContainerImpl@VCOPOSBiometrics@@@ATL@@UAGJABU_GUID@@PAPAUIConnectionPoint@@@Z 10002b5e f i Biometrics.obj
 0001:00001c01       ?IsDirty@?$IPersistStorageImpl@VCOPOSBiometrics@@@ATL@@UAGJXZ 10002c01 f i Biometrics.obj
 0001:00001c31       ?InitNew@?$IPersistStorageImpl@VCOPOSBiometrics@@@ATL@@UAGJPAUIStorage@@@Z 10002c31 f i Biometrics.obj
 0001:00001c61       ?Load@?$IPersistStorageImpl@VCOPOSBiometrics@@@ATL@@UAGJPAUIStorage@@@Z 10002c61 f i Biometrics.obj
 0001:00001ccd       ?Save@?$IPersistStorageImpl@VCOPOSBiometrics@@@ATL@@UAGJPAUIStorage@@H@Z 10002ccd f i Biometrics.obj
 0001:00001d40       ?GetPages@?$ISpecifyPropertyPagesImpl@VCOPOSBiometrics@@@ATL@@UAGJPAUtagCAUUID@@@Z 10002d40 f i Biometrics.obj
 0001:00001d57       ?QuickActivate@?$IQuickActivateImpl@VCOPOSBiometrics@@@ATL@@UAGJPAUtagQACONTAINER@@PAUtagQACONTROL@@@Z 10002d57 f i Biometrics.obj
 0001:00001d7a       ?SetContentExtent@?$IQuickActivateImpl@VCOPOSBiometrics@@@ATL@@UAGJPAUtagSIZE@@@Z 10002d7a f i Biometrics.obj
 0001:00001da6       ?GetContentExtent@?$IQuickActivateImpl@VCOPOSBiometrics@@@ATL@@UAGJPAUtagSIZE@@@Z 10002da6 f i Biometrics.obj
 0001:00001de2       ?GetData@?$IDataObjectImpl@VCOPOSBiometrics@@@ATL@@UAGJPAUtagFORMATETC@@PAUtagSTGMEDIUM@@@Z 10002de2 f i Biometrics.obj
 0001:00001e05       ?DAdvise@?$IDataObjectImpl@VCOPOSBiometrics@@@ATL@@UAGJPAUtagFORMATETC@@KPAUIAdviseSink@@PAK@Z 10002e05 f i Biometrics.obj
 0001:00001e46       ?DUnadvise@?$IDataObjectImpl@VCOPOSBiometrics@@@ATL@@UAGJK@Z 10002e46 f i Biometrics.obj
 0001:00001e74       ?EnumDAdvise@?$IDataObjectImpl@VCOPOSBiometrics@@@ATL@@UAGJPAPAUIEnumSTATDATA@@@Z 10002e74 f i Biometrics.obj
 0001:00001eb3       ?Lock@CAtlModule@ATL@@UAEJXZ 10002eb3 f i Biometrics.obj
 0001:00001ebd       ?Unlock@CAtlModule@ATL@@UAEJXZ 10002ebd f i Biometrics.obj
 0001:00001ec7       ?GetLockCount@CAtlModule@ATL@@UAEJXZ 10002ec7 f i Biometrics.obj
 0001:00001ecb       ?GetClassInfoW@?$IProvideClassInfo2Impl@$1?CLSID_OPOSBiometrics@@3U_GUID@@B$1?DIID__IOPOSBiometricsEvents@@3U2@B$1?LIBID_OposBiometrics_CCO@@3U2@B$00$0A@VCComTypeInfoHolder@ATL@@@ATL@@UAGJPAPAUITypeInfo@@@Z 10002ecb f i Biometrics.obj
 0001:00001ee1       ?GetGITPtr@CAtlModule@ATL@@UAEJPAPAUIGlobalInterfaceTable@@@Z 10002ee1 f i Biometrics.obj
 0001:00001f2d       ?GetGUID@?$IProvideClassInfo2Impl@$1?CLSID_OPOSBiometrics@@3U_GUID@@B$1?DIID__IOPOSBiometricsEvents@@3U2@B$1?LIBID_OposBiometrics_CCO@@3U2@B$00$0A@VCComTypeInfoHolder@ATL@@@ATL@@UAGJKPAU_GUID@@@Z 10002f2d f i Biometrics.obj
 0001:00001f6b       __get_startup_argv_mode    10002f6b f i LIBCMT:argv_mode.obj
 0001:00001f6b       ?FAccessAllowed@?$IObjectSafetyImpl@VCOPOSBiometrics@@$02@ATL@@MAEHXZ 10002f6b f i Biometrics.obj
 0001:00001f6f       ?GetInterfaceSafetyOptions@?$IObjectSafetyImpl@VCOPOSBiometrics@@$02@ATL@@UAGJABU_GUID@@PAK1@Z 10002f6f f i Biometrics.obj
 0001:00001fe2       ?SetInterfaceSafetyOptions@?$IObjectSafetyImpl@VCOPOSBiometrics@@$02@ATL@@UAGJABU_GUID@@KK@Z 10002fe2 f i Biometrics.obj
 0001:0000205c       ?_LocCPQueryInterface@?$IConnectionPointImpl@VCOPOSBiometrics@@$1?DIID__IOPOSBiometricsEvents@@3U_GUID@@BVCComDynamicUnkArray@ATL@@@ATL@@UAGJABU_GUID@@PAPAX@Z 1000305c f i Biometrics.obj
 0001:0000205c       ?_LocCPQueryInterface@?$IConnectionPointImpl@VCOPOSBiometrics@@$1?IID_IPropertyNotifySink@@3U_GUID@@BVCComDynamicUnkArray@ATL@@@ATL@@UAGJABU_GUID@@PAPAX@Z 1000305c f i Biometrics.obj
 0001:000020a9       ?GetConnectionInterface@?$IConnectionPointImpl@VCOPOSBiometrics@@$1?IID_IPropertyNotifySink@@3U_GUID@@BVCComDynamicUnkArray@ATL@@@ATL@@UAGJPAU_GUID@@@Z 100030a9 f i Biometrics.obj
 0001:000020cd       ?GetConnectionPointContainer@?$IConnectionPointImpl@VCOPOSBiometrics@@$1?IID_IPropertyNotifySink@@3U_GUID@@BVCComDynamicUnkArray@ATL@@@ATL@@UAGJPAPAUIConnectionPointContainer@@@Z 100030cd f i Biometrics.obj
 0001:000020f0       ?Advise@?$IConnectionPointImpl@VCOPOSBiometrics@@$1?DIID__IOPOSBiometricsEvents@@3U_GUID@@BVCComDynamicUnkArray@ATL@@@ATL@@UAGJPAUIUnknown@@PAK@Z 100030f0 f i Biometrics.obj
 0001:000020f0       ?Advise@?$IConnectionPointImpl@VCOPOSBiometrics@@$1?IID_IPropertyNotifySink@@3U_GUID@@BVCComDynamicUnkArray@ATL@@@ATL@@UAGJPAUIUnknown@@PAK@Z 100030f0 f i Biometrics.obj
 0001:00002190       ?Unadvise@?$IConnectionPointImpl@VCOPOSBiometrics@@$1?DIID__IOPOSBiometricsEvents@@3U_GUID@@BVCComDynamicUnkArray@ATL@@@ATL@@UAGJK@Z 10003190 f i Biometrics.obj
 0001:00002190       ?Unadvise@?$IConnectionPointImpl@VCOPOSBiometrics@@$1?IID_IPropertyNotifySink@@3U_GUID@@BVCComDynamicUnkArray@ATL@@@ATL@@UAGJK@Z 10003190 f i Biometrics.obj
 0001:000021d0       ?EnumConnections@?$IConnectionPointImpl@VCOPOSBiometrics@@$1?DIID__IOPOSBiometricsEvents@@3U_GUID@@BVCComDynamicUnkArray@ATL@@@ATL@@UAGJPAPAUIEnumConnections@@@Z 100031d0 f i Biometrics.obj
 0001:000021d0       ?EnumConnections@?$IConnectionPointImpl@VCOPOSBiometrics@@$1?IID_IPropertyNotifySink@@3U_GUID@@BVCComDynamicUnkArray@ATL@@@ATL@@UAGJPAPAUIEnumConnections@@@Z 100031d0 f i Biometrics.obj
 0001:000022d3       ?GetConnectionInterface@?$IConnectionPointImpl@VCOPOSBiometrics@@$1?DIID__IOPOSBiometricsEvents@@3U_GUID@@BVCComDynamicUnkArray@ATL@@@ATL@@UAGJPAU_GUID@@@Z 100032d3 f i Biometrics.obj
 0001:000022f7       ?GetConnectionPointContainer@?$IConnectionPointImpl@VCOPOSBiometrics@@$1?DIID__IOPOSBiometricsEvents@@3U_GUID@@BVCComDynamicUnkArray@ATL@@@ATL@@UAGJPAPAUIConnectionPointContainer@@@Z 100032f7 f i Biometrics.obj
 0001:0000231a       ?AddCommonRGSReplacements@?$CAtlModuleT@VCComModule@ATL@@@ATL@@UAEJPAUIRegistrarBase@@@Z 1000331a f i Biometrics.obj
 0001:00002334       ?UpdateRegistry@COPOSBiometrics@@SGJH@Z 10003334 f i Biometrics.obj
 0001:0000234c       ?UpdateRegistryFromResourceD@CComModule@ATL@@UAGJIHPAU_ATL_REGMAP_ENTRY@2@@Z 1000334c f i Biometrics.obj
 0001:0000234c       ?UpdateRegistryFromResourceD@CComModule@ATL@@UAGJPB_WHPAU_ATL_REGMAP_ENTRY@2@@Z 1000334c f i Biometrics.obj
 0001:00002354       ?ProcessWindowMessage@COPOSBiometrics@@UAEHPAUHWND__@@IIJAAJK@Z 10003354 f i Biometrics.obj
 0001:000023a1       ?UpdateRegistryFromResource@CComModule@ATL@@UAGJPB_WHPAU_ATL_REGMAP_ENTRY@2@@Z 100033a1 f i Biometrics.obj
 0001:000023aa       ?UpdateRegistryFromResource@CComModule@ATL@@UAGJIHPAU_ATL_REGMAP_ENTRY@2@@Z 100033aa f i Biometrics.obj
 0001:000023b3       ?SOData@COPOSBiometrics@@MAGJJ@Z 100033b3 f i Biometrics.obj
 0001:000023ec       ?SODirectIO@COPOSBiometrics@@MAGJJPAJPAPA_W@Z 100033ec f i Biometrics.obj
 0001:00002435       ?SOError@COPOSBiometrics@@MAGJJJJPAJ@Z 10003435 f i Biometrics.obj
 0001:0000248a       ?SOStatusUpdate@COPOSBiometrics@@MAGJJ@Z 1000348a f i Biometrics.obj
 0001:000024c3       ??_ECComModule@ATL@@UAEPAXI@Z 100034c3 f i Biometrics.obj
 0001:000024c3       ??_GCComModule@ATL@@UAEPAXI@Z 100034c3 f i Biometrics.obj
 0001:000024eb       ?CreateInstance@?$CComCreator@V?$CComObjectCached@VCComClassFactory@ATL@@@ATL@@@ATL@@SGJPAXABU_GUID@@PAPAX@Z 100034eb f i Biometrics.obj
 0001:0000258c       ?CreateInstance@?$CComCreator2@V?$CComCreator@V?$CComObject@VCOPOSBiometrics@@@ATL@@@ATL@@V?$CComCreator@V?$CComAggObject@VCOPOSBiometrics@@@ATL@@@2@@ATL@@SGJPAXABU_GUID@@PAPAX@Z 1000358c f i Biometrics.obj
 0001:000025ac       ?AddRef@?$CComObjectCached@VCComClassFactory@ATL@@@ATL@@UAGKXZ 100035ac f i Biometrics.obj
 0001:000025d3       ?Release@?$CComObjectCached@VCComClassFactory@ATL@@@ATL@@UAGKXZ 100035d3 f i Biometrics.obj
 0001:00002609       ?QueryInterface@?$CComObjectCached@VCComClassFactory@ATL@@@ATL@@UAGJABU_GUID@@PAPAX@Z 10003609 f i Biometrics.obj
 0001:00002623       ??_G?$CComObjectCached@VCComClassFactory@ATL@@@ATL@@UAEPAXI@Z 10003623 f i Biometrics.obj
 0001:00002623       ??_E?$CComObjectCached@VCComClassFactory@ATL@@@ATL@@UAEPAXI@Z 10003623 f i Biometrics.obj
 0001:00002645       ?Next@?$CComEnumImpl@UIEnumConnectionPoints@@$1?_GUID_b196b285_bab4_101a_b69c_00aa00341d07@@3U__s_GUID@@BPAUIConnectionPoint@@V?$_CopyInterface@UIConnectionPoint@@@ATL@@@ATL@@UAGJKPAPAUIConnectionPoint@@PAK@Z 10003645 f i Biometrics.obj
 0001:00002714       ?Skip@?$CComEnumImpl@UIEnumConnectionPoints@@$1?_GUID_b196b285_bab4_101a_b69c_00aa00341d07@@3U__s_GUID@@BPAUIConnectionPoint@@V?$_CopyInterface@UIConnectionPoint@@@ATL@@@ATL@@UAGJK@Z 10003714 f i Biometrics.obj
 0001:00002741       ?Clone@?$CComEnumImpl@UIEnumConnectionPoints@@$1?_GUID_b196b285_bab4_101a_b69c_00aa00341d07@@3U__s_GUID@@BPAUIConnectionPoint@@V?$_CopyInterface@UIConnectionPoint@@@ATL@@@ATL@@UAGJPAPAUIEnumConnectionPoints@@@Z 10003741 f i Biometrics.obj
 0001:00002822       ?QueryInterface@?$CComObject@V?$CComEnum@UIEnumConnectionPoints@@$1?_GUID_b196b285_bab4_101a_b69c_00aa00341d07@@3U__s_GUID@@BPAUIConnectionPoint@@V?$_CopyInterface@UIConnectionPoint@@@ATL@@VCComSingleThreadModel@6@@ATL@@@ATL@@UAGJABU_GUID@@PAPAX@Z 10003822 f i Biometrics.obj
 0001:0000283c       ??_G?$CComObject@V?$CComEnum@UIEnumConnectionPoints@@$1?_GUID_b196b285_bab4_101a_b69c_00aa00341d07@@3U__s_GUID@@BPAUIConnectionPoint@@V?$_CopyInterface@UIConnectionPoint@@@ATL@@VCComSingleThreadModel@6@@ATL@@@ATL@@UAEPAXI@Z 1000383c f i Biometrics.obj
 0001:0000283c       ??_E?$CComObject@V?$CComEnum@UIEnumConnectionPoints@@$1?_GUID_b196b285_bab4_101a_b69c_00aa00341d07@@3U__s_GUID@@BPAUIConnectionPoint@@V?$_CopyInterface@UIConnectionPoint@@@ATL@@VCComSingleThreadModel@6@@ATL@@@ATL@@UAEPAXI@Z 1000383c f i Biometrics.obj
 0001:0000285e       ?AddRef@CRegObject@ATL@@UAGKXZ 1000385e f i Biometrics.obj
 0001:00002864       ?AddReplacement@CRegObject@ATL@@UAGJPB_W0@Z 10003864 f i Biometrics.obj
 0001:0000289d       ?ClearReplacements@CRegObject@ATL@@UAGJXZ 1000389d f i Biometrics.obj
 0001:000028af       ??_GCRegObject@ATL@@UAEPAXI@Z 100038af f i Biometrics.obj
 0001:000028af       ??_ECRegObject@ATL@@UAEPAXI@Z 100038af f i Biometrics.obj
 0001:000028d1       ?AddRef@?$CComAggObject@VCOPOSBiometrics@@@ATL@@UAGKXZ 100038d1 f i Biometrics.obj
 0001:000028e2       ?Release@?$CComAggObject@VCOPOSBiometrics@@@ATL@@UAGKXZ 100038e2 f i Biometrics.obj
 0001:0000291e       ?QueryInterface@?$CComAggObject@VCOPOSBiometrics@@@ATL@@UAGJABU_GUID@@PAPAX@Z 1000391e f i Biometrics.obj
 0001:0000296d       ?AddRef@?$CComContainedObject@VCOPOSBiometrics@@@ATL@@UAGKXZ 1000396d f i Biometrics.obj
 0001:00002983       ?Release@?$CComContainedObject@VCOPOSBiometrics@@@ATL@@UAGKXZ 10003983 f i Biometrics.obj
 0001:00002999       ?QueryInterface@?$CComContainedObject@VCOPOSBiometrics@@@ATL@@UAGJABU_GUID@@PAPAX@Z 10003999 f i Biometrics.obj
 0001:000029b4       ??_G?$CComAggObject@VCOPOSBiometrics@@@ATL@@UAEPAXI@Z 100039b4 f i Biometrics.obj
 0001:000029b4       ??_E?$CComAggObject@VCOPOSBiometrics@@@ATL@@UAEPAXI@Z 100039b4 f i Biometrics.obj
 0001:000029d9       ?AddRef@?$CComObject@VCOPOSBiometrics@@@ATL@@UAGKXZ 100039d9 f i Biometrics.obj
 0001:000029f0       ?Release@?$CComObject@VCOPOSBiometrics@@@ATL@@UAGKXZ 100039f0 f i Biometrics.obj
 0001:00002a32       ?QueryInterface@?$CComObject@VCOPOSBiometrics@@@ATL@@UAGJABU_GUID@@PAPAX@Z 10003a32 f i Biometrics.obj
 0001:00002a4c       ??$?4UITypeInfo2@@@?$CComPtr@UITypeInfo@@@ATL@@QAEPAUITypeInfo@@ABV?$CComPtr@UITypeInfo2@@@1@@Z 10003a4c f i Biometrics.obj
 0001:00002a79       ??$AtlAdd@K@ATL@@YAJPAKKK@Z 10003a79 f i Biometrics.obj
 0001:00002a9c       ??$AtlAdd@_K@ATL@@YAJPA_K_K1@Z 10003a9c f i Biometrics.obj
 0001:00002ad4       ??$AtlAddThrow@K@ATL@@YAKKK@Z 10003ad4 f i Biometrics.obj
 0001:00002afa       ??$AtlModuleRegisterWndClassInfoT@VAtlModuleRegisterWndClassInfoParamW@ATL@@@ATL@@YAGPAU_ATL_BASE_MODULE70@0@PAU_ATL_WIN_MODULE70@0@PAU_ATL_WNDCLASSINFOW@0@PAP6GJPAUHWND__@@IIJ@ZVAtlModuleRegisterWndClassInfoParamW@0@@Z 10003afa f i Biometrics.obj
 0001:00002c47       ??$AtlMultiply@H@ATL@@YAJPAHHH@Z 10003c47 f i Biometrics.obj
 0001:00002c7f       ??$AtlMultiply@I@ATL@@YAJPAIII@Z 10003c7f f i Biometrics.obj
 0001:00002c7f       ??$AtlMultiply@K@ATL@@YAJPAKKK@Z 10003c7f f i Biometrics.obj
 0001:00002ca1       ??$AtlMultiplyThrow@I@ATL@@YAIII@Z 10003ca1 f i Biometrics.obj
 0001:00002cc7       ??0?$CComAggObject@VCOPOSBiometrics@@@ATL@@QAE@PAX@Z 10003cc7 f i Biometrics.obj
 0001:00002cf4       ??0?$CComContainedObject@VCOPOSBiometrics@@@ATL@@QAE@PAX@Z 10003cf4 f i Biometrics.obj
 0001:00002dad       ??0?$CComObject@V?$CComEnum@UIEnumConnectionPoints@@$1?_GUID_b196b285_bab4_101a_b69c_00aa00341d07@@3U__s_GUID@@BPAUIConnectionPoint@@V?$_CopyInterface@UIConnectionPoint@@@ATL@@VCComSingleThreadModel@6@@ATL@@@ATL@@QAE@PAX@Z 10003dad f i Biometrics.obj
 0001:00002ddb       ??0?$CComObject@V?$CComEnum@UIEnumConnections@@$1?_GUID_b196b287_bab4_101a_b69c_00aa00341d07@@3U__s_GUID@@BUtagCONNECTDATA@@V?$_Copy@UtagCONNECTDATA@@@ATL@@VCComSingleThreadModel@6@@ATL@@@ATL@@QAE@PAX@Z 10003ddb f i Biometrics.obj
 0001:00002e09       ??0?$CComObject@VCOPOSBiometrics@@@ATL@@QAE@PAX@Z 10003e09 f i Biometrics.obj
 0001:00002ec0       ??0?$CComQIPtr@UIOleControlSite@@$1?_GUID_b196b289_bab4_101a_b69c_00aa00341d07@@3U__s_GUID@@B@ATL@@QAE@PAUIUnknown@@@Z 10003ec0 f i Biometrics.obj
 0001:00002ee9       ??0CAtlModule@ATL@@QAE@XZ  10003ee9 f i Biometrics.obj
 0001:00002f2a       ??0CParseBuffer@CRegParser@ATL@@QAE@H@Z 10003f2a f i Biometrics.obj
 0001:00002f60       ??0_ATL_MSG@ATL@@QAE@PAUHWND__@@IIJH@Z 10003f60 f i Biometrics.obj
 0001:00002f98       ??1?$CComAggObject@VCOPOSBiometrics@@@ATL@@UAE@XZ 10003f98 f i Biometrics.obj
 0001:00002fbc       ??1?$CComEnumImpl@UIEnumConnectionPoints@@$1?_GUID_b196b285_bab4_101a_b69c_00aa00341d07@@3U__s_GUID@@BPAUIConnectionPoint@@V?$_CopyInterface@UIConnectionPoint@@@ATL@@@ATL@@UAE@XZ 10003fbc f i Biometrics.obj
 0001:00002ff8       ??1?$CComEnumImpl@UIEnumConnections@@$1?_GUID_b196b287_bab4_101a_b69c_00aa00341d07@@3U__s_GUID@@BUtagCONNECTDATA@@V?$_Copy@UtagCONNECTDATA@@@ATL@@@ATL@@UAE@XZ 10003ff8 f i Biometrics.obj
 0001:00003034       ??1?$CComObject@V?$CComEnum@UIEnumConnectionPoints@@$1?_GUID_b196b285_bab4_101a_b69c_00aa00341d07@@3U__s_GUID@@BPAUIConnectionPoint@@V?$_CopyInterface@UIConnectionPoint@@@ATL@@VCComSingleThreadModel@6@@ATL@@@ATL@@UAE@XZ 10004034 f i Biometrics.obj
 0001:00003057       ??1?$CComObject@V?$CComEnum@UIEnumConnections@@$1?_GUID_b196b287_bab4_101a_b69c_00aa00341d07@@3U__s_GUID@@BUtagCONNECTDATA@@V?$_Copy@UtagCONNECTDATA@@@ATL@@VCComSingleThreadModel@6@@ATL@@@ATL@@UAE@XZ 10004057 f i Biometrics.obj
 0001:0000307a       ??1?$CComObject@VCOPOSBiometrics@@@ATL@@UAE@XZ 1000407a f i Biometrics.obj
 0001:00003138       ??1?$CComObjectCached@VCComClassFactory@ATL@@@ATL@@UAE@XZ 10004138 f i Biometrics.obj
 0001:0000314e       ??1?$CComObjectRootEx@VCComMultiThreadModel@ATL@@@ATL@@QAE@XZ 1000414e f i Biometrics.obj
 0001:00003163       ??1CRegObject@ATL@@UAE@XZ  10004163 f i Biometrics.obj
 0001:00003183       ??4?$CComPtr@UIOleClientSite@@@ATL@@QAEPAUIOleClientSite@@PAU2@@Z 10004183 f i Biometrics.obj
 0001:00003183       ??4?$CComPtr@UIAdviseSink@@@ATL@@QAEPAUIAdviseSink@@PAU2@@Z 10004183 f i Biometrics.obj
 0001:00003183       ??4?$CComPtr@UIUnknown@@@ATL@@QAEPAUIUnknown@@PAU2@@Z 10004183 f i Biometrics.obj
 0001:000031b1       ??_E?$CComContainedObject@VCOPOSBiometrics@@@ATL@@UAEPAXI@Z 100041b1 f i Biometrics.obj
 0001:000031b1       ??_G?$CComContainedObject@VCOPOSBiometrics@@@ATL@@UAEPAXI@Z 100041b1 f i Biometrics.obj
 0001:000031d6       ??_E?$CComObject@VCOPOSBiometrics@@@ATL@@UAEPAXI@Z 100041d6 f i Biometrics.obj
 0001:000031d6       ??_G?$CComObject@VCOPOSBiometrics@@@ATL@@UAEPAXI@Z 100041d6 f i Biometrics.obj
 0001:000031fb       ?Add@?$CSimpleArray@GV?$CSimpleArrayEqualHelper@G@ATL@@@ATL@@QAEHABG@Z 100041fb f i Biometrics.obj
 0001:00003275       ?Add@?$CSimpleMap@PA_WPA_WVCExpansionVectorEqualHelper@ATL@@@ATL@@QAEHABQA_W0@Z 10004275 f i Biometrics.obj
 0001:000032ca       ?Add@CComDynamicUnkArray@ATL@@QAEKPAUIUnknown@@@Z 100042ca f i Biometrics.obj
 0001:0000337b       ?Add@CExpansionVector@ATL@@QAEHPB_W0@Z 1000437b f i Biometrics.obj
 0001:00003484       ?AddString@CParseBuffer@CRegParser@ATL@@QAEHPB_W@Z 10004484 f i Biometrics.obj
 0001:000034b9       ?AddTermFunc@CAtlModule@ATL@@QAEJP6GXK@ZK@Z 100044b9 f i Biometrics.obj
 0001:00003525       ?AddValue@CRegParser@ATL@@IAEJAAVCRegKey@2@PB_WPA_W@Z 10004525 f i Biometrics.obj
 0001:0000383f       ?Allocate@?$CAtlSafeAllocBufferManager@VCCRTAllocator@ATL@@@_ATL_SAFE_ALLOCA_IMPL@ATL@@QAEPAXK@Z 1000483f f i Biometrics.obj
 0001:0000386c       ?Allocate@?$CTempBuffer@E$0BAA@VCCRTAllocator@ATL@@@ATL@@QAEPAEI@Z 1000486c f i Biometrics.obj
 0001:0000389b       ?Allocate@?$CTempBuffer@_W$0BAA@VCCRTAllocator@ATL@@@ATL@@QAEPA_WI@Z 1000489b f i Biometrics.obj
 0001:000038ca       ?Allocate@?$CTempBuffer@_W$0EAA@VCCRTAllocator@ATL@@@ATL@@QAEPA_WI@Z 100048ca f i Biometrics.obj
 0001:000038f9       ?AllocateHeap@?$CTempBuffer@_W$0EAA@VCCRTAllocator@ATL@@@ATL@@AAEXI@Z 100048f9 f i Biometrics.obj
 0001:000038f9       ?AllocateHeap@?$CTempBuffer@E$0BAA@VCCRTAllocator@ATL@@@ATL@@AAEXI@Z 100048f9 f i Biometrics.obj
 0001:000038f9       ?AllocateHeap@?$CTempBuffer@_W$0BAA@VCCRTAllocator@ATL@@@ATL@@AAEXI@Z 100048f9 f i Biometrics.obj
 0001:0000391e       ?Append@CParseBuffer@CRegParser@ATL@@QAEHPB_WH@Z 1000491e f i Biometrics.obj
 0001:000039aa       ?AtlCoTaskMemCAlloc@ATL@@YAPAXKK@Z 100049aa f i Biometrics.obj
 0001:000039d7       ?AtlCoTaskMemRecalloc@ATL@@YAPAXPAXKK@Z 100049d7 f i Biometrics.obj
 0001:00003a07       ?AtlComModuleGetClassObject@ATL@@YGJPAU_ATL_COM_MODULE70@1@ABU_GUID@@1PAPAX@Z 10004a07 f i Biometrics.obj
 0001:00003afc       ?AtlComModuleRegisterServer@ATL@@YGJPAU_ATL_COM_MODULE70@1@HPBU_GUID@@@Z 10004afc f i Biometrics.obj
 0001:00003b84       ?AtlComModuleUnregisterServer@ATL@@YGJPAU_ATL_COM_MODULE70@1@HPBU_GUID@@@Z 10004b84 f i Biometrics.obj
 0001:00003c0c       ?AtlComQIPtrAssign2@ATL@@YAXPAPAUIUnknown@@PAU2@ABU_GUID@@@Z 10004c0c f i Biometrics.obj
 0001:00003c3b       ?AtlCreateTargetDC@ATL@@YGPAUHDC__@@PAU2@PAUtagDVTARGETDEVICE@@@Z 10004c3b f i Biometrics.obj
 0001:00003ca4       ?AtlCrtErrorCheck@ATL@@YAHH@Z 10004ca4 f i Biometrics.obj
 0001:00003cdf       ?AtlHiMetricToPixel@ATL@@YGXPBUtagSIZE@@PAU2@@Z 10004cdf f i Biometrics.obj
 0001:00003d54       ?AtlHresultFromLastError@ATL@@YAJXZ 10004d54 f i Biometrics.obj
 0001:00003d6b       ?AtlHresultFromWin32@ATL@@YAJK@Z 10004d6b f i Biometrics.obj
 0001:00003d80       ?AtlInternalOleLoadFromStream@ATL@@YAJPAUIStream@@ABU_GUID@@PAPAXTClassesAllowedInStream@1@K@Z 10004d80 f i Biometrics.obj
 0001:00003ea9       ?AtlInternalQueryInterface@ATL@@YGJPAXPBU_ATL_INTMAP_ENTRY@1@ABU_GUID@@PAPAX@Z 10004ea9 f i Biometrics.obj
 0001:00003f4c       ?AtlLoadTypeLib@ATL@@YGJPAUHINSTANCE__@@PB_WPAPA_WPAPAUITypeLib@@@Z 10004f4c f i Biometrics.obj
 0001:0000412a       ?AtlRegisterClassCategoriesHelper@ATL@@YGJABU_GUID@@PBU_ATL_CATMAP_ENTRY@1@H@Z 1000512a f i Biometrics.obj
 0001:00004426       ?AtlRegisterTypeLib@ATL@@YGJPAUHINSTANCE__@@PB_W@Z 10005426 f i Biometrics.obj
 0001:000045ae       ?AtlThrowImpl@ATL@@YGXJ@Z  100055ae f i Biometrics.obj
 0001:000045cc       ?AtlUnRegisterTypeLib@ATL@@YGJPAUHINSTANCE__@@PB_W@Z 100055cc f i Biometrics.obj
 0001:00004677       ?AtlWinModuleAddCreateWndData@ATL@@YGXPAU_ATL_WIN_MODULE70@1@PAU_AtlCreateWndData@1@PAX@Z 10005677 f i Biometrics.obj
 0001:000046cb       ?AtlWinModuleExtractCreateWndData@ATL@@YGPAXPAU_ATL_WIN_MODULE70@1@@Z 100056cb f i Biometrics.obj
 0001:0000472f       ?AtlWinModuleRegisterClassExW@ATL@@YGGPAU_ATL_WIN_MODULE70@1@PBUtagWNDCLASSEXW@@@Z 1000572f f i Biometrics.obj
 0001:0000476e       ?CanForceRemoveKey@CRegParser@ATL@@IAEHPB_W@Z 1000576e f i Biometrics.obj
 0001:0000479d       ?ChToByte@CRegParser@ATL@@KAE_W@Z 1000579d f i Biometrics.obj
 0001:00004825       ?Cleanup@CComTypeInfoHolder@ATL@@SGXK@Z 10005825 f i Biometrics.obj
 0001:00004858       ?ClearReplacements@CExpansionVector@ATL@@QAEJXZ 10005858 f i Biometrics.obj
 0001:00004895       ?Close@CRegKey@ATL@@QAEJXZ 10005895 f i Biometrics.obj
 0001:000048af       ?CreateInstance@?$CComCreator@V?$CComAggObject@VCOPOSBiometrics@@@ATL@@@ATL@@SGJPAXABU_GUID@@PAPAX@Z 100058af f i Biometrics.obj
 0001:00004924       ?CreateInstance@?$CComCreator@V?$CComObject@VCOPOSBiometrics@@@ATL@@@ATL@@SGJPAXABU_GUID@@PAPAX@Z 10005924 f i Biometrics.obj
 0001:000049ad       ?CreateInstance@?$CComObject@V?$CComEnum@UIEnumConnectionPoints@@$1?_GUID_b196b285_bab4_101a_b69c_00aa00341d07@@3U__s_GUID@@BPAUIConnectionPoint@@V?$_CopyInterface@UIConnectionPoint@@@ATL@@VCComSingleThreadModel@6@@ATL@@@ATL@@SGJPAPAV12@@Z 100059ad f i Biometrics.obj
 0001:000049f7       ?CreateInstance@?$CComObject@V?$CComEnum@UIEnumConnections@@$1?_GUID_b196b287_bab4_101a_b69c_00aa00341d07@@3U__s_GUID@@BUtagCONNECTDATA@@V?$_Copy@UtagCONNECTDATA@@@ATL@@VCComSingleThreadModel@6@@ATL@@@ATL@@SGJPAPAV12@@Z 100059f7 f i Biometrics.obj
 0001:00004a41       ?DefaultReflectionHandler@?$CWindowImplRoot@VCWindow@ATL@@@ATL@@SAHPAUHWND__@@IIJAAJ@Z 10005a41 f i Biometrics.obj
 0001:00004ae1       ?DeleteSubKey@CRegKey@ATL@@QAEJPB_W@Z 10005ae1 f i Biometrics.obj
 0001:00004b5a       ?DoEvent@COPOSBiometrics@@IAEXIIJ@Z 10005b5a f i Biometrics.obj
 0001:00004bda       ?DoVerbHide@?$IOleObjectImpl@VCOPOSBiometrics@@@ATL@@QAEJPBUtagRECT@@PAUHWND__@@@Z 10005bda f i Biometrics.obj
 0001:00004c10       ?DoVerbInPlaceActivate@?$IOleObjectImpl@VCOPOSBiometrics@@@ATL@@QAEJPBUtagRECT@@PAUHWND__@@@Z 10005c10 f i Biometrics.obj
 0001:00004c43       ?DoVerbPrimary@?$IOleObjectImpl@VCOPOSBiometrics@@@ATL@@QAEJPBUtagRECT@@PAUHWND__@@@Z 10005c43 f i Biometrics.obj
 0001:00004ccf       ?DoVerbProperties@CComControlBase@ATL@@QAEJPBUtagRECT@@PAUHWND__@@@Z 10005ccf f i Biometrics.obj
 0001:00004e4e       ?DoVerbUIActivate@?$IOleObjectImpl@VCOPOSBiometrics@@@ATL@@QAEJPBUtagRECT@@PAUHWND__@@@Z 10005e4e f i Biometrics.obj
 0001:00004e8b       ?DoesVerbActivate@CComControlBase@ATL@@QAEHJ@Z 10005e8b f i Biometrics.obj
 0001:00004eaf       ?DoesVerbUIActivate@CComControlBase@ATL@@QAEHJ@Z 10005eaf f i Biometrics.obj
 0001:00004ee4       ?EndOfVar@CRegParser@ATL@@IAEHXZ 10005ee4 f i Biometrics.obj
 0001:00004f04       ?EscapeSingleQuote@CAtlModule@ATL@@SAXPA_WIPB_W@Z 10005f04 f i Biometrics.obj
 0001:00004f53       ?FindKey@?$CSimpleMap@PA_WPA_WVCExpansionVectorEqualHelper@ATL@@@ATL@@QBEHABQA_W@Z 10005f53 f i Biometrics.obj
 0001:00004f8a       ?FireTheEvent@?$CProxy_IOPOSEvents@VCOPOSBiometrics@@@@IAEXPAVOposVariant@@IAAJPB_WJ@Z 10005f8a f i Biometrics.obj
 0001:0000501c       ?FireViewChange@CComControlBase@ATL@@QAEJXZ 1000601c f i Biometrics.obj
 0001:00005065       ?Fire_DataEvent@?$CProxy_IOPOSEvents@VCOPOSBiometrics@@@@QAEXJ@Z 10006065 f i Biometrics.obj
 0001:000050fb       ?Fire_DirectIOEvent@?$CProxy_IOPOSEvents@VCOPOSBiometrics@@@@QAEXJPAJPAPA_W@Z 100060fb f i Biometrics.obj
 0001:000051e7       ?Fire_ErrorEvent@?$CProxy_IOPOSEvents@VCOPOSBiometrics@@@@QAEXJJJPAJ@Z 100061e7 f i Biometrics.obj
 0001:000052d8       ?Fire_StatusUpdateEvent@?$CProxy_IOPOSEvents@VCOPOSBiometrics@@@@QAEXJ@Z 100062d8 f i Biometrics.obj
 0001:0000536e       ?FreeHeap@?$CTempBuffer@_W$0BAA@VCCRTAllocator@ATL@@@ATL@@AAEXXZ 1000636e f i Biometrics.obj
 0001:0000536e       ?FreeHeap@?$CTempBuffer@E$0BAA@VCCRTAllocator@ATL@@@ATL@@AAEXXZ 1000636e f i Biometrics.obj
 0001:0000536e       ?FreeHeap@?$CTempBuffer@_W$0EAA@VCCRTAllocator@ATL@@@ATL@@AAEXXZ 1000636e f i Biometrics.obj
 0001:00005377       ?GetAmbientLocaleID@CComControlBase@ATL@@QAEJAAK@Z 10006377 f i Biometrics.obj
 0001:000053d3       ?GetAmbientUserMode@CComControlBase@ATL@@QAEJAAH@Z 100063d3 f i Biometrics.obj
 0001:00005443       ?GetAt@CComDynamicUnkArray@ATL@@QAEPAUIUnknown@@H@Z 10006443 f i Biometrics.obj
 0001:0000545f       ?GetClassObject@CComModule@ATL@@QAEJABU_GUID@@0PAPAX@Z 1000645f f i Biometrics.obj
 0001:00005501       ?GetConnMap@COPOSBiometrics@@SAPBU_ATL_CONNMAP_ENTRY@ATL@@PAH@Z 10006501 f i Biometrics.obj
 0001:00005571       ?GetCookie@CComDynamicUnkArray@ATL@@QAGKPAPAUIUnknown@@@Z 10006571 f i Biometrics.obj
 0001:000055a9       ?GetIDsOfNames@CComTypeInfoHolder@ATL@@QAEJABU_GUID@@PAPA_WIKPAJ@Z 100065a9 f i Biometrics.obj
 0001:000056c9       ?GetKeyAt@?$CSimpleMap@PA_WPA_WVCExpansionVectorEqualHelper@ATL@@@ATL@@QBEAAPA_WH@Z 100066c9 f i Biometrics.obj
 0001:000056ee       ?GetPagesHelper@?$ISpecifyPropertyPagesImpl@VCOPOSBiometrics@@@ATL@@IAEJPAUtagCAUUID@@PBUATL_PROPMAP_ENTRY@2@@Z 100066ee f i Biometrics.obj
 0001:00005815       ?GetProperty@?$CComPtr@UIDispatch@@@ATL@@SAJPAUIDispatch@@JPAUtagVARIANT@@@Z 10006815 f i Biometrics.obj
 0001:00005864       ?GetSizeMax@CComVariant@ATL@@QBEJPAT_ULARGE_INTEGER@@@Z 10006864 f i Biometrics.obj
 0001:00005a26       ?GetTI@CComTypeInfoHolder@ATL@@QAEJK@Z 10006a26 f i Biometrics.obj
 0001:00005c06       ?GetTI@CComTypeInfoHolder@ATL@@QAEJKPAPAUITypeInfo@@@Z 10006c06 f i Biometrics.obj
 0001:00005c44       ?GetUnknown@CComDynamicUnkArray@ATL@@QAGPAUIUnknown@@K@Z 10006c44 f i Biometrics.obj
 0001:00005c65       ?GetValueAt@?$CSimpleMap@PA_WPA_WVCExpansionVectorEqualHelper@ATL@@@ATL@@QBEAAPA_WH@Z 10006c65 f i Biometrics.obj
 0001:00005c8b       ?GetZoomInfo@CComControlBase@ATL@@QAEXAAUATL_DRAWINFO@@@Z 10006c8b f i Biometrics.obj
 0001:00005d1e       ?HKeyFromString@CRegParser@ATL@@KAPAUHKEY__@@PA_W@Z 10006d1e f i Biometrics.obj
 0001:00005d4c       ?HasSubKeys@CRegParser@ATL@@IAEHPAUHKEY__@@@Z 10006d4c f i Biometrics.obj
 0001:00005d81       ?IDataObject_GetData@CComControlBase@ATL@@QAEJPAUtagFORMATETC@@PAUtagSTGMEDIUM@@@Z 10006d81 f i Biometrics.obj
 0001:00005f23       ?IOleInPlaceObject_InPlaceDeactivate@CComControlBase@ATL@@QAEJXZ 10006f23 f i Biometrics.obj
 0001:00005faa       ?IOleInPlaceObject_SetObjectRects@CComControlBase@ATL@@QAEJPBUtagRECT@@0@Z 10006faa f i Biometrics.obj
 0001:00006077       ?IOleInPlaceObject_UIDeactivate@CComControlBase@ATL@@QAEJXZ 10007077 f i Biometrics.obj
 0001:00006139       ?IOleObject_Advise@CComControlBase@ATL@@QAEJPAUIAdviseSink@@PAK@Z 10007139 f i Biometrics.obj
 0001:00006163       ?IOleObject_Close@CComControlBase@ATL@@QAEJK@Z 10007163 f i Biometrics.obj
 0001:00006247       ?IOleObject_GetClientSite@CComControlBase@ATL@@QAEJPAPAUIOleClientSite@@@Z 10007247 f i Biometrics.obj
 0001:00006270       ?IOleObject_SetClientSite@CComControlBase@ATL@@QAEJPAUIOleClientSite@@@Z 10007270 f i Biometrics.obj
 0001:000062af       ?IOleObject_SetExtent@CComControlBase@ATL@@QAEJKPAUtagSIZE@@@Z 100072af f i Biometrics.obj
 0001:00006361       ?IPSI_GetIPersistStreamInit@?$IPersistStorageImpl@VCOPOSBiometrics@@@ATL@@AAEPAUIPersistStreamInit@@XZ 10007361 f i Biometrics.obj
 0001:00006409       ?IPersistStreamInit_Load@?$IPersistStreamInitImpl@VCOPOSBiometrics@@@ATL@@QAEJPAUIStream@@PBUATL_PROPMAP_ENTRY@2@@Z 10007409 f i Biometrics.obj
 0001:0000667f       ?IPersistStreamInit_Save@?$IPersistStreamInitImpl@VCOPOSBiometrics@@@ATL@@QAEJPAUIStream@@HPBUATL_PROPMAP_ENTRY@2@@Z 1000767f f i Biometrics.obj
 0001:0000686e       ?IQuickActivate_QuickActivate@CComControlBase@ATL@@QAEJPAUtagQACONTAINER@@PAUtagQACONTROL@@@Z 1000786e f i Biometrics.obj
 0001:00006ab0       ?IViewObject_Draw@CComControlBase@ATL@@QAEJKJPAXPAUtagDVTARGETDEVICE@@PAUHDC__@@2PBU_RECTL@@3@Z 10007ab0 f i Biometrics.obj
 0001:00006b58       ?InPlaceActivate@CComControlBase@ATL@@QAEJJPBUtagRECT@@@Z 10007b58 f i Biometrics.obj
 0001:00006dca       ?Init@?$CComEnumImpl@UIEnumConnectionPoints@@$1?_GUID_b196b285_bab4_101a_b69c_00aa00341d07@@3U__s_GUID@@BPAUIConnectionPoint@@V?$_CopyInterface@UIConnectionPoint@@@ATL@@@ATL@@QAEJPAPAUIConnectionPoint@@0PAUIUnknown@@W4CComEnumFlags@2@@Z 10007dca f i Biometrics.obj
 0001:00006ea6       ?Init@?$CComEnumImpl@UIEnumConnections@@$1?_GUID_b196b287_bab4_101a_b69c_00aa00341d07@@3U__s_GUID@@BUtagCONNECTDATA@@V?$_Copy@UtagCONNECTDATA@@@ATL@@@ATL@@QAEJPAUtagCONNECTDATA@@0PAUIUnknown@@W4CComEnumFlags@2@@Z 10007ea6 f i Biometrics.obj
 0001:00006f82       ?Init@CComModule@ATL@@QAEJPAU_ATL_OBJMAP_ENTRY30@2@PAUHINSTANCE__@@PBU_GUID@@@Z 10007f82 f i Biometrics.obj
 0001:00006fe1       ?Init@CDynamicStdCallThunk2@ATL@@QAEHKPAX@Z 10007fe1 f i Biometrics.obj
 0001:0000700c       ?InlineIsEqualUnknown@ATL@@YGHABU_GUID@@@Z 1000800c f i Biometrics.obj
 0001:00007034       ?InternalSetAtIndex@?$CSimpleMap@PA_WPA_WVCExpansionVectorEqualHelper@ATL@@@ATL@@QAEXHABQA_W0@Z 10008034 f i Biometrics.obj
 0001:0000705e       ?Invoke@CComTypeInfoHolder@ATL@@QAEJPAUIDispatch@@JABU_GUID@@KGPAUtagDISPPARAMS@@PAUtagVARIANT@@PAUtagEXCEPINFO@@PAI@Z 1000805e f i Biometrics.obj
 0001:0000709f       ?IsEqualObject@?$CComPtrBase@UIOleClientSite@@@ATL@@QAE_NPAUIUnknown@@@Z 1000809f f i Biometrics.obj
 0001:0000709f       ?IsEqualObject@?$CComPtrBase@UITypeInfo@@@ATL@@QAE_NPAUIUnknown@@@Z 1000809f f i Biometrics.obj
 0001:0000710b       ?IsSpace@CRegParser@ATL@@IAEH_W@Z 1000810b f i Biometrics.obj
 0001:00007131       ?LoadNameCache@CComTypeInfoHolder@ATL@@QAEJPAUITypeInfo@@@Z 10008131 f i Biometrics.obj
 0001:00007266       ?Lookup@?$CSimpleMap@PA_WPA_WVCExpansionVectorEqualHelper@ATL@@@ATL@@QBEPA_WABQA_W@Z 10008266 f i Biometrics.obj
 0001:0000728c       ?NextToken@CRegParser@ATL@@IAEJPA_W@Z 1000828c f i Biometrics.obj
 0001:000073bb       ?OnKillFocus@CComControlBase@ATL@@QAEJIIJAAH@Z 100083bb f i Biometrics.obj
 0001:00007416       ?OnMouseActivate@CComControlBase@ATL@@QAEJIIJAAH@Z 10008416 f i Biometrics.obj
 0001:00007484       ?OnPaint@CComControlBase@ATL@@QAEJIIJAAH@Z 10008484 f i Biometrics.obj
 0001:0000753b       ?OnSetFocus@CComControlBase@ATL@@QAEJIIJAAH@Z 1000853b f i Biometrics.obj
 0001:000075c6       ?Open@CRegKey@ATL@@QAEJPAUHKEY__@@PB_WK@Z 100085c6 f i Biometrics.obj
 0001:0000761b       ?PreProcessBuffer@CRegParser@ATL@@QAEJPA_WPAPA_W@Z 1000861b f i Biometrics.obj
 0001:0000788b       ?ProcessWindowMessage@?$CComControl@VCOPOSBiometrics@@V?$CWindowImpl@VCOPOSBiometrics@@VCWindow@ATL@@V?$CWinTraits@$0FGAAAAAA@$0A@@3@@ATL@@@ATL@@UAEHPAUHWND__@@IIJAAJK@Z 1000888b f i Biometrics.obj
 0001:00007933       ?ReadFromStream@CComBSTR@ATL@@QAEJPAUIStream@@@Z 10008933 f i Biometrics.obj
 0001:00007a56       ?ReadFromStream@CComVariant@ATL@@QAEJPAUIStream@@GTClassesAllowedInStream@2@K@Z 10008a56 f i Biometrics.obj
 0001:00007be0       ?RecurseDeleteKey@CRegKey@ATL@@QAEJPB_W@Z 10008be0 f i Biometrics.obj
 0001:00007cce       ?RegCreateKeyExW@CAtlTransactionManager@ATL@@QAEJPAUHKEY__@@PB_WKPA_WKKQAU_SECURITY_ATTRIBUTES@@PAPAU3@PAK@Z 10008cce f i Biometrics.obj
 0001:00007d31       ?RegDeleteKeyW@CAtlTransactionManager@ATL@@QAEJPAUHKEY__@@PB_W@Z 10008d31 f i Biometrics.obj
 0001:00007d83       ?RegOpenKeyExW@CAtlTransactionManager@ATL@@QAEJPAUHKEY__@@PB_WKKPAPAU3@@Z 10008d83 f i Biometrics.obj
 0001:00007dda       ?Register@_ATL_WNDCLASSINFOW@ATL@@QAEGPAP6GJPAUHWND__@@IIJ@Z@Z 10008dda f i Biometrics.obj
 0001:00007dfa       ?RegisterBuffer@CRegParser@ATL@@QAEJPA_WH@Z 10008dfa f i Biometrics.obj
 0001:00007f41       ?RegisterFromResource@CRegObject@ATL@@IAEJPB_W00H@Z 10008f41 f i Biometrics.obj
 0001:00008077       ?RegisterServer@?$CAtlModuleT@VCComModule@ATL@@@ATL@@QAEJHPBU_GUID@@@Z 10009077 f i Biometrics.obj
 0001:000080a5       ?RegisterServer@CComModule@ATL@@QAEJHPBU_GUID@@@Z 100090a5 f i Biometrics.obj
 0001:00008116       ?RegisterSubkeys@CRegParser@ATL@@IAEJPA_WPAUHKEY__@@HH@Z 10009116 f i Biometrics.obj
 0001:00008772       ?Remove@CComDynamicUnkArray@ATL@@QAEHK@Z 10009772 f i Biometrics.obj
 0001:0000879b       ?RemoveAll@?$CSimpleMap@PA_WPA_WVCExpansionVectorEqualHelper@ATL@@@ATL@@QAEXXZ 1000979b f i Biometrics.obj
 0001:000087c7       ?ResourceRegisterSz@CRegObject@ATL@@QAGJPB_W00@Z 100097c7 f i Biometrics.obj
 0001:000087f4       ?ResourceUnregisterSz@CRegObject@ATL@@QAGJPB_W00@Z 100097f4 f i Biometrics.obj
 0001:00008821       ?SendOnDataChange@CComControlBase@ATL@@QAEJK@Z 10009821 f i Biometrics.obj
 0001:0000886e       ?SetControlFocus@CComControlBase@ATL@@QAEHH@Z 1000986e f i Biometrics.obj
 0001:00008909       ?SetMultiStringValue@CRegKey@ATL@@QAEJPB_W0@Z 10009909 f i Biometrics.obj
 0001:00008965       ?SetStringValue@CRegKey@ATL@@QAEJPB_W0K@Z 10009965 f i Biometrics.obj
 0001:000089ae       ?SkipAssignment@CRegParser@ATL@@IAEJPA_W@Z 100099ae f i Biometrics.obj
 0001:00008a1a       ?SkipWhiteSpace@CRegParser@ATL@@IAEXXZ 10009a1a f i Biometrics.obj
 0001:00008a43       ?StrChrW@CRegParser@ATL@@KAPA_WPA_W_W@Z 10009a43 f i Biometrics.obj
 0001:00008a80       ?Term@CAtlModule@ATL@@QAEXXZ 10009a80 f i Biometrics.obj
 0001:00008afd       ?Term@CComModule@ATL@@QAEXXZ 10009afd f i Biometrics.obj
 0001:00008b55       ?UnregisterServer@?$CAtlModuleT@VCComModule@ATL@@@ATL@@QAEJHPBU_GUID@@@Z 10009b55 f i Biometrics.obj
 0001:00008b7b       ?UnregisterServer@CComModule@ATL@@QAEJHPBU_GUID@@@Z 10009b7b f i Biometrics.obj
 0001:00008bec       ?UpdateRegistryFromResource@CAtlModule@ATL@@QAGJIHPAU_ATL_REGMAP_ENTRY@2@@Z 10009bec f i Biometrics.obj
 0001:00008db7       ?UpdateRegistryFromResource@CAtlModule@ATL@@QAGJPB_WHPAU_ATL_REGMAP_ENTRY@2@@Z 10009db7 f i Biometrics.obj
 0001:00008f88       ?VTFromRegType@CRegParser@ATL@@KAHPB_WAAG@Z 10009f88 f i Biometrics.obj
 0001:00008ff5       ?WindowProc@?$CWindowImplBaseT@VCWindow@ATL@@V?$CWinTraits@$0FGAAAAAA@$0A@@2@@ATL@@SGJPAUHWND__@@IIJ@Z 10009ff5 f i Biometrics.obj
 0001:000090e3       ?WriteToStream@CComBSTR@ATL@@QAEJPAUIStream@@@Z 1000a0e3 f i Biometrics.obj
 0001:00009145       ?WriteToStream@CComVariant@ATL@@QAEJPAUIStream@@@Z 1000a145 f i Biometrics.obj
 0001:000092bf       ?WriteToStream@CComVariant@ATL@@QAEJPAUIStream@@G@Z 1000a2bf f i Biometrics.obj
 0001:00009328       ?_AtlInitialConstruct@?$CComObjectRootEx@VCComMultiThreadModel@ATL@@@ATL@@QAEJXZ 1000a328 f i Biometrics.obj
 0001:0000933d       ?_AtlVerifyStackAvailable@_ATL_SAFE_ALLOCA_IMPL@ATL@@YA_NK@Z 1000a33d f i Biometrics.obj
 0001:000093bb       ?atlCreate@?$CWindowImpl@VCOPOSBiometrics@@VCWindow@ATL@@V?$CWinTraits@$0FGAAAAAA@$0A@@3@@ATL@@QAEPAUHWND__@@PAU3@V_U_RECT@2@PB_WKKV_U_MENUorID@2@PAX@Z 1000a3bb f i Biometrics.obj
 0001:00009406       ?atlCreate@?$CWindowImplBaseT@VCWindow@ATL@@V?$CWinTraits@$0FGAAAAAA@$0A@@2@@ATL@@QAEPAUHWND__@@PAU3@V_U_RECT@2@PB_WKKV_U_MENUorID@2@GPAX@Z 1000a406 f i Biometrics.obj
 0001:000094a2       ?copy@?$_Copy@UtagCONNECTDATA@@@ATL@@SAJPAUtagCONNECTDATA@@PBU3@@Z 1000a4a2 f i Biometrics.obj
 0001:000094d8       ?copy@?$_CopyInterface@UIConnectionPoint@@@ATL@@SAJPAPAUIConnectionPoint@@PBQAU3@@Z 1000a4d8 f i Biometrics.obj
 0001:00009506       ?memcpy_s@Checked@ATL@@YAXPAXIPBXI@Z 1000a506 f i Biometrics.obj
 0001:00009525       ?ocscpy_s@@YA_NPA_WIPB_W@Z 1000a525 f i Biometrics.obj
 0001:0000956f       ?wcscpy_s@Checked@ATL@@YAXPA_WIPB_W@Z 1000a56f f i Biometrics.obj
 0001:0000958b       _DllCanUnloadNow@0         1000a58b f   Biometrics.obj
 0001:00009597       _DllGetClassObject@12      1000a597 f   Biometrics.obj
 0001:000095a5       _DllMain@12                1000a5a5 f   Biometrics.obj
 0001:000095e7       _DllRegisterServer@0       1000a5e7 f   Biometrics.obj
 0001:000095f6       _DllUnregisterServer@0     1000a5f6 f   Biometrics.obj
 0001:00009605       _InlineIsEqualGUID         1000a605 f i Biometrics.obj
 0001:00009635       ___local_stdio_printf_options 1000a635 f i Biometrics.obj
 0001:0000963b       __vswprintf_s_l            1000a63b f i Biometrics.obj
 0001:000096e8       _swprintf_s                1000a6e8 f i Biometrics.obj
 0001:00009704       ??0?$CComControl@VCOPOSBiometrics@@V?$CWindowImpl@VCOPOSBiometrics@@VCWindow@ATL@@V?$CWinTraits@$0FGAAAAAA@$0A@@3@@ATL@@@ATL@@QAE@XZ 1000a704 f i BiometricsImpl.obj
 0001:0000972b       ??0?$CProxy_IOPOSEvents@VCOPOSBiometrics@@@@QAE@XZ 1000a72b f i BiometricsImpl.obj
 0001:0000974b       ??0CComControlBase@ATL@@QAE@AAPAUHWND__@@@Z 1000a74b f i BiometricsImpl.obj
 0001:0000979b       ??0COPOSBiometrics@@QAE@XZ 1000a79b f   BiometricsImpl.obj
 0001:000097d1       ??1?$CComControl@VCOPOSBiometrics@@V?$CWindowImpl@VCOPOSBiometrics@@VCWindow@ATL@@V?$CWinTraits@$0FGAAAAAA@$0A@@3@@ATL@@@ATL@@UAE@XZ 1000a7d1 f i BiometricsImpl.obj
 0001:000097ea       ??1?$IConnectionPointImpl@VCOPOSBiometrics@@$1?IID_IPropertyNotifySink@@3U_GUID@@BVCComDynamicUnkArray@ATL@@@ATL@@QAE@XZ 1000a7ea f i BiometricsImpl.obj
 0001:000097ea       ??1?$IConnectionPointImpl@VCOPOSBiometrics@@$1?DIID__IOPOSBiometricsEvents@@3U_GUID@@BVCComDynamicUnkArray@ATL@@@ATL@@QAE@XZ 1000a7ea f i BiometricsImpl.obj
 0001:00009827       ??1CComControlBase@ATL@@UAE@XZ 1000a827 f i BiometricsImpl.obj
 0001:0000988a       ??1COPOSBiometrics@@UAE@XZ 1000a88a f   BiometricsImpl.obj
 0001:000098d2       ?BeginEnrollCapture@COPOSBiometrics@@UAGJPA_W0PAJ@Z 1000a8d2 f   BiometricsImpl.obj
 0001:00009952       ?BeginVerifyCapture@COPOSBiometrics@@UAGJPAJ@Z 1000a952 f   BiometricsImpl.obj
 0001:0000996d       ?CheckHealth@COPOSBiometrics@@UAGJJPAJ@Z 1000a96d f   BiometricsImpl.obj
 0001:000099bc       ?ClaimDevice@COPOSBiometrics@@UAGJJPAJ@Z 1000a9bc f   BiometricsImpl.obj
 0001:00009a31       ?ClearInput@COPOSBiometrics@@UAGJPAJ@Z 1000aa31 f   BiometricsImpl.obj
 0001:00009a4c       ?ClearInputProperties@COPOSBiometrics@@UAGJPAJ@Z 1000aa4c f   BiometricsImpl.obj
 0001:00009a67       ?Close@COPOSBiometrics@@UAGJPAJ@Z 1000aa67 f   BiometricsImpl.obj
 0001:00009ad5       ?CompareFirmwareVersion@COPOSBiometrics@@UAGJPA_WPAJ1@Z 1000aad5 f   BiometricsImpl.obj
 0001:00009b55       ?DirectIO@COPOSBiometrics@@UAGJJPAJPAPA_W0@Z 1000ab55 f   BiometricsImpl.obj
 0001:00009c03       ?DoInvoke@COPOSBiometrics@@IAEJJPAVOposVariant@@IHPAJ_N@Z 1000ac03 f   BiometricsImpl.obj
 0001:00009cdf       ?EndCapture@COPOSBiometrics@@UAGJPAJ@Z 1000acdf f   BiometricsImpl.obj
 0001:00009cfa       ?EventClose@COPOSBiometrics@@IAEXXZ 1000acfa f i BiometricsImpl.obj
 0001:00009d2d       ?EventInit@COPOSBiometrics@@IAEJXZ 1000ad2d f i BiometricsImpl.obj
 0001:00009e01       ?EventUninit@COPOSBiometrics@@IAEXXZ 1000ae01 f i BiometricsImpl.obj
 0001:00009e53       ?EventWindowProc@COPOSBiometrics@@IAGJIIJ@Z 1000ae53 f i BiometricsImpl.obj
 0001:00009f27       ?FinalConstruct@COPOSBiometrics@@QAEJXZ 1000af27 f   BiometricsImpl.obj
 0001:00009f60       ?FireEventCleanup@COPOSBiometrics@@IAEXXZ 1000af60 f i BiometricsImpl.obj
 0001:00009f76       ?FireEventSetup@COPOSBiometrics@@IAE_NXZ 1000af76 f i BiometricsImpl.obj
 0001:00009faa       ?FreezeEvents@COPOSBiometrics@@MAGJH@Z 1000afaa f   BiometricsImpl.obj
 0001:0000a003       ?GetOposProp@COPOSBiometrics@@IAEJJPAFJ@Z 1000b003 f   BiometricsImpl.obj
 0001:0000a026       ?GetOposProp@COPOSBiometrics@@IAEJJPAJJ@Z 1000b026 f   BiometricsImpl.obj
 0001:0000a0f5       ?GetOposProp@COPOSBiometrics@@IAEJJPAPA_WJ@Z 1000b0f5 f   BiometricsImpl.obj
 0001:0000a1d1       ?Identify@COPOSBiometrics@@UAGJJJFUtagVARIANT@@PAU2@JPAJ@Z 1000b1d1 f   BiometricsImpl.obj
 0001:0000a2de       ?IdentifyMatch@COPOSBiometrics@@UAGJJJFPA_WUtagVARIANT@@PAU2@PAJ@Z 1000b2de f   BiometricsImpl.obj
 0001:0000a401       ?OnDraw@COPOSBiometrics@@MAEJAAUATL_DRAWINFO@@@Z 1000b401 f   BiometricsImpl.obj
 0001:0000a4a1       ?Open@COPOSBiometrics@@UAGJPA_WPAJ@Z 1000b4a1 f   BiometricsImpl.obj
 0001:0000acdc       ?ProcessPrematchData@COPOSBiometrics@@UAGJPA_W0PAPA_WPAJ@Z 1000bcdc f   BiometricsImpl.obj
 0001:0000ad94       ?ReleaseDevice@COPOSBiometrics@@UAGJPAJ@Z 1000bd94 f   BiometricsImpl.obj
 0001:0000ade3       ?ResetStatistics@COPOSBiometrics@@UAGJPA_WPAJ@Z 1000bde3 f   BiometricsImpl.obj
 0001:0000ae3a       ?RetrieveStatistics@COPOSBiometrics@@UAGJPAPA_WPAJ@Z 1000be3a f   BiometricsImpl.obj
 0001:0000ae91       ?SOProcessID@COPOSBiometrics@@UAGJPAJ@Z 1000be91 f   BiometricsImpl.obj
 0001:0000aea5       ?SetCOFreezeEvents@COPOSBiometrics@@IAEXF@Z 1000bea5 f   BiometricsImpl.obj
 0001:0000af45       ?SetOposProp@COPOSBiometrics@@IAEJJJJ@Z 1000bf45 f   BiometricsImpl.obj
 0001:0000b03c       ?UpdateFirmware@COPOSBiometrics@@UAGJPA_WPAJ@Z 1000c03c f   BiometricsImpl.obj
 0001:0000b093       ?UpdateStatistics@COPOSBiometrics@@UAGJPA_WPAJ@Z 1000c093 f   BiometricsImpl.obj
 0001:0000b0ea       ?Verify@COPOSBiometrics@@UAGJJJFPA_WPAPA_WPAFPAJ31J3@Z 1000c0ea f   BiometricsImpl.obj
 0001:0000b261       ?VerifyMatch@COPOSBiometrics@@UAGJJJFPA_W0PAPA_WPAFPAJ313@Z 1000c261 f   BiometricsImpl.obj
 0001:0000b3eb       ?get_Algorithm@COPOSBiometrics@@UAGJPAJ@Z 1000c3eb f   BiometricsImpl.obj
 0001:0000b404       ?get_AlgorithmList@COPOSBiometrics@@UAGJPAPA_W@Z 1000c404 f   BiometricsImpl.obj
 0001:0000b41d       ?get_AutoDisable@COPOSBiometrics@@UAGJPAF@Z 1000c41d f   BiometricsImpl.obj
 0001:0000b433       ?get_BIR@COPOSBiometrics@@UAGJPAPA_W@Z 1000c433 f   BiometricsImpl.obj
 0001:0000b44c       ?get_BinaryConversion@COPOSBiometrics@@UAGJPAJ@Z 1000c44c f   BiometricsImpl.obj
 0001:0000b462       ?get_CapCompareFirmwareVersion@COPOSBiometrics@@UAGJPAF@Z 1000c462 f   BiometricsImpl.obj
 0001:0000b47b       ?get_CapPowerReporting@COPOSBiometrics@@UAGJPAJ@Z 1000c47b f   BiometricsImpl.obj
 0001:0000b494       ?get_CapPrematchData@COPOSBiometrics@@UAGJPAF@Z 1000c494 f   BiometricsImpl.obj
 0001:0000b4ad       ?get_CapRawSensorData@COPOSBiometrics@@UAGJPAF@Z 1000c4ad f   BiometricsImpl.obj
 0001:0000b4c6       ?get_CapRealTimeData@COPOSBiometrics@@UAGJPAF@Z 1000c4c6 f   BiometricsImpl.obj
 0001:0000b4df       ?get_CapSensorColor@COPOSBiometrics@@UAGJPAJ@Z 1000c4df f   BiometricsImpl.obj
 0001:0000b4f8       ?get_CapSensorOrientation@COPOSBiometrics@@UAGJPAJ@Z 1000c4f8 f   BiometricsImpl.obj
 0001:0000b511       ?get_CapSensorType@COPOSBiometrics@@UAGJPAJ@Z 1000c511 f   BiometricsImpl.obj
 0001:0000b52a       ?get_CapStatisticsReporting@COPOSBiometrics@@UAGJPAF@Z 1000c52a f   BiometricsImpl.obj
 0001:0000b543       ?get_CapTemplateAdaptation@COPOSBiometrics@@UAGJPAF@Z 1000c543 f   BiometricsImpl.obj
 0001:0000b55c       ?get_CapUpdateFirmware@COPOSBiometrics@@UAGJPAF@Z 1000c55c f   BiometricsImpl.obj
 0001:0000b575       ?get_CapUpdateStatistics@COPOSBiometrics@@UAGJPAF@Z 1000c575 f   BiometricsImpl.obj
 0001:0000b58e       ?get_CheckHealthText@COPOSBiometrics@@UAGJPAPA_W@Z 1000c58e f   BiometricsImpl.obj
 0001:0000b5a7       ?get_Claimed@COPOSBiometrics@@UAGJPAF@Z 1000c5a7 f   BiometricsImpl.obj
 0001:0000b5bd       ?get_ControlObjectDescription@COPOSBiometrics@@UAGJPAPA_W@Z 1000c5bd f   BiometricsImpl.obj
 0001:0000b60b       ?get_ControlObjectVersion@COPOSBiometrics@@UAGJPAJ@Z 1000c60b f   BiometricsImpl.obj
 0001:0000b61e       ?get_DataCount@COPOSBiometrics@@UAGJPAJ@Z 1000c61e f   BiometricsImpl.obj
 0001:0000b634       ?get_DataEventEnabled@COPOSBiometrics@@UAGJPAF@Z 1000c634 f   BiometricsImpl.obj
 0001:0000b64a       ?get_DeviceDescription@COPOSBiometrics@@UAGJPAPA_W@Z 1000c64a f   BiometricsImpl.obj
 0001:0000b663       ?get_DeviceEnabled@COPOSBiometrics@@UAGJPAF@Z 1000c663 f   BiometricsImpl.obj
 0001:0000b679       ?get_DeviceName@COPOSBiometrics@@UAGJPAPA_W@Z 1000c679 f   BiometricsImpl.obj
 0001:0000b692       ?get_FreezeEvents@COPOSBiometrics@@UAGJPAF@Z 1000c692 f   BiometricsImpl.obj
 0001:0000b6a8       ?get_OpenResult@COPOSBiometrics@@UAGJPAJ@Z 1000c6a8 f   BiometricsImpl.obj
 0001:0000b6bf       ?get_PowerNotify@COPOSBiometrics@@UAGJPAJ@Z 1000c6bf f   BiometricsImpl.obj
 0001:0000b6d5       ?get_PowerState@COPOSBiometrics@@UAGJPAJ@Z 1000c6d5 f   BiometricsImpl.obj
 0001:0000b6eb       ?get_RawSensorData@COPOSBiometrics@@UAGJPAPA_W@Z 1000c6eb f   BiometricsImpl.obj
 0001:0000b704       ?get_RealTimeDataEnabled@COPOSBiometrics@@UAGJPAF@Z 1000c704 f   BiometricsImpl.obj
 0001:0000b71d       ?get_ResultCode@COPOSBiometrics@@UAGJPAJ@Z 1000c71d f   BiometricsImpl.obj
 0001:0000b75b       ?get_ResultCodeExtended@COPOSBiometrics@@UAGJPAJ@Z 1000c75b f   BiometricsImpl.obj
 0001:0000b771       ?get_SensorBPP@COPOSBiometrics@@UAGJPAJ@Z 1000c771 f   BiometricsImpl.obj
 0001:0000b78a       ?get_SensorColor@COPOSBiometrics@@UAGJPAJ@Z 1000c78a f   BiometricsImpl.obj
 0001:0000b7a3       ?get_SensorHeight@COPOSBiometrics@@UAGJPAJ@Z 1000c7a3 f   BiometricsImpl.obj
 0001:0000b7bc       ?get_SensorOrientation@COPOSBiometrics@@UAGJPAJ@Z 1000c7bc f   BiometricsImpl.obj
 0001:0000b7d5       ?get_SensorType@COPOSBiometrics@@UAGJPAJ@Z 1000c7d5 f   BiometricsImpl.obj
 0001:0000b7ee       ?get_SensorWidth@COPOSBiometrics@@UAGJPAJ@Z 1000c7ee f   BiometricsImpl.obj
 0001:0000b807       ?get_ServiceObjectDescription@COPOSBiometrics@@UAGJPAPA_W@Z 1000c807 f   BiometricsImpl.obj
 0001:0000b820       ?get_ServiceObjectVersion@COPOSBiometrics@@UAGJPAJ@Z 1000c820 f   BiometricsImpl.obj
 0001:0000b836       ?get_State@COPOSBiometrics@@UAGJPAJ@Z 1000c836 f   BiometricsImpl.obj
 0001:0000b862       ?put_Algorithm@COPOSBiometrics@@UAGJJ@Z 1000c862 f   BiometricsImpl.obj
 0001:0000b87b       ?put_AutoDisable@COPOSBiometrics@@UAGJF@Z 1000c87b f   BiometricsImpl.obj
 0001:0000b898       ?put_BinaryConversion@COPOSBiometrics@@UAGJJ@Z 1000c898 f   BiometricsImpl.obj
 0001:0000b8ae       ?put_DataEventEnabled@COPOSBiometrics@@UAGJF@Z 1000c8ae f   BiometricsImpl.obj
 0001:0000b8cb       ?put_DeviceEnabled@COPOSBiometrics@@UAGJF@Z 1000c8cb f   BiometricsImpl.obj
 0001:0000b8e8       ?put_FreezeEvents@COPOSBiometrics@@UAGJF@Z 1000c8e8 f   BiometricsImpl.obj
 0001:0000b934       ?put_PowerNotify@COPOSBiometrics@@UAGJJ@Z 1000c934 f   BiometricsImpl.obj
 0001:0000b94a       ?put_RealTimeDataEnabled@COPOSBiometrics@@UAGJF@Z 1000c94a f   BiometricsImpl.obj
 0001:0000b96a       ?put_SensorColor@COPOSBiometrics@@UAGJJ@Z 1000c96a f   BiometricsImpl.obj
 0001:0000b983       ?put_SensorOrientation@COPOSBiometrics@@UAGJJ@Z 1000c983 f   BiometricsImpl.obj
 0001:0000b99c       ?put_SensorType@COPOSBiometrics@@UAGJJ@Z 1000c99c f   BiometricsImpl.obj
 0001:0000b9b5       ?s_EventWindowProc@COPOSBiometrics@@KGJPAUHWND__@@IIJ@Z 1000c9b5 f i BiometricsImpl.obj
 0001:0000ba07       ??_U@YAPAXI@Z              1000ca07 f   LIBCMT:new_array.obj
 0001:0000ba10       ??3@YAXPAXI@Z              1000ca10 f   LIBCMT:delete_scalar_size.obj
 0001:0000ba1e       ??_V@YAXPAX@Z              1000ca1e f   LIBCMT:delete_array.obj
 0001:0000ba23       ??_V@YAXPAXI@Z             1000ca23 f   LIBCMT:delete_array_size.obj
 0001:0000ba75       ___scrt_acquire_startup_lock 1000ca75 f   LIBCMT:utility.obj
 0001:0000baa7       ___scrt_dllmain_after_initialize_c 1000caa7 f   LIBCMT:utility.obj
 0001:0000bad2       ___scrt_dllmain_before_initialize_c 1000cad2 f   LIBCMT:utility.obj
 0001:0000bae0       ___scrt_dllmain_crt_thread_attach 1000cae0 f   LIBCMT:utility.obj
 0001:0000baff       ___scrt_dllmain_crt_thread_detach 1000caff f   LIBCMT:utility.obj
 0001:0000bb0c       ___scrt_dllmain_exception_filter 1000cb0c f   LIBCMT:utility.obj
 0001:0000bb40       ___scrt_dllmain_uninitialize_c 1000cb40 f   LIBCMT:utility.obj
 0001:0000bb63       ___scrt_dllmain_uninitialize_critical 1000cb63 f   LIBCMT:utility.obj
 0001:0000bb70       ___scrt_initialize_crt     1000cb70 f   LIBCMT:utility.obj
 0001:0000bba9       ___scrt_initialize_onexit_tables 1000cba9 f   LIBCMT:utility.obj
 0001:0000bc30       ___scrt_is_nonwritable_in_current_image 1000cc30 f   LIBCMT:utility.obj
 0001:0000bcc4       ___scrt_release_startup_lock 1000ccc4 f   LIBCMT:utility.obj
 0001:0000bce1       ___scrt_uninitialize_crt   1000cce1 f   LIBCMT:utility.obj
 0001:0000bd09       __onexit                   1000cd09 f   LIBCMT:utility.obj
 0001:0000bd36       _atexit                    1000cd36 f   LIBCMT:utility.obj
 0001:0000bd4b       ??3@YAXPAX@Z               1000cd4b f   LIBCMT:delete_scalar.obj
 0001:0000be15       __Init_thread_footer       1000ce15 f   LIBCMT:thread_safe_statics.obj
 0001:0000be5f       __Init_thread_header       1000ce5f f   LIBCMT:thread_safe_statics.obj
 0001:0000beb1       __Init_thread_notify       1000ceb1 f   LIBCMT:thread_safe_statics.obj
 0001:0000bee7       __Init_thread_wait         1000cee7 f   LIBCMT:thread_safe_statics.obj
 0001:0000bf35       ___raise_securityfailure   1000cf35 f   LIBCMT:gs_report.obj
 0001:0000bf5d       ___report_gsfailure        1000cf5d f   LIBCMT:gs_report.obj
 0001:0000c057       ___report_rangecheckfailure 1000d057 f   LIBCMT:gs_report.obj
 0001:0000c063       ___report_securityfailure  1000d063 f   LIBCMT:gs_report.obj
 0001:0000c132       ??2@YAPAXIABUnothrow_t@std@@@Z 1000d132 f   LIBCMT:new_scalar_nothrow.obj
 0001:0000c187       ??_U@YAPAXIABUnothrow_t@std@@@Z 1000d187 f   LIBCMT:new_array_nothrow.obj
 0001:0000c190       @__security_check_cookie@4 1000d190 f   LIBCMT:secchk.obj
 0001:0000c1a0       __SEH_prolog4_GS           1000d1a0 f   LIBCMT:sehprolg4gs.obj
 0001:0000c1f0       __alloca_probe_16          1000d1f0 f   LIBCMT:alloca16.obj
 0001:0000c206       __alloca_probe_8           1000d206     LIBCMT:alloca16.obj
 0001:0000c220       __chkstk                   1000d220 f   LIBCMT:chkstk.obj
 0001:0000c220       __alloca_probe             1000d220 f   LIBCMT:chkstk.obj
 0001:0000c58b       __DllMainCRTStartup@12     1000d58b f   LIBCMT:dll_dllmain.obj
 0001:0000c5ae       ??2@YAPAXI@Z               1000d5ae f   LIBCMT:new_scalar.obj
 0001:0000c5de       ___isa_available_init      1000d5de f   LIBCMT:cpu_disp.obj
 0001:0000c7b2       ___scrt_is_ucrt_dll_in_use 1000d7b2 f   LIBCMT:ucrt_detection.obj
 0001:0000c7be       ___scrt_fastfail           1000d7be f   LIBCMT:utility_desktop.obj
 0001:0000c8d9       __crt_debugger_hook        1000d8d9 f   LIBCMT:utility_desktop.obj
 0001:0000c8f0       __SEH_prolog4              1000d8f0 f   LIBCMT:sehprolg4.obj
 0001:0000c935       @_guard_check_icall_nop@4  1000d935 f i LIBCMT:guard_support.obj
 0001:0000c985       ___security_init_cookie    1000d985 f   LIBCMT:gs_support.obj
 0001:0000c9d0       ?__scrt_initialize_type_info@@YAXXZ 1000d9d0 f   LIBCMT:tncleanup.obj
 0001:0000c9dc       ?__scrt_uninitialize_type_info@@YAXXZ 1000d9dc f   LIBCMT:tncleanup.obj
 0001:0000c9e8       ___local_stdio_scanf_options 1000d9e8 f i LIBCMT:default_local_stdio_options.obj
 0001:0000c9ee       ___scrt_initialize_default_local_stdio_options 1000d9ee f   LIBCMT:default_local_stdio_options.obj
 0001:0000ca0b       ___scrt_get_dyn_tls_init_callback 1000da0b f   LIBCMT:dyn_tls_init.obj
 0001:0000ca11       __RTC_Initialize           1000da11 f   LIBCMT:initsect.obj
 0001:0000ca3d       __RTC_Terminate            1000da3d f   LIBCMT:initsect.obj
 0001:0000ca69       ??0bad_alloc@std@@QAE@ABV01@@Z 1000da69 f i LIBCMT:throw_bad_alloc.obj
 0001:0000ca84       ??0bad_alloc@std@@QAE@XZ   1000da84 f i LIBCMT:throw_bad_alloc.obj
 0001:0000ca9c       ??0bad_array_new_length@std@@QAE@ABV01@@Z 1000da9c f i LIBCMT:throw_bad_alloc.obj
 0001:0000cab7       ??0bad_array_new_length@std@@QAE@XZ 1000dab7 f i LIBCMT:throw_bad_alloc.obj
 0001:0000cacf       ??0exception@std@@QAE@ABV01@@Z 1000dacf f i LIBCMT:throw_bad_alloc.obj
 0001:0000cafb       ??1bad_exception@std@@UAE@XZ 1000dafb f i libvcruntime:frame.obj
 0001:0000cafb       ??1bad_array_new_length@std@@UAE@XZ 1000dafb f i LIBCMT:throw_bad_alloc.obj
 0001:0000cafb       ??1bad_alloc@std@@UAE@XZ   1000dafb f i LIBCMT:throw_bad_alloc.obj
 0001:0000cb0c       ??_Ebad_array_new_length@std@@UAEPAXI@Z 1000db0c f i LIBCMT:throw_bad_alloc.obj
 0001:0000cb0c       ??_Eexception@std@@UAEPAXI@Z 1000db0c f i LIBCMT:throw_bad_alloc.obj
 0001:0000cb0c       ??_Gbad_alloc@std@@UAEPAXI@Z 1000db0c f i LIBCMT:throw_bad_alloc.obj
 0001:0000cb0c       ??_Ebad_alloc@std@@UAEPAXI@Z 1000db0c f i LIBCMT:throw_bad_alloc.obj
 0001:0000cb0c       ??_Gbad_exception@std@@UAEPAXI@Z 1000db0c f i libvcruntime:frame.obj
 0001:0000cb0c       ??_Gexception@std@@UAEPAXI@Z 1000db0c f i LIBCMT:throw_bad_alloc.obj
 0001:0000cb0c       ??_Ebad_exception@std@@UAEPAXI@Z 1000db0c f i libvcruntime:frame.obj
 0001:0000cb0c       ??_Gbad_array_new_length@std@@UAEPAXI@Z 1000db0c f i LIBCMT:throw_bad_alloc.obj
 0001:0000cb39       ?__scrt_throw_std_bad_alloc@@YAXXZ 1000db39 f   LIBCMT:throw_bad_alloc.obj
 0001:0000cb56       ?__scrt_throw_std_bad_array_new_length@@YAXXZ 1000db56 f   LIBCMT:throw_bad_alloc.obj
 0001:0000cb73       ?what@exception@std@@UBEPBDXZ 1000db73 f i LIBCMT:throw_bad_alloc.obj
 0001:0000cb80       ??_Etype_info@@UAEPAXI@Z   1000db80 f i LIBCMT:std_type_info_static.obj
 0001:0000cb80       ??_Gtype_info@@UAEPAXI@Z   1000db80 f i LIBCMT:std_type_info_static.obj
 0001:0000cba3       ??0CAtlBaseModule@ATL@@QAE@XZ 1000dba3 f   atls:atlbase.obj
 0001:0000cbf6       ??0_ATL_BASE_MODULE70@ATL@@QAE@XZ 1000dbf6 f i atls:atlbase.obj
 0001:0000cc19       ??1CAtlBaseModule@ATL@@QAE@XZ 1000dc19 f   atls:atlbase.obj
 0001:0000cd06       ?Init@_stdcallthunk@ATL@@QAEHKPAX@Z 1000dd06 f i atls:atlthunk.obj
 0001:0000cd3b       ?__AllocStdCallThunk_cmn@@YAPAXXZ 1000dd3b f   atls:atlthunk.obj
 0001:0000ce01       ?__FreeStdCallThunk_cmn@@YAXPAX@Z 1000de01 f   atls:atlthunk.obj
 0001:0000ce9d       _AtlThunk_AllocateData@0   1000de9d f   atls:atlthunk.obj
 0001:0000cf02       _AtlThunk_DataToCode@4     1000df02 f   atls:atlthunk.obj
 0001:0000cf49       _AtlThunk_FreeData@4       1000df49 f   atls:atlthunk.obj
 0001:0000cf9f       _AtlThunk_InitData@12      1000df9f f   atls:atlthunk.obj
 0001:0000cfee       __get_purecall_handler     1000dfee f   libvcruntime:purevirt.obj
 0001:0000cff5       __purecall                 1000dff5 f   libvcruntime:purevirt.obj
 0001:0000d011       _wcsstr                    1000e011 f   libvcruntime:wcsstr.obj
 0001:0000d2d0       __except_handler4          1000e2d0 f   libvcruntime:chandler4.obj
 0001:0000d42e       _memcmp                    1000e42e f   libvcruntime:memcmp.obj
 0001:0000eab0       _memcpy                    1000fab0 f   libvcruntime:memcpy.obj
 0001:0000eab0       _memmove                   1000fab0 f   libvcruntime:memmove.obj
 0001:0000f030       _memset                    10010030 f   libvcruntime:memset.obj
 0001:0000f18a       ___vcrt_initialize         1001018a f   libvcruntime:initialization.obj
 0001:0000f1a9       ___vcrt_thread_attach      100101a9 f   libvcruntime:initialization.obj
 0001:0000f1b4       ___vcrt_thread_detach      100101b4 f   libvcruntime:initialization.obj
 0001:0000f1bf       ___vcrt_uninitialize       100101bf f   libvcruntime:initialization.obj
 0001:0000f1d6       ___vcrt_uninitialize_critical 100101d6 f   libvcruntime:initialization.obj
 0001:0000f1de       ?GetRangeOfTrysToCheck@__FrameHandler3@@SA?AU?$pair@Viterator@TryBlockMap@__FrameHandler3@@V123@@std@@AAVTryBlockMap@1@HPAXPBU_s_FuncInfo@@H@Z 100101de f   libvcruntime:trnsctrl.obj
 0001:0000f24e       ?_CallCatchBlock2@@YAPAXPAUEHRegistrationNode@@PBU_s_FuncInfo@@PAXHK@Z 1001024e f   libvcruntime:trnsctrl.obj
 0001:0000f2ab       ?_CallSETranslator@@YAHPAUEHExceptionRecord@@PAUEHRegistrationNode@@PAX2PBU_s_FuncInfo@@H1@Z 100102ab f   libvcruntime:trnsctrl.obj
 0001:0000f3a1       ?_JumpToContinuation@@YGXPAXPAUEHRegistrationNode@@@Z 100103a1 f   libvcruntime:trnsctrl.obj
 0001:0000f3d1       ?_UnwindNestedFrames@@YGXPAUEHRegistrationNode@@PAUEHExceptionRecord@@@Z 100103d1 f   libvcruntime:trnsctrl.obj
 0001:0000f424       __CatchGuardHandler        10010424 f   libvcruntime:trnsctrl.obj
 0001:0000f455       __CreateFrameInfo          10010455 f   libvcruntime:trnsctrl.obj
 0001:0000f479       __FindAndUnlinkFrame       10010479 f   libvcruntime:trnsctrl.obj
 0001:0000f4c1       __TranslatorGuardHandler   100104c1 f   libvcruntime:trnsctrl.obj
 0001:0000f55e       ___CxxFrameHandler3        1001055e f   libvcruntime:trnsctrl.obj
 0001:0000f594       ___DestructExceptionObject 10010594 f   libvcruntime:ehhelpers.obj
 0001:0000f635       ?_CallMemberFunction0@@YGXQAX0@Z 10010635 f i libvcruntime:ehhelpers.obj
 0001:0000f69a       __IsExceptionObjectToBeDestroyed 1001069a f   libvcruntime:ehhelpers.obj
 0001:0000f6c0       ___AdjustPointer           100106c0 f   libvcruntime:ehhelpers.obj
 0001:0000f6e5       ___FrameUnwindFilter       100106e5 f   libvcruntime:ehhelpers.obj
 0001:0000f73b       ___std_terminate           1001073b f   libvcruntime:ehhelpers.obj
 0001:0000f740       ___std_type_info_compare   10010740 f   libvcruntime:std_type_info.obj
 0001:0000f77c       ___std_type_info_destroy_list 1001077c f   libvcruntime:std_type_info.obj
 0001:0000f79f       ___std_exception_copy      1001079f f   libvcruntime:std_exception.obj
 0001:0000f802       ___std_exception_destroy   10010802 f   libvcruntime:std_exception.obj
 0001:0000f821       __CxxThrowException@8      10010821 f   libvcruntime:throw.obj
 0001:0000f890       __local_unwind4            10010890 f   libvcruntime:exsup4.obj
 0001:0000f980       @_EH4_CallFilterFunc@8     10010980 f   libvcruntime:exsup4.obj
 0001:0000f9a0       @_EH4_TransferToHandler@8  100109a0 f   libvcruntime:exsup4.obj
 0001:0000f9c0       @_EH4_GlobalUnwind2@8      100109c0 f   libvcruntime:exsup4.obj
 0001:0000f9e0       @_EH4_LocalUnwind@16       100109e0 f   libvcruntime:exsup4.obj
 0001:0000f9f7       ___except_validate_context_record 100109f7 f   libvcruntime:jbcxrval.obj
 0001:0000fa27       ___vcrt_freefls@4          10010a27 f   libvcruntime:per_thread_data.obj
 0001:0000fa43       ___vcrt_freeptd            10010a43 f   libvcruntime:per_thread_data.obj
 0001:0000fa79       ___vcrt_getptd             10010a79 f   libvcruntime:per_thread_data.obj
 0001:0000fa87       ___vcrt_getptd_noexit      10010a87 f   libvcruntime:per_thread_data.obj
 0001:0000fb19       ___vcrt_initialize_ptd     10010b19 f   libvcruntime:per_thread_data.obj
 0001:0000fb4c       ___vcrt_uninitialize_ptd   10010b4c f   libvcruntime:per_thread_data.obj
 0001:0000fb67       ___vcrt_initialize_locks   10010b67 f   libvcruntime:locks.obj
 0001:0000fba3       ___vcrt_uninitialize_locks 10010ba3 f   libvcruntime:locks.obj
 0001:00010304       ??$TypeMatchHelper@V__FrameHandler3@@@@YAHPBU_s_HandlerType@@PBU_s_CatchableType@@PBU_s_ThrowInfo@@@Z 10011304 f i libvcruntime:frame.obj
 0001:00010392       ??$__InternalCxxFrameHandler@V__FrameHandler3@@@@YA?AW4_EXCEPTION_DISPOSITION@@PAUEHExceptionRecord@@PAUEHRegistrationNode@@PAU_CONTEXT@@PAXPBU_s_FuncInfo@@H1E@Z 10011392 f i libvcruntime:frame.obj
 0001:00010494       ??0bad_exception@std@@QAE@ABV01@@Z 10011494 f i libvcruntime:frame.obj
 0001:000104af       ??0bad_exception@std@@QAE@XZ 100114af f i libvcruntime:frame.obj
 0001:000104c7       ??8type_info@@QBE_NABV0@@Z 100114c7 f i libvcruntime:frame.obj
 0001:0001073e       ?FrameUnwindToEmptyState@__FrameHandler3@@SAXPAUEHRegistrationNode@@PAXPBU_s_FuncInfo@@@Z 1001173e f   libvcruntime:frame.obj
 0001:00010756       ?FrameUnwindToState@__FrameHandler3@@SAXPAUEHRegistrationNode@@PAXPBU_s_FuncInfo@@H@Z 10011756 f   libvcruntime:frame.obj
 0001:000108d8       ?_CallMemberFunction1@@YGXQAX00@Z 100118d8 f i libvcruntime:frame.obj
 0001:000108e8       ?_CallMemberFunction2@@YGXQAX00H@Z 100118e8 f i libvcruntime:frame.obj
 0001:000108fb       ?getESTypes@__FrameHandler3@@SAPBU_s_ESTypeList@@PBU_s_FuncInfo@@@Z 100118fb f i libvcruntime:frame.obj
 0001:00010910       __CallSettingFrame@12      10011910 f   libvcruntime:lowhelpr.obj
 0001:00010937       __NLG_Return               10011937     libvcruntime:lowhelpr.obj
 0001:00010960       __NLG_Notify1              10011960 f   libvcruntime:exsup.obj
 0001:00010970       __NLG_Notify               10011970 f   libvcruntime:exsup.obj
 0001:00010987       __NLG_Dispatch             10011987     libvcruntime:exsup.obj
 0001:00010987       __NLG_Dispatch2            10011987     libvcruntime:exsup.obj
 0001:00010990       __NLG_Call                 10011990 f   libvcruntime:exsup.obj
 0001:00010992       __NLG_Return2              10011992     libvcruntime:exsup.obj
 0001:00010a78       ___vcrt_FlsAlloc           10011a78 f   libvcruntime:winapi_downlevel.obj
 0001:00010ab3       ___vcrt_FlsFree            10011ab3 f   libvcruntime:winapi_downlevel.obj
 0001:00010aee       ___vcrt_FlsGetValue        10011aee f   libvcruntime:winapi_downlevel.obj
 0001:00010b29       ___vcrt_FlsSetValue        10011b29 f   libvcruntime:winapi_downlevel.obj
 0001:00010b67       ___vcrt_InitializeCriticalSectionEx 10011b67 f   libvcruntime:winapi_downlevel.obj
 0001:00010bae       _unexpected                10011bae f   libvcruntime:unexpected.obj
 0001:00010bcb       ?GetCurrentState@__FrameHandler3@@SAHPAUEHRegistrationNode@@PAXPBU_s_FuncInfo@@@Z 10011bcb f   libvcruntime:ehstate.obj
 0001:00010be8       ?SetState@__FrameHandler3@@SAXPAUEHRegistrationNode@@PBU_s_FuncInfo@@H@Z 10011be8 f   libvcruntime:ehstate.obj
 0001:00010bf6       _free                      10011bf6 f   libucrt:free.obj
 0001:00010c11       ??0__crt_cached_ptd_host@@QAE@QAU__crt_locale_pointers@@@Z 10011c11 f i libucrt:invalid_parameter.obj
 0001:00010c59       ??1__crt_cached_ptd_host@@QAE@XZ 10011c59 f i libucrt:invalid_parameter.obj
 0001:00010c95       ?check_synchronize_global_state_index@__crt_cached_ptd_host@@AAEIXZ 10011c95 f i libucrt:invalid_parameter.obj
 0001:00010cbe       ?force_synchronize_per_thread_data@__crt_cached_ptd_host@@AAEPAU__acrt_ptd@@XZ 10011cbe f i libucrt:invalid_parameter.obj
 0001:00010d04       ?get_raw_ptd@__crt_cached_ptd_host@@QAEPAU__acrt_ptd@@XZ 10011d04 f i libucrt:invalid_parameter.obj
 0001:00010d21       ___acrt_call_reportfault   10011d21 f   libucrt:invalid_parameter.obj
 0001:00010e5a       ___acrt_initialize_invalid_parameter_handler 10011e5a f   libucrt:invalid_parameter.obj
 0001:00010e69       __invalid_parameter        10011e69 f   libucrt:invalid_parameter.obj
 0001:00010ea0       __invalid_parameter_internal 10011ea0 f   libucrt:invalid_parameter.obj
 0001:00010f1d       __invalid_parameter_noinfo 10011f1d f   libucrt:invalid_parameter.obj
 0001:00010f2d       __invoke_watson            10011f2d f   libucrt:invalid_parameter.obj
 0001:00010f61       ___acrt_errno_from_os_error 10011f61 f   libucrt:errno.obj
 0001:00010fa4       ___acrt_errno_map_os_error 10011fa4 f   libucrt:errno.obj
 0001:00010fc7       ___acrt_errno_map_os_error_ptd 10011fc7 f   libucrt:errno.obj
 0001:00010feb       ___doserrno                10011feb f   libucrt:errno.obj
 0001:00010ffe       __errno                    10011ffe f   libucrt:errno.obj
 0001:00011011       _calloc                    10012011 f   libucrt:calloc.obj
 0001:0001101c       _malloc                    1001201c f   libucrt:malloc.obj
 0001:00011027       __recalloc                 10012027 f   libucrt:recalloc.obj
 0001:00011032       __recalloc_base            10012032 f   libucrt:recalloc.obj
 0001:0001109f       __resetstkoflw             1001209f f   libucrt:resetstk.obj
 0001:000111dc       _wcscat_s                  100121dc f   libucrt:wcscat_s.obj
 0001:000111e7       _wcscpy_s                  100121e7 f   libucrt:wcscpy_s.obj
 0001:00011319       _wcsncpy_s                 10012319 f   libucrt:wcsncpy_s.obj
 0001:00011541       ??$count@D@formatting_buffer@__crt_stdio_output@@QBEIXZ 10012541 f i libucrt:output.obj
 0001:00011559       ??$count@_W@formatting_buffer@__crt_stdio_output@@QBEIXZ 10012559 f i libucrt:output.obj
 0001:00011572       ??$ensure_buffer_is_big_enough@D@formatting_buffer@__crt_stdio_output@@QAE_NIAAV__crt_cached_ptd_host@@@Z 10012572 f i libucrt:output.obj
 0001:000115f3       ??$ensure_buffer_is_big_enough@_W@formatting_buffer@__crt_stdio_output@@QAE_NIAAV__crt_cached_ptd_host@@@Z 100125f3 f i libucrt:output.obj
 0001:00011675       ??$is_overflow_condition@K@__crt_strtox@@YA_NIK@Z 10012675 f i libucrt:output.obj
 0001:000116a6       ??$is_wide_character_specifier@_W@__crt_stdio_output@@YA_N_K_WW4length_modifier@0@@Z 100126a6 f i libucrt:output.obj
 0001:000116f4       ??$parse_integer@KV?$c_string_character_source@_W@__crt_strtox@@$0A@@__crt_strtox@@YAKAAV__crt_cached_ptd_host@@V?$c_string_character_source@_W@0@H_N@Z 100126f4 f i libucrt:output.obj
 0001:00011cc3       ??$scratch_data@D@formatting_buffer@__crt_stdio_output@@QAEPADXZ 10012cc3 f i libucrt:output.obj
 0001:00011ce1       ??$type_case_integer@$07@?$output_processor@_WV?$string_output_adapter@_W@__crt_stdio_output@@V?$format_validation_base@_WV?$string_output_adapter@_W@__crt_stdio_output@@@2@@__crt_stdio_output@@AAE_N_N@Z 10012ce1 f i libucrt:output.obj
 0001:00011e63       ??$type_case_integer@$09@?$output_processor@_WV?$string_output_adapter@_W@__crt_stdio_output@@V?$format_validation_base@_WV?$string_output_adapter@_W@__crt_stdio_output@@@2@@__crt_stdio_output@@AAE_N_N@Z 10012e63 f i libucrt:output.obj
 0001:00011fe5       ??$type_case_integer@$0BA@@?$output_processor@_WV?$string_output_adapter@_W@__crt_stdio_output@@V?$format_validation_base@_WV?$string_output_adapter@_W@__crt_stdio_output@@@2@@__crt_stdio_output@@AAE_N_N@Z 10012fe5 f i libucrt:output.obj
 0001:00012167       ??$type_case_integer_parse_into_buffer@I$07@?$output_processor@_WV?$string_output_adapter@_W@__crt_stdio_output@@V?$format_validation_base@_WV?$string_output_adapter@_W@__crt_stdio_output@@@2@@__crt_stdio_output@@AAEXI_N@Z 10013167 f i libucrt:output.obj
 0001:000121d4       ??$type_case_integer_parse_into_buffer@I$09@?$output_processor@_WV?$string_output_adapter@_W@__crt_stdio_output@@V?$format_validation_base@_WV?$string_output_adapter@_W@__crt_stdio_output@@@2@@__crt_stdio_output@@AAEXI_N@Z 100131d4 f i libucrt:output.obj
 0001:00012263       ??$type_case_integer_parse_into_buffer@I$0BA@@?$output_processor@_WV?$string_output_adapter@_W@__crt_stdio_output@@V?$format_validation_base@_WV?$string_output_adapter@_W@__crt_stdio_output@@@2@@__crt_stdio_output@@AAEXI_N@Z 10013263 f i libucrt:output.obj
 0001:000122f0       ??$type_case_integer_parse_into_buffer@_K$07@?$output_processor@_WV?$string_output_adapter@_W@__crt_stdio_output@@V?$format_validation_base@_WV?$string_output_adapter@_W@__crt_stdio_output@@@2@@__crt_stdio_output@@AAEX_K_N@Z 100132f0 f i libucrt:output.obj
 0001:00012379       ??$type_case_integer_parse_into_buffer@_K$09@?$output_processor@_WV?$string_output_adapter@_W@__crt_stdio_output@@V?$format_validation_base@_WV?$string_output_adapter@_W@__crt_stdio_output@@@2@@__crt_stdio_output@@AAEX_K_N@Z 10013379 f i libucrt:output.obj
 0001:00012428       ??$type_case_integer_parse_into_buffer@_K$0BA@@?$output_processor@_WV?$string_output_adapter@_W@__crt_stdio_output@@V?$format_validation_base@_WV?$string_output_adapter@_W@__crt_stdio_output@@@2@@__crt_stdio_output@@AAEX_K_N@Z 10013428 f i libucrt:output.obj
 0001:000124c3       ??0?$output_adapter_data@_WV?$string_output_adapter@_W@__crt_stdio_output@@@__crt_stdio_output@@IAE@ABV?$string_output_adapter@_W@1@_KQB_WAAV__crt_cached_ptd_host@@QAD@Z 100134c3 f i libucrt:output.obj
 0001:0001252f       ??1formatting_buffer@__crt_stdio_output@@QAE@XZ 1001352f f i libucrt:output.obj
 0001:00012549       ??4?$__crt_unique_heap_ptr@DU__crt_internal_free_policy@@@@QAEAAV0@$$QAV0@@Z 10013549 f i libucrt:output.obj
 0001:0001256d       ?crop_zeroes@__crt_stdio_output@@YAXPADQAU__crt_locale_pointers@@@Z 1001356d f i libucrt:output.obj
 0001:000125cd       ?find_next_state@?$output_processor@_WV?$string_output_adapter@_W@__crt_stdio_output@@V?$format_validation_base@_WV?$string_output_adapter@_W@__crt_stdio_output@@@2@@__crt_stdio_output@@ABE?AW4state@2@_WW432@@Z 100135cd f i libucrt:output.obj
 0001:00012609       ?force_decimal_point@__crt_stdio_output@@YAXPADQAU__crt_locale_pointers@@@Z 10013609 f i libucrt:output.obj
 0001:00012665       ?parse_int_from_format_string@?$output_processor@_WV?$string_output_adapter@_W@__crt_stdio_output@@V?$format_validation_base@_WV?$string_output_adapter@_W@__crt_stdio_output@@@2@@__crt_stdio_output@@AAE_NQAH@Z 10013665 f i libucrt:output.obj
 0001:000126df       ?process@?$output_processor@_WV?$string_output_adapter@_W@__crt_stdio_output@@V?$format_validation_base@_WV?$string_output_adapter@_W@__crt_stdio_output@@@2@@__crt_stdio_output@@QAEHXZ 100136df f i libucrt:output.obj
 0001:0001292f       ?state_case_size@?$output_processor@_WV?$string_output_adapter@_W@__crt_stdio_output@@V?$format_validation_base@_WV?$string_output_adapter@_W@__crt_stdio_output@@@2@@__crt_stdio_output@@AAE_NXZ 1001392f f i libucrt:output.obj
 0001:00012abd       ?state_case_type@?$output_processor@_WV?$string_output_adapter@_W@__crt_stdio_output@@V?$format_validation_base@_WV?$string_output_adapter@_W@__crt_stdio_output@@@2@@__crt_stdio_output@@AAE_NXZ 10013abd f i libucrt:output.obj
 0001:00012ede       ?to_integer_size@__crt_stdio_output@@YAIW4length_modifier@1@@Z 10013ede f i libucrt:output.obj
 0001:00012f32       ?type_case_Z@?$output_processor@_WV?$string_output_adapter@_W@__crt_stdio_output@@V?$format_validation_base@_WV?$string_output_adapter@_W@__crt_stdio_output@@@2@@__crt_stdio_output@@AAE_NXZ 10013f32 f i libucrt:output.obj
 0001:00012f8c       ?type_case_a@?$output_processor@_WV?$string_output_adapter@_W@__crt_stdio_output@@V?$format_validation_base@_WV?$string_output_adapter@_W@__crt_stdio_output@@@2@@__crt_stdio_output@@AAE_NXZ 10013f8c f i libucrt:output.obj
 0001:0001312c       ?type_case_c_tchar@?$output_processor@_WV?$string_output_adapter@_W@__crt_stdio_output@@V?$format_validation_base@_WV?$string_output_adapter@_W@__crt_stdio_output@@@2@@__crt_stdio_output@@AAE_N_W@Z 1001412c f i libucrt:output.obj
 0001:000131d3       ?type_case_n@?$output_processor@_WV?$string_output_adapter@_W@__crt_stdio_output@@V?$format_validation_base@_WV?$string_output_adapter@_W@__crt_stdio_output@@@2@@__crt_stdio_output@@AAE_NXZ 100141d3 f i libucrt:output.obj
 0001:00013257       ?type_case_o@?$output_processor@_WV?$string_output_adapter@_W@__crt_stdio_output@@V?$format_validation_base@_WV?$string_output_adapter@_W@__crt_stdio_output@@@2@@__crt_stdio_output@@AAE_NXZ 10014257 f i libucrt:output.obj
 0001:00013274       ?type_case_p@?$output_processor@_WV?$string_output_adapter@_W@__crt_stdio_output@@V?$format_validation_base@_WV?$string_output_adapter@_W@__crt_stdio_output@@@2@@__crt_stdio_output@@AAE_NXZ 10014274 f i libucrt:output.obj
 0001:0001328a       ?type_case_s@?$output_processor@_WV?$string_output_adapter@_W@__crt_stdio_output@@V?$format_validation_base@_WV?$string_output_adapter@_W@__crt_stdio_output@@@2@@__crt_stdio_output@@AAE_NXZ 1001428a f i libucrt:output.obj
 0001:000132fd       ?type_case_s_compute_narrow_string_length@?$output_processor@_WV?$string_output_adapter@_W@__crt_stdio_output@@V?$format_validation_base@_WV?$string_output_adapter@_W@__crt_stdio_output@@@2@@__crt_stdio_output@@AAEHH_W@Z 100142fd f i libucrt:output.obj
 0001:00013352       ?unget@?$c_string_character_source@_W@__crt_strtox@@QAEX_W@Z 10014352 f i libucrt:output.obj
 0001:00013380       ?update_locale_slow@__crt_cached_ptd_host@@AAEXXZ 10014380 f i libucrt:output.obj
 0001:000133db       ?validate@?$c_string_character_source@_W@__crt_strtox@@QBE_NXZ 100143db f i libucrt:output.obj
 0001:000133f6       ?validate@?$string_output_adapter@_W@__crt_stdio_output@@QBE_NAAV__crt_cached_ptd_host@@@Z 100143f6 f i libucrt:output.obj
 0001:00013427       ?write_string@?$string_output_adapter@_W@__crt_stdio_output@@QBEXQB_WHQAHAAV__crt_cached_ptd_host@@@Z 10014427 f i libucrt:output.obj
 0001:00013498       ___acrt_locale_get_ctype_array_value 10014498 f i libucrt:output.obj
 0001:000134ba       ___stdio_common_vswprintf_s 100144ba f   libucrt:output.obj
 0001:000134fb       __seh_filter_dll           100144fb f   libucrt:exception_filter.obj
 0001:0001351b       __seh_filter_exe           1001451b f   libucrt:exception_filter.obj
 0001:00013948       ___acrt_initialize_thread_local_exit_callback 10014948 f   libucrt:exit.obj
 0001:00013957       __cexit                    10014957 f   libucrt:exit.obj
 0001:00013966       __exit                     10014966 f   libucrt:exit.obj
 0001:0001397c       __is_c_termination_complete 1001497c f   libucrt:exit.obj
 0001:00013c34       ___acrt_allocate_buffer_for_argv 10014c34 f   libucrt:argv_parsing.obj
 0001:00013c83       __configure_narrow_argv    10014c83 f   libucrt:argv_parsing.obj
 0001:00013e2f       ___dcrt_uninitialize_environments_nolock 10014e2f f   libucrt:environment_initialization.obj
 0001:00013e80       __initialize_narrow_environment 10014e80 f   libucrt:environment_initialization.obj
 0001:00013f3b       ??$__crt_fast_encode_pointer@PAX@@YAPAXQAX@Z 10014f3b f i libucrt:initialization.obj
 0001:00013f3b       ??$__crt_fast_encode_pointer@P6AHXZ@@YAP6AHXZQ6AHXZ@Z 10014f3b f i libucrt:onexit.obj
 0001:00013f3b       ??$__crt_fast_encode_pointer@PAP6AXXZ@@YAPAP6AXXZQAP6AXXZ@Z 10014f3b f i libucrt:onexit.obj
 0001:00014136       __crt_atexit               10015136 f   libucrt:onexit.obj
 0001:0001414c       __execute_onexit_table     1001514c f   libucrt:onexit.obj
 0001:0001418a       __initialize_onexit_table  1001518a f   libucrt:onexit.obj
 0001:000141b3       __register_onexit_function 100151b3 f   libucrt:onexit.obj
 0001:00014236       ___acrt_uninitialize_command_line 10015236 f   libucrt:argv_data.obj
 0001:000142e4       ___acrt_initialize         100152e4 f   libucrt:initialization.obj
 0001:000142f6       ___acrt_thread_attach      100152f6 f   libucrt:initialization.obj
 0001:00014301       ___acrt_thread_detach      10015301 f   libucrt:initialization.obj
 0001:00014309       ___acrt_uninitialize       10015309 f   libucrt:initialization.obj
 0001:00014339       ___acrt_uninitialize_critical 10015339 f   libucrt:initialization.obj
 0001:0001434b       __initterm                 1001534b f   libucrt:initterm.obj
 0001:00014376       __initterm_e               10015376 f   libucrt:initterm.obj
 0001:000143a4       ___acrt_initialize_new_handler 100153a4 f   libucrt:new_handler.obj
 0001:000143b3       __callnewh                 100153b3 f   libucrt:new_handler.obj
 0001:000143e0       __query_new_handler        100153e0 f   libucrt:new_handler.obj
 0001:0001443c       _terminate                 1001543c f   libucrt:terminate.obj
 0001:00014478       _abort                     10015478 f   libucrt:abort.obj
 0001:000144bc       _strcpy_s                  100154bc f   libucrt:strcpy_s.obj
 0001:00014520       _strncmp                   10015520 f   libucrt:strncmp.obj
 0001:00014598       _wcsncmp                   10015598 f   libucrt:wcsncmp.obj
 0001:000145d2       __free_base                100155d2 f   libucrt:free_base.obj
 0001:0001494a       ___acrt_freeptd            1001594a f   libucrt:per_thread_data.obj
 0001:00014976       ___acrt_getptd             10015976 f   libucrt:per_thread_data.obj
 0001:00014a31       ___acrt_getptd_head        10015a31 f   libucrt:per_thread_data.obj
 0001:00014ac7       ___acrt_getptd_noexit      10015ac7 f   libucrt:per_thread_data.obj
 0001:00014b78       ___acrt_getptd_noexit_explicit 10015b78 f   libucrt:per_thread_data.obj
 0001:00014c1b       ___acrt_initialize_ptd     10015c1b f   libucrt:per_thread_data.obj
 0001:00014c47       ___acrt_uninitialize_ptd   10015c47 f   libucrt:per_thread_data.obj
 0001:00014ccf       ___acrt_set_locale_changed 10015ccf f   libucrt:wsetlocale.obj
 0001:00014cda       ___acrt_uninitialize_locale 10015cda f   libucrt:wsetlocale.obj
 0001:00014d01       __calloc_base              10015d01 f   libucrt:calloc_base.obj
 0001:00014d5e       __malloc_base              10015d5e f   libucrt:malloc_base.obj
 0001:00014dac       __msize_base               10015dac f   libucrt:msize.obj
 0001:00014ddf       __realloc_base             10015ddf f   libucrt:realloc_base.obj
 0001:00014fe4       ___acrt_AppPolicyGetProcessTerminationMethodInternal@4 10015fe4 f   libucrt:winapi_thunks.obj
 0001:00015024       ___acrt_AreFileApisANSI@0  10016024 f   libucrt:winapi_thunks.obj
 0001:00015043       ___acrt_FlsAlloc@4         10016043 f   libucrt:winapi_thunks.obj
 0001:00015082       ___acrt_FlsFree@4          10016082 f   libucrt:winapi_thunks.obj
 0001:000150c1       ___acrt_FlsGetValue@4      100160c1 f   libucrt:winapi_thunks.obj
 0001:00015100       ___acrt_FlsSetValue@8      10016100 f   libucrt:winapi_thunks.obj
 0001:00015142       ___acrt_InitializeCriticalSectionEx@12 10016142 f   libucrt:winapi_thunks.obj
 0001:0001518d       ___acrt_LCMapStringEx@36   1001618d f   libucrt:winapi_thunks.obj
 0001:000151ea       ___acrt_LocaleNameToLCID@8 100161ea f   libucrt:winapi_thunks.obj
 0001:0001521b       ___acrt_SetThreadStackGuarantee@4 1001621b f   libucrt:winapi_thunks.obj
 0001:00015256       ___acrt_initialize_winapi_thunks 10016256 f   libucrt:winapi_thunks.obj
 0001:0001526a       ___acrt_uninitialize_winapi_thunks 1001626a f   libucrt:winapi_thunks.obj
 0001:000152a0       _wcsnlen                   100162a0 f   libucrt:strnlen.obj
 0001:00015450       ___acrt_update_locale_info 10016450 f   libucrt:locale_update.obj
 0001:0001547d       ___acrt_update_locale_info_explicit 1001647d f   libucrt:locale_update.obj
 0001:000154ae       ___acrt_update_multibyte_info 100164ae f   libucrt:locale_update.obj
 0001:000154db       ___acrt_update_multibyte_info_explicit 100164db f   libucrt:locale_update.obj
 0001:0001550c       ?__acrt_fp_classify@@YA?AW4__acrt_fp_class@@ABN@Z 1001650c f i libucrt:cvt.obj
 0001:00015ed5       ___acrt_fp_format          10016ed5 f   libucrt:cvt.obj
 0001:00016056       __mbtowc_internal          10017056 f   libucrt:mbtowc.obj
 0001:00016189       __fileno                   10017189 f   libucrt:fileno.obj
 0001:000161b0       ___acrt_initialize_stdio   100171b0 f   libucrt:_file.obj
 0001:00016278       ___acrt_uninitialize_stdio 10017278 f   libucrt:_file.obj
 0001:000162c4       __lock_file                100172c4 f   libucrt:_file.obj
 0001:000162d8       __unlock_file              100172d8 f   libucrt:_file.obj
 0001:000162ec       __get_printf_count_output  100172ec f   libucrt:printf_count_output.obj
 0001:00016467       ___acrt_initialize_lowio   10017467 f   libucrt:ioinit.obj
 0001:000164c7       ___acrt_uninitialize_lowio 100174c7 f   libucrt:ioinit.obj
 0001:000164f3       ___acrt_initialize_locks   100174f3 f   libucrt:locks.obj
 0001:00016534       ___acrt_lock               10017534 f   libucrt:locks.obj
 0001:0001654b       ___acrt_uninitialize_locks 1001754b f   libucrt:locks.obj
 0001:0001657c       ___acrt_unlock             1001757c f   libucrt:locks.obj
 0001:00016593       ___acrt_get_process_end_policy 10017593 f   libucrt:win_policies.obj
 0001:000165dc       ??$__acrt_convert_wcs_mbs_cp@D_WV<lambda_62f6974d9771e494a5ea317cc32e971c>@@U__crt_win32_buffer_internal_dynamic_resizing@@@@YAHQBDAAV?$__crt_win32_buffer@_WU__crt_win32_buffer_internal_dynamic_resizing@@@@ABV<lambda_62f6974d9771e494a5ea317cc32e971c>@@I@Z 100175dc f i libucrt:argv_wildcards.obj
 0001:0001668e       ??$__acrt_convert_wcs_mbs_cp@_WDV<lambda_28bda7af82a03b66c1cb3803a755f95d>@@U__crt_win32_buffer_internal_dynamic_resizing@@@@YAHQB_WAAV?$__crt_win32_buffer@DU__crt_win32_buffer_internal_dynamic_resizing@@@@ABV<lambda_28bda7af82a03b66c1cb3803a755f95d>@@I@Z 1001768e f i libucrt:argv_wildcards.obj
 0001:00016754       ??$__acrt_mbs_to_wcs_cp@U__crt_win32_buffer_internal_dynamic_resizing@@@@YAHQBDAAV?$__crt_win32_buffer@_WU__crt_win32_buffer_internal_dynamic_resizing@@@@I@Z 10017754 f i libucrt:argv_wildcards.obj
 0001:00016c24       ??0_LocaleUpdate@@QAE@QAU__crt_locale_pointers@@@Z 10017c24 f i libucrt:argv_wildcards.obj
 0001:00016ccf       ??R<lambda_0fec1a7b3f42a53036604e18c2d5e07e>@@QBEHIQB_WQADI@Z 10017ccf f i libucrt:getmodulefilenamea.obj
 0001:00016ccf       ??R<lambda_28bda7af82a03b66c1cb3803a755f95d>@@QBEHIQB_WQADI@Z 10017ccf f i libucrt:argv_wildcards.obj
 0001:00016cf3       ?__acrt_get_utf8_acp_compatibility_codepage@@YAIXZ 10017cf3 f i libucrt:argv_wildcards.obj
 0001:00016d32       ?_deallocate@?$__crt_win32_buffer@_WU__crt_win32_buffer_internal_dynamic_resizing@@@@AAEXXZ 10017d32 f i libucrt:argv_wildcards.obj
 0001:00016d32       ?_deallocate@?$__crt_win32_buffer@DU__crt_win32_buffer_internal_dynamic_resizing@@@@AAEXXZ 10017d32 f i libucrt:argv_wildcards.obj
 0001:00016d4c       ?allocate@?$__crt_win32_buffer@DU__crt_win32_buffer_internal_dynamic_resizing@@@@QAEHI@Z 10017d4c f i libucrt:argv_wildcards.obj
 0001:00016d88       ?allocate@?$__crt_win32_buffer@_WU__crt_win32_buffer_internal_dynamic_resizing@@@@QAEHI@Z 10017d88 f i libucrt:argv_wildcards.obj
 0001:00016dc7       ?allocate@__crt_win32_buffer_internal_dynamic_resizing@@SAHQAPAXIABV__crt_win32_buffer_empty_debug_info@@@Z 10017dc7 f i libucrt:argv_wildcards.obj
 0001:00016e6d       ___acrt_expand_narrow_argv_wildcards 10017e6d f   libucrt:argv_wildcards.obj
 0001:00016e78       ??$__acrt_convert_wcs_mbs_cp@_WDV<lambda_0fec1a7b3f42a53036604e18c2d5e07e>@@U__crt_win32_buffer_no_resizing@@@@YAHQB_WAAV?$__crt_win32_buffer@DU__crt_win32_buffer_no_resizing@@@@ABV<lambda_0fec1a7b3f42a53036604e18c2d5e07e>@@I@Z 10017e78 f i libucrt:getmodulefilenamea.obj
 0001:00016f3a       ?allocate@?$__crt_win32_buffer@DU__crt_win32_buffer_no_resizing@@@@QAEHI@Z 10017f3a f i libucrt:getmodulefilenamea.obj
 0001:00016f61       ?set_to_nullptr@?$__crt_win32_buffer@DU__crt_win32_buffer_no_resizing@@@@QAEXXZ 10017f61 f i libucrt:getmodulefilenamea.obj
 0001:00016f75       ___acrt_GetModuleFileNameA 10017f75 f   libucrt:getmodulefilenamea.obj
 0001:00017599       ___acrt_initialize_multibyte 10018599 f   libucrt:mbctype.obj
 0001:000175e1       ___acrt_update_thread_multibyte_data 100185e1 f   libucrt:mbctype.obj
 0001:000175f4       __setmbcp_nolock           100185f4 f   libucrt:mbctype.obj
 0001:000178cd       __ismbblead                100188cd f   libucrt:ismbbyte.obj
 0001:000178e5       ___acrt_initialize_command_line 100188e5 f   libucrt:argv_data.obj
 0001:000178fe       ___acrt_MultiByteToWideChar 100188fe f   libucrt:multibytetowidechar.obj
 0001:0001797a       ___acrt_WideCharToMultiByte 1001897a f   libucrt:widechartomultibyte.obj
 0001:00017a68       ___dcrt_get_narrow_environment_from_os 10018a68 f   libucrt:get_environment_from_os.obj
 0001:00017b08       ___acrt_initialize_heap    10018b08 f   libucrt:heap_handle.obj
 0001:00017b19       ___acrt_uninitialize_heap  10018b19 f   libucrt:heap_handle.obj
 0001:00017b23       ___acrt_execute_initializers 10018b23 f   libucrt:shared_initialization.obj
 0001:00017b8b       ___acrt_execute_uninitializers 10018b8b f   libucrt:shared_initialization.obj
 0001:00017c8a       ___acrt_get_sigabrt_handler 10018c8a f   libucrt:signal.obj
 0001:00017cb1       ___acrt_initialize_signal_handlers 10018cb1 f   libucrt:signal.obj
 0001:00017ccf       _raise                     10018ccf f   libucrt:signal.obj
 0001:00017ec2       ___acrt_has_user_matherr   10018ec2 f   libucrt:matherr.obj
 0001:00017eda       ___acrt_initialize_user_matherr 10018eda f   libucrt:matherr.obj
 0001:00017ee9       ___acrt_invoke_user_matherr 10018ee9 f   libucrt:matherr.obj
 0001:000180f8       ___acrt_stdio_flush_nolock 100190f8 f   libucrt:fflush.obj
 0001:00018161       __fflush_nolock            10019161 f   libucrt:fflush.obj
 0001:000181c6       __flushall                 100191c6 f   libucrt:fflush.obj
 0001:000181cf       ___acrt_add_locale_ref     100191cf f   libucrt:locale_refcounting.obj
 0001:0001824c       ___acrt_free_locale        1001924c f   libucrt:locale_refcounting.obj
 0001:00018394       ___acrt_locale_add_lc_time_reference 10019394 f   libucrt:locale_refcounting.obj
 0001:000183bd       ___acrt_locale_free_lc_time_if_unreferenced 100193bd f   libucrt:locale_refcounting.obj
 0001:000183ee       ___acrt_locale_release_lc_time_reference 100193ee f   libucrt:locale_refcounting.obj
 0001:00018417       ___acrt_release_locale_ref 10019417 f   libucrt:locale_refcounting.obj
 0001:00018498       ___acrt_update_thread_locale_data 10019498 f   libucrt:locale_refcounting.obj
 0001:00018519       __updatetlocinfoEx_nolock  10019519 f   libucrt:locale_refcounting.obj
 0001:00018569       ___acrt_locale_free_monetary 10019569 f   libucrt:initmon.obj
 0001:00018667       ___acrt_locale_free_numeric 10019667 f   libucrt:initnum.obj
 0001:000186f5       ___acrt_locale_free_time   100196f5 f   libucrt:inittime.obj
 0001:000187d9       ___acrt_GetStringTypeA     100197d9 f   libucrt:getstringtypea.obj
 0001:000188e2       __freea_crt                100198e2 f i libucrt:getstringtypea.obj
 0001:00018902       __query_new_mode           10019902 f   libucrt:new_mode.obj
 0001:00018959       ___acrt_DownlevelLocaleNameToLCID 10019959 f   libucrt:lcidtoname_downlevel.obj
 0001:00018a03       ___acrt_fp_strflt_to_string 10019a03 f   libucrt:_fptostr.obj
 0001:00018b00       ?divide@__crt_strtox@@YA_KAAUbig_integer@1@ABU21@@Z 10019b00 f i libucrt:cfout.obj
 0001:00018f88       ___acrt_fltout             10019f88 f   libucrt:cfout.obj
 0001:0001a4c1       _fegetround                1001b4c1 f   libucrt:fegetround.obj
 0001:0001a4fa       ?__mbrtowc_utf8@__crt_mbstring@@YAIPA_WPBDIPAU_Mbstatet@@AAV__crt_cached_ptd_host@@@Z 1001b4fa f   libucrt:mbrtowc.obj
 0001:0001a53d       ?__mbsrtowcs_utf8@__crt_mbstring@@YAIPA_WPAPBDIPAU_Mbstatet@@AAV__crt_cached_ptd_host@@@Z 1001b53d f   libucrt:mbrtowc.obj
 0001:0001a645       __fcloseall                1001b645 f   libucrt:closeall.obj
 0001:0001a6f0       ___acrt_stdio_free_buffer_nolock 1001b6f0 f   libucrt:_freebuf.obj
 0001:0001a730       __isatty                   1001b730 f   libucrt:isatty.obj
 0001:0001a786       ___acrt_lowio_create_handle_array 1001b786 f   libucrt:osfinfo.obj
 0001:0001a801       ___acrt_lowio_destroy_handle_array 1001b801 f   libucrt:osfinfo.obj
 0001:0001a836       ___acrt_lowio_ensure_fh_exists 1001b836 f   libucrt:osfinfo.obj
 0001:0001a8d4       ___acrt_lowio_lock_fh      1001b8d4 f   libucrt:osfinfo.obj
 0001:0001a8f7       ___acrt_lowio_unlock_fh    1001b8f7 f   libucrt:osfinfo.obj
 0001:0001a91a       __free_osfhnd              1001b91a f   libucrt:osfinfo.obj
 0001:0001a9ab       __get_osfhandle            1001b9ab f   libucrt:osfinfo.obj
 0001:0001aa20       _qsort                     1001ba20 f   libucrt:qsort.obj
 0001:0001afc5       _strncpy_s                 1001bfc5 f   libucrt:strncpy_s.obj
 0001:0001afd0       _strpbrk                   1001bfd0 f   libucrt:strpbrk.obj
 0001:0001b010       __mbsdec                   1001c010 f   libucrt:mbsdec.obj
 0001:0001b027       __mbsdec_l                 1001c027 f   libucrt:mbsdec.obj
 0001:0001b2a2       ___acrt_LCMapStringA       1001c2a2 f   libucrt:lcmapstringa.obj
 0001:0001b39c       __commit                   1001c39c f   libucrt:commit.obj
 0001:0001bbc7       __write_internal           1001cbc7 f   libucrt:write.obj
 0001:0001bccf       __write_nolock             1001cccf f   libucrt:write.obj
 0001:0001becf       ___ascii_wcsnicmp          1001cecf f   libucrt:wcsnicmp.obj
 0001:0001bf1e       __controlfp_s              1001cf1e f   libucrt:contrlfp.obj
 0001:0001bf7d       _fegetenv                  1001cf7d f   libucrt:fegetenv.obj
 0001:0001bf9a       _fesetenv                  1001cf9a f   libucrt:fesetenv.obj
 0001:0001bfe5       _feholdexcept              1001cfe5 f   libucrt:feholdexcept.obj
 0001:0001c040       __CIlog10                  1001d040 f   libucrt:log10_impl.obj
 0001:0001c07b       __CIlog10_default          1001d07b f   libucrt:log10_impl.obj
 0001:0001c08f       __log10_default            1001d08f     libucrt:log10_impl.obj
 0001:0001c150       _ceil                      1001d150 f   libucrt:ceil_pentium4.obj
 0001:0001c190       __ceil_pentium4            1001d190 f   libucrt:ceil_pentium4.obj
 0001:0001c536       ___acrt_fenv_get_common_round_control 1001d536 f   libucrt:_fenvutils.obj
 0001:0001c558       ___acrt_fenv_get_control   1001d558 f   libucrt:_fenvutils.obj
 0001:0001c5d8       ___acrt_fenv_get_status    1001d5d8 f   libucrt:_fenvutils.obj
 0001:0001c682       ___acrt_fenv_set_control   1001d682 f   libucrt:_fenvutils.obj
 0001:0001c6fd       ___acrt_fenv_set_status    1001d6fd f   libucrt:_fenvutils.obj
 0001:0001c7f7       ?reset_and_return@__crt_mbstring@@YAIIPAU_Mbstatet@@@Z 1001d7f7 f   libucrt:common_utf8.obj
 0001:0001c80b       ?return_illegal_sequence@__crt_mbstring@@YAIPAU_Mbstatet@@AAV__crt_cached_ptd_host@@@Z 1001d80b f   libucrt:common_utf8.obj
 0001:0001c82d       ?__mbrtoc32_utf8@__crt_mbstring@@YAIPA_UPBDIPAU_Mbstatet@@AAV__crt_cached_ptd_host@@@Z 1001d82d f   libucrt:mbrtoc32.obj
 0001:0001cb10       _fclose                    1001db10 f   libucrt:fclose.obj
 0001:0001cbc3       __lseeki64_nolock_internal 1001dbc3 f   libucrt:lseek.obj
 0001:0001cbe1       __query_app_type           1001dbe1 f   libucrt:report_runtime_error.obj
 0001:0001cbe7       ___strncnt                 1001dbe7 f   libucrt:strncnt.obj
 0001:0001cc03       __putwch_nolock            1001dc03 f   libucrt:putwch.obj
 0001:0001ccdc       __clearfp                  1001dcdc f   libucrt:ieee87.obj
 0001:0001cdba       __control87                1001ddba f   libucrt:ieee87.obj
 0001:0001d159       ___acrt_initialize_sse2    1001e159 f   libucrt:mathfcns.obj
 0001:0001d170       __CIlog10_pentium4         1001e170 f   libucrt:log10_pentium4.obj
 0001:0001d188       __log10_pentium4           1001e188     libucrt:log10_pentium4.obj
 0001:0001d420       __fFEXP                    1001e420 f   libucrt:87tran.obj
 0001:0001d477       __rtinfpopse               1001e477     libucrt:87tran.obj
 0001:0001d479       __rtinfnpopse              1001e479     libucrt:87tran.obj
 0001:0001d489       __fFLN                     1001e489     libucrt:87tran.obj
 0001:0001d53e       __rtinfpop                 1001e53e     libucrt:87tran.obj
 0001:0001d540       __rtinfnpop                1001e540     libucrt:87tran.obj
 0001:0001d550       __rtforexpinf              1001e550 f   libucrt:87tran.obj
 0001:0001d55d       __ffexpm1                  1001e55d     libucrt:87tran.obj
 0001:0001d610       __trandisp1                1001e610 f   libucrt:87disp.obj
 0001:0001d685       __trandisp2                1001e685 f   libucrt:87disp.obj
 0001:0001d71f       __rttospopde               1001e71f     libucrt:87disp.obj
 0001:0001d724       __rttospop                 1001e724     libucrt:87disp.obj
 0001:0001d730       __rtnospop                 1001e730 f   libucrt:87disp.obj
 0001:0001d740       __rttosnpop                1001e740 f   libucrt:87disp.obj
 0001:0001d741       __rtnospopde               1001e741     libucrt:87disp.obj
 0001:0001d748       __rtzeropop                1001e748     libucrt:87disp.obj
 0001:0001d74a       __rtzeronpop               1001e74a     libucrt:87disp.obj
 0001:0001d750       __rtzerospop               1001e750 f   libucrt:87disp.obj
 0001:0001d75d       __rtonepop                 1001e75d     libucrt:87disp.obj
 0001:0001d760       __rtonenpop                1001e760 f   libucrt:87disp.obj
 0001:0001d770       __tosnan1                  1001e770 f   libucrt:87disp.obj
 0001:0001d7a0       __nosnan2                  1001e7a0 f   libucrt:87disp.obj
 0001:0001d7b0       __tosnan2                  1001e7b0 f   libucrt:87disp.obj
 0001:0001d7e0       __nan2                     1001e7e0 f   libucrt:87disp.obj
 0001:0001d820       __rtindfpop                1001e820 f   libucrt:87disp.obj
 0001:0001d822       __rtindfnpop               1001e822     libucrt:87disp.obj
 0001:0001d833       __rttosnpopde              1001e833     libucrt:87disp.obj
 0001:0001d840       __rtatan2inf               1001e840 f   libucrt:87disp.obj
 0001:0001d85d       __rtchsifneg               1001e85d     libucrt:87disp.obj
 0001:0001d870       __twoToTOS                 1001e870 f   libucrt:common.obj
 0001:0001d885       __load_CW                  1001e885 f   libucrt:common.obj
 0001:0001d89c       __convertTOStoQNaN         1001e89c f   libucrt:common.obj
 0001:0001d8b5       __fload_withFB             1001e8b5 f   libucrt:common.obj
 0001:0001d8f8       __checkTOS_withFB          1001e8f8 f   libucrt:common.obj
 0001:0001d90e       __fast_exit                1001e90e f   libucrt:common.obj
 0001:0001d91b       __math_exit                1001e91b f   libucrt:common.obj
 0001:0001d945       __check_overflow_exit      1001e945 f   libucrt:common.obj
 0001:0001d959       __check_range_exit         1001e959 f   libucrt:common.obj
 0001:0001da00       __startTwoArgErrorHandling 1001ea00 f   libucrt:genexcep.obj
 0001:0001da17       __startOneArgErrorHandling 1001ea17 f   libucrt:genexcep.obj
 0001:0001da53       ___libm_error_support      1001ea53 f   libucrt:libm_error.obj
 0001:0001dc47       __ceil_default             1001ec47 f   libucrt:ceil.obj
 0001:0001dd8d       __close_internal           1001ed8d f   libucrt:close.obj
 0001:0001de30       __close_nolock_internal    1001ee30 f   libucrt:close.obj
 0001:0001ded0       ?__acrt_stdio_free_stream@@YAXV__crt_stdio_stream@@@Z 1001eed0 f   libucrt:stream.obj
 0001:0001df10       ___ascii_strnicmp          1001ef10 f   libucrt:_strnicm.obj
 0001:0001df90       ___dcrt_lowio_ensure_console_output_initialized 1001ef90 f   libucrt:initcon.obj
 0001:0001dfaf       ___dcrt_terminate_console_output 1001efaf f   libucrt:initcon.obj
 0001:0001dfc6       ___dcrt_write_console      1001efc6 f   libucrt:initcon.obj
 0001:0001e01b       ___set_fpsr_sse2           1001f01b f   libucrt:fpctrl.obj
 0001:0001e09b       __clrfp                    1001f09b f   libucrt:fpctrl.obj
 0001:0001e0ac       __ctrlfp                   1001f0ac f   libucrt:fpctrl.obj
 0001:0001e0d6       __set_statfp               1001f0d6 f   libucrt:fpctrl.obj
 0001:0001e12f       __statfp                   1001f12f f   libucrt:fpctrl.obj
 0001:0001e13f       __d_inttype                1001f13f f   libucrt:powhlp.obj
 0001:0001e1a7       __powhlp                   1001f1a7 f   libucrt:powhlp.obj
 0001:0001e2d2       __87except                 1001f2d2 f   libucrt:87except.obj
 0001:0001e3dc       __frnd                     1001f3dc f   libucrt:frnd.obj
 0001:0001e3f0       __errcode                  1001f3f0 f   libucrt:fpexcept.obj
 0001:0001e424       __except1                  1001f424 f   libucrt:fpexcept.obj
 0001:0001e4f2       __handle_exc               1001f4f2 f   libucrt:fpexcept.obj
 0001:0001e76b       __raise_exc                1001f76b f   libucrt:fpexcept.obj
 0001:0001e78e       __raise_exc_ex             1001f78e f   libucrt:fpexcept.obj
 0001:0001ea84       __set_errno_from_matherr   1001fa84 f   libucrt:fpexcept.obj
 0001:0001eab3       __umatherr                 1001fab3 f   libucrt:fpexcept.obj
 0001:0001eb53       __decomp                   1001fb53 f   libucrt:util.obj
 0001:0001ec25       __set_exp                  1001fc25 f   libucrt:util.obj
 0001:0001ec52       __sptype                   1001fc52 f   libucrt:util.obj
 0001:0001ecb0       __fpclass                  1001fcb0 f   libucrt:ieeemisc.obj
 0001:0001ed60       __FindPESection            1001fd60 f   LIBCMT:pesect.obj
 0001:0001edb0       __IsNonwritableInCurrentImage 1001fdb0 f   LIBCMT:pesect.obj
 0001:0001ee70       __ValidateImageBase        1001fe70 f   LIBCMT:pesect.obj
 0001:0001eea1       __EH_epilog3               1001fea1 f   LIBCMT:ehprolg3.obj
 0001:0001eeb5       __EH_prolog3               1001feb5 f   LIBCMT:ehprolg3.obj
 0001:0001eee8       __EH_prolog3_catch         1001fee8 f   LIBCMT:ehprolg3.obj
 0001:0001ef20       __aulldvrm                 1001ff20 f   LIBCMT:ulldvrm.obj
 0001:0001efc0       __allmul                   1001ffc0 f   LIBCMT:llmul.obj
 0001:0001f000       __alldvrm                  10020000 f   LIBCMT:lldvrm.obj
 0001:0001f0e0       __allshl                   100200e0 f   LIBCMT:llshl.obj
 0001:0001f100       __aullshr                  10020100 f   LIBCMT:ullshr.obj
 0001:0001f120       __ftol2_sse                10020120 f   LIBCMT:ftol2.obj
 0001:0001f130       __ftoi2                    10020130 f   LIBCMT:ftol2.obj
 0001:0001f1b0       _strrchr                   100201b0 f   libvcruntime:strrchr.obj
 0001:0001f2f0       __filter_x86_sse2_floating_point_exception 100202f0 f   LIBCMT:x86_exception_filter.obj
 0001:0001f2f0       __filter_x86_sse2_floating_point_exception_default 100202f0 f   LIBCMT:x86_exception_filter.obj
 0002:00000000       __imp__RegQueryValueExW@24 10021000     advapi32:ADVAPI32.dll
 0002:00000004       __imp__RegSetValueExW@24   10021004     advapi32:ADVAPI32.dll
 0002:00000008       __imp__RegQueryInfoKeyW@48 10021008     advapi32:ADVAPI32.dll
 0002:0000000c       __imp__RegOpenKeyExW@20    1002100c     advapi32:ADVAPI32.dll
 0002:00000010       __imp__RegEnumKeyExW@32    10021010     advapi32:ADVAPI32.dll
 0002:00000014       __imp__RegDeleteValueW@8   10021014     advapi32:ADVAPI32.dll
 0002:00000018       __imp__RegDeleteKeyW@8     10021018     advapi32:ADVAPI32.dll
 0002:0000001c       __imp__RegCreateKeyExW@36  1002101c     advapi32:ADVAPI32.dll
 0002:00000020       __imp__RegCloseKey@4       10021020     advapi32:ADVAPI32.dll
 0002:00000024       \177ADVAPI32_NULL_THUNK_DATA 10021024     advapi32:ADVAPI32.dll
 0002:00000028       __imp__GetObjectW@12       10021028     gdi32:GDI32.dll
 0002:0000002c       __imp__SelectObject@8      1002102c     gdi32:GDI32.dll
 0002:00000030       __imp__DeleteObject@4      10021030     gdi32:GDI32.dll
 0002:00000034       __imp__CreateCompatibleDC@4 10021034     gdi32:GDI32.dll
 0002:00000038       __imp__BitBlt@36           10021038     gdi32:GDI32.dll
 0002:0000003c       __imp__SetWindowOrgEx@16   1002103c     gdi32:GDI32.dll
 0002:00000040       __imp__SetWindowExtEx@16   10021040     gdi32:GDI32.dll
 0002:00000044       __imp__SetViewportOrgEx@16 10021044     gdi32:GDI32.dll
 0002:00000048       __imp__LPtoDP@12           10021048     gdi32:GDI32.dll
 0002:0000004c       __imp__SetMapMode@8        1002104c     gdi32:GDI32.dll
 0002:00000050       __imp__SaveDC@4            10021050     gdi32:GDI32.dll
 0002:00000054       __imp__RestoreDC@8         10021054     gdi32:GDI32.dll
 0002:00000058       __imp__GetDeviceCaps@8     10021058     gdi32:GDI32.dll
 0002:0000005c       __imp__DeleteMetaFile@4    1002105c     gdi32:GDI32.dll
 0002:00000060       __imp__DeleteDC@4          10021060     gdi32:GDI32.dll
 0002:00000064       __imp__CreateRectRgnIndirect@4 10021064     gdi32:GDI32.dll
 0002:00000068       __imp__CreateMetaFileW@4   10021068     gdi32:GDI32.dll
 0002:0000006c       __imp__CreateDCW@16        1002106c     gdi32:GDI32.dll
 0002:00000070       __imp__CloseMetaFile@4     10021070     gdi32:GDI32.dll
 0002:00000074       \177GDI32_NULL_THUNK_DATA  10021074     gdi32:GDI32.dll
 0002:00000078       __imp__CloseHandle@4       10021078     kernel32:KERNEL32.dll
 0002:0000007c       __imp__SetEvent@4          1002107c     kernel32:KERNEL32.dll
 0002:00000080       __imp__CreateMutexW@12     10021080     kernel32:KERNEL32.dll
 0002:00000084       __imp__CreateEventW@16     10021084     kernel32:KERNEL32.dll
 0002:00000088       __imp__GetCurrentProcessId@0 10021088     kernel32:KERNEL32.dll
 0002:0000008c       __imp__CreateFileW@28      1002108c     kernel32:KERNEL32.dll
 0002:00000090       __imp__GetConsoleMode@8    10021090     kernel32:KERNEL32.dll
 0002:00000094       __imp__GetConsoleOutputCP@0 10021094     kernel32:KERNEL32.dll
 0002:00000098       __imp__WriteFile@20        10021098     kernel32:KERNEL32.dll
 0002:0000009c       __imp__FlushFileBuffers@4  1002109c     kernel32:KERNEL32.dll
 0002:000000a0       __imp__SetStdHandle@8      100210a0     kernel32:KERNEL32.dll
 0002:000000a4       __imp__SetFilePointerEx@20 100210a4     kernel32:KERNEL32.dll
 0002:000000a8       __imp__GetStringTypeW@16   100210a8     kernel32:KERNEL32.dll
 0002:000000ac       __imp__FreeEnvironmentStringsW@4 100210ac     kernel32:KERNEL32.dll
 0002:000000b0       __imp__GetEnvironmentStringsW@0 100210b0     kernel32:KERNEL32.dll
 0002:000000b4       __imp__lstrcmpiW@8         100210b4     kernel32:KERNEL32.dll
 0002:000000b8       __imp__GetCommandLineA@0   100210b8     kernel32:KERNEL32.dll
 0002:000000bc       __imp__GetCPInfo@8         100210bc     kernel32:KERNEL32.dll
 0002:000000c0       __imp__GetOEMCP@0          100210c0     kernel32:KERNEL32.dll
 0002:000000c4       __imp__GetACP@0            100210c4     kernel32:KERNEL32.dll
 0002:000000c8       __imp__IsValidCodePage@4   100210c8     kernel32:KERNEL32.dll
 0002:000000cc       __imp__FindNextFileW@8     100210cc     kernel32:KERNEL32.dll
 0002:000000d0       __imp__FindFirstFileExW@24 100210d0     kernel32:KERNEL32.dll
 0002:000000d4       __imp__FindClose@4         100210d4     kernel32:KERNEL32.dll
 0002:000000d8       __imp__GetFileType@4       100210d8     kernel32:KERNEL32.dll
 0002:000000dc       __imp__GetStdHandle@4      100210dc     kernel32:KERNEL32.dll
 0002:000000e0       __imp__LCMapStringW@24     100210e0     kernel32:KERNEL32.dll
 0002:000000e4       __imp__HeapReAlloc@16      100210e4     kernel32:KERNEL32.dll
 0002:000000e8       __imp__HeapSize@12         100210e8     kernel32:KERNEL32.dll
 0002:000000ec       __imp__MulDiv@12           100210ec     kernel32:KERNEL32.dll
 0002:000000f0       __imp__GlobalLock@4        100210f0     kernel32:KERNEL32.dll
 0002:000000f4       __imp__GlobalUnlock@4      100210f4     kernel32:KERNEL32.dll
 0002:000000f8       __imp__GlobalAlloc@8       100210f8     kernel32:KERNEL32.dll
 0002:000000fc       __imp__FindResourceW@12    100210fc     kernel32:KERNEL32.dll
 0002:00000100       __imp__SizeofResource@8    10021100     kernel32:KERNEL32.dll
 0002:00000104       __imp__LoadResource@8      10021104     kernel32:KERNEL32.dll
 0002:00000108       __imp__LoadLibraryExW@12   10021108     kernel32:KERNEL32.dll
 0002:0000010c       __imp__GetProcAddress@8    1002110c     kernel32:KERNEL32.dll
 0002:00000110       __imp__GetModuleHandleW@4  10021110     kernel32:KERNEL32.dll
 0002:00000114       __imp__GetModuleFileNameW@12 10021114     kernel32:KERNEL32.dll
 0002:00000118       __imp__FreeLibrary@4       10021118     kernel32:KERNEL32.dll
 0002:0000011c       __imp__DisableThreadLibraryCalls@4 1002111c     kernel32:KERNEL32.dll
 0002:00000120       __imp__GetCurrentThreadId@0 10021120     kernel32:KERNEL32.dll
 0002:00000124       __imp__Sleep@4             10021124     kernel32:KERNEL32.dll
 0002:00000128       __imp__WaitForSingleObject@8 10021128     kernel32:KERNEL32.dll
 0002:0000012c       __imp__ReleaseMutex@4      1002112c     kernel32:KERNEL32.dll
 0002:00000130       __imp__ResetEvent@4        10021130     kernel32:KERNEL32.dll
 0002:00000134       __imp__EnterCriticalSection@4 10021134     kernel32:KERNEL32.dll
 0002:00000138       __imp__LeaveCriticalSection@4 10021138     kernel32:KERNEL32.dll
 0002:0000013c       __imp__SetLastError@4      1002113c     kernel32:KERNEL32.dll
 0002:00000140       __imp__EncodePointer@4     10021140     kernel32:KERNEL32.dll
 0002:00000144       __imp__DeleteCriticalSection@4 10021144     kernel32:KERNEL32.dll
 0002:00000148       __imp__InitializeCriticalSectionEx@12 10021148     kernel32:KERNEL32.dll
 0002:0000014c       __imp__GetLastError@0      1002114c     kernel32:KERNEL32.dll
 0002:00000150       __imp__RaiseException@16   10021150     kernel32:KERNEL32.dll
 0002:00000154       __imp__DecodePointer@4     10021154     kernel32:KERNEL32.dll
 0002:00000158       __imp__WideCharToMultiByte@32 10021158     kernel32:KERNEL32.dll
 0002:0000015c       __imp__GetCommandLineW@0   1002115c     kernel32:KERNEL32.dll
 0002:00000160       __imp__MultiByteToWideChar@24 10021160     kernel32:KERNEL32.dll
 0002:00000164       __imp__WriteConsoleW@20    10021164     kernel32:KERNEL32.dll
 0002:00000168       __imp__GetModuleHandleExW@12 10021168     kernel32:KERNEL32.dll
 0002:0000016c       __imp__ExitProcess@4       1002116c     kernel32:KERNEL32.dll
 0002:00000170       __imp__VirtualQuery@12     10021170     kernel32:KERNEL32.dll
 0002:00000174       __imp__VirtualProtect@16   10021174     kernel32:KERNEL32.dll
 0002:00000178       __imp__GetSystemInfo@4     10021178     kernel32:KERNEL32.dll
 0002:0000017c       __imp__TlsFree@4           1002117c     kernel32:KERNEL32.dll
 0002:00000180       __imp__TlsSetValue@8       10021180     kernel32:KERNEL32.dll
 0002:00000184       __imp__TlsGetValue@4       10021184     kernel32:KERNEL32.dll
 0002:00000188       __imp__TlsAlloc@0          10021188     kernel32:KERNEL32.dll
 0002:0000018c       __imp__InterlockedFlushSList@4 1002118c     kernel32:KERNEL32.dll
 0002:00000190       __imp__RtlUnwind@16        10021190     kernel32:KERNEL32.dll
 0002:00000194       __imp__LoadLibraryExA@12   10021194     kernel32:KERNEL32.dll
 0002:00000198       __imp__VirtualFree@12      10021198     kernel32:KERNEL32.dll
 0002:0000019c       __imp__VirtualAlloc@16     1002119c     kernel32:KERNEL32.dll
 0002:000001a0       __imp__FlushInstructionCache@12 100211a0     kernel32:KERNEL32.dll
 0002:000001a4       __imp__InterlockedPushEntrySList@8 100211a4     kernel32:KERNEL32.dll
 0002:000001a8       __imp__InterlockedPopEntrySList@4 100211a8     kernel32:KERNEL32.dll
 0002:000001ac       __imp__GetProcessHeap@0    100211ac     kernel32:KERNEL32.dll
 0002:000001b0       __imp__HeapFree@12         100211b0     kernel32:KERNEL32.dll
 0002:000001b4       __imp__HeapAlloc@12        100211b4     kernel32:KERNEL32.dll
 0002:000001b8       __imp__OutputDebugStringW@4 100211b8     kernel32:KERNEL32.dll
 0002:000001bc       __imp__InitializeSListHead@4 100211bc     kernel32:KERNEL32.dll
 0002:000001c0       __imp__GetSystemTimeAsFileTime@4 100211c0     kernel32:KERNEL32.dll
 0002:000001c4       __imp__QueryPerformanceCounter@4 100211c4     kernel32:KERNEL32.dll
 0002:000001c8       __imp__GetStartupInfoW@4   100211c8     kernel32:KERNEL32.dll
 0002:000001cc       __imp__IsDebuggerPresent@0 100211cc     kernel32:KERNEL32.dll
 0002:000001d0       __imp__IsProcessorFeaturePresent@4 100211d0     kernel32:KERNEL32.dll
 0002:000001d4       __imp__TerminateProcess@8  100211d4     kernel32:KERNEL32.dll
 0002:000001d8       __imp__GetCurrentProcess@0 100211d8     kernel32:KERNEL32.dll
 0002:000001dc       __imp__SetUnhandledExceptionFilter@4 100211dc     kernel32:KERNEL32.dll
 0002:000001e0       __imp__UnhandledExceptionFilter@4 100211e0     kernel32:KERNEL32.dll
 0002:000001e4       __imp__InitializeCriticalSectionAndSpinCount@8 100211e4     kernel32:KERNEL32.dll
 0002:000001e8       __imp__WaitForSingleObjectEx@12 100211e8     kernel32:KERNEL32.dll
 0002:000001ec       \177KERNEL32_NULL_THUNK_DATA 100211ec     kernel32:KERNEL32.dll
 0002:000001f0       __imp__OleCreatePropertyFrame@44 100211f0     oleaut32:OLEAUT32.dll
 0002:000001f4       __imp__UnRegisterTypeLib@20 100211f4     oleaut32:OLEAUT32.dll
 0002:000001f8       __imp__RegisterTypeLib@12  100211f8     oleaut32:OLEAUT32.dll
 0002:000001fc       __imp__LoadRegTypeLib@20   100211fc     oleaut32:OLEAUT32.dll
 0002:00000200       __imp__LoadTypeLib@8       10021200     oleaut32:OLEAUT32.dll
 0002:00000204       __imp__VarUI4FromStr@16    10021204     oleaut32:OLEAUT32.dll
 0002:00000208       __imp__VariantInit@4       10021208     oleaut32:OLEAUT32.dll
 0002:0000020c       __imp__SysAllocStringByteLen@8 1002120c     oleaut32:OLEAUT32.dll
 0002:00000210       __imp__SysStringByteLen@4  10021210     oleaut32:OLEAUT32.dll
 0002:00000214       __imp__VariantChangeType@16 10021214     oleaut32:OLEAUT32.dll
 0002:00000218       __imp__VariantCopyInd@8    10021218     oleaut32:OLEAUT32.dll
 0002:0000021c       __imp__VariantClear@4      1002121c     oleaut32:OLEAUT32.dll
 0002:00000220       __imp__SysStringLen@4      10021220     oleaut32:OLEAUT32.dll
 0002:00000224       __imp__SysFreeString@4     10021224     oleaut32:OLEAUT32.dll
 0002:00000228       __imp__SysAllocStringLen@8 10021228     oleaut32:OLEAUT32.dll
 0002:0000022c       __imp__SysAllocString@4    1002122c     oleaut32:OLEAUT32.dll
 0002:00000230       \177OLEAUT32_NULL_THUNK_DATA 10021230     oleaut32:OLEAUT32.dll
 0002:00000234       __imp__UnregisterClassW@8  10021234     user32:USER32.dll
 0002:00000238       __imp__PostMessageW@16     10021238     user32:USER32.dll
 0002:0000023c       __imp__DefWindowProcW@16   1002123c     user32:USER32.dll
 0002:00000240       __imp__CallWindowProcW@20  10021240     user32:USER32.dll
 0002:00000244       __imp__RegisterClassExW@4  10021244     user32:USER32.dll
 0002:00000248       __imp__GetClassInfoExW@12  10021248     user32:USER32.dll
 0002:0000024c       __imp__CreateWindowExW@48  1002124c     user32:USER32.dll
 0002:00000250       __imp__IsWindow@4          10021250     user32:USER32.dll
 0002:00000254       __imp__IsChild@8           10021254     user32:USER32.dll
 0002:00000258       __imp__DestroyWindow@4     10021258     user32:USER32.dll
 0002:0000025c       __imp__ShowWindow@8        1002125c     user32:USER32.dll
 0002:00000260       __imp__SetWindowPos@28     10021260     user32:USER32.dll
 0002:00000264       __imp__CharNextW@4         10021264     user32:USER32.dll
 0002:00000268       __imp__SetFocus@4          10021268     user32:USER32.dll
 0002:0000026c       __imp__LoadBitmapW@8       1002126c     user32:USER32.dll
 0002:00000270       __imp__RegisterClassW@4    10021270     user32:USER32.dll
 0002:00000274       __imp__PeekMessageW@20     10021274     user32:USER32.dll
 0002:00000278       __imp__LoadCursorW@8       10021278     user32:USER32.dll
 0002:0000027c       __imp__GetParent@4         1002127c     user32:USER32.dll
 0002:00000280       __imp__SetWindowLongW@12   10021280     user32:USER32.dll
 0002:00000284       __imp__GetWindowLongW@8    10021284     user32:USER32.dll
 0002:00000288       __imp__PtInRect@12         10021288     user32:USER32.dll
 0002:0000028c       __imp__EqualRect@8         1002128c     user32:USER32.dll
 0002:00000290       __imp__OffsetRect@12       10021290     user32:USER32.dll
 0002:00000294       __imp__UnionRect@12        10021294     user32:USER32.dll
 0002:00000298       __imp__IntersectRect@12    10021298     user32:USER32.dll
 0002:0000029c       __imp__GetClientRect@8     1002129c     user32:USER32.dll
 0002:000002a0       __imp__InvalidateRect@12   100212a0     user32:USER32.dll
 0002:000002a4       __imp__SetWindowRgn@12     100212a4     user32:USER32.dll
 0002:000002a8       __imp__EndPaint@8          100212a8     user32:USER32.dll
 0002:000002ac       __imp__BeginPaint@8        100212ac     user32:USER32.dll
 0002:000002b0       __imp__ReleaseDC@8         100212b0     user32:USER32.dll
 0002:000002b4       __imp__GetDC@4             100212b4     user32:USER32.dll
 0002:000002b8       __imp__GetKeyState@4       100212b8     user32:USER32.dll
 0002:000002bc       __imp__GetFocus@0          100212bc     user32:USER32.dll
 0002:000002c0       \177USER32_NULL_THUNK_DATA 100212c0     user32:USER32.dll
 0002:000002c4       __imp__StringFromGUID2@12  100212c4     ole32:ole32.dll
 0002:000002c8       __imp__CoTaskMemAlloc@4    100212c8     ole32:ole32.dll
 0002:000002cc       __imp__CoTaskMemRealloc@8  100212cc     ole32:ole32.dll
 0002:000002d0       __imp__CoTaskMemFree@4     100212d0     ole32:ole32.dll
 0002:000002d4       __imp__ReadClassStm@8      100212d4     ole32:ole32.dll
 0002:000002d8       __imp__WriteClassStm@8     100212d8     ole32:ole32.dll
 0002:000002dc       __imp__CreateDataAdviseHolder@4 100212dc     ole32:ole32.dll
 0002:000002e0       __imp__OleSaveToStream@8   100212e0     ole32:ole32.dll
 0002:000002e4       __imp__CreateOleAdviseHolder@4 100212e4     ole32:ole32.dll
 0002:000002e8       __imp__OleRegGetUserType@12 100212e8     ole32:ole32.dll
 0002:000002ec       __imp__OleRegGetMiscStatus@12 100212ec     ole32:ole32.dll
 0002:000002f0       __imp__OleRegEnumVerbs@8   100212f0     ole32:ole32.dll
 0002:000002f4       __imp__CLSIDFromProgID@8   100212f4     ole32:ole32.dll
 0002:000002f8       __imp__CoCreateInstance@20 100212f8     ole32:ole32.dll
 0002:000002fc       \177ole32_NULL_THUNK_DATA  100212fc     ole32:ole32.dll
 0002:00000300       ___guard_check_icall_fptr  10021300     LIBCMT:guard_support.obj
 0002:00000304       ___castguard_check_failure_os_handled_fptr 10021304     LIBCMT:guard_support.obj
 0002:00000308       ___xc_a                    10021308     LIBCMT:initializers.obj
 0002:00000320       ___xc_z                    10021320     LIBCMT:initializers.obj
 0002:00000324       ___xi_a                    10021324     LIBCMT:initializers.obj
 0002:0000032c       ___acrt_stdio_initializer  1002132c     libucrt:stdio_initializer.obj
 0002:00000330       ___acrt_multibyte_initializer 10021330     libucrt:multibyte_initializer.obj
 0002:00000334       ___acrt_tran_sse2_initializer 10021334     libucrt:sse2_initializer.obj
 0002:00000338       ___xi_z                    10021338     LIBCMT:initializers.obj
 0002:0000033c       ___xl_a                    1002133c     LIBCMT:tlssup.obj
 0002:00000340       ___xl_z                    10021340     LIBCMT:tlssup.obj
 0002:00000344       ___xp_a                    10021344     LIBCMT:initializers.obj
 0002:00000348       ___acrt_locale_terminator  10021348     libucrt:locale_initializer.obj
 0002:0000034c       ___dcrt_console_output_terminator 1002134c     libucrt:console_output_initializer.obj
 0002:00000350       ___acrt_stdio_terminator   10021350     libucrt:stdio_initializer.obj
 0002:00000354       ___xp_z                    10021354     LIBCMT:initializers.obj
 0002:00000358       ___xt_a                    10021358     LIBCMT:initializers.obj
 0002:0000035c       ___xt_z                    1002135c     LIBCMT:initializers.obj
 0002:00000360       ??_C@_13HADIAKP@?$AAS@     10021360     OposVariant.obj
 0002:00000364       ??_C@_13LHMFKAAD@?$AAM@    10021364     OposVariant.obj
 0002:00000368       ??_C@_13MKMNOPIJ@?$AAD@    10021368     OposVariant.obj
 0002:0000036c       ??_C@_13OPKGLAFF@?$AAB@    1002136c     OposVariant.obj
 0002:00000370       ??_C@_17LLMMEOJD@?$AAV?$AAa?$AAl@ 10021370     OposVariant.obj
 0002:00000378       ??_C@_1BI@JFAIJMHL@?$AAF?$AAo?$AAr?$AAc?$AAe?$AAR?$AAe?$AAm?$AAo?$AAv?$AAe@ 10021378     OposVariant.obj
 0002:00000390       ??_C@_1BC@GCKHIPE@?$AAN?$AAo?$AAR?$AAe?$AAm?$AAo?$AAv?$AAe@ 10021390     OposVariant.obj
 0002:000003a4       ??_C@_1O@JDLOHAN@?$AAD?$AAe?$AAl?$AAe?$AAt?$AAe@ 100213a4     OposVariant.obj
 0002:000003b4       ??_C@_11LOCGONAA@@         100213b4     OposVariant.obj
 0002:000003b8       __GUID_00020412_0000_0000_c000_000000000046 100213b8     Biometrics.obj
 0002:000003c8       __GUID_00020401_0000_0000_c000_000000000046 100213c8     Biometrics.obj
 0002:000003d8       __GUID_55980ba0_35aa_11cf_b671_00aa004cd6d8 100213d8     Biometrics.obj
 0002:000003e8       __GUID_b196b28b_bab4_101a_b69c_00aa00341d07 100213e8     Biometrics.obj
 0002:000003f8       ??_7?$CComObject@V?$CComEnum@UIEnumConnections@@$1?_GUID_b196b287_bab4_101a_b69c_00aa00341d07@@3U__s_GUID@@BUtagCONNECTDATA@@V?$_Copy@UtagCONNECTDATA@@@ATL@@VCComSingleThreadModel@6@@ATL@@@ATL@@6B@ 100213f8     Biometrics.obj
 0002:00000418       ?_entries@?1??_GetEntries@?$CComEnum@UIEnumConnections@@$1?_GUID_b196b287_bab4_101a_b69c_00aa00341d07@@3U__s_GUID@@BUtagCONNECTDATA@@V?$_Copy@UtagCONNECTDATA@@@ATL@@VCComSingleThreadModel@6@@ATL@@SGPBU_ATL_INTMAP_ENTRY@3@XZ@4QBU43@B 10021418     Biometrics.obj
 0002:00000430       ??_7CComClassFactory@ATL@@6B@ 10021430     Biometrics.obj
 0002:00000448       ?_entries@?1??_GetEntries@CComClassFactory@ATL@@SGPBU_ATL_INTMAP_ENTRY@3@XZ@4QBU43@B 10021448     Biometrics.obj
 0002:00000460       __GUID_00000001_0000_0000_c000_000000000046 10021460     Biometrics.obj
 0002:00000470       _IID_IOPOSBiometrics_1_10  10021470     Biometrics.obj
 0002:00000480       ??_C@_1BK@BIGILECK@?$AAA?$AAd?$AAv?$AAa?$AAp?$AAi?$AA3?$AA2?$AA?4?$AAd?$AAl?$AAl@ 10021480     Biometrics.obj
 0002:0000049c       ??_C@_0BI@MNCFCPFK@RegCreateKeyTransactedW@ 1002149c     Biometrics.obj
 0002:000004b4       _IID_IOPOSBiometrics       100214b4     Biometrics.obj
 0002:000004c4       __GUID_b196b287_bab4_101a_b69c_00aa00341d07 100214c4     Biometrics.obj
 0002:000004d4       _LIBID_OposBiometrics_CCO  100214d4     Biometrics.obj
 0002:000004e4       _DIID__IOPOSBiometricsEvents 100214e4     Biometrics.obj
 0002:000004f4       _CLSID_OPOSBiometrics      100214f4     Biometrics.obj
 0002:00000504       __GUID_b196b285_bab4_101a_b69c_00aa00341d07 10021504     Biometrics.obj
 0002:00000514       __GUID_00000114_0000_0000_c000_000000000046 10021514     Biometrics.obj
 0002:00000524       __GUID_a6bc3ac0_dbaa_11ce_9de3_00aa004bb851 10021524     Biometrics.obj
 0002:00000534       __GUID_0000010c_0000_0000_c000_000000000046 10021534     Biometrics.obj
 0002:00000544       __GUID_00000146_0000_0000_c000_000000000046 10021544     Biometrics.obj
 0002:00000554       ??_7CComModule@ATL@@6B@    10021554     Biometrics.obj
 0002:0000057c       __GUID_00000000_0000_0000_c000_000000000046 1002157c     Biometrics.obj
 0002:0000058c       __GUID_00020400_0000_0000_c000_000000000046 1002158c     Biometrics.obj
 0002:000005a0       ?_entries@?1??_GetEntries@COPOSBiometrics@@SGPBU_ATL_INTMAP_ENTRY@ATL@@XZ@4QBU34@B 100215a0     Biometrics.obj
 0002:000006c0       __GUID_cf51ed10_62fe_11cf_bf86_00a0c9034836 100216c0     Biometrics.obj
 0002:000006d0       __GUID_0000010a_0000_0000_c000_000000000046 100216d0     Biometrics.obj
 0002:000006e0       __GUID_b196b283_bab4_101a_b69c_00aa00341d07 100216e0     Biometrics.obj
 0002:000006f0       __GUID_cb5bdc81_93c1_11cf_8f20_00805f2cd064 100216f0     Biometrics.obj
 0002:00000700       ?pPropMap@?1??GetPropertyMap@COPOSBiometrics@@SAPBUATL_PROPMAP_ENTRY@ATL@@XZ@4QBU34@B 10021700     Biometrics.obj
 0002:0000076c       ??_C@_17DGDADEHL@?$AA_?$AAc?$AAx@ 1002176c     Biometrics.obj
 0002:00000774       ??_C@_17IOIMFDBO@?$AA_?$AAc?$AAy@ 10021774     Biometrics.obj
 0002:0000077c       __GUID_922eada0_3424_11cf_b670_00aa004cd6d8 1002177c     Biometrics.obj
 0002:0000078c       __GUID_9c2cad80_3424_11cf_b670_00aa004cd6d8 1002178c     Biometrics.obj
 0002:0000079c       __GUID_00000119_0000_0000_c000_000000000046 1002179c     Biometrics.obj
 0002:000007ac       __GUID_b196b289_bab4_101a_b69c_00aa00341d07 100217ac     Biometrics.obj
 0002:000007bc       __GUID_00000117_0000_0000_c000_000000000046 100217bc     Biometrics.obj
 0002:000007cc       ??_7?$CComObjectCached@VCComClassFactory@ATL@@@ATL@@6B@ 100217cc     Biometrics.obj
 0002:000007e4       ??_C@_1CE@PGFMOFKI@?$AAS?$AAt?$AAa?$AAt?$AAu?$AAs?$AAU?$AAp?$AAd?$AAa?$AAt?$AAe?$AAE?$AAv?$AAe@ 100217e4     Biometrics.obj
 0002:00000808       ??_C@_1BG@LODEBHDD@?$AAE?$AAr?$AAr?$AAo?$AAr?$AAE?$AAv?$AAe?$AAn?$AAt@ 10021808     Biometrics.obj
 0002:00000820       ??_C@_1BM@CBGEBBBJ@?$AAD?$AAi?$AAr?$AAe?$AAc?$AAt?$AAI?$AAO?$AAE?$AAv?$AAe?$AAn?$AAt@ 10021820     Biometrics.obj
 0002:0000083c       ??_C@_1BE@IEBMACEM@?$AAD?$AAa?$AAt?$AAa?$AAE?$AAv?$AAe?$AAn?$AAt@ 1002183c     Biometrics.obj
 0002:00000850       __GUID_b196b286_bab4_101a_b69c_00aa00341d07 10021850     Biometrics.obj
 0002:00000860       ??_C@_1BC@ENICKDH@?$AAC?$AAo?$AAn?$AAt?$AAe?$AAn?$AAt?$AAs@ 10021860     Biometrics.obj
 0002:00000874       ??_C@_1M@KANJNLFF@?$AAC?$AAL?$AAS?$AAI?$AAD@ 10021874     Biometrics.obj
 0002:00000880       ??_C@_1M@EJNEECMJ@?$AAA?$AAp?$AAp?$AAI?$AAD@ 10021880     Biometrics.obj
 0002:0000088c       ??_7?$CComObject@V?$CComEnum@UIEnumConnectionPoints@@$1?_GUID_b196b285_bab4_101a_b69c_00aa00341d07@@3U__s_GUID@@BPAUIConnectionPoint@@V?$_CopyInterface@UIConnectionPoint@@@ATL@@VCComSingleThreadModel@6@@ATL@@@ATL@@6B@ 1002188c     Biometrics.obj
 0002:000008ac       ?rgszNeverDelete@CRegParser@ATL@@1QBQB_WB 100218ac     Biometrics.obj
 0002:000008dc       ??_7CRegObject@ATL@@6B@    100218dc     Biometrics.obj
 0002:000008f4       __GUID_0000010e_0000_0000_c000_000000000046 100218f4     Biometrics.obj
 0002:00000904       __GUID_b196b288_bab4_101a_b69c_00aa00341d07 10021904     Biometrics.obj
 0002:00000914       ??_C@_1CK@OEKPKBNA@?$AAC?$AAo?$AAm?$AAp?$AAo?$AAn?$AAe?$AAn?$AAt?$AA?5?$AAC?$AAa?$AAt?$AAe?$AAg@ 10021914     Biometrics.obj
 0002:00000940       ??_C@_1BC@NKMMNMGL@?$AAF?$AAi?$AAl?$AAe?$AAT?$AAy?$AAp?$AAe@ 10021940     Biometrics.obj
 0002:00000954       ??_C@_1BE@EKPAFMCP@?$AAI?$AAn?$AAt?$AAe?$AAr?$AAf?$AAa?$AAc?$AAe@ 10021954     Biometrics.obj
 0002:00000968       ??_C@_1BC@MAICEHGI@?$AAH?$AAa?$AAr?$AAd?$AAw?$AAa?$AAr?$AAe@ 10021968     Biometrics.obj
 0002:0000097c       ??_C@_19HLLLM@?$AAM?$AAi?$AAm?$AAe@ 1002197c     Biometrics.obj
 0002:00000988       ??_C@_17OMAOINJK@?$AAS?$AAA?$AAM@ 10021988     Biometrics.obj
 0002:00000990       ??_C@_1BC@IBECJAAI@?$AAS?$AAE?$AAC?$AAU?$AAR?$AAI?$AAT?$AAY@ 10021990     Biometrics.obj
 0002:000009a4       ??_C@_1O@GBFINDKL@?$AAS?$AAY?$AAS?$AAT?$AAE?$AAM@ 100219a4     Biometrics.obj
 0002:000009b4       ??_C@_1BC@EAHCMADO@?$AAS?$AAo?$AAf?$AAt?$AAw?$AAa?$AAr?$AAe@ 100219b4     Biometrics.obj
 0002:000009c8       ??_C@_1BA@JIHHIEDE@?$AAT?$AAy?$AAp?$AAe?$AAL?$AAi?$AAb@ 100219c8     Biometrics.obj
 0002:000009d8       ?map@?1??HKeyFromString@CRegParser@ATL@@KAPAUHKEY__@@PA_W@Z@4QBUkeymap@?1??123@KAPAU4@0@Z@B 100219d8     Biometrics.obj
 0002:00000a48       ??_C@_19NCHLBIN@?$AAH?$AAK?$AAC?$AAR@ 10021a48     Biometrics.obj
 0002:00000a54       ??_C@_19JAPAIJDE@?$AAH?$AAK?$AAC?$AAU@ 10021a54     Biometrics.obj
 0002:00000a60       ??_C@_19PEALEEJB@?$AAH?$AAK?$AAL?$AAM@ 10021a60     Biometrics.obj
 0002:00000a6c       ??_C@_17PJOJPMPB@?$AAH?$AAK?$AAU@ 10021a6c     Biometrics.obj
 0002:00000a74       ??_C@_19PNBHMJPL@?$AAH?$AAK?$AAP?$AAD@ 10021a74     Biometrics.obj
 0002:00000a80       ??_C@_19GFFAIJHG@?$AAH?$AAK?$AAD?$AAD@ 10021a80     Biometrics.obj
 0002:00000a8c       ??_C@_19OFICIBHH@?$AAH?$AAK?$AAC?$AAC@ 10021a8c     Biometrics.obj
 0002:00000a98       ??_C@_1CE@PACHPJFI@?$AAH?$AAK?$AAE?$AAY?$AA_?$AAC?$AAL?$AAA?$AAS?$AAS?$AAE?$AAS?$AA_?$AAR?$AAO@ 10021a98     Biometrics.obj
 0002:00000abc       ??_C@_1CE@HLHNCBPM@?$AAH?$AAK?$AAE?$AAY?$AA_?$AAC?$AAU?$AAR?$AAR?$AAE?$AAN?$AAT?$AA_?$AAU?$AAS@ 10021abc     Biometrics.obj
 0002:00000ae0       ??_C@_1CG@GFBEANJL@?$AAH?$AAK?$AAE?$AAY?$AA_?$AAL?$AAO?$AAC?$AAA?$AAL?$AA_?$AAM?$AAA?$AAC?$AAH@ 10021ae0     Biometrics.obj
 0002:00000b08       ??_C@_1BG@BGODANIO@?$AAH?$AAK?$AAE?$AAY?$AA_?$AAU?$AAS?$AAE?$AAR?$AAS@ 10021b08     Biometrics.obj
 0002:00000b20       ??_C@_1CM@KHNNAOIC@?$AAH?$AAK?$AAE?$AAY?$AA_?$AAP?$AAE?$AAR?$AAF?$AAO?$AAR?$AAM?$AAA?$AAN?$AAC@ 10021b20     Biometrics.obj
 0002:00000b4c       ??_C@_1BM@HAGMMHIA@?$AAH?$AAK?$AAE?$AAY?$AA_?$AAD?$AAY?$AAN?$AA_?$AAD?$AAA?$AAT?$AAA@ 10021b4c     Biometrics.obj
 0002:00000b68       ??_C@_1CI@BBJOACGG@?$AAH?$AAK?$AAE?$AAY?$AA_?$AAC?$AAU?$AAR?$AAR?$AAE?$AAN?$AAT?$AA_?$AAC?$AAO@ 10021b68     Biometrics.obj
 0002:00000b90       __GUID_00000113_0000_0000_c000_000000000046 10021b90     Biometrics.obj
 0002:00000ba0       __GUID_00000109_0000_0000_c000_000000000046 10021ba0     Biometrics.obj
 0002:00000bb0       __GUID_7fd52380_4e07_101b_ae2d_08002b2ec713 10021bb0     Biometrics.obj
 0002:00000bc0       __GUID_1c2056cc_5ef4_101b_8bc8_00aa003e3b29 10021bc0     Biometrics.obj
 0002:00000bd0       ??_C@_1EA@NHKLICFA@?$AAH?$AAK?$AAC?$AAU?$AA?$AN?$AA?6?$AA?$HL?$AA?7?$AAS?$AAo?$AAf?$AAt?$AAw?$AAa?$AAr@ 10021bd0     Biometrics.obj
 0002:00000c10       ??_C@_1BE@LJOLIMEM@?$AA?$AN?$AA?6?$AA?7?$AA?$HN?$AA?$AN?$AA?6?$AA?$HN?$AA?$AN?$AA?6@ 10021c10     Biometrics.obj
 0002:00000c24       __GUID_00000112_0000_0000_c000_000000000046 10021c24     Biometrics.obj
 0002:00000c34       ??_C@_1O@MNLDABAF@?$AAM?$AAo?$AAd?$AAu?$AAl?$AAe@ 10021c34     Biometrics.obj
 0002:00000c44       ??_C@_1BG@JBACFMF@?$AAM?$AAo?$AAd?$AAu?$AAl?$AAe?$AA_?$AAR?$AAa?$AAw@ 10021c44     Biometrics.obj
 0002:00000c5c       ??_C@_1BC@KAILKFFG@?$AAR?$AAE?$AAG?$AAI?$AAS?$AAT?$AAR?$AAY@ 10021c5c     Biometrics.obj
 0002:00000c70       __GUID_3af24292_0c96_11ce_a0cf_00aa00600ab8 10021c70     Biometrics.obj
 0002:00000c80       __GUID_00000127_0000_0000_c000_000000000046 10021c80     Biometrics.obj
 0002:00000c90       __GUID_0000010d_0000_0000_c000_000000000046 10021c90     Biometrics.obj
 0002:00000ca0       ??_C@_1M@PPPPCDEP@?$AAA?$AAP?$AAP?$AAI?$AAD@ 10021ca0     Biometrics.obj
 0002:00000cac       ??_7?$CComContainedObject@VCOPOSBiometrics@@@ATL@@6B?$IDispatchImpl@UIOPOSBiometrics@@$1?IID_IOPOSBiometrics@@3U_GUID@@B$1?LIBID_OposBiometrics_CCO@@3U3@B$00$0A@VCComTypeInfoHolder@ATL@@@1@@ 10021cac     Biometrics.obj
 0002:00000e0c       ??_7?$CComContainedObject@VCOPOSBiometrics@@@ATL@@6BCComControlBase@1@@ 10021e0c     Biometrics.obj
 0002:00000e20       ??_7?$CComContainedObject@VCOPOSBiometrics@@@ATL@@6B?$CWindowImpl@VCOPOSBiometrics@@VCWindow@ATL@@V?$CWinTraits@$0FGAAAAAA@$0A@@3@@1@@ 10021e20     Biometrics.obj
 0002:00000e30       ??_7?$CComContainedObject@VCOPOSBiometrics@@@ATL@@6B?$IPersistStreamInitImpl@VCOPOSBiometrics@@@1@@ 10021e30     Biometrics.obj
 0002:00000e54       ??_7?$CComContainedObject@VCOPOSBiometrics@@@ATL@@6B?$IOleControlImpl@VCOPOSBiometrics@@@1@@ 10021e54     Biometrics.obj
 0002:00000e70       ??_7?$CComContainedObject@VCOPOSBiometrics@@@ATL@@6B?$IOleObjectImpl@VCOPOSBiometrics@@@1@@ 10021e70     Biometrics.obj
 0002:00000ed0       ??_7?$CComContainedObject@VCOPOSBiometrics@@@ATL@@6B?$IOleInPlaceActiveObjectImpl@VCOPOSBiometrics@@@1@@ 10021ed0     Biometrics.obj
 0002:00000ef8       ??_7?$CComContainedObject@VCOPOSBiometrics@@@ATL@@6B?$IViewObjectExImpl@VCOPOSBiometrics@@@1@@ 10021ef8     Biometrics.obj
 0002:00000f34       ??_7?$CComContainedObject@VCOPOSBiometrics@@@ATL@@6B?$IOleInPlaceObjectWindowlessImpl@VCOPOSBiometrics@@@1@@ 10021f34     Biometrics.obj
 0002:00000f60       ??_7?$CComContainedObject@VCOPOSBiometrics@@@ATL@@6B?$IConnectionPointContainerImpl@VCOPOSBiometrics@@@1@@ 10021f60     Biometrics.obj
 0002:00000f74       ??_7?$CComContainedObject@VCOPOSBiometrics@@@ATL@@6B?$IPersistStorageImpl@VCOPOSBiometrics@@@1@@ 10021f74     Biometrics.obj
 0002:00000f9c       ??_7?$CComContainedObject@VCOPOSBiometrics@@@ATL@@6B?$ISpecifyPropertyPagesImpl@VCOPOSBiometrics@@@1@@ 10021f9c     Biometrics.obj
 0002:00000fac       ??_7?$CComContainedObject@VCOPOSBiometrics@@@ATL@@6B?$IQuickActivateImpl@VCOPOSBiometrics@@@1@@ 10021fac     Biometrics.obj
 0002:00000fc4       ??_7?$CComContainedObject@VCOPOSBiometrics@@@ATL@@6B?$IDataObjectImpl@VCOPOSBiometrics@@@1@@ 10021fc4     Biometrics.obj
 0002:00000ff4       ??_7?$CComContainedObject@VCOPOSBiometrics@@@ATL@@6B?$IProvideClassInfo2Impl@$1?CLSID_OPOSBiometrics@@3U_GUID@@B$1?DIID__IOPOSBiometricsEvents@@3U2@B$1?LIBID_OposBiometrics_CCO@@3U2@B$00$0A@VCComTypeInfoHolder@ATL@@@1@@ 10021ff4     Biometrics.obj
 0002:00001008       ??_7?$CComContainedObject@VCOPOSBiometrics@@@ATL@@6B?$IObjectSafetyImpl@VCOPOSBiometrics@@$02@1@@ 10022008     Biometrics.obj
 0002:00001020       ??_7?$CComContainedObject@VCOPOSBiometrics@@@ATL@@6B?$IPropertyNotifySinkCP@VCOPOSBiometrics@@VCComDynamicUnkArray@ATL@@@1@@ 10022020     Biometrics.obj
 0002:00001040       ??_7?$CComContainedObject@VCOPOSBiometrics@@@ATL@@6B?$CProxy_IOPOSEvents@VCOPOSBiometrics@@@@@ 10022040     Biometrics.obj
 0002:00001060       ??_7?$CComAggObject@VCOPOSBiometrics@@@ATL@@6B@ 10022060     Biometrics.obj
 0002:00001070       ??_7?$CComObject@VCOPOSBiometrics@@@ATL@@6B?$IDispatchImpl@UIOPOSBiometrics@@$1?IID_IOPOSBiometrics@@3U_GUID@@B$1?LIBID_OposBiometrics_CCO@@3U3@B$00$0A@VCComTypeInfoHolder@ATL@@@1@@ 10022070     Biometrics.obj
 0002:000011d0       ??_7?$CComObject@VCOPOSBiometrics@@@ATL@@6BCComControlBase@1@@ 100221d0     Biometrics.obj
 0002:000011e4       ??_7?$CComObject@VCOPOSBiometrics@@@ATL@@6B?$CWindowImpl@VCOPOSBiometrics@@VCWindow@ATL@@V?$CWinTraits@$0FGAAAAAA@$0A@@3@@1@@ 100221e4     Biometrics.obj
 0002:000011f4       ??_7?$CComObject@VCOPOSBiometrics@@@ATL@@6B?$IPersistStreamInitImpl@VCOPOSBiometrics@@@1@@ 100221f4     Biometrics.obj
 0002:00001218       ??_7?$CComObject@VCOPOSBiometrics@@@ATL@@6B?$IOleControlImpl@VCOPOSBiometrics@@@1@@ 10022218     Biometrics.obj
 0002:00001234       ??_7?$CComObject@VCOPOSBiometrics@@@ATL@@6B?$IOleObjectImpl@VCOPOSBiometrics@@@1@@ 10022234     Biometrics.obj
 0002:00001294       ??_7?$CComObject@VCOPOSBiometrics@@@ATL@@6B?$IOleInPlaceActiveObjectImpl@VCOPOSBiometrics@@@1@@ 10022294     Biometrics.obj
 0002:000012bc       ??_7?$CComObject@VCOPOSBiometrics@@@ATL@@6B?$IViewObjectExImpl@VCOPOSBiometrics@@@1@@ 100222bc     Biometrics.obj
 0002:000012f8       ??_7?$CComObject@VCOPOSBiometrics@@@ATL@@6B?$IOleInPlaceObjectWindowlessImpl@VCOPOSBiometrics@@@1@@ 100222f8     Biometrics.obj
 0002:00001324       ??_7?$CComObject@VCOPOSBiometrics@@@ATL@@6B?$IConnectionPointContainerImpl@VCOPOSBiometrics@@@1@@ 10022324     Biometrics.obj
 0002:00001338       ??_7?$CComObject@VCOPOSBiometrics@@@ATL@@6B?$IPersistStorageImpl@VCOPOSBiometrics@@@1@@ 10022338     Biometrics.obj
 0002:00001360       ??_7?$CComObject@VCOPOSBiometrics@@@ATL@@6B?$ISpecifyPropertyPagesImpl@VCOPOSBiometrics@@@1@@ 10022360     Biometrics.obj
 0002:00001370       ??_7?$CComObject@VCOPOSBiometrics@@@ATL@@6B?$IQuickActivateImpl@VCOPOSBiometrics@@@1@@ 10022370     Biometrics.obj
 0002:00001388       ??_7?$CComObject@VCOPOSBiometrics@@@ATL@@6B?$IDataObjectImpl@VCOPOSBiometrics@@@1@@ 10022388     Biometrics.obj
 0002:000013b8       ??_7?$CComObject@VCOPOSBiometrics@@@ATL@@6B?$IProvideClassInfo2Impl@$1?CLSID_OPOSBiometrics@@3U_GUID@@B$1?DIID__IOPOSBiometricsEvents@@3U2@B$1?LIBID_OposBiometrics_CCO@@3U2@B$00$0A@VCComTypeInfoHolder@ATL@@@1@@ 100223b8     Biometrics.obj
 0002:000013cc       ??_7?$CComObject@VCOPOSBiometrics@@@ATL@@6B?$IObjectSafetyImpl@VCOPOSBiometrics@@$02@1@@ 100223cc     Biometrics.obj
 0002:000013e4       ??_7?$CComObject@VCOPOSBiometrics@@@ATL@@6B?$IPropertyNotifySinkCP@VCOPOSBiometrics@@VCComDynamicUnkArray@ATL@@@1@@ 100223e4     Biometrics.obj
 0002:00001404       ??_7?$CComObject@VCOPOSBiometrics@@@ATL@@6B?$CProxy_IOPOSEvents@VCOPOSBiometrics@@@@@ 10022404     Biometrics.obj
 0002:00001424       ??_C@_1O@GBFKGNEO@?$AAA?$AAT?$AAL?$AA?3?$AA?$CF?$AAp@ 10022424     Biometrics.obj
 0002:00001434       __GUID_b196b284_bab4_101a_b69c_00aa00341d07 10022434     Biometrics.obj
 0002:00001444       ??_C@_1BA@PICGEGJB@?$AAD?$AAI?$AAS?$AAP?$AAL?$AAA?$AAY@ 10022444     Biometrics.obj
 0002:00001454       __GUID_9bfbbc02_eff1_101a_84ed_00aa00341d07 10022454     Biometrics.obj
 0002:00001464       ?_entries@?1??_GetEntries@?$CComEnum@UIEnumConnectionPoints@@$1?_GUID_b196b285_bab4_101a_b69c_00aa00341d07@@3U__s_GUID@@BPAUIConnectionPoint@@V?$_CopyInterface@UIConnectionPoint@@@ATL@@VCComSingleThreadModel@6@@ATL@@SGPBU_ATL_INTMAP_ENTRY@3@XZ@4QBU43@B 10022464     Biometrics.obj
 0002:0000147c       ??_C@_0BG@EKFFMJIO@RegOpenKeyTransactedW@ 1002247c     Biometrics.obj
 0002:00001494       ??_C@_0BI@HAKLOOGP@RegDeleteKeyTransactedW@ 10022494     Biometrics.obj
 0002:000014ac       ??_C@_0BA@LILAPHGE@RegDeleteKeyExW@ 100224ac     Biometrics.obj
 0002:000014bc       ??_C@_19ILOCMLCJ@?$AA?4?$AAt?$AAl?$AAb@ 100224bc     Biometrics.obj
 0002:000014c8       __GUID_0002e012_0000_0000_c000_000000000046 100224c8     Biometrics.obj
 0002:000014d8       ??_C@_1O@FHBGLCIO@?$AAC?$AAL?$AAS?$AAI?$AAD?$AA?2@ 100224d8     Biometrics.obj
 0002:000014e8       ??_C@_1CK@IFBKBFAA@?$AA?2?$AAR?$AAe?$AAq?$AAu?$AAi?$AAr?$AAe?$AAd?$AA?5?$AAC?$AAa?$AAt?$AAe?$AAg@ 100224e8     Biometrics.obj
 0002:00001514       ??_C@_1DA@BIHALFED@?$AA?2?$AAI?$AAm?$AAp?$AAl?$AAe?$AAm?$AAe?$AAn?$AAt?$AAe?$AAd?$AA?5?$AAC?$AAa@ 10022514     Biometrics.obj
 0002:00001544       ??_C@_1BK@EDKOLFBJ@?$AAO?$AAL?$AAE?$AAA?$AAU?$AAT?$AA3?$AA2?$AA?4?$AAD?$AAL?$AAL@ 10022544     Biometrics.obj
 0002:00001560       ??_C@_0BJ@CNLFOMHB@UnRegisterTypeLibForUser@ 10022560     Biometrics.obj
 0002:0000157c       ??_C@_0BH@LBOMMKPJ@RegisterTypeLibForUser@ 1002257c     Biometrics.obj
 0002:00001594       ??_C@_0P@MMNMMLGK@COFreezeEvents@ 10022594     BiometricsImpl.obj
 0002:000015a4       ??_C@_0BC@OGCGGIMP@GetPropertyNumber@ 100225a4     BiometricsImpl.obj
 0002:000015b8       ??_C@_0BC@MDCNODNB@SetPropertyNumber@ 100225b8     BiometricsImpl.obj
 0002:000015cc       ??_C@_0BC@CFCCMIMD@GetPropertyString@ 100225cc     BiometricsImpl.obj
 0002:000015e0       ??_C@_0BC@CJEDNN@SetPropertyString@ 100225e0     BiometricsImpl.obj
 0002:000015f4       ??_C@_0M@LNPKKKDA@OpenService@ 100225f4     BiometricsImpl.obj
 0002:00001600       ??_C@_0M@PCMCHHMH@CheckHealth@ 10022600     BiometricsImpl.obj
 0002:0000160c       ??_C@_0M@JGMIDNEK@ClaimDevice@ 1002260c     BiometricsImpl.obj
 0002:00001618       ??_C@_0L@BNEIFEJC@ClearInput@ 10022618     BiometricsImpl.obj
 0002:00001624       ??_C@_0N@DDFIIBMP@CloseService@ 10022624     BiometricsImpl.obj
 0002:00001634       ??_C@_08EEIHICPC@DirectIO@ 10022634     BiometricsImpl.obj
 0002:00001640       ??_C@_0O@BCPMENMJ@ReleaseDevice@ 10022640     BiometricsImpl.obj
 0002:00001650       ??_C@_0BA@GFABKEEE@ResetStatistics@ 10022650     BiometricsImpl.obj
 0002:00001660       ??_C@_0BD@DPALHJGC@RetrieveStatistics@ 10022660     BiometricsImpl.obj
 0002:00001674       ??_C@_0BB@KOHIKNFC@UpdateStatistics@ 10022674     BiometricsImpl.obj
 0002:00001688       ??_C@_0BH@PBKBNMGB@CompareFirmwareVersion@ 10022688     BiometricsImpl.obj
 0002:000016a0       ??_C@_0P@FBPDPIPA@UpdateFirmware@ 100226a0     BiometricsImpl.obj
 0002:000016b0       ??_C@_0BF@CMAPCJGM@ClearInputProperties@ 100226b0     BiometricsImpl.obj
 0002:000016c8       ??_C@_0BD@NCBJJODO@BeginEnrollCapture@ 100226c8     BiometricsImpl.obj
 0002:000016dc       ??_C@_0BD@DGMDGFJO@BeginVerifyCapture@ 100226dc     BiometricsImpl.obj
 0002:000016f0       ??_C@_0L@GDHLKFDG@EndCapture@ 100226f0     BiometricsImpl.obj
 0002:000016fc       ??_C@_08CMMNHGIP@Identify@ 100226fc     BiometricsImpl.obj
 0002:00001708       ??_C@_0O@MJNIFCOM@IdentifyMatch@ 10022708     BiometricsImpl.obj
 0002:00001718       ??_C@_0BE@CCPPGGAJ@ProcessPrematchData@ 10022718     BiometricsImpl.obj
 0002:0000172c       ??_C@_06NDEBMOO@Verify@    1002272c     BiometricsImpl.obj
 0002:00001734       ??_C@_0M@PJLEGMK@VerifyMatch@ 10022734     BiometricsImpl.obj
 0002:00001740       ??_7?$CProxy_IOPOSEvents@VCOPOSBiometrics@@@@6B@ 10022740     BiometricsImpl.obj
 0002:00001760       ??_C@_1BA@IFHENID@?$AA?$FL?$AAE?$AAr?$AAr?$AAo?$AAr?$AA?$FN@ 10022760     BiometricsImpl.obj
 0002:00001770       ??_C@_0CN@LNAAFFHC@SOFTWARE?2OLEforRetail?2ServiceOP@ 10022770     BiometricsImpl.obj
 0002:000017a0       ??_C@_1M@IAIJHCCH@?$AAC?$AAl?$AAo?$AAs?$AAe@ 100227a0     BiometricsImpl.obj
 0002:000017ac       ??_C@_1M@PCPKGJAH@?$AAC?$AAl?$AAa?$AAi?$AAm@ 100227ac     BiometricsImpl.obj
 0002:000017b8       ??_C@_1BA@NDFKIOCP@?$AAR?$AAe?$AAl?$AAe?$AAa?$AAs?$AAe@ 100227b8     BiometricsImpl.obj
 0002:000017c8       ??_C@_0L@DNBIECGH@Biometrics@ 100227c8     BiometricsImpl.obj
 0002:000017d4       ??_C@_1BM@IJMNMBPK@?$AAG?$AAe?$AAt?$AAO?$AAp?$AAe?$AAn?$AAR?$AAe?$AAs?$AAu?$AAl?$AAt@ 100227d4     BiometricsImpl.obj
 0002:000017f0       _IID_IDispatch             100227f0     uuid:oaidl_i.obj
 0002:00001800       _IID_IPropertyNotifySink   10022800     uuid:ocidl_i.obj
 0002:00001810       _GUID_NULL                 10022810     uuid:cguid_i.obj
 0002:00001820       _CLSID_StdGlobalInterfaceTable 10022820     uuid:cguid_i.obj
 0002:00001830       _CLSID_StdComponentCategoriesMgr 10022830     uuid:ieguids.obj
 0002:00001840       _IID_IUnknown              10022840     uuid:unknwn_i.obj
 0002:00001850       ??_C@_1EC@JIJBPKFM@?$AAa?$AAp?$AAi?$AA?9?$AAm?$AAs?$AA?9?$AAw?$AAi?$AAn?$AA?9?$AAc?$AAo?$AAr?$AAe@ 10022850     LIBCMT:thread_safe_statics.obj
 0002:00001894       ??_C@_1BK@MGMFAEKH@?$AAk?$AAe?$AAr?$AAn?$AAe?$AAl?$AA3?$AA2?$AA?4?$AAd?$AAl?$AAl@ 10022894     LIBCMT:thread_safe_statics.obj
 0002:000018b0       ??_C@_0BJ@JEBJOJFJ@SleepConditionVariableCS@ 100228b0     LIBCMT:thread_safe_statics.obj
 0002:000018cc       ??_C@_0BJ@PGPPEPCC@WakeAllConditionVariable@ 100228cc     LIBCMT:thread_safe_statics.obj
 0002:000018e5       ?nothrow@std@@3Unothrow_t@1@B 100228e5     LIBCMT:std_nothrow.obj
 0002:000018f0       __pDefaultRawDllMain       100228f0     LIBCMT:dll_dllmain.obj
 0002:000018f0       __pRawDllMain              100228f0     LIBCMT:dll_dllmain.obj
 0002:000018f8       ??_7exception@std@@6B@     100228f8     LIBCMT:throw_bad_alloc.obj
 0002:00001900       ??_C@_0BC@EOODALEL@Unknown?5exception@ 10022900     LIBCMT:throw_bad_alloc.obj
 0002:00001918       ??_7bad_alloc@std@@6B@     10022918     LIBCMT:throw_bad_alloc.obj
 0002:00001920       ??_C@_0P@GHFPNOJB@bad?5allocation@ 10022920     LIBCMT:throw_bad_alloc.obj
 0002:00001934       ??_7bad_array_new_length@std@@6B@ 10022934     LIBCMT:throw_bad_alloc.obj
 0002:0000193c       ??_C@_0BF@KINCDENJ@bad?5array?5new?5length@ 1002293c     LIBCMT:throw_bad_alloc.obj
 0002:00001958       ??_7type_info@@6B@         10022958     LIBCMT:std_type_info_static.obj
 0002:0000195c       _GUID_ATLVer110            1002295c     atls:atlbase.obj
 0002:00001970       ??_C@_1IC@ONKHOIDK@?$AAE?$AAR?$AAR?$AAO?$AAR?$AA?5?$AA?3?$AA?5?$AAU?$AAn?$AAa?$AAb?$AAl?$AAe?$AA?5@ 10022970     atls:atlbase.obj
 0002:000019f4       ??_C@_0N@FJEPLCIH@atlthunk?4dll@ 100229f4     atls:atlthunk.obj
 0002:00001a04       ??_C@_0BG@GAKFHCBM@AtlThunk_AllocateData@ 10022a04     atls:atlthunk.obj
 0002:00001a1c       ??_C@_0BC@JKONFIAH@AtlThunk_InitData@ 10022a1c     atls:atlthunk.obj
 0002:00001a30       ??_C@_0BE@IAOEELAK@AtlThunk_DataToCode@ 10022a30     atls:atlthunk.obj
 0002:00001a44       ??_C@_0BC@GBGKAIPI@AtlThunk_FreeData@ 10022a44     atls:atlthunk.obj
 0002:00001a58       __pDestructExceptionObject 10022a58     libvcruntime:ehhelpers.obj
 0002:00001a60       ??_7bad_exception@std@@6B@ 10022a60     libvcruntime:frame.obj
 0002:00001a68       ??_C@_0O@DPKOEFFH@bad?5exception@ 10022a68     libvcruntime:frame.obj
 0002:00001e00       ??_C@_08EHJDFFNH@__based?$CI@ 10022e00     libvcruntime:undname.obj
 0002:00001e0c       ??_C@_07KOLFKCDI@__cdecl@  10022e0c     libvcruntime:undname.obj
 0002:00001e14       ??_C@_08GHMPAG@__pascal@   10022e14     libvcruntime:undname.obj
 0002:00001e20       ??_C@_09IFJBGAPI@__stdcall@ 10022e20     libvcruntime:undname.obj
 0002:00001e2c       ??_C@_0L@NPHFGOKO@__thiscall@ 10022e2c     libvcruntime:undname.obj
 0002:00001e38       ??_C@_0L@JMKHOMEK@__fastcall@ 10022e38     libvcruntime:undname.obj
 0002:00001e44       ??_C@_0N@BCKKPABJ@__vectorcall@ 10022e44     libvcruntime:undname.obj
 0002:00001e54       ??_C@_09HIJEGCPM@__clrcall@ 10022e54     libvcruntime:undname.obj
 0002:00001e60       ??_C@_06GHPCKEAG@__eabi@   10022e60     libvcruntime:undname.obj
 0002:00001e68       ??_C@_09IOPIDJLG@__swift_1@ 10022e68     libvcruntime:undname.obj
 0002:00001e74       ??_C@_09KFNFGKHF@__swift_2@ 10022e74     libvcruntime:undname.obj
 0002:00001e80       ??_C@_09LMMOFLDE@__swift_3@ 10022e80     libvcruntime:undname.obj
 0002:00001e8c       ??_C@_07JOMMBBKO@__ptr64@  10022e8c     libvcruntime:undname.obj
 0002:00001e94       ??_C@_0L@PILCLIHE@__restrict@ 10022e94     libvcruntime:undname.obj
 0002:00001ea0       ??_C@_0M@GFIIJFMG@__unaligned@ 10022ea0     libvcruntime:undname.obj
 0002:00001eac       ??_C@_09DHDLOLLB@restrict?$CI@ 10022eac     libvcruntime:undname.obj
 0002:00001eb6       ??_C@_00CNPNBAHC@@         10022eb6     libvcruntime:undname.obj
 0002:00001eb8       ??_C@_04NIHEBCM@?5new@     10022eb8     libvcruntime:undname.obj
 0002:00001ec0       ??_C@_07FPCDHGMM@?5delete@ 10022ec0     libvcruntime:undname.obj
 0002:00001ec8       ??_C@_01NEMOKFLO@?$DN@     10022ec8     libvcruntime:undname.obj
 0002:00001ecc       ??_C@_02GPIOPFAK@?$DO?$DO@ 10022ecc     libvcruntime:undname.obj
 0002:00001ed0       ??_C@_02FODMEDOG@?$DM?$DM@ 10022ed0     libvcruntime:undname.obj
 0002:00001ed4       ??_C@_01DCLJPIOD@?$CB@     10022ed4     libvcruntime:undname.obj
 0002:00001ed8       ??_C@_02EGOFBIJA@?$DN?$DN@ 10022ed8     libvcruntime:undname.obj
 0002:00001edc       ??_C@_02FDNJECIE@?$CB?$DN@ 10022edc     libvcruntime:undname.obj
 0002:00001ee0       ??_C@_02GPECMEKF@?$FL?$FN@ 10022ee0     libvcruntime:undname.obj
 0002:00001ee4       ??_C@_08LHJFAFGD@operator@ 10022ee4     libvcruntime:undname.obj
 0002:00001ef0       ??_C@_02HBOOOICD@?9?$DO@   10022ef0     libvcruntime:undname.obj
 0002:00001ef4       ??_C@_01NBENCBCI@?$CK@     10022ef4     libvcruntime:undname.obj
 0002:00001ef8       ??_C@_02ECNGHCIF@?$CL?$CL@ 10022ef8     libvcruntime:undname.obj
 0002:00001efc       ??_C@_02BAABKJLB@?9?9@     10022efc     libvcruntime:undname.obj
 0002:00001f00       ??_C@_01JOAMLHOP@?9@       10022f00     libvcruntime:undname.obj
 0002:00001f04       ??_C@_01MIFGBAGJ@?$CL@     10022f04     libvcruntime:undname.obj
 0002:00001f08       ??_C@_01HNPIGOCE@?$CG@     10022f08     libvcruntime:undname.obj
 0002:00001f0c       ??_C@_03MNHNFDLC@?9?$DO?$CK@ 10022f0c     libvcruntime:undname.obj
 0002:00001f10       ??_C@_01KMDKNFGN@?1@       10022f10     libvcruntime:undname.obj
 0002:00001f14       ??_C@_01FGNFDNOH@?$CF@     10022f14     libvcruntime:undname.obj
 0002:00001f18       ??_C@_01MNNFJEPP@?$DM@     10022f18     libvcruntime:undname.obj
 0002:00001f1c       ??_C@_02EHCHHCKH@?$DM?$DN@ 10022f1c     libvcruntime:undname.obj
 0002:00001f20       ??_C@_01PPODPGHN@?$DO@     10022f20     libvcruntime:undname.obj
 0002:00001f24       ??_C@_02EEKDKGMJ@?$DO?$DN@ 10022f24     libvcruntime:undname.obj
 0002:00001f28       ??_C@_01IHBHIGKO@?0@       10022f28     libvcruntime:undname.obj
 0002:00001f2c       ??_C@_02HCKGKOFO@?$CI?$CJ@ 10022f2c     libvcruntime:undname.obj
 0002:00001f30       ??_C@_01PJKLJHI@?$HO@      10022f30     libvcruntime:undname.obj
 0002:00001f34       ??_C@_01JKBOJNNK@?$FO@     10022f34     libvcruntime:undname.obj
 0002:00001f38       ??_C@_01DNKMNLPK@?$HM@     10022f38     libvcruntime:undname.obj
 0002:00001f3c       ??_C@_02PPKAJPJL@?$CG?$CG@ 10022f3c     libvcruntime:undname.obj
 0002:00001f40       ??_C@_02NONPIBCD@?$HM?$HM@ 10022f40     libvcruntime:undname.obj
 0002:00001f44       ??_C@_02FPIMKNGF@?$CK?$DN@ 10022f44     libvcruntime:undname.obj
 0002:00001f48       ??_C@_02FOEOMHFC@?$CL?$DN@ 10022f48     libvcruntime:undname.obj
 0002:00001f4c       ??_C@_02FKMDLLOA@?9?$DN@   10022f4c     libvcruntime:undname.obj
 0002:00001f50       ??_C@_02FJEHGPIO@?1?$DN@   10022f50     libvcruntime:undname.obj
 0002:00001f54       ??_C@_02FENAOKFI@?$CF?$DN@ 10022f54     libvcruntime:undname.obj
 0002:00001f58       ??_C@_03IKFCCPFF@?$DO?$DO?$DN@ 10022f58     libvcruntime:undname.obj
 0002:00001f5c       ??_C@_03CDNPDDLA@?$DM?$DM?$DN@ 10022f5c     libvcruntime:undname.obj
 0002:00001f60       ??_C@_02FGJGFEAB@?$CG?$DN@ 10022f60     libvcruntime:undname.obj
 0002:00001f64       ??_C@_02DHLNPPGH@?$HM?$DN@ 10022f64     libvcruntime:undname.obj
 0002:00001f68       ??_C@_02MHEGNOJ@?$FO?$DN@  10022f68     libvcruntime:undname.obj
 0002:00001f6c       ??_C@_09IFPLHPGF@?$GAvftable?8@ 10022f6c     libvcruntime:undname.obj
 0002:00001f78       ??_C@_09BLBHBJP@?$GAvbtable?8@ 10022f78     libvcruntime:undname.obj
 0002:00001f84       ??_C@_07FEEIOKP@?$GAvcall?8@ 10022f84     libvcruntime:undname.obj
 0002:00001f8c       ??_C@_08LLFFHHDJ@?$GAtypeof?8@ 10022f8c     libvcruntime:undname.obj
 0002:00001f98       ??_C@_0BF@KDPPACIK@?$GAlocal?5static?5guard?8@ 10022f98     libvcruntime:undname.obj
 0002:00001fb0       ??_C@_08OBABFOLI@?$GAstring?8@ 10022fb0     libvcruntime:undname.obj
 0002:00001fbc       ??_C@_0BD@JDLKDPAB@?$GAvbase?5destructor?8@ 10022fbc     libvcruntime:undname.obj
 0002:00001fd0       ??_C@_0BN@DEGPLNFK@?$GAvector?5deleting?5destructor?8@ 10022fd0     libvcruntime:undname.obj
 0002:00001ff0       ??_C@_0BO@OBMKPJIG@?$GAdefault?5constructor?5closure?8@ 10022ff0     libvcruntime:undname.obj
 0002:00002010       ??_C@_0BN@IMDCHIKM@?$GAscalar?5deleting?5destructor?8@ 10023010     libvcruntime:undname.obj
 0002:00002030       ??_C@_0BO@PFGOCPJJ@?$GAvector?5constructor?5iterator?8@ 10023030     libvcruntime:undname.obj
 0002:00002050       ??_C@_0BN@LFPFMEDL@?$GAvector?5destructor?5iterator?8@ 10023050     libvcruntime:undname.obj
 0002:00002070       ??_C@_0CE@IKBNEHA@?$GAvector?5vbase?5constructor?5itera@ 10023070     libvcruntime:undname.obj
 0002:00002094       ??_C@_0BL@NILFHHPC@?$GAvirtual?5displacement?5map?8@ 10023094     libvcruntime:undname.obj
 0002:000020b0       ??_C@_0CB@JONCMFFK@?$GAeh?5vector?5constructor?5iterator@ 100230b0     libvcruntime:undname.obj
 0002:000020d4       ??_C@_0CA@GCEOPDGL@?$GAeh?5vector?5destructor?5iterator?8@ 100230d4     libvcruntime:undname.obj
 0002:000020f4       ??_C@_0CH@OOJPLCPH@?$GAeh?5vector?5vbase?5constructor?5it@ 100230f4     libvcruntime:undname.obj
 0002:0000211c       ??_C@_0BL@LLKPOHJI@?$GAcopy?5constructor?5closure?8@ 1002311c     libvcruntime:undname.obj
 0002:00002138       ??_C@_0BA@KBCDOMBN@?$GAudt?5returning?8@ 10023138     libvcruntime:undname.obj
 0002:00002148       ??_C@_03KLGMFNMG@?$GAEH@   10023148     libvcruntime:undname.obj
 0002:0000214c       ??_C@_05KHLCHHI@?$GARTTI@  1002314c     libvcruntime:undname.obj
 0002:00002154       ??_C@_0BA@KKLDJDLB@?$GAlocal?5vftable?8@ 10023154     libvcruntime:undname.obj
 0002:00002164       ??_C@_0CE@IIHCMGGL@?$GAlocal?5vftable?5constructor?5clos@ 10023164     libvcruntime:undname.obj
 0002:00002188       ??_C@_06FHBGPFGH@?5new?$FL?$FN@ 10023188     libvcruntime:undname.obj
 0002:00002190       ??_C@_09LBNFPBCA@?5delete?$FL?$FN@ 10023190     libvcruntime:undname.obj
 0002:0000219c       ??_C@_0P@HJKNJFNN@?$GAomni?5callsig?8@ 1002319c     libvcruntime:undname.obj
 0002:000021ac       ??_C@_0BL@CNOONJFP@?$GAplacement?5delete?5closure?8@ 100231ac     libvcruntime:undname.obj
 0002:000021c8       ??_C@_0BN@CKNJLHMB@?$GAplacement?5delete?$FL?$FN?5closure?8@ 100231c8     libvcruntime:undname.obj
 0002:000021e8       ??_C@_0CG@CFDHKGGD@?$GAmanaged?5vector?5constructor?5ite@ 100231e8     libvcruntime:undname.obj
 0002:00002210       ??_C@_0CF@IMGKMJNO@?$GAmanaged?5vector?5destructor?5iter@ 10023210     libvcruntime:undname.obj
 0002:00002238       ??_C@_0CG@HLDDJMAG@?$GAeh?5vector?5copy?5constructor?5ite@ 10023238     libvcruntime:undname.obj
 0002:00002260       ??_C@_0CM@FCBBDIGB@?$GAeh?5vector?5vbase?5copy?5construct@ 10023260     libvcruntime:undname.obj
 0002:0000228c       ??_C@_0BL@CLIPGLGB@?$GAdynamic?5initializer?5for?5?8@ 1002328c     libvcruntime:undname.obj
 0002:000022a8       ??_C@_0CB@PDBIFEP@?$GAdynamic?5atexit?5destructor?5for?5@ 100232a8     libvcruntime:undname.obj
 0002:000022cc       ??_C@_0CD@CGAJBKEJ@?$GAvector?5copy?5constructor?5iterat@ 100232cc     libvcruntime:undname.obj
 0002:000022f0       ??_C@_0CJ@GJELGAMM@?$GAvector?5vbase?5copy?5constructor?5@ 100232f0     libvcruntime:undname.obj
 0002:0000231c       ??_C@_0CL@FGIJHLCE@?$GAmanaged?5vector?5copy?5constructo@ 1002331c     libvcruntime:undname.obj
 0002:00002348       ??_C@_0BM@PMGGMLDN@?$GAlocal?5static?5thread?5guard?8@ 10023348     libvcruntime:undname.obj
 0002:00002364       ??_C@_0N@BDNMDMOL@operator?5?$CC?$CC?5@ 10023364     libvcruntime:undname.obj
 0002:00002374       ??_C@_0BC@GGEBGALA@operator?5co_await@ 10023374     libvcruntime:undname.obj
 0002:00002388       ??_C@_0M@GAAIMMOH@operator?$DM?$DN?$DO@ 10023388     libvcruntime:undname.obj
 0002:00002394       ??_C@_0BC@DAFEJGAK@?5Type?5Descriptor?8@ 10023394     libvcruntime:undname.obj
 0002:000023a8       ??_C@_0BM@LDKODKLH@?5Base?5Class?5Descriptor?5at?5?$CI@ 100233a8     libvcruntime:undname.obj
 0002:000023c4       ??_C@_0BD@LGICGFMM@?5Base?5Class?5Array?8@ 100233c4     libvcruntime:undname.obj
 0002:000023d8       ??_C@_0BN@MECKDCOJ@?5Class?5Hierarchy?5Descriptor?8@ 100233d8     libvcruntime:undname.obj
 0002:000023f8       ??_C@_0BK@CFCOFLF@?5Complete?5Object?5Locator?8@ 100233f8     libvcruntime:undname.obj
 0002:00002414       ??_C@_0BG@JNJLAMPM@?$GAanonymous?5namespace?8@ 10023414     libvcruntime:undname.obj
 0002:00002438       ??_C@_1DM@KHCHBNEB@?$AAa?$AAp?$AAi?$AA?9?$AAm?$AAs?$AA?9?$AAw?$AAi?$AAn?$AA?9?$AAc?$AAo?$AAr?$AAe@ 10023438     libvcruntime:winapi_downlevel.obj
 0002:00002474       ??_C@_1DK@LPPGFMPP@?$AAa?$AAp?$AAi?$AA?9?$AAm?$AAs?$AA?9?$AAw?$AAi?$AAn?$AA?9?$AAc?$AAo?$AAr?$AAe@ 10023474     libvcruntime:winapi_downlevel.obj
 0002:000024b0       ??_C@_1BC@GDMECMAK@?$AAk?$AAe?$AAr?$AAn?$AAe?$AAl?$AA3?$AA2@ 100234b0     libvcruntime:winapi_downlevel.obj
 0002:000024c4       ??_C@_1BA@PFFKHIOG@?$AAa?$AAp?$AAi?$AA?9?$AAm?$AAs?$AA?9@ 100234c4     libvcruntime:winapi_downlevel.obj
 0002:000024dc       ??_C@_08KNHFBNJ@FlsAlloc@  100234dc     libvcruntime:winapi_downlevel.obj
 0002:000024f0       ??_C@_07PEJMOBNF@FlsFree@  100234f0     libvcruntime:winapi_downlevel.obj
 0002:00002500       ??_C@_0M@GDNOONDI@FlsGetValue@ 10023500     libvcruntime:winapi_downlevel.obj
 0002:00002514       ??_C@_0M@JCPCPOEF@FlsSetValue@ 10023514     libvcruntime:winapi_downlevel.obj
 0002:00002528       ??_C@_0BM@HCFOFFN@InitializeCriticalSectionEx@ 10023528     libvcruntime:winapi_downlevel.obj
 0002:000026b0       ?format_validation_lookup_table_spectre@__crt_stdio_output@@3V?$spectre_mitigated_lookup_table@Ustate_transition_pair@__crt_stdio_output@@$0IA@@1@B 100236b0     libucrt:output.obj
 0002:000027b0       ??_C@_1O@CEDCILHN@?$AA?$CI?$AAn?$AAu?$AAl?$AAl?$AA?$CJ@ 100237b0     libucrt:output.obj
 0002:000027c0       ??_C@_06OJHGLDPL@?$CInull?$CJ@ 100237c0     libucrt:output.obj
 0002:000027c8       ___acrt_exception_action_table 100237c8     libucrt:exception_filter.obj
 0002:00002858       ___acrt_signal_action_table_count 10023858     libucrt:exception_filter.obj
 0002:0000285c       ___acrt_signal_action_first_fpe_index 1002385c     libucrt:exception_filter.obj
 0002:00002860       ___acrt_signal_action_fpe_count 10023860     libucrt:exception_filter.obj
 0002:00002864       ??_C@_1BI@BGOHAHKC@?$AAm?$AAs?$AAc?$AAo?$AAr?$AAe?$AAe?$AA?4?$AAd?$AAl?$AAl@ 10023864     libucrt:exit.obj
 0002:0000287c       ??_C@_0P@MIGLKIOC@CorExitProcess@ 1002387c     libucrt:exit.obj
 0002:00002910       ___lc_time_c               10023910     libucrt:nlsdata.obj
 0002:00002a74       ??_C@_03KOEHGMDN@Sun@      10023a74     libucrt:nlsdata.obj
 0002:00002a78       ??_C@_03PDAGKDH@Mon@       10023a78     libucrt:nlsdata.obj
 0002:00002a7c       ??_C@_03NAGEINEP@Tue@      10023a7c     libucrt:nlsdata.obj
 0002:00002a80       ??_C@_03MHOMLAJA@Wed@      10023a80     libucrt:nlsdata.obj
 0002:00002a84       ??_C@_03IOFIKPDN@Thu@      10023a84     libucrt:nlsdata.obj
 0002:00002a88       ??_C@_03IDIOELNC@Fri@      10023a88     libucrt:nlsdata.obj
 0002:00002a8c       ??_C@_03FEFJNEK@Sat@       10023a8c     libucrt:nlsdata.obj
 0002:00002a90       ??_C@_06OOPIFAJ@Sunday@    10023a90     libucrt:nlsdata.obj
 0002:00002a98       ??_C@_06JLEDEDGH@Monday@   10023a98     libucrt:nlsdata.obj
 0002:00002aa0       ??_C@_07BAAGCFCM@Tuesday@  10023aa0     libucrt:nlsdata.obj
 0002:00002aa8       ??_C@_09DLIGFAKA@Wednesday@ 10023aa8     libucrt:nlsdata.obj
 0002:00002ab4       ??_C@_08HACCIKIA@Thursday@ 10023ab4     libucrt:nlsdata.obj
 0002:00002ac0       ??_C@_06JECMNKMI@Friday@   10023ac0     libucrt:nlsdata.obj
 0002:00002ac8       ??_C@_08INBOOONO@Saturday@ 10023ac8     libucrt:nlsdata.obj
 0002:00002ad4       ??_C@_03JIHJHPIE@Jan@      10023ad4     libucrt:nlsdata.obj
 0002:00002ad8       ??_C@_03HJBDCHOM@Feb@      10023ad8     libucrt:nlsdata.obj
 0002:00002adc       ??_C@_03ODNJBKGA@Mar@      10023adc     libucrt:nlsdata.obj
 0002:00002ae0       ??_C@_03LEOLGMJP@Apr@      10023ae0     libucrt:nlsdata.obj
 0002:00002ae4       ??_C@_03CNMDKL@May@        10023ae4     libucrt:nlsdata.obj
 0002:00002ae8       ??_C@_03IDFGHECI@Jun@      10023ae8     libucrt:nlsdata.obj
 0002:00002aec       ??_C@_03LBGABGKK@Jul@      10023aec     libucrt:nlsdata.obj
 0002:00002af0       ??_C@_03IFJFEIGA@Aug@      10023af0     libucrt:nlsdata.obj
 0002:00002af4       ??_C@_03GGCAPAJC@Sep@      10023af4     libucrt:nlsdata.obj
 0002:00002af8       ??_C@_03BMAOKBAD@Oct@      10023af8     libucrt:nlsdata.obj
 0002:00002afc       ??_C@_03JPJOFNIA@Nov@      10023afc     libucrt:nlsdata.obj
 0002:00002b00       ??_C@_03MKABNOCG@Dec@      10023b00     libucrt:nlsdata.obj
 0002:00002b04       ??_C@_07CGJPFGJA@January@  10023b04     libucrt:nlsdata.obj
 0002:00002b0c       ??_C@_08GNJGEPFN@February@ 10023b0c     libucrt:nlsdata.obj
 0002:00002b18       ??_C@_05HPCKOFNC@March@    10023b18     libucrt:nlsdata.obj
 0002:00002b20       ??_C@_05DMJDNLEJ@April@    10023b20     libucrt:nlsdata.obj
 0002:00002b28       ??_C@_04CNLMGBGM@June@     10023b28     libucrt:nlsdata.obj
 0002:00002b30       ??_C@_04MIEPOIFP@July@     10023b30     libucrt:nlsdata.obj
 0002:00002b38       ??_C@_06LBBHFDDG@August@   10023b38     libucrt:nlsdata.obj
 0002:00002b40       ??_C@_09BHHEALKD@September@ 10023b40     libucrt:nlsdata.obj
 0002:00002b4c       ??_C@_07JJNFCEND@October@  10023b4c     libucrt:nlsdata.obj
 0002:00002b54       ??_C@_08HCHEGEOA@November@ 10023b54     libucrt:nlsdata.obj
 0002:00002b60       ??_C@_08EDHMEBNP@December@ 10023b60     libucrt:nlsdata.obj
 0002:00002b6c       ??_C@_02DEDBPAFC@AM@       10023b6c     libucrt:nlsdata.obj
 0002:00002b70       ??_C@_02CJNFDJBF@PM@       10023b70     libucrt:nlsdata.obj
 0002:00002b74       ??_C@_08BPBNCDIB@MM?1dd?1yy@ 10023b74     libucrt:nlsdata.obj
 0002:00002b80       ??_C@_0BE@CKGJFCPC@dddd?0?5MMMM?5dd?0?5yyyy@ 10023b80     libucrt:nlsdata.obj
 0002:00002b94       ??_C@_08JCCMCCIL@HH?3mm?3ss@ 10023b94     libucrt:nlsdata.obj
 0002:00002ba0       ??_C@_17MBGCMIPB@?$AAS?$AAu?$AAn@ 10023ba0     libucrt:nlsdata.obj
 0002:00002ba8       ??_C@_17KBOMKBF@?$AAM?$AAo?$AAn@ 10023ba8     libucrt:nlsdata.obj
 0002:00002bb0       ??_C@_17BMKGEGOJ@?$AAT?$AAu?$AAe@ 10023bb0     libucrt:nlsdata.obj
 0002:00002bb8       ??_C@_17CJEDCEPE@?$AAW?$AAe?$AAd@ 10023bb8     libucrt:nlsdata.obj
 0002:00002bc0       ??_C@_17PDPHAADD@?$AAT?$AAh?$AAu@ 10023bc0     libucrt:nlsdata.obj
 0002:00002bc8       ??_C@_17HFOLPPLP@?$AAF?$AAr?$AAi@ 10023bc8     libucrt:nlsdata.obj
 0002:00002bd0       ??_C@_17GGIBDPIH@?$AAS?$AAa?$AAt@ 10023bd0     libucrt:nlsdata.obj
 0002:00002bd8       ??_C@_1O@IHNHDHPB@?$AAS?$AAu?$AAn?$AAd?$AAa?$AAy@ 10023bd8     libucrt:nlsdata.obj
 0002:00002be8       ??_C@_1O@MMNBFLIA@?$AAM?$AAo?$AAn?$AAd?$AAa?$AAy@ 10023be8     libucrt:nlsdata.obj
 0002:00002bf8       ??_C@_1BA@ENFBFFEK@?$AAT?$AAu?$AAe?$AAs?$AAd?$AAa?$AAy@ 10023bf8     libucrt:nlsdata.obj
 0002:00002c08       ??_C@_1BE@EBOGMDOH@?$AAW?$AAe?$AAd?$AAn?$AAe?$AAs?$AAd?$AAa?$AAy@ 10023c08     libucrt:nlsdata.obj
 0002:00002c1c       ??_C@_1BC@HHMNLIHE@?$AAT?$AAh?$AAu?$AAr?$AAs?$AAd?$AAa?$AAy@ 10023c1c     libucrt:nlsdata.obj
 0002:00002c30       ??_C@_1O@PDICJHAG@?$AAF?$AAr?$AAi?$AAd?$AAa?$AAy@ 10023c30     libucrt:nlsdata.obj
 0002:00002c40       ??_C@_1BC@ENMNNPAJ@?$AAS?$AAa?$AAt?$AAu?$AAr?$AAd?$AAa?$AAy@ 10023c40     libucrt:nlsdata.obj
 0002:00002c54       ??_C@_17DKNBKCHM@?$AAJ?$AAa?$AAn@ 10023c54     libucrt:nlsdata.obj
 0002:00002c5c       ??_C@_17LMDJEKJN@?$AAF?$AAe?$AAb@ 10023c5c     libucrt:nlsdata.obj
 0002:00002c64       ??_C@_17CKNLEDEC@?$AAM?$AAa?$AAr@ 10023c64     libucrt:nlsdata.obj
 0002:00002c6c       ??_C@_17LFPOIHDD@?$AAA?$AAp?$AAr@ 10023c6c     libucrt:nlsdata.obj
 0002:00002c74       ??_C@_17PNNKMEED@?$AAM?$AAa?$AAy@ 10023c74     libucrt:nlsdata.obj
 0002:00002c7c       ??_C@_17KCJGOCPB@?$AAJ?$AAu?$AAn@ 10023c7c     libucrt:nlsdata.obj
 0002:00002c84       ??_C@_17IJPCKHK@?$AAJ?$AAu?$AAl@ 10023c84     libucrt:nlsdata.obj
 0002:00002c8c       ??_C@_17ICPELBCN@?$AAA?$AAu?$AAg@ 10023c8c     libucrt:nlsdata.obj
 0002:00002c94       ??_C@_17HCHCOKMG@?$AAS?$AAe?$AAp@ 10023c94     libucrt:nlsdata.obj
 0002:00002c9c       ??_C@_17FNLKOI@?$AAO?$AAc?$AAt@ 10023c9c     libucrt:nlsdata.obj
 0002:00002ca4       ??_C@_17BBDMLCIG@?$AAN?$AAo?$AAv@ 10023ca4     libucrt:nlsdata.obj
 0002:00002cac       ??_C@_17EGKACKIF@?$AAD?$AAe?$AAc@ 10023cac     libucrt:nlsdata.obj
 0002:00002cb4       ??_C@_1BA@EFMEIEBA@?$AAJ?$AAa?$AAn?$AAu?$AAa?$AAr?$AAy@ 10023cb4     libucrt:nlsdata.obj
 0002:00002cc4       ??_C@_1BC@JGDDFFAM@?$AAF?$AAe?$AAb?$AAr?$AAu?$AAa?$AAr?$AAy@ 10023cc4     libucrt:nlsdata.obj
 0002:00002cd8       ??_C@_1M@IKEENEDF@?$AAM?$AAa?$AAr?$AAc?$AAh@ 10023cd8     libucrt:nlsdata.obj
 0002:00002ce4       ??_C@_1M@GJNLMHFD@?$AAA?$AAp?$AAr?$AAi?$AAl@ 10023ce4     libucrt:nlsdata.obj
 0002:00002cf0       ??_C@_19EPFLPGAP@?$AAJ?$AAu?$AAn?$AAe@ 10023cf0     libucrt:nlsdata.obj
 0002:00002cfc       ??_C@_19BIFMLPCD@?$AAJ?$AAu?$AAl?$AAy@ 10023cfc     libucrt:nlsdata.obj
 0002:00002d08       ??_C@_1O@PAHLKOAC@?$AAA?$AAu?$AAg?$AAu?$AAs?$AAt@ 10023d08     libucrt:nlsdata.obj
 0002:00002d18       ??_C@_1BE@DKAAMBJL@?$AAS?$AAe?$AAp?$AAt?$AAe?$AAm?$AAb?$AAe?$AAr@ 10023d18     libucrt:nlsdata.obj
 0002:00002d2c       ??_C@_1BA@EPANDLNG@?$AAO?$AAc?$AAt?$AAo?$AAb?$AAe?$AAr@ 10023d2c     libucrt:nlsdata.obj
 0002:00002d3c       ??_C@_1BC@BGLIFPF@?$AAN?$AAo?$AAv?$AAe?$AAm?$AAb?$AAe?$AAr@ 10023d3c     libucrt:nlsdata.obj
 0002:00002d50       ??_C@_1BC@FEMKIFH@?$AAD?$AAe?$AAc?$AAe?$AAm?$AAb?$AAe?$AAr@ 10023d50     libucrt:nlsdata.obj
 0002:00002d64       ??_C@_15ODEHAHHF@?$AAA?$AAM@ 10023d64     libucrt:nlsdata.obj
 0002:00002d6c       ??_C@_15CLMNNGEL@?$AAP?$AAM@ 10023d6c     libucrt:nlsdata.obj
 0002:00002d74       ??_C@_1BC@IEBCMHCM@?$AAM?$AAM?$AA?1?$AAd?$AAd?$AA?1?$AAy?$AAy@ 10023d74     libucrt:nlsdata.obj
 0002:00002d88       ??_C@_1CI@KNAKOEBC@?$AAd?$AAd?$AAd?$AAd?$AA?0?$AA?5?$AAM?$AAM?$AAM?$AAM?$AA?5?$AAd?$AAd?$AA?0?$AA?5@ 10023d88     libucrt:nlsdata.obj
 0002:00002db0       ??_C@_1BC@GDGBMEMK@?$AAH?$AAH?$AA?3?$AAm?$AAm?$AA?3?$AAs?$AAs@ 10023db0     libucrt:nlsdata.obj
 0002:00002dc4       ??_C@_1M@BMHNFIME@?$AAe?$AAn?$AA?9?$AAU?$AAS@ 10023dc4     libucrt:nlsdata.obj
 0002:00002e20       ??_C@_1EA@JGEFHKEI@?$AAa?$AAp?$AAi?$AA?9?$AAm?$AAs?$AA?9?$AAw?$AAi?$AAn?$AA?9?$AAc?$AAo?$AAr?$AAe@ 10023e20     libucrt:winapi_thunks.obj
 0002:00002e60       ??_C@_1DI@IJCEHOCB@?$AAa?$AAp?$AAi?$AA?9?$AAm?$AAs?$AA?9?$AAw?$AAi?$AAn?$AA?9?$AAc?$AAo?$AAr?$AAe@ 10023e60     libucrt:winapi_thunks.obj
 0002:00002e98       ??_C@_1EI@MPIAOHOC@?$AAa?$AAp?$AAi?$AA?9?$AAm?$AAs?$AA?9?$AAw?$AAi?$AAn?$AA?9?$AAc?$AAo?$AAr?$AAe@ 10023e98     libucrt:winapi_thunks.obj
 0002:00002ee0       ??_C@_1FK@FPHCKFIE@?$AAa?$AAp?$AAi?$AA?9?$AAm?$AAs?$AA?9?$AAw?$AAi?$AAn?$AA?9?$AAc?$AAo?$AAr?$AAe@ 10023ee0     libucrt:winapi_thunks.obj
 0002:00002f40       ??_C@_1EM@DILCGIIO@?$AAa?$AAp?$AAi?$AA?9?$AAm?$AAs?$AA?9?$AAw?$AAi?$AAn?$AA?9?$AAc?$AAo?$AAr?$AAe@ 10023f40     libucrt:winapi_thunks.obj
 0002:00002f8c       ??_C@_1DM@LNCGDDPN@?$AAa?$AAp?$AAi?$AA?9?$AAm?$AAs?$AA?9?$AAw?$AAi?$AAn?$AA?9?$AAc?$AAo?$AAr?$AAe@ 10023f8c     libucrt:winapi_thunks.obj
 0002:00002fc8       ??_C@_1DO@FPAPJEMD@?$AAa?$AAp?$AAi?$AA?9?$AAm?$AAs?$AA?9?$AAw?$AAi?$AAn?$AA?9?$AAc?$AAo?$AAr?$AAe@ 10023fc8     libucrt:winapi_thunks.obj
 0002:00003008       ??_C@_1DK@NDHNAHIO@?$AAa?$AAp?$AAi?$AA?9?$AAm?$AAs?$AA?9?$AAw?$AAi?$AAn?$AA?9?$AAc?$AAo?$AAr?$AAe@ 10024008     libucrt:winapi_thunks.obj
 0002:00003044       ??_C@_1DM@KGHDGBCM@?$AAa?$AAp?$AAi?$AA?9?$AAm?$AAs?$AA?9?$AAw?$AAi?$AAn?$AA?9?$AAc?$AAo?$AAr?$AAe@ 10024044     libucrt:winapi_thunks.obj
 0002:00003080       ??_C@_1EO@IJIOEFOH@?$AAa?$AAp?$AAi?$AA?9?$AAm?$AAs?$AA?9?$AAw?$AAi?$AAn?$AA?9?$AAr?$AAt?$AAc?$AAo@ 10024080     libucrt:winapi_thunks.obj
 0002:000030d0       ??_C@_1FG@HHGEKANL@?$AAa?$AAp?$AAi?$AA?9?$AAm?$AAs?$AA?9?$AAw?$AAi?$AAn?$AA?9?$AAs?$AAe?$AAc?$AAu@ 100240d0     libucrt:winapi_thunks.obj
 0002:00003128       ??_C@_1EG@DBIOJECG@?$AAe?$AAx?$AAt?$AA?9?$AAm?$AAs?$AA?9?$AAw?$AAi?$AAn?$AA?9?$AAn?$AAt?$AAu?$AAs@ 10024128     libucrt:winapi_thunks.obj
 0002:00003170       ??_C@_1EO@FIHMJCLF@?$AAe?$AAx?$AAt?$AA?9?$AAm?$AAs?$AA?9?$AAw?$AAi?$AAn?$AA?9?$AAn?$AAt?$AAu?$AAs@ 10024170     libucrt:winapi_thunks.obj
 0002:000031c0       ??_C@_1BC@DNHGCMLG@?$AAa?$AAd?$AAv?$AAa?$AAp?$AAi?$AA3?$AA2@ 100241c0     libucrt:winapi_thunks.obj
 0002:000031d4       ??_C@_1M@OAIMIKLP@?$AAn?$AAt?$AAd?$AAl?$AAl@ 100241d4     libucrt:winapi_thunks.obj
 0002:000031e0       ??_C@_1EG@DPGNFKGC@?$AAa?$AAp?$AAi?$AA?9?$AAm?$AAs?$AA?9?$AAw?$AAi?$AAn?$AA?9?$AAa?$AAp?$AAp?$AAm@ 100241e0     libucrt:winapi_thunks.obj
 0002:00003228       ??_C@_1O@BCCLBEOE@?$AAu?$AAs?$AAe?$AAr?$AA3?$AA2@ 10024228     libucrt:winapi_thunks.obj
 0002:00003238       ??_C@_1DM@BPJLHKCE@?$AAa?$AAp?$AAi?$AA?9?$AAm?$AAs?$AA?9?$AAw?$AAi?$AAn?$AA?9?$AAc?$AAo?$AAr?$AAe@ 10024238     libucrt:winapi_thunks.obj
 0002:00003274       ??_C@_1BA@IAIFMGEF@?$AAe?$AAx?$AAt?$AA?9?$AAm?$AAs?$AA?9@ 10024274     libucrt:winapi_thunks.obj
 0002:00003288       ??_C@_0BA@FHFNEAED@AreFileApisANSI@ 10024288     libucrt:winapi_thunks.obj
 0002:000032a8       ??_C@_0O@KKBNKAPF@LCMapStringEx@ 100242a8     libucrt:winapi_thunks.obj
 0002:000032c0       ??_C@_0BB@HBDEELFH@LocaleNameToLCID@ 100242c0     libucrt:winapi_thunks.obj
 0002:000032d8       ??_C@_0CF@OJOFEIGO@AppPolicyGetProcessTerminationM@ 100242d8     libucrt:winapi_thunks.obj
 0002:00003308       ??_C@_0BI@BKLFFAPO@SetThreadStackGuarantee@ 10024308     libucrt:winapi_thunks.obj
 0002:00003380       ??_C@_03OEIAHPBN@INF@      10024380     libucrt:cvt.obj
 0002:00003384       ??_C@_03OJHLLCGB@inf@      10024384     libucrt:cvt.obj
 0002:00003388       ??_C@_03LKNCIKJB@NAN@      10024388     libucrt:cvt.obj
 0002:0000338c       ??_C@_03LHCJEHON@nan@      1002438c     libucrt:cvt.obj
 0002:00003390       ??_C@_09OFJJIMPC@NAN?$CISNAN?$CJ@ 10024390     libucrt:cvt.obj
 0002:0000339c       ??_C@_09IPFBKMDL@nan?$CIsnan?$CJ@ 1002439c     libucrt:cvt.obj
 0002:000033a8       ??_C@_08IKHNHAJ@NAN?$CIIND?$CJ@ 100243a8     libucrt:cvt.obj
 0002:000033b4       ??_C@_08OFCDMILK@nan?$CIind?$CJ@ 100243b4     libucrt:cvt.obj
 0002:000033c0       ??_C@_05KLBDPFGC@e?$CL000@ 100243c0     libucrt:cvt.obj
 0002:000033d8       ??_C@_1M@HPNHIDJI@?$AAj?$AAa?$AA?9?$AAJ?$AAP@ 100243d8     libucrt:mbctype.obj
 0002:000033e4       ??_C@_1M@BIBDDEMK@?$AAz?$AAh?$AA?9?$AAC?$AAN@ 100243e4     libucrt:mbctype.obj
 0002:000033f0       ??_C@_1M@JLOOOEGK@?$AAk?$AAo?$AA?9?$AAK?$AAR@ 100243f0     libucrt:mbctype.obj
 0002:000033fc       ??_C@_1M@CLNBBOPM@?$AAz?$AAh?$AA?9?$AAT?$AAW@ 100243fc     libucrt:mbctype.obj
 0002:00003408       ___newctype                10024408     libucrt:ctype.obj
 0002:00003708       ___newclmap                10024708     libucrt:ctype.obj
 0002:00003888       ___newcumap                10024888     libucrt:ctype.obj
 0002:00003a08       ??_C@_15PJPFLCCM@?$AAu?$AAk@ 10024a08     libucrt:get_qualified_locale.obj
 0002:00004130       ??_C@_15EMKDOKLE@?$AAa?$AAr@ 10025130     libucrt:lcidtoname_downlevel.obj
 0002:00004138       ??_C@_15KNPADPLH@?$AAb?$AAg@ 10025138     libucrt:lcidtoname_downlevel.obj
 0002:00004140       ??_C@_15EDMHLDMO@?$AAc?$AAa@ 10025140     libucrt:lcidtoname_downlevel.obj
 0002:00004148       ??_C@_1O@BPEAJADD@?$AAz?$AAh?$AA?9?$AAC?$AAH?$AAS@ 10025148     libucrt:lcidtoname_downlevel.obj
 0002:00004158       ??_C@_15LJNHCMNK@?$AAc?$AAs@ 10025158     libucrt:lcidtoname_downlevel.obj
 0002:00004160       ??_C@_15FOMCIDHG@?$AAd?$AAa@ 10025160     libucrt:lcidtoname_downlevel.obj
 0002:00004168       ??_C@_15NBKABECB@?$AAd?$AAe@ 10025168     libucrt:lcidtoname_downlevel.obj
 0002:00004170       ??_C@_15GHPEIIAO@?$AAe?$AAl@ 10025170     libucrt:lcidtoname_downlevel.obj
 0002:00004178       ??_C@_15MNPNEAIF@?$AAe?$AAn@ 10025178     libucrt:lcidtoname_downlevel.obj
 0002:00004180       ??_C@_15GPIOMPMH@?$AAe?$AAs@ 10025180     libucrt:lcidtoname_downlevel.obj
 0002:00004188       ??_C@_15NGLOAKJC@?$AAf?$AAi@ 10025188     libucrt:lcidtoname_downlevel.obj
 0002:00004190       ??_C@_15FBKGNKAM@?$AAf?$AAr@ 10025190     libucrt:lcidtoname_downlevel.obj
 0002:00004198       ??_C@_15KGGCNEFK@?$AAh?$AAe@ 10025198     libucrt:lcidtoname_downlevel.obj
 0002:000041a0       ??_C@_15PGHLIDMF@?$AAh?$AAu@ 100251a0     libucrt:lcidtoname_downlevel.obj
 0002:000041a8       ??_C@_15BIEMAPLM@?$AAi?$AAs@ 100251a8     libucrt:lcidtoname_downlevel.obj
 0002:000041b0       ??_C@_15IFJLDHAF@?$AAi?$AAt@ 100251b0     libucrt:lcidtoname_downlevel.obj
 0002:000041b8       ??_C@_15GEMIOCAG@?$AAj?$AAa@ 100251b8     libucrt:lcidtoname_downlevel.obj
 0002:000041c0       ??_C@_15EPELEGJA@?$AAk?$AAo@ 100251c0     libucrt:lcidtoname_downlevel.obj
 0002:000041c8       ??_C@_15NDDHIMN@?$AAn?$AAl@ 100251c8     libucrt:lcidtoname_downlevel.obj
 0002:000041d0       ??_C@_15BPIGNHCD@?$AAn?$AAo@ 100251d0     libucrt:lcidtoname_downlevel.obj
 0002:000041d8       ??_C@_15DEOPBLCG@?$AAp?$AAl@ 100251d8     libucrt:lcidtoname_downlevel.obj
 0002:000041e0       ??_C@_15KBECGEFG@?$AAp?$AAt@ 100251e0     libucrt:lcidtoname_downlevel.obj
 0002:000041e8       ??_C@_15GLJCBFMD@?$AAr?$AAo@ 100251e8     libucrt:lcidtoname_downlevel.obj
 0002:000041f0       ??_C@_15FEDGKCDI@?$AAr?$AAu@ 100251f0     libucrt:lcidtoname_downlevel.obj
 0002:000041f8       ??_C@_15GLKMLLHM@?$AAh?$AAr@ 100251f8     libucrt:lcidtoname_downlevel.obj
 0002:00004200       ??_C@_15CPKMFBDB@?$AAs?$AAk@ 10025200     libucrt:lcidtoname_downlevel.obj
 0002:00004208       ??_C@_15BAAIOGMK@?$AAs?$AAq@ 10025208     libucrt:lcidtoname_downlevel.obj
 0002:00004210       ??_C@_15INNPNOHD@?$AAs?$AAv@ 10025210     libucrt:lcidtoname_downlevel.obj
 0002:00004218       ??_C@_15CABMMOGH@?$AAt?$AAh@ 10025218     libucrt:lcidtoname_downlevel.obj
 0002:00004220       ??_C@_15BPLIHJJM@?$AAt?$AAr@ 10025220     libucrt:lcidtoname_downlevel.obj
 0002:00004228       ??_C@_15NEOEKKDJ@?$AAu?$AAr@ 10025228     libucrt:lcidtoname_downlevel.obj
 0002:00004230       ??_C@_15NFICGAJK@?$AAi?$AAd@ 10025230     libucrt:lcidtoname_downlevel.obj
 0002:00004238       ??_C@_15HPJPHDM@?$AAb?$AAe@ 10025238     libucrt:lcidtoname_downlevel.obj
 0002:00004240       ??_C@_15LCHLGJII@?$AAs?$AAl@ 10025240     libucrt:lcidtoname_downlevel.obj
 0002:00004248       ??_C@_15PCFJPHHO@?$AAe?$AAt@ 10025248     libucrt:lcidtoname_downlevel.obj
 0002:00004250       ??_C@_15HPFPGODN@?$AAl?$AAv@ 10025250     libucrt:lcidtoname_downlevel.obj
 0002:00004258       ??_C@_15NFFGKGLG@?$AAl?$AAt@ 10025258     libucrt:lcidtoname_downlevel.obj
 0002:00004260       ??_C@_15BDAKCCHN@?$AAf?$AAa@ 10025260     libucrt:lcidtoname_downlevel.obj
 0002:00004268       ??_C@_15NFGIAIAJ@?$AAv?$AAi@ 10025268     libucrt:lcidtoname_downlevel.obj
 0002:00004270       ??_C@_15LMKNDMHN@?$AAh?$AAy@ 10025270     libucrt:lcidtoname_downlevel.obj
 0002:00004278       ??_C@_15IJBHMCFL@?$AAa?$AAz@ 10025278     libucrt:lcidtoname_downlevel.obj
 0002:00004280       ??_C@_15EKOFJABL@?$AAe?$AAu@ 10025280     libucrt:lcidtoname_downlevel.obj
 0002:00004288       ??_C@_15BGHADCNK@?$AAm?$AAk@ 10025288     libucrt:lcidtoname_downlevel.obj
 0002:00004290       ??_C@_15JDNICKHM@?$AAa?$AAf@ 10025290     libucrt:lcidtoname_downlevel.obj
 0002:00004298       ??_C@_15KPJEDBKD@?$AAk?$AAa@ 10025298     libucrt:lcidtoname_downlevel.obj
 0002:000042a0       ??_C@_15PDNFFFEO@?$AAf?$AAo@ 100252a0     libucrt:lcidtoname_downlevel.obj
 0002:000042a8       ??_C@_15OMLEGLOC@?$AAh?$AAi@ 100252a8     libucrt:lcidtoname_downlevel.obj
 0002:000042b0       ??_C@_15IDNNENKK@?$AAm?$AAs@ 100252b0     libucrt:lcidtoname_downlevel.obj
 0002:000042b8       ??_C@_15MACJNBMH@?$AAk?$AAk@ 100252b8     libucrt:lcidtoname_downlevel.obj
 0002:000042c0       ??_C@_15DKDJEOND@?$AAk?$AAy@ 100252c0     libucrt:lcidtoname_downlevel.obj
 0002:000042c8       ??_C@_15DFGDLJBG@?$AAs?$AAw@ 100252c8     libucrt:lcidtoname_downlevel.obj
 0002:000042d0       ??_C@_15BBFAICNG@?$AAu?$AAz@ 100252d0     libucrt:lcidtoname_downlevel.obj
 0002:000042d8       ??_C@_15DKNDCGEA@?$AAt?$AAt@ 100252d8     libucrt:lcidtoname_downlevel.obj
 0002:000042e0       ??_C@_15MGIFMDPL@?$AAp?$AAa@ 100252e0     libucrt:lcidtoname_downlevel.obj
 0002:000042e8       ??_C@_15HCNDBBA@?$AAg?$AAu@ 100252e8     libucrt:lcidtoname_downlevel.obj
 0002:000042f0       ??_C@_15FNBEIBON@?$AAt?$AAa@ 100252f0     libucrt:lcidtoname_downlevel.obj
 0002:000042f8       ??_C@_15NCHGBGLK@?$AAt?$AAe@ 100252f8     libucrt:lcidtoname_downlevel.obj
 0002:00004300       ??_C@_15PHPHCBPF@?$AAk?$AAn@ 10025300     libucrt:lcidtoname_downlevel.obj
 0002:00004308       ??_C@_15DLGBCKMP@?$AAm?$AAr@ 10025308     libucrt:lcidtoname_downlevel.obj
 0002:00004310       ??_C@_15EABBLBFF@?$AAs?$AAa@ 10025310     libucrt:lcidtoname_downlevel.obj
 0002:00004318       ??_C@_15CBKOMCOI@?$AAm?$AAn@ 10025318     libucrt:lcidtoname_downlevel.obj
 0002:00004320       ??_C@_15CKDMCJAF@?$AAg?$AAl@ 10025320     libucrt:lcidtoname_downlevel.obj
 0002:00004328       ??_C@_17CNJFBPG@?$AAk?$AAo?$AAk@ 10025328     libucrt:lcidtoname_downlevel.obj
 0002:00004330       ??_C@_17FFBJICPL@?$AAs?$AAy?$AAr@ 10025330     libucrt:lcidtoname_downlevel.obj
 0002:00004338       ??_C@_17KPNDCPAF@?$AAd?$AAi?$AAv@ 10025338     libucrt:lcidtoname_downlevel.obj
 0002:00004340       ??_C@_1M@OKAHONE@?$AAa?$AAr?$AA?9?$AAS?$AAA@ 10025340     libucrt:lcidtoname_downlevel.obj
 0002:0000434c       ??_C@_1M@FFFIGIGK@?$AAb?$AAg?$AA?9?$AAB?$AAG@ 1002534c     libucrt:lcidtoname_downlevel.obj
 0002:00004358       ??_C@_1M@BJNKEDC@?$AAc?$AAa?$AA?9?$AAE?$AAS@ 10025358     libucrt:lcidtoname_downlevel.obj
 0002:00004364       ??_C@_1M@IJJHFJHA@?$AAc?$AAs?$AA?9?$AAC?$AAZ@ 10025364     libucrt:lcidtoname_downlevel.obj
 0002:00004370       ??_C@_1M@CLPEOBGI@?$AAd?$AAa?$AA?9?$AAD?$AAK@ 10025370     libucrt:lcidtoname_downlevel.obj
 0002:0000437c       ??_C@_1M@MCMADGCB@?$AAd?$AAe?$AA?9?$AAD?$AAE@ 1002537c     libucrt:lcidtoname_downlevel.obj
 0002:00004388       ??_C@_1M@OOCKEMAM@?$AAe?$AAl?$AA?9?$AAG?$AAR@ 10025388     libucrt:lcidtoname_downlevel.obj
 0002:00004394       ??_C@_1M@DDNJFGID@?$AAf?$AAi?$AA?9?$AAF?$AAI@ 10025394     libucrt:lcidtoname_downlevel.obj
 0002:000043a0       ??_C@_1M@GLIPPMAC@?$AAf?$AAr?$AA?9?$AAF?$AAR@ 100253a0     libucrt:lcidtoname_downlevel.obj
 0002:000043ac       ??_C@_1M@GFMCHPE@?$AAh?$AAe?$AA?9?$AAI?$AAL@ 100253ac     libucrt:lcidtoname_downlevel.obj
 0002:000043b8       ??_C@_1M@MHLPGNKM@?$AAh?$AAu?$AA?9?$AAH?$AAU@ 100253b8     libucrt:lcidtoname_downlevel.obj
 0002:000043c4       ??_C@_1M@LPDDNNPN@?$AAi?$AAs?$AA?9?$AAI?$AAS@ 100253c4     libucrt:lcidtoname_downlevel.obj
 0002:000043d0       ??_C@_1M@MADIPODN@?$AAi?$AAt?$AA?9?$AAI?$AAT@ 100253d0     libucrt:lcidtoname_downlevel.obj
 0002:000043dc       ??_C@_1M@IHBJJGG@?$AAn?$AAl?$AA?9?$AAN?$AAL@ 100253dc     libucrt:lcidtoname_downlevel.obj
 0002:000043e8       ??_C@_1M@EANAGDL@?$AAn?$AAb?$AA?9?$AAN?$AAO@ 100253e8     libucrt:lcidtoname_downlevel.obj
 0002:000043f4       ??_C@_1M@NEIEMEGP@?$AAp?$AAl?$AA?9?$AAP?$AAL@ 100253f4     libucrt:lcidtoname_downlevel.obj
 0002:00004400       ??_C@_1M@BOCFIGEP@?$AAp?$AAt?$AA?9?$AAB?$AAR@ 10025400     libucrt:lcidtoname_downlevel.obj
 0002:0000440c       ??_C@_1M@IMPFOPBG@?$AAr?$AAo?$AA?9?$AAR?$AAO@ 1002540c     libucrt:lcidtoname_downlevel.obj
 0002:00004418       ??_C@_1M@IDNNEJMM@?$AAr?$AAu?$AA?9?$AAR?$AAU@ 10025418     libucrt:lcidtoname_downlevel.obj
 0002:00004424       ??_C@_1M@LILEEOGM@?$AAh?$AAr?$AA?9?$AAH?$AAR@ 10025424     libucrt:lcidtoname_downlevel.obj
 0002:00004430       ??_C@_1M@FKIFEHPB@?$AAs?$AAk?$AA?9?$AAS?$AAK@ 10025430     libucrt:lcidtoname_downlevel.obj
 0002:0000443c       ??_C@_1M@LJMAMNPJ@?$AAs?$AAq?$AA?9?$AAA?$AAL@ 1002543c     libucrt:lcidtoname_downlevel.obj
 0002:00004448       ??_C@_1M@GIAKDKJK@?$AAs?$AAv?$AA?9?$AAS?$AAE@ 10025448     libucrt:lcidtoname_downlevel.obj
 0002:00004454       ??_C@_1M@MKJKIKCL@?$AAt?$AAh?$AA?9?$AAT?$AAH@ 10025454     libucrt:lcidtoname_downlevel.obj
 0002:00004460       ??_C@_1M@MFLCCMPB@?$AAt?$AAr?$AA?9?$AAT?$AAR@ 10025460     libucrt:lcidtoname_downlevel.obj
 0002:0000446c       ??_C@_1M@OIJHDKJN@?$AAu?$AAr?$AA?9?$AAP?$AAK@ 1002546c     libucrt:lcidtoname_downlevel.obj
 0002:00004478       ??_C@_1M@LHIPCIEK@?$AAi?$AAd?$AA?9?$AAI?$AAD@ 10025478     libucrt:lcidtoname_downlevel.obj
 0002:00004484       ??_C@_1M@MFMOBGI@?$AAu?$AAk?$AA?9?$AAU?$AAA@ 10025484     libucrt:lcidtoname_downlevel.obj
 0002:00004490       ??_C@_1M@OBGLJIPL@?$AAb?$AAe?$AA?9?$AAB?$AAY@ 10025490     libucrt:lcidtoname_downlevel.obj
 0002:0000449c       ??_C@_1M@BCFAJEAD@?$AAs?$AAl?$AA?9?$AAS?$AAI@ 1002549c     libucrt:lcidtoname_downlevel.obj
 0002:000044a8       ??_C@_1M@FKFFEDDN@?$AAe?$AAt?$AA?9?$AAE?$AAE@ 100254a8     libucrt:lcidtoname_downlevel.obj
 0002:000044b4       ??_C@_1M@KGKKAACI@?$AAl?$AAv?$AA?9?$AAL?$AAV@ 100254b4     libucrt:lcidtoname_downlevel.obj
 0002:000044c0       ??_C@_1M@IFGBIJO@?$AAl?$AAt?$AA?9?$AAL?$AAT@ 100254c0     libucrt:lcidtoname_downlevel.obj
 0002:000044cc       ??_C@_1M@FGEAHEDM@?$AAf?$AAa?$AA?9?$AAI?$AAR@ 100254cc     libucrt:lcidtoname_downlevel.obj
 0002:000044d8       ??_C@_1M@KBMAIBFN@?$AAv?$AAi?$AA?9?$AAV?$AAN@ 100254d8     libucrt:lcidtoname_downlevel.obj
 0002:000044e4       ??_C@_1M@GPCBKDJK@?$AAh?$AAy?$AA?9?$AAA?$AAM@ 100254e4     libucrt:lcidtoname_downlevel.obj
 0002:000044f0       ??_C@_1BG@BECMDDJB@?$AAa?$AAz?$AA?9?$AAA?$AAZ?$AA?9?$AAL?$AAa?$AAt?$AAn@ 100254f0     libucrt:lcidtoname_downlevel.obj
 0002:00004508       ??_C@_1M@MAOFCAEA@?$AAe?$AAu?$AA?9?$AAE?$AAS@ 10025508     libucrt:lcidtoname_downlevel.obj
 0002:00004514       ??_C@_1M@IGHABKPI@?$AAm?$AAk?$AA?9?$AAM?$AAK@ 10025514     libucrt:lcidtoname_downlevel.obj
 0002:00004520       ??_C@_1M@IAIGNEJG@?$AAt?$AAn?$AA?9?$AAZ?$AAA@ 10025520     libucrt:lcidtoname_downlevel.obj
 0002:0000452c       ??_C@_1M@IIJCOJFA@?$AAx?$AAh?$AA?9?$AAZ?$AAA@ 1002552c     libucrt:lcidtoname_downlevel.obj
 0002:00004538       ??_C@_1M@LGPJHNJH@?$AAz?$AAu?$AA?9?$AAZ?$AAA@ 10025538     libucrt:lcidtoname_downlevel.obj
 0002:00004544       ??_C@_1M@HOKAOIO@?$AAa?$AAf?$AA?9?$AAZ?$AAA@ 10025544     libucrt:lcidtoname_downlevel.obj
 0002:00004550       ??_C@_1M@DPCLHLIE@?$AAk?$AAa?$AA?9?$AAG?$AAE@ 10025550     libucrt:lcidtoname_downlevel.obj
 0002:0000455c       ??_C@_1M@BLKMHJBI@?$AAf?$AAo?$AA?9?$AAF?$AAO@ 1002555c     libucrt:lcidtoname_downlevel.obj
 0002:00004568       ??_C@_1M@LGGJAPPB@?$AAh?$AAi?$AA?9?$AAI?$AAN@ 10025568     libucrt:lcidtoname_downlevel.obj
 0002:00004574       ??_C@_1M@FIKPIHFE@?$AAm?$AAt?$AA?9?$AAM?$AAT@ 10025574     libucrt:lcidtoname_downlevel.obj
 0002:00004580       ??_C@_1M@HEGGPBFA@?$AAs?$AAe?$AA?9?$AAN?$AAO@ 10025580     libucrt:lcidtoname_downlevel.obj
 0002:0000458c       ??_C@_1M@EIBJEEPA@?$AAm?$AAs?$AA?9?$AAM?$AAY@ 1002558c     libucrt:lcidtoname_downlevel.obj
 0002:00004598       ??_C@_1M@FHLBGMPP@?$AAk?$AAk?$AA?9?$AAK?$AAZ@ 10025598     libucrt:lcidtoname_downlevel.obj
 0002:000045a4       ??_C@_1M@NGJJLCGI@?$AAk?$AAy?$AA?9?$AAK?$AAG@ 100255a4     libucrt:lcidtoname_downlevel.obj
 0002:000045b0       ??_C@_1M@GIENNBFC@?$AAs?$AAw?$AA?9?$AAK?$AAE@ 100255b0     libucrt:lcidtoname_downlevel.obj
 0002:000045bc       ??_C@_1BG@NDGMJIMJ@?$AAu?$AAz?$AA?9?$AAU?$AAZ?$AA?9?$AAL?$AAa?$AAt?$AAn@ 100255bc     libucrt:lcidtoname_downlevel.obj
 0002:000045d4       ??_C@_1M@IDCCIHBC@?$AAt?$AAt?$AA?9?$AAR?$AAU@ 100255d4     libucrt:lcidtoname_downlevel.obj
 0002:000045e0       ??_C@_1M@LOICPMOJ@?$AAb?$AAn?$AA?9?$AAI?$AAN@ 100255e0     libucrt:lcidtoname_downlevel.obj
 0002:000045ec       ??_C@_1M@KPKKNEAH@?$AAp?$AAa?$AA?9?$AAI?$AAN@ 100255ec     libucrt:lcidtoname_downlevel.obj
 0002:000045f8       ??_C@_1M@PJGPPBOG@?$AAg?$AAu?$AA?9?$AAI?$AAN@ 100255f8     libucrt:lcidtoname_downlevel.obj
 0002:00004604       ??_C@_1M@KMKMOPHI@?$AAt?$AAa?$AA?9?$AAI?$AAN@ 10025604     libucrt:lcidtoname_downlevel.obj
 0002:00004610       ??_C@_1M@KFEHEPAC@?$AAt?$AAe?$AA?9?$AAI?$AAN@ 10025610     libucrt:lcidtoname_downlevel.obj
 0002:0000461c       ??_C@_1M@CDCLMGHI@?$AAk?$AAn?$AA?9?$AAI?$AAN@ 1002561c     libucrt:lcidtoname_downlevel.obj
 0002:00004628       ??_C@_1M@MIODLDKF@?$AAm?$AAl?$AA?9?$AAI?$AAN@ 10025628     libucrt:lcidtoname_downlevel.obj
 0002:00004634       ??_C@_1M@PBIEACPO@?$AAm?$AAr?$AA?9?$AAI?$AAN@ 10025634     libucrt:lcidtoname_downlevel.obj
 0002:00004640       ??_C@_1M@NIDEAGPH@?$AAs?$AAa?$AA?9?$AAI?$AAN@ 10025640     libucrt:lcidtoname_downlevel.obj
 0002:0000464c       ??_C@_1M@FHIHCBIO@?$AAm?$AAn?$AA?9?$AAM?$AAN@ 1002564c     libucrt:lcidtoname_downlevel.obj
 0002:00004658       ??_C@_1M@JAIJPENP@?$AAc?$AAy?$AA?9?$AAG?$AAB@ 10025658     libucrt:lcidtoname_downlevel.obj
 0002:00004664       ??_C@_1M@PHGFBEPN@?$AAg?$AAl?$AA?9?$AAE?$AAS@ 10025664     libucrt:lcidtoname_downlevel.obj
 0002:00004670       ??_C@_1O@KPIPDNCP@?$AAk?$AAo?$AAk?$AA?9?$AAI?$AAN@ 10025670     libucrt:lcidtoname_downlevel.obj
 0002:00004680       ??_C@_1O@KNHJLDJA@?$AAs?$AAy?$AAr?$AA?9?$AAS?$AAY@ 10025680     libucrt:lcidtoname_downlevel.obj
 0002:00004690       ??_C@_1O@MKEKBLAH@?$AAd?$AAi?$AAv?$AA?9?$AAM?$AAV@ 10025690     libucrt:lcidtoname_downlevel.obj
 0002:000046a0       ??_C@_1O@OHDCKDDF@?$AAq?$AAu?$AAz?$AA?9?$AAB?$AAO@ 100256a0     libucrt:lcidtoname_downlevel.obj
 0002:000046b0       ??_C@_1M@LEPJNLFD@?$AAn?$AAs?$AA?9?$AAZ?$AAA@ 100256b0     libucrt:lcidtoname_downlevel.obj
 0002:000046bc       ??_C@_1M@OMLEIIJB@?$AAm?$AAi?$AA?9?$AAN?$AAZ@ 100256bc     libucrt:lcidtoname_downlevel.obj
 0002:000046c8       ??_C@_1M@PMPEAILG@?$AAa?$AAr?$AA?9?$AAI?$AAQ@ 100256c8     libucrt:lcidtoname_downlevel.obj
 0002:000046d4       ??_C@_1M@CNKPNOEE@?$AAd?$AAe?$AA?9?$AAC?$AAH@ 100256d4     libucrt:lcidtoname_downlevel.obj
 0002:000046e0       ??_C@_1M@LKMGMLKO@?$AAe?$AAn?$AA?9?$AAG?$AAB@ 100256e0     libucrt:lcidtoname_downlevel.obj
 0002:000046ec       ??_C@_1M@PGKJFFGL@?$AAe?$AAs?$AA?9?$AAM?$AAX@ 100256ec     libucrt:lcidtoname_downlevel.obj
 0002:000046f8       ??_C@_1M@DNNANBDC@?$AAf?$AAr?$AA?9?$AAB?$AAE@ 100256f8     libucrt:lcidtoname_downlevel.obj
 0002:00004704       ??_C@_1M@HLGMDFHM@?$AAi?$AAt?$AA?9?$AAC?$AAH@ 10025704     libucrt:lcidtoname_downlevel.obj
 0002:00004710       ??_C@_1M@CLLBGJH@?$AAn?$AAl?$AA?9?$AAB?$AAE@ 10025710     libucrt:lcidtoname_downlevel.obj
 0002:0000471c       ??_C@_1M@BODBOGLF@?$AAn?$AAn?$AA?9?$AAN?$AAO@ 1002571c     libucrt:lcidtoname_downlevel.obj
 0002:00004728       ??_C@_1M@HFFAHKAD@?$AAp?$AAt?$AA?9?$AAP?$AAT@ 10025728     libucrt:lcidtoname_downlevel.obj
 0002:00004734       ??_C@_1BG@LNOAKHIE@?$AAs?$AAr?$AA?9?$AAS?$AAP?$AA?9?$AAL?$AAa?$AAt?$AAn@ 10025734     libucrt:lcidtoname_downlevel.obj
 0002:0000474c       ??_C@_1M@HBMHBGAK@?$AAs?$AAv?$AA?9?$AAF?$AAI@ 1002574c     libucrt:lcidtoname_downlevel.obj
 0002:00004758       ??_C@_1BG@DGCJGJBE@?$AAa?$AAz?$AA?9?$AAA?$AAZ?$AA?9?$AAC?$AAy?$AAr?$AAl@ 10025758     libucrt:lcidtoname_downlevel.obj
 0002:00004770       ??_C@_1M@KEJDAAHB@?$AAs?$AAe?$AA?9?$AAS?$AAE@ 10025770     libucrt:lcidtoname_downlevel.obj
 0002:0000477c       ??_C@_1M@HEIBJJAD@?$AAm?$AAs?$AA?9?$AAB?$AAN@ 1002577c     libucrt:lcidtoname_downlevel.obj
 0002:00004788       ??_C@_1BG@PBGJMCEM@?$AAu?$AAz?$AA?9?$AAU?$AAZ?$AA?9?$AAC?$AAy?$AAr?$AAl@ 10025788     libucrt:lcidtoname_downlevel.obj
 0002:000047a0       ??_C@_1O@LAOBCMDF@?$AAq?$AAu?$AAz?$AA?9?$AAE?$AAC@ 100257a0     libucrt:lcidtoname_downlevel.obj
 0002:000047b0       ??_C@_1M@POEEMAIO@?$AAa?$AAr?$AA?9?$AAE?$AAG@ 100257b0     libucrt:lcidtoname_downlevel.obj
 0002:000047bc       ??_C@_1M@EFAKDEDL@?$AAz?$AAh?$AA?9?$AAH?$AAK@ 100257bc     libucrt:lcidtoname_downlevel.obj
 0002:000047c8       ??_C@_1M@HKKIJHGI@?$AAd?$AAe?$AA?9?$AAA?$AAT@ 100257c8     libucrt:lcidtoname_downlevel.obj
 0002:000047d4       ??_C@_1M@KBFBEHJF@?$AAe?$AAn?$AA?9?$AAA?$AAU@ 100257d4     libucrt:lcidtoname_downlevel.obj
 0002:000047e0       ??_C@_1M@MNPLFAAH@?$AAe?$AAs?$AA?9?$AAE?$AAS@ 100257e0     libucrt:lcidtoname_downlevel.obj
 0002:000047ec       ??_C@_1M@HJOOJFMA@?$AAf?$AAr?$AA?9?$AAC?$AAA@ 100257ec     libucrt:lcidtoname_downlevel.obj
 0002:000047f8       ??_C@_1BG@JPOFPNAB@?$AAs?$AAr?$AA?9?$AAS?$AAP?$AA?9?$AAC?$AAy?$AAr?$AAl@ 100257f8     libucrt:lcidtoname_downlevel.obj
 0002:00004810       ??_C@_1M@LNFOCMOB@?$AAs?$AAe?$AA?9?$AAF?$AAI@ 10025810     libucrt:lcidtoname_downlevel.obj
 0002:0000481c       ??_C@_1O@MGJBOAMB@?$AAq?$AAu?$AAz?$AA?9?$AAP?$AAE@ 1002581c     libucrt:lcidtoname_downlevel.obj
 0002:0000482c       ??_C@_1M@GJINLBOK@?$AAa?$AAr?$AA?9?$AAL?$AAY@ 1002582c     libucrt:lcidtoname_downlevel.obj
 0002:00004838       ??_C@_1M@GGMNHJNL@?$AAz?$AAh?$AA?9?$AAS?$AAG@ 10025838     libucrt:lcidtoname_downlevel.obj
 0002:00004844       ??_C@_1M@HOIKODND@?$AAd?$AAe?$AA?9?$AAL?$AAU@ 10025844     libucrt:lcidtoname_downlevel.obj
 0002:00004850       ??_C@_1M@DDOCCGFG@?$AAe?$AAn?$AA?9?$AAC?$AAA@ 10025850     libucrt:lcidtoname_downlevel.obj
 0002:0000485c       ??_C@_1M@BNOEMJLF@?$AAe?$AAs?$AA?9?$AAG?$AAT@ 1002585c     libucrt:lcidtoname_downlevel.obj
 0002:00004868       ??_C@_1M@EOGNKEK@?$AAf?$AAr?$AA?9?$AAC?$AAH@ 10025868     libucrt:lcidtoname_downlevel.obj
 0002:00004874       ??_C@_1M@FLIDJFHL@?$AAh?$AAr?$AA?9?$AAB?$AAA@ 10025874     libucrt:lcidtoname_downlevel.obj
 0002:00004880       ??_C@_1O@FMCELNAJ@?$AAs?$AAm?$AAj?$AA?9?$AAN?$AAO@ 10025880     libucrt:lcidtoname_downlevel.obj
 0002:00004890       ??_C@_1M@JHGLJMGJ@?$AAa?$AAr?$AA?9?$AAD?$AAZ@ 10025890     libucrt:lcidtoname_downlevel.obj
 0002:0000489c       ??_C@_1M@JKKFDCNP@?$AAz?$AAh?$AA?9?$AAM?$AAO@ 1002589c     libucrt:lcidtoname_downlevel.obj
 0002:000048a8       ??_C@_1M@GEEFALPE@?$AAd?$AAe?$AA?9?$AAL?$AAI@ 100258a8     libucrt:lcidtoname_downlevel.obj
 0002:000048b4       ??_C@_1M@IGEOFBG@?$AAe?$AAn?$AA?9?$AAN?$AAZ@ 100258b4     libucrt:lcidtoname_downlevel.obj
 0002:000048c0       ??_C@_1M@KDBONEHP@?$AAe?$AAs?$AA?9?$AAC?$AAR@ 100258c0     libucrt:lcidtoname_downlevel.obj
 0002:000048cc       ??_C@_1M@FHMDOHNN@?$AAf?$AAr?$AA?9?$AAL?$AAU@ 100258cc     libucrt:lcidtoname_downlevel.obj
 0002:000048d8       ??_C@_1BG@NFKKMAFG@?$AAb?$AAs?$AA?9?$AAB?$AAA?$AA?9?$AAL?$AAa?$AAt?$AAn@ 100258d8     libucrt:lcidtoname_downlevel.obj
 0002:000048f0       ??_C@_1O@IMNBEMCI@?$AAs?$AAm?$AAj?$AA?9?$AAS?$AAE@ 100258f0     libucrt:lcidtoname_downlevel.obj
 0002:00004900       ??_C@_1M@DHHMBNDP@?$AAa?$AAr?$AA?9?$AAM?$AAA@ 10025900     libucrt:lcidtoname_downlevel.obj
 0002:0000490c       ??_C@_1M@BNBLJCGH@?$AAe?$AAn?$AA?9?$AAI?$AAE@ 1002590c     libucrt:lcidtoname_downlevel.obj
 0002:00004918       ??_C@_1M@GEPAFMDL@?$AAe?$AAs?$AA?9?$AAP?$AAA@ 10025918     libucrt:lcidtoname_downlevel.obj
 0002:00004924       ??_C@_1M@OJONDMDL@?$AAf?$AAr?$AA?9?$AAM?$AAC@ 10025924     libucrt:lcidtoname_downlevel.obj
 0002:00004930       ??_C@_1BG@OBCNFJB@?$AAs?$AAr?$AA?9?$AAB?$AAA?$AA?9?$AAL?$AAa?$AAt?$AAn@ 10025930     libucrt:lcidtoname_downlevel.obj
 0002:00004948       ??_C@_1O@KEMEEGPO@?$AAs?$AAm?$AAa?$AA?9?$AAN?$AAO@ 10025948     libucrt:lcidtoname_downlevel.obj
 0002:00004958       ??_C@_1M@ELMGFODK@?$AAa?$AAr?$AA?9?$AAT?$AAN@ 10025958     libucrt:lcidtoname_downlevel.obj
 0002:00004964       ??_C@_1M@BHDLHFAF@?$AAe?$AAn?$AA?9?$AAZ?$AAA@ 10025964     libucrt:lcidtoname_downlevel.obj
 0002:00004970       ??_C@_1M@BMGIGLIF@?$AAe?$AAs?$AA?9?$AAD?$AAO@ 10025970     libucrt:lcidtoname_downlevel.obj
 0002:0000497c       ??_C@_1BG@CMBHIPBE@?$AAs?$AAr?$AA?9?$AAB?$AAA?$AA?9?$AAC?$AAy?$AAr?$AAl@ 1002597c     libucrt:lcidtoname_downlevel.obj
 0002:00004994       ??_C@_1O@HEDBLHNP@?$AAs?$AAm?$AAa?$AA?9?$AAS?$AAE@ 10025994     libucrt:lcidtoname_downlevel.obj
 0002:000049a4       ??_C@_1M@DAGCADIM@?$AAa?$AAr?$AA?9?$AAO?$AAM@ 100259a4     libucrt:lcidtoname_downlevel.obj
 0002:000049b0       ??_C@_1M@FODLMICG@?$AAe?$AAn?$AA?9?$AAJ?$AAM@ 100259b0     libucrt:lcidtoname_downlevel.obj
 0002:000049bc       ??_C@_1M@DNMLCIHB@?$AAe?$AAs?$AA?9?$AAV?$AAE@ 100259bc     libucrt:lcidtoname_downlevel.obj
 0002:000049c8       ??_C@_1O@EOKHMKJK@?$AAs?$AAm?$AAs?$AA?9?$AAF?$AAI@ 100259c8     libucrt:lcidtoname_downlevel.obj
 0002:000049d8       ??_C@_1M@CAFJMKOF@?$AAa?$AAr?$AA?9?$AAY?$AAE@ 100259d8     libucrt:lcidtoname_downlevel.obj
 0002:000049e4       ??_C@_1M@CBFHIJLI@?$AAe?$AAn?$AA?9?$AAC?$AAB@ 100259e4     libucrt:lcidtoname_downlevel.obj
 0002:000049f0       ??_C@_1M@BGNFLDN@?$AAe?$AAs?$AA?9?$AAC?$AAO@ 100259f0     libucrt:lcidtoname_downlevel.obj
 0002:000049fc       ??_C@_1O@JMPHMAMC@?$AAs?$AAm?$AAn?$AA?9?$AAF?$AAI@ 100259fc     libucrt:lcidtoname_downlevel.obj
 0002:00004a0c       ??_C@_1M@JLANABKE@?$AAa?$AAr?$AA?9?$AAS?$AAY@ 10025a0c     libucrt:lcidtoname_downlevel.obj
 0002:00004a18       ??_C@_1M@HPKGCFGN@?$AAe?$AAn?$AA?9?$AAB?$AAZ@ 10025a18     libucrt:lcidtoname_downlevel.obj
 0002:00004a24       ??_C@_1M@OLJCMLGM@?$AAe?$AAs?$AA?9?$AAP?$AAE@ 10025a24     libucrt:lcidtoname_downlevel.obj
 0002:00004a30       ??_C@_1M@MKKGFKLE@?$AAa?$AAr?$AA?9?$AAJ?$AAO@ 10025a30     libucrt:lcidtoname_downlevel.obj
 0002:00004a3c       ??_C@_1M@EKPGLDNI@?$AAe?$AAn?$AA?9?$AAT?$AAT@ 10025a3c     libucrt:lcidtoname_downlevel.obj
 0002:00004a48       ??_C@_1M@OONGHFHE@?$AAe?$AAs?$AA?9?$AAA?$AAR@ 10025a48     libucrt:lcidtoname_downlevel.obj
 0002:00004a54       ??_C@_1M@OOJFGBHE@?$AAa?$AAr?$AA?9?$AAL?$AAB@ 10025a54     libucrt:lcidtoname_downlevel.obj
 0002:00004a60       ??_C@_1M@GCEJHNEG@?$AAe?$AAn?$AA?9?$AAZ?$AAW@ 10025a60     libucrt:lcidtoname_downlevel.obj
 0002:00004a6c       ??_C@_1M@JNOCAHJI@?$AAe?$AAs?$AA?9?$AAE?$AAC@ 10025a6c     libucrt:lcidtoname_downlevel.obj
 0002:00004a78       ??_C@_1M@JEFHPGGB@?$AAa?$AAr?$AA?9?$AAK?$AAW@ 10025a78     libucrt:lcidtoname_downlevel.obj
 0002:00004a84       ??_C@_1M@MLKIBJOJ@?$AAe?$AAn?$AA?9?$AAP?$AAH@ 10025a84     libucrt:lcidtoname_downlevel.obj
 0002:00004a90       ??_C@_1M@BDNIPEND@?$AAe?$AAs?$AA?9?$AAC?$AAL@ 10025a90     libucrt:lcidtoname_downlevel.obj
 0002:00004a9c       ??_C@_1M@MPNMEKBD@?$AAa?$AAr?$AA?9?$AAA?$AAE@ 10025a9c     libucrt:lcidtoname_downlevel.obj
 0002:00004aa8       ??_C@_1M@KBJALCPI@?$AAe?$AAs?$AA?9?$AAU?$AAY@ 10025aa8     libucrt:lcidtoname_downlevel.obj
 0002:00004ab4       ??_C@_1M@LLCCOAGA@?$AAa?$AAr?$AA?9?$AAB?$AAH@ 10025ab4     libucrt:lcidtoname_downlevel.obj
 0002:00004ac0       ??_C@_1M@PBFNCDEL@?$AAe?$AAs?$AA?9?$AAP?$AAY@ 10025ac0     libucrt:lcidtoname_downlevel.obj
 0002:00004acc       ??_C@_1M@EDGINPNP@?$AAa?$AAr?$AA?9?$AAQ?$AAA@ 10025acc     libucrt:lcidtoname_downlevel.obj
 0002:00004ad8       ??_C@_1M@MKDBIIJI@?$AAe?$AAs?$AA?9?$AAB?$AAO@ 10025ad8     libucrt:lcidtoname_downlevel.obj
 0002:00004ae4       ??_C@_1M@CPKKEBLD@?$AAe?$AAs?$AA?9?$AAS?$AAV@ 10025ae4     libucrt:lcidtoname_downlevel.obj
 0002:00004af0       ??_C@_1M@NDBGMMJL@?$AAe?$AAs?$AA?9?$AAH?$AAN@ 10025af0     libucrt:lcidtoname_downlevel.obj
 0002:00004afc       ??_C@_1M@JIJIBHDP@?$AAe?$AAs?$AA?9?$AAN?$AAI@ 10025afc     libucrt:lcidtoname_downlevel.obj
 0002:00004b08       ??_C@_1M@CGFMKEEK@?$AAe?$AAs?$AA?9?$AAP?$AAR@ 10025b08     libucrt:lcidtoname_downlevel.obj
 0002:00004b14       ??_C@_1O@ICJHKIIK@?$AAz?$AAh?$AA?9?$AAC?$AAH?$AAT@ 10025b14     libucrt:lcidtoname_downlevel.obj
 0002:00004b24       ??_C@_15CLNEJCE@?$AAs?$AAr@ 10025b24     libucrt:lcidtoname_downlevel.obj
 0002:00005250       ??_C@_1M@KAHEKEIG@?$AAa?$AAf?$AA?9?$AAz?$AAa@ 10026250     libucrt:lcidtoname_downlevel.obj
 0002:0000525c       ??_C@_1M@GIECOABL@?$AAa?$AAr?$AA?9?$AAa?$AAe@ 1002625c     libucrt:lcidtoname_downlevel.obj
 0002:00005268       ??_C@_1M@BMLMEKGI@?$AAa?$AAr?$AA?9?$AAb?$AAh@ 10026268     libucrt:lcidtoname_downlevel.obj
 0002:00005274       ??_C@_1M@DAPFDGGB@?$AAa?$AAr?$AA?9?$AAd?$AAz@ 10026274     libucrt:lcidtoname_downlevel.obj
 0002:00005280       ??_C@_1M@FJNKGKIG@?$AAa?$AAr?$AA?9?$AAe?$AAg@ 10026280     libucrt:lcidtoname_downlevel.obj
 0002:0000528c       ??_C@_1M@FLGKKCLO@?$AAa?$AAr?$AA?9?$AAi?$AAq@ 1002628c     libucrt:lcidtoname_downlevel.obj
 0002:00005298       ??_C@_1M@GNDIPALM@?$AAa?$AAr?$AA?9?$AAj?$AAo@ 10026298     libucrt:lcidtoname_downlevel.obj
 0002:000052a4       ??_C@_1M@DDMJFMGJ@?$AAa?$AAr?$AA?9?$AAk?$AAw@ 100262a4     libucrt:lcidtoname_downlevel.obj
 0002:000052b0       ??_C@_1M@EJALMLHM@?$AAa?$AAr?$AA?9?$AAl?$AAb@ 100262b0     libucrt:lcidtoname_downlevel.obj
 0002:000052bc       ??_C@_1M@MOBDBLOC@?$AAa?$AAr?$AA?9?$AAl?$AAy@ 100262bc     libucrt:lcidtoname_downlevel.obj
 0002:000052c8       ??_C@_1M@JAOCLHDH@?$AAa?$AAr?$AA?9?$AAm?$AAa@ 100262c8     libucrt:lcidtoname_downlevel.obj
 0002:000052d4       ??_C@_1M@JHPMKJIE@?$AAa?$AAr?$AA?9?$AAo?$AAm@ 100262d4     libucrt:lcidtoname_downlevel.obj
 0002:000052e0       ??_C@_1M@OEPGHFNH@?$AAa?$AAr?$AA?9?$AAq?$AAa@ 100262e0     libucrt:lcidtoname_downlevel.obj
 0002:000052ec       ??_C@_1M@KJDONENM@?$AAa?$AAr?$AA?9?$AAs?$AAa@ 100262ec     libucrt:lcidtoname_downlevel.obj
 0002:000052f8       ??_C@_1M@DMJDKLKM@?$AAa?$AAr?$AA?9?$AAs?$AAy@ 100262f8     libucrt:lcidtoname_downlevel.obj
 0002:00005304       ??_C@_1M@OMFIPEDC@?$AAa?$AAr?$AA?9?$AAt?$AAn@ 10026304     libucrt:lcidtoname_downlevel.obj
 0002:00005310       ??_C@_1M@IHMHGAON@?$AAa?$AAr?$AA?9?$AAy?$AAe@ 10026310     libucrt:lcidtoname_downlevel.obj
 0002:0000531c       ??_C@_1BG@KDCPGJGB@?$AAa?$AAz?$AA?9?$AAa?$AAz?$AA?9?$AAc?$AAy?$AAr?$AAl@ 1002631c     libucrt:lcidtoname_downlevel.obj
 0002:00005334       ??_C@_1BG@IBCKDDOE@?$AAa?$AAz?$AA?9?$AAa?$AAz?$AA?9?$AAl?$AAa?$AAt?$AAn@ 10026334     libucrt:lcidtoname_downlevel.obj
 0002:0000534c       ??_C@_1M@EGPFDCPD@?$AAb?$AAe?$AA?9?$AAb?$AAy@ 1002634c     libucrt:lcidtoname_downlevel.obj
 0002:00005358       ??_C@_1M@PCMGMCGC@?$AAb?$AAg?$AA?9?$AAb?$AAg@ 10026358     libucrt:lcidtoname_downlevel.obj
 0002:00005364       ??_C@_1M@BJBMFGOB@?$AAb?$AAn?$AA?9?$AAi?$AAn@ 10026364     libucrt:lcidtoname_downlevel.obj
 0002:00005370       ??_C@_1BG@EAKMMACD@?$AAb?$AAs?$AA?9?$AAb?$AAa?$AA?9?$AAl?$AAa?$AAt?$AAn@ 10026370     libucrt:lcidtoname_downlevel.obj
 0002:00005388       ??_C@_1M@KGADAODK@?$AAc?$AAa?$AA?9?$AAe?$AAs@ 10026388     libucrt:lcidtoname_downlevel.obj
 0002:00005394       ??_C@_1M@COAJPDHI@?$AAc?$AAs?$AA?9?$AAc?$AAz@ 10026394     libucrt:lcidtoname_downlevel.obj
 0002:000053a0       ??_C@_1M@DHBHFONH@?$AAc?$AAy?$AA?9?$AAg?$AAb@ 100263a0     libucrt:lcidtoname_downlevel.obj
 0002:000053ac       ??_C@_1M@IMGKELGA@?$AAd?$AAa?$AA?9?$AAd?$AAk@ 100263ac     libucrt:lcidtoname_downlevel.obj
 0002:000053b8       ??_C@_1M@NNDGDNGA@?$AAd?$AAe?$AA?9?$AAa?$AAt@ 100263b8     libucrt:lcidtoname_downlevel.obj
 0002:000053c4       ??_C@_1M@IKDBHEEM@?$AAd?$AAe?$AA?9?$AAc?$AAh@ 100263c4     libucrt:lcidtoname_downlevel.obj
 0002:000053d0       ??_C@_1M@GFFOJMCJ@?$AAd?$AAe?$AA?9?$AAd?$AAe@ 100263d0     libucrt:lcidtoname_downlevel.obj
 0002:000053dc       ??_C@_1M@MDNLKBPM@?$AAd?$AAe?$AA?9?$AAl?$AAi@ 100263dc     libucrt:lcidtoname_downlevel.obj
 0002:000053e8       ??_C@_1M@NJBEEJNL@?$AAd?$AAe?$AA?9?$AAl?$AAu@ 100263e8     libucrt:lcidtoname_downlevel.obj
 0002:000053f4       ??_C@_1O@GNNELBAP@?$AAd?$AAi?$AAv?$AA?9?$AAm?$AAv@ 100263f4     libucrt:lcidtoname_downlevel.obj
 0002:00005404       ??_C@_1M@EJLEOGAE@?$AAe?$AAl?$AA?9?$AAg?$AAr@ 10026404     libucrt:lcidtoname_downlevel.obj
 0002:00005410       ??_C@_1M@GMPONJN@?$AAe?$AAn?$AA?9?$AAa?$AAu@ 10026410     libucrt:lcidtoname_downlevel.obj
 0002:0000541c       ??_C@_1M@NIDIIPGF@?$AAe?$AAn?$AA?9?$AAb?$AAz@ 1002641c     libucrt:lcidtoname_downlevel.obj
 0002:00005428       ??_C@_1M@JEHMIMFO@?$AAe?$AAn?$AA?9?$AAc?$AAa@ 10026428     libucrt:lcidtoname_downlevel.obj
 0002:00005434       ??_C@_1M@IGMJCDLA@?$AAe?$AAn?$AA?9?$AAc?$AAb@ 10026434     libucrt:lcidtoname_downlevel.obj
 0002:00005440       ??_C@_1M@BNFIGBKG@?$AAe?$AAn?$AA?9?$AAg?$AAb@ 10026440     libucrt:lcidtoname_downlevel.obj
 0002:0000544c       ??_C@_1M@LKIFDIGP@?$AAe?$AAn?$AA?9?$AAi?$AAe@ 1002644c     libucrt:lcidtoname_downlevel.obj
 0002:00005458       ??_C@_1M@PJKFGCCO@?$AAe?$AAn?$AA?9?$AAj?$AAm@ 10026458     libucrt:lcidtoname_downlevel.obj
 0002:00005464       ??_C@_1M@KPPKEPBO@?$AAe?$AAn?$AA?9?$AAn?$AAz@ 10026464     libucrt:lcidtoname_downlevel.obj
 0002:00005470       ??_C@_1M@GMDGLDOB@?$AAe?$AAn?$AA?9?$AAp?$AAh@ 10026470     libucrt:lcidtoname_downlevel.obj
 0002:0000547c       ??_C@_1M@ONGIBJNA@?$AAe?$AAn?$AA?9?$AAt?$AAt@ 1002647c     libucrt:lcidtoname_downlevel.obj
 0002:00005488       ??_C@_1M@LLODPCMM@?$AAe?$AAn?$AA?9?$AAu?$AAs@ 10026488     libucrt:lcidtoname_downlevel.obj
 0002:00005494       ??_C@_1M@LAKFNPAN@?$AAe?$AAn?$AA?9?$AAz?$AAa@ 10026494     libucrt:lcidtoname_downlevel.obj
 0002:000054a0       ??_C@_1M@MFNHNHEO@?$AAe?$AAn?$AA?9?$AAz?$AAw@ 100264a0     libucrt:lcidtoname_downlevel.obj
 0002:000054ac       ??_C@_1M@EJEINPHM@?$AAe?$AAs?$AA?9?$AAa?$AAr@ 100264ac     libucrt:lcidtoname_downlevel.obj
 0002:000054b8       ??_C@_1M@GNKPCCJA@?$AAe?$AAs?$AA?9?$AAb?$AAo@ 100264b8     libucrt:lcidtoname_downlevel.obj
 0002:000054c4       ??_C@_1M@LEEGFONL@?$AAe?$AAs?$AA?9?$AAc?$AAl@ 100264c4     libucrt:lcidtoname_downlevel.obj
 0002:000054d0       ??_C@_1M@KGPDPBDF@?$AAe?$AAs?$AA?9?$AAc?$AAo@ 100264d0     libucrt:lcidtoname_downlevel.obj
 0002:000054dc       ??_C@_1M@EIAHOHH@?$AAe?$AAs?$AA?9?$AAc?$AAr@ 100264dc     libucrt:lcidtoname_downlevel.obj
 0002:000054e8       ??_C@_1M@LLPGMBIN@?$AAe?$AAs?$AA?9?$AAd?$AAo@ 100264e8     libucrt:lcidtoname_downlevel.obj
 0002:000054f4       ??_C@_1M@DKHMKNJA@?$AAe?$AAs?$AA?9?$AAe?$AAc@ 100264f4     libucrt:lcidtoname_downlevel.obj
 0002:00005500       ??_C@_1M@GKGFPKAP@?$AAe?$AAs?$AA?9?$AAe?$AAs@ 10026500     libucrt:lcidtoname_downlevel.obj
 0002:0000550c       ??_C@_1M@LKHKGDLN@?$AAe?$AAs?$AA?9?$AAg?$AAt@ 1002650c     libucrt:lcidtoname_downlevel.obj
 0002:00005518       ??_C@_1M@HEIIGGJD@?$AAe?$AAs?$AA?9?$AAh?$AAn@ 10026518     libucrt:lcidtoname_downlevel.obj
 0002:00005524       ??_C@_1M@FBDHPPGD@?$AAe?$AAs?$AA?9?$AAm?$AAx@ 10026524     libucrt:lcidtoname_downlevel.obj
 0002:00005530       ??_C@_1M@DPAGLNDH@?$AAe?$AAs?$AA?9?$AAn?$AAi@ 10026530     libucrt:lcidtoname_downlevel.obj
 0002:0000553c       ??_C@_1M@MDGOPGDD@?$AAe?$AAs?$AA?9?$AAp?$AAa@ 1002653c     libucrt:lcidtoname_downlevel.obj
 0002:00005548       ??_C@_1M@EMAMGBGE@?$AAe?$AAs?$AA?9?$AAp?$AAe@ 10026548     libucrt:lcidtoname_downlevel.obj
 0002:00005554       ??_C@_1M@IBMCAOEC@?$AAe?$AAs?$AA?9?$AAp?$AAr@ 10026554     libucrt:lcidtoname_downlevel.obj
 0002:00005560       ??_C@_1M@FGMDIJED@?$AAe?$AAs?$AA?9?$AAp?$AAy@ 10026560     libucrt:lcidtoname_downlevel.obj
 0002:0000556c       ??_C@_1M@IIDEOLLL@?$AAe?$AAs?$AA?9?$AAs?$AAv@ 1002656c     libucrt:lcidtoname_downlevel.obj
 0002:00005578       ??_C@_1M@GAOBIPA@?$AAe?$AAs?$AA?9?$AAu?$AAy@ 10026578     libucrt:lcidtoname_downlevel.obj
 0002:00005584       ??_C@_1M@JKFFICHJ@?$AAe?$AAs?$AA?9?$AAv?$AAe@ 10026584     libucrt:lcidtoname_downlevel.obj
 0002:00005590       ??_C@_1M@PNMLOJDF@?$AAe?$AAt?$AA?9?$AAe?$AAe@ 10026590     libucrt:lcidtoname_downlevel.obj
 0002:0000559c       ??_C@_1M@GHHLIKEI@?$AAe?$AAu?$AA?9?$AAe?$AAs@ 1002659c     libucrt:lcidtoname_downlevel.obj
 0002:000055a8       ??_C@_1M@PBNONODE@?$AAf?$AAa?$AA?9?$AAi?$AAr@ 100265a8     libucrt:lcidtoname_downlevel.obj
 0002:000055b4       ??_C@_1M@JEEHPMIL@?$AAf?$AAi?$AA?9?$AAf?$AAi@ 100265b4     libucrt:lcidtoname_downlevel.obj
 0002:000055c0       ??_C@_1M@LMDCNDBA@?$AAf?$AAo?$AA?9?$AAf?$AAo@ 100265c0     libucrt:lcidtoname_downlevel.obj
 0002:000055cc       ??_C@_1M@JKEOHLDK@?$AAf?$AAr?$AA?9?$AAb?$AAe@ 100265cc     libucrt:lcidtoname_downlevel.obj
 0002:000055d8       ??_C@_1M@NOHADPMI@?$AAf?$AAr?$AA?9?$AAc?$AAa@ 100265d8     libucrt:lcidtoname_downlevel.obj
 0002:000055e4       ??_C@_1M@KDHIHAEC@?$AAf?$AAr?$AA?9?$AAc?$AAh@ 100265e4     libucrt:lcidtoname_downlevel.obj
 0002:000055f0       ??_C@_1M@MMBBFGAK@?$AAf?$AAr?$AA?9?$AAf?$AAr@ 100265f0     libucrt:lcidtoname_downlevel.obj
 0002:000055fc       ??_C@_1M@PAFNENNF@?$AAf?$AAr?$AA?9?$AAl?$AAu@ 100265fc     libucrt:lcidtoname_downlevel.obj
 0002:00005608       ??_C@_1M@EOHDJGDD@?$AAf?$AAr?$AA?9?$AAm?$AAc@ 10026608     libucrt:lcidtoname_downlevel.obj
 0002:00005614       ??_C@_1M@FAPLLOPF@?$AAg?$AAl?$AA?9?$AAe?$AAs@ 10026614     libucrt:lcidtoname_downlevel.obj
 0002:00005620       ??_C@_1M@FOPBFLOO@?$AAg?$AAu?$AA?9?$AAi?$AAn@ 10026620     libucrt:lcidtoname_downlevel.obj
 0002:0000562c       ??_C@_1M@KBMCINPM@?$AAh?$AAe?$AA?9?$AAi?$AAl@ 1002662c     libucrt:lcidtoname_downlevel.obj
 0002:00005638       ??_C@_1M@BBPHKFPJ@?$AAh?$AAi?$AA?9?$AAi?$AAn@ 10026638     libucrt:lcidtoname_downlevel.obj
 0002:00005644       ??_C@_1M@PMBNDPHD@?$AAh?$AAr?$AA?9?$AAb?$AAa@ 10026644     libucrt:lcidtoname_downlevel.obj
 0002:00005650       ??_C@_1M@BPCKOEGE@?$AAh?$AAr?$AA?9?$AAh?$AAr@ 10026650     libucrt:lcidtoname_downlevel.obj
 0002:0000565c       ??_C@_1M@GACBMHKE@?$AAh?$AAu?$AA?9?$AAh?$AAu@ 1002665c     libucrt:lcidtoname_downlevel.obj
 0002:00005668       ??_C@_1M@MILPAJJC@?$AAh?$AAy?$AA?9?$AAa?$AAm@ 10026668     libucrt:lcidtoname_downlevel.obj
 0002:00005674       ??_C@_1M@BABBICEC@?$AAi?$AAd?$AA?9?$AAi?$AAd@ 10026674     libucrt:lcidtoname_downlevel.obj
 0002:00005680       ??_C@_1M@BIKNHHPF@?$AAi?$AAs?$AA?9?$AAi?$AAs@ 10026680     libucrt:lcidtoname_downlevel.obj
 0002:0000568c       ??_C@_1M@NMPCJPHE@?$AAi?$AAt?$AA?9?$AAc?$AAh@ 1002668c     libucrt:lcidtoname_downlevel.obj
 0002:00005698       ??_C@_1M@GHKGFEDF@?$AAi?$AAt?$AA?9?$AAi?$AAt@ 10026698     libucrt:lcidtoname_downlevel.obj
 0002:000056a4       ??_C@_1M@NIEJCJJA@?$AAj?$AAa?$AA?9?$AAj?$AAp@ 100266a4     libucrt:lcidtoname_downlevel.obj
 0002:000056b0       ??_C@_1M@JILFNBIM@?$AAk?$AAa?$AA?9?$AAg?$AAe@ 100266b0     libucrt:lcidtoname_downlevel.obj
 0002:000056bc       ??_C@_1M@PACPMGPH@?$AAk?$AAk?$AA?9?$AAk?$AAz@ 100266bc     libucrt:lcidtoname_downlevel.obj
 0002:000056c8       ??_C@_1M@IELFGMHA@?$AAk?$AAn?$AA?9?$AAi?$AAn@ 100266c8     libucrt:lcidtoname_downlevel.obj
 0002:000056d4       ??_C@_1O@IBBJHCH@?$AAk?$AAo?$AAk?$AA?9?$AAi?$AAn@ 100266d4     libucrt:lcidtoname_downlevel.obj
 0002:000056e4       ??_C@_1M@DMHAEOGC@?$AAk?$AAo?$AA?9?$AAk?$AAr@ 100266e4     libucrt:lcidtoname_downlevel.obj
 0002:000056f0       ??_C@_1M@HBAHBIGA@?$AAk?$AAy?$AA?9?$AAk?$AAg@ 100266f0     libucrt:lcidtoname_downlevel.obj
 0002:000056fc       ??_C@_1M@KPMILCJG@?$AAl?$AAt?$AA?9?$AAl?$AAt@ 100266fc     libucrt:lcidtoname_downlevel.obj
 0002:00005708       ??_C@_1M@BDEKKCA@?$AAl?$AAv?$AA?9?$AAl?$AAv@ 10026708     libucrt:lcidtoname_downlevel.obj
 0002:00005714       ??_C@_1M@ELCKCCJJ@?$AAm?$AAi?$AA?9?$AAn?$AAz@ 10026714     libucrt:lcidtoname_downlevel.obj
 0002:00005720       ??_C@_1M@CBOOLAPA@?$AAm?$AAk?$AA?9?$AAm?$AAk@ 10026720     libucrt:lcidtoname_downlevel.obj
 0002:0000572c       ??_C@_1M@GPHNBJKN@?$AAm?$AAl?$AA?9?$AAi?$AAn@ 1002672c     libucrt:lcidtoname_downlevel.obj
 0002:00005738       ??_C@_1M@PABJILIG@?$AAm?$AAn?$AA?9?$AAm?$AAn@ 10026738     libucrt:lcidtoname_downlevel.obj
 0002:00005744       ??_C@_1M@FGBKKIPG@?$AAm?$AAr?$AA?9?$AAi?$AAn@ 10026744     libucrt:lcidtoname_downlevel.obj
 0002:00005750       ??_C@_1M@NDBPDDAL@?$AAm?$AAs?$AA?9?$AAb?$AAn@ 10026750     libucrt:lcidtoname_downlevel.obj
 0002:0000575c       ??_C@_1M@OPIHOOPI@?$AAm?$AAs?$AA?9?$AAm?$AAy@ 1002675c     libucrt:lcidtoname_downlevel.obj
 0002:00005768       ??_C@_1M@PPDBCNFM@?$AAm?$AAt?$AA?9?$AAm?$AAt@ 10026768     libucrt:lcidtoname_downlevel.obj
 0002:00005774       ??_C@_1M@KDJDKMDD@?$AAn?$AAb?$AA?9?$AAn?$AAo@ 10026774     libucrt:lcidtoname_downlevel.obj
 0002:00005780       ??_C@_1M@KFCFLMJP@?$AAn?$AAl?$AA?9?$AAb?$AAe@ 10026780     libucrt:lcidtoname_downlevel.obj
 0002:0000578c       ??_C@_1M@KPOPDDGO@?$AAn?$AAl?$AA?9?$AAn?$AAl@ 1002678c     libucrt:lcidtoname_downlevel.obj
 0002:00005798       ??_C@_1M@LJKPEMLN@?$AAn?$AAn?$AA?9?$AAn?$AAo@ 10026798     libucrt:lcidtoname_downlevel.obj
 0002:000057a4       ??_C@_1M@BDGHHBFL@?$AAn?$AAs?$AA?9?$AAz?$AAa@ 100267a4     libucrt:lcidtoname_downlevel.obj
 0002:000057b0       ??_C@_1M@IDEHOAP@?$AAp?$AAa?$AA?9?$AAi?$AAn@ 100267b0     libucrt:lcidtoname_downlevel.obj
 0002:000057bc       ??_C@_1M@HDBKGOGH@?$AAp?$AAl?$AA?9?$AAp?$AAl@ 100267bc     libucrt:lcidtoname_downlevel.obj
 0002:000057c8       ??_C@_1M@LJLLCMEH@?$AAp?$AAt?$AA?9?$AAb?$AAr@ 100267c8     libucrt:lcidtoname_downlevel.obj
 0002:000057d4       ??_C@_1M@NCMONAAL@?$AAp?$AAt?$AA?9?$AAp?$AAt@ 100267d4     libucrt:lcidtoname_downlevel.obj
 0002:000057e0       ??_C@_1O@EAKMAJDN@?$AAq?$AAu?$AAz?$AA?9?$AAb?$AAo@ 100267e0     libucrt:lcidtoname_downlevel.obj
 0002:000057f0       ??_C@_1O@BHHPIGDN@?$AAq?$AAu?$AAz?$AA?9?$AAe?$AAc@ 100267f0     libucrt:lcidtoname_downlevel.obj
 0002:00005800       ??_C@_1O@GBAPEKMJ@?$AAq?$AAu?$AAz?$AA?9?$AAp?$AAe@ 10026800     libucrt:lcidtoname_downlevel.obj
 0002:00005810       ??_C@_1M@CLGLEFBO@?$AAr?$AAo?$AA?9?$AAr?$AAo@ 10026810     libucrt:lcidtoname_downlevel.obj
 0002:0000581c       ??_C@_1M@CEEDODME@?$AAr?$AAu?$AA?9?$AAr?$AAu@ 1002681c     libucrt:lcidtoname_downlevel.obj
 0002:00005828       ??_C@_1M@HPKKKMPP@?$AAs?$AAa?$AA?9?$AAi?$AAn@ 10026828     libucrt:lcidtoname_downlevel.obj
 0002:00005834       ??_C@_1M@BKMAIGOJ@?$AAs?$AAe?$AA?9?$AAf?$AAi@ 10026834     libucrt:lcidtoname_downlevel.obj
 0002:00005840       ??_C@_1M@NDPIFLFI@?$AAs?$AAe?$AA?9?$AAn?$AAo@ 10026840     libucrt:lcidtoname_downlevel.obj
 0002:0000584c       ??_C@_1M@DANKKHJ@?$AAs?$AAe?$AA?9?$AAs?$AAe@ 1002684c     libucrt:lcidtoname_downlevel.obj
 0002:00005858       ??_C@_1M@PNBLONPJ@?$AAs?$AAk?$AA?9?$AAs?$AAk@ 10026858     libucrt:lcidtoname_downlevel.obj
 0002:00005864       ??_C@_1M@LFMODOAL@?$AAs?$AAl?$AA?9?$AAs?$AAi@ 10026864     libucrt:lcidtoname_downlevel.obj
 0002:00005870       ??_C@_1O@DFKOMPG@?$AAs?$AAm?$AAa?$AA?9?$AAn?$AAo@ 10026870     libucrt:lcidtoname_downlevel.obj
 0002:00005880       ??_C@_1O@NDKPBNNH@?$AAs?$AAm?$AAa?$AA?9?$AAs?$AAe@ 10026880     libucrt:lcidtoname_downlevel.obj
 0002:00005890       ??_C@_1O@PLLKBHAB@?$AAs?$AAm?$AAj?$AA?9?$AAn?$AAo@ 10026890     libucrt:lcidtoname_downlevel.obj
 0002:000058a0       ??_C@_1O@CLEPOGCA@?$AAs?$AAm?$AAj?$AA?9?$AAs?$AAe@ 100268a0     libucrt:lcidtoname_downlevel.obj
 0002:000058b0       ??_C@_1O@DLGJGKMK@?$AAs?$AAm?$AAn?$AA?9?$AAf?$AAi@ 100268b0     libucrt:lcidtoname_downlevel.obj
 0002:000058c0       ??_C@_1O@OJDJGAJC@?$AAs?$AAm?$AAs?$AA?9?$AAf?$AAi@ 100268c0     libucrt:lcidtoname_downlevel.obj
 0002:000058d0       ??_C@_1M@BOFOGHPB@?$AAs?$AAq?$AA?9?$AAa?$AAl@ 100268d0     libucrt:lcidtoname_downlevel.obj
 0002:000058dc       ??_C@_1BG@LJBBIPGB@?$AAs?$AAr?$AA?9?$AAb?$AAa?$AA?9?$AAc?$AAy?$AAr?$AAl@ 100268dc     libucrt:lcidtoname_downlevel.obj
 0002:000058f4       ??_C@_1BG@JLBENFOE@?$AAs?$AAr?$AA?9?$AAb?$AAa?$AA?9?$AAl?$AAa?$AAt?$AAn@ 100268f4     libucrt:lcidtoname_downlevel.obj
 0002:0000590c       ??_C@_1BG@KODPNHE@?$AAs?$AAr?$AA?9?$AAs?$AAp?$AA?9?$AAc?$AAy?$AAr?$AAl@ 1002690c     libucrt:lcidtoname_downlevel.obj
 0002:00005924       ??_C@_1BG@CIOGKHPB@?$AAs?$AAr?$AA?9?$AAs?$AAp?$AA?9?$AAl?$AAa?$AAt?$AAn@ 10026924     libucrt:lcidtoname_downlevel.obj
 0002:0000593c       ??_C@_1M@NGFJLMAC@?$AAs?$AAv?$AA?9?$AAf?$AAi@ 1002693c     libucrt:lcidtoname_downlevel.obj
 0002:00005948       ??_C@_1M@MPJEJAJC@?$AAs?$AAv?$AA?9?$AAs?$AAe@ 10026948     libucrt:lcidtoname_downlevel.obj
 0002:00005954       ??_C@_1M@MPNDHLFK@?$AAs?$AAw?$AA?9?$AAk?$AAe@ 10026954     libucrt:lcidtoname_downlevel.obj
 0002:00005960       ??_C@_1O@KOHBJJI@?$AAs?$AAy?$AAr?$AA?9?$AAs?$AAy@ 10026960     libucrt:lcidtoname_downlevel.obj
 0002:00005970       ??_C@_1M@LDCEFHA@?$AAt?$AAa?$AA?9?$AAi?$AAn@ 10026970     libucrt:lcidtoname_downlevel.obj
 0002:0000597c       ??_C@_1M@CNJOFAK@?$AAt?$AAe?$AA?9?$AAi?$AAn@ 1002697c     libucrt:lcidtoname_downlevel.obj
 0002:00005988       ??_C@_1M@GNAECACD@?$AAt?$AAh?$AA?9?$AAt?$AAh@ 10026988     libucrt:lcidtoname_downlevel.obj
 0002:00005994       ??_C@_1M@CHBIHOJO@?$AAt?$AAn?$AA?9?$AAz?$AAa@ 10026994     libucrt:lcidtoname_downlevel.obj
 0002:000059a0       ??_C@_1M@GCCMIGPJ@?$AAt?$AAr?$AA?9?$AAt?$AAr@ 100269a0     libucrt:lcidtoname_downlevel.obj
 0002:000059ac       ??_C@_1M@CELMCNBK@?$AAt?$AAt?$AA?9?$AAr?$AAu@ 100269ac     libucrt:lcidtoname_downlevel.obj
 0002:000059b8       ??_C@_1M@KLMCELGA@?$AAu?$AAk?$AA?9?$AAu?$AAa@ 100269b8     libucrt:lcidtoname_downlevel.obj
 0002:000059c4       ??_C@_1M@EPAJJAJF@?$AAu?$AAr?$AA?9?$AAp?$AAk@ 100269c4     libucrt:lcidtoname_downlevel.obj
 0002:000059d0       ??_C@_1BG@GEGPMCDJ@?$AAu?$AAz?$AA?9?$AAu?$AAz?$AA?9?$AAc?$AAy?$AAr?$AAl@ 100269d0     libucrt:lcidtoname_downlevel.obj
 0002:000059e8       ??_C@_1BG@EGGKJILM@?$AAu?$AAz?$AA?9?$AAu?$AAz?$AA?9?$AAl?$AAa?$AAt?$AAn@ 100269e8     libucrt:lcidtoname_downlevel.obj
 0002:00005a00       ??_C@_1M@GFOCLFF@?$AAv?$AAi?$AA?9?$AAv?$AAn@ 10026a00     libucrt:lcidtoname_downlevel.obj
 0002:00005a0c       ??_C@_1M@CPAMEDFI@?$AAx?$AAh?$AA?9?$AAz?$AAa@ 10026a0c     libucrt:lcidtoname_downlevel.obj
 0002:00005a18       ??_C@_1O@EBKIFIGN@?$AAz?$AAh?$AA?9?$AAc?$AAh?$AAs@ 10026a18     libucrt:lcidtoname_downlevel.obj
 0002:00005a28       ??_C@_1O@NMHPGANE@?$AAz?$AAh?$AA?9?$AAc?$AAh?$AAt@ 10026a28     libucrt:lcidtoname_downlevel.obj
 0002:00005a38       ??_C@_1M@LPINJOMC@?$AAz?$AAh?$AA?9?$AAc?$AAn@ 10026a38     libucrt:lcidtoname_downlevel.obj
 0002:00005a44       ??_C@_1M@OCJEJODD@?$AAz?$AAh?$AA?9?$AAh?$AAk@ 10026a44     libucrt:lcidtoname_downlevel.obj
 0002:00005a50       ??_C@_1M@DNDLJINH@?$AAz?$AAh?$AA?9?$AAm?$AAo@ 10026a50     libucrt:lcidtoname_downlevel.obj
 0002:00005a5c       ??_C@_1M@MBFDNDND@?$AAz?$AAh?$AA?9?$AAs?$AAg@ 10026a5c     libucrt:lcidtoname_downlevel.obj
 0002:00005a68       ??_C@_1M@IMEPLEPE@?$AAz?$AAh?$AA?9?$AAt?$AAw@ 10026a68     libucrt:lcidtoname_downlevel.obj
 0002:00005a74       ??_C@_1M@BBGHNHJP@?$AAz?$AAu?$AA?9?$AAz?$AAa@ 10026a74     libucrt:lcidtoname_downlevel.obj
 0002:00005a80       ?large_power_data@?1??multiply_by_power_of_ten@__crt_strtox@@YA_NAAUbig_integer@2@I@Z@4QBIB 10026a80     libucrt:cfout.obj
 0002:00006388       ?large_power_indices@?1??multiply_by_power_of_ten@__crt_strtox@@YA_NAAUbig_integer@2@I@Z@4QBUunpack_index@?1??12@YA_N0I@Z@B 10027388     libucrt:cfout.obj
 0002:00006420       ?small_powers_of_ten@?1??multiply_by_power_of_ten@__crt_strtox@@YA_NAAUbig_integer@2@I@Z@4QBIB 10027420     libucrt:cfout.obj
 0002:00006444       ??_C@_01GBGANLPD@0@        10027444     libucrt:cfout.obj
 0002:00006448       ??_C@_05DNEBIAHO@1?$CDINF@ 10027448     libucrt:cfout.obj
 0002:00006450       ??_C@_06IMKFLFPG@1?$CDQNAN@ 10027450     libucrt:cfout.obj
 0002:00006458       ??_C@_06PGGFOGJG@1?$CDSNAN@ 10027458     libucrt:cfout.obj
 0002:00006460       ??_C@_05PHHOCPM@1?$CDIND@  10027460     libucrt:cfout.obj
 0002:000065d0       __infinity                 100275d0     libucrt:87tran.obj
 0002:000065da       __minfinity                100275da     libucrt:87tran.obj
 0002:000065e4       __logemax                  100275e4     libucrt:87tran.obj
 0002:0000660a       __OP_EXPjmptab             1002760a     libucrt:87tran.obj
 0002:00006630       __indefinite               10027630     libucrt:87disp.obj
 0002:0000663a       __piby2                    1002763a     libucrt:87disp.obj
 0002:00006644       __piby4                    10027644     libucrt:87disp.obj
 0002:00006678       __DEFAULT_CW_in_mem        10027678     libucrt:common.obj
 0002:0000667a       __pi_by_2_to_61            1002767a     libucrt:common.obj
 0002:000066b4       ??_C@_03MGHMBJCF@log@      100276b4     libucrt:libm_error.obj
 0002:000066b8       ??_C@_05HGHHAHAP@log10@    100276b8     libucrt:libm_error.obj
 0002:000066c0       ??_C@_03KHJOGHMM@exp@      100276c0     libucrt:libm_error.obj
 0002:000066c4       ??_C@_03JGHBODFD@pow@      100276c4     libucrt:libm_error.obj
 0002:000066c8       ??_C@_04FIHNOPOL@asin@     100276c8     libucrt:libm_error.obj
 0002:000066d0       ??_C@_04PDIFKINK@acos@     100276d0     libucrt:libm_error.obj
 0002:000066d8       ??_C@_04EIAKFFMI@sqrt@     100276d8     libucrt:libm_error.obj
 0002:000066e0       __real@3ff0000000000000    100276e0     libucrt:libm_error.obj
 0002:000066e8       ??_C@_1BA@BALFACEM@?$AAC?$AAO?$AAN?$AAO?$AAU?$AAT?$AA$@ 100276e8     libucrt:initcon.obj
 0002:00006710       ___acrt_log10_table_t      10027710     libucrt:log10_tables.obj
 0002:00006b20       ___acrt_log10_table_cb     10027b20     libucrt:log10_tables.obj
 0002:00006f30       __real@3fe0000000000000    10027f30     libucrt:powhlp.obj
 0002:00007020       ??_C@_04COOMCNPB@sinh@     10028020     libucrt:fpexcept.obj
 0002:00007028       ??_C@_04HPJJNFIM@cosh@     10028028     libucrt:fpexcept.obj
 0002:00007030       ??_C@_04FJHINJAO@tanh@     10028030     libucrt:fpexcept.obj
 0002:00007038       ??_C@_04MLLJIGOK@atan@     10028038     libucrt:fpexcept.obj
 0002:00007040       ??_C@_05KNGEOGJB@atan2@    10028040     libucrt:fpexcept.obj
 0002:00007048       ??_C@_03BLEJJJBH@sin@      10028048     libucrt:fpexcept.obj
 0002:0000704c       ??_C@_03LALBNOCG@cos@      1002804c     libucrt:fpexcept.obj
 0002:00007050       ??_C@_03IIINPABG@tan@      10028050     libucrt:fpexcept.obj
 0002:00007054       ??_C@_04GFPJNGEK@ceil@     10028054     libucrt:fpexcept.obj
 0002:0000705c       ??_C@_05PBJFFIGL@floor@    1002805c     libucrt:fpexcept.obj
 0002:00007064       ??_C@_04ODHECPBC@fabs@     10028064     libucrt:fpexcept.obj
 0002:0000706c       ??_C@_04EHEDPDJG@modf@     1002806c     libucrt:fpexcept.obj
 0002:00007074       ??_C@_05CEJMAHNP@ldexp@    10028074     libucrt:fpexcept.obj
 0002:0000707c       ??_C@_05KBKMEMPO@_cabs@    1002807c     libucrt:fpexcept.obj
 0002:00007084       ??_C@_06MEIMCGCF@_hypot@   10028084     libucrt:fpexcept.obj
 0002:0000708c       ??_C@_04KEPJIHGP@fmod@     1002808c     libucrt:fpexcept.obj
 0002:00007094       ??_C@_05GKKHEGJL@frexp@    10028094     libucrt:fpexcept.obj
 0002:0000709c       ??_C@_03MJLDFKDL@_y0@      1002809c     libucrt:fpexcept.obj
 0002:000070a0       ??_C@_03NAKIGLHK@_y1@      100280a0     libucrt:fpexcept.obj
 0002:000070a4       ??_C@_03ONILCKOB@_yn@      100280a4     libucrt:fpexcept.obj
 0002:000070a8       ??_C@_05JGDBENOH@_logb@    100280a8     libucrt:fpexcept.obj
 0002:000070b0       ??_C@_0L@KDOEJCKC@_nextafter@ 100280b0     libucrt:fpexcept.obj
 0002:000070c0       __d_inf                    100280c0     libucrt:util.obj
 0002:000070c8       __d_max                    100280c8     libucrt:util.obj
 0002:000070d0       __d_mzero                  100280d0     libucrt:util.obj
 0002:00007140       __load_config_used         10028140     LIBCMT:loadcfg.obj
 0002:00007200       __tls_used                 10028200     LIBCMT:tlssup.obj
 0002:00007218       ??_R4exception@std@@6B@    10028218     LIBCMT:throw_bad_alloc.obj
 0002:0000722c       ??_R3exception@std@@8      1002822c     LIBCMT:throw_bad_alloc.obj
 0002:0000723c       ??_R2exception@std@@8      1002823c     LIBCMT:throw_bad_alloc.obj
 0002:00007244       ??_R1A@?0A@EA@exception@std@@8 10028244     LIBCMT:throw_bad_alloc.obj
 0002:00007260       ??_R4bad_alloc@std@@6B@    10028260     LIBCMT:throw_bad_alloc.obj
 0002:00007274       ??_R3bad_alloc@std@@8      10028274     LIBCMT:throw_bad_alloc.obj
 0002:00007284       ??_R2bad_alloc@std@@8      10028284     LIBCMT:throw_bad_alloc.obj
 0002:00007290       ??_R1A@?0A@EA@bad_alloc@std@@8 10028290     LIBCMT:throw_bad_alloc.obj
 0002:000072ac       ??_R4bad_array_new_length@std@@6B@ 100282ac     LIBCMT:throw_bad_alloc.obj
 0002:000072c0       ??_R3bad_array_new_length@std@@8 100282c0     LIBCMT:throw_bad_alloc.obj
 0002:000072d0       ??_R2bad_array_new_length@std@@8 100282d0     LIBCMT:throw_bad_alloc.obj
 0002:000072e0       ??_R1A@?0A@EA@bad_array_new_length@std@@8 100282e0     LIBCMT:throw_bad_alloc.obj
 0002:000072fc       ??_R4type_info@@6B@        100282fc     LIBCMT:std_type_info_static.obj
 0002:00007310       ??_R3type_info@@8          10028310     LIBCMT:std_type_info_static.obj
 0002:00007320       ??_R2type_info@@8          10028320     LIBCMT:std_type_info_static.obj
 0002:00007328       ??_R1A@?0A@EA@type_info@@8 10028328     LIBCMT:std_type_info_static.obj
 0002:00007344       ??_R4bad_exception@std@@6B@ 10028344     libvcruntime:frame.obj
 0002:00007358       ??_R3bad_exception@std@@8  10028358     libvcruntime:frame.obj
 0002:00007368       ??_R2bad_exception@std@@8  10028368     libvcruntime:frame.obj
 0002:00007374       ??_R1A@?0A@EA@bad_exception@std@@8 10028374     libvcruntime:frame.obj
 0002:00007390       ___safe_se_handler_table   10028390     <linker-defined>
 0002:000073bc       ___volatile_metadata       100283bc     <linker-defined>
 0002:000077f8       ___rtc_iaa                 100287f8     LIBCMT:initsect.obj
 0002:000077fc       ___rtc_izz                 100287fc     LIBCMT:initsect.obj
 0002:00007800       ___rtc_taa                 10028800     LIBCMT:initsect.obj
 0002:00007804       ___rtc_tzz                 10028804     LIBCMT:initsect.obj
 0002:00007808       __tls_start                10028808     LIBCMT:tlssup.obj
 0002:0000780c       __Init_thread_epoch        1002880c     LIBCMT:thread_safe_statics.obj
 0002:00007810       __tls_end                  10028810     LIBCMT:tlssup.obj
 0002:00007914       __TI2?AVbad_alloc@std@@    10028914     LIBCMT:throw_bad_alloc.obj
 0002:00007924       __CTA2?AVbad_alloc@std@@   10028924     LIBCMT:throw_bad_alloc.obj
 0002:00007930       __CT??_R0?AVbad_alloc@std@@@8??0bad_alloc@std@@QAE@ABV01@@Z12 10028930     LIBCMT:throw_bad_alloc.obj
 0002:0000794c       __CT??_R0?AVexception@std@@@8??0exception@std@@QAE@ABV01@@Z12 1002894c     LIBCMT:throw_bad_alloc.obj
 0002:00007968       __TI3?AVbad_array_new_length@std@@ 10028968     LIBCMT:throw_bad_alloc.obj
 0002:00007978       __CTA3?AVbad_array_new_length@std@@ 10028978     LIBCMT:throw_bad_alloc.obj
 0002:00007988       __CT??_R0?AVbad_array_new_length@std@@@8??0bad_array_new_length@std@@QAE@ABV01@@Z12 10028988     LIBCMT:throw_bad_alloc.obj
 0002:00007aac       __TI2?AVbad_exception@std@@ 10028aac     libvcruntime:frame.obj
 0002:00007abc       __CTA2?AVbad_exception@std@@ 10028abc     libvcruntime:frame.obj
 0002:00007ac8       __CT??_R0?AVbad_exception@std@@@8??0bad_exception@std@@QAE@ABV01@@Z12 10028ac8     libvcruntime:frame.obj
 0002:00007ef4       ___pobjMapEntryFirst       10028ef4     OposVariant.obj
 0002:00007ef8       ___pobjMapEntryLast        10028ef8     OposVariant.obj
 0002:00007fac       __IMPORT_DESCRIPTOR_KERNEL32 10028fac     kernel32:KERNEL32.dll
 0002:00007fc0       __IMPORT_DESCRIPTOR_USER32 10028fc0     user32:USER32.dll
 0002:00007fd4       __IMPORT_DESCRIPTOR_GDI32  10028fd4     gdi32:GDI32.dll
 0002:00007fe8       __IMPORT_DESCRIPTOR_ADVAPI32 10028fe8     advapi32:ADVAPI32.dll
 0002:00007ffc       __IMPORT_DESCRIPTOR_ole32  10028ffc     ole32:ole32.dll
 0002:00008010       __IMPORT_DESCRIPTOR_OLEAUT32 10029010     oleaut32:OLEAUT32.dll
 0002:00008024       __NULL_IMPORT_DESCRIPTOR   10029024     kernel32:KERNEL32.dll
 0003:00000000       ?rcDefault@CWindow@ATL@@2UtagRECT@@A 1002a000     Biometrics.obj
 0003:00000010       ?s_Claim@?7??GetIDsOfNames@CComTypeInfoHolder@ATL@@QAEJABU_GUID@@PAPA_WIKPAJ@Z@4PA_WA 1002a010     Biometrics.obj
 0003:00000028       ?s_Release@?7??GetIDsOfNames@CComTypeInfoHolder@ATL@@QAEJABU_GUID@@PAPA_WIKPAJ@Z@4PA_WA 1002a028     Biometrics.obj
 0003:00000044       ?_tih@?$IDispatchImpl@UIOPOSBiometrics@@$1?IID_IOPOSBiometrics@@3U_GUID@@B$1?LIBID_OposBiometrics_CCO@@3U3@B$00$0A@VCComTypeInfoHolder@ATL@@@ATL@@1VCComTypeInfoHolder@2@A 1002a044     Biometrics.obj
 0003:00000060       ?_tih@?$IProvideClassInfo2Impl@$1?CLSID_OPOSBiometrics@@3U_GUID@@B$1?DIID__IOPOSBiometricsEvents@@3U2@B$1?LIBID_OposBiometrics_CCO@@3U2@B$00$0A@VCComTypeInfoHolder@ATL@@@ATL@@1VCComTypeInfoHolder@2@A 1002a060     Biometrics.obj
 0003:0000007c       ?vszContents@?6??Save@?$IPersistStorageImpl@VCOPOSBiometrics@@@ATL@@UAGJPAUIStorage@@H@Z@4PB_WB 1002a07c     Biometrics.obj
 0003:00000080       ?wc@?1??GetWndClassInfo@?$CWindowImpl@VCOPOSBiometrics@@VCWindow@ATL@@V?$CWinTraits@$0FGAAAAAA@$0A@@3@@ATL@@SAAAU_ATL_WNDCLASSINFOW@3@XZ@4U43@A 1002a080     Biometrics.obj
 0003:00000158       ?g_WindowName@@3PA_WA      1002a158     BiometricsImpl.obj
 0003:0000017c       ?g_ControlVersion@@3JA     1002a17c     BiometricsImpl.obj
 0003:00000180       ?g_ControlDescription@@3PADA 1002a180     BiometricsImpl.obj
 0003:00000240       ___scrt_native_dllmain_reason 1002a240     LIBCMT:utility.obj
 0003:00000244       __Init_global_epoch        1002a244     LIBCMT:thread_safe_statics.obj
 0003:00000250       ___security_cookie_complement 1002a250     LIBCMT:gs_cookie.obj
 0003:00000254       ___security_cookie         1002a254     LIBCMT:gs_cookie.obj
 0003:00000258       ___isa_enabled             1002a258     LIBCMT:cpu_disp.obj
 0003:00000270       __NLG_Destination          1002a270     libvcruntime:exsup.obj
 0003:00000288       ___abort_behavior          1002a288     libucrt:abort.obj
 0003:00000298       ___acrt_initial_locale_data 1002a298     libucrt:nlsdata.obj
 0003:00000350       ___acrt_initial_locale_pointers 1002a350     libucrt:nlsdata.obj
 0003:00000358       ___acrt_wide_c_locale_string 1002a358     libucrt:nlsdata.obj
 0003:00000360       __iob                      1002a360     libucrt:_file.obj
 0003:00000408       ___acrt_initial_multibyte_data 1002a408     libucrt:mbctype.obj
 0003:00000928       ___acrt_lconv_c            1002a928     libucrt:localeconv.obj
 0003:00000978       ___acrt_lconv_static_decimal 1002a978     libucrt:localeconv.obj
 0003:0000097c       ___acrt_lconv_static_W_decimal 1002a97c     libucrt:localeconv.obj
 0003:00000980       ___globallocalestatus      1002a980     libucrt:glstatus.obj
 0003:00000990       __lookuptrailbytes         1002a990     libucrt:read.obj
 0003:00000aa0       __fltused                  1002aaa0     LIBCMT:fltused.obj
 0003:00000ab0       ??_R0?AVbad_alloc@std@@@8  1002aab0     LIBCMT:throw_bad_alloc.obj
 0003:00000acc       ??_R0?AVexception@std@@@8  1002aacc     LIBCMT:throw_bad_alloc.obj
 0003:00000ae8       ??_R0?AVbad_array_new_length@std@@@8 1002aae8     LIBCMT:throw_bad_alloc.obj
 0003:00000b10       ??_R0?AVbad_exception@std@@@8 1002ab10     libvcruntime:frame.obj
 0003:00000b30       ??_R0?AVtype_info@@@8      1002ab30     LIBCMT:std_type_info_static.obj
 0003:00000b48       ?m_bInitFailed@CAtlBaseModule@ATL@@2_NA 1002ab48     OposVariant.obj
 0003:00000b4c       ?_pPerfRegFunc@ATL@@3P6AJPAUHINSTANCE__@@@ZA 1002ab4c     OposVariant.obj
 0003:00000b50       ?_pPerfUnRegFunc@ATL@@3P6AJXZA 1002ab50     OposVariant.obj
 0003:00000b54       ?_AtlRegisterPerUser@ATL@@3_NA 1002ab54     OposVariant.obj
 0003:00000b58       ?_pAtlModule@ATL@@3PAVCAtlModule@1@A 1002ab58     OposVariant.obj
 0003:00000b5c       ?_pModule@ATL@@3PAVCComModule@1@A 1002ab5c     OposVariant.obj
 0003:00000b60       ?_AtlComModule@ATL@@3VCAtlComModule@1@A 1002ab60     OposVariant.obj
 0003:00000b88       ?_AtlWinModule@ATL@@3VCAtlWinModule@1@A 1002ab88     OposVariant.obj
 0003:00000bb4       ?m_libid@CAtlModule@ATL@@2U_GUID@@A 1002abb4     Biometrics.obj
 0003:00000bc4       ?_entries@?1??GetConnMap@COPOSBiometrics@@SAPBU_ATL_CONNMAP_ENTRY@ATL@@PAH@Z@4QBU34@B 1002abc4     Biometrics.obj
 0003:00000bd0       ?$TSS0@?1??GetConnMap@COPOSBiometrics@@SAPBU_ATL_CONNMAP_ENTRY@ATL@@PAH@Z@4HA 1002abd0     Biometrics.obj
 0003:00000bd8       ?_OptionsStorage@?1??__local_stdio_printf_options@@9@4_KA 1002abd8     Biometrics.obj
 0003:00000be0       ?pfnRegDeleteKeyEx@?1??DeleteSubKey@CRegKey@ATL@@QAEJPB_W@Z@4P6GJPAUHKEY__@@0KK@ZA 1002abe0     Biometrics.obj
 0003:00000be4       ?bInitialized@?1??DeleteSubKey@CRegKey@ATL@@QAEJPB_W@Z@4_NA 1002abe4     Biometrics.obj
 0003:00000be8       ?_Module@@3VCComModule@ATL@@A 1002abe8     Biometrics.obj
 0003:00000c18       ?pConnMap@?$IConnectionPointContainerImpl@VCOPOSBiometrics@@@ATL@@0PBU_ATL_CONNMAP_ENTRY@2@B 1002ac18     Biometrics.obj
 0003:00000c1c       ?s_nInstances@COPOSBiometrics@@1HA 1002ac1c     BiometricsImpl.obj
 0003:00000c20       ___scrt_current_native_startup_state 1002ac20     LIBCMT:utility.obj
 0003:00000c24       ___scrt_native_startup_lock 1002ac24     LIBCMT:utility.obj
 0003:00000f8c       __tls_index                1002af8c     LIBCMT:tlssup.obj
 0003:00000f94       ___isa_available           1002af94     LIBCMT:cpu_disp.obj
 0003:00000f98       ___favor                   1002af98     LIBCMT:cpu_disp.obj
 0003:00000f9c       ___scrt_debugger_hook_flag 1002af9c     LIBCMT:utility_desktop.obj
 0003:00000fa0       ?__type_info_root_node@@3U__type_info_node@@A 1002afa0     LIBCMT:tncleanup.obj
 0003:00000fa8       ?_OptionsStorage@?1??__local_stdio_scanf_options@@9@4_KA 1002afa8     LIBCMT:default_local_stdio_options.obj
 0003:00000fb0       ?_AtlBaseModule@ATL@@3VCAtlBaseModule@1@A 1002afb0     atls:atlbase.obj
 0003:00000fe8       ?__AtlThunkPool@@3PAT_SLIST_HEADER@@A 1002afe8     atls:atlthunk.obj
 0003:00001000       ___@@_PchSym_@00@UzABUPdlipUBAUhUrmgvinvwrzgvUexgllohUzgohOmzgrevkilqPBACIAJCBDBUlyqiUcIGUhgwzucOlyq@4B2008FD98C1DD4 1002b000     atls:stdafx.obj
 0003:00001004       ?__WinRTOutOfMemoryExceptionCallback@@3P6GPAXXZA 1002b004     libvcruntime:ehhelpers.obj
 0003:00001008       ___pPurecall               1002b008     libvcruntime:purevirt_data.obj
 0003:00001050       ?m_pGetParameter@UnDecorator@@0P6APADJ@ZA 1002b050     libvcruntime:undname.obj
 0003:00001054       ?m_CHPENameOffset@UnDecorator@@0KA 1002b054     libvcruntime:undname.obj
 0003:00001058       ?m_recursionLevel@UnDecorator@@0KA 1002b058     libvcruntime:undname.obj
 0003:0000105c       ?pArgList@UnDecorator@@0PAVReplicator@@A 1002b05c     libvcruntime:undname.obj
 0003:00001060       ?pZNameList@UnDecorator@@0PAVReplicator@@A 1002b060     libvcruntime:undname.obj
 0003:00001064       ?pTemplateArgList@UnDecorator@@0PAVReplicator@@A 1002b064     libvcruntime:undname.obj
 0003:00001068       ?gName@UnDecorator@@0PBDB  1002b068     libvcruntime:undname.obj
 0003:0000106c       ?name@UnDecorator@@0PBDB   1002b06c     libvcruntime:undname.obj
 0003:00001070       ?disableFlags@UnDecorator@@0KA 1002b070     libvcruntime:undname.obj
 0003:00001074       ?fExplicitTemplateParams@UnDecorator@@0_NA 1002b074     libvcruntime:undname.obj
 0003:00001075       ?fGetTemplateArgumentList@UnDecorator@@0_NA 1002b075     libvcruntime:undname.obj
 0003:000010b8       ?c_exit_complete@?1???R<lambda_6e4b09c48022b2350581041d5f6b0c4c>@@QBE@XZ@4_NA 1002b0b8     libucrt:exit.obj
 0003:000011c8       __environ_table            1002b1c8     libucrt:environment_initialization.obj
 0003:000011cc       __wenviron_table           1002b1cc     libucrt:environment_initialization.obj
 0003:000011d0       ___dcrt_initial_wide_environment 1002b1d0     libucrt:environment_initialization.obj
 0003:000011d4       ___dcrt_initial_narrow_environment 1002b1d4     libucrt:environment_initialization.obj
 0003:000011d8       ___acrt_atexit_table       1002b1d8     libucrt:onexit.obj
 0003:000011e4       ___acrt_at_quick_exit_table 1002b1e4     libucrt:onexit.obj
 0003:000011f4       ___acrt_locale_changed_data 1002b1f4     libucrt:wsetlocale.obj
 0003:000011f8       ___acrt_current_locale_data 1002b1f8     libucrt:nlsdata.obj
 0003:000012e0       __nstream                  1002b2e0     libucrt:_file.obj
 0003:000012e4       ___piob                    1002b2e4     libucrt:_file.obj
 0003:000012ec       ___acrt_stdout_buffer      1002b2ec     libucrt:_sftbuf.obj
 0003:000012f0       ___acrt_stderr_buffer      1002b2f0     libucrt:_sftbuf.obj
 0003:000012f8       ___pioinfo                 1002b2f8     libucrt:ioinit.obj
 0003:000014f8       __nhandle                  1002b4f8     libucrt:ioinit.obj
 0003:00001654       __mbctype                  1002b654     libucrt:mbctype.obj
 0003:00001658       __mbcasemap                1002b658     libucrt:mbctype.obj
 0003:0000165c       ___acrt_current_multibyte_data 1002b65c     libucrt:mbctype.obj
 0003:00001668       __pgmptr                   1002b668     libucrt:argv_data.obj
 0003:0000166c       ___argc                    1002b66c     libucrt:argv_data.obj
 0003:00001670       ___argv                    1002b670     libucrt:argv_data.obj
 0003:00001674       ___wargv                   1002b674     libucrt:argv_data.obj
 0003:00001678       __acmdln                   1002b678     libucrt:argv_data.obj
 0003:0000167c       __wcmdln                   1002b67c     libucrt:argv_data.obj
 0003:00001680       ___acrt_heap               1002b680     libucrt:heap_handle.obj
 0003:00001698       ___acrt_lconv_static_null  1002b698     libucrt:localeconv.obj
 0003:0000169c       ___acrt_lconv_static_W_null 1002b69c     libucrt:localeconv.obj
 0003:000016b0       ___fastflag                1002b6b0     libucrt:fp_flags.obj
 0003:000016b8       ___dyn_tls_init_callback   1002b6b8     <common>
 0003:000016bc       ___scrt_ucrt_dll_is_in_use 1002b6bc     <common>
 0003:000016c0       __pmatherr                 1002b6c0     <common>
 0003:000016c4       ___use_sse2_mathfcns       1002b6c4     <common>

 entry point at        0001:0000c58b

 Static symbols

 0000:fffcd000       .debug$S                   10000000     OPOSBiometrics.exp
 0000:fffcd000       .debug$S                   10000000     advapi32:ADVAPI32.dll
 0000:fffcd000       .debug$S                   10000000     advapi32:ADVAPI32.dll
 0000:fffcd000       .debug$S                   10000000     advapi32:ADVAPI32.dll
 0000:fffcd000       .debug$S                   10000000     advapi32:ADVAPI32.dll
 0000:fffcd000       .debug$S                   10000000     advapi32:ADVAPI32.dll
 0000:fffcd000       .debug$S                   10000000     advapi32:ADVAPI32.dll
 0000:fffcd000       .debug$S                   10000000     advapi32:ADVAPI32.dll
 0000:fffcd000       .debug$S                   10000000     advapi32:ADVAPI32.dll
 0000:fffcd000       .debug$S                   10000000     advapi32:ADVAPI32.dll
 0000:fffcd000       .debug$S                   10000000     gdi32:GDI32.dll
 0000:fffcd000       .debug$S                   10000000     gdi32:GDI32.dll
 0000:fffcd000       .debug$S                   10000000     gdi32:GDI32.dll
 0000:fffcd000       .debug$S                   10000000     gdi32:GDI32.dll
 0000:fffcd000       .debug$S                   10000000     gdi32:GDI32.dll
 0000:fffcd000       .debug$S                   10000000     gdi32:GDI32.dll
 0000:fffcd000       .debug$S                   10000000     gdi32:GDI32.dll
 0000:fffcd000       .debug$S                   10000000     gdi32:GDI32.dll
 0000:fffcd000       .debug$S                   10000000     gdi32:GDI32.dll
 0000:fffcd000       .debug$S                   10000000     gdi32:GDI32.dll
 0000:fffcd000       .debug$S                   10000000     gdi32:GDI32.dll
 0000:fffcd000       .debug$S                   10000000     gdi32:GDI32.dll
 0000:fffcd000       .debug$S                   10000000     gdi32:GDI32.dll
 0000:fffcd000       .debug$S                   10000000     gdi32:GDI32.dll
 0000:fffcd000       .debug$S                   10000000     gdi32:GDI32.dll
 0000:fffcd000       .debug$S                   10000000     gdi32:GDI32.dll
 0000:fffcd000       .debug$S                   10000000     gdi32:GDI32.dll
 0000:fffcd000       .debug$S                   10000000     gdi32:GDI32.dll
 0000:fffcd000       .debug$S                   10000000     gdi32:GDI32.dll
 0000:fffcd000       .debug$S                   10000000     kernel32:KERNEL32.dll
 0000:fffcd000       .debug$S                   10000000     kernel32:KERNEL32.dll
 0000:fffcd000       .debug$S                   10000000     kernel32:KERNEL32.dll
 0000:fffcd000       .debug$S                   10000000     kernel32:KERNEL32.dll
 0000:fffcd000       .debug$S                   10000000     kernel32:KERNEL32.dll
 0000:fffcd000       .debug$S                   10000000     kernel32:KERNEL32.dll
 0000:fffcd000       .debug$S                   10000000     kernel32:KERNEL32.dll
 0000:fffcd000       .debug$S                   10000000     kernel32:KERNEL32.dll
 0000:fffcd000       .debug$S                   10000000     kernel32:KERNEL32.dll
 0000:fffcd000       .debug$S                   10000000     kernel32:KERNEL32.dll
 0000:fffcd000       .debug$S                   10000000     kernel32:KERNEL32.dll
 0000:fffcd000       .debug$S                   10000000     kernel32:KERNEL32.dll
 0000:fffcd000       .debug$S                   10000000     kernel32:KERNEL32.dll
 0000:fffcd000       .debug$S                   10000000     kernel32:KERNEL32.dll
 0000:fffcd000       .debug$S                   10000000     kernel32:KERNEL32.dll
 0000:fffcd000       .debug$S                   10000000     kernel32:KERNEL32.dll
 0000:fffcd000       .debug$S                   10000000     kernel32:KERNEL32.dll
 0000:fffcd000       .debug$S                   10000000     kernel32:KERNEL32.dll
 0000:fffcd000       .debug$S                   10000000     kernel32:KERNEL32.dll
 0000:fffcd000       .debug$S                   10000000     kernel32:KERNEL32.dll
 0000:fffcd000       .debug$S                   10000000     kernel32:KERNEL32.dll
 0000:fffcd000       .debug$S                   10000000     kernel32:KERNEL32.dll
 0000:fffcd000       .debug$S                   10000000     kernel32:KERNEL32.dll
 0000:fffcd000       .debug$S                   10000000     kernel32:KERNEL32.dll
 0000:fffcd000       .debug$S                   10000000     kernel32:KERNEL32.dll
 0000:fffcd000       .debug$S                   10000000     kernel32:KERNEL32.dll
 0000:fffcd000       .debug$S                   10000000     kernel32:KERNEL32.dll
 0000:fffcd000       .debug$S                   10000000     kernel32:KERNEL32.dll
 0000:fffcd000       .debug$S                   10000000     kernel32:KERNEL32.dll
 0000:fffcd000       .debug$S                   10000000     kernel32:KERNEL32.dll
 0000:fffcd000       .debug$S                   10000000     kernel32:KERNEL32.dll
 0000:fffcd000       .debug$S                   10000000     kernel32:KERNEL32.dll
 0000:fffcd000       .debug$S                   10000000     kernel32:KERNEL32.dll
 0000:fffcd000       .debug$S                   10000000     kernel32:KERNEL32.dll
 0000:fffcd000       .debug$S                   10000000     kernel32:KERNEL32.dll
 0000:fffcd000       .debug$S                   10000000     kernel32:KERNEL32.dll
 0000:fffcd000       .debug$S                   10000000     kernel32:KERNEL32.dll
 0000:fffcd000       .debug$S                   10000000     kernel32:KERNEL32.dll
 0000:fffcd000       .debug$S                   10000000     kernel32:KERNEL32.dll
 0000:fffcd000       .debug$S                   10000000     kernel32:KERNEL32.dll
 0000:fffcd000       .debug$S                   10000000     kernel32:KERNEL32.dll
 0000:fffcd000       .debug$S                   10000000     kernel32:KERNEL32.dll
 0000:fffcd000       .debug$S                   10000000     kernel32:KERNEL32.dll
 0000:fffcd000       .debug$S                   10000000     kernel32:KERNEL32.dll
 0000:fffcd000       .debug$S                   10000000     kernel32:KERNEL32.dll
 0000:fffcd000       .debug$S                   10000000     kernel32:KERNEL32.dll
 0000:fffcd000       .debug$S                   10000000     kernel32:KERNEL32.dll
 0000:fffcd000       .debug$S                   10000000     kernel32:KERNEL32.dll
 0000:fffcd000       .debug$S                   10000000     kernel32:KERNEL32.dll
 0000:fffcd000       .debug$S                   10000000     kernel32:KERNEL32.dll
 0000:fffcd000       .debug$S                   10000000     kernel32:KERNEL32.dll
 0000:fffcd000       .debug$S                   10000000     kernel32:KERNEL32.dll
 0000:fffcd000       .debug$S                   10000000     kernel32:KERNEL32.dll
 0000:fffcd000       .debug$S                   10000000     kernel32:KERNEL32.dll
 0000:fffcd000       .debug$S                   10000000     kernel32:KERNEL32.dll
 0000:fffcd000       .debug$S                   10000000     kernel32:KERNEL32.dll
 0000:fffcd000       .debug$S                   10000000     kernel32:KERNEL32.dll
 0000:fffcd000       .debug$S                   10000000     kernel32:KERNEL32.dll
 0000:fffcd000       .debug$S                   10000000     kernel32:KERNEL32.dll
 0000:fffcd000       .debug$S                   10000000     kernel32:KERNEL32.dll
 0000:fffcd000       .debug$S                   10000000     kernel32:KERNEL32.dll
 0000:fffcd000       .debug$S                   10000000     kernel32:KERNEL32.dll
 0000:fffcd000       .debug$S                   10000000     kernel32:KERNEL32.dll
 0000:fffcd000       .debug$S                   10000000     kernel32:KERNEL32.dll
 0000:fffcd000       .debug$S                   10000000     kernel32:KERNEL32.dll
 0000:fffcd000       .debug$S                   10000000     kernel32:KERNEL32.dll
 0000:fffcd000       .debug$S                   10000000     kernel32:KERNEL32.dll
 0000:fffcd000       .debug$S                   10000000     kernel32:KERNEL32.dll
 0000:fffcd000       .debug$S                   10000000     kernel32:KERNEL32.dll
 0000:fffcd000       .debug$S                   10000000     kernel32:KERNEL32.dll
 0000:fffcd000       .debug$S                   10000000     kernel32:KERNEL32.dll
 0000:fffcd000       .debug$S                   10000000     kernel32:KERNEL32.dll
 0000:fffcd000       .debug$S                   10000000     kernel32:KERNEL32.dll
 0000:fffcd000       .debug$S                   10000000     kernel32:KERNEL32.dll
 0000:fffcd000       .debug$S                   10000000     kernel32:KERNEL32.dll
 0000:fffcd000       .debug$S                   10000000     kernel32:KERNEL32.dll
 0000:fffcd000       .debug$S                   10000000     kernel32:KERNEL32.dll
 0000:fffcd000       .debug$S                   10000000     kernel32:KERNEL32.dll
 0000:fffcd000       .debug$S                   10000000     kernel32:KERNEL32.dll
 0000:fffcd000       .debug$S                   10000000     kernel32:KERNEL32.dll
 0000:fffcd000       .debug$S                   10000000     kernel32:KERNEL32.dll
 0000:fffcd000       .debug$S                   10000000     kernel32:KERNEL32.dll
 0000:fffcd000       .debug$S                   10000000     kernel32:KERNEL32.dll
 0000:fffcd000       .debug$S                   10000000     kernel32:KERNEL32.dll
 0000:fffcd000       .debug$S                   10000000     kernel32:KERNEL32.dll
 0000:fffcd000       .debug$S                   10000000     kernel32:KERNEL32.dll
 0000:fffcd000       .debug$S                   10000000     kernel32:KERNEL32.dll
 0000:fffcd000       .debug$S                   10000000     kernel32:KERNEL32.dll
 0000:fffcd000       .debug$S                   10000000     kernel32:KERNEL32.dll
 0000:fffcd000       .debug$S                   10000000     kernel32:KERNEL32.dll
 0000:fffcd000       .debug$S                   10000000     kernel32:KERNEL32.dll
 0000:fffcd000       .debug$S                   10000000     kernel32:KERNEL32.dll
 0000:fffcd000       .debug$S                   10000000     kernel32:KERNEL32.dll
 0000:fffcd000       .debug$S                   10000000     kernel32:KERNEL32.dll
 0000:fffcd000       .debug$S                   10000000     kernel32:KERNEL32.dll
 0000:fffcd000       .debug$S                   10000000     kernel32:KERNEL32.dll
 0000:fffcd000       .debug$S                   10000000     kernel32:KERNEL32.dll
 0000:fffcd000       .debug$S                   10000000     kernel32:KERNEL32.dll
 0000:fffcd000       .debug$S                   10000000     kernel32:KERNEL32.dll
 0000:fffcd000       .debug$S                   10000000     kernel32:KERNEL32.dll
 0000:fffcd000       .debug$S                   10000000     kernel32:KERNEL32.dll
 0000:fffcd000       .debug$S                   10000000     kernel32:KERNEL32.dll
 0000:fffcd000       .debug$S                   10000000     kernel32:KERNEL32.dll
 0000:fffcd000       .debug$S                   10000000     kernel32:KERNEL32.dll
 0000:fffcd000       .debug$S                   10000000     kernel32:KERNEL32.dll
 0000:fffcd000       .debug$S                   10000000     kernel32:KERNEL32.dll
 0000:fffcd000       .debug$S                   10000000     ole32:ole32.dll
 0000:fffcd000       .debug$S                   10000000     ole32:ole32.dll
 0000:fffcd000       .debug$S                   10000000     ole32:ole32.dll
 0000:fffcd000       .debug$S                   10000000     ole32:ole32.dll
 0000:fffcd000       .debug$S                   10000000     ole32:ole32.dll
 0000:fffcd000       .debug$S                   10000000     ole32:ole32.dll
 0000:fffcd000       .debug$S                   10000000     ole32:ole32.dll
 0000:fffcd000       .debug$S                   10000000     ole32:ole32.dll
 0000:fffcd000       .debug$S                   10000000     ole32:ole32.dll
 0000:fffcd000       .debug$S                   10000000     ole32:ole32.dll
 0000:fffcd000       .debug$S                   10000000     ole32:ole32.dll
 0000:fffcd000       .debug$S                   10000000     ole32:ole32.dll
 0000:fffcd000       .debug$S                   10000000     ole32:ole32.dll
 0000:fffcd000       .debug$S                   10000000     ole32:ole32.dll
 0000:fffcd000       .debug$S                   10000000     oleaut32:OLEAUT32.dll
 0000:fffcd000       .debug$S                   10000000     oleaut32:OLEAUT32.dll
 0000:fffcd000       .debug$S                   10000000     oleaut32:OLEAUT32.dll
 0000:fffcd000       .debug$S                   10000000     oleaut32:OLEAUT32.dll
 0000:fffcd000       .debug$S                   10000000     oleaut32:OLEAUT32.dll
 0000:fffcd000       .debug$S                   10000000     oleaut32:OLEAUT32.dll
 0000:fffcd000       .debug$S                   10000000     oleaut32:OLEAUT32.dll
 0000:fffcd000       .debug$S                   10000000     oleaut32:OLEAUT32.dll
 0000:fffcd000       .debug$S                   10000000     oleaut32:OLEAUT32.dll
 0000:fffcd000       .debug$S                   10000000     oleaut32:OLEAUT32.dll
 0000:fffcd000       .debug$S                   10000000     oleaut32:OLEAUT32.dll
 0000:fffcd000       .debug$S                   10000000     oleaut32:OLEAUT32.dll
 0000:fffcd000       .debug$S                   10000000     oleaut32:OLEAUT32.dll
 0000:fffcd000       .debug$S                   10000000     oleaut32:OLEAUT32.dll
 0000:fffcd000       .debug$S                   10000000     oleaut32:OLEAUT32.dll
 0000:fffcd000       .debug$S                   10000000     oleaut32:OLEAUT32.dll
 0000:fffcd000       .debug$S                   10000000     user32:USER32.dll
 0000:fffcd000       .debug$S                   10000000     user32:USER32.dll
 0000:fffcd000       .debug$S                   10000000     user32:USER32.dll
 0000:fffcd000       .debug$S                   10000000     user32:USER32.dll
 0000:fffcd000       .debug$S                   10000000     user32:USER32.dll
 0000:fffcd000       .debug$S                   10000000     user32:USER32.dll
 0000:fffcd000       .debug$S                   10000000     user32:USER32.dll
 0000:fffcd000       .debug$S                   10000000     user32:USER32.dll
 0000:fffcd000       .debug$S                   10000000     user32:USER32.dll
 0000:fffcd000       .debug$S                   10000000     user32:USER32.dll
 0000:fffcd000       .debug$S                   10000000     user32:USER32.dll
 0000:fffcd000       .debug$S                   10000000     user32:USER32.dll
 0000:fffcd000       .debug$S                   10000000     user32:USER32.dll
 0000:fffcd000       .debug$S                   10000000     user32:USER32.dll
 0000:fffcd000       .debug$S                   10000000     user32:USER32.dll
 0000:fffcd000       .debug$S                   10000000     user32:USER32.dll
 0000:fffcd000       .debug$S                   10000000     user32:USER32.dll
 0000:fffcd000       .debug$S                   10000000     user32:USER32.dll
 0000:fffcd000       .debug$S                   10000000     user32:USER32.dll
 0000:fffcd000       .debug$S                   10000000     user32:USER32.dll
 0000:fffcd000       .debug$S                   10000000     user32:USER32.dll
 0000:fffcd000       .debug$S                   10000000     user32:USER32.dll
 0000:fffcd000       .debug$S                   10000000     user32:USER32.dll
 0000:fffcd000       .debug$S                   10000000     user32:USER32.dll
 0000:fffcd000       .debug$S                   10000000     user32:USER32.dll
 0000:fffcd000       .debug$S                   10000000     user32:USER32.dll
 0000:fffcd000       .debug$S                   10000000     user32:USER32.dll
 0000:fffcd000       .debug$S                   10000000     user32:USER32.dll
 0000:fffcd000       .debug$S                   10000000     user32:USER32.dll
 0000:fffcd000       .debug$S                   10000000     user32:USER32.dll
 0000:fffcd000       .debug$S                   10000000     user32:USER32.dll
 0000:fffcd000       .debug$S                   10000000     user32:USER32.dll
 0000:fffcd000       .debug$S                   10000000     user32:USER32.dll
 0000:fffcd000       .debug$S                   10000000     user32:USER32.dll
 0000:fffcd000       .debug$S                   10000000     user32:USER32.dll
 0001:00000000       ??__E_AtlComModule@ATL@@YAXXZ 10001000 f   OposVariant.obj
 0001:00000016       ??__E_AtlWinModule@ATL@@YAXXZ 10001016 f   OposVariant.obj
 0001:0000002c       ??__E?pConnMap@?$IConnectionPointContainerImpl@VCOPOSBiometrics@@@ATL@@0PBU_ATL_CONNMAP_ENTRY@2@B@@YAXXZ 1000102c f   Biometrics.obj
 0001:0000003a       ??__E_Module@@YAXXZ        1000103a f   Biometrics.obj
 0001:00000064       ??__E_AtlBaseModule@ATL@@YAXXZ 10001064 f   atls:atlbase.obj
 0001:00001464       $LN24                      10002464     Biometrics.obj
 0001:00004819       $LN31                      10005819     Biometrics.obj
 0001:0000481d       $LN30                      1000581d     Biometrics.obj
 0001:000059f8       $LN60                      100069f8     Biometrics.obj
 0001:00005a10       $LN59                      10006a10     Biometrics.obj
 0001:00007bb2       $LN50                      10008bb2     Biometrics.obj
 0001:00007bca       $LN49                      10008bca     Biometrics.obj
 0001:00009291       $LN88                      1000a291     Biometrics.obj
 0001:000092a9       $LN87                      1000a2a9     Biometrics.obj
 0001:00009669       _memcpy_s                  1000a669 f   Biometrics.obj
 0001:0000ba31       ?find_pe_section@@YAPAU_IMAGE_SECTION_HEADER@@QAEI@Z 1000ca31 f   LIBCMT:utility.obj
 0001:0000bd50       ?__scrt_initialize_thread_safe_statics@@YAHXZ 1000cd50 f   LIBCMT:thread_safe_statics.obj
 0001:0000bd77       ?__scrt_initialize_thread_safe_statics_platform_specific@@YAXXZ 1000cd77 f   LIBCMT:thread_safe_statics.obj
 0001:0000bdf9       ?__scrt_uninitialize_thread_safe_statics@@YAXXZ 1000cdf9 f   LIBCMT:thread_safe_statics.obj
 0001:0000c16a       __catch$??2@YAPAXIABUnothrow_t@std@@@Z$0 1000d16a f   LIBCMT:new_scalar_nothrow.obj
 0001:0000c1a0       $$000000                   1000d1a0     LIBCMT:sehprolg4gs.obj
 0001:0000c1f0       $$000000                   1000d1f0     LIBCMT:alloca16.obj
 0001:0000c206       alloca_8                   1000d206     LIBCMT:alloca16.obj
 0001:0000c220       $$000000                   1000d220     LIBCMT:chkstk.obj
 0001:0000c234       cs10                       1000d234     LIBCMT:chkstk.obj
 0001:0000c242       cs20                       1000d242     LIBCMT:chkstk.obj
 0001:0000c24b       ?dllmain_crt_dispatch@@YGHQAUHINSTANCE__@@KQAX@Z 1000d24b f   LIBCMT:dll_dllmain.obj
 0001:0000c29e       ?dllmain_crt_process_attach@@YAHQAUHINSTANCE__@@QAX@Z 1000d29e f   LIBCMT:dll_dllmain.obj
 0001:0000c3a5       ?dllmain_crt_process_detach@@YAH_N@Z 1000d3a5 f   LIBCMT:dll_dllmain.obj
 0001:0000c455       ?dllmain_dispatch@@YAHQAUHINSTANCE__@@KQAX@Z 1000d455 f   LIBCMT:dll_dllmain.obj
 0001:0000c560       ?dllmain_raw@@YGHQAUHINSTANCE__@@KQAX@Z 1000d560 f   LIBCMT:dll_dllmain.obj
 0001:0000c8f0       $$000000                   1000d8f0     LIBCMT:sehprolg4.obj
 0001:0000c938       ___get_entropy             1000d938 f   LIBCMT:gs_support.obj
 0001:0000cc2f       ??$GetProcAddressAll@P6GP6GJPAUHWND__@@IIJ@ZPAUAtlThunkData_t@@@Z@@YAP6GP6GJPAUHWND__@@IIJ@ZPAUAtlThunkData_t@@@ZPAP6GP6GJ0IIJ@Z1@Z@Z 1000dc2f f   atls:atlthunk.obj
 0001:0000cc2f       ??$GetProcAddressAll@P6GPAUAtlThunkData_t@@XZ@@YAP6GPAUAtlThunkData_t@@XZPAP6GPAU0@XZ@Z 1000dc2f f   atls:atlthunk.obj
 0001:0000cc2f       ??$GetProcAddressAll@P6GXPAUAtlThunkData_t@@@Z@@YAP6GXPAUAtlThunkData_t@@@ZPAP6GX0@Z@Z 1000dc2f f   atls:atlthunk.obj
 0001:0000cc2f       ??$GetProcAddressAll@P6GXPAUAtlThunkData_t@@PAXI@Z@@YAP6GXPAUAtlThunkData_t@@PAXI@ZPAP6GX01I@Z@Z 1000dc2f f   atls:atlthunk.obj
 0001:0000ccdf       ?GetProcAddressSingle@@YA_NPAUHINSTANCE__@@PBDPAPAX@Z 1000dcdf f   atls:atlthunk.obj
 0001:0000ce31       ?__InitializeThunkPool@@YAHXZ 1000de31 f   atls:atlthunk.obj
 0001:0000d290       _ValidateLocalCookies      1000e290 f   libvcruntime:chandler4.obj
 0001:0000ea2a       $LN1250                    1000fa2a     libvcruntime:memcmp.obj
 0001:0000eab0       $$000000                   1000fab0     libvcruntime:memcpy.obj
 0001:0000eab0       $$000000                   1000fab0     libvcruntime:memmove.obj
 0001:0000ead0       CopyUp                     1000fad0     libvcruntime:memcpy.obj
 0001:0000ead0       CopyUp                     1000fad0     libvcruntime:memmove.obj
 0001:0000eaf4       CopyUpLargeMov             1000faf4     libvcruntime:memcpy.obj
 0001:0000eaf4       CopyUpLargeMov             1000faf4     libvcruntime:memmove.obj
 0001:0000eb07       CopyUpSSE2Check            1000fb07     libvcruntime:memcpy.obj
 0001:0000eb07       CopyUpSSE2Check            1000fb07     libvcruntime:memmove.obj
 0001:0000eb20       AtomChk                    1000fb20     libvcruntime:memcpy.obj
 0001:0000eb20       AtomChk                    1000fb20     libvcruntime:memmove.obj
 0001:0000eb46       PalignHead4                1000fb46     libvcruntime:memcpy.obj
 0001:0000eb46       PalignHead4                1000fb46     libvcruntime:memmove.obj
 0001:0000eb59       PalignHead8                1000fb59     libvcruntime:memcpy.obj
 0001:0000eb59       PalignHead8                1000fb59     libvcruntime:memmove.obj
 0001:0000eb70       PalignLoop                 1000fb70     libvcruntime:memcpy.obj
 0001:0000eb70       PalignLoop                 1000fb70     libvcruntime:memmove.obj
 0001:0000eb82       MovPalign12                1000fb82     libvcruntime:memcpy.obj
 0001:0000eb82       MovPalign12                1000fb82     libvcruntime:memmove.obj
 0001:0000eb8c       PalignLoop12               1000fb8c     libvcruntime:memcpy.obj
 0001:0000eb8c       PalignLoop12               1000fb8c     libvcruntime:memmove.obj
 0001:0000ebdd       MovPalign8                 1000fbdd     libvcruntime:memcpy.obj
 0001:0000ebdd       MovPalign8                 1000fbdd     libvcruntime:memmove.obj
 0001:0000ebe8       PalignLoop8                1000fbe8     libvcruntime:memcpy.obj
 0001:0000ebe8       PalignLoop8                1000fbe8     libvcruntime:memmove.obj
 0001:0000ec36       MovPalign4                 1000fc36     libvcruntime:memcpy.obj
 0001:0000ec36       MovPalign4                 1000fc36     libvcruntime:memmove.obj
 0001:0000ec40       PalignLoop4                1000fc40     libvcruntime:memcpy.obj
 0001:0000ec40       PalignLoop4                1000fc40     libvcruntime:memmove.obj
 0001:0000ec8c       PalignTail                 1000fc8c     libvcruntime:memcpy.obj
 0001:0000ec8c       PalignTail                 1000fc8c     libvcruntime:memmove.obj
 0001:0000eca4       PalignTail4                1000fca4     libvcruntime:memcpy.obj
 0001:0000eca4       PalignTail4                1000fca4     libvcruntime:memmove.obj
 0001:0000ecb7       PalignTail8                1000fcb7     libvcruntime:memcpy.obj
 0001:0000ecb7       PalignTail8                1000fcb7     libvcruntime:memmove.obj
 0001:0000ecce       PalignTailLE3              1000fcce     libvcruntime:memcpy.obj
 0001:0000ecce       PalignTailLE3              1000fcce     libvcruntime:memmove.obj
 0001:0000ecd7       Dword_align                1000fcd7     libvcruntime:memcpy.obj
 0001:0000ecd7       Dword_align                1000fcd7     libvcruntime:memmove.obj
 0001:0000ecdf       Dword_up_align_loop        1000fcdf     libvcruntime:memcpy.obj
 0001:0000ecdf       Dword_up_align_loop        1000fcdf     libvcruntime:memmove.obj
 0001:0000ecf2       Dword_align_Ok             1000fcf2     libvcruntime:memcpy.obj
 0001:0000ecf2       Dword_align_Ok             1000fcf2     libvcruntime:memmove.obj
 0001:0000ed0c       ByteCopyUp                 1000fd0c     libvcruntime:memcpy.obj
 0001:0000ed0c       ByteCopyUp                 1000fd0c     libvcruntime:memmove.obj
 0001:0000ed14       TrailingUpVec              1000fd14     libvcruntime:memcpy.obj
 0001:0000ed14       TrailingUpVec              1000fd14     libvcruntime:memmove.obj
 0001:0000ed24       TrailingUp0                1000fd24     libvcruntime:memcpy.obj
 0001:0000ed24       TrailingUp0                1000fd24     libvcruntime:memmove.obj
 0001:0000ed2c       TrailingUp1                1000fd2c     libvcruntime:memcpy.obj
 0001:0000ed2c       TrailingUp1                1000fd2c     libvcruntime:memmove.obj
 0001:0000ed38       TrailingUp2                1000fd38     libvcruntime:memcpy.obj
 0001:0000ed38       TrailingUp2                1000fd38     libvcruntime:memmove.obj
 0001:0000ed4c       TrailingUp3                1000fd4c     libvcruntime:memcpy.obj
 0001:0000ed4c       TrailingUp3                1000fd4c     libvcruntime:memmove.obj
 0001:0000ed64       CopyDown                   1000fd64     libvcruntime:memcpy.obj
 0001:0000ed64       CopyDown                   1000fd64     libvcruntime:memmove.obj
 0001:0000ed89       CopyDownNotAligned         1000fd89     libvcruntime:memcpy.obj
 0001:0000ed89       CopyDownNotAligned         1000fd89     libvcruntime:memmove.obj
 0001:0000ed90       CopyDownAlignLoop          1000fd90     libvcruntime:memcpy.obj
 0001:0000ed90       CopyDownAlignLoop          1000fd90     libvcruntime:memmove.obj
 0001:0000ed9d       CopyDownAligned            1000fd9d     libvcruntime:memcpy.obj
 0001:0000ed9d       CopyDownAligned            1000fd9d     libvcruntime:memmove.obj
 0001:0000edc0       TrailingDownVec            1000fdc0     libvcruntime:memcpy.obj
 0001:0000edc0       TrailingDownVec            1000fdc0     libvcruntime:memmove.obj
 0001:0000edd0       TrailingDown0              1000fdd0     libvcruntime:memcpy.obj
 0001:0000edd0       TrailingDown0              1000fdd0     libvcruntime:memmove.obj
 0001:0000edd8       TrailingDown1              1000fdd8     libvcruntime:memcpy.obj
 0001:0000edd8       TrailingDown1              1000fdd8     libvcruntime:memmove.obj
 0001:0000ede8       TrailingDown2              1000fde8     libvcruntime:memcpy.obj
 0001:0000ede8       TrailingDown2              1000fde8     libvcruntime:memmove.obj
 0001:0000edfc       TrailingDown3              1000fdfc     libvcruntime:memcpy.obj
 0001:0000edfc       TrailingDown3              1000fdfc     libvcruntime:memmove.obj
 0001:0000ee15       XmmMovLargeAlignTest       1000fe15     libvcruntime:memcpy.obj
 0001:0000ee15       XmmMovLargeAlignTest       1000fe15     libvcruntime:memmove.obj
 0001:0000ee1d       XmmMovAlignLoop            1000fe1d     libvcruntime:memcpy.obj
 0001:0000ee1d       XmmMovAlignLoop            1000fe1d     libvcruntime:memmove.obj
 0001:0000ee2c       XmmMovLargeLoop            1000fe2c     libvcruntime:memcpy.obj
 0001:0000ee2c       XmmMovLargeLoop            1000fe2c     libvcruntime:memmove.obj
 0001:0000ee9c       XmmMovSmallTest            1000fe9c     libvcruntime:memcpy.obj
 0001:0000ee9c       XmmMovSmallTest            1000fe9c     libvcruntime:memmove.obj
 0001:0000eea1       XmmMovSmallLoop            1000fea1     libvcruntime:memcpy.obj
 0001:0000eea1       XmmMovSmallLoop            1000fea1     libvcruntime:memmove.obj
 0001:0000eec4       CopyDownSmall              1000fec4     libvcruntime:memcpy.obj
 0001:0000eec4       CopyDownSmall              1000fec4     libvcruntime:memmove.obj
 0001:0000eecc       CopyDownDwordLoop          1000fecc     libvcruntime:memcpy.obj
 0001:0000eecc       CopyDownDwordLoop          1000fecc     libvcruntime:memmove.obj
 0001:0000eee1       CopyDownByteTest           1000fee1     libvcruntime:memcpy.obj
 0001:0000eee1       CopyDownByteTest           1000fee1     libvcruntime:memmove.obj
 0001:0000eee5       CopyDownByteLoop           1000fee5     libvcruntime:memcpy.obj
 0001:0000eee5       CopyDownByteLoop           1000fee5     libvcruntime:memmove.obj
 0001:0000eef4       CopyDownReturn             1000fef4     libvcruntime:memcpy.obj
 0001:0000eef4       CopyDownReturn             1000fef4     libvcruntime:memmove.obj
 0001:0000ef00       XmmCopy                    1000ff00     libvcruntime:memcpy.obj
 0001:0000ef00       XmmCopy                    1000ff00     libvcruntime:memmove.obj
 0001:0000ef0d       XmmCopyAligned             1000ff0d     libvcruntime:memcpy.obj
 0001:0000ef0d       XmmCopyAligned             1000ff0d     libvcruntime:memmove.obj
 0001:0000ef20       XmmCopyLargeLoop           1000ff20     libvcruntime:memcpy.obj
 0001:0000ef20       XmmCopyLargeLoop           1000ff20     libvcruntime:memmove.obj
 0001:0000ef7d       XmmCopySmallTest           1000ff7d     libvcruntime:memcpy.obj
 0001:0000ef7d       XmmCopySmallTest           1000ff7d     libvcruntime:memmove.obj
 0001:0000ef90       XmmCopySmallLoop           1000ff90     libvcruntime:memcpy.obj
 0001:0000ef90       XmmCopySmallLoop           1000ff90     libvcruntime:memmove.obj
 0001:0000efab       CopyUpDwordMov             1000ffab     libvcruntime:memcpy.obj
 0001:0000efab       CopyUpDwordMov             1000ffab     libvcruntime:memmove.obj
 0001:0000efb0       CopyUpDwordTest            1000ffb0     libvcruntime:memcpy.obj
 0001:0000efb0       CopyUpDwordTest            1000ffb0     libvcruntime:memmove.obj
 0001:0000efb7       CopyUpDwordLoop            1000ffb7     libvcruntime:memcpy.obj
 0001:0000efb7       CopyUpDwordLoop            1000ffb7     libvcruntime:memmove.obj
 0001:0000efc6       CopyUpByteTest             1000ffc6     libvcruntime:memcpy.obj
 0001:0000efc6       CopyUpByteTest             1000ffc6     libvcruntime:memmove.obj
 0001:0000efcd       CopyUpByteLoop             1000ffcd     libvcruntime:memcpy.obj
 0001:0000efcd       CopyUpByteLoop             1000ffcd     libvcruntime:memmove.obj
 0001:0000efe0       CopyUpReturn               1000ffe0     libvcruntime:memcpy.obj
 0001:0000efe0       CopyUpReturn               1000ffe0     libvcruntime:memmove.obj
 0001:0000eff0       XmmCopyUnaligned           1000fff0     libvcruntime:memcpy.obj
 0001:0000eff0       XmmCopyUnaligned           1000fff0     libvcruntime:memmove.obj
 0001:0000f003       XmmAlignByte               10010003     libvcruntime:memcpy.obj
 0001:0000f003       XmmAlignByte               10010003     libvcruntime:memmove.obj
 0001:0000f00c       XmmAlignDwordTest          1001000c     libvcruntime:memcpy.obj
 0001:0000f00c       XmmAlignDwordTest          1001000c     libvcruntime:memmove.obj
 0001:0000f011       XmmAlignDwordLoop          10010011     libvcruntime:memcpy.obj
 0001:0000f011       XmmAlignDwordLoop          10010011     libvcruntime:memmove.obj
 0001:0000f01e       XmmAlignAdjustCnt          1001001e     libvcruntime:memcpy.obj
 0001:0000f01e       XmmAlignAdjustCnt          1001001e     libvcruntime:memmove.obj
 0001:0000f030       $$000000                   10010030     libvcruntime:memset.obj
 0001:0000f075       XMMMov                     10010075     libvcruntime:memset.obj
 0001:0000f0b0       LargeRangeBytes            100100b0     libvcruntime:memset.obj
 0001:0000f0ed       XmmMovSmall                100100ed     libvcruntime:memset.obj
 0001:0000f100       XmmSmallLoop               10010100     libvcruntime:memset.obj
 0001:0000f105       MidRangeBytes              10010105     libvcruntime:memset.obj
 0001:0000f121       XMMTrailingBytes           10010121     libvcruntime:memset.obj
 0001:0000f135       SmallMov                   10010135     libvcruntime:memset.obj
 0001:0000f13d       ByteLoop                   1001013d     libvcruntime:memset.obj
 0001:0000f14b       DwordTest                  1001014b     libvcruntime:memset.obj
 0001:0000f15b       QwordTest                  1001015b     libvcruntime:memset.obj
 0001:0000f170       QwordLoop                  10010170     libvcruntime:memset.obj
 0001:0000f183       toend                      10010183     libvcruntime:memset.obj
 0001:0000f642       ?_FilterSetCurrentException@@YAKPAU_EXCEPTION_POINTERS@@E@Z 10010642 f   libvcruntime:ehhelpers.obj
 0001:0000f890       $$000000                   10010890     libvcruntime:exsup4.obj
 0001:0000f8c2       _lu_top                    100108c2     libvcruntime:exsup4.obj
 0001:0000f921       _lu_done                   10010921     libvcruntime:exsup4.obj
 0001:0000f930       $$000000                   10010930     libvcruntime:exsup4.obj
 0001:0000f930       __unwind_handler4          10010930 f   libvcruntime:exsup4.obj
 0001:0000f980       $$000000                   10010980     libvcruntime:exsup4.obj
 0001:0000f9a0       $$000000                   100109a0     libvcruntime:exsup4.obj
 0001:0000f9c0       $$000000                   100109c0     libvcruntime:exsup4.obj
 0001:0000f9d5       ReturnPoint                100109d5     libvcruntime:exsup4.obj
 0001:0000f9e0       $$000000                   100109e0     libvcruntime:exsup4.obj
 0001:0000fbd2       ??$BuildCatchObjectHelperInternal@V__FrameHandler3@@@@YAHPAUEHExceptionRecord@@PAXPBU_s_HandlerType@@PBU_s_CatchableType@@@Z 10010bd2 f   libvcruntime:frame.obj
 0001:0000fd10       ??$BuildCatchObjectInternal@V__FrameHandler3@@@@YAXPAUEHExceptionRecord@@PAXPBU_s_HandlerType@@PBU_s_CatchableType@@@Z 10010d10 f   libvcruntime:frame.obj
 0001:0000fda9       ??$CatchIt@V__FrameHandler3@@@@YAXPAUEHExceptionRecord@@PAUEHRegistrationNode@@PAU_CONTEXT@@PAXPBU_s_FuncInfo@@PBU_s_HandlerType@@PBU_s_CatchableType@@PBU_s_TryBlockMapEntry@@H1EE@Z 10010da9 f   libvcruntime:frame.obj
 0001:0000fe29       ??$FindHandler@V__FrameHandler3@@@@YAXPAUEHExceptionRecord@@PAUEHRegistrationNode@@PAU_CONTEXT@@PAXPBU_s_FuncInfo@@EH1@Z 10010e29 f   libvcruntime:frame.obj
 0001:000101ce       ??$FindHandlerForForeignException@V__FrameHandler3@@@@YAXPAUEHExceptionRecord@@PAUEHRegistrationNode@@PAU_CONTEXT@@PAXPBU_s_FuncInfo@@HH1@Z 100111ce f   libvcruntime:frame.obj
 0001:000104e6       ?CallCatchBlock@@YAPAXPAUEHExceptionRecord@@PAUEHRegistrationNode@@PAU_CONTEXT@@PBU_s_FuncInfo@@PAXHK@Z 100114e6 f   libvcruntime:frame.obj
 0001:000106b5       ?CallUnexpected@@YAXPBU_s_ESTypeList@@@Z 100116b5 f   libvcruntime:frame.obj
 0001:000106d5       __catch$?CallUnexpected@@YAXPBU_s_ESTypeList@@@Z$0 100116d5 f   libvcruntime:frame.obj
 0001:000106f4       ?ExFilterRethrow@@YAHPAU_EXCEPTION_POINTERS@@@Z 100116f4 f   libvcruntime:frame.obj
 0001:0001083e       ?IsInExceptionSpec@@YAEPAUEHExceptionRecord@@PBU_s_ESTypeList@@@Z 1001183e f   libvcruntime:frame.obj
 0001:00010910       $$000000                   10011910     libvcruntime:lowhelpr.obj
 0001:0001094f       _NLG_Continue              1001194f     libvcruntime:lowhelpr.obj
 0001:00010960       $$000000                   10011960     libvcruntime:exsup.obj
 0001:00010970       $$000000                   10011970     libvcruntime:exsup.obj
 0001:0001097b       __NLG_Go                   1001197b     libvcruntime:exsup.obj
 0001:00010990       $$000000                   10011990     libvcruntime:exsup.obj
 0001:00010993       ?try_get_first_available_module@@YAPAUHINSTANCE__@@QBW4module_id@?A0x592e9a36@@0@Z 10011993 f   libvcruntime:winapi_downlevel.obj
 0001:00010a2e       ?try_get_function@@YAPAXW4function_id@?A0x592e9a36@@QBDQBW4module_id@2@2@Z 10011a2e f   libvcruntime:winapi_downlevel.obj
 0001:00011164       ??$common_tcscat_s@_W@@YAHQA_WIQB_W@Z 10012164 f   libucrt:wcscat_s.obj
 0001:0001124b       ??$common_tcsncpy_s@_W@@YAHQA_WIQB_WI@Z 1001224b f   libucrt:wcsncpy_s.obj
 0001:00011324       ??$common_vsprintf@Vformat_validation_base@__crt_stdio_output@@_W@@YAH_KQA_WIQB_WAAV__crt_cached_ptd_host@@QAD@Z 10012324 f   libucrt:output.obj
 0001:000114a7       ??$common_vsprintf_s@_W@@YAH_KQA_WIQB_WAAV__crt_cached_ptd_host@@QAD@Z 100124a7 f   libucrt:output.obj
 0001:0001290f       $LN116                     1001390f     libucrt:output.obj
 0001:00012f12       $LN18                      10013f12     libucrt:output.obj
 0001:00012f26       $LN17                      10013f26     libucrt:output.obj
 0001:00013661       ??$?RV<lambda_03b1d95aef87969028cfba75ccab2455>@@AAV<lambda_6e4b09c48022b2350581041d5f6b0c4c>@@V<lambda_22bdf7517842c4b3e53723af5aa32b9e>@@@?$__crt_seh_guarded_call@X@@QAEX$$QAV<lambda_03b1d95aef87969028cfba75ccab2455>@@AAV<lambda_6e4b09c48022b2350581041d5f6b0c4c>@@$$QAV<lambda_22bdf7517842c4b3e53723af5aa32b9e>@@@Z 10014661 f   libucrt:exit.obj
 0001:000136ae       ??R<lambda_6e4b09c48022b2350581041d5f6b0c4c>@@QBE@XZ 100146ae f   libucrt:exit.obj
 0001:00013799       ?common_exit@@YAXHW4_crt_exit_cleanup_mode@@W4_crt_exit_return_mode@@@Z 10014799 f   libucrt:exit.obj
 0001:00013830       ?exit_or_terminate_process@@YAXI@Z 10014830 f   libucrt:exit.obj
 0001:00013861       ?is_managed_app@@YA_NXZ    10014861 f   libucrt:exit.obj
 0001:000138a4       ?should_call_terminate_process@@YA_NXZ 100148a4 f   libucrt:exit.obj
 0001:000138c6       ?try_cor_exit_process@@YAXI@Z 100148c6 f   libucrt:exit.obj
 0001:00013983       ??$common_configure_argv@D@@YAHW4_crt_argv_mode@@@Z 10014983 f   libucrt:argv_parsing.obj
 0001:00013ac0       ??$parse_command_line@D@@YAXPADPAPAD0PAI2@Z 10014ac0 f   libucrt:argv_parsing.obj
 0001:00013c8e       ??$common_initialize_environment_nolock@D@@YAHXZ 10014c8e f   libucrt:environment_initialization.obj
 0001:00013ce8       ??$create_environment@D@@YAQAPADQAD@Z 10014ce8 f   libucrt:environment_initialization.obj
 0001:00013dca       ??$free_environment@D@@YAXQAPAD@Z 10014dca f   libucrt:environment_initialization.obj
 0001:00013dca       ??$free_environment@_W@@YAXQAPA_W@Z 10014dca f   libucrt:environment_initialization.obj
 0001:00013df9       ??$uninitialize_environment_internal@D@@YAXAAPAPAD@Z 10014df9 f   libucrt:environment_initialization.obj
 0001:00013e14       ??$uninitialize_environment_internal@_W@@YAXAAPAPA_W@Z 10014e14 f   libucrt:environment_initialization.obj
 0001:00013e85       ??$?RV<lambda_69a2805e680e0e292e8ba93315fe43a8>@@AAV<lambda_f03950bc5685219e0bcd2087efbe011e>@@V<lambda_03fcd07e894ec930e3f35da366ca99d6>@@@?$__crt_seh_guarded_call@H@@QAEH$$QAV<lambda_69a2805e680e0e292e8ba93315fe43a8>@@AAV<lambda_f03950bc5685219e0bcd2087efbe011e>@@$$QAV<lambda_03fcd07e894ec930e3f35da366ca99d6>@@@Z 10014e85 f   libucrt:onexit.obj
 0001:00013ee0       ??$?RV<lambda_8e746cf0007f6ed984d6f78af1fec997>@@AAV<lambda_22ebabd17bc4fa466a2aca6d8deb888d>@@V<lambda_18ed0c0b38a6dc0daf1e7ac6d6adf05e>@@@?$__crt_seh_guarded_call@H@@QAEH$$QAV<lambda_8e746cf0007f6ed984d6f78af1fec997>@@AAV<lambda_22ebabd17bc4fa466a2aca6d8deb888d>@@$$QAV<lambda_18ed0c0b38a6dc0daf1e7ac6d6adf05e>@@@Z 10014ee0 f   libucrt:onexit.obj
 0001:00013f5a       ??R<lambda_22ebabd17bc4fa466a2aca6d8deb888d>@@QBEHXZ 10014f5a f   libucrt:onexit.obj
 0001:0001405c       ??R<lambda_f03950bc5685219e0bcd2087efbe011e>@@QBEHXZ 1001505c f   libucrt:onexit.obj
 0001:000141e6       _uninitialize_allocated_io_buffers 100151e6 f   libucrt:initialization.obj
 0001:00014236       _initialize_environment    10015236 f   libucrt:initialization.obj
 0001:00014236       _initialize_global_state_isolation 10015236 f   libucrt:initialization.obj
 0001:00014236       _report_memory_leaks       10015236 f   libucrt:initialization.obj
 0001:00014236       _uninitialize_c            10015236 f   libucrt:initialization.obj
 0001:00014236       _uninitialize_global_state_isolation 10015236 f   libucrt:initialization.obj
 0001:00014239       _initialize_global_variables 10015239 f   libucrt:initialization.obj
 0001:00014246       _initialize_c              10015246 f   libucrt:initialization.obj
 0001:00014260       _uninitialize_environment  10015260 f   libucrt:initialization.obj
 0001:00014268       _initialize_pointers       10015268 f   libucrt:initialization.obj
 0001:00014296       _uninitialize_vcruntime    10015296 f   libucrt:initialization.obj
 0001:0001429f       _uninitialize_allocated_memory 1001529f f   libucrt:initialization.obj
 0001:000142b6       ??R<lambda_af42a3ee9806e9a7305d451646e05244>@@QBEXAAPAU__crt_multibyte_data@@@Z 100152b6 f   libucrt:initialization.obj
 0001:00014520       $$000000                   10015520     libucrt:strncmp.obj
 0001:0001460c       ??$?RV<lambda_15ade71b0218206bbe3333a0c9b79046>@@AAV<lambda_da44e0f8b0f19ba52fefafb335991732>@@V<lambda_207f2d024fc103971653565357d6cd41>@@@?$__crt_seh_guarded_call@X@@QAEX$$QAV<lambda_15ade71b0218206bbe3333a0c9b79046>@@AAV<lambda_da44e0f8b0f19ba52fefafb335991732>@@$$QAV<lambda_207f2d024fc103971653565357d6cd41>@@@Z 1001560c f   libucrt:per_thread_data.obj
 0001:0001465e       ??$?RV<lambda_38edbb1296d33220d7e4dd0ed76b244a>@@AAV<lambda_5ce1d447e08cb34b2473517608e21441>@@V<lambda_fb385d3da700c9147fc39e65dd577a8c>@@@?$__crt_seh_guarded_call@X@@QAEX$$QAV<lambda_38edbb1296d33220d7e4dd0ed76b244a>@@AAV<lambda_5ce1d447e08cb34b2473517608e21441>@@$$QAV<lambda_fb385d3da700c9147fc39e65dd577a8c>@@@Z 1001565e f   libucrt:per_thread_data.obj
 0001:000146c9       ??$?RV<lambda_6affb1475c98b40b75cdec977db92e3c>@@AAV<lambda_b8d4b9c228a6ecc3f80208dbb4b4a104>@@V<lambda_608742c3c92a14382c1684fc64f96c88>@@@?$__crt_seh_guarded_call@X@@QAEX$$QAV<lambda_6affb1475c98b40b75cdec977db92e3c>@@AAV<lambda_b8d4b9c228a6ecc3f80208dbb4b4a104>@@$$QAV<lambda_608742c3c92a14382c1684fc64f96c88>@@@Z 100156c9 f   libucrt:per_thread_data.obj
 0001:0001471e       ??$?RV<lambda_a7e850c220f1c8d1e6efeecdedd162c6>@@AAV<lambda_46720907175c18b6c9d2717bc0d2d362>@@V<lambda_9048902d66e8d99359bc9897bbb930a8>@@@?$__crt_seh_guarded_call@X@@QAEX$$QAV<lambda_a7e850c220f1c8d1e6efeecdedd162c6>@@AAV<lambda_46720907175c18b6c9d2717bc0d2d362>@@$$QAV<lambda_9048902d66e8d99359bc9897bbb930a8>@@@Z 1001571e f   libucrt:per_thread_data.obj
 0001:00014778       ?construct_ptd@@YAXQAU__acrt_ptd@@QAPAU__crt_locale_data@@@Z 10015778 f   libucrt:per_thread_data.obj
 0001:00014811       ?destroy_fls@@YGXPAX@Z     10015811 f   libucrt:per_thread_data.obj
 0001:00014832       ?destroy_ptd@@YAXQAU__acrt_ptd@@@Z 10015832 f   libucrt:per_thread_data.obj
 0001:000148ff       ?replace_current_thread_locale_nolock@@YAXQAU__acrt_ptd@@QAU__crt_locale_data@@@Z 100158ff f   libucrt:per_thread_data.obj
 0001:00014c61       ??$?RV<lambda_e5124f882df8998aaf41531e079ba474>@@AAV<lambda_3e16ef9562a7dcce91392c22ab16ea36>@@V<lambda_e25ca0880e6ef98be67edffd8c599615>@@@?$__crt_seh_guarded_call@X@@QAEX$$QAV<lambda_e5124f882df8998aaf41531e079ba474>@@AAV<lambda_3e16ef9562a7dcce91392c22ab16ea36>@@$$QAV<lambda_e25ca0880e6ef98be67edffd8c599615>@@@Z 10015c61 f   libucrt:wsetlocale.obj
 0001:00014e48       ?try_get_AreFileApisANSI@@YAP6GHXZXZ 10015e48 f   libucrt:winapi_thunks.obj
 0001:00014e62       ?try_get_LCMapStringEx@@YAP6GHPB_WK0HPA_WHPAU_nlsversioninfo@@PAXJ@ZXZ 10015e62 f   libucrt:winapi_thunks.obj
 0001:00014e7c       ?try_get_LocaleNameToLCID@@YAP6GKPB_WK@ZXZ 10015e7c f   libucrt:winapi_thunks.obj
 0001:00014e96       ?try_get_first_available_module@@YAPAUHINSTANCE__@@QBW4module_id@?A0x391cf84c@@0@Z 10015e96 f   libucrt:winapi_thunks.obj
 0001:00014f61       ?try_get_function@@YAPAXW4function_id@?A0x391cf84c@@QBDQBW4module_id@2@2@Z 10015f61 f   libucrt:winapi_thunks.obj
 0001:0001556e       ?fe_to_nearest@@YA_NQBN_KF@Z 1001656e f   libucrt:cvt.obj
 0001:00015611       ?fp_format_a@@YAHQBNPADIQADIH_NIW4__acrt_rounding_mode@@AAV__crt_cached_ptd_host@@@Z 10016611 f   libucrt:cvt.obj
 0001:0001593d       ?fp_format_e@@YAHQBNQADI1IH_NIW4__acrt_rounding_mode@@AAV__crt_cached_ptd_host@@@Z 1001693d f   libucrt:cvt.obj
 0001:000159e1       ?fp_format_e_internal@@YAHQADIH_NIQAU_strflt@@1AAV__crt_cached_ptd_host@@@Z 100169e1 f   libucrt:cvt.obj
 0001:00015b26       ?fp_format_f@@YAHQBNQADI1IHW4__acrt_rounding_mode@@AAV__crt_cached_ptd_host@@@Z 10016b26 f   libucrt:cvt.obj
 0001:00015bbc       ?fp_format_f_internal@@YAHQADIHQAU_strflt@@_NAAV__crt_cached_ptd_host@@@Z 10016bbc f   libucrt:cvt.obj
 0001:00015caa       ?fp_format_g@@YAHQBNQADI1IH_NIW4__acrt_rounding_mode@@AAV__crt_cached_ptd_host@@@Z 10016caa f   libucrt:cvt.obj
 0001:00015d79       ?fp_format_nan_or_infinity@@YAHW4__acrt_fp_class@@_NPADI1@Z 10016d79 f   libucrt:cvt.obj
 0001:00015e0e       ?shift_bytes@@YAXQADI0H@Z  10016e0e f   libucrt:cvt.obj
 0001:00015e42       ?should_round_up@@YA_NQBN_KFW4__acrt_rounding_mode@@@Z 10016e42 f   libucrt:cvt.obj
 0001:00016301       ?initialize_inherited_file_handles_nolock@@YAXXZ 10017301 f   libucrt:ioinit.obj
 0001:000163b7       ?initialize_stdio_handles_nolock@@YAXXZ 100173b7 f   libucrt:ioinit.obj
 0001:000165c4       ?<lambda_invoker_cdecl>@<lambda_838c7f62c73c983481e27c09e84b0b5d>@@CAHPBX0@Z 100175c4 f   libucrt:argv_wildcards.obj
 0001:00016771       ??$common_expand_argv_wildcards@D@@YAHQAPADQAPAPAD@Z 10017771 f   libucrt:argv_wildcards.obj
 0001:000168ee       ??$copy_and_add_argument_to_buffer@D@@YAHQBD0IAAV?$argument_list@D@?A0x5f5c8891@@@Z 100178ee f   libucrt:argv_wildcards.obj
 0001:0001699f       ??$expand_argument_wildcards@D@@YAHQAD0AAV?$argument_list@D@?A0x5f5c8891@@@Z 1001799f f   libucrt:argv_wildcards.obj
 0001:00016ca6       ??1?$argument_list@D@?A0x5f5c8891@@QAE@XZ 10017ca6 f   libucrt:argv_wildcards.obj
 0001:00016de6       ?expand_if_necessary@?$argument_list@D@?A0x5f5c8891@@AAEHXZ 10017de6 f   libucrt:argv_wildcards.obj
 0001:00017016       ??$?RV<lambda_ceb1ee4838e85a9d631eb091e2fbe199>@@AAV<lambda_ae742caa10f662c28703da3d2ea5e57e>@@V<lambda_cd08b5d6af4937fe54fc07d0c9bf6b37>@@@?$__crt_seh_guarded_call@X@@QAEX$$QAV<lambda_ceb1ee4838e85a9d631eb091e2fbe199>@@AAV<lambda_ae742caa10f662c28703da3d2ea5e57e>@@$$QAV<lambda_cd08b5d6af4937fe54fc07d0c9bf6b37>@@@Z 10018016 f   libucrt:mbctype.obj
 0001:00017063       ??R<lambda_ae742caa10f662c28703da3d2ea5e57e>@@QBEXXZ 10018063 f   libucrt:mbctype.obj
 0001:000170e6       ?CPtoLocaleName@@YAPB_WH@Z 100180e6 f   libucrt:mbctype.obj
 0001:00017124       ?getSystemCP@@YAHH@Z       10018124 f   libucrt:mbctype.obj
 0001:00017195       ?setSBCS@@YAXPAU__crt_multibyte_data@@@Z 10018195 f   libucrt:mbctype.obj
 0001:000171f8       ?setSBUpLow@@YAXPAU__crt_multibyte_data@@@Z 100181f8 f   libucrt:mbctype.obj
 0001:000173a4       ?setmbcp_internal@@YAHH_NQAU__acrt_ptd@@QAPAU__crt_multibyte_data@@@Z 100183a4 f   libucrt:mbctype.obj
 0001:000174f9       ?update_thread_multibyte_data_internal@@YAPAU__crt_multibyte_data@@QAU__acrt_ptd@@QAPAU1@@Z 100184f9 f   libucrt:mbctype.obj
 0001:000177fc       _memcpy_s                  100187fc f   libucrt:cfout.obj
 0001:000177fc       _memcpy_s                  100187fc f   libucrt:mbctype.obj
 0001:0001787d       ?x_ismbbtype_l@@YAHPAU__crt_locale_pointers@@IHH@Z 1001887d f   libucrt:ismbbyte.obj
 0001:00017a31       ?find_end_of_double_null_terminated_sequence@@YAPB_WQB_W@Z 10018a31 f   libucrt:get_environment_from_os.obj
 0001:00017bbc       ??$?RV<lambda_cbab9ec6f41b0180b23cc171c22676b0>@@AAV<lambda_44731a7d0e6d81c3e6aa82d741081786>@@V<lambda_4b292cb8dd18144e164572427af410ab>@@@?$__crt_seh_guarded_call@P6AXH@Z@@QAEP6AXH@Z$$QAV<lambda_cbab9ec6f41b0180b23cc171c22676b0>@@AAV<lambda_44731a7d0e6d81c3e6aa82d741081786>@@$$QAV<lambda_4b292cb8dd18144e164572427af410ab>@@@Z 10018bbc f   libucrt:signal.obj
 0001:00017c20       ?get_global_action_nolock@@YAPAP6AXH@ZH@Z 10018c20 f   libucrt:signal.obj
 0001:00017c62       ?siglookup@@YAPAU__crt_signal_action_t@@HQAU1@@Z 10018c62 f   libucrt:signal.obj
 0001:00017f1b       ??$?RV<lambda_2866be3712abc81a800a822484c830d8>@@AAV<lambda_39ca0ed439415581b5b15c265174cece>@@V<lambda_2b24c74d71094a6cd0cb82e44167d71b>@@@?$__crt_seh_guarded_call@X@@QAEX$$QAV<lambda_2866be3712abc81a800a822484c830d8>@@AAV<lambda_39ca0ed439415581b5b15c265174cece>@@$$QAV<lambda_2b24c74d71094a6cd0cb82e44167d71b>@@@Z 10018f1b f   libucrt:fflush.obj
 0001:00017fa7       ??$?RV<lambda_2cc53f568c5a2bb6f192f930a45d44ea>@@AAV<lambda_ab61a845afdef5b7c387490eaf3616ee>@@V<lambda_c2ffc0b7726aa6be21d5f0026187e748>@@@?$__crt_seh_guarded_call@X@@QAEX$$QAV<lambda_2cc53f568c5a2bb6f192f930a45d44ea>@@AAV<lambda_ab61a845afdef5b7c387490eaf3616ee>@@$$QAV<lambda_c2ffc0b7726aa6be21d5f0026187e748>@@@Z 10018fa7 f   libucrt:fflush.obj
 0001:00018053       ?common_flush_all@@YAH_N@Z 10019053 f   libucrt:fflush.obj
 0001:000180a0       ?common_flush_all_should_try_to_flush_stream@@YA_NV__crt_stdio_stream@@QAH@Z 100190a0 f   libucrt:fflush.obj
 0001:000180d3       ?is_stream_flushable_or_commitable@@YA_NJ@Z 100190d3 f   libucrt:fflush.obj
 0001:000186d0       ?free_crt_array_internal@@YAXQAPBXI@Z 100196d0 f   libucrt:inittime.obj
 0001:00018909       ?GetTableIndexFromLocaleName@@YAHPB_W@Z 10019909 f   libucrt:lcidtoname_downlevel.obj
 0001:00018985       ?should_round_up@@YA_NQBD0HW4__acrt_has_trailing_digits@@W4__acrt_rounding_mode@@@Z 10019985 f   libucrt:_fptostr.obj
 0001:0001a4ce       ??R<lambda_e96123212306c92459f955e8e4eac55d>@@QBEIPBD@Z 1001b4ce f   libucrt:mbrtowc.obj
 0001:0001af0e       ??$common_tcsncpy_s@D@@YAHQADIQBDI@Z 1001bf0e f   libucrt:strncpy_s.obj
 0001:0001afd0       $$000000                   1001bfd0     libucrt:strpbrk.obj
 0001:0001b0b4       ?__acrt_LCMapStringA_stat@@YAHPAU__crt_locale_pointers@@PB_WKPBDHPADHHH@Z 1001c0b4 f   libucrt:lcmapstringa.obj
 0001:0001b2eb       ?initialize_multibyte@@YAHXZ 1001c2eb f   libucrt:multibyte_initializer.obj
 0001:0001b2fa       ??$?RV<lambda_9e9de3de5fa147e2223d7db92bc10aa6>@@AAV<lambda_38ce7e780aa69e748d6df282ebc68efe>@@V<lambda_8ca6da459f0f6780f1cff60fdc3d00e5>@@@?$__crt_seh_guarded_call@H@@QAEH$$QAV<lambda_9e9de3de5fa147e2223d7db92bc10aa6>@@AAV<lambda_38ce7e780aa69e748d6df282ebc68efe>@@$$QAV<lambda_8ca6da459f0f6780f1cff60fdc3d00e5>@@@Z 1001c2fa f   libucrt:commit.obj
 0001:0001b419       ?write_double_translated_ansi_nolock@@YA?AUwrite_result@?A0x17268360@@HQBDIAAV__crt_cached_ptd_host@@@Z 1001c419 f   libucrt:write.obj
 0001:0001b7eb       ?write_double_translated_unicode_nolock@@YA?AUwrite_result@?A0x17268360@@QBDI@Z 1001c7eb f   libucrt:write.obj
 0001:0001b853       ?write_requires_double_translation_nolock@@YA_NHAAV__crt_cached_ptd_host@@@Z 1001c853 f   libucrt:write.obj
 0001:0001b8d1       ?write_text_ansi_nolock@@YA?AUwrite_result@?A0x17268360@@HQBDI@Z 1001c8d1 f   libucrt:write.obj
 0001:0001b9ac       ?write_text_utf16le_nolock@@YA?AUwrite_result@?A0x17268360@@HQBDI@Z 1001c9ac f   libucrt:write.obj
 0001:0001ba95       ?write_text_utf8_nolock@@YA?AUwrite_result@?A0x17268360@@HQBDI@Z 1001ca95 f   libucrt:write.obj
 0001:0001c040       $$000000                   1001d040     libucrt:log10_impl.obj
 0001:0001c150       $$000000                   1001d150     libucrt:ceil_pentium4.obj
 0001:0001c26d       ?to_abstract_control@@YA?AW4__acrt_fenv_abstract_control@@W4__acrt_fenv_machine_sse_control@@@Z 1001d26d f   libucrt:_fenvutils.obj
 0001:0001c31d       ?to_abstract_control@@YA?AW4__acrt_fenv_abstract_control@@W4__acrt_fenv_machine_x87_control@@@Z 1001d31d f   libucrt:_fenvutils.obj
 0001:0001c3ca       ?to_machine_sse_control@@YA?AW4__acrt_fenv_machine_sse_control@@W4__acrt_fenv_abstract_control@@@Z 1001d3ca f   libucrt:_fenvutils.obj
 0001:0001c480       ?to_machine_x87_control@@YA?AW4__acrt_fenv_machine_x87_control@@W4__acrt_fenv_abstract_control@@@Z 1001d480 f   libucrt:_fenvutils.obj
 0001:0001c9eb       ?_fclose_internal@@YAHQAU_iobuf@@AAV__crt_cached_ptd_host@@@Z 1001d9eb f   libucrt:fclose.obj
 0001:0001ca82       ?_fclose_nolock_internal@@YAHQAU_iobuf@@AAV__crt_cached_ptd_host@@@Z 1001da82 f   libucrt:fclose.obj
 0001:0001cb40       ??$common_lseek_nolock@_J@@YA_JH_JHAAV__crt_cached_ptd_host@@@Z 1001db40 f   libucrt:lseek.obj
 0001:0001cc35       ___hw_cw_sse2              1001dc35 f   libucrt:ieee87.obj
 0001:0001d0bb       __hw_cw                    1001e0bb f   libucrt:ieee87.obj
 0001:0001d170       $$000000                   1001e170     libucrt:log10_pentium4.obj
 0001:0001d400       $$000000                   1001e400     libucrt:87tran.obj
 0001:0001d610       $$000000                   1001e610     libucrt:87disp.obj
 0001:0001d870       $$000000                   1001e870     libucrt:common.obj
 0001:0001da00       $$000000                   1001ea00     libucrt:genexcep.obj
 0001:0001dcfc       ??$?RV<lambda_d422a76eb4c3bf3ad751449ab71a6ea4>@@AAV<lambda_c9ba49e555ba839a7b07aa3fbecb7617>@@V<lambda_9476263c8ee91a25d21c55370bdb50de>@@@?$__crt_seh_guarded_call@H@@QAEH$$QAV<lambda_d422a76eb4c3bf3ad751449ab71a6ea4>@@AAV<lambda_c9ba49e555ba839a7b07aa3fbecb7617>@@$$QAV<lambda_9476263c8ee91a25d21c55370bdb50de>@@@Z 1001ecfc f   libucrt:close.obj
 0001:0001df10       $$000000                   1001ef10     libucrt:_strnicm.obj
 0001:0001df71       ?__dcrt_lowio_initialize_console_output@@YAXXZ 1001ef71 f   libucrt:initcon.obj
 0001:0001ef20       $$000000                   1001ff20     LIBCMT:ulldvrm.obj
 0001:0001ef51       L1                         1001ff51     LIBCMT:ulldvrm.obj
 0001:0001ef5f       L3                         1001ff5f     LIBCMT:ulldvrm.obj
 0001:0001ef8d       L4                         1001ff8d     LIBCMT:ulldvrm.obj
 0001:0001ef96       L5                         1001ff96     LIBCMT:ulldvrm.obj
 0001:0001ef98       L2                         1001ff98     LIBCMT:ulldvrm.obj
 0001:0001efc0       $$000000                   1001ffc0     LIBCMT:llmul.obj
 0001:0001efd9       hard                       1001ffd9     LIBCMT:llmul.obj
 0001:0001f000       $$000000                   10020000     LIBCMT:lldvrm.obj
 0001:0001f024       L1                         10020024     LIBCMT:lldvrm.obj
 0001:0001f040       L2                         10020040     LIBCMT:lldvrm.obj
 0001:0001f06c       L3                         1002006c     LIBCMT:lldvrm.obj
 0001:0001f07a       L5                         1002007a     LIBCMT:lldvrm.obj
 0001:0001f0a8       L6                         100200a8     LIBCMT:lldvrm.obj
 0001:0001f0b1       L7                         100200b1     LIBCMT:lldvrm.obj
 0001:0001f0b3       L4                         100200b3     LIBCMT:lldvrm.obj
 0001:0001f0c5       L9                         100200c5     LIBCMT:lldvrm.obj
 0001:0001f0d9       L8                         100200d9     LIBCMT:lldvrm.obj
 0001:0001f0e0       $$000000                   100200e0     LIBCMT:llshl.obj
 0001:0001f0f0       MORE32                     100200f0     LIBCMT:llshl.obj
 0001:0001f0fa       RETZERO                    100200fa     LIBCMT:llshl.obj
 0001:0001f100       $$000000                   10020100     LIBCMT:ullshr.obj
 0001:0001f110       MORE32                     10020110     LIBCMT:ullshr.obj
 0001:0001f11a       RETZERO                    1002011a     LIBCMT:ullshr.obj
 0001:0001f120       $$000000                   10020120     LIBCMT:ftol2.obj
 0001:0001f130       $$000000                   10020130     LIBCMT:ftol2.obj
 0001:0001f141       L3B                        10020141     LIBCMT:ftol2.obj
 0001:0001f184       L3F                        10020184     LIBCMT:ftol2.obj
 0001:0001f18c       L40                        1002018c     LIBCMT:ftol2.obj
 0001:0001f19f       L41                        1002019f     LIBCMT:ftol2.obj
 0001:0001f1b0       $$000000                   100201b0     libvcruntime:strrchr.obj
 0001:0001f1ed       strrchr_sse_loop           100201ed     libvcruntime:strrchr.obj
 0001:0001f21d       strrchr_sse_break          1002021d     libvcruntime:strrchr.obj
 0001:0001f23d       strrchr_sttni              1002023d     libvcruntime:strrchr.obj
 0001:0001f24f       strrchr_sttni_chars        1002024f     libvcruntime:strrchr.obj
 0001:0001f264       strrchr_sttni_aligned      10020264     libvcruntime:strrchr.obj
 0001:0001f268       strrchr_sttni_xmm          10020268     libvcruntime:strrchr.obj
 0001:0001f27b       exit                       1002027b     libvcruntime:strrchr.obj
 0001:0001f27e       strrchr_zero               1002027e     libvcruntime:strrchr.obj
 0001:0001f2a3       strchr_zero_loop           100202a3     libvcruntime:strrchr.obj
 0001:0001f2b7       strchr_zero_result         100202b7     libvcruntime:strrchr.obj
 0001:0001f2be       strrchr_no_sse             100202be     libvcruntime:strrchr.obj
 0001:0001f2e1       returndi                   100202e1     libvcruntime:strrchr.obj
 0001:0001f2e3       toend                      100202e3     libvcruntime:strrchr.obj
 0001:0001f368       __ehhandler$??2@YAPAXIABUnothrow_t@std@@@Z 10020368 f   LIBCMT:new_scalar_nothrow.obj
 0001:0001f385       __ehhandler$?CallUnexpected@@YAXPBU_s_ESTypeList@@@Z 10020385 f   libvcruntime:frame.obj
 0001:0001f3a2       __ehhandler$?common_exit@@YAXHW4_crt_exit_cleanup_mode@@W4_crt_exit_return_mode@@@Z 100203a2 f   libucrt:exit.obj
 0001:0001f3bf       __ehhandler$?try_cor_exit_process@@YAXI@Z 100203bf f   libucrt:exit.obj
 0001:0001f3dc       __ehhandler$___dcrt_uninitialize_environments_nolock 100203dc f   libucrt:environment_initialization.obj
 0001:0001f3f9       __ehhandler$__execute_onexit_table 100203f9 f   libucrt:onexit.obj
 0001:0001f416       __ehhandler$?write_double_translated_ansi_nolock@@YA?AUwrite_result@?A0x17268360@@HQBDIAAV__crt_cached_ptd_host@@@Z 10020416 f   libucrt:write.obj
 0001:0001f440       ??__F_AtlComModule@ATL@@YAXXZ 10020440 f   OposVariant.obj
 0001:0001f44a       ??__F_AtlWinModule@ATL@@YAXXZ 1002044a f   OposVariant.obj
 0001:0001f464       ??__F_Module@@YAXXZ        10020464 f   Biometrics.obj
 0001:0001f478       ??__F_AtlBaseModule@ATL@@YAXXZ 10020478 f   atls:atlbase.obj
 0002:0000030c       ?_AtlBaseModule$initializer$@ATL@@3P6AXXZA 1002130c     atls:atlbase.obj
 0002:00000310       ?_AtlComModule$initializer$@ATL@@3P6AXXZA 10021310     OposVariant.obj
 0002:00000314       ?_AtlWinModule$initializer$@ATL@@3P6AXXZA 10021314     OposVariant.obj
 0002:00000318       ?_Module$initializer$@@3P6AXXZA 10021318     Biometrics.obj
 0002:0000031c       ??pConnMap$initializer$@?$IConnectionPointContainerImpl@VCOPOSBiometrics@@@ATL@@0P6AXXZA@@3P6AXXZA 1002131c     Biometrics.obj
 0002:00000328       ?__scrt_initialize_tss_var@@3P6AHXZA 10021328     LIBCMT:thread_safe_statics.obj
 0002:000018e8       _GS_ExceptionPointers      100228e8     LIBCMT:gs_report.obj
 0002:00001a78       ?tokenTable@@3QBUStringLiteral@@B 10022a78     libvcruntime:undname.obj
 0002:00001b00       ?nameTable@@3QBUStringLiteral@@B 10022b00     libvcruntime:undname.obj
 0002:00001d98       ?rttiTable@@3QBUStringLiteral@@B 10022d98     libvcruntime:undname.obj
 0002:00001dc0       ?IndirectionName@@3QBUStringLiteral@@B 10022dc0     libvcruntime:undname.obj
 0002:00001df0       ?PrefixName@@3QBUStringLiteral@@B 10022df0     libvcruntime:undname.obj
 0002:0000242c       ?module_names@?A0x592e9a36@@3QBQB_WB 1002342c     libvcruntime:winapi_downlevel.obj
 0002:000024d4       ?candidate_modules@?1??try_get_FlsAlloc@@YAP6GKP6GXPAX@Z@ZXZ@4QBW4module_id@?A0x592e9a36@@B 100234d4     libvcruntime:winapi_downlevel.obj
 0002:000024e8       ?candidate_modules@?1??try_get_FlsFree@@YAP6GHK@ZXZ@4QBW4module_id@?A0x592e9a36@@B 100234e8     libvcruntime:winapi_downlevel.obj
 0002:000024f8       ?candidate_modules@?1??try_get_FlsGetValue@@YAP6GPAXK@ZXZ@4QBW4module_id@?A0x592e9a36@@B 100234f8     libvcruntime:winapi_downlevel.obj
 0002:0000250c       ?candidate_modules@?1??try_get_FlsSetValue@@YAP6GHKPAX@ZXZ@4QBW4module_id@?A0x592e9a36@@B 1002350c     libvcruntime:winapi_downlevel.obj
 0002:00002520       ?candidate_modules@?1??try_get_InitializeCriticalSectionEx@@YAP6GHPAU_RTL_CRITICAL_SECTION@@KK@ZXZ@4QBW4module_id@?A0x592e9a36@@B 10023520     libvcruntime:winapi_downlevel.obj
 0002:00002548       ?errtable@@3QBUerrentry@?A0x31fdb9ec@@B 10023548     libucrt:errno.obj
 0002:00002890       ___acrt_initializers       10023890     libucrt:initialization.obj
 0002:00002dd0       ?module_names@?A0x391cf84c@@3QBQB_WB 10023dd0     libucrt:winapi_thunks.obj
 0002:00003284       ?candidate_modules@?1??try_get_AreFileApisANSI@@YAP6GHXZXZ@4QBW4module_id@?A0x391cf84c@@B 10024284     libucrt:winapi_thunks.obj
 0002:00003298       ?candidate_modules@?1??try_get_InitializeCriticalSectionEx@@YAP6GHPAU_RTL_CRITICAL_SECTION@@KK@ZXZ@4QBW4module_id@?A0x391cf84c@@B 10024298     libucrt:winapi_thunks.obj
 0002:000032a0       ?candidate_modules@?1??try_get_LCMapStringEx@@YAP6GHPB_WK0HPA_WHPAU_nlsversioninfo@@PAXJ@ZXZ@4QBW4module_id@?A0x391cf84c@@B 100242a0     libucrt:winapi_thunks.obj
 0002:000032b8       ?candidate_modules@?1??try_get_LocaleNameToLCID@@YAP6GKPB_WK@ZXZ@4QBW4module_id@?A0x391cf84c@@B 100242b8     libucrt:winapi_thunks.obj
 0002:000032d4       ?candidate_modules@?1??try_get_AppPolicyGetProcessTerminationMethod@@YAP6GJPAXPAW4AppPolicyProcessTerminationMethod@@@ZXZ@4QBW4module_id@?A0x391cf84c@@B 100242d4     libucrt:winapi_thunks.obj
 0002:00003300       ?candidate_modules@?1??try_get_SetThreadStackGuarantee@@YAP6GHPAK@ZXZ@4QBW4module_id@?A0x391cf84c@@B 10024300     libucrt:winapi_thunks.obj
 0002:00003320       ?candidate_modules@?1??try_get_FlsAlloc@@YAP6GKP6GXPAX@Z@ZXZ@4QBW4module_id@?A0x391cf84c@@B 10024320     libucrt:winapi_thunks.obj
 0002:00003328       ?candidate_modules@?1??try_get_FlsFree@@YAP6GHK@ZXZ@4QBW4module_id@?A0x391cf84c@@B 10024328     libucrt:winapi_thunks.obj
 0002:00003330       ?candidate_modules@?1??try_get_FlsGetValue@@YAP6GPAXK@ZXZ@4QBW4module_id@?A0x391cf84c@@B 10024330     libucrt:winapi_thunks.obj
 0002:00003338       ?candidate_modules@?1??try_get_FlsSetValue@@YAP6GHKPAX@ZXZ@4QBW4module_id@?A0x391cf84c@@B 10024338     libucrt:winapi_thunks.obj
 0002:00003340       ?strings@?1??fp_format_nan_or_infinity@@YAHW4__acrt_fp_class@@_NPADI1@Z@4QAY03QBDA 10024340     libucrt:cvt.obj
 0002:000033c8       ?_mb_locale_names@@3QBQB_WB 100243c8     libucrt:mbctype.obj
 0002:00003a10       ?LcidToLocaleNameTable@?A0x881e4c05@@3QBULcidToLocaleName@1@B 10024a10     libucrt:lcidtoname_downlevel.obj
 0002:00004b30       ?LocaleNameToIndexTable@?A0x881e4c05@@3QBULocaleNameIndex@1@B 10025b30     libucrt:lcidtoname_downlevel.obj
 0002:00006470       LOG_name                   10027470     libucrt:log10_impl.obj
 0002:00006480       _One                       10027480     libucrt:ceil_pentium4.obj
 0002:00006490       _Bns                       10027490     libucrt:ceil_pentium4.obj
 0002:000064a0       _Zero                      100274a0     libucrt:ceil_pentium4.obj
 0002:000064b0       _S                         100274b0     libucrt:ceil_pentium4.obj
 0002:000064c0       _NegZero                   100274c0     libucrt:ceil_pentium4.obj
 0002:000064d0       emask                      100274d0     libucrt:log10_pentium4.obj
 0002:000064e0       CC                         100274e0     libucrt:log10_pentium4.obj
 0002:000064f0       Magic                      100274f0     libucrt:log10_pentium4.obj
 0002:00006500       hi_mask                    10027500     libucrt:log10_pentium4.obj
 0002:00006510       LOG10_2                    10027510     libucrt:log10_pentium4.obj
 0002:00006520       place_L                    10027520     libucrt:log10_pentium4.obj
 0002:00006540       One                        10027540     libucrt:log10_pentium4.obj
 0002:00006550       Zero                       10027550     libucrt:log10_pentium4.obj
 0002:00006560       Two52                      10027560     libucrt:log10_pentium4.obj
 0002:00006570       Infs                       10027570     libucrt:log10_pentium4.obj
 0002:00006580       NaN                        10027580     libucrt:log10_pentium4.obj
 0002:00006590       coeff                      10027590     libucrt:log10_pentium4.obj
 0002:000065ee       _log2max                   100275ee     libucrt:87tran.obj
 0002:000065f8       _smallarg                  100275f8     libucrt:87tran.obj
 0002:00006602       _half                      10027602     libucrt:87tran.obj
 0002:0000664e       One                        1002764e     libucrt:87disp.obj
 0002:00006656       Three                      10027656     libucrt:87disp.obj
 0002:0000665e       XAMtoTagTab                1002765e     libucrt:87disp.obj
 0002:00006670       One                        10027670     libucrt:common.obj
 0002:00006684       DblMax                     10027684     libucrt:common.obj
 0002:0000668c       DblMin                     1002768c     libucrt:common.obj
 0002:00006694       IeeeAdjO                   10027694     libucrt:common.obj
 0002:0000669c       IeeeAdjU                   1002769c     libucrt:common.obj
 0002:000066a4       _infinity                  100276a4     libucrt:common.obj
 0002:000066ac       _zero                      100276ac     libucrt:common.obj
 0002:000066f8       _over                      100276f8     libucrt:fpctrl.obj
 0002:00006704       _under                     10027704     libucrt:fpctrl.obj
 0002:00006f38       ?_names@?1??_get_fname@@9@4QBU<unnamed-type-_names>@?1??1@YAPADI@Z@B 10027f38     libucrt:fpexcept.obj
 0002:000070e0       two32                      100280e0     LIBCMT:ftol2.obj
 0002:000070e4       two63                      100280e4     LIBCMT:ftol2.obj
 0002:000070e8       _NaN                       100280e8     LIBCMT:ftol2.obj
 0002:00007818       __sehtable$?_AtlVerifyStackAvailable@_ATL_SAFE_ALLOCA_IMPL@ATL@@YA_NK@Z 10028818     Biometrics.obj
 0002:00007838       __sehtable$___scrt_is_nonwritable_in_current_image 10028838     LIBCMT:utility.obj
 0002:00007854       __catchsym$??2@YAPAXIABUnothrow_t@std@@@Z$2 10028854     LIBCMT:new_scalar_nothrow.obj
 0002:00007864       __unwindtable$??2@YAPAXIABUnothrow_t@std@@@Z 10028864     LIBCMT:new_scalar_nothrow.obj
 0002:00007874       __tryblocktable$??2@YAPAXIABUnothrow_t@std@@@Z 10028874     LIBCMT:new_scalar_nothrow.obj
 0002:00007888       __ehfuncinfo$??2@YAPAXIABUnothrow_t@std@@@Z 10028888     LIBCMT:new_scalar_nothrow.obj
 0002:000078b0       __sehtable$?dllmain_crt_process_attach@@YAHQAUHINSTANCE__@@QAX@Z 100288b0     LIBCMT:dll_dllmain.obj
 0002:000078d0       __sehtable$?dllmain_crt_process_detach@@YAH_N@Z 100288d0     LIBCMT:dll_dllmain.obj
 0002:000078f8       __sehtable$?dllmain_dispatch@@YAHQAUHINSTANCE__@@KQAX@Z 100288f8     LIBCMT:dll_dllmain.obj
 0002:000079a8       __sehtable$___DestructExceptionObject 100289a8     libvcruntime:ehhelpers.obj
 0002:000079c8       __sehtable$?FrameUnwindToState@__FrameHandler3@@SAXPAUEHRegistrationNode@@PAXPBU_s_FuncInfo@@H@Z 100289c8     libvcruntime:frame.obj
 0002:000079f0       __sehtable$?CallCatchBlock@@YAPAXPAUEHExceptionRecord@@PAUEHRegistrationNode@@PAU_CONTEXT@@PBU_s_FuncInfo@@PAXHK@Z 100289f0     libvcruntime:frame.obj
 0002:00007a18       __catchsym$?CallUnexpected@@YAXPBU_s_ESTypeList@@@Z$2 10028a18     libvcruntime:frame.obj
 0002:00007a28       __unwindtable$?CallUnexpected@@YAXPBU_s_ESTypeList@@@Z 10028a28     libvcruntime:frame.obj
 0002:00007a38       __tryblocktable$?CallUnexpected@@YAXPBU_s_ESTypeList@@@Z 10028a38     libvcruntime:frame.obj
 0002:00007a4c       __ehfuncinfo$?CallUnexpected@@YAXPBU_s_ESTypeList@@@Z 10028a4c     libvcruntime:frame.obj
 0002:00007a70       __sehtable$??$BuildCatchObjectHelperInternal@V__FrameHandler3@@@@YAHPAUEHExceptionRecord@@PAXPBU_s_HandlerType@@PBU_s_CatchableType@@@Z 10028a70     libvcruntime:frame.obj
 0002:00007a90       __sehtable$??$BuildCatchObjectInternal@V__FrameHandler3@@@@YAXPAUEHExceptionRecord@@PAXPBU_s_HandlerType@@PBU_s_CatchableType@@@Z 10028a90     libvcruntime:frame.obj
 0002:00007ae4       __ehfuncinfo$?write_double_translated_ansi_nolock@@YA?AUwrite_result@?A0x17268360@@HQBDIAAV__crt_cached_ptd_host@@@Z 10028ae4     libucrt:write.obj
 0002:00007ae4       __ehfuncinfo$?try_cor_exit_process@@YAXI@Z 10028ae4     libucrt:exit.obj
 0002:00007b08       __unwindtable$?common_exit@@YAXHW4_crt_exit_cleanup_mode@@W4_crt_exit_return_mode@@@Z 10028b08     libucrt:exit.obj
 0002:00007b10       __ehfuncinfo$?common_exit@@YAXHW4_crt_exit_cleanup_mode@@W4_crt_exit_return_mode@@@Z 10028b10     libucrt:exit.obj
 0002:00007b38       __sehtable$??R<lambda_6e4b09c48022b2350581041d5f6b0c4c>@@QBE@XZ 10028b38     libucrt:exit.obj
 0002:00007b58       __sehtable$??$?RV<lambda_03b1d95aef87969028cfba75ccab2455>@@AAV<lambda_6e4b09c48022b2350581041d5f6b0c4c>@@V<lambda_22bdf7517842c4b3e53723af5aa32b9e>@@@?$__crt_seh_guarded_call@X@@QAEX$$QAV<lambda_03b1d95aef87969028cfba75ccab2455>@@AAV<lambda_6e4b09c48022b2350581041d5f6b0c4c>@@$$QAV<lambda_22bdf7517842c4b3e53723af5aa32b9e>@@@Z 10028b58     libucrt:exit.obj
 0002:00007b74       __unwindtable$___dcrt_uninitialize_environments_nolock 10028b74     libucrt:environment_initialization.obj
 0002:00007b84       __ehfuncinfo$___dcrt_uninitialize_environments_nolock 10028b84     libucrt:environment_initialization.obj
 0002:00007ba8       __unwindtable$__execute_onexit_table 10028ba8     libucrt:onexit.obj
 0002:00007bb0       __ehfuncinfo$__execute_onexit_table 10028bb0     libucrt:onexit.obj
 0002:00007bd8       __sehtable$??$?RV<lambda_8e746cf0007f6ed984d6f78af1fec997>@@AAV<lambda_22ebabd17bc4fa466a2aca6d8deb888d>@@V<lambda_18ed0c0b38a6dc0daf1e7ac6d6adf05e>@@@?$__crt_seh_guarded_call@H@@QAEH$$QAV<lambda_8e746cf0007f6ed984d6f78af1fec997>@@AAV<lambda_22ebabd17bc4fa466a2aca6d8deb888d>@@$$QAV<lambda_18ed0c0b38a6dc0daf1e7ac6d6adf05e>@@@Z 10028bd8     libucrt:onexit.obj
 0002:00007bf8       __sehtable$??$?RV<lambda_69a2805e680e0e292e8ba93315fe43a8>@@AAV<lambda_f03950bc5685219e0bcd2087efbe011e>@@V<lambda_03fcd07e894ec930e3f35da366ca99d6>@@@?$__crt_seh_guarded_call@H@@QAEH$$QAV<lambda_69a2805e680e0e292e8ba93315fe43a8>@@AAV<lambda_f03950bc5685219e0bcd2087efbe011e>@@$$QAV<lambda_03fcd07e894ec930e3f35da366ca99d6>@@@Z 10028bf8     libucrt:onexit.obj
 0002:00007c18       __sehtable$__query_new_handler 10028c18     libucrt:new_handler.obj
 0002:00007c38       __sehtable$_terminate      10028c38     libucrt:terminate.obj
 0002:00007c58       __sehtable$??$?RV<lambda_15ade71b0218206bbe3333a0c9b79046>@@AAV<lambda_da44e0f8b0f19ba52fefafb335991732>@@V<lambda_207f2d024fc103971653565357d6cd41>@@@?$__crt_seh_guarded_call@X@@QAEX$$QAV<lambda_15ade71b0218206bbe3333a0c9b79046>@@AAV<lambda_da44e0f8b0f19ba52fefafb335991732>@@$$QAV<lambda_207f2d024fc103971653565357d6cd41>@@@Z 10028c58     libucrt:per_thread_data.obj
 0002:00007c78       __sehtable$??$?RV<lambda_a7e850c220f1c8d1e6efeecdedd162c6>@@AAV<lambda_46720907175c18b6c9d2717bc0d2d362>@@V<lambda_9048902d66e8d99359bc9897bbb930a8>@@@?$__crt_seh_guarded_call@X@@QAEX$$QAV<lambda_a7e850c220f1c8d1e6efeecdedd162c6>@@AAV<lambda_46720907175c18b6c9d2717bc0d2d362>@@$$QAV<lambda_9048902d66e8d99359bc9897bbb930a8>@@@Z 10028c78     libucrt:per_thread_data.obj
 0002:00007c98       __sehtable$??$?RV<lambda_38edbb1296d33220d7e4dd0ed76b244a>@@AAV<lambda_5ce1d447e08cb34b2473517608e21441>@@V<lambda_fb385d3da700c9147fc39e65dd577a8c>@@@?$__crt_seh_guarded_call@X@@QAEX$$QAV<lambda_38edbb1296d33220d7e4dd0ed76b244a>@@AAV<lambda_5ce1d447e08cb34b2473517608e21441>@@$$QAV<lambda_fb385d3da700c9147fc39e65dd577a8c>@@@Z 10028c98     libucrt:per_thread_data.obj
 0002:00007cb8       __sehtable$??$?RV<lambda_6affb1475c98b40b75cdec977db92e3c>@@AAV<lambda_b8d4b9c228a6ecc3f80208dbb4b4a104>@@V<lambda_608742c3c92a14382c1684fc64f96c88>@@@?$__crt_seh_guarded_call@X@@QAEX$$QAV<lambda_6affb1475c98b40b75cdec977db92e3c>@@AAV<lambda_b8d4b9c228a6ecc3f80208dbb4b4a104>@@$$QAV<lambda_608742c3c92a14382c1684fc64f96c88>@@@Z 10028cb8     libucrt:per_thread_data.obj
 0002:00007cd8       __sehtable$??$?RV<lambda_e5124f882df8998aaf41531e079ba474>@@AAV<lambda_3e16ef9562a7dcce91392c22ab16ea36>@@V<lambda_e25ca0880e6ef98be67edffd8c599615>@@@?$__crt_seh_guarded_call@X@@QAEX$$QAV<lambda_e5124f882df8998aaf41531e079ba474>@@AAV<lambda_3e16ef9562a7dcce91392c22ab16ea36>@@$$QAV<lambda_e25ca0880e6ef98be67edffd8c599615>@@@Z 10028cd8     libucrt:wsetlocale.obj
 0002:00007cf8       __sehtable$___acrt_initialize_lowio 10028cf8     libucrt:ioinit.obj
 0002:00007d18       __sehtable$?update_thread_multibyte_data_internal@@YAPAU__crt_multibyte_data@@QAU__acrt_ptd@@QAPAU1@@Z 10028d18     libucrt:mbctype.obj
 0002:00007d38       __sehtable$??$?RV<lambda_ceb1ee4838e85a9d631eb091e2fbe199>@@AAV<lambda_ae742caa10f662c28703da3d2ea5e57e>@@V<lambda_cd08b5d6af4937fe54fc07d0c9bf6b37>@@@?$__crt_seh_guarded_call@X@@QAEX$$QAV<lambda_ceb1ee4838e85a9d631eb091e2fbe199>@@AAV<lambda_ae742caa10f662c28703da3d2ea5e57e>@@$$QAV<lambda_cd08b5d6af4937fe54fc07d0c9bf6b37>@@@Z 10028d38     libucrt:mbctype.obj
 0002:00007d58       __sehtable$_raise          10028d58     libucrt:signal.obj
 0002:00007d78       __sehtable$??$?RV<lambda_cbab9ec6f41b0180b23cc171c22676b0>@@AAV<lambda_44731a7d0e6d81c3e6aa82d741081786>@@V<lambda_4b292cb8dd18144e164572427af410ab>@@@?$__crt_seh_guarded_call@P6AXH@Z@@QAEP6AXH@Z$$QAV<lambda_cbab9ec6f41b0180b23cc171c22676b0>@@AAV<lambda_44731a7d0e6d81c3e6aa82d741081786>@@$$QAV<lambda_4b292cb8dd18144e164572427af410ab>@@@Z 10028d78     libucrt:signal.obj
 0002:00007d98       __sehtable$??$?RV<lambda_2866be3712abc81a800a822484c830d8>@@AAV<lambda_39ca0ed439415581b5b15c265174cece>@@V<lambda_2b24c74d71094a6cd0cb82e44167d71b>@@@?$__crt_seh_guarded_call@X@@QAEX$$QAV<lambda_2866be3712abc81a800a822484c830d8>@@AAV<lambda_39ca0ed439415581b5b15c265174cece>@@$$QAV<lambda_2b24c74d71094a6cd0cb82e44167d71b>@@@Z 10028d98     libucrt:fflush.obj
 0002:00007db8       __sehtable$??$?RV<lambda_2cc53f568c5a2bb6f192f930a45d44ea>@@AAV<lambda_ab61a845afdef5b7c387490eaf3616ee>@@V<lambda_c2ffc0b7726aa6be21d5f0026187e748>@@@?$__crt_seh_guarded_call@X@@QAEX$$QAV<lambda_2cc53f568c5a2bb6f192f930a45d44ea>@@AAV<lambda_ab61a845afdef5b7c387490eaf3616ee>@@$$QAV<lambda_c2ffc0b7726aa6be21d5f0026187e748>@@@Z 10028db8     libucrt:fflush.obj
 0002:00007dd8       __sehtable$___acrt_update_thread_locale_data 10028dd8     libucrt:locale_refcounting.obj
 0002:00007df8       __sehtable$__fcloseall     10028df8     libucrt:closeall.obj
 0002:00007e18       __sehtable$___acrt_lowio_ensure_fh_exists 10028e18     libucrt:osfinfo.obj
 0002:00007e38       __sehtable$??$?RV<lambda_9e9de3de5fa147e2223d7db92bc10aa6>@@AAV<lambda_38ce7e780aa69e748d6df282ebc68efe>@@V<lambda_8ca6da459f0f6780f1cff60fdc3d00e5>@@@?$__crt_seh_guarded_call@H@@QAEH$$QAV<lambda_9e9de3de5fa147e2223d7db92bc10aa6>@@AAV<lambda_38ce7e780aa69e748d6df282ebc68efe>@@$$QAV<lambda_8ca6da459f0f6780f1cff60fdc3d00e5>@@@Z 10028e38     libucrt:commit.obj
 0002:00007e58       __sehtable$__write_internal 10028e58     libucrt:write.obj
 0002:00007e78       __sehtable$?_fclose_internal@@YAHQAU_iobuf@@AAV__crt_cached_ptd_host@@@Z 10028e78     libucrt:fclose.obj
 0002:00007e98       __sehtable$??$?RV<lambda_d422a76eb4c3bf3ad751449ab71a6ea4>@@AAV<lambda_c9ba49e555ba839a7b07aa3fbecb7617>@@V<lambda_9476263c8ee91a25d21c55370bdb50de>@@@?$__crt_seh_guarded_call@H@@QAEH$$QAV<lambda_d422a76eb4c3bf3ad751449ab71a6ea4>@@AAV<lambda_c9ba49e555ba839a7b07aa3fbecb7617>@@$$QAV<lambda_9476263c8ee91a25d21c55370bdb50de>@@@Z 10028e98     libucrt:close.obj
 0002:00007eb8       __sehtable$___set_fpsr_sse2 10028eb8     libucrt:fpctrl.obj
 0002:00007ed8       __sehtable$__IsNonwritableInCurrentImage 10028ed8     LIBCMT:pesect.obj
 0002:00007f00       .edata                     10028f00     OPOSBiometrics.exp
 0002:00007f28       rgpv                       10028f28     OPOSBiometrics.exp
 0002:00007f38       rgszName                   10028f38     OPOSBiometrics.exp
 0002:00007f48       rgwOrd                     10028f48     OPOSBiometrics.exp
 0002:00007f50       szName                     10028f50     OPOSBiometrics.exp
 0002:00007f63       $N00001                    10028f63     OPOSBiometrics.exp
 0002:00007f73       $N00002                    10028f73     OPOSBiometrics.exp
 0002:00007f85       $N00003                    10028f85     OPOSBiometrics.exp
 0002:00007f97       $N00004                    10028f97     OPOSBiometrics.exp
 0002:000085aa       .idata$6                   100295aa     kernel32:KERNEL32.dll
 0002:000087be       .idata$6                   100297be     user32:USER32.dll
 0002:000088f2       .idata$6                   100298f2     gdi32:GDI32.dll
 0002:00008998       .idata$6                   10029998     advapi32:ADVAPI32.dll
 0002:00008ab4       .idata$6                   10029ab4     ole32:ole32.dll
 0002:00008abe       .idata$6                   10029abe     oleaut32:OLEAUT32.dll
 0003:00000110       ?ObjectMap@@3PAU_ATL_OBJMAP_ENTRY30@ATL@@A 1002a110     Biometrics.obj
 0003:000001d0       ?s_SOMethodNames@@3PAPADA  1002a1d0     BiometricsImpl.obj
 0003:0000023c       ?s_RequiredMethodsPerRelease@@3PAHA 1002a23c     BiometricsImpl.obj
 0003:00000260       ?__vcrt_flsindex@@3KA      1002a260     libvcruntime:per_thread_data.obj
 0003:00000280       ?errno_no_memory@@3HA      1002a280     libucrt:errno.obj
 0003:00000284       ?doserrno_no_memory@@3KA   1002a284     libucrt:errno.obj
 0003:00000290       ?__acrt_flsindex@@3KA      1002a290     libucrt:per_thread_data.obj
 0003:00000628       __mbctypes                 1002a628     libucrt:mbctype.obj
 0003:00000730       __mbcasemaps               1002a730     libucrt:mbctype.obj
 0003:00000830       ?__rgctypeflag@@3PADA      1002a830     libucrt:mbctype.obj
 0003:00000838       ?__rgcode_page_info@@3PAUcode_page_info@@A 1002a838     libucrt:mbctype.obj
 0003:00000a90       ?__dcrt_lowio_console_output_handle@@3PAXA 1002aa90     libucrt:initcon.obj
 0003:00000a94       ?__DAZ_ENABLED@?1??__set_fpsr_sse2@@9@9 1002aa94     libucrt:fpctrl.obj
 0003:00000c28       ?is_initialized_as_dll@@3_NA 1002ac28     LIBCMT:utility.obj
 0003:00000c29       ?module_local_atexit_table_initialized@@3_NA 1002ac29     LIBCMT:utility.obj
 0003:00000c2c       ?module_local_atexit_table@@3U_onexit_table_t@@A 1002ac2c     LIBCMT:utility.obj
 0003:00000c38       ?module_local_at_quick_exit_table@@3U_onexit_table_t@@A 1002ac38     LIBCMT:utility.obj
 0003:00000c44       ?g_tss_cv@@3U_RTL_CONDITION_VARIABLE@@A 1002ac44     LIBCMT:thread_safe_statics.obj
 0003:00000c48       ?g_tss_event@@3PAXA        1002ac48     LIBCMT:thread_safe_statics.obj
 0003:00000c4c       ?g_tss_mutex@@3U_RTL_CRITICAL_SECTION@@A 1002ac4c     LIBCMT:thread_safe_statics.obj
 0003:00000c64       ?g_sleep_condition_variable_cs@@3P6GHPAU_RTL_CONDITION_VARIABLE@@PAU_RTL_CRITICAL_SECTION@@K@ZA 1002ac64     LIBCMT:thread_safe_statics.obj
 0003:00000c68       ?g_wake_all_condition_variable@@3P6GXPAU_RTL_CONDITION_VARIABLE@@@ZA 1002ac68     LIBCMT:thread_safe_statics.obj
 0003:00000c70       _GS_ExceptionRecord        1002ac70     LIBCMT:gs_report.obj
 0003:00000cc0       _GS_ContextRecord          1002acc0     LIBCMT:gs_report.obj
 0003:00000f90       ?__proc_attached@@3HA      1002af90     LIBCMT:dll_dllmain.obj
 0003:00000fec       ?AllocateData@@3P6GPAUAtlThunkData_t@@XZA 1002afec     atls:atlthunk.obj
 0003:00000ff0       ?InitData@@3P6GXPAUAtlThunkData_t@@PAXI@ZA 1002aff0     atls:atlthunk.obj
 0003:00000ff4       ?DataToCode@@3P6GP6GJPAUHWND__@@IIJ@ZPAUAtlThunkData_t@@@ZA 1002aff4     atls:atlthunk.obj
 0003:00000ff8       ?FreeData@@3P6GXPAUAtlThunkData_t@@@ZA 1002aff8     atls:atlthunk.obj
 0003:00000ffc       ?Initialized@@3_NA         1002affc     atls:atlthunk.obj
 0003:0000100c       ?__vcrt_startup_thread_ptd@@3U__vcrt_ptd@@A 1002b00c     libvcruntime:per_thread_data.obj
 0003:00001034       ___vcrt_lock_table         1002b034     libvcruntime:locks.obj
 0003:0000104c       ___vcrt_locks_initialized  1002b04c     libvcruntime:locks.obj
 0003:00001078       ?heap@@3V_HeapManager@@A   1002b078     libvcruntime:undname.obj
 0003:0000108c       ?module_handles@@3PAPAUHINSTANCE__@@A 1002b08c     libvcruntime:winapi_downlevel.obj
 0003:00001098       ?function_pointers@@3PAPAXA 1002b098     libvcruntime:winapi_downlevel.obj
 0003:000010ac       ?__acrt_invalid_parameter_handler@@3V?$dual_state_global@P6AXPB_W00II@Z@__crt_state_management@@A 1002b0ac     libucrt:invalid_parameter.obj
 0003:000010b0       ?c_termination_complete@@3JA 1002b0b0     libucrt:exit.obj
 0003:000010b4       ?thread_local_exit_callback_func@@3P6GXPAXK0@ZA 1002b0b4     libucrt:exit.obj
 0003:000010c0       ?program_name@?1???$common_configure_argv@D@@YAHW4_crt_argv_mode@@@Z@4PADA 1002b0c0     libucrt:argv_parsing.obj
 0003:000011f0       ?__acrt_new_handler@@3V?$dual_state_global@P6AHI@Z@__crt_state_management@@A 1002b1f0     libucrt:new_handler.obj
 0003:00001200       ?module_handles@@3PAPAUHINSTANCE__@@A 1002b200     libucrt:winapi_thunks.obj
 0003:00001250       ?encoded_function_pointers@@3PAPAXA 1002b250     libucrt:winapi_thunks.obj
 0003:000012d8       ?internal_state@?1??_mbtowc_internal@@9@4U_Mbstatet@@A 1002b2d8     libucrt:mbtowc.obj
 0003:000012e8       ?enable_percent_n@@3IA     1002b2e8     libucrt:printf_count_output.obj
 0003:00001500       ?__acrt_lock_table@@3PAU_RTL_CRITICAL_SECTION@@A 1002b500     libucrt:locks.obj
 0003:00001650       ?__acrt_locks_initialized@@3IA 1002b650     libucrt:locks.obj
 0003:00001660       ?fSystemSet@@3HA           1002b660     libucrt:mbctype.obj
 0003:00001664       ?initialized@?1??__acrt_initialize_multibyte@@9@4_NA 1002b664     libucrt:mbctype.obj
 0003:00001684       ?ctrlc_action@@3V?$dual_state_global@P6AXH@Z@__crt_state_management@@A 1002b684     libucrt:signal.obj
 0003:00001688       ?ctrlbreak_action@@3V?$dual_state_global@P6AXH@Z@__crt_state_management@@A 1002b688     libucrt:signal.obj
 0003:0000168c       ?abort_action@@3V?$dual_state_global@P6AXH@Z@__crt_state_management@@A 1002b68c     libucrt:signal.obj
 0003:00001690       ?term_action@@3V?$dual_state_global@P6AXH@Z@__crt_state_management@@A 1002b690     libucrt:signal.obj
 0003:00001694       ?user_matherr@@3V?$dual_state_global@P6AHPAU_exception@@@Z@__crt_state_management@@A 1002b694     libucrt:matherr.obj
 0003:000016a0       ?__acrt_global_new_mode@@3V?$dual_state_global@J@__crt_state_management@@A 1002b6a0     libucrt:new_mode.obj
 0003:000016a4       ?internal_pst@?1??__mbrtoc32_utf8@__crt_mbstring@@YAIPA_UPBDIPAU_Mbstatet@@AAV__crt_cached_ptd_host@@@Z@4U3@A 1002b6a4     libucrt:mbrtoc32.obj
 0003:000016ac       ?__acrt_app_type@@3W4_crt_app_type@@A 1002b6ac     libucrt:report_runtime_error.obj
 0003:000016b4       __pmatherr_set             1002b6b4     libucrt:libm_error.obj
 0004:00000220       $R000000                   1002c220     Biometrics.res
 0004:00000bb8       $R000998                   1002cbb8     Biometrics.res
 0004:00000ca0       $R000A80                   1002cca0     Biometrics.res
 0004:00000f08       $R000CE8                   1002cf08     Biometrics.res
 0004:00001410       $R0011F0                   1002d410     Biometrics.res
 0004:00004908       $R0046E8                   10030908     Biometrics.res
 0004:00004940       $R004720                   10030940     Biometrics.res
