 OPOSCoinDispenser

 Timestamp is 5ed457c3 (Mon Jun  1 10:20:03 2020)

 Preferred load address is 10000000

 Start         Length     Name                   Class
 0001:00000000 00000080H .text$di                CODE
 0001:00000080 0001de93H .text$mn                CODE
 0001:0001df13 00000036H .text$x                 CODE
 0001:0001df49 00000042H .text$yd                CODE
 0002:00000000 000002fcH .idata$5                DATA
 0002:000002fc 00000004H .00cfg                  DATA
 0002:00000300 00000004H .CRT$XCA                DATA
 0002:00000304 00000004H .CRT$XCL                DATA
 0002:00000308 00000010H .CRT$XCU                DATA
 0002:00000318 00000004H .CRT$XCZ                DATA
 0002:0000031c 00000004H .CRT$XIA                DATA
 0002:00000320 00000010H .CRT$XIC                DATA
 0002:00000330 00000004H .CRT$XIZ                DATA
 0002:00000334 00000004H .CRT$XLA                DATA
 0002:00000338 00000004H .CRT$XLZ                DATA
 0002:0000033c 00000004H .CRT$XPA                DATA
 0002:00000340 00000008H .CRT$XPX                DATA
 0002:00000348 00000004H .CRT$XPXA               DATA
 0002:0000034c 00000004H .CRT$XPZ                DATA
 0002:00000350 00000004H .CRT$XTA                DATA
 0002:00000354 0000000cH .CRT$XTZ                DATA
 0002:00000358 00000000H .gfids$y                DATA
 0002:00000360 00007228H .rdata                  DATA
 0002:00007588 00000018H .rdata$T                DATA
 0002:000075a0 00000178H .rdata$r                DATA
 0002:00007718 0000001cH .rdata$sxdata           DATA
 0002:00007734 000003e0H .rdata$zzzdbg           DATA
 0002:00007b14 00000004H .rtc$IAA                DATA
 0002:00007b18 00000004H .rtc$IZZ                DATA
 0002:00007b1c 00000004H .rtc$TAA                DATA
 0002:00007b20 00000004H .rtc$TZZ                DATA
 0002:00007b24 00000004H .tls                    DATA
 0002:00007b28 00000004H .tls$                   DATA
 0002:00007b2c 00000004H .tls$ZZZ                DATA
 0002:00007b30 0000062cH .xdata$x                DATA
 0002:0000815c 00000004H ATL$__a                 DATA
 0002:00008160 00000010H ATL$__z                 DATA
 0002:00008170 000000b0H .edata                  DATA
 0002:00008220 00000078H .idata$2                DATA
 0002:00008298 00000014H .idata$3                DATA
 0002:000082ac 000002fcH .idata$4                DATA
 0002:000085a8 00000bceH .idata$6                DATA
 0003:00000000 00000ad0H .data                   DATA
 0003:00000ad0 00000098H .data$r                 DATA
 0003:00000b68 00000b80H .bss                    DATA
 0004:00000000 00000220H .rsrc$01                DATA
 0004:00000220 00003af8H .rsrc$02                DATA

  Address         Publics by Value              Rva+Base       Lib:Object

 0000:00000000       ___arm64x_redirection_metadata 00000000     <absolute>
 0000:00000000       ___x64_code_ranges_to_entry_points 00000000     <absolute>
 0000:00000000       ___guard_iat_count         00000000     <absolute>
 0000:00000000       ___guard_fids_count        00000000     <absolute>
 0000:00000000       ___guard_longjmp_table     00000000     <absolute>
 0000:00000000       ___hybrid_code_map_count   00000000     <absolute>
 0000:00000000       ___dynamic_value_reloc_table 00000000     <absolute>
 0000:00000000       ___guard_longjmp_count     00000000     <absolute>
 0000:00000000       __except_list              00000000     <absolute>
 0000:00000000       ___arm64x_native_entrypoint 00000000     <absolute>
 0000:00000000       ___guard_fids_table        00000000     <absolute>
 0000:00000000       ___guard_eh_cont_count     00000000     <absolute>
 0000:00000000       ___hybrid_auxiliary_iat    00000000     <absolute>
 0000:00000000       ___guard_iat_table         00000000     <absolute>
 0000:00000000       ___volatile_metadata       00000000     <absolute>
 0000:00000000       ___enclave_config          00000000     <absolute>
 0000:00000000       ___AbsoluteZero            00000000     <absolute>
 0000:00000000       ___guard_eh_cont_table     00000000     <absolute>
 0000:00000000       ___hybrid_code_map         00000000     <absolute>
 0000:00000007       ___safe_se_handler_count   00000007     <absolute>
 0000:0000002c       __tls_array                0000002c     <absolute>
 0000:00000100       ___guard_flags             00000100     <absolute>
 0000:00000000       ___ImageBase               10000000     <linker-defined>
 0001:00000080       ?DupWide@_CW@@AAEXXZ       10001080 f   CWString.obj
 0001:0000009c       ?cw_dup@@YGXPBDAAHAAPA_W1@Z 1000109c f   CWString.obj
 0001:00000124       ?cw_memcpy@@YGHPA_WPBDH@Z  10001124 f   CWString.obj
 0001:00000150       ?cw_strcpy@@YAHPA_WPBD@Z   10001150 f   CWString.obj
 0001:00000163       ?cw_strlen@@YAHPBD@Z       10001163 f   CWString.obj
 0001:0000017c       ??0CAtlComModule@ATL@@QAE@XZ 1000117c f i OposVariant.obj
 0001:000001c1       ??0CAtlWinModule@ATL@@QAE@XZ 100011c1 f i OposVariant.obj
 0001:000001f8       ??0OposDispParms@@QAE@PAVOposVariant@@H@Z 100011f8 f   OposVariant.obj
 0001:00000269       ??1OposDispParms@@QAE@XZ   10001269 f   OposVariant.obj
 0001:00000277       ??A?$CSimpleArray@GV?$CSimpleArrayEqualHelper@G@ATL@@@ATL@@QAEAAGH@Z 10001277 f i OposVariant.obj
 0001:0000029c       ??_Estringdispid@CComTypeInfoHolder@ATL@@QAEPAXI@Z 1000129c f i OposVariant.obj
 0001:00000308       ?AtlWinModuleInit@ATL@@YGJPAU_ATL_WIN_MODULE70@1@@Z 10001308 f i OposVariant.obj
 0001:0000032e       ?AtlWinModuleTerm@ATL@@YGJPAU_ATL_WIN_MODULE70@1@PAUHINSTANCE__@@@Z 1000132e f i OposVariant.obj
 0001:00000391       ?ChangeBSTR@OposVariant@@QAEXPAPA_WAAJ@Z 10001391 f   OposVariant.obj
 0001:000003d2       ?ChangeLONG@OposVariant@@QAEXPAJAAJ@Z 100013d2 f   OposVariant.obj
 0001:00000413       ?GetLONG@OposVariant@@QAEJXZ 10001413 f   OposVariant.obj
 0001:0000042e       ?Init@CComCriticalSection@ATL@@QAEJXZ 1000142e f i OposVariant.obj
 0001:00000456       ?RemoveAll@?$CSimpleArray@GV?$CSimpleArrayEqualHelper@G@ATL@@@ATL@@QAEXXZ 10001456 f i OposVariant.obj
 0001:00000456       ?RemoveAll@?$CSimpleArray@PAUHINSTANCE__@@V?$CSimpleArrayEqualHelper@PAUHINSTANCE__@@@ATL@@@ATL@@QAEXXZ 10001456 f i atls:atlbase.obj
 0001:00000473       ?SetBSTR@OposVariant@@QAEXPA_WAAJ@Z 10001473 f   OposVariant.obj
 0001:000004a7       ?SetBSTR_Copy@OposVariant@@QAEXPA_WAAJ@Z 100014a7 f   OposVariant.obj
 0001:000004f7       ?SetBSTR_InOutPtr@OposVariant@@QAE_NPAPA_WAAJ@Z 100014f7 f   OposVariant.obj
 0001:0000052e       ?SetBSTR_OutPtr@OposVariant@@QAE_NPAPA_WAAJ@Z 1000152e f   OposVariant.obj
 0001:0000054a       ?SetDispatch_Ptr@OposVariant@@QAEXPAUIDispatch@@AAJ@Z 1000154a f   OposVariant.obj
 0001:00000585       ?SetLONG@OposVariant@@QAEXJ@Z 10001585 f   OposVariant.obj
 0001:000005a7       ?SetLONG_Ptr@OposVariant@@QAEXPAJAAJ@Z 100015a7 f   OposVariant.obj
 0001:000005da       ?SetString@OposVariant@@QAEXPB_WAAJ@Z 100015da f   OposVariant.obj
 0001:00000620       ?SetVARIANT_BOOL@OposVariant@@QAEXF@Z 10001620 f   OposVariant.obj
 0001:0000064a       ?SetVARIANT_BOOL_Ptr@OposVariant@@QAEXPAFAAJ@Z 1000164a f   OposVariant.obj
 0001:0000067d       ?Term@CAtlComModule@ATL@@QAEXXZ 1000167d f i OposVariant.obj
 0001:000006c7       ?_AtlRaiseException@ATL@@YAXKK@Z 100016c7 f i OposVariant.obj
 0001:000006dc       ?CreateInstance@CComClassFactory@ATL@@UAGJPAUIUnknown@@ABU_GUID@@PAPAX@Z 100016dc f i CoinDispenser.obj
 0001:0000071a       ?LockServer@CComClassFactory@ATL@@UAGJH@Z 1000171a f i CoinDispenser.obj
 0001:00000739       ??_GCComClassFactory@ATL@@UAEPAXI@Z 10001739 f i CoinDispenser.obj
 0001:00000739       ??_ECComClassFactory@ATL@@UAEPAXI@Z 10001739 f i CoinDispenser.obj
 0001:00000764       ?GetWindowProc@?$CWindowImplBaseT@VCWindow@ATL@@V?$CWinTraits@$0FGAAAAAA@$0A@@2@@ATL@@UAEP6GJPAUHWND__@@IIJ@ZXZ 10001764 f i CoinDispenser.obj
 0001:0000076a       ?StartWindowProc@?$CWindowImplBaseT@VCWindow@ATL@@V?$CWinTraits@$0FGAAAAAA@$0A@@2@@ATL@@SGJPAUHWND__@@IIJ@Z 1000176a f i CoinDispenser.obj
 0001:000007be       ?ObjectMain@CComObjectRootBase@ATL@@SGX_N@Z 100017be f i CoinDispenser.obj
 0001:000007be       ?OnFinalMessage@?$CWindowImplBaseT@VCWindow@ATL@@V?$CWinTraits@$0FGAAAAAA@$0A@@2@@ATL@@UAEXPAUHWND__@@@Z 100017be f i CoinDispenser.obj
 0001:000007c1       ?GetTypeInfoCount@?$IDispatchImpl@UIOPOSCoinDispenser@@$1?IID_IOPOSCoinDispenser@@3U_GUID@@B$1?LIBID_OposCoinDispenser_CCO@@3U3@B$00$0A@VCComTypeInfoHolder@ATL@@@ATL@@UAGJPAI@Z 100017c1 f i CoinDispenser.obj
 0001:000007de       ?GetTypeInfo@?$IDispatchImpl@UIOPOSCoinDispenser@@$1?IID_IOPOSCoinDispenser@@3U_GUID@@B$1?LIBID_OposCoinDispenser_CCO@@3U3@B$00$0A@VCComTypeInfoHolder@ATL@@@ATL@@UAGJIKPAPAUITypeInfo@@@Z 100017de f i CoinDispenser.obj
 0001:00000802       ?GetIDsOfNames@?$IDispatchImpl@UIOPOSCoinDispenser@@$1?IID_IOPOSCoinDispenser@@3U_GUID@@B$1?LIBID_OposCoinDispenser_CCO@@3U3@B$00$0A@VCComTypeInfoHolder@ATL@@@ATL@@UAGJABU_GUID@@PAPA_WIKPAJ@Z 10001802 f i CoinDispenser.obj
 0001:00000822       ?Invoke@?$IDispatchImpl@UIOPOSCoinDispenser@@$1?IID_IOPOSCoinDispenser@@3U_GUID@@B$1?LIBID_OposCoinDispenser_CCO@@3U3@B$00$0A@VCComTypeInfoHolder@ATL@@@ATL@@UAGJJABU_GUID@@KGPAUtagDISPPARAMS@@PAUtagVARIANT@@PAUtagEXCEPINFO@@PAI@Z 10001822 f i CoinDispenser.obj
 0001:00000830       ?CreateControlWindow@?$CComControl@VCOPOSCoinDispenser@@V?$CWindowImpl@VCOPOSCoinDispenser@@VCWindow@ATL@@V?$CWinTraits@$0FGAAAAAA@$0A@@3@@ATL@@@ATL@@UAEPAUHWND__@@PAU3@AAUtagRECT@@@Z 10001830 f i CoinDispenser.obj
 0001:0000085f       ?ControlQueryInterface@?$CComControl@VCOPOSCoinDispenser@@V?$CWindowImpl@VCOPOSCoinDispenser@@VCWindow@ATL@@V?$CWinTraits@$0FGAAAAAA@$0A@@3@@ATL@@@ATL@@UAEJABU_GUID@@PAPAX@Z 1000185f f i CoinDispenser.obj
 0001:0000087a       ?GetClassID@?$IPersistStreamInitImpl@VCOPOSCoinDispenser@@@ATL@@UAGJPAU_GUID@@@Z 1000187a f i CoinDispenser.obj
 0001:0000087a       ?GetClassID@?$IPersistStorageImpl@VCOPOSCoinDispenser@@@ATL@@UAGJPAU_GUID@@@Z 1000187a f i CoinDispenser.obj
 0001:0000087a       ?GetUserClassID@?$IOleObjectImpl@VCOPOSCoinDispenser@@@ATL@@UAGJPAU_GUID@@@Z 1000187a f i CoinDispenser.obj
 0001:0000089e       ?IsDirty@?$IPersistStreamInitImpl@VCOPOSCoinDispenser@@@ATL@@UAGJXZ 1000189e f i CoinDispenser.obj
 0001:000008bd       ?Load@?$IPersistStreamInitImpl@VCOPOSCoinDispenser@@@ATL@@UAGJPAUIStream@@@Z 100018bd f i CoinDispenser.obj
 0001:000008dc       ?Save@?$IPersistStreamInitImpl@VCOPOSCoinDispenser@@@ATL@@UAGJPAUIStream@@H@Z 100018dc f i CoinDispenser.obj
 0001:000008fe       ?GetSizeMax@?$IPersistStreamInitImpl@VCOPOSCoinDispenser@@@ATL@@UAGJPAT_ULARGE_INTEGER@@@Z 100018fe f i CoinDispenser.obj
 0001:00000add       ?InitNew@?$IPersistStreamInitImpl@VCOPOSCoinDispenser@@@ATL@@UAGJXZ 10001add f i CoinDispenser.obj
 0001:00000afa       ?ContextSensitiveHelp@?$IOleInPlaceActiveObjectImpl@VCOPOSCoinDispenser@@@ATL@@UAGJH@Z 10001afa f i CoinDispenser.obj
 0001:00000afa       ?SODataDummy@COPOSCoinDispenser@@MAGJJ@Z 10001afa f i CoinDispenser.obj
 0001:00000afa       ?Unfreeze@?$IViewObjectExImpl@VCOPOSCoinDispenser@@@ATL@@UAGJK@Z 10001afa f i CoinDispenser.obj
 0001:00000afa       ?GetControlInfo@?$IOleControlImpl@VCOPOSCoinDispenser@@@ATL@@UAGJPAUtagCONTROLINFO@@@Z 10001afa f i CoinDispenser.obj
 0001:00000afa       ?QueryGetData@?$IDataObjectImpl@VCOPOSCoinDispenser@@@ATL@@UAGJPAUtagFORMATETC@@@Z 10001afa f i CoinDispenser.obj
 0001:00000afa       ?SetColorScheme@?$IOleObjectImpl@VCOPOSCoinDispenser@@@ATL@@UAGJPAUtagLOGPALETTE@@@Z 10001afa f i CoinDispenser.obj
 0001:00000afa       ?SOOutputCompleteDummy@COPOSCoinDispenser@@MAGJJ@Z 10001afa f i CoinDispenser.obj
 0001:00000afa       ?OnMnemonic@?$IOleControlImpl@VCOPOSCoinDispenser@@@ATL@@UAGJPAUtagMSG@@@Z 10001afa f i CoinDispenser.obj
 0001:00000afa       ?GetDropTarget@?$IOleInPlaceObjectWindowlessImpl@VCOPOSCoinDispenser@@@ATL@@UAGJPAPAUIDropTarget@@@Z 10001afa f i CoinDispenser.obj
 0001:00000afa       ?ContextSensitiveHelp@?$IOleInPlaceObjectWindowlessImpl@VCOPOSCoinDispenser@@@ATL@@UAGJH@Z 10001afa f i CoinDispenser.obj
 0001:00000b02       ?OnAmbientPropertyChange@?$IOleControlImpl@VCOPOSCoinDispenser@@@ATL@@UAGJJ@Z 10001b02 f i CoinDispenser.obj
 0001:00000b02       ?EnableModeless@?$IOleInPlaceActiveObjectImpl@VCOPOSCoinDispenser@@@ATL@@UAGJH@Z 10001b02 f i CoinDispenser.obj
 0001:00000b02       ?OnFrameWindowActivate@?$IOleInPlaceActiveObjectImpl@VCOPOSCoinDispenser@@@ATL@@UAGJH@Z 10001b02 f i CoinDispenser.obj
 0001:00000b02       ?SaveCompleted@?$IPersistStorageImpl@VCOPOSCoinDispenser@@@ATL@@UAGJPAUIStorage@@@Z 10001b02 f i CoinDispenser.obj
 0001:00000b07       ?SetClientSite@?$IOleObjectImpl@VCOPOSCoinDispenser@@@ATL@@UAGJPAUIOleClientSite@@@Z 10001b07 f i CoinDispenser.obj
 0001:00000b24       ?GetClientSite@?$IOleObjectImpl@VCOPOSCoinDispenser@@@ATL@@UAGJPAPAUIOleClientSite@@@Z 10001b24 f i CoinDispenser.obj
 0001:00000b41       ?SetHostNames@?$IOleObjectImpl@VCOPOSCoinDispenser@@@ATL@@UAGJPB_W0@Z 10001b41 f i CoinDispenser.obj
 0001:00000b46       ?Close@?$IOleObjectImpl@VCOPOSCoinDispenser@@@ATL@@UAGJK@Z 10001b46 f i CoinDispenser.obj
 0001:00000b63       ?GetDataHere@?$IDataObjectImpl@VCOPOSCoinDispenser@@@ATL@@UAGJPAUtagFORMATETC@@PAUtagSTGMEDIUM@@@Z 10001b63 f i CoinDispenser.obj
 0001:00000b63       ?GetCanonicalFormatEtc@?$IDataObjectImpl@VCOPOSCoinDispenser@@@ATL@@UAGJPAUtagFORMATETC@@0@Z 10001b63 f i CoinDispenser.obj
 0001:00000b63       ?SetMoniker@?$IOleObjectImpl@VCOPOSCoinDispenser@@@ATL@@UAGJKPAUIMoniker@@@Z 10001b63 f i CoinDispenser.obj
 0001:00000b63       ?GetRect@?$IViewObjectExImpl@VCOPOSCoinDispenser@@@ATL@@UAGJKPAU_RECTL@@@Z 10001b63 f i CoinDispenser.obj
 0001:00000b63       ?EnumFormatEtc@?$IDataObjectImpl@VCOPOSCoinDispenser@@@ATL@@UAGJKPAPAUIEnumFORMATETC@@@Z 10001b63 f i CoinDispenser.obj
 0001:00000b63       ?GetClipboardData@?$IOleObjectImpl@VCOPOSCoinDispenser@@@ATL@@UAGJKPAPAUIDataObject@@@Z 10001b63 f i CoinDispenser.obj
 0001:00000b63       ?QueryInterface@CRegObject@ATL@@UAGJABU_GUID@@PAPAX@Z 10001b63 f i CoinDispenser.obj
 0001:00000b6b       ?InitFromData@?$IOleObjectImpl@VCOPOSCoinDispenser@@@ATL@@UAGJPAUIDataObject@@HK@Z 10001b6b f i CoinDispenser.obj
 0001:00000b6b       ?GetMoniker@?$IOleObjectImpl@VCOPOSCoinDispenser@@@ATL@@UAGJKKPAPAUIMoniker@@@Z 10001b6b f i CoinDispenser.obj
 0001:00000b6b       ?SetData@?$IDataObjectImpl@VCOPOSCoinDispenser@@@ATL@@UAGJPAUtagFORMATETC@@PAUtagSTGMEDIUM@@H@Z 10001b6b f i CoinDispenser.obj
 0001:00000b73       ?DoVerb@?$IOleObjectImpl@VCOPOSCoinDispenser@@@ATL@@UAGJJPAUtagMSG@@PAUIOleClientSite@@JPAUHWND__@@PBUtagRECT@@@Z 10001b73 f i CoinDispenser.obj
 0001:00000c67       ?EnumVerbs@?$IOleObjectImpl@VCOPOSCoinDispenser@@@ATL@@UAGJPAPAUIEnumOLEVERB@@@Z 10001c67 f i CoinDispenser.obj
 0001:00000c89       ?Release@CRegObject@ATL@@UAGKXZ 10001c89 f i CoinDispenser.obj
 0001:00000c89       ?HandsOffStorage@?$IPersistStorageImpl@VCOPOSCoinDispenser@@@ATL@@UAGJXZ 10001c89 f i CoinDispenser.obj
 0001:00000c89       ?Update@?$IOleObjectImpl@VCOPOSCoinDispenser@@@ATL@@UAGJXZ 10001c89 f i CoinDispenser.obj
 0001:00000c89       ?IsUpToDate@?$IOleObjectImpl@VCOPOSCoinDispenser@@@ATL@@UAGJXZ 10001c89 f i CoinDispenser.obj
 0001:00000c8e       ?GetUserType@?$IOleObjectImpl@VCOPOSCoinDispenser@@@ATL@@UAGJKPAPA_W@Z 10001c8e f i CoinDispenser.obj
 0001:00000ca6       ?SetExtent@?$IOleObjectImpl@VCOPOSCoinDispenser@@@ATL@@UAGJKPAUtagSIZE@@@Z 10001ca6 f i CoinDispenser.obj
 0001:00000cc6       ?GetExtent@?$IOleObjectImpl@VCOPOSCoinDispenser@@@ATL@@UAGJKPAUtagSIZE@@@Z 10001cc6 f i CoinDispenser.obj
 0001:00000d04       ?Advise@?$IOleObjectImpl@VCOPOSCoinDispenser@@@ATL@@UAGJPAUIAdviseSink@@PAK@Z 10001d04 f i CoinDispenser.obj
 0001:00000d24       ?Unadvise@?$IOleObjectImpl@VCOPOSCoinDispenser@@@ATL@@UAGJK@Z 10001d24 f i CoinDispenser.obj
 0001:00000d53       ?EnumAdvise@?$IOleObjectImpl@VCOPOSCoinDispenser@@@ATL@@UAGJPAPAUIEnumSTATDATA@@@Z 10001d53 f i CoinDispenser.obj
 0001:00000d93       ?GetMiscStatus@?$IOleObjectImpl@VCOPOSCoinDispenser@@@ATL@@UAGJKPAK@Z 10001d93 f i CoinDispenser.obj
 0001:00000dab       ?GetWindow@?$IOleInPlaceActiveObjectImpl@VCOPOSCoinDispenser@@@ATL@@UAGJPAPAUHWND__@@@Z 10001dab f i CoinDispenser.obj
 0001:00000df8       ?TranslateAcceleratorW@?$IOleInPlaceActiveObjectImpl@VCOPOSCoinDispenser@@@ATL@@UAGJPAUtagMSG@@@Z 10001df8 f i CoinDispenser.obj
 0001:00000ea6       ?OnDocWindowActivate@?$IOleInPlaceActiveObjectImpl@VCOPOSCoinDispenser@@@ATL@@UAGJH@Z 10001ea6 f i CoinDispenser.obj
 0001:00000ec8       ?ResizeBorder@?$IOleInPlaceActiveObjectImpl@VCOPOSCoinDispenser@@@ATL@@UAGJPBUtagRECT@@PAUIOleInPlaceUIWindow@@H@Z 10001ec8 f i CoinDispenser.obj
 0001:00000ecd       ?Draw@?$IViewObjectExImpl@VCOPOSCoinDispenser@@@ATL@@UAGJKJPAXPAUtagDVTARGETDEVICE@@PAUHDC__@@2PBU_RECTL@@3P6GHK@ZK@Z 10001ecd f i CoinDispenser.obj
 0001:00000eff       ?GetColorSet@?$IViewObjectExImpl@VCOPOSCoinDispenser@@@ATL@@UAGJKJPAXPAUtagDVTARGETDEVICE@@PAUHDC__@@PAPAUtagLOGPALETTE@@@Z 10001eff f i CoinDispenser.obj
 0001:00000f07       ?Freeze@?$IViewObjectExImpl@VCOPOSCoinDispenser@@@ATL@@UAGJKJPAXPAK@Z 10001f07 f i CoinDispenser.obj
 0001:00000f07       ?SOErrorDummy@COPOSCoinDispenser@@MAGJJJJPAJ@Z 10001f07 f i CoinDispenser.obj
 0001:00000f0f       ?SetAdvise@?$IViewObjectExImpl@VCOPOSCoinDispenser@@@ATL@@UAGJKKPAUIAdviseSink@@@Z 10001f0f f i CoinDispenser.obj
 0001:00000f2e       ?GetAdvise@?$IViewObjectExImpl@VCOPOSCoinDispenser@@@ATL@@UAGJPAK0PAPAUIAdviseSink@@@Z 10001f2e f i CoinDispenser.obj
 0001:00000f63       ?GetExtent@?$IViewObjectExImpl@VCOPOSCoinDispenser@@@ATL@@UAGJKJPAUtagDVTARGETDEVICE@@PAUtagSIZE@@@Z 10001f63 f i CoinDispenser.obj
 0001:00000f94       ?GetViewStatus@?$IViewObjectExImpl@VCOPOSCoinDispenser@@@ATL@@UAGJPAK@Z 10001f94 f i CoinDispenser.obj
 0001:00000fb1       ?QueryHitPoint@?$IViewObjectExImpl@VCOPOSCoinDispenser@@@ATL@@UAGJKPBUtagRECT@@UtagPOINT@@JPAK@Z 10001fb1 f i CoinDispenser.obj
 0001:00000ff2       ?QueryHitRect@?$IViewObjectExImpl@VCOPOSCoinDispenser@@@ATL@@UAGJKPBUtagRECT@@0JPAK@Z 10001ff2 f i CoinDispenser.obj
 0001:0000104d       ?GetNaturalExtent@?$IViewObjectExImpl@VCOPOSCoinDispenser@@@ATL@@UAGJKJPAUtagDVTARGETDEVICE@@PAUHDC__@@PAUtagExtentInfo@@PAUtagSIZE@@@Z 1000204d f i CoinDispenser.obj
 0001:00001098       ?GetWindow@?$IOleInPlaceObjectWindowlessImpl@VCOPOSCoinDispenser@@@ATL@@UAGJPAPAUHWND__@@@Z 10002098 f i CoinDispenser.obj
 0001:000010e5       ?InPlaceDeactivate@?$IOleInPlaceObjectWindowlessImpl@VCOPOSCoinDispenser@@@ATL@@UAGJXZ 100020e5 f i CoinDispenser.obj
 0001:000010ff       ?UIDeactivate@?$IOleInPlaceObjectWindowlessImpl@VCOPOSCoinDispenser@@@ATL@@UAGJXZ 100020ff f i CoinDispenser.obj
 0001:00001119       ?SetObjectRects@?$IOleInPlaceObjectWindowlessImpl@VCOPOSCoinDispenser@@@ATL@@UAGJPBUtagRECT@@0@Z 10002119 f i CoinDispenser.obj
 0001:00001139       ?ReactivateAndUndo@?$IOleInPlaceObjectWindowlessImpl@VCOPOSCoinDispenser@@@ATL@@UAGJXZ 10002139 f i CoinDispenser.obj
 0001:00001141       ?OnWindowMessage@?$IOleInPlaceObjectWindowlessImpl@VCOPOSCoinDispenser@@@ATL@@UAGJIIJPAJ@Z 10002141 f i CoinDispenser.obj
 0001:000011b1       ?EnumConnectionPoints@?$IConnectionPointContainerImpl@VCOPOSCoinDispenser@@@ATL@@UAGJPAPAUIEnumConnectionPoints@@@Z 100021b1 f i CoinDispenser.obj
 0001:0000133d       ?FindConnectionPoint@?$IConnectionPointContainerImpl@VCOPOSCoinDispenser@@@ATL@@UAGJABU_GUID@@PAPAUIConnectionPoint@@@Z 1000233d f i CoinDispenser.obj
 0001:000013e0       ?IsDirty@?$IPersistStorageImpl@VCOPOSCoinDispenser@@@ATL@@UAGJXZ 100023e0 f i CoinDispenser.obj
 0001:00001410       ?InitNew@?$IPersistStorageImpl@VCOPOSCoinDispenser@@@ATL@@UAGJPAUIStorage@@@Z 10002410 f i CoinDispenser.obj
 0001:00001440       ?Load@?$IPersistStorageImpl@VCOPOSCoinDispenser@@@ATL@@UAGJPAUIStorage@@@Z 10002440 f i CoinDispenser.obj
 0001:000014ac       ?Save@?$IPersistStorageImpl@VCOPOSCoinDispenser@@@ATL@@UAGJPAUIStorage@@H@Z 100024ac f i CoinDispenser.obj
 0001:0000151f       ?GetPages@?$ISpecifyPropertyPagesImpl@VCOPOSCoinDispenser@@@ATL@@UAGJPAUtagCAUUID@@@Z 1000251f f i CoinDispenser.obj
 0001:00001536       ?QuickActivate@?$IQuickActivateImpl@VCOPOSCoinDispenser@@@ATL@@UAGJPAUtagQACONTAINER@@PAUtagQACONTROL@@@Z 10002536 f i CoinDispenser.obj
 0001:00001559       ?SetContentExtent@?$IQuickActivateImpl@VCOPOSCoinDispenser@@@ATL@@UAGJPAUtagSIZE@@@Z 10002559 f i CoinDispenser.obj
 0001:00001585       ?GetContentExtent@?$IQuickActivateImpl@VCOPOSCoinDispenser@@@ATL@@UAGJPAUtagSIZE@@@Z 10002585 f i CoinDispenser.obj
 0001:000015bf       ?GetData@?$IDataObjectImpl@VCOPOSCoinDispenser@@@ATL@@UAGJPAUtagFORMATETC@@PAUtagSTGMEDIUM@@@Z 100025bf f i CoinDispenser.obj
 0001:000015e2       ?DAdvise@?$IDataObjectImpl@VCOPOSCoinDispenser@@@ATL@@UAGJPAUtagFORMATETC@@KPAUIAdviseSink@@PAK@Z 100025e2 f i CoinDispenser.obj
 0001:00001623       ?DUnadvise@?$IDataObjectImpl@VCOPOSCoinDispenser@@@ATL@@UAGJK@Z 10002623 f i CoinDispenser.obj
 0001:00001651       ?EnumDAdvise@?$IDataObjectImpl@VCOPOSCoinDispenser@@@ATL@@UAGJPAPAUIEnumSTATDATA@@@Z 10002651 f i CoinDispenser.obj
 0001:00001690       ?GetClassInfoW@?$IProvideClassInfo2Impl@$1?CLSID_OPOSCoinDispenser@@3U_GUID@@B$1?DIID__IOPOSCoinDispenserEvents@@3U2@B$1?LIBID_OposCoinDispenser_CCO@@3U2@B$00$0A@VCComTypeInfoHolder@ATL@@@ATL@@UAGJPAPAUITypeInfo@@@Z 10002690 f i CoinDispenser.obj
 0001:000016a6       ?GetGUID@?$IProvideClassInfo2Impl@$1?CLSID_OPOSCoinDispenser@@3U_GUID@@B$1?DIID__IOPOSCoinDispenserEvents@@3U2@B$1?LIBID_OposCoinDispenser_CCO@@3U2@B$00$0A@VCComTypeInfoHolder@ATL@@@ATL@@UAGJKPAU_GUID@@@Z 100026a6 f i CoinDispenser.obj
 0001:000016e4       __get_startup_argv_mode    100026e4 f i LIBCMT:argv_mode.obj
 0001:000016e4       ?FAccessAllowed@?$IObjectSafetyImpl@VCOPOSCoinDispenser@@$02@ATL@@MAEHXZ 100026e4 f i CoinDispenser.obj
 0001:000016e8       ?GetInterfaceSafetyOptions@?$IObjectSafetyImpl@VCOPOSCoinDispenser@@$02@ATL@@UAGJABU_GUID@@PAK1@Z 100026e8 f i CoinDispenser.obj
 0001:0000175c       ?SetInterfaceSafetyOptions@?$IObjectSafetyImpl@VCOPOSCoinDispenser@@$02@ATL@@UAGJABU_GUID@@KK@Z 1000275c f i CoinDispenser.obj
 0001:000017d6       ?_LocCPQueryInterface@?$IConnectionPointImpl@VCOPOSCoinDispenser@@$1?IID_IPropertyNotifySink@@3U_GUID@@BVCComDynamicUnkArray@ATL@@@ATL@@UAGJABU_GUID@@PAPAX@Z 100027d6 f i CoinDispenser.obj
 0001:000017d6       ?_LocCPQueryInterface@?$IConnectionPointImpl@VCOPOSCoinDispenser@@$1?DIID__IOPOSCoinDispenserEvents@@3U_GUID@@BVCComDynamicUnkArray@ATL@@@ATL@@UAGJABU_GUID@@PAPAX@Z 100027d6 f i CoinDispenser.obj
 0001:00001823       ?GetConnectionInterface@?$IConnectionPointImpl@VCOPOSCoinDispenser@@$1?IID_IPropertyNotifySink@@3U_GUID@@BVCComDynamicUnkArray@ATL@@@ATL@@UAGJPAU_GUID@@@Z 10002823 f i CoinDispenser.obj
 0001:00001847       ?GetConnectionPointContainer@?$IConnectionPointImpl@VCOPOSCoinDispenser@@$1?IID_IPropertyNotifySink@@3U_GUID@@BVCComDynamicUnkArray@ATL@@@ATL@@UAGJPAPAUIConnectionPointContainer@@@Z 10002847 f i CoinDispenser.obj
 0001:0000186a       ?Advise@?$IConnectionPointImpl@VCOPOSCoinDispenser@@$1?DIID__IOPOSCoinDispenserEvents@@3U_GUID@@BVCComDynamicUnkArray@ATL@@@ATL@@UAGJPAUIUnknown@@PAK@Z 1000286a f i CoinDispenser.obj
 0001:0000186a       ?Advise@?$IConnectionPointImpl@VCOPOSCoinDispenser@@$1?IID_IPropertyNotifySink@@3U_GUID@@BVCComDynamicUnkArray@ATL@@@ATL@@UAGJPAUIUnknown@@PAK@Z 1000286a f i CoinDispenser.obj
 0001:0000190a       ?Unadvise@?$IConnectionPointImpl@VCOPOSCoinDispenser@@$1?DIID__IOPOSCoinDispenserEvents@@3U_GUID@@BVCComDynamicUnkArray@ATL@@@ATL@@UAGJK@Z 1000290a f i CoinDispenser.obj
 0001:0000190a       ?Unadvise@?$IConnectionPointImpl@VCOPOSCoinDispenser@@$1?IID_IPropertyNotifySink@@3U_GUID@@BVCComDynamicUnkArray@ATL@@@ATL@@UAGJK@Z 1000290a f i CoinDispenser.obj
 0001:0000194a       ?EnumConnections@?$IConnectionPointImpl@VCOPOSCoinDispenser@@$1?IID_IPropertyNotifySink@@3U_GUID@@BVCComDynamicUnkArray@ATL@@@ATL@@UAGJPAPAUIEnumConnections@@@Z 1000294a f i CoinDispenser.obj
 0001:0000194a       ?EnumConnections@?$IConnectionPointImpl@VCOPOSCoinDispenser@@$1?DIID__IOPOSCoinDispenserEvents@@3U_GUID@@BVCComDynamicUnkArray@ATL@@@ATL@@UAGJPAPAUIEnumConnections@@@Z 1000294a f i CoinDispenser.obj
 0001:00001a45       ?GetObjectDescription@?$CComCoClass@VCOPOSCoinDispenser@@$1?CLSID_OPOSCoinDispenser@@3U_GUID@@B@ATL@@SGPB_WXZ 10002a45 f i CoinDispenser.obj
 0001:00001a45       ?GetCategoryMap@CComObjectRootBase@ATL@@SAPBU_ATL_CATMAP_ENTRY@2@XZ 10002a45 f i CoinDispenser.obj
 0001:00001a48       ?GetConnectionInterface@?$IConnectionPointImpl@VCOPOSCoinDispenser@@$1?DIID__IOPOSCoinDispenserEvents@@3U_GUID@@BVCComDynamicUnkArray@ATL@@@ATL@@UAGJPAU_GUID@@@Z 10002a48 f i CoinDispenser.obj
 0001:00001a6c       ?GetConnectionPointContainer@?$IConnectionPointImpl@VCOPOSCoinDispenser@@$1?DIID__IOPOSCoinDispenserEvents@@3U_GUID@@BVCComDynamicUnkArray@ATL@@@ATL@@UAGJPAPAUIConnectionPointContainer@@@Z 10002a6c f i CoinDispenser.obj
 0001:00001a8f       ?UpdateRegistry@COPOSCoinDispenser@@SGJH@Z 10002a8f f i CoinDispenser.obj
 0001:00001aa7       ?ProcessWindowMessage@COPOSCoinDispenser@@UAEHPAUHWND__@@IIJAAJK@Z 10002aa7 f i CoinDispenser.obj
 0001:00001af0       ?SODirectIO@COPOSCoinDispenser@@MAGJJPAJPAPA_W@Z 10002af0 f i CoinDispenser.obj
 0001:00001b39       ?SOStatusUpdate@COPOSCoinDispenser@@MAGJJ@Z 10002b39 f i CoinDispenser.obj
 0001:00001b72       ?Lock@CAtlModule@ATL@@UAEJXZ 10002b72 f i CoinDispenser.obj
 0001:00001b7c       ?Unlock@CAtlModule@ATL@@UAEJXZ 10002b7c f i CoinDispenser.obj
 0001:00001b86       ?GetLockCount@CAtlModule@ATL@@UAEJXZ 10002b86 f i CoinDispenser.obj
 0001:00001b8a       ?GetGITPtr@CAtlModule@ATL@@UAEJPAPAUIGlobalInterfaceTable@@@Z 10002b8a f i CoinDispenser.obj
 0001:00001bd6       ?AddCommonRGSReplacements@?$CAtlModuleT@VCComModule@ATL@@@ATL@@UAEJPAUIRegistrarBase@@@Z 10002bd6 f i CoinDispenser.obj
 0001:00001bf0       ?UpdateRegistryFromResourceD@CComModule@ATL@@UAGJIHPAU_ATL_REGMAP_ENTRY@2@@Z 10002bf0 f i CoinDispenser.obj
 0001:00001bf0       ?UpdateRegistryFromResourceD@CComModule@ATL@@UAGJPB_WHPAU_ATL_REGMAP_ENTRY@2@@Z 10002bf0 f i CoinDispenser.obj
 0001:00001bf8       ?UpdateRegistryFromResource@CComModule@ATL@@UAGJPB_WHPAU_ATL_REGMAP_ENTRY@2@@Z 10002bf8 f i CoinDispenser.obj
 0001:00001c01       ?UpdateRegistryFromResource@CComModule@ATL@@UAGJIHPAU_ATL_REGMAP_ENTRY@2@@Z 10002c01 f i CoinDispenser.obj
 0001:00001c0a       ?CreateInstance@?$CComCreator@V?$CComObjectCached@VCComClassFactory@ATL@@@ATL@@@ATL@@SGJPAXABU_GUID@@PAPAX@Z 10002c0a f i CoinDispenser.obj
 0001:00001caa       ?CreateInstance@?$CComCreator2@V?$CComCreator@V?$CComObject@VCOPOSCoinDispenser@@@ATL@@@ATL@@V?$CComCreator@V?$CComAggObject@VCOPOSCoinDispenser@@@ATL@@@2@@ATL@@SGJPAXABU_GUID@@PAPAX@Z 10002caa f i CoinDispenser.obj
 0001:00001cca       ??_ECComModule@ATL@@UAEPAXI@Z 10002cca f i CoinDispenser.obj
 0001:00001cca       ??_GCComModule@ATL@@UAEPAXI@Z 10002cca f i CoinDispenser.obj
 0001:00001cf2       ?AddRef@?$CComObjectCached@VCComClassFactory@ATL@@@ATL@@UAGKXZ 10002cf2 f i CoinDispenser.obj
 0001:00001d19       ?Release@?$CComObjectCached@VCComClassFactory@ATL@@@ATL@@UAGKXZ 10002d19 f i CoinDispenser.obj
 0001:00001d4f       ?QueryInterface@?$CComObjectCached@VCComClassFactory@ATL@@@ATL@@UAGJABU_GUID@@PAPAX@Z 10002d4f f i CoinDispenser.obj
 0001:00001d69       ??_G?$CComObjectCached@VCComClassFactory@ATL@@@ATL@@UAEPAXI@Z 10002d69 f i CoinDispenser.obj
 0001:00001d69       ??_E?$CComObjectCached@VCComClassFactory@ATL@@@ATL@@UAEPAXI@Z 10002d69 f i CoinDispenser.obj
 0001:00001d8b       ?Next@?$CComEnumImpl@UIEnumConnectionPoints@@$1?_GUID_b196b285_bab4_101a_b69c_00aa00341d07@@3U__s_GUID@@BPAUIConnectionPoint@@V?$_CopyInterface@UIConnectionPoint@@@ATL@@@ATL@@UAGJKPAPAUIConnectionPoint@@PAK@Z 10002d8b f i CoinDispenser.obj
 0001:00001e62       ?Skip@?$CComEnumImpl@UIEnumConnectionPoints@@$1?_GUID_b196b285_bab4_101a_b69c_00aa00341d07@@3U__s_GUID@@BPAUIConnectionPoint@@V?$_CopyInterface@UIConnectionPoint@@@ATL@@@ATL@@UAGJK@Z 10002e62 f i CoinDispenser.obj
 0001:00001e8f       ?Reset@?$CComEnumImpl@UIEnumConnectionPoints@@$1?_GUID_b196b285_bab4_101a_b69c_00aa00341d07@@3U__s_GUID@@BPAUIConnectionPoint@@V?$_CopyInterface@UIConnectionPoint@@@ATL@@@ATL@@UAGJXZ 10002e8f f i CoinDispenser.obj
 0001:00001e8f       ?Reset@?$CComEnumImpl@UIEnumConnections@@$1?_GUID_b196b287_bab4_101a_b69c_00aa00341d07@@3U__s_GUID@@BUtagCONNECTDATA@@V?$_Copy@UtagCONNECTDATA@@@ATL@@@ATL@@UAGJXZ 10002e8f f i CoinDispenser.obj
 0001:00001ea1       ?Clone@?$CComEnumImpl@UIEnumConnectionPoints@@$1?_GUID_b196b285_bab4_101a_b69c_00aa00341d07@@3U__s_GUID@@BPAUIConnectionPoint@@V?$_CopyInterface@UIConnectionPoint@@@ATL@@@ATL@@UAGJPAPAUIEnumConnectionPoints@@@Z 10002ea1 f i CoinDispenser.obj
 0001:00001f82       ?AddRef@?$CComObject@V?$CComEnum@UIEnumConnectionPoints@@$1?_GUID_b196b285_bab4_101a_b69c_00aa00341d07@@3U__s_GUID@@BPAUIConnectionPoint@@V?$_CopyInterface@UIConnectionPoint@@@ATL@@VCComSingleThreadModel@6@@ATL@@@ATL@@UAGKXZ 10002f82 f i CoinDispenser.obj
 0001:00001f82       ?AddRef@?$CComObject@V?$CComEnum@UIEnumConnections@@$1?_GUID_b196b287_bab4_101a_b69c_00aa00341d07@@3U__s_GUID@@BUtagCONNECTDATA@@V?$_Copy@UtagCONNECTDATA@@@ATL@@VCComSingleThreadModel@6@@ATL@@@ATL@@UAGKXZ 10002f82 f i CoinDispenser.obj
 0001:00001f93       ?Release@?$CComObject@V?$CComEnum@UIEnumConnectionPoints@@$1?_GUID_b196b285_bab4_101a_b69c_00aa00341d07@@3U__s_GUID@@BPAUIConnectionPoint@@V?$_CopyInterface@UIConnectionPoint@@@ATL@@VCComSingleThreadModel@6@@ATL@@@ATL@@UAGKXZ 10002f93 f i CoinDispenser.obj
 0001:00001f93       ?Release@?$CComObject@V?$CComEnum@UIEnumConnections@@$1?_GUID_b196b287_bab4_101a_b69c_00aa00341d07@@3U__s_GUID@@BUtagCONNECTDATA@@V?$_Copy@UtagCONNECTDATA@@@ATL@@VCComSingleThreadModel@6@@ATL@@@ATL@@UAGKXZ 10002f93 f i CoinDispenser.obj
 0001:00001fcf       ?QueryInterface@?$CComObject@V?$CComEnum@UIEnumConnectionPoints@@$1?_GUID_b196b285_bab4_101a_b69c_00aa00341d07@@3U__s_GUID@@BPAUIConnectionPoint@@V?$_CopyInterface@UIConnectionPoint@@@ATL@@VCComSingleThreadModel@6@@ATL@@@ATL@@UAGJABU_GUID@@PAPAX@Z 10002fcf f i CoinDispenser.obj
 0001:00001fe9       ??_E?$CComObject@V?$CComEnum@UIEnumConnectionPoints@@$1?_GUID_b196b285_bab4_101a_b69c_00aa00341d07@@3U__s_GUID@@BPAUIConnectionPoint@@V?$_CopyInterface@UIConnectionPoint@@@ATL@@VCComSingleThreadModel@6@@ATL@@@ATL@@UAEPAXI@Z 10002fe9 f i CoinDispenser.obj
 0001:00001fe9       ??_G?$CComObject@V?$CComEnum@UIEnumConnectionPoints@@$1?_GUID_b196b285_bab4_101a_b69c_00aa00341d07@@3U__s_GUID@@BPAUIConnectionPoint@@V?$_CopyInterface@UIConnectionPoint@@@ATL@@VCComSingleThreadModel@6@@ATL@@@ATL@@UAEPAXI@Z 10002fe9 f i CoinDispenser.obj
 0001:0000200b       ?AddRef@CRegObject@ATL@@UAGKXZ 1000300b f i CoinDispenser.obj
 0001:00002011       ?AddReplacement@CRegObject@ATL@@UAGJPB_W0@Z 10003011 f i CoinDispenser.obj
 0001:0000204a       ?ClearReplacements@CRegObject@ATL@@UAGJXZ 1000304a f i CoinDispenser.obj
 0001:0000205c       ??_ECRegObject@ATL@@UAEPAXI@Z 1000305c f i CoinDispenser.obj
 0001:0000205c       ??_GCRegObject@ATL@@UAEPAXI@Z 1000305c f i CoinDispenser.obj
 0001:0000207e       ?AddRef@?$CComAggObject@VCOPOSCoinDispenser@@@ATL@@UAGKXZ 1000307e f i CoinDispenser.obj
 0001:0000208f       ?Release@?$CComAggObject@VCOPOSCoinDispenser@@@ATL@@UAGKXZ 1000308f f i CoinDispenser.obj
 0001:000020cb       ?QueryInterface@?$CComAggObject@VCOPOSCoinDispenser@@@ATL@@UAGJABU_GUID@@PAPAX@Z 100030cb f i CoinDispenser.obj
 0001:0000211a       ?AddRef@?$CComContainedObject@VCOPOSCoinDispenser@@@ATL@@UAGKXZ 1000311a f i CoinDispenser.obj
 0001:00002130       ?Release@?$CComContainedObject@VCOPOSCoinDispenser@@@ATL@@UAGKXZ 10003130 f i CoinDispenser.obj
 0001:00002146       ?QueryInterface@?$CComContainedObject@VCOPOSCoinDispenser@@@ATL@@UAGJABU_GUID@@PAPAX@Z 10003146 f i CoinDispenser.obj
 0001:00002161       ??_E?$CComAggObject@VCOPOSCoinDispenser@@@ATL@@UAEPAXI@Z 10003161 f i CoinDispenser.obj
 0001:00002161       ??_G?$CComAggObject@VCOPOSCoinDispenser@@@ATL@@UAEPAXI@Z 10003161 f i CoinDispenser.obj
 0001:00002186       ?AddRef@?$CComObject@VCOPOSCoinDispenser@@@ATL@@UAGKXZ 10003186 f i CoinDispenser.obj
 0001:0000219d       ?Release@?$CComObject@VCOPOSCoinDispenser@@@ATL@@UAGKXZ 1000319d f i CoinDispenser.obj
 0001:000021df       ?QueryInterface@?$CComObject@VCOPOSCoinDispenser@@@ATL@@UAGJABU_GUID@@PAPAX@Z 100031df f i CoinDispenser.obj
 0001:000021f9       ?OnDrawAdvanced@CComControlBase@ATL@@UAEJAAUATL_DRAWINFO@@@Z 100031f9 f i CoinDispenser.obj
 0001:000022ec       ?Next@?$CComEnumImpl@UIEnumConnections@@$1?_GUID_b196b287_bab4_101a_b69c_00aa00341d07@@3U__s_GUID@@BUtagCONNECTDATA@@V?$_Copy@UtagCONNECTDATA@@@ATL@@@ATL@@UAGJKPAUtagCONNECTDATA@@PAK@Z 100032ec f i CoinDispenser.obj
 0001:000023c3       ?Skip@?$CComEnumImpl@UIEnumConnections@@$1?_GUID_b196b287_bab4_101a_b69c_00aa00341d07@@3U__s_GUID@@BUtagCONNECTDATA@@V?$_Copy@UtagCONNECTDATA@@@ATL@@@ATL@@UAGJK@Z 100033c3 f i CoinDispenser.obj
 0001:000023f0       ?Clone@?$CComEnumImpl@UIEnumConnections@@$1?_GUID_b196b287_bab4_101a_b69c_00aa00341d07@@3U__s_GUID@@BUtagCONNECTDATA@@V?$_Copy@UtagCONNECTDATA@@@ATL@@@ATL@@UAGJPAPAUIEnumConnections@@@Z 100033f0 f i CoinDispenser.obj
 0001:000024d1       ?QueryInterface@?$CComObject@V?$CComEnum@UIEnumConnections@@$1?_GUID_b196b287_bab4_101a_b69c_00aa00341d07@@3U__s_GUID@@BUtagCONNECTDATA@@V?$_Copy@UtagCONNECTDATA@@@ATL@@VCComSingleThreadModel@6@@ATL@@@ATL@@UAGJABU_GUID@@PAPAX@Z 100034d1 f i CoinDispenser.obj
 0001:000024eb       ??_E?$CComObject@V?$CComEnum@UIEnumConnections@@$1?_GUID_b196b287_bab4_101a_b69c_00aa00341d07@@3U__s_GUID@@BUtagCONNECTDATA@@V?$_Copy@UtagCONNECTDATA@@@ATL@@VCComSingleThreadModel@6@@ATL@@@ATL@@UAEPAXI@Z 100034eb f i CoinDispenser.obj
 0001:000024eb       ??_G?$CComObject@V?$CComEnum@UIEnumConnections@@$1?_GUID_b196b287_bab4_101a_b69c_00aa00341d07@@3U__s_GUID@@BUtagCONNECTDATA@@V?$_Copy@UtagCONNECTDATA@@@ATL@@VCComSingleThreadModel@6@@ATL@@@ATL@@UAEPAXI@Z 100034eb f i CoinDispenser.obj
 0001:0000250d       ??_E?$CComObject@VCOPOSCoinDispenser@@@ATL@@W3AEPAXI@Z 1000350d f i CoinDispenser.obj
 0001:00002515       ??_E?$CComObject@VCOPOSCoinDispenser@@@ATL@@WEM@AEPAXI@Z 10003515 f i CoinDispenser.obj
 0001:0000251d       ?QueryInterface@?$CComObject@VCOPOSCoinDispenser@@@ATL@@WHA@AGJABU_GUID@@PAPAX@Z 1000351d f i CoinDispenser.obj
 0001:00002527       ?AddRef@?$CComObject@VCOPOSCoinDispenser@@@ATL@@WHA@AGKXZ 10003527 f i CoinDispenser.obj
 0001:00002531       ?Release@?$CComObject@VCOPOSCoinDispenser@@@ATL@@WHA@AGKXZ 10003531 f i CoinDispenser.obj
 0001:0000253b       ?QueryInterface@?$CComObject@VCOPOSCoinDispenser@@@ATL@@WHE@AGJABU_GUID@@PAPAX@Z 1000353b f i CoinDispenser.obj
 0001:00002545       ?AddRef@?$CComObject@VCOPOSCoinDispenser@@@ATL@@WHE@AGKXZ 10003545 f i CoinDispenser.obj
 0001:0000254f       ?Release@?$CComObject@VCOPOSCoinDispenser@@@ATL@@WHE@AGKXZ 1000354f f i CoinDispenser.obj
 0001:00002559       ?QueryInterface@?$CComObject@VCOPOSCoinDispenser@@@ATL@@WHI@AGJABU_GUID@@PAPAX@Z 10003559 f i CoinDispenser.obj
 0001:00002563       ?AddRef@?$CComObject@VCOPOSCoinDispenser@@@ATL@@WHI@AGKXZ 10003563 f i CoinDispenser.obj
 0001:0000256d       ?Release@?$CComObject@VCOPOSCoinDispenser@@@ATL@@WHI@AGKXZ 1000356d f i CoinDispenser.obj
 0001:00002577       ?QueryInterface@?$CComObject@VCOPOSCoinDispenser@@@ATL@@WHM@AGJABU_GUID@@PAPAX@Z 10003577 f i CoinDispenser.obj
 0001:00002581       ?AddRef@?$CComObject@VCOPOSCoinDispenser@@@ATL@@WHM@AGKXZ 10003581 f i CoinDispenser.obj
 0001:0000258b       ?Release@?$CComObject@VCOPOSCoinDispenser@@@ATL@@WHM@AGKXZ 1000358b f i CoinDispenser.obj
 0001:00002595       ?QueryInterface@?$CComObject@VCOPOSCoinDispenser@@@ATL@@WIA@AGJABU_GUID@@PAPAX@Z 10003595 f i CoinDispenser.obj
 0001:000025a2       ?AddRef@?$CComObject@VCOPOSCoinDispenser@@@ATL@@WIA@AGKXZ 100035a2 f i CoinDispenser.obj
 0001:000025af       ?Release@?$CComObject@VCOPOSCoinDispenser@@@ATL@@WIA@AGKXZ 100035af f i CoinDispenser.obj
 0001:000025bc       ?QueryInterface@?$CComObject@VCOPOSCoinDispenser@@@ATL@@WIE@AGJABU_GUID@@PAPAX@Z 100035bc f i CoinDispenser.obj
 0001:000025c9       ?AddRef@?$CComObject@VCOPOSCoinDispenser@@@ATL@@WIE@AGKXZ 100035c9 f i CoinDispenser.obj
 0001:000025d6       ?Release@?$CComObject@VCOPOSCoinDispenser@@@ATL@@WIE@AGKXZ 100035d6 f i CoinDispenser.obj
 0001:000025e3       ?QueryInterface@?$CComObject@VCOPOSCoinDispenser@@@ATL@@WII@AGJABU_GUID@@PAPAX@Z 100035e3 f i CoinDispenser.obj
 0001:000025f0       ?AddRef@?$CComObject@VCOPOSCoinDispenser@@@ATL@@WII@AGKXZ 100035f0 f i CoinDispenser.obj
 0001:000025fd       ?Release@?$CComObject@VCOPOSCoinDispenser@@@ATL@@WII@AGKXZ 100035fd f i CoinDispenser.obj
 0001:0000260a       ?QueryInterface@?$CComObject@VCOPOSCoinDispenser@@@ATL@@WIM@AGJABU_GUID@@PAPAX@Z 1000360a f i CoinDispenser.obj
 0001:00002617       ?AddRef@?$CComObject@VCOPOSCoinDispenser@@@ATL@@WIM@AGKXZ 10003617 f i CoinDispenser.obj
 0001:00002624       ?Release@?$CComObject@VCOPOSCoinDispenser@@@ATL@@WIM@AGKXZ 10003624 f i CoinDispenser.obj
 0001:00002631       ?QueryInterface@?$CComObject@VCOPOSCoinDispenser@@@ATL@@WJA@AGJABU_GUID@@PAPAX@Z 10003631 f i CoinDispenser.obj
 0001:0000263e       ?AddRef@?$CComObject@VCOPOSCoinDispenser@@@ATL@@WJA@AGKXZ 1000363e f i CoinDispenser.obj
 0001:0000264b       ?Release@?$CComObject@VCOPOSCoinDispenser@@@ATL@@WJA@AGKXZ 1000364b f i CoinDispenser.obj
 0001:00002658       ?QueryInterface@?$CComObject@VCOPOSCoinDispenser@@@ATL@@WJE@AGJABU_GUID@@PAPAX@Z 10003658 f i CoinDispenser.obj
 0001:00002665       ?AddRef@?$CComObject@VCOPOSCoinDispenser@@@ATL@@WJE@AGKXZ 10003665 f i CoinDispenser.obj
 0001:00002672       ?Release@?$CComObject@VCOPOSCoinDispenser@@@ATL@@WJE@AGKXZ 10003672 f i CoinDispenser.obj
 0001:0000267f       ?QueryInterface@?$CComObject@VCOPOSCoinDispenser@@@ATL@@WJI@AGJABU_GUID@@PAPAX@Z 1000367f f i CoinDispenser.obj
 0001:0000268c       ?AddRef@?$CComObject@VCOPOSCoinDispenser@@@ATL@@WJI@AGKXZ 1000368c f i CoinDispenser.obj
 0001:00002699       ?Release@?$CComObject@VCOPOSCoinDispenser@@@ATL@@WJI@AGKXZ 10003699 f i CoinDispenser.obj
 0001:000026a6       ?QueryInterface@?$CComObject@VCOPOSCoinDispenser@@@ATL@@WJM@AGJABU_GUID@@PAPAX@Z 100036a6 f i CoinDispenser.obj
 0001:000026b3       ?AddRef@?$CComObject@VCOPOSCoinDispenser@@@ATL@@WJM@AGKXZ 100036b3 f i CoinDispenser.obj
 0001:000026c0       ?Release@?$CComObject@VCOPOSCoinDispenser@@@ATL@@WJM@AGKXZ 100036c0 f i CoinDispenser.obj
 0001:000026cd       ?QueryInterface@?$CComObject@VCOPOSCoinDispenser@@@ATL@@WKA@AGJABU_GUID@@PAPAX@Z 100036cd f i CoinDispenser.obj
 0001:000026da       ?AddRef@?$CComObject@VCOPOSCoinDispenser@@@ATL@@WKA@AGKXZ 100036da f i CoinDispenser.obj
 0001:000026e7       ?Release@?$CComObject@VCOPOSCoinDispenser@@@ATL@@WKA@AGKXZ 100036e7 f i CoinDispenser.obj
 0001:000026f4       ?AddRef@?$CComObject@VCOPOSCoinDispenser@@@ATL@@WKI@AGKXZ 100036f4 f i CoinDispenser.obj
 0001:00002701       ?Release@?$CComObject@VCOPOSCoinDispenser@@@ATL@@WKI@AGKXZ 10003701 f i CoinDispenser.obj
 0001:0000270e       ?AddRef@?$CComObject@VCOPOSCoinDispenser@@@ATL@@WLE@AGKXZ 1000370e f i CoinDispenser.obj
 0001:0000271b       ?Release@?$CComObject@VCOPOSCoinDispenser@@@ATL@@WLE@AGKXZ 1000371b f i CoinDispenser.obj
 0001:00002728       ??_E?$CComContainedObject@VCOPOSCoinDispenser@@@ATL@@W3AEPAXI@Z 10003728 f i CoinDispenser.obj
 0001:00002730       ??_E?$CComContainedObject@VCOPOSCoinDispenser@@@ATL@@WEM@AEPAXI@Z 10003730 f i CoinDispenser.obj
 0001:00002738       ?QueryInterface@?$CComContainedObject@VCOPOSCoinDispenser@@@ATL@@WHA@AGJABU_GUID@@PAPAX@Z 10003738 f i CoinDispenser.obj
 0001:00002742       ?AddRef@?$CComContainedObject@VCOPOSCoinDispenser@@@ATL@@WHA@AGKXZ 10003742 f i CoinDispenser.obj
 0001:0000274c       ?Release@?$CComContainedObject@VCOPOSCoinDispenser@@@ATL@@WHA@AGKXZ 1000374c f i CoinDispenser.obj
 0001:00002756       ?QueryInterface@?$CComContainedObject@VCOPOSCoinDispenser@@@ATL@@WHE@AGJABU_GUID@@PAPAX@Z 10003756 f i CoinDispenser.obj
 0001:00002760       ?AddRef@?$CComContainedObject@VCOPOSCoinDispenser@@@ATL@@WHE@AGKXZ 10003760 f i CoinDispenser.obj
 0001:0000276a       ?Release@?$CComContainedObject@VCOPOSCoinDispenser@@@ATL@@WHE@AGKXZ 1000376a f i CoinDispenser.obj
 0001:00002774       ?QueryInterface@?$CComContainedObject@VCOPOSCoinDispenser@@@ATL@@WHI@AGJABU_GUID@@PAPAX@Z 10003774 f i CoinDispenser.obj
 0001:0000277e       ?AddRef@?$CComContainedObject@VCOPOSCoinDispenser@@@ATL@@WHI@AGKXZ 1000377e f i CoinDispenser.obj
 0001:00002788       ?Release@?$CComContainedObject@VCOPOSCoinDispenser@@@ATL@@WHI@AGKXZ 10003788 f i CoinDispenser.obj
 0001:00002792       ?QueryInterface@?$CComContainedObject@VCOPOSCoinDispenser@@@ATL@@WHM@AGJABU_GUID@@PAPAX@Z 10003792 f i CoinDispenser.obj
 0001:0000279c       ?AddRef@?$CComContainedObject@VCOPOSCoinDispenser@@@ATL@@WHM@AGKXZ 1000379c f i CoinDispenser.obj
 0001:000027a6       ?Release@?$CComContainedObject@VCOPOSCoinDispenser@@@ATL@@WHM@AGKXZ 100037a6 f i CoinDispenser.obj
 0001:000027b0       ?QueryInterface@?$CComContainedObject@VCOPOSCoinDispenser@@@ATL@@WIA@AGJABU_GUID@@PAPAX@Z 100037b0 f i CoinDispenser.obj
 0001:000027bd       ?AddRef@?$CComContainedObject@VCOPOSCoinDispenser@@@ATL@@WIA@AGKXZ 100037bd f i CoinDispenser.obj
 0001:000027ca       ?Release@?$CComContainedObject@VCOPOSCoinDispenser@@@ATL@@WIA@AGKXZ 100037ca f i CoinDispenser.obj
 0001:000027d7       ?QueryInterface@?$CComContainedObject@VCOPOSCoinDispenser@@@ATL@@WIE@AGJABU_GUID@@PAPAX@Z 100037d7 f i CoinDispenser.obj
 0001:000027e4       ?AddRef@?$CComContainedObject@VCOPOSCoinDispenser@@@ATL@@WIE@AGKXZ 100037e4 f i CoinDispenser.obj
 0001:000027f1       ?Release@?$CComContainedObject@VCOPOSCoinDispenser@@@ATL@@WIE@AGKXZ 100037f1 f i CoinDispenser.obj
 0001:000027fe       ?QueryInterface@?$CComContainedObject@VCOPOSCoinDispenser@@@ATL@@WII@AGJABU_GUID@@PAPAX@Z 100037fe f i CoinDispenser.obj
 0001:0000280b       ?AddRef@?$CComContainedObject@VCOPOSCoinDispenser@@@ATL@@WII@AGKXZ 1000380b f i CoinDispenser.obj
 0001:00002818       ?Release@?$CComContainedObject@VCOPOSCoinDispenser@@@ATL@@WII@AGKXZ 10003818 f i CoinDispenser.obj
 0001:00002825       ?QueryInterface@?$CComContainedObject@VCOPOSCoinDispenser@@@ATL@@WIM@AGJABU_GUID@@PAPAX@Z 10003825 f i CoinDispenser.obj
 0001:00002832       ?AddRef@?$CComContainedObject@VCOPOSCoinDispenser@@@ATL@@WIM@AGKXZ 10003832 f i CoinDispenser.obj
 0001:0000283f       ?Release@?$CComContainedObject@VCOPOSCoinDispenser@@@ATL@@WIM@AGKXZ 1000383f f i CoinDispenser.obj
 0001:0000284c       ?QueryInterface@?$CComContainedObject@VCOPOSCoinDispenser@@@ATL@@WJA@AGJABU_GUID@@PAPAX@Z 1000384c f i CoinDispenser.obj
 0001:00002859       ?AddRef@?$CComContainedObject@VCOPOSCoinDispenser@@@ATL@@WJA@AGKXZ 10003859 f i CoinDispenser.obj
 0001:00002866       ?Release@?$CComContainedObject@VCOPOSCoinDispenser@@@ATL@@WJA@AGKXZ 10003866 f i CoinDispenser.obj
 0001:00002873       ?QueryInterface@?$CComContainedObject@VCOPOSCoinDispenser@@@ATL@@WJE@AGJABU_GUID@@PAPAX@Z 10003873 f i CoinDispenser.obj
 0001:00002880       ?AddRef@?$CComContainedObject@VCOPOSCoinDispenser@@@ATL@@WJE@AGKXZ 10003880 f i CoinDispenser.obj
 0001:0000288d       ?Release@?$CComContainedObject@VCOPOSCoinDispenser@@@ATL@@WJE@AGKXZ 1000388d f i CoinDispenser.obj
 0001:0000289a       ?QueryInterface@?$CComContainedObject@VCOPOSCoinDispenser@@@ATL@@WJI@AGJABU_GUID@@PAPAX@Z 1000389a f i CoinDispenser.obj
 0001:000028a7       ?AddRef@?$CComContainedObject@VCOPOSCoinDispenser@@@ATL@@WJI@AGKXZ 100038a7 f i CoinDispenser.obj
 0001:000028b4       ?Release@?$CComContainedObject@VCOPOSCoinDispenser@@@ATL@@WJI@AGKXZ 100038b4 f i CoinDispenser.obj
 0001:000028c1       ?QueryInterface@?$CComContainedObject@VCOPOSCoinDispenser@@@ATL@@WJM@AGJABU_GUID@@PAPAX@Z 100038c1 f i CoinDispenser.obj
 0001:000028ce       ?AddRef@?$CComContainedObject@VCOPOSCoinDispenser@@@ATL@@WJM@AGKXZ 100038ce f i CoinDispenser.obj
 0001:000028db       ?Release@?$CComContainedObject@VCOPOSCoinDispenser@@@ATL@@WJM@AGKXZ 100038db f i CoinDispenser.obj
 0001:000028e8       ?QueryInterface@?$CComContainedObject@VCOPOSCoinDispenser@@@ATL@@WKA@AGJABU_GUID@@PAPAX@Z 100038e8 f i CoinDispenser.obj
 0001:000028f5       ?AddRef@?$CComContainedObject@VCOPOSCoinDispenser@@@ATL@@WKA@AGKXZ 100038f5 f i CoinDispenser.obj
 0001:00002902       ?Release@?$CComContainedObject@VCOPOSCoinDispenser@@@ATL@@WKA@AGKXZ 10003902 f i CoinDispenser.obj
 0001:0000290f       ?AddRef@?$CComContainedObject@VCOPOSCoinDispenser@@@ATL@@WKI@AGKXZ 1000390f f i CoinDispenser.obj
 0001:0000291c       ?Release@?$CComContainedObject@VCOPOSCoinDispenser@@@ATL@@WKI@AGKXZ 1000391c f i CoinDispenser.obj
 0001:00002929       ?AddRef@?$CComContainedObject@VCOPOSCoinDispenser@@@ATL@@WLE@AGKXZ 10003929 f i CoinDispenser.obj
 0001:00002936       ?Release@?$CComContainedObject@VCOPOSCoinDispenser@@@ATL@@WLE@AGKXZ 10003936 f i CoinDispenser.obj
 0001:00002943       ??$?4UITypeInfo2@@@?$CComPtr@UITypeInfo@@@ATL@@QAEPAUITypeInfo@@ABV?$CComPtr@UITypeInfo2@@@1@@Z 10003943 f i CoinDispenser.obj
 0001:00002970       ??$AtlAdd@K@ATL@@YAJPAKKK@Z 10003970 f i CoinDispenser.obj
 0001:00002993       ??$AtlAdd@_K@ATL@@YAJPA_K_K1@Z 10003993 f i CoinDispenser.obj
 0001:000029cb       ??$AtlAddThrow@K@ATL@@YAKKK@Z 100039cb f i CoinDispenser.obj
 0001:000029f1       ??$AtlModuleRegisterWndClassInfoT@VAtlModuleRegisterWndClassInfoParamW@ATL@@@ATL@@YAGPAU_ATL_BASE_MODULE70@0@PAU_ATL_WIN_MODULE70@0@PAU_ATL_WNDCLASSINFOW@0@PAP6GJPAUHWND__@@IIJ@ZVAtlModuleRegisterWndClassInfoParamW@0@@Z 100039f1 f i CoinDispenser.obj
 0001:00002b3f       ??$AtlMultiply@H@ATL@@YAJPAHHH@Z 10003b3f f i CoinDispenser.obj
 0001:00002b77       ??$AtlMultiply@K@ATL@@YAJPAKKK@Z 10003b77 f i CoinDispenser.obj
 0001:00002b77       ??$AtlMultiply@I@ATL@@YAJPAIII@Z 10003b77 f i CoinDispenser.obj
 0001:00002b99       ??$AtlMultiplyThrow@I@ATL@@YAIII@Z 10003b99 f i CoinDispenser.obj
 0001:00002bbf       ??0?$CComAggObject@VCOPOSCoinDispenser@@@ATL@@QAE@PAX@Z 10003bbf f i CoinDispenser.obj
 0001:00002bec       ??0?$CComContainedObject@VCOPOSCoinDispenser@@@ATL@@QAE@PAX@Z 10003bec f i CoinDispenser.obj
 0001:00002ca5       ??0?$CComObject@V?$CComEnum@UIEnumConnectionPoints@@$1?_GUID_b196b285_bab4_101a_b69c_00aa00341d07@@3U__s_GUID@@BPAUIConnectionPoint@@V?$_CopyInterface@UIConnectionPoint@@@ATL@@VCComSingleThreadModel@6@@ATL@@@ATL@@QAE@PAX@Z 10003ca5 f i CoinDispenser.obj
 0001:00002cd3       ??0?$CComObject@V?$CComEnum@UIEnumConnections@@$1?_GUID_b196b287_bab4_101a_b69c_00aa00341d07@@3U__s_GUID@@BUtagCONNECTDATA@@V?$_Copy@UtagCONNECTDATA@@@ATL@@VCComSingleThreadModel@6@@ATL@@@ATL@@QAE@PAX@Z 10003cd3 f i CoinDispenser.obj
 0001:00002d01       ??0?$CComObject@VCOPOSCoinDispenser@@@ATL@@QAE@PAX@Z 10003d01 f i CoinDispenser.obj
 0001:00002db8       ??0?$CComQIPtr@UIOleControlSite@@$1?_GUID_b196b289_bab4_101a_b69c_00aa00341d07@@3U__s_GUID@@B@ATL@@QAE@PAUIUnknown@@@Z 10003db8 f i CoinDispenser.obj
 0001:00002de1       ??0CAtlModule@ATL@@QAE@XZ  10003de1 f i CoinDispenser.obj
 0001:00002e22       ??0CParseBuffer@CRegParser@ATL@@QAE@H@Z 10003e22 f i CoinDispenser.obj
 0001:00002e58       ??0_ATL_MSG@ATL@@QAE@PAUHWND__@@IIJH@Z 10003e58 f i CoinDispenser.obj
 0001:00002e90       ??1?$CComAggObject@VCOPOSCoinDispenser@@@ATL@@UAE@XZ 10003e90 f i CoinDispenser.obj
 0001:00002eb4       ??1?$CComEnumImpl@UIEnumConnectionPoints@@$1?_GUID_b196b285_bab4_101a_b69c_00aa00341d07@@3U__s_GUID@@BPAUIConnectionPoint@@V?$_CopyInterface@UIConnectionPoint@@@ATL@@@ATL@@UAE@XZ 10003eb4 f i CoinDispenser.obj
 0001:00002ef4       ??1?$CComEnumImpl@UIEnumConnections@@$1?_GUID_b196b287_bab4_101a_b69c_00aa00341d07@@3U__s_GUID@@BUtagCONNECTDATA@@V?$_Copy@UtagCONNECTDATA@@@ATL@@@ATL@@UAE@XZ 10003ef4 f i CoinDispenser.obj
 0001:00002f34       ??1?$CComObject@V?$CComEnum@UIEnumConnectionPoints@@$1?_GUID_b196b285_bab4_101a_b69c_00aa00341d07@@3U__s_GUID@@BPAUIConnectionPoint@@V?$_CopyInterface@UIConnectionPoint@@@ATL@@VCComSingleThreadModel@6@@ATL@@@ATL@@UAE@XZ 10003f34 f i CoinDispenser.obj
 0001:00002f57       ??1?$CComObject@V?$CComEnum@UIEnumConnections@@$1?_GUID_b196b287_bab4_101a_b69c_00aa00341d07@@3U__s_GUID@@BUtagCONNECTDATA@@V?$_Copy@UtagCONNECTDATA@@@ATL@@VCComSingleThreadModel@6@@ATL@@@ATL@@UAE@XZ 10003f57 f i CoinDispenser.obj
 0001:00002f7a       ??1?$CComObject@VCOPOSCoinDispenser@@@ATL@@UAE@XZ 10003f7a f i CoinDispenser.obj
 0001:00003038       ??1?$CComObjectCached@VCComClassFactory@ATL@@@ATL@@UAE@XZ 10004038 f i CoinDispenser.obj
 0001:0000304e       ??1?$CComObjectRootEx@VCComMultiThreadModel@ATL@@@ATL@@QAE@XZ 1000404e f i CoinDispenser.obj
 0001:00003063       ??1CRegObject@ATL@@UAE@XZ  10004063 f i CoinDispenser.obj
 0001:00003083       ??4?$CComPtr@UIAdviseSink@@@ATL@@QAEPAUIAdviseSink@@PAU2@@Z 10004083 f i CoinDispenser.obj
 0001:00003083       ??4?$CComPtr@UIOleClientSite@@@ATL@@QAEPAUIOleClientSite@@PAU2@@Z 10004083 f i CoinDispenser.obj
 0001:00003083       ??4?$CComPtr@UIUnknown@@@ATL@@QAEPAUIUnknown@@PAU2@@Z 10004083 f i CoinDispenser.obj
 0001:000030b7       ??_E?$CComContainedObject@VCOPOSCoinDispenser@@@ATL@@UAEPAXI@Z 100040b7 f i CoinDispenser.obj
 0001:000030b7       ??_G?$CComContainedObject@VCOPOSCoinDispenser@@@ATL@@UAEPAXI@Z 100040b7 f i CoinDispenser.obj
 0001:000030dc       ??_E?$CComObject@VCOPOSCoinDispenser@@@ATL@@UAEPAXI@Z 100040dc f i CoinDispenser.obj
 0001:000030dc       ??_G?$CComObject@VCOPOSCoinDispenser@@@ATL@@UAEPAXI@Z 100040dc f i CoinDispenser.obj
 0001:00003101       ?Add@?$CSimpleArray@GV?$CSimpleArrayEqualHelper@G@ATL@@@ATL@@QAEHABG@Z 10004101 f i CoinDispenser.obj
 0001:00003185       ?Add@?$CSimpleMap@PA_WPA_WVCExpansionVectorEqualHelper@ATL@@@ATL@@QAEHABQA_W0@Z 10004185 f i CoinDispenser.obj
 0001:000031da       ?Add@CComDynamicUnkArray@ATL@@QAEKPAUIUnknown@@@Z 100041da f i CoinDispenser.obj
 0001:00003290       ?Add@CExpansionVector@ATL@@QAEHPB_W0@Z 10004290 f i CoinDispenser.obj
 0001:00003399       ?AddString@CParseBuffer@CRegParser@ATL@@QAEHPB_W@Z 10004399 f i CoinDispenser.obj
 0001:000033ce       ?AddTermFunc@CAtlModule@ATL@@QAEJP6GXK@ZK@Z 100043ce f i CoinDispenser.obj
 0001:00003431       ?AddValue@CRegParser@ATL@@IAEJAAVCRegKey@2@PB_WPA_W@Z 10004431 f i CoinDispenser.obj
 0001:0000374b       ?Allocate@?$CAtlSafeAllocBufferManager@VCCRTAllocator@ATL@@@_ATL_SAFE_ALLOCA_IMPL@ATL@@QAEPAXK@Z 1000474b f i CoinDispenser.obj
 0001:00003778       ?Allocate@?$CTempBuffer@E$0BAA@VCCRTAllocator@ATL@@@ATL@@QAEPAEI@Z 10004778 f i CoinDispenser.obj
 0001:000037a7       ?Allocate@?$CTempBuffer@_W$0BAA@VCCRTAllocator@ATL@@@ATL@@QAEPA_WI@Z 100047a7 f i CoinDispenser.obj
 0001:000037d6       ?Allocate@?$CTempBuffer@_W$0EAA@VCCRTAllocator@ATL@@@ATL@@QAEPA_WI@Z 100047d6 f i CoinDispenser.obj
 0001:00003805       ?AllocateHeap@?$CTempBuffer@E$0BAA@VCCRTAllocator@ATL@@@ATL@@AAEXI@Z 10004805 f i CoinDispenser.obj
 0001:00003805       ?AllocateHeap@?$CTempBuffer@_W$0BAA@VCCRTAllocator@ATL@@@ATL@@AAEXI@Z 10004805 f i CoinDispenser.obj
 0001:00003805       ?AllocateHeap@?$CTempBuffer@_W$0EAA@VCCRTAllocator@ATL@@@ATL@@AAEXI@Z 10004805 f i CoinDispenser.obj
 0001:0000382a       ?Append@CParseBuffer@CRegParser@ATL@@QAEHPB_WH@Z 1000482a f i CoinDispenser.obj
 0001:000038b8       ?AtlCoTaskMemCAlloc@ATL@@YAPAXKK@Z 100048b8 f i CoinDispenser.obj
 0001:000038e5       ?AtlCoTaskMemRecalloc@ATL@@YAPAXPAXKK@Z 100048e5 f i CoinDispenser.obj
 0001:00003915       ?AtlComModuleGetClassObject@ATL@@YGJPAU_ATL_COM_MODULE70@1@ABU_GUID@@1PAPAX@Z 10004915 f i CoinDispenser.obj
 0001:00003a08       ?AtlComModuleRegisterServer@ATL@@YGJPAU_ATL_COM_MODULE70@1@HPBU_GUID@@@Z 10004a08 f i CoinDispenser.obj
 0001:00003a90       ?AtlComModuleUnregisterServer@ATL@@YGJPAU_ATL_COM_MODULE70@1@HPBU_GUID@@@Z 10004a90 f i CoinDispenser.obj
 0001:00003b18       ?AtlComQIPtrAssign2@ATL@@YAXPAPAUIUnknown@@PAU2@ABU_GUID@@@Z 10004b18 f i CoinDispenser.obj
 0001:00003b47       ?AtlCreateTargetDC@ATL@@YGPAUHDC__@@PAU2@PAUtagDVTARGETDEVICE@@@Z 10004b47 f i CoinDispenser.obj
 0001:00003bb0       ?AtlCrtErrorCheck@ATL@@YAHH@Z 10004bb0 f i CoinDispenser.obj
 0001:00003beb       ?AtlHiMetricToPixel@ATL@@YGXPBUtagSIZE@@PAU2@@Z 10004beb f i CoinDispenser.obj
 0001:00003c60       ?AtlHresultFromLastError@ATL@@YAJXZ 10004c60 f i CoinDispenser.obj
 0001:00003c77       ?AtlHresultFromWin32@ATL@@YAJK@Z 10004c77 f i CoinDispenser.obj
 0001:00003c8c       ?AtlInternalOleLoadFromStream@ATL@@YAJPAUIStream@@ABU_GUID@@PAPAXTClassesAllowedInStream@1@K@Z 10004c8c f i CoinDispenser.obj
 0001:00003daa       ?AtlInternalQueryInterface@ATL@@YGJPAXPBU_ATL_INTMAP_ENTRY@1@ABU_GUID@@PAPAX@Z 10004daa f i CoinDispenser.obj
 0001:00003e4d       ?AtlLoadTypeLib@ATL@@YGJPAUHINSTANCE__@@PB_WPAPA_WPAPAUITypeLib@@@Z 10004e4d f i CoinDispenser.obj
 0001:0000402b       ?AtlRegisterClassCategoriesHelper@ATL@@YGJABU_GUID@@PBU_ATL_CATMAP_ENTRY@1@H@Z 1000502b f i CoinDispenser.obj
 0001:00004327       ?AtlRegisterTypeLib@ATL@@YGJPAUHINSTANCE__@@PB_W@Z 10005327 f i CoinDispenser.obj
 0001:000044af       ?AtlThrowImpl@ATL@@YGXJ@Z  100054af f i CoinDispenser.obj
 0001:000044cd       ?AtlUnRegisterTypeLib@ATL@@YGJPAUHINSTANCE__@@PB_W@Z 100054cd f i CoinDispenser.obj
 0001:00004578       ?AtlWinModuleAddCreateWndData@ATL@@YGXPAU_ATL_WIN_MODULE70@1@PAU_AtlCreateWndData@1@PAX@Z 10005578 f i CoinDispenser.obj
 0001:000045cc       ?AtlWinModuleExtractCreateWndData@ATL@@YGPAXPAU_ATL_WIN_MODULE70@1@@Z 100055cc f i CoinDispenser.obj
 0001:0000462f       ?AtlWinModuleRegisterClassExW@ATL@@YGGPAU_ATL_WIN_MODULE70@1@PBUtagWNDCLASSEXW@@@Z 1000562f f i CoinDispenser.obj
 0001:0000466e       ?CanForceRemoveKey@CRegParser@ATL@@IAEHPB_W@Z 1000566e f i CoinDispenser.obj
 0001:0000469d       ?ChToByte@CRegParser@ATL@@KAE_W@Z 1000569d f i CoinDispenser.obj
 0001:000046d0       ?Cleanup@CComTypeInfoHolder@ATL@@SGXK@Z 100056d0 f i CoinDispenser.obj
 0001:00004703       ?ClearReplacements@CExpansionVector@ATL@@QAEJXZ 10005703 f i CoinDispenser.obj
 0001:00004740       ?Close@CRegKey@ATL@@QAEJXZ 10005740 f i CoinDispenser.obj
 0001:0000475a       ?CreateInstance@?$CComCreator@V?$CComAggObject@VCOPOSCoinDispenser@@@ATL@@@ATL@@SGJPAXABU_GUID@@PAPAX@Z 1000575a f i CoinDispenser.obj
 0001:000047cf       ?CreateInstance@?$CComCreator@V?$CComObject@VCOPOSCoinDispenser@@@ATL@@@ATL@@SGJPAXABU_GUID@@PAPAX@Z 100057cf f i CoinDispenser.obj
 0001:0000484f       ?CreateInstance@?$CComObject@V?$CComEnum@UIEnumConnectionPoints@@$1?_GUID_b196b285_bab4_101a_b69c_00aa00341d07@@3U__s_GUID@@BPAUIConnectionPoint@@V?$_CopyInterface@UIConnectionPoint@@@ATL@@VCComSingleThreadModel@6@@ATL@@@ATL@@SGJPAPAV12@@Z 1000584f f i CoinDispenser.obj
 0001:00004899       ?CreateInstance@?$CComObject@V?$CComEnum@UIEnumConnections@@$1?_GUID_b196b287_bab4_101a_b69c_00aa00341d07@@3U__s_GUID@@BUtagCONNECTDATA@@V?$_Copy@UtagCONNECTDATA@@@ATL@@VCComSingleThreadModel@6@@ATL@@@ATL@@SGJPAPAV12@@Z 10005899 f i CoinDispenser.obj
 0001:000048e3       ?DefaultReflectionHandler@?$CWindowImplRoot@VCWindow@ATL@@@ATL@@SAHPAUHWND__@@IIJAAJ@Z 100058e3 f i CoinDispenser.obj
 0001:00004956       ?DeleteSubKey@CRegKey@ATL@@QAEJPB_W@Z 10005956 f i CoinDispenser.obj
 0001:000049cf       ?DoEvent@COPOSCoinDispenser@@IAEXIIJ@Z 100059cf f i CoinDispenser.obj
 0001:00004a4f       ?DoVerbHide@?$IOleObjectImpl@VCOPOSCoinDispenser@@@ATL@@QAEJPBUtagRECT@@PAUHWND__@@@Z 10005a4f f i CoinDispenser.obj
 0001:00004a85       ?DoVerbInPlaceActivate@?$IOleObjectImpl@VCOPOSCoinDispenser@@@ATL@@QAEJPBUtagRECT@@PAUHWND__@@@Z 10005a85 f i CoinDispenser.obj
 0001:00004ab8       ?DoVerbPrimary@?$IOleObjectImpl@VCOPOSCoinDispenser@@@ATL@@QAEJPBUtagRECT@@PAUHWND__@@@Z 10005ab8 f i CoinDispenser.obj
 0001:00004b44       ?DoVerbProperties@CComControlBase@ATL@@QAEJPBUtagRECT@@PAUHWND__@@@Z 10005b44 f i CoinDispenser.obj
 0001:00004cc3       ?DoVerbUIActivate@?$IOleObjectImpl@VCOPOSCoinDispenser@@@ATL@@QAEJPBUtagRECT@@PAUHWND__@@@Z 10005cc3 f i CoinDispenser.obj
 0001:00004d00       ?DoesVerbActivate@CComControlBase@ATL@@QAEHJ@Z 10005d00 f i CoinDispenser.obj
 0001:00004d21       ?DoesVerbUIActivate@CComControlBase@ATL@@QAEHJ@Z 10005d21 f i CoinDispenser.obj
 0001:00004d56       ?EndOfVar@CRegParser@ATL@@IAEHXZ 10005d56 f i CoinDispenser.obj
 0001:00004d76       ?EscapeSingleQuote@CAtlModule@ATL@@SAXPA_WIPB_W@Z 10005d76 f i CoinDispenser.obj
 0001:00004dc5       ?FindKey@?$CSimpleMap@PA_WPA_WVCExpansionVectorEqualHelper@ATL@@@ATL@@QBEHABQA_W@Z 10005dc5 f i CoinDispenser.obj
 0001:00004dfc       ?FireTheEvent@?$CProxy_IOPOSEvents@VCOPOSCoinDispenser@@@@IAEXPAVOposVariant@@IAAJPB_WJ@Z 10005dfc f i CoinDispenser.obj
 0001:00004e8e       ?FireViewChange@CComControlBase@ATL@@QAEJXZ 10005e8e f i CoinDispenser.obj
 0001:00004ed7       ?Fire_DirectIOEvent@?$CProxy_IOPOSEvents@VCOPOSCoinDispenser@@@@QAEXJPAJPAPA_W@Z 10005ed7 f i CoinDispenser.obj
 0001:00004fc3       ?Fire_StatusUpdateEvent@?$CProxy_IOPOSEvents@VCOPOSCoinDispenser@@@@QAEXJ@Z 10005fc3 f i CoinDispenser.obj
 0001:00005059       ?FreeHeap@?$CTempBuffer@E$0BAA@VCCRTAllocator@ATL@@@ATL@@AAEXXZ 10006059 f i CoinDispenser.obj
 0001:00005059       ?FreeHeap@?$CTempBuffer@_W$0BAA@VCCRTAllocator@ATL@@@ATL@@AAEXXZ 10006059 f i CoinDispenser.obj
 0001:00005059       ?FreeHeap@?$CTempBuffer@_W$0EAA@VCCRTAllocator@ATL@@@ATL@@AAEXXZ 10006059 f i CoinDispenser.obj
 0001:00005062       ?GetAmbientLocaleID@CComControlBase@ATL@@QAEJAAK@Z 10006062 f i CoinDispenser.obj
 0001:000050be       ?GetAmbientUserMode@CComControlBase@ATL@@QAEJAAH@Z 100060be f i CoinDispenser.obj
 0001:0000512e       ?GetAt@CComDynamicUnkArray@ATL@@QAEPAUIUnknown@@H@Z 1000612e f i CoinDispenser.obj
 0001:0000514a       ?GetClassObject@CComModule@ATL@@QAEJABU_GUID@@0PAPAX@Z 1000614a f i CoinDispenser.obj
 0001:000051ec       ?GetConnMap@COPOSCoinDispenser@@SAPBU_ATL_CONNMAP_ENTRY@ATL@@PAH@Z 100061ec f i CoinDispenser.obj
 0001:0000525c       ?GetCookie@CComDynamicUnkArray@ATL@@QAGKPAPAUIUnknown@@@Z 1000625c f i CoinDispenser.obj
 0001:00005294       ?GetIDsOfNames@CComTypeInfoHolder@ATL@@QAEJABU_GUID@@PAPA_WIKPAJ@Z 10006294 f i CoinDispenser.obj
 0001:000053bb       ?GetKeyAt@?$CSimpleMap@PA_WPA_WVCExpansionVectorEqualHelper@ATL@@@ATL@@QBEAAPA_WH@Z 100063bb f i CoinDispenser.obj
 0001:000053e0       ?GetPagesHelper@?$ISpecifyPropertyPagesImpl@VCOPOSCoinDispenser@@@ATL@@IAEJPAUtagCAUUID@@PBUATL_PROPMAP_ENTRY@2@@Z 100063e0 f i CoinDispenser.obj
 0001:00005507       ?GetProperty@?$CComPtr@UIDispatch@@@ATL@@SAJPAUIDispatch@@JPAUtagVARIANT@@@Z 10006507 f i CoinDispenser.obj
 0001:00005556       ?GetSizeMax@CComVariant@ATL@@QBEJPAT_ULARGE_INTEGER@@@Z 10006556 f i CoinDispenser.obj
 0001:00005718       ?GetTI@CComTypeInfoHolder@ATL@@QAEJK@Z 10006718 f i CoinDispenser.obj
 0001:000058f7       ?GetTI@CComTypeInfoHolder@ATL@@QAEJKPAPAUITypeInfo@@@Z 100068f7 f i CoinDispenser.obj
 0001:00005939       ?GetUnknown@CComDynamicUnkArray@ATL@@QAGPAUIUnknown@@K@Z 10006939 f i CoinDispenser.obj
 0001:0000595a       ?GetValueAt@?$CSimpleMap@PA_WPA_WVCExpansionVectorEqualHelper@ATL@@@ATL@@QBEAAPA_WH@Z 1000695a f i CoinDispenser.obj
 0001:00005980       ?GetZoomInfo@CComControlBase@ATL@@QAEXAAUATL_DRAWINFO@@@Z 10006980 f i CoinDispenser.obj
 0001:00005a13       ?HKeyFromString@CRegParser@ATL@@KAPAUHKEY__@@PA_W@Z 10006a13 f i CoinDispenser.obj
 0001:00005a41       ?HasSubKeys@CRegParser@ATL@@IAEHPAUHKEY__@@@Z 10006a41 f i CoinDispenser.obj
 0001:00005a76       ?IDataObject_GetData@CComControlBase@ATL@@QAEJPAUtagFORMATETC@@PAUtagSTGMEDIUM@@@Z 10006a76 f i CoinDispenser.obj
 0001:00005c1c       ?IOleInPlaceObject_InPlaceDeactivate@CComControlBase@ATL@@QAEJXZ 10006c1c f i CoinDispenser.obj
 0001:00005ca3       ?IOleInPlaceObject_SetObjectRects@CComControlBase@ATL@@QAEJPBUtagRECT@@0@Z 10006ca3 f i CoinDispenser.obj
 0001:00005d70       ?IOleInPlaceObject_UIDeactivate@CComControlBase@ATL@@QAEJXZ 10006d70 f i CoinDispenser.obj
 0001:00005e32       ?IOleObject_Advise@CComControlBase@ATL@@QAEJPAUIAdviseSink@@PAK@Z 10006e32 f i CoinDispenser.obj
 0001:00005e5c       ?IOleObject_Close@CComControlBase@ATL@@QAEJK@Z 10006e5c f i CoinDispenser.obj
 0001:00005f40       ?IOleObject_GetClientSite@CComControlBase@ATL@@QAEJPAPAUIOleClientSite@@@Z 10006f40 f i CoinDispenser.obj
 0001:00005f69       ?IOleObject_SetClientSite@CComControlBase@ATL@@QAEJPAUIOleClientSite@@@Z 10006f69 f i CoinDispenser.obj
 0001:00005fa8       ?IOleObject_SetExtent@CComControlBase@ATL@@QAEJKPAUtagSIZE@@@Z 10006fa8 f i CoinDispenser.obj
 0001:0000605c       ?IPSI_GetIPersistStreamInit@?$IPersistStorageImpl@VCOPOSCoinDispenser@@@ATL@@AAEPAUIPersistStreamInit@@XZ 1000705c f i CoinDispenser.obj
 0001:00006104       ?IPersistStreamInit_Load@?$IPersistStreamInitImpl@VCOPOSCoinDispenser@@@ATL@@QAEJPAUIStream@@PBUATL_PROPMAP_ENTRY@2@@Z 10007104 f i CoinDispenser.obj
 0001:00006379       ?IPersistStreamInit_Save@?$IPersistStreamInitImpl@VCOPOSCoinDispenser@@@ATL@@QAEJPAUIStream@@HPBUATL_PROPMAP_ENTRY@2@@Z 10007379 f i CoinDispenser.obj
 0001:00006567       ?IQuickActivate_QuickActivate@CComControlBase@ATL@@QAEJPAUtagQACONTAINER@@PAUtagQACONTROL@@@Z 10007567 f i CoinDispenser.obj
 0001:000067a9       ?IViewObject_Draw@CComControlBase@ATL@@QAEJKJPAXPAUtagDVTARGETDEVICE@@PAUHDC__@@2PBU_RECTL@@3@Z 100077a9 f i CoinDispenser.obj
 0001:00006851       ?InPlaceActivate@CComControlBase@ATL@@QAEJJPBUtagRECT@@@Z 10007851 f i CoinDispenser.obj
 0001:00006ac2       ?Init@?$CComEnumImpl@UIEnumConnectionPoints@@$1?_GUID_b196b285_bab4_101a_b69c_00aa00341d07@@3U__s_GUID@@BPAUIConnectionPoint@@V?$_CopyInterface@UIConnectionPoint@@@ATL@@@ATL@@QAEJPAPAUIConnectionPoint@@0PAUIUnknown@@W4CComEnumFlags@2@@Z 10007ac2 f i CoinDispenser.obj
 0001:00006ba1       ?Init@?$CComEnumImpl@UIEnumConnections@@$1?_GUID_b196b287_bab4_101a_b69c_00aa00341d07@@3U__s_GUID@@BUtagCONNECTDATA@@V?$_Copy@UtagCONNECTDATA@@@ATL@@@ATL@@QAEJPAUtagCONNECTDATA@@0PAUIUnknown@@W4CComEnumFlags@2@@Z 10007ba1 f i CoinDispenser.obj
 0001:00006c80       ?Init@CComModule@ATL@@QAEJPAU_ATL_OBJMAP_ENTRY30@2@PAUHINSTANCE__@@PBU_GUID@@@Z 10007c80 f i CoinDispenser.obj
 0001:00006cdf       ?Init@CDynamicStdCallThunk2@ATL@@QAEHKPAX@Z 10007cdf f i CoinDispenser.obj
 0001:00006d0a       ?InlineIsEqualUnknown@ATL@@YGHABU_GUID@@@Z 10007d0a f i CoinDispenser.obj
 0001:00006d32       ?InternalSetAtIndex@?$CSimpleMap@PA_WPA_WVCExpansionVectorEqualHelper@ATL@@@ATL@@QAEXHABQA_W0@Z 10007d32 f i CoinDispenser.obj
 0001:00006d5c       ?Invoke@CComTypeInfoHolder@ATL@@QAEJPAUIDispatch@@JABU_GUID@@KGPAUtagDISPPARAMS@@PAUtagVARIANT@@PAUtagEXCEPINFO@@PAI@Z 10007d5c f i CoinDispenser.obj
 0001:00006d9f       ?IsEqualObject@?$CComPtrBase@UITypeInfo@@@ATL@@QAE_NPAUIUnknown@@@Z 10007d9f f i CoinDispenser.obj
 0001:00006d9f       ?IsEqualObject@?$CComPtrBase@UIOleClientSite@@@ATL@@QAE_NPAUIUnknown@@@Z 10007d9f f i CoinDispenser.obj
 0001:00006e0c       ?IsSpace@CRegParser@ATL@@IAEH_W@Z 10007e0c f i CoinDispenser.obj
 0001:00006e36       ?LoadNameCache@CComTypeInfoHolder@ATL@@QAEJPAUITypeInfo@@@Z 10007e36 f i CoinDispenser.obj
 0001:00006f6b       ?Lookup@?$CSimpleMap@PA_WPA_WVCExpansionVectorEqualHelper@ATL@@@ATL@@QBEPA_WABQA_W@Z 10007f6b f i CoinDispenser.obj
 0001:00006f91       ?NextToken@CRegParser@ATL@@IAEJPA_W@Z 10007f91 f i CoinDispenser.obj
 0001:000070c9       ?OnKillFocus@CComControlBase@ATL@@QAEJIIJAAH@Z 100080c9 f i CoinDispenser.obj
 0001:00007124       ?OnMouseActivate@CComControlBase@ATL@@QAEJIIJAAH@Z 10008124 f i CoinDispenser.obj
 0001:00007192       ?OnPaint@CComControlBase@ATL@@QAEJIIJAAH@Z 10008192 f i CoinDispenser.obj
 0001:00007244       ?OnSetFocus@CComControlBase@ATL@@QAEJIIJAAH@Z 10008244 f i CoinDispenser.obj
 0001:000072cd       ?Open@CRegKey@ATL@@QAEJPAUHKEY__@@PB_WK@Z 100082cd f i CoinDispenser.obj
 0001:00007322       ?PreProcessBuffer@CRegParser@ATL@@QAEJPA_WPAPA_W@Z 10008322 f i CoinDispenser.obj
 0001:00007591       ?ProcessWindowMessage@?$CComControl@VCOPOSCoinDispenser@@V?$CWindowImpl@VCOPOSCoinDispenser@@VCWindow@ATL@@V?$CWinTraits@$0FGAAAAAA@$0A@@3@@ATL@@@ATL@@UAEHPAUHWND__@@IIJAAJK@Z 10008591 f i CoinDispenser.obj
 0001:00007630       ?ReadFromStream@CComBSTR@ATL@@QAEJPAUIStream@@@Z 10008630 f i CoinDispenser.obj
 0001:00007753       ?ReadFromStream@CComVariant@ATL@@QAEJPAUIStream@@GTClassesAllowedInStream@2@K@Z 10008753 f i CoinDispenser.obj
 0001:000078dd       ?RecurseDeleteKey@CRegKey@ATL@@QAEJPB_W@Z 100088dd f i CoinDispenser.obj
 0001:000079cb       ?RegCreateKeyExW@CAtlTransactionManager@ATL@@QAEJPAUHKEY__@@PB_WKPA_WKKQAU_SECURITY_ATTRIBUTES@@PAPAU3@PAK@Z 100089cb f i CoinDispenser.obj
 0001:00007a2e       ?RegDeleteKeyW@CAtlTransactionManager@ATL@@QAEJPAUHKEY__@@PB_W@Z 10008a2e f i CoinDispenser.obj
 0001:00007a80       ?RegOpenKeyExW@CAtlTransactionManager@ATL@@QAEJPAUHKEY__@@PB_WKKPAPAU3@@Z 10008a80 f i CoinDispenser.obj
 0001:00007ad7       ?Register@_ATL_WNDCLASSINFOW@ATL@@QAEGPAP6GJPAUHWND__@@IIJ@Z@Z 10008ad7 f i CoinDispenser.obj
 0001:00007af7       ?RegisterBuffer@CRegParser@ATL@@QAEJPA_WH@Z 10008af7 f i CoinDispenser.obj
 0001:00007c3e       ?RegisterFromResource@CRegObject@ATL@@IAEJPB_W00H@Z 10008c3e f i CoinDispenser.obj
 0001:00007d74       ?RegisterServer@?$CAtlModuleT@VCComModule@ATL@@@ATL@@QAEJHPBU_GUID@@@Z 10008d74 f i CoinDispenser.obj
 0001:00007da2       ?RegisterServer@CComModule@ATL@@QAEJHPBU_GUID@@@Z 10008da2 f i CoinDispenser.obj
 0001:00007e18       ?RegisterSubkeys@CRegParser@ATL@@IAEJPA_WPAUHKEY__@@HH@Z 10008e18 f i CoinDispenser.obj
 0001:000084c5       ?Remove@CComDynamicUnkArray@ATL@@QAEHK@Z 100094c5 f i CoinDispenser.obj
 0001:000084ee       ?RemoveAll@?$CSimpleMap@PA_WPA_WVCExpansionVectorEqualHelper@ATL@@@ATL@@QAEXXZ 100094ee f i CoinDispenser.obj
 0001:0000851a       ?ResourceRegisterSz@CRegObject@ATL@@QAGJPB_W00@Z 1000951a f i CoinDispenser.obj
 0001:00008547       ?ResourceUnregisterSz@CRegObject@ATL@@QAGJPB_W00@Z 10009547 f i CoinDispenser.obj
 0001:00008574       ?SendOnDataChange@CComControlBase@ATL@@QAEJK@Z 10009574 f i CoinDispenser.obj
 0001:000085c1       ?SetControlFocus@CComControlBase@ATL@@QAEHH@Z 100095c1 f i CoinDispenser.obj
 0001:0000865e       ?SetMultiStringValue@CRegKey@ATL@@QAEJPB_W0@Z 1000965e f i CoinDispenser.obj
 0001:000086ba       ?SetStringValue@CRegKey@ATL@@QAEJPB_W0K@Z 100096ba f i CoinDispenser.obj
 0001:00008703       ?SkipAssignment@CRegParser@ATL@@IAEJPA_W@Z 10009703 f i CoinDispenser.obj
 0001:00008768       ?SkipWhiteSpace@CRegParser@ATL@@IAEXXZ 10009768 f i CoinDispenser.obj
 0001:0000878a       ?StrChrW@CRegParser@ATL@@KAPA_WPA_W_W@Z 1000978a f i CoinDispenser.obj
 0001:000087c7       ?Term@CAtlModule@ATL@@QAEXXZ 100097c7 f i CoinDispenser.obj
 0001:0000881a       ?Term@CComModule@ATL@@QAEXXZ 1000981a f i CoinDispenser.obj
 0001:00008872       ?UnregisterServer@?$CAtlModuleT@VCComModule@ATL@@@ATL@@QAEJHPBU_GUID@@@Z 10009872 f i CoinDispenser.obj
 0001:00008898       ?UnregisterServer@CComModule@ATL@@QAEJHPBU_GUID@@@Z 10009898 f i CoinDispenser.obj
 0001:0000890e       ?UpdateRegistryFromResource@CAtlModule@ATL@@QAGJIHPAU_ATL_REGMAP_ENTRY@2@@Z 1000990e f i CoinDispenser.obj
 0001:00008ad9       ?UpdateRegistryFromResource@CAtlModule@ATL@@QAGJPB_WHPAU_ATL_REGMAP_ENTRY@2@@Z 10009ad9 f i CoinDispenser.obj
 0001:00008caa       ?VTFromRegType@CRegParser@ATL@@KAHPB_WAAG@Z 10009caa f i CoinDispenser.obj
 0001:00008d17       ?WindowProc@?$CWindowImplBaseT@VCWindow@ATL@@V?$CWinTraits@$0FGAAAAAA@$0A@@2@@ATL@@SGJPAUHWND__@@IIJ@Z 10009d17 f i CoinDispenser.obj
 0001:00008e09       ?WriteToStream@CComBSTR@ATL@@QAEJPAUIStream@@@Z 10009e09 f i CoinDispenser.obj
 0001:00008e6b       ?WriteToStream@CComVariant@ATL@@QAEJPAUIStream@@@Z 10009e6b f i CoinDispenser.obj
 0001:00008fe5       ?WriteToStream@CComVariant@ATL@@QAEJPAUIStream@@G@Z 10009fe5 f i CoinDispenser.obj
 0001:0000904e       ?_AtlInitialConstruct@?$CComObjectRootEx@VCComMultiThreadModel@ATL@@@ATL@@QAEJXZ 1000a04e f i CoinDispenser.obj
 0001:00009063       ?_AtlVerifyStackAvailable@_ATL_SAFE_ALLOCA_IMPL@ATL@@YA_NK@Z 1000a063 f i CoinDispenser.obj
 0001:000090e1       ?atlCreate@?$CWindowImpl@VCOPOSCoinDispenser@@VCWindow@ATL@@V?$CWinTraits@$0FGAAAAAA@$0A@@3@@ATL@@QAEPAUHWND__@@PAU3@V_U_RECT@2@PB_WKKV_U_MENUorID@2@PAX@Z 1000a0e1 f i CoinDispenser.obj
 0001:00009125       ?atlCreate@?$CWindowImplBaseT@VCWindow@ATL@@V?$CWinTraits@$0FGAAAAAA@$0A@@2@@ATL@@QAEPAUHWND__@@PAU3@V_U_RECT@2@PB_WKKV_U_MENUorID@2@GPAX@Z 1000a125 f i CoinDispenser.obj
 0001:000091c1       ?copy@?$_Copy@UtagCONNECTDATA@@@ATL@@SAJPAUtagCONNECTDATA@@PBU3@@Z 1000a1c1 f i CoinDispenser.obj
 0001:000091f7       ?copy@?$_CopyInterface@UIConnectionPoint@@@ATL@@SAJPAPAUIConnectionPoint@@PBQAU3@@Z 1000a1f7 f i CoinDispenser.obj
 0001:00009225       ?memcpy_s@Checked@ATL@@YAXPAXIPBXI@Z 1000a225 f i CoinDispenser.obj
 0001:00009244       ?ocscpy_s@@YA_NPA_WIPB_W@Z 1000a244 f i CoinDispenser.obj
 0001:0000928e       ?wcscpy_s@Checked@ATL@@YAXPA_WIPB_W@Z 1000a28e f i CoinDispenser.obj
 0001:000092aa       _DllCanUnloadNow@0         1000a2aa f   CoinDispenser.obj
 0001:000092b6       _DllGetClassObject@12      1000a2b6 f   CoinDispenser.obj
 0001:000092c4       _DllMain@12                1000a2c4 f   CoinDispenser.obj
 0001:00009306       _DllRegisterServer@0       1000a306 f   CoinDispenser.obj
 0001:00009315       _DllUnregisterServer@0     1000a315 f   CoinDispenser.obj
 0001:00009324       _InlineIsEqualGUID         1000a324 f i CoinDispenser.obj
 0001:00009354       ___local_stdio_printf_options 1000a354 f i CoinDispenser.obj
 0001:0000935a       __vswprintf_s_l            1000a35a f i CoinDispenser.obj
 0001:00009407       _swprintf_s                1000a407 f i CoinDispenser.obj
 0001:00009423       ??0?$CComControl@VCOPOSCoinDispenser@@V?$CWindowImpl@VCOPOSCoinDispenser@@VCWindow@ATL@@V?$CWinTraits@$0FGAAAAAA@$0A@@3@@ATL@@@ATL@@QAE@XZ 1000a423 f i CoinDispenserImpl.obj
 0001:0000944a       ??0CComControlBase@ATL@@QAE@AAPAUHWND__@@@Z 1000a44a f i CoinDispenserImpl.obj
 0001:00009494       ??0COPOSCoinDispenser@@QAE@XZ 1000a494 f   CoinDispenserImpl.obj
 0001:000094e3       ??1?$CComControl@VCOPOSCoinDispenser@@V?$CWindowImpl@VCOPOSCoinDispenser@@VCWindow@ATL@@V?$CWinTraits@$0FGAAAAAA@$0A@@3@@ATL@@@ATL@@UAE@XZ 1000a4e3 f i CoinDispenserImpl.obj
 0001:000094fc       ??1?$IConnectionPointImpl@VCOPOSCoinDispenser@@$1?IID_IPropertyNotifySink@@3U_GUID@@BVCComDynamicUnkArray@ATL@@@ATL@@QAE@XZ 1000a4fc f i CoinDispenserImpl.obj
 0001:000094fc       ??1?$IConnectionPointImpl@VCOPOSCoinDispenser@@$1?DIID__IOPOSCoinDispenserEvents@@3U_GUID@@BVCComDynamicUnkArray@ATL@@@ATL@@QAE@XZ 1000a4fc f i CoinDispenserImpl.obj
 0001:00009539       ??1CComControlBase@ATL@@UAE@XZ 1000a539 f i CoinDispenserImpl.obj
 0001:0000959c       ??1COPOSCoinDispenser@@UAE@XZ 1000a59c f   CoinDispenserImpl.obj
 0001:000095e4       ?AdjustCashCounts@COPOSCoinDispenser@@UAGJPA_WPAJ@Z 1000a5e4 f   CoinDispenserImpl.obj
 0001:0000963b       ?CheckHealth@COPOSCoinDispenser@@UAGJJPAJ@Z 1000a63b f   CoinDispenserImpl.obj
 0001:0000968a       ?ClaimDevice@COPOSCoinDispenser@@UAGJJPAJ@Z 1000a68a f   CoinDispenserImpl.obj
 0001:000096ff       ?Close@COPOSCoinDispenser@@UAGJPAJ@Z 1000a6ff f   CoinDispenserImpl.obj
 0001:0000976d       ?CompareFirmwareVersion@COPOSCoinDispenser@@UAGJPA_WPAJ1@Z 1000a76d f   CoinDispenserImpl.obj
 0001:000097ed       ?DirectIO@COPOSCoinDispenser@@UAGJJPAJPAPA_W0@Z 1000a7ed f   CoinDispenserImpl.obj
 0001:0000989b       ?DispenseChange@COPOSCoinDispenser@@UAGJJPAJ@Z 1000a89b f   CoinDispenserImpl.obj
 0001:000098ea       ?DoInvoke@COPOSCoinDispenser@@IAEJJPAVOposVariant@@IHPAJ_N@Z 1000a8ea f   CoinDispenserImpl.obj
 0001:000099c6       ?EventClose@COPOSCoinDispenser@@IAEXXZ 1000a9c6 f i CoinDispenserImpl.obj
 0001:000099f9       ?EventInit@COPOSCoinDispenser@@IAEJXZ 1000a9f9 f i CoinDispenserImpl.obj
 0001:00009ac5       ?EventUninit@COPOSCoinDispenser@@IAEXXZ 1000aac5 f i CoinDispenserImpl.obj
 0001:00009b17       ?EventWindowProc@COPOSCoinDispenser@@IAGJIIJ@Z 1000ab17 f i CoinDispenserImpl.obj
 0001:00009b8e       ?FinalConstruct@COPOSCoinDispenser@@QAEJXZ 1000ab8e f   CoinDispenserImpl.obj
 0001:00009bc7       ?FireEventCleanup@COPOSCoinDispenser@@IAEXXZ 1000abc7 f i CoinDispenserImpl.obj
 0001:00009bdd       ?FireEventSetup@COPOSCoinDispenser@@IAE_NXZ 1000abdd f i CoinDispenserImpl.obj
 0001:00009c11       ?FreezeEvents@COPOSCoinDispenser@@MAGJH@Z 1000ac11 f   CoinDispenserImpl.obj
 0001:00009c62       ?GetOposProp@COPOSCoinDispenser@@IAEJJPAFJ@Z 1000ac62 f   CoinDispenserImpl.obj
 0001:00009c85       ?GetOposProp@COPOSCoinDispenser@@IAEJJPAJJ@Z 1000ac85 f   CoinDispenserImpl.obj
 0001:00009d54       ?GetOposProp@COPOSCoinDispenser@@IAEJJPAPA_WJ@Z 1000ad54 f   CoinDispenserImpl.obj
 0001:00009e30       ?OnDraw@COPOSCoinDispenser@@MAEJAAUATL_DRAWINFO@@@Z 1000ae30 f   CoinDispenserImpl.obj
 0001:00009ed0       ?Open@COPOSCoinDispenser@@UAGJPA_WPAJ@Z 1000aed0 f   CoinDispenserImpl.obj
 0001:0000a710       ?ReadCashCounts@COPOSCoinDispenser@@UAGJPAPA_WPAFPAJ@Z 1000b710 f   CoinDispenserImpl.obj
 0001:0000a790       ?ReleaseDevice@COPOSCoinDispenser@@UAGJPAJ@Z 1000b790 f   CoinDispenserImpl.obj
 0001:0000a7df       ?ResetStatistics@COPOSCoinDispenser@@UAGJPA_WPAJ@Z 1000b7df f   CoinDispenserImpl.obj
 0001:0000a836       ?RetrieveStatistics@COPOSCoinDispenser@@UAGJPAPA_WPAJ@Z 1000b836 f   CoinDispenserImpl.obj
 0001:0000a88d       ?SOProcessID@COPOSCoinDispenser@@UAGJPAJ@Z 1000b88d f   CoinDispenserImpl.obj
 0001:0000a8a1       ?SetCOFreezeEvents@COPOSCoinDispenser@@IAEXF@Z 1000b8a1 f   CoinDispenserImpl.obj
 0001:0000a941       ?SetOposProp@COPOSCoinDispenser@@IAEJJJJ@Z 1000b941 f   CoinDispenserImpl.obj
 0001:0000aa38       ?UpdateFirmware@COPOSCoinDispenser@@UAGJPA_WPAJ@Z 1000ba38 f   CoinDispenserImpl.obj
 0001:0000aa8f       ?UpdateStatistics@COPOSCoinDispenser@@UAGJPA_WPAJ@Z 1000ba8f f   CoinDispenserImpl.obj
 0001:0000aae6       ?get_BinaryConversion@COPOSCoinDispenser@@UAGJPAJ@Z 1000bae6 f   CoinDispenserImpl.obj
 0001:0000aafc       ?get_CapCompareFirmwareVersion@COPOSCoinDispenser@@UAGJPAF@Z 1000bafc f   CoinDispenserImpl.obj
 0001:0000ab15       ?get_CapEmptySensor@COPOSCoinDispenser@@UAGJPAF@Z 1000bb15 f   CoinDispenserImpl.obj
 0001:0000ab2e       ?get_CapJamSensor@COPOSCoinDispenser@@UAGJPAF@Z 1000bb2e f   CoinDispenserImpl.obj
 0001:0000ab47       ?get_CapNearEmptySensor@COPOSCoinDispenser@@UAGJPAF@Z 1000bb47 f   CoinDispenserImpl.obj
 0001:0000ab60       ?get_CapPowerReporting@COPOSCoinDispenser@@UAGJPAJ@Z 1000bb60 f   CoinDispenserImpl.obj
 0001:0000ab79       ?get_CapStatisticsReporting@COPOSCoinDispenser@@UAGJPAF@Z 1000bb79 f   CoinDispenserImpl.obj
 0001:0000ab92       ?get_CapUpdateFirmware@COPOSCoinDispenser@@UAGJPAF@Z 1000bb92 f   CoinDispenserImpl.obj
 0001:0000abab       ?get_CapUpdateStatistics@COPOSCoinDispenser@@UAGJPAF@Z 1000bbab f   CoinDispenserImpl.obj
 0001:0000abc4       ?get_CheckHealthText@COPOSCoinDispenser@@UAGJPAPA_W@Z 1000bbc4 f   CoinDispenserImpl.obj
 0001:0000abdd       ?get_Claimed@COPOSCoinDispenser@@UAGJPAF@Z 1000bbdd f   CoinDispenserImpl.obj
 0001:0000abf3       ?get_ControlObjectDescription@COPOSCoinDispenser@@UAGJPAPA_W@Z 1000bbf3 f   CoinDispenserImpl.obj
 0001:0000ac41       ?get_ControlObjectVersion@COPOSCoinDispenser@@UAGJPAJ@Z 1000bc41 f   CoinDispenserImpl.obj
 0001:0000ac54       ?get_DeviceDescription@COPOSCoinDispenser@@UAGJPAPA_W@Z 1000bc54 f   CoinDispenserImpl.obj
 0001:0000ac6d       ?get_DeviceEnabled@COPOSCoinDispenser@@UAGJPAF@Z 1000bc6d f   CoinDispenserImpl.obj
 0001:0000ac83       ?get_DeviceName@COPOSCoinDispenser@@UAGJPAPA_W@Z 1000bc83 f   CoinDispenserImpl.obj
 0001:0000ac9c       ?get_DispenserStatus@COPOSCoinDispenser@@UAGJPAJ@Z 1000bc9c f   CoinDispenserImpl.obj
 0001:0000acb5       ?get_FreezeEvents@COPOSCoinDispenser@@UAGJPAF@Z 1000bcb5 f   CoinDispenserImpl.obj
 0001:0000accb       ?get_OpenResult@COPOSCoinDispenser@@UAGJPAJ@Z 1000bccb f   CoinDispenserImpl.obj
 0001:0000ace2       ?get_PowerNotify@COPOSCoinDispenser@@UAGJPAJ@Z 1000bce2 f   CoinDispenserImpl.obj
 0001:0000acf8       ?get_PowerState@COPOSCoinDispenser@@UAGJPAJ@Z 1000bcf8 f   CoinDispenserImpl.obj
 0001:0000ad0e       ?get_ResultCode@COPOSCoinDispenser@@UAGJPAJ@Z 1000bd0e f   CoinDispenserImpl.obj
 0001:0000ad4c       ?get_ResultCodeExtended@COPOSCoinDispenser@@UAGJPAJ@Z 1000bd4c f   CoinDispenserImpl.obj
 0001:0000ad62       ?get_ServiceObjectDescription@COPOSCoinDispenser@@UAGJPAPA_W@Z 1000bd62 f   CoinDispenserImpl.obj
 0001:0000ad7b       ?get_ServiceObjectVersion@COPOSCoinDispenser@@UAGJPAJ@Z 1000bd7b f   CoinDispenserImpl.obj
 0001:0000ad91       ?get_State@COPOSCoinDispenser@@UAGJPAJ@Z 1000bd91 f   CoinDispenserImpl.obj
 0001:0000adbd       ?put_BinaryConversion@COPOSCoinDispenser@@UAGJJ@Z 1000bdbd f   CoinDispenserImpl.obj
 0001:0000add3       ?put_DeviceEnabled@COPOSCoinDispenser@@UAGJF@Z 1000bdd3 f   CoinDispenserImpl.obj
 0001:0000adf0       ?put_FreezeEvents@COPOSCoinDispenser@@UAGJF@Z 1000bdf0 f   CoinDispenserImpl.obj
 0001:0000ae3c       ?put_PowerNotify@COPOSCoinDispenser@@UAGJJ@Z 1000be3c f   CoinDispenserImpl.obj
 0001:0000ae52       ?s_EventWindowProc@COPOSCoinDispenser@@KGJPAUHWND__@@IIJ@Z 1000be52 f i CoinDispenserImpl.obj
 0001:0000aea4       ??_U@YAPAXI@Z              1000bea4 f   LIBCMT:new_array.obj
 0001:0000aead       ??3@YAXPAXI@Z              1000bead f   LIBCMT:delete_scalar_size.obj
 0001:0000aebb       ??_V@YAXPAX@Z              1000bebb f   LIBCMT:delete_array.obj
 0001:0000aec0       ??_V@YAXPAXI@Z             1000bec0 f   LIBCMT:delete_array_size.obj
 0001:0000af12       ___scrt_acquire_startup_lock 1000bf12 f   LIBCMT:utility.obj
 0001:0000af44       ___scrt_dllmain_after_initialize_c 1000bf44 f   LIBCMT:utility.obj
 0001:0000af6f       ___scrt_dllmain_before_initialize_c 1000bf6f f   LIBCMT:utility.obj
 0001:0000af7d       ___scrt_dllmain_crt_thread_attach 1000bf7d f   LIBCMT:utility.obj
 0001:0000af9c       ___scrt_dllmain_crt_thread_detach 1000bf9c f   LIBCMT:utility.obj
 0001:0000afa9       ___scrt_dllmain_exception_filter 1000bfa9 f   LIBCMT:utility.obj
 0001:0000afdd       ___scrt_dllmain_uninitialize_c 1000bfdd f   LIBCMT:utility.obj
 0001:0000b000       ___scrt_dllmain_uninitialize_critical 1000c000 f   LIBCMT:utility.obj
 0001:0000b00d       ___scrt_initialize_crt     1000c00d f   LIBCMT:utility.obj
 0001:0000b046       ___scrt_initialize_onexit_tables 1000c046 f   LIBCMT:utility.obj
 0001:0000b0cd       ___scrt_is_nonwritable_in_current_image 1000c0cd f   LIBCMT:utility.obj
 0001:0000b161       ___scrt_release_startup_lock 1000c161 f   LIBCMT:utility.obj
 0001:0000b17e       ___scrt_uninitialize_crt   1000c17e f   LIBCMT:utility.obj
 0001:0000b1a6       __onexit                   1000c1a6 f   LIBCMT:utility.obj
 0001:0000b1d3       _atexit                    1000c1d3 f   LIBCMT:utility.obj
 0001:0000b1e8       ??3@YAXPAX@Z               1000c1e8 f   LIBCMT:delete_scalar.obj
 0001:0000b2b2       __Init_thread_footer       1000c2b2 f   LIBCMT:thread_safe_statics.obj
 0001:0000b2fc       __Init_thread_header       1000c2fc f   LIBCMT:thread_safe_statics.obj
 0001:0000b34e       __Init_thread_notify       1000c34e f   LIBCMT:thread_safe_statics.obj
 0001:0000b384       __Init_thread_wait         1000c384 f   LIBCMT:thread_safe_statics.obj
 0001:0000b3d2       ___raise_securityfailure   1000c3d2 f   LIBCMT:gs_report.obj
 0001:0000b3fa       ___report_gsfailure        1000c3fa f   LIBCMT:gs_report.obj
 0001:0000b4f3       ___report_rangecheckfailure 1000c4f3 f   LIBCMT:gs_report.obj
 0001:0000b4ff       ___report_securityfailure  1000c4ff f   LIBCMT:gs_report.obj
 0001:0000b5cd       ??2@YAPAXIABUnothrow_t@std@@@Z 1000c5cd f   LIBCMT:new_scalar_nothrow.obj
 0001:0000b61d       ??_U@YAPAXIABUnothrow_t@std@@@Z 1000c61d f   LIBCMT:new_array_nothrow.obj
 0001:0000b626       @__security_check_cookie@4 1000c626 f   LIBCMT:secchk.obj
 0001:0000b640       __SEH_prolog4_GS           1000c640 f   LIBCMT:sehprolg4gs.obj
 0001:0000b689       __SEH_epilog4_GS           1000c689 f   LIBCMT:sehprolg4gs.obj
 0001:0000b6a0       __alloca_probe_16          1000c6a0 f   LIBCMT:alloca16.obj
 0001:0000b6b6       __alloca_probe_8           1000c6b6     LIBCMT:alloca16.obj
 0001:0000b6d0       __alloca_probe             1000c6d0 f   LIBCMT:chkstk.obj
 0001:0000b6d0       __chkstk                   1000c6d0 f   LIBCMT:chkstk.obj
 0001:0000ba3d       __DllMainCRTStartup@12     1000ca3d f   LIBCMT:dll_dllmain.obj
 0001:0000ba60       ??2@YAPAXI@Z               1000ca60 f   LIBCMT:new_scalar.obj
 0001:0000ba90       ___isa_available_init      1000ca90 f   LIBCMT:cpu_disp.obj
 0001:0000bc60       ___scrt_is_ucrt_dll_in_use 1000cc60 f   LIBCMT:ucrt_detection.obj
 0001:0000bc6c       ___scrt_fastfail           1000cc6c f   LIBCMT:utility_desktop.obj
 0001:0000bd86       __crt_debugger_hook        1000cd86 f   LIBCMT:utility_desktop.obj
 0001:0000bd90       __SEH_prolog4              1000cd90 f   LIBCMT:sehprolg4.obj
 0001:0000bdd6       __SEH_epilog4              1000cdd6 f   LIBCMT:sehprolg4.obj
 0001:0000bdeb       @_guard_check_icall_nop@4  1000cdeb f i LIBCMT:guard_support.obj
 0001:0000be39       ___security_init_cookie    1000ce39 f   LIBCMT:gs_support.obj
 0001:0000be84       ?__scrt_initialize_type_info@@YAXXZ 1000ce84 f   LIBCMT:tncleanup.obj
 0001:0000be90       ?__scrt_uninitialize_type_info@@YAXXZ 1000ce90 f   LIBCMT:tncleanup.obj
 0001:0000be9c       ___local_stdio_scanf_options 1000ce9c f i LIBCMT:default_local_stdio_options.obj
 0001:0000bea2       ___scrt_initialize_default_local_stdio_options 1000cea2 f   LIBCMT:default_local_stdio_options.obj
 0001:0000bebf       ___scrt_get_dyn_tls_init_callback 1000cebf f   LIBCMT:dyn_tls_init.obj
 0001:0000bec5       __RTC_Initialize           1000cec5 f   LIBCMT:initsect.obj
 0001:0000bef1       __RTC_Terminate            1000cef1 f   LIBCMT:initsect.obj
 0001:0000bf1d       ??0bad_alloc@std@@QAE@ABV01@@Z 1000cf1d f i LIBCMT:throw_bad_alloc.obj
 0001:0000bf38       ??0bad_alloc@std@@QAE@XZ   1000cf38 f i LIBCMT:throw_bad_alloc.obj
 0001:0000bf50       ??0bad_array_new_length@std@@QAE@ABV01@@Z 1000cf50 f i LIBCMT:throw_bad_alloc.obj
 0001:0000bf6b       ??0bad_array_new_length@std@@QAE@XZ 1000cf6b f i LIBCMT:throw_bad_alloc.obj
 0001:0000bf83       ??0exception@std@@QAE@ABV01@@Z 1000cf83 f i LIBCMT:throw_bad_alloc.obj
 0001:0000bfaf       ??1bad_array_new_length@std@@UAE@XZ 1000cfaf f i LIBCMT:throw_bad_alloc.obj
 0001:0000bfaf       ??1bad_alloc@std@@UAE@XZ   1000cfaf f i LIBCMT:throw_bad_alloc.obj
 0001:0000bfaf       ??1bad_exception@std@@UAE@XZ 1000cfaf f i libvcruntime:frame.obj
 0001:0000bfc0       ??_Ebad_array_new_length@std@@UAEPAXI@Z 1000cfc0 f i LIBCMT:throw_bad_alloc.obj
 0001:0000bfc0       ??_Gbad_alloc@std@@UAEPAXI@Z 1000cfc0 f i LIBCMT:throw_bad_alloc.obj
 0001:0000bfc0       ??_Gbad_array_new_length@std@@UAEPAXI@Z 1000cfc0 f i LIBCMT:throw_bad_alloc.obj
 0001:0000bfc0       ??_Gexception@std@@UAEPAXI@Z 1000cfc0 f i LIBCMT:throw_bad_alloc.obj
 0001:0000bfc0       ??_Ebad_alloc@std@@UAEPAXI@Z 1000cfc0 f i LIBCMT:throw_bad_alloc.obj
 0001:0000bfc0       ??_Eexception@std@@UAEPAXI@Z 1000cfc0 f i LIBCMT:throw_bad_alloc.obj
 0001:0000bfc0       ??_Gbad_exception@std@@UAEPAXI@Z 1000cfc0 f i libvcruntime:frame.obj
 0001:0000bfc0       ??_Ebad_exception@std@@UAEPAXI@Z 1000cfc0 f i libvcruntime:frame.obj
 0001:0000bfed       ?__scrt_throw_std_bad_alloc@@YAXXZ 1000cfed f   LIBCMT:throw_bad_alloc.obj
 0001:0000c00a       ?__scrt_throw_std_bad_array_new_length@@YAXXZ 1000d00a f   LIBCMT:throw_bad_alloc.obj
 0001:0000c027       ?what@exception@std@@UBEPBDXZ 1000d027 f i LIBCMT:throw_bad_alloc.obj
 0001:0000c034       ??_Etype_info@@UAEPAXI@Z   1000d034 f i LIBCMT:std_type_info_static.obj
 0001:0000c034       ??_Gtype_info@@UAEPAXI@Z   1000d034 f i LIBCMT:std_type_info_static.obj
 0001:0000c057       ??0CAtlBaseModule@ATL@@QAE@XZ 1000d057 f   atls:atlbase.obj
 0001:0000c0aa       ??0_ATL_BASE_MODULE70@ATL@@QAE@XZ 1000d0aa f i atls:atlbase.obj
 0001:0000c0cd       ??1CAtlBaseModule@ATL@@QAE@XZ 1000d0cd f   atls:atlbase.obj
 0001:0000c1ba       ?Init@_stdcallthunk@ATL@@QAEHKPAX@Z 1000d1ba f i atls:atlthunk.obj
 0001:0000c1ef       ?__AllocStdCallThunk_cmn@@YAPAXXZ 1000d1ef f   atls:atlthunk.obj
 0001:0000c2b5       ?__FreeStdCallThunk_cmn@@YAXPAX@Z 1000d2b5 f   atls:atlthunk.obj
 0001:0000c350       _AtlThunk_AllocateData@0   1000d350 f   atls:atlthunk.obj
 0001:0000c3b5       _AtlThunk_DataToCode@4     1000d3b5 f   atls:atlthunk.obj
 0001:0000c3fc       _AtlThunk_FreeData@4       1000d3fc f   atls:atlthunk.obj
 0001:0000c452       _AtlThunk_InitData@12      1000d452 f   atls:atlthunk.obj
 0001:0000c4a1       __get_purecall_handler     1000d4a1 f   libvcruntime:purevirt.obj
 0001:0000c4a7       __purecall                 1000d4a7 f   libvcruntime:purevirt.obj
 0001:0000c4c3       _wcsstr                    1000d4c3 f   libvcruntime:wcsstr.obj
 0001:0000c770       __except_handler4          1000d770 f   libvcruntime:chandler4.obj
 0001:0000c8ce       _memcmp                    1000d8ce f   libvcruntime:memcmp.obj
 0001:0000d7e0       _memcpy                    1000e7e0 f   libvcruntime:memcpy.obj
 0001:0000dd60       _memset                    1000ed60 f   libvcruntime:memset.obj
 0001:0000deba       ___vcrt_initialize         1000eeba f   libvcruntime:initialization.obj
 0001:0000ded9       ___vcrt_thread_attach      1000eed9 f   libvcruntime:initialization.obj
 0001:0000dee4       ___vcrt_thread_detach      1000eee4 f   libvcruntime:initialization.obj
 0001:0000deef       ___vcrt_uninitialize       1000eeef f   libvcruntime:initialization.obj
 0001:0000df06       ___vcrt_uninitialize_critical 1000ef06 f   libvcruntime:initialization.obj
 0001:0000df0e       ?GetRangeOfTrysToCheck@__FrameHandler3@@SA?AU?$pair@Viterator@TryBlockMap@__FrameHandler3@@V123@@std@@AAVTryBlockMap@1@HPAXPBU_s_FuncInfo@@H@Z 1000ef0e f   libvcruntime:trnsctrl.obj
 0001:0000df7e       ?_CallCatchBlock2@@YAPAXPAUEHRegistrationNode@@PBU_s_FuncInfo@@PAXHK@Z 1000ef7e f   libvcruntime:trnsctrl.obj
 0001:0000dfdc       ?_CallSETranslator@@YAHPAUEHExceptionRecord@@PAUEHRegistrationNode@@PAX2PBU_s_FuncInfo@@H1@Z 1000efdc f   libvcruntime:trnsctrl.obj
 0001:0000e0c2       ?_JumpToContinuation@@YGXPAXPAUEHRegistrationNode@@@Z 1000f0c2 f   libvcruntime:trnsctrl.obj
 0001:0000e0f2       ?_UnwindNestedFrames@@YGXPAUEHRegistrationNode@@PAUEHExceptionRecord@@@Z 1000f0f2 f   libvcruntime:trnsctrl.obj
 0001:0000e145       __CatchGuardHandler        1000f145 f   libvcruntime:trnsctrl.obj
 0001:0000e176       __CreateFrameInfo          1000f176 f   libvcruntime:trnsctrl.obj
 0001:0000e19a       __FindAndUnlinkFrame       1000f19a f   libvcruntime:trnsctrl.obj
 0001:0000e1e2       __TranslatorGuardHandler   1000f1e2 f   libvcruntime:trnsctrl.obj
 0001:0000e27f       ___CxxFrameHandler3        1000f27f f   libvcruntime:trnsctrl.obj
 0001:0000e2b5       ___DestructExceptionObject 1000f2b5 f   libvcruntime:ehhelpers.obj
 0001:0000e356       ?_CallMemberFunction0@@YGXQAX0@Z 1000f356 f i libvcruntime:ehhelpers.obj
 0001:0000e3bb       __IsExceptionObjectToBeDestroyed 1000f3bb f   libvcruntime:ehhelpers.obj
 0001:0000e3e1       ___AdjustPointer           1000f3e1 f   libvcruntime:ehhelpers.obj
 0001:0000e406       ___FrameUnwindFilter       1000f406 f   libvcruntime:ehhelpers.obj
 0001:0000e45c       ___std_type_info_compare   1000f45c f   libvcruntime:std_type_info.obj
 0001:0000e498       ___std_type_info_destroy_list 1000f498 f   libvcruntime:std_type_info.obj
 0001:0000e4bb       ___std_exception_copy      1000f4bb f   libvcruntime:std_exception.obj
 0001:0000e51e       ___std_exception_destroy   1000f51e f   libvcruntime:std_exception.obj
 0001:0000e53d       __CxxThrowException@8      1000f53d f   libvcruntime:throw.obj
 0001:0000e5b0       _memmove                   1000f5b0 f   libvcruntime:memmove.obj
 0001:0000eb30       __local_unwind4            1000fb30 f   libvcruntime:exsup4.obj
 0001:0000ec08       __seh_longjmp_unwind4@4    1000fc08 f   libvcruntime:exsup4.obj
 0001:0000ec30       @_EH4_CallFilterFunc@8     1000fc30 f   libvcruntime:exsup4.obj
 0001:0000ec48       @_EH4_TransferToHandler@8  1000fc48 f   libvcruntime:exsup4.obj
 0001:0000ec64       @_EH4_GlobalUnwind2@8      1000fc64 f   libvcruntime:exsup4.obj
 0001:0000ec80       @_EH4_LocalUnwind@16       1000fc80 f   libvcruntime:exsup4.obj
 0001:0000ec97       ___except_validate_context_record 1000fc97 f   libvcruntime:jbcxrval.obj
 0001:0000ecc7       ___except_validate_jump_buffer 1000fcc7 f   libvcruntime:jbcxrval.obj
 0001:0000ecf4       ___vcrt_freefls@4          1000fcf4 f   libvcruntime:per_thread_data.obj
 0001:0000ed10       ___vcrt_freeptd            1000fd10 f   libvcruntime:per_thread_data.obj
 0001:0000ed46       ___vcrt_getptd             1000fd46 f   libvcruntime:per_thread_data.obj
 0001:0000ed54       ___vcrt_getptd_noexit      1000fd54 f   libvcruntime:per_thread_data.obj
 0001:0000ede6       ___vcrt_initialize_ptd     1000fde6 f   libvcruntime:per_thread_data.obj
 0001:0000ee19       ___vcrt_uninitialize_ptd   1000fe19 f   libvcruntime:per_thread_data.obj
 0001:0000ee34       ___vcrt_initialize_locks   1000fe34 f   libvcruntime:locks.obj
 0001:0000ee70       ___vcrt_uninitialize_locks 1000fe70 f   libvcruntime:locks.obj
 0001:0000f5e2       ??$TypeMatchHelper@V__FrameHandler3@@@@YAHPBU_s_HandlerType@@PBU_s_CatchableType@@PBU_s_ThrowInfo@@@Z 100105e2 f i libvcruntime:frame.obj
 0001:0000f670       ??$__InternalCxxFrameHandler@V__FrameHandler3@@@@YA?AW4_EXCEPTION_DISPOSITION@@PAUEHExceptionRecord@@PAUEHRegistrationNode@@PAU_CONTEXT@@PAXPBU_s_FuncInfo@@H1E@Z 10010670 f i libvcruntime:frame.obj
 0001:0000f772       ??0bad_exception@std@@QAE@ABV01@@Z 10010772 f i libvcruntime:frame.obj
 0001:0000f78d       ??0bad_exception@std@@QAE@XZ 1001078d f i libvcruntime:frame.obj
 0001:0000f7a5       ??8type_info@@QBE_NABV0@@Z 100107a5 f i libvcruntime:frame.obj
 0001:0000fa0c       ?FrameUnwindToEmptyState@__FrameHandler3@@SAXPAUEHRegistrationNode@@PAXPBU_s_FuncInfo@@@Z 10010a0c f   libvcruntime:frame.obj
 0001:0000fa24       ?FrameUnwindToState@__FrameHandler3@@SAXPAUEHRegistrationNode@@PAXPBU_s_FuncInfo@@H@Z 10010a24 f   libvcruntime:frame.obj
 0001:0000fba6       ?_CallMemberFunction1@@YGXQAX00@Z 10010ba6 f i libvcruntime:frame.obj
 0001:0000fbb6       ?_CallMemberFunction2@@YGXQAX00H@Z 10010bb6 f i libvcruntime:frame.obj
 0001:0000fbc9       ?getESTypes@__FrameHandler3@@SAPBU_s_ESTypeList@@PBU_s_FuncInfo@@@Z 10010bc9 f i libvcruntime:frame.obj
 0001:0000fbe0       __CallSettingFrame@12      10010be0 f   libvcruntime:lowhelpr.obj
 0001:0000fc07       __NLG_Return               10010c07     libvcruntime:lowhelpr.obj
 0001:0000fc30       __global_unwind2           10010c30 f   libvcruntime:exsup.obj
 0001:0000fc96       __local_unwind2            10010c96 f   libvcruntime:exsup.obj
 0001:0000fd1a       __abnormal_termination     10010d1a f   libvcruntime:exsup.obj
 0001:0000fd40       __NLG_Notify1              10010d40 f   libvcruntime:exsup.obj
 0001:0000fd4c       __NLG_Notify               10010d4c f   libvcruntime:exsup.obj
 0001:0000fd63       __NLG_Dispatch             10010d63     libvcruntime:exsup.obj
 0001:0000fd63       __NLG_Dispatch2            10010d63     libvcruntime:exsup.obj
 0001:0000fd6b       __NLG_Call                 10010d6b f   libvcruntime:exsup.obj
 0001:0000fd6d       __NLG_Return2              10010d6d     libvcruntime:exsup.obj
 0001:0000fe51       ___vcrt_FlsAlloc           10010e51 f   libvcruntime:winapi_downlevel.obj
 0001:0000fe8c       ___vcrt_FlsFree            10010e8c f   libvcruntime:winapi_downlevel.obj
 0001:0000fec7       ___vcrt_FlsGetValue        10010ec7 f   libvcruntime:winapi_downlevel.obj
 0001:0000ff02       ___vcrt_FlsSetValue        10010f02 f   libvcruntime:winapi_downlevel.obj
 0001:0000ff40       ___vcrt_InitializeCriticalSectionEx 10010f40 f   libvcruntime:winapi_downlevel.obj
 0001:0000ff87       _unexpected                10010f87 f   libvcruntime:unexpected.obj
 0001:0000ffa4       ?GetCurrentState@__FrameHandler3@@SAHPAUEHRegistrationNode@@PAXPBU_s_FuncInfo@@@Z 10010fa4 f   libvcruntime:ehstate.obj
 0001:0000ffc1       ?SetState@__FrameHandler3@@SAXPAUEHRegistrationNode@@PBU_s_FuncInfo@@H@Z 10010fc1 f   libvcruntime:ehstate.obj
 0001:0000ffcf       _free                      10010fcf f   libucrt:free.obj
 0001:0000ffea       ___acrt_call_reportfault   10010fea f   libucrt:invalid_parameter.obj
 0001:00010123       ___acrt_initialize_invalid_parameter_handler 10011123 f   libucrt:invalid_parameter.obj
 0001:00010132       __invalid_parameter        10011132 f   libucrt:invalid_parameter.obj
 0001:00010196       __invalid_parameter_noinfo 10011196 f   libucrt:invalid_parameter.obj
 0001:000101a6       __invoke_watson            100111a6 f   libucrt:invalid_parameter.obj
 0001:000101da       ___acrt_errno_from_os_error 100111da f   libucrt:errno.obj
 0001:0001021d       ___acrt_errno_map_os_error 1001121d f   libucrt:errno.obj
 0001:00010240       ___doserrno                10011240 f   libucrt:errno.obj
 0001:00010253       __errno                    10011253 f   libucrt:errno.obj
 0001:00010266       _calloc                    10011266 f   libucrt:calloc.obj
 0001:00010271       _malloc                    10011271 f   libucrt:malloc.obj
 0001:0001027c       __recalloc                 1001127c f   libucrt:recalloc.obj
 0001:00010287       __recalloc_base            10011287 f   libucrt:recalloc.obj
 0001:000102f4       __resetstkoflw             100112f4 f   libucrt:resetstk.obj
 0001:000103b9       _wcscat_s                  100113b9 f   libucrt:wcscat_s.obj
 0001:0001042e       _wcscpy_s                  1001142e f   libucrt:wcscpy_s.obj
 0001:0001055d       _wcsncpy_s                 1001155d f   libucrt:wcsncpy_s.obj
 0001:00010769       ??$count@D@formatting_buffer@__crt_stdio_output@@QBEIXZ 10011769 f i libucrt:output.obj
 0001:00010781       ??$count@_W@formatting_buffer@__crt_stdio_output@@QBEIXZ 10011781 f i libucrt:output.obj
 0001:0001079a       ??$ensure_buffer_is_big_enough@D@formatting_buffer@__crt_stdio_output@@QAE_NI@Z 1001179a f i libucrt:output.obj
 0001:00010817       ??$ensure_buffer_is_big_enough@_W@formatting_buffer@__crt_stdio_output@@QAE_NI@Z 10011817 f i libucrt:output.obj
 0001:00010895       ??$is_wide_character_specifier@_W@__crt_stdio_output@@YA_N_K_WW4length_modifier@0@@Z 10011895 f i libucrt:output.obj
 0001:000108e3       ??$scratch_data@D@formatting_buffer@__crt_stdio_output@@QAEPADXZ 100118e3 f i libucrt:output.obj
 0001:00010901       ??$type_case_integer_parse_into_buffer@I@?$output_processor@_WV?$string_output_adapter@_W@__crt_stdio_output@@V?$format_validation_base@_WV?$string_output_adapter@_W@__crt_stdio_output@@@2@@__crt_stdio_output@@AAEXII_N@Z 10011901 f i libucrt:output.obj
 0001:00010988       ??$type_case_integer_parse_into_buffer@_K@?$output_processor@_WV?$string_output_adapter@_W@__crt_stdio_output@@V?$format_validation_base@_WV?$string_output_adapter@_W@__crt_stdio_output@@@2@@__crt_stdio_output@@AAEX_KI_N@Z 10011988 f i libucrt:output.obj
 0001:00010a2a       ??$write_multiple_characters@V?$string_output_adapter@_W@__crt_stdio_output@@D@__crt_stdio_output@@YAXABV?$string_output_adapter@_W@0@DHQAH@Z 10011a2a f i libucrt:output.obj
 0001:00010a5b       ??0?$common_data@_W@__crt_stdio_output@@IAE@XZ 10011a5b f i libucrt:output.obj
 0001:00010aa5       ??0?$output_adapter_data@_WV?$string_output_adapter@_W@__crt_stdio_output@@@__crt_stdio_output@@IAE@ABV?$string_output_adapter@_W@1@_KQB_WQAU__crt_locale_pointers@@QAD@Z 10011aa5 f i libucrt:output.obj
 0001:00010ae1       ??0_LocaleUpdate@@QAE@QAU__crt_locale_pointers@@@Z 10011ae1 f i libucrt:output.obj
 0001:00010b64       ??1formatting_buffer@__crt_stdio_output@@QAE@XZ 10011b64 f i libucrt:output.obj
 0001:00010b7e       ??4?$__crt_unique_heap_ptr@DU__crt_internal_free_policy@@@@QAEAAV0@$$QAV0@@Z 10011b7e f i libucrt:output.obj
 0001:00010bb0       ?crop_zeroes@__crt_stdio_output@@YAXPADQAU__crt_locale_pointers@@@Z 10011bb0 f i libucrt:output.obj
 0001:00010c31       ?find_next_state@?$output_processor@_WV?$string_output_adapter@_W@__crt_stdio_output@@V?$format_validation_base@_WV?$string_output_adapter@_W@__crt_stdio_output@@@2@@__crt_stdio_output@@ABE?AW4state@2@_WW432@@Z 10011c31 f i libucrt:output.obj
 0001:00010c70       ?force_decimal_point@__crt_stdio_output@@YAXPADQAU__crt_locale_pointers@@@Z 10011c70 f i libucrt:output.obj
 0001:00010cd5       ?parse_int_from_format_string@?$output_processor@_WV?$string_output_adapter@_W@__crt_stdio_output@@V?$format_validation_base@_WV?$string_output_adapter@_W@__crt_stdio_output@@@2@@__crt_stdio_output@@AAE_NQAH@Z 10011cd5 f i libucrt:output.obj
 0001:00010d4b       ?process@?$output_processor@_WV?$string_output_adapter@_W@__crt_stdio_output@@V?$format_validation_base@_WV?$string_output_adapter@_W@__crt_stdio_output@@@2@@__crt_stdio_output@@QAEHXZ 10011d4b f i libucrt:output.obj
 0001:00010e73       ?state_case_flag@?$output_processor@_WV?$string_output_adapter@_W@__crt_stdio_output@@V?$format_validation_base@_WV?$string_output_adapter@_W@__crt_stdio_output@@@2@@__crt_stdio_output@@AAE_NXZ 10011e73 f i libucrt:output.obj
 0001:00010eb0       ?state_case_normal@?$output_processor@_WV?$string_output_adapter@_W@__crt_stdio_output@@V?$format_validation_base@_WV?$string_output_adapter@_W@__crt_stdio_output@@@2@@__crt_stdio_output@@AAE_NXZ 10011eb0 f i libucrt:output.obj
 0001:00010ecf       ?state_case_normal_common@?$output_processor@_WV?$string_output_adapter@_W@__crt_stdio_output@@V?$format_validation_base@_WV?$string_output_adapter@_W@__crt_stdio_output@@@2@@__crt_stdio_output@@AAE_NXZ 10011ecf f i libucrt:output.obj
 0001:00010eea       ?state_case_precision@?$output_processor@_WV?$string_output_adapter@_W@__crt_stdio_output@@V?$format_validation_base@_WV?$string_output_adapter@_W@__crt_stdio_output@@@2@@__crt_stdio_output@@AAE_NXZ 10011eea f i libucrt:output.obj
 0001:00010f11       ?state_case_size@?$output_processor@_WV?$string_output_adapter@_W@__crt_stdio_output@@V?$format_validation_base@_WV?$string_output_adapter@_W@__crt_stdio_output@@@2@@__crt_stdio_output@@AAE_NXZ 10011f11 f i libucrt:output.obj
 0001:00011089       ?state_case_type@?$output_processor@_WV?$string_output_adapter@_W@__crt_stdio_output@@V?$format_validation_base@_WV?$string_output_adapter@_W@__crt_stdio_output@@@2@@__crt_stdio_output@@AAE_NXZ 10012089 f i libucrt:output.obj
 0001:000112e6       ?state_case_width@?$output_processor@_WV?$string_output_adapter@_W@__crt_stdio_output@@V?$format_validation_base@_WV?$string_output_adapter@_W@__crt_stdio_output@@@2@@__crt_stdio_output@@AAE_NXZ 100122e6 f i libucrt:output.obj
 0001:00011320       ?to_integer_size@__crt_stdio_output@@YAIW4length_modifier@1@@Z 10012320 f i libucrt:output.obj
 0001:0001137c       ?type_case_Z@?$output_processor@_WV?$string_output_adapter@_W@__crt_stdio_output@@V?$format_validation_base@_WV?$string_output_adapter@_W@__crt_stdio_output@@@2@@__crt_stdio_output@@AAE_NXZ 1001237c f i libucrt:output.obj
 0001:000113d6       ?type_case_a@?$output_processor@_WV?$string_output_adapter@_W@__crt_stdio_output@@V?$format_validation_base@_WV?$string_output_adapter@_W@__crt_stdio_output@@@2@@__crt_stdio_output@@AAE_NXZ 100123d6 f i libucrt:output.obj
 0001:0001153d       ?type_case_c_tchar@?$output_processor@_WV?$string_output_adapter@_W@__crt_stdio_output@@V?$format_validation_base@_WV?$string_output_adapter@_W@__crt_stdio_output@@@2@@__crt_stdio_output@@AAE_N_W@Z 1001253d f i libucrt:output.obj
 0001:000115d3       ?type_case_integer@?$output_processor@_WV?$string_output_adapter@_W@__crt_stdio_output@@V?$format_validation_base@_WV?$string_output_adapter@_W@__crt_stdio_output@@@2@@__crt_stdio_output@@AAE_NI_N@Z 100125d3 f i libucrt:output.obj
 0001:00011728       ?type_case_n@?$output_processor@_WV?$string_output_adapter@_W@__crt_stdio_output@@V?$format_validation_base@_WV?$string_output_adapter@_W@__crt_stdio_output@@@2@@__crt_stdio_output@@AAE_NXZ 10012728 f i libucrt:output.obj
 0001:0001179c       ?type_case_o@?$output_processor@_WV?$string_output_adapter@_W@__crt_stdio_output@@V?$format_validation_base@_WV?$string_output_adapter@_W@__crt_stdio_output@@@2@@__crt_stdio_output@@AAE_NXZ 1001279c f i libucrt:output.obj
 0001:000117bb       ?type_case_p@?$output_processor@_WV?$string_output_adapter@_W@__crt_stdio_output@@V?$format_validation_base@_WV?$string_output_adapter@_W@__crt_stdio_output@@@2@@__crt_stdio_output@@AAE_NXZ 100127bb f i libucrt:output.obj
 0001:000117d3       ?type_case_s@?$output_processor@_WV?$string_output_adapter@_W@__crt_stdio_output@@V?$format_validation_base@_WV?$string_output_adapter@_W@__crt_stdio_output@@@2@@__crt_stdio_output@@AAE_NXZ 100127d3 f i libucrt:output.obj
 0001:00011846       ?type_case_s_compute_narrow_string_length@?$output_processor@_WV?$string_output_adapter@_W@__crt_stdio_output@@V?$format_validation_base@_WV?$string_output_adapter@_W@__crt_stdio_output@@@2@@__crt_stdio_output@@ABEHH_W@Z 10012846 f i libucrt:output.obj
 0001:0001188d       ?validate@?$string_output_adapter@_W@__crt_stdio_output@@QBE_NXZ 1001288d f i libucrt:output.obj
 0001:0001188d       ?validate@?$c_string_character_source@_W@__crt_strtox@@QBE_NXZ 1001288d f i libucrt:atox.obj
 0001:000118a8       ?validate_and_update_state_at_end_of_format_string@?$format_validation_base@_WV?$string_output_adapter@_W@__crt_stdio_output@@@__crt_stdio_output@@IBE_NXZ 100128a8 f i libucrt:output.obj
 0001:000118ca       ?write_character@?$string_output_adapter@_W@__crt_stdio_output@@QBE_N_WQAH@Z 100128ca f i libucrt:output.obj
 0001:0001190f       ?write_stored_string_tchar@?$output_processor@_WV?$string_output_adapter@_W@__crt_stdio_output@@V?$format_validation_base@_WV?$string_output_adapter@_W@__crt_stdio_output@@@2@@__crt_stdio_output@@AAE_N_W@Z 1001290f f i libucrt:output.obj
 0001:0001199c       ?write_string@?$string_output_adapter@_W@__crt_stdio_output@@QBEXQB_WHQAHAAV__crt_deferred_errno_cache@@@Z 1001299c f i libucrt:output.obj
 0001:00011a0d       ___acrt_locale_get_ctype_array_value 10012a0d f i libucrt:output.obj
 0001:00011a2f       ___stdio_common_vswprintf_s 10012a2f f   libucrt:output.obj
 0001:00011a53       __seh_filter_dll           10012a53 f   libucrt:exception_filter.obj
 0001:00011a73       __seh_filter_exe           10012a73 f   libucrt:exception_filter.obj
 0001:00011e41       ___acrt_initialize_thread_local_exit_callback 10012e41 f   libucrt:exit.obj
 0001:00011e50       __cexit                    10012e50 f   libucrt:exit.obj
 0001:00011e5f       __exit                     10012e5f f   libucrt:exit.obj
 0001:00011e75       __is_c_termination_complete 10012e75 f   libucrt:exit.obj
 0001:00012126       ___acrt_allocate_buffer_for_argv 10013126 f   libucrt:argv_parsing.obj
 0001:00012175       __configure_narrow_argv    10013175 f   libucrt:argv_parsing.obj
 0001:000122d2       ??$uninitialize@A6AXAAPAPAD@Z@?$dual_state_global@PAPAD@__crt_state_management@@QAEXA6AXAAPAPAD@Z@Z 100132d2 f i libucrt:environment_initialization.obj
 0001:000122d2       ??$uninitialize@A6AXAAPAPA_W@Z@?$dual_state_global@PAPA_W@__crt_state_management@@QAEXA6AXAAPAPA_W@Z@Z 100132d2 f i libucrt:environment_initialization.obj
 0001:00012331       ___dcrt_uninitialize_environments_nolock 10013331 f   libucrt:environment_initialization.obj
 0001:00012368       __initialize_narrow_environment 10013368 f   libucrt:environment_initialization.obj
 0001:00012423       ??$__crt_fast_encode_pointer@PAP6AXXZ@@YAPAP6AXXZQAP6AXXZ@Z 10013423 f i libucrt:onexit.obj
 0001:00012423       ??$__crt_fast_encode_pointer@P6AHXZ@@YAP6AHXZQ6AHXZ@Z 10013423 f i libucrt:onexit.obj
 0001:00012423       ??$__crt_fast_encode_pointer@PAX@@YAPAXQAX@Z 10013423 f i libucrt:initialization.obj
 0001:00012645       __crt_atexit               10013645 f   libucrt:onexit.obj
 0001:0001265b       __execute_onexit_table     1001365b f   libucrt:onexit.obj
 0001:00012688       __initialize_onexit_table  10013688 f   libucrt:onexit.obj
 0001:000126b1       __register_onexit_function 100136b1 f   libucrt:onexit.obj
 0001:0001270b       ___acrt_uninitialize_command_line 1001370b f   libucrt:argv_data.obj
 0001:000127e2       ___acrt_initialize         100137e2 f   libucrt:initialization.obj
 0001:000127f4       ___acrt_thread_attach      100137f4 f   libucrt:initialization.obj
 0001:000127ff       ___acrt_thread_detach      100137ff f   libucrt:initialization.obj
 0001:00012807       ___acrt_uninitialize       10013807 f   libucrt:initialization.obj
 0001:00012837       ___acrt_uninitialize_critical 10013837 f   libucrt:initialization.obj
 0001:00012849       __initterm                 10013849 f   libucrt:initterm.obj
 0001:0001288e       __initterm_e               1001388e f   libucrt:initterm.obj
 0001:000128bc       ___acrt_initialize_new_handler 100138bc f   libucrt:new_handler.obj
 0001:000128cb       __callnewh                 100138cb f   libucrt:new_handler.obj
 0001:000128f8       __query_new_handler        100138f8 f   libucrt:new_handler.obj
 0001:00012954       _terminate                 10013954 f   libucrt:terminate.obj
 0001:00012990       _abort                     10013990 f   libucrt:abort.obj
 0001:000129d4       _strcpy_s                  100139d4 f   libucrt:strcpy_s.obj
 0001:00012a2e       ??$is_overflow_condition@K@__crt_strtox@@YA_NIK@Z 10013a2e f i libucrt:atox.obj
 0001:00012a5f       ??$parse_integer@KV?$c_string_character_source@_W@__crt_strtox@@@__crt_strtox@@YAKQAU__crt_locale_pointers@@V?$c_string_character_source@_W@0@H_N@Z 10013a5f f i libucrt:atox.obj
 0001:00013067       ?unget@?$c_string_character_source@_W@__crt_strtox@@QAEX_W@Z 10014067 f i libucrt:atox.obj
 0001:000130a0       _strncmp                   100140a0 f   libucrt:strncmp.obj
 0001:00013118       _wcsncmp                   10014118 f   libucrt:wcsncmp.obj
 0001:00013152       __free_base                10014152 f   libucrt:free_base.obj
 0001:000134ca       ___acrt_freeptd            100144ca f   libucrt:per_thread_data.obj
 0001:000134f6       ___acrt_getptd             100144f6 f   libucrt:per_thread_data.obj
 0001:000135b3       ___acrt_getptd_head        100145b3 f   libucrt:per_thread_data.obj
 0001:0001364d       ___acrt_getptd_noexit      1001464d f   libucrt:per_thread_data.obj
 0001:00013702       ___acrt_initialize_ptd     10014702 f   libucrt:per_thread_data.obj
 0001:0001372e       ___acrt_uninitialize_ptd   1001472e f   libucrt:per_thread_data.obj
 0001:00013748       __calloc_base              10014748 f   libucrt:calloc_base.obj
 0001:000137a5       __malloc_base              100147a5 f   libucrt:malloc_base.obj
 0001:000137f3       __msize_base               100147f3 f   libucrt:msize.obj
 0001:00013826       __realloc_base             10014826 f   libucrt:realloc_base.obj
 0001:00013a27       ___acrt_AppPolicyGetProcessTerminationMethodInternal@4 10014a27 f   libucrt:winapi_thunks.obj
 0001:00013a67       ___acrt_AreFileApisANSI@0  10014a67 f   libucrt:winapi_thunks.obj
 0001:00013a86       ___acrt_FlsAlloc@4         10014a86 f   libucrt:winapi_thunks.obj
 0001:00013ac5       ___acrt_FlsFree@4          10014ac5 f   libucrt:winapi_thunks.obj
 0001:00013b04       ___acrt_FlsGetValue@4      10014b04 f   libucrt:winapi_thunks.obj
 0001:00013b43       ___acrt_FlsSetValue@8      10014b43 f   libucrt:winapi_thunks.obj
 0001:00013b85       ___acrt_InitializeCriticalSectionEx@12 10014b85 f   libucrt:winapi_thunks.obj
 0001:00013bd0       ___acrt_LCMapStringEx@36   10014bd0 f   libucrt:winapi_thunks.obj
 0001:00013c2d       ___acrt_LocaleNameToLCID@8 10014c2d f   libucrt:winapi_thunks.obj
 0001:00013c5e       ___acrt_SetThreadStackGuarantee@4 10014c5e f   libucrt:winapi_thunks.obj
 0001:00013c99       ___acrt_initialize_winapi_thunks 10014c99 f   libucrt:winapi_thunks.obj
 0001:00013cc4       ___acrt_uninitialize_winapi_thunks 10014cc4 f   libucrt:winapi_thunks.obj
 0001:00013cfa       ??$make_c_string_character_source@_WPAPA_W@__crt_strtox@@YA?AV?$c_string_character_source@_W@0@QB_WQAPA_W@Z 10014cfa f i libucrt:strtox.obj
 0001:00013d15       _wcstol                    10014d15 f   libucrt:strtox.obj
 0001:00013d3f       __mbtowc_l                 10014d3f f   libucrt:mbtowc.obj
 0001:00013e81       _mbtowc                    10014e81 f   libucrt:mbtowc.obj
 0001:00013e9b       _wcsnlen                   10014e9b f   libucrt:strnlen.obj
 0001:0001404b       ___acrt_update_locale_info 1001504b f   libucrt:locale_update.obj
 0001:00014078       ___acrt_update_multibyte_info 10015078 f   libucrt:locale_update.obj
 0001:000140a5       ?__acrt_fp_classify@@YA?AW4__acrt_fp_class@@ABN@Z 100150a5 f i libucrt:cvt.obj
 0001:00014a57       ___acrt_fp_format          10015a57 f   libucrt:cvt.obj
 0001:00014bb5       __fileno                   10015bb5 f   libucrt:fileno.obj
 0001:00014bdc       ___acrt_initialize_stdio   10015bdc f   libucrt:_file.obj
 0001:00014ca4       ___acrt_uninitialize_stdio 10015ca4 f   libucrt:_file.obj
 0001:00014cf0       __lock_file                10015cf0 f   libucrt:_file.obj
 0001:00014d04       __unlock_file              10015d04 f   libucrt:_file.obj
 0001:00014d18       __get_printf_count_output  10015d18 f   libucrt:printf_count_output.obj
 0001:00014d9b       ___acrt_set_locale_changed 10015d9b f   libucrt:wsetlocale.obj
 0001:00014da6       ___acrt_uninitialize_locale 10015da6 f   libucrt:wsetlocale.obj
 0001:00014f37       ___acrt_initialize_lowio   10015f37 f   libucrt:ioinit.obj
 0001:00014f97       ___acrt_uninitialize_lowio 10015f97 f   libucrt:ioinit.obj
 0001:00014fc3       ___acrt_initialize_locks   10015fc3 f   libucrt:locks.obj
 0001:00015004       ___acrt_lock               10016004 f   libucrt:locks.obj
 0001:0001501b       ___acrt_uninitialize_locks 1001601b f   libucrt:locks.obj
 0001:0001504c       ___acrt_unlock             1001604c f   libucrt:locks.obj
 0001:00015063       ___acrt_get_process_end_policy 10016063 f   libucrt:win_policies.obj
 0001:0001522d       ??$__acrt_mbs_to_wcs_cp@U__crt_win32_buffer_internal_dynamic_resizing@@@@YAHQBDAAV?$__crt_win32_buffer@_WU__crt_win32_buffer_internal_dynamic_resizing@@@@I@Z 1001622d f i libucrt:argv_wildcards.obj
 0001:00015741       ?__acrt_get_utf8_acp_compatibility_codepage@@YAIXZ 10016741 f i libucrt:argv_wildcards.obj
 0001:00015780       ?_deallocate@?$__crt_win32_buffer@DU__crt_win32_buffer_internal_dynamic_resizing@@@@AAEXXZ 10016780 f i libucrt:argv_wildcards.obj
 0001:00015780       ?_deallocate@?$__crt_win32_buffer@_WU__crt_win32_buffer_internal_dynamic_resizing@@@@AAEXXZ 10016780 f i libucrt:argv_wildcards.obj
 0001:0001579a       ?allocate@?$__crt_win32_buffer@DU__crt_win32_buffer_internal_dynamic_resizing@@@@QAEHI@Z 1001679a f i libucrt:argv_wildcards.obj
 0001:000157d6       ?allocate@?$__crt_win32_buffer@_WU__crt_win32_buffer_internal_dynamic_resizing@@@@QAEHI@Z 100167d6 f i libucrt:argv_wildcards.obj
 0001:00015815       ?allocate@__crt_win32_buffer_internal_dynamic_resizing@@SAHQAPAXIABV__crt_win32_buffer_empty_debug_info@@@Z 10016815 f i libucrt:argv_wildcards.obj
 0001:000158bb       ___acrt_expand_narrow_argv_wildcards 100168bb f   libucrt:argv_wildcards.obj
 0001:0001598d       ?allocate@?$__crt_win32_buffer@DU__crt_win32_buffer_no_resizing@@@@QAEHI@Z 1001698d f i libucrt:getmodulefilenamea.obj
 0001:000159b4       ?set_to_nullptr@?$__crt_win32_buffer@DU__crt_win32_buffer_no_resizing@@@@QAEXXZ 100169b4 f i libucrt:getmodulefilenamea.obj
 0001:000159c8       ___acrt_GetModuleFileNameA 100169c8 f   libucrt:getmodulefilenamea.obj
 0001:00015f81       ___acrt_initialize_multibyte 10016f81 f   libucrt:mbctype.obj
 0001:00015fc9       ___acrt_update_thread_multibyte_data 10016fc9 f   libucrt:mbctype.obj
 0001:00015fdc       __setmbcp_nolock           10016fdc f   libucrt:mbctype.obj
 0001:000162a7       __ismbblead                100172a7 f   libucrt:ismbbyte.obj
 0001:000162bf       ___acrt_initialize_command_line 100172bf f   libucrt:argv_data.obj
 0001:000162d8       ___acrt_MultiByteToWideChar 100172d8 f   libucrt:multibytetowidechar.obj
 0001:00016354       ___acrt_WideCharToMultiByte 10017354 f   libucrt:widechartomultibyte.obj
 0001:00016442       ___dcrt_get_narrow_environment_from_os 10017442 f   libucrt:get_environment_from_os.obj
 0001:000164c6       ___acrt_initialize_heap    100174c6 f   libucrt:heap_handle.obj
 0001:000164d7       ___acrt_uninitialize_heap  100174d7 f   libucrt:heap_handle.obj
 0001:000164e1       ___acrt_execute_initializers 100174e1 f   libucrt:shared_initialization.obj
 0001:00016549       ___acrt_execute_uninitializers 10017549 f   libucrt:shared_initialization.obj
 0001:00016648       ___acrt_get_sigabrt_handler 10017648 f   libucrt:signal.obj
 0001:0001666f       ___acrt_initialize_signal_handlers 1001766f f   libucrt:signal.obj
 0001:0001668d       _raise                     1001768d f   libucrt:signal.obj
 0001:00016880       ___acrt_has_user_matherr   10017880 f   libucrt:matherr.obj
 0001:00016898       ___acrt_initialize_user_matherr 10017898 f   libucrt:matherr.obj
 0001:000168a7       ___acrt_invoke_user_matherr 100178a7 f   libucrt:matherr.obj
 0001:00016ab6       ___acrt_stdio_flush_nolock 10017ab6 f   libucrt:fflush.obj
 0001:00016b1b       __fflush_nolock            10017b1b f   libucrt:fflush.obj
 0001:00016b63       __flushall                 10017b63 f   libucrt:fflush.obj
 0001:00016b6c       ___pctype_func             10017b6c f   libucrt:ctype.obj
 0001:00016b90       _iswctype                  10017b90 f   libucrt:iswctype.obj
 0001:00016bf9       ___acrt_add_locale_ref     10017bf9 f   libucrt:locale_refcounting.obj
 0001:00016c76       ___acrt_free_locale        10017c76 f   libucrt:locale_refcounting.obj
 0001:00016dbe       ___acrt_locale_add_lc_time_reference 10017dbe f   libucrt:locale_refcounting.obj
 0001:00016de7       ___acrt_locale_free_lc_time_if_unreferenced 10017de7 f   libucrt:locale_refcounting.obj
 0001:00016e18       ___acrt_locale_release_lc_time_reference 10017e18 f   libucrt:locale_refcounting.obj
 0001:00016e41       ___acrt_release_locale_ref 10017e41 f   libucrt:locale_refcounting.obj
 0001:00016ec2       ___acrt_update_thread_locale_data 10017ec2 f   libucrt:locale_refcounting.obj
 0001:00016f43       __updatetlocinfoEx_nolock  10017f43 f   libucrt:locale_refcounting.obj
 0001:00016f93       __query_new_mode           10017f93 f   libucrt:new_mode.obj
 0001:00016fea       ___acrt_DownlevelLocaleNameToLCID 10017fea f   libucrt:lcidtoname_downlevel.obj
 0001:00017016       __isleadbyte_l             10018016 f i libucrt:_wctype.obj
 0001:0001707c       ?__mbrtowc_utf8@__crt_mbstring@@YAIPA_WPBDIPAU_Mbstatet@@@Z 1001807c f   libucrt:mbrtowc.obj
 0001:000170bc       ?__mbsrtowcs_utf8@__crt_mbstring@@YAIPA_WPAPBDIPAU_Mbstatet@@@Z 100180bc f   libucrt:mbrtowc.obj
 0001:000171b7       ?return_illegal_sequence@__crt_mbstring@@YAIPAU_Mbstatet@@@Z 100181b7 f i libucrt:c32rtomb.obj
 0001:00017241       ___acrt_fp_strflt_to_string 10018241 f   libucrt:_fptostr.obj
 0001:00017320       ?divide@__crt_strtox@@YA_KAAUbig_integer@1@ABU21@@Z 10018320 f i libucrt:cfout.obj
 0001:000177b8       ___acrt_fltout             100187b8 f   libucrt:cfout.obj
 0001:00018cbf       _fegetround                10019cbf f   libucrt:fegetround.obj
 0001:00018ccc       __fcloseall                10019ccc f   libucrt:closeall.obj
 0001:00018d77       ___acrt_stdio_free_buffer_nolock 10019d77 f   libucrt:_freebuf.obj
 0001:00018db7       __isatty                   10019db7 f   libucrt:isatty.obj
 0001:00018e0d       ___acrt_locale_free_monetary 10019e0d f   libucrt:initmon.obj
 0001:00018f0b       ___acrt_locale_free_numeric 10019f0b f   libucrt:initnum.obj
 0001:00018fac       ___acrt_locale_free_time   10019fac f   libucrt:inittime.obj
 0001:00019090       ___acrt_GetStringTypeA     1001a090 f   libucrt:getstringtypea.obj
 0001:00019193       __freea_crt                1001a193 f i libucrt:getstringtypea.obj
 0001:000191b3       ___acrt_lowio_create_handle_array 1001a1b3 f   libucrt:osfinfo.obj
 0001:0001922e       ___acrt_lowio_destroy_handle_array 1001a22e f   libucrt:osfinfo.obj
 0001:00019263       ___acrt_lowio_ensure_fh_exists 1001a263 f   libucrt:osfinfo.obj
 0001:00019301       ___acrt_lowio_lock_fh      1001a301 f   libucrt:osfinfo.obj
 0001:00019324       ___acrt_lowio_unlock_fh    1001a324 f   libucrt:osfinfo.obj
 0001:00019347       __free_osfhnd              1001a347 f   libucrt:osfinfo.obj
 0001:000193d8       __get_osfhandle            1001a3d8 f   libucrt:osfinfo.obj
 0001:00019450       _qsort                     1001a450 f   libucrt:qsort.obj
 0001:000199f1       _strncpy_s                 1001a9f1 f   libucrt:strncpy_s.obj
 0001:00019a00       _strpbrk                   1001aa00 f   libucrt:strpbrk.obj
 0001:00019a40       __mbsdec                   1001aa40 f   libucrt:mbsdec.obj
 0001:00019a57       __mbsdec_l                 1001aa57 f   libucrt:mbsdec.obj
 0001:00019cce       ___acrt_LCMapStringA       1001acce f   libucrt:lcmapstringa.obj
 0001:00019dc8       __commit                   1001adc8 f   libucrt:commit.obj
 0001:0001a5c0       __write                    1001b5c0 f   libucrt:write.obj
 0001:0001a6b2       __write_nolock             1001b6b2 f   libucrt:write.obj
 0001:0001a88c       ___acrt_GetStringTypeW     1001b88c f   libucrt:getstringtypew.obj
 0001:0001a8a5       ___ascii_wcsnicmp          1001b8a5 f   libucrt:wcsnicmp.obj
 0001:0001a8f4       ?__mbrtoc32_utf8@__crt_mbstring@@YAIPA_UPBDIPAU_Mbstatet@@@Z 1001b8f4 f   libucrt:mbrtoc32.obj
 0001:0001aa9b       __controlfp_s              1001ba9b f   libucrt:contrlfp.obj
 0001:0001aafa       _fegetenv                  1001bafa f   libucrt:fegetenv.obj
 0001:0001ab17       _fesetenv                  1001bb17 f   libucrt:fesetenv.obj
 0001:0001ab62       _feholdexcept              1001bb62 f   libucrt:feholdexcept.obj
 0001:0001abb0       __CIlog10                  1001bbb0 f   libucrt:log10_impl.obj
 0001:0001abeb       __CIlog10_default          1001bbeb f   libucrt:log10_impl.obj
 0001:0001abff       __log10_default            1001bbff     libucrt:log10_impl.obj
 0001:0001acc0       _ceil                      1001bcc0 f   libucrt:ceil_pentium4.obj
 0001:0001ad00       __ceil_pentium4            1001bd00 f   libucrt:ceil_pentium4.obj
 0001:0001b0fa       ___acrt_fenv_get_common_round_control 1001c0fa f   libucrt:_fenvutils.obj
 0001:0001b11c       ___acrt_fenv_get_control   1001c11c f   libucrt:_fenvutils.obj
 0001:0001b19c       ___acrt_fenv_get_status    1001c19c f   libucrt:_fenvutils.obj
 0001:0001b254       ___acrt_fenv_set_control   1001c254 f   libucrt:_fenvutils.obj
 0001:0001b2bc       ___acrt_fenv_set_status    1001c2bc f   libucrt:_fenvutils.obj
 0001:0001b42f       __lseeki64_nolock          1001c42f f   libucrt:lseek.obj
 0001:0001b44a       __fclose_nolock            1001c44a f   libucrt:fclose.obj
 0001:0001b4c1       _fclose                    1001c4c1 f   libucrt:fclose.obj
 0001:0001b545       __query_app_type           1001c545 f   libucrt:report_runtime_error.obj
 0001:0001b54b       ___strncnt                 1001c54b f   libucrt:strncnt.obj
 0001:0001b567       __putwch_nolock            1001c567 f   libucrt:putwch.obj
 0001:0001b640       __clearfp                  1001c640 f   libucrt:ieee87.obj
 0001:0001b71e       __control87                1001c71e f   libucrt:ieee87.obj
 0001:0001babd       ___acrt_initialize_sse2    1001cabd f   libucrt:mathfcns.obj
 0001:0001bad0       __CIlog10_pentium4         1001cad0 f   libucrt:log10_pentium4.obj
 0001:0001bae8       __log10_pentium4           1001cae8     libucrt:log10_pentium4.obj
 0001:0001bd80       __fFEXP                    1001cd80 f   libucrt:87tran.obj
 0001:0001bdd7       __rtinfpopse               1001cdd7     libucrt:87tran.obj
 0001:0001bdd9       __rtinfnpopse              1001cdd9     libucrt:87tran.obj
 0001:0001bde9       __fFLN                     1001cde9     libucrt:87tran.obj
 0001:0001be9e       __rtinfpop                 1001ce9e     libucrt:87tran.obj
 0001:0001bea0       __rtinfnpop                1001cea0     libucrt:87tran.obj
 0001:0001beb0       __rtforexpinf              1001ceb0 f   libucrt:87tran.obj
 0001:0001bebd       __ffexpm1                  1001cebd     libucrt:87tran.obj
 0001:0001bf70       __trandisp1                1001cf70 f   libucrt:87disp.obj
 0001:0001bfe5       __trandisp2                1001cfe5 f   libucrt:87disp.obj
 0001:0001c07f       __rttospopde               1001d07f     libucrt:87disp.obj
 0001:0001c084       __rttospop                 1001d084     libucrt:87disp.obj
 0001:0001c090       __rtnospop                 1001d090 f   libucrt:87disp.obj
 0001:0001c0a0       __rttosnpop                1001d0a0 f   libucrt:87disp.obj
 0001:0001c0a1       __rtnospopde               1001d0a1     libucrt:87disp.obj
 0001:0001c0a8       __rtzeropop                1001d0a8     libucrt:87disp.obj
 0001:0001c0aa       __rtzeronpop               1001d0aa     libucrt:87disp.obj
 0001:0001c0b0       __rtzerospop               1001d0b0 f   libucrt:87disp.obj
 0001:0001c0bd       __rtonepop                 1001d0bd     libucrt:87disp.obj
 0001:0001c0c0       __rtonenpop                1001d0c0 f   libucrt:87disp.obj
 0001:0001c0d0       __tosnan1                  1001d0d0 f   libucrt:87disp.obj
 0001:0001c100       __nosnan2                  1001d100 f   libucrt:87disp.obj
 0001:0001c110       __tosnan2                  1001d110 f   libucrt:87disp.obj
 0001:0001c140       __nan2                     1001d140 f   libucrt:87disp.obj
 0001:0001c180       __rtindfpop                1001d180 f   libucrt:87disp.obj
 0001:0001c182       __rtindfnpop               1001d182     libucrt:87disp.obj
 0001:0001c193       __rttosnpopde              1001d193     libucrt:87disp.obj
 0001:0001c1a0       __rtatan2inf               1001d1a0 f   libucrt:87disp.obj
 0001:0001c1bd       __rtchsifneg               1001d1bd     libucrt:87disp.obj
 0001:0001c1d0       __twoToTOS                 1001d1d0 f   libucrt:common.obj
 0001:0001c1e5       __load_CW                  1001d1e5 f   libucrt:common.obj
 0001:0001c1fc       __convertTOStoQNaN         1001d1fc f   libucrt:common.obj
 0001:0001c215       __fload_withFB             1001d215 f   libucrt:common.obj
 0001:0001c258       __checkTOS_withFB          1001d258 f   libucrt:common.obj
 0001:0001c26e       __fast_exit                1001d26e f   libucrt:common.obj
 0001:0001c27b       __math_exit                1001d27b f   libucrt:common.obj
 0001:0001c2a5       __check_overflow_exit      1001d2a5 f   libucrt:common.obj
 0001:0001c2b9       __check_range_exit         1001d2b9 f   libucrt:common.obj
 0001:0001c360       __startTwoArgErrorHandling 1001d360 f   libucrt:genexcep.obj
 0001:0001c377       __startOneArgErrorHandling 1001d377 f   libucrt:genexcep.obj
 0001:0001c3b3       ___libm_error_support      1001d3b3 f   libucrt:libm_error.obj
 0001:0001c5a7       __ceil_default             1001d5a7 f   libucrt:ceil.obj
 0001:0001c6e8       __close                    1001d6e8 f   libucrt:close.obj
 0001:0001c775       __close_nolock             1001d775 f   libucrt:close.obj
 0001:0001c811       ?__acrt_stdio_free_stream@@YAXV__crt_stdio_stream@@@Z 1001d811 f   libucrt:stream.obj
 0001:0001c850       ___ascii_strnicmp          1001d850 f   libucrt:_strnicm.obj
 0001:0001c8d0       ___dcrt_lowio_ensure_console_output_initialized 1001d8d0 f   libucrt:initcon.obj
 0001:0001c8ef       ___dcrt_terminate_console_output 1001d8ef f   libucrt:initcon.obj
 0001:0001c906       ___dcrt_write_console      1001d906 f   libucrt:initcon.obj
 0001:0001c95b       ___set_fpsr_sse2           1001d95b f   libucrt:fpctrl.obj
 0001:0001c9db       __clrfp                    1001d9db f   libucrt:fpctrl.obj
 0001:0001c9ec       __ctrlfp                   1001d9ec f   libucrt:fpctrl.obj
 0001:0001ca16       __set_statfp               1001da16 f   libucrt:fpctrl.obj
 0001:0001ca6f       __statfp                   1001da6f f   libucrt:fpctrl.obj
 0001:0001ca7f       __d_inttype                1001da7f f   libucrt:powhlp.obj
 0001:0001cae7       __powhlp                   1001dae7 f   libucrt:powhlp.obj
 0001:0001cc12       __87except                 1001dc12 f   libucrt:87except.obj
 0001:0001cd1c       __frnd                     1001dd1c f   libucrt:frnd.obj
 0001:0001cd30       __errcode                  1001dd30 f   libucrt:fpexcept.obj
 0001:0001cd64       __except1                  1001dd64 f   libucrt:fpexcept.obj
 0001:0001ce32       __handle_exc               1001de32 f   libucrt:fpexcept.obj
 0001:0001d01d       __raise_exc                1001e01d f   libucrt:fpexcept.obj
 0001:0001d040       __raise_exc_ex             1001e040 f   libucrt:fpexcept.obj
 0001:0001d336       __set_errno_from_matherr   1001e336 f   libucrt:fpexcept.obj
 0001:0001d365       __umatherr                 1001e365 f   libucrt:fpexcept.obj
 0001:0001d405       __decomp                   1001e405 f   libucrt:util.obj
 0001:0001d4d7       __set_exp                  1001e4d7 f   libucrt:util.obj
 0001:0001d504       __sptype                   1001e504 f   libucrt:util.obj
 0001:0001d562       __fpclass                  1001e562 f   libucrt:ieeemisc.obj
 0001:0001d606       _IsProcessorFeaturePresent@4 1001e606 f   kernel32:KERNEL32.dll
 0001:0001d610       __FindPESection            1001e610 f   LIBCMT:pesect.obj
 0001:0001d660       __IsNonwritableInCurrentImage 1001e660 f   LIBCMT:pesect.obj
 0001:0001d720       __ValidateImageBase        1001e720 f   LIBCMT:pesect.obj
 0001:0001d753       __EH_prolog3_catch         1001e753 f   LIBCMT:ehprolg3.obj
 0001:0001d790       __aulldvrm                 1001e790 f   LIBCMT:ulldvrm.obj
 0001:0001d830       __allmul                   1001e830 f   LIBCMT:llmul.obj
 0001:0001d870       __alldvrm                  1001e870 f   LIBCMT:lldvrm.obj
 0001:0001d950       __allshl                   1001e950 f   LIBCMT:llshl.obj
 0001:0001d970       __aullshr                  1001e970 f   LIBCMT:ullshr.obj
 0001:0001d990       __ftol2_sse_excpt          1001e990     LIBCMT:ftol2.obj
 0001:0001d990       __ftol2_sse                1001e990     LIBCMT:ftol2.obj
 0001:0001d990       __ftoi2                    1001e990 f   LIBCMT:ftol2.obj
 0001:0001da10       __ftoui2                   1001ea10 f   LIBCMT:ftol2.obj
 0001:0001dac0       __ftol2                    1001eac0 f   LIBCMT:ftol2.obj
 0001:0001db70       __ftoul2                   1001eb70 f   LIBCMT:ftol2.obj
 0001:0001dc30       _strrchr                   1001ec30 f   libvcruntime:strrchr.obj
 0001:0001dd70       _strchr                    1001ed70 f   libvcruntime:strchr.obj
 0001:0001ddde       ___from_strstr_to_strchr   1001edde     libvcruntime:strchr.obj
 0001:0001de9b       __filter_x86_sse2_floating_point_exception 1001ee9b f   LIBCMT:x86_exception_filter.obj
 0001:0001de9b       __filter_x86_sse2_floating_point_exception_default 1001ee9b f   LIBCMT:x86_exception_filter.obj
 0002:00000000       __imp__RegQueryValueExW@24 1001f000     advapi32:ADVAPI32.dll
 0002:00000004       __imp__RegSetValueExW@24   1001f004     advapi32:ADVAPI32.dll
 0002:00000008       __imp__RegQueryInfoKeyW@48 1001f008     advapi32:ADVAPI32.dll
 0002:0000000c       __imp__RegOpenKeyExW@20    1001f00c     advapi32:ADVAPI32.dll
 0002:00000010       __imp__RegEnumKeyExW@32    1001f010     advapi32:ADVAPI32.dll
 0002:00000014       __imp__RegDeleteValueW@8   1001f014     advapi32:ADVAPI32.dll
 0002:00000018       __imp__RegDeleteKeyW@8     1001f018     advapi32:ADVAPI32.dll
 0002:0000001c       __imp__RegCreateKeyExW@36  1001f01c     advapi32:ADVAPI32.dll
 0002:00000020       __imp__RegCloseKey@4       1001f020     advapi32:ADVAPI32.dll
 0002:00000024       \177ADVAPI32_NULL_THUNK_DATA 1001f024     advapi32:ADVAPI32.dll
 0002:00000028       __imp__GetObjectW@12       1001f028     gdi32:GDI32.dll
 0002:0000002c       __imp__SelectObject@8      1001f02c     gdi32:GDI32.dll
 0002:00000030       __imp__DeleteObject@4      1001f030     gdi32:GDI32.dll
 0002:00000034       __imp__CreateCompatibleDC@4 1001f034     gdi32:GDI32.dll
 0002:00000038       __imp__BitBlt@36           1001f038     gdi32:GDI32.dll
 0002:0000003c       __imp__SetWindowOrgEx@16   1001f03c     gdi32:GDI32.dll
 0002:00000040       __imp__SetWindowExtEx@16   1001f040     gdi32:GDI32.dll
 0002:00000044       __imp__SetViewportOrgEx@16 1001f044     gdi32:GDI32.dll
 0002:00000048       __imp__LPtoDP@12           1001f048     gdi32:GDI32.dll
 0002:0000004c       __imp__SetMapMode@8        1001f04c     gdi32:GDI32.dll
 0002:00000050       __imp__SaveDC@4            1001f050     gdi32:GDI32.dll
 0002:00000054       __imp__RestoreDC@8         1001f054     gdi32:GDI32.dll
 0002:00000058       __imp__GetDeviceCaps@8     1001f058     gdi32:GDI32.dll
 0002:0000005c       __imp__DeleteMetaFile@4    1001f05c     gdi32:GDI32.dll
 0002:00000060       __imp__DeleteDC@4          1001f060     gdi32:GDI32.dll
 0002:00000064       __imp__CreateRectRgnIndirect@4 1001f064     gdi32:GDI32.dll
 0002:00000068       __imp__CreateMetaFileW@4   1001f068     gdi32:GDI32.dll
 0002:0000006c       __imp__CreateDCW@16        1001f06c     gdi32:GDI32.dll
 0002:00000070       __imp__CloseMetaFile@4     1001f070     gdi32:GDI32.dll
 0002:00000074       \177GDI32_NULL_THUNK_DATA  1001f074     gdi32:GDI32.dll
 0002:00000078       __imp__CloseHandle@4       1001f078     kernel32:KERNEL32.dll
 0002:0000007c       __imp__SetEvent@4          1001f07c     kernel32:KERNEL32.dll
 0002:00000080       __imp__CreateMutexW@12     1001f080     kernel32:KERNEL32.dll
 0002:00000084       __imp__CreateEventW@16     1001f084     kernel32:KERNEL32.dll
 0002:00000088       __imp__GetCurrentProcessId@0 1001f088     kernel32:KERNEL32.dll
 0002:0000008c       __imp__CreateFileW@28      1001f08c     kernel32:KERNEL32.dll
 0002:00000090       __imp__GetConsoleMode@8    1001f090     kernel32:KERNEL32.dll
 0002:00000094       __imp__GetConsoleOutputCP@0 1001f094     kernel32:KERNEL32.dll
 0002:00000098       __imp__WriteFile@20        1001f098     kernel32:KERNEL32.dll
 0002:0000009c       __imp__FlushFileBuffers@4  1001f09c     kernel32:KERNEL32.dll
 0002:000000a0       __imp__SetStdHandle@8      1001f0a0     kernel32:KERNEL32.dll
 0002:000000a4       __imp__GetStringTypeW@16   1001f0a4     kernel32:KERNEL32.dll
 0002:000000a8       __imp__SetFilePointerEx@20 1001f0a8     kernel32:KERNEL32.dll
 0002:000000ac       __imp__FreeEnvironmentStringsW@4 1001f0ac     kernel32:KERNEL32.dll
 0002:000000b0       __imp__GetEnvironmentStringsW@0 1001f0b0     kernel32:KERNEL32.dll
 0002:000000b4       __imp__lstrcmpiW@8         1001f0b4     kernel32:KERNEL32.dll
 0002:000000b8       __imp__GetCommandLineA@0   1001f0b8     kernel32:KERNEL32.dll
 0002:000000bc       __imp__GetCPInfo@8         1001f0bc     kernel32:KERNEL32.dll
 0002:000000c0       __imp__GetOEMCP@0          1001f0c0     kernel32:KERNEL32.dll
 0002:000000c4       __imp__GetACP@0            1001f0c4     kernel32:KERNEL32.dll
 0002:000000c8       __imp__IsValidCodePage@4   1001f0c8     kernel32:KERNEL32.dll
 0002:000000cc       __imp__FindNextFileW@8     1001f0cc     kernel32:KERNEL32.dll
 0002:000000d0       __imp__FindFirstFileExW@24 1001f0d0     kernel32:KERNEL32.dll
 0002:000000d4       __imp__FindClose@4         1001f0d4     kernel32:KERNEL32.dll
 0002:000000d8       __imp__GetFileType@4       1001f0d8     kernel32:KERNEL32.dll
 0002:000000dc       __imp__GetStdHandle@4      1001f0dc     kernel32:KERNEL32.dll
 0002:000000e0       __imp__LCMapStringW@24     1001f0e0     kernel32:KERNEL32.dll
 0002:000000e4       __imp__HeapReAlloc@16      1001f0e4     kernel32:KERNEL32.dll
 0002:000000e8       __imp__HeapSize@12         1001f0e8     kernel32:KERNEL32.dll
 0002:000000ec       __imp__MulDiv@12           1001f0ec     kernel32:KERNEL32.dll
 0002:000000f0       __imp__GlobalLock@4        1001f0f0     kernel32:KERNEL32.dll
 0002:000000f4       __imp__GlobalUnlock@4      1001f0f4     kernel32:KERNEL32.dll
 0002:000000f8       __imp__GlobalAlloc@8       1001f0f8     kernel32:KERNEL32.dll
 0002:000000fc       __imp__FindResourceW@12    1001f0fc     kernel32:KERNEL32.dll
 0002:00000100       __imp__SizeofResource@8    1001f100     kernel32:KERNEL32.dll
 0002:00000104       __imp__LoadResource@8      1001f104     kernel32:KERNEL32.dll
 0002:00000108       __imp__LoadLibraryExW@12   1001f108     kernel32:KERNEL32.dll
 0002:0000010c       __imp__GetProcAddress@8    1001f10c     kernel32:KERNEL32.dll
 0002:00000110       __imp__GetModuleHandleW@4  1001f110     kernel32:KERNEL32.dll
 0002:00000114       __imp__GetModuleFileNameW@12 1001f114     kernel32:KERNEL32.dll
 0002:00000118       __imp__FreeLibrary@4       1001f118     kernel32:KERNEL32.dll
 0002:0000011c       __imp__DisableThreadLibraryCalls@4 1001f11c     kernel32:KERNEL32.dll
 0002:00000120       __imp__GetCurrentThreadId@0 1001f120     kernel32:KERNEL32.dll
 0002:00000124       __imp__Sleep@4             1001f124     kernel32:KERNEL32.dll
 0002:00000128       __imp__WaitForSingleObject@8 1001f128     kernel32:KERNEL32.dll
 0002:0000012c       __imp__ReleaseMutex@4      1001f12c     kernel32:KERNEL32.dll
 0002:00000130       __imp__ResetEvent@4        1001f130     kernel32:KERNEL32.dll
 0002:00000134       __imp__EnterCriticalSection@4 1001f134     kernel32:KERNEL32.dll
 0002:00000138       __imp__LeaveCriticalSection@4 1001f138     kernel32:KERNEL32.dll
 0002:0000013c       __imp__SetLastError@4      1001f13c     kernel32:KERNEL32.dll
 0002:00000140       __imp__EncodePointer@4     1001f140     kernel32:KERNEL32.dll
 0002:00000144       __imp__DeleteCriticalSection@4 1001f144     kernel32:KERNEL32.dll
 0002:00000148       __imp__InitializeCriticalSectionEx@12 1001f148     kernel32:KERNEL32.dll
 0002:0000014c       __imp__GetLastError@0      1001f14c     kernel32:KERNEL32.dll
 0002:00000150       __imp__RaiseException@16   1001f150     kernel32:KERNEL32.dll
 0002:00000154       __imp__DecodePointer@4     1001f154     kernel32:KERNEL32.dll
 0002:00000158       __imp__WideCharToMultiByte@32 1001f158     kernel32:KERNEL32.dll
 0002:0000015c       __imp__GetCommandLineW@0   1001f15c     kernel32:KERNEL32.dll
 0002:00000160       __imp__MultiByteToWideChar@24 1001f160     kernel32:KERNEL32.dll
 0002:00000164       __imp__WriteConsoleW@20    1001f164     kernel32:KERNEL32.dll
 0002:00000168       __imp__GetModuleHandleExW@12 1001f168     kernel32:KERNEL32.dll
 0002:0000016c       __imp__ExitProcess@4       1001f16c     kernel32:KERNEL32.dll
 0002:00000170       __imp__VirtualQuery@12     1001f170     kernel32:KERNEL32.dll
 0002:00000174       __imp__VirtualProtect@16   1001f174     kernel32:KERNEL32.dll
 0002:00000178       __imp__GetSystemInfo@4     1001f178     kernel32:KERNEL32.dll
 0002:0000017c       __imp__TlsFree@4           1001f17c     kernel32:KERNEL32.dll
 0002:00000180       __imp__TlsSetValue@8       1001f180     kernel32:KERNEL32.dll
 0002:00000184       __imp__TlsGetValue@4       1001f184     kernel32:KERNEL32.dll
 0002:00000188       __imp__TlsAlloc@0          1001f188     kernel32:KERNEL32.dll
 0002:0000018c       __imp__InterlockedFlushSList@4 1001f18c     kernel32:KERNEL32.dll
 0002:00000190       __imp__RtlUnwind@16        1001f190     kernel32:KERNEL32.dll
 0002:00000194       __imp__LoadLibraryExA@12   1001f194     kernel32:KERNEL32.dll
 0002:00000198       __imp__VirtualFree@12      1001f198     kernel32:KERNEL32.dll
 0002:0000019c       __imp__VirtualAlloc@16     1001f19c     kernel32:KERNEL32.dll
 0002:000001a0       __imp__FlushInstructionCache@12 1001f1a0     kernel32:KERNEL32.dll
 0002:000001a4       __imp__InterlockedPushEntrySList@8 1001f1a4     kernel32:KERNEL32.dll
 0002:000001a8       __imp__InterlockedPopEntrySList@4 1001f1a8     kernel32:KERNEL32.dll
 0002:000001ac       __imp__GetProcessHeap@0    1001f1ac     kernel32:KERNEL32.dll
 0002:000001b0       __imp__HeapFree@12         1001f1b0     kernel32:KERNEL32.dll
 0002:000001b4       __imp__HeapAlloc@12        1001f1b4     kernel32:KERNEL32.dll
 0002:000001b8       __imp__OutputDebugStringW@4 1001f1b8     kernel32:KERNEL32.dll
 0002:000001bc       __imp__InitializeSListHead@4 1001f1bc     kernel32:KERNEL32.dll
 0002:000001c0       __imp__GetSystemTimeAsFileTime@4 1001f1c0     kernel32:KERNEL32.dll
 0002:000001c4       __imp__QueryPerformanceCounter@4 1001f1c4     kernel32:KERNEL32.dll
 0002:000001c8       __imp__GetStartupInfoW@4   1001f1c8     kernel32:KERNEL32.dll
 0002:000001cc       __imp__IsDebuggerPresent@0 1001f1cc     kernel32:KERNEL32.dll
 0002:000001d0       __imp__IsProcessorFeaturePresent@4 1001f1d0     kernel32:KERNEL32.dll
 0002:000001d4       __imp__TerminateProcess@8  1001f1d4     kernel32:KERNEL32.dll
 0002:000001d8       __imp__GetCurrentProcess@0 1001f1d8     kernel32:KERNEL32.dll
 0002:000001dc       __imp__SetUnhandledExceptionFilter@4 1001f1dc     kernel32:KERNEL32.dll
 0002:000001e0       __imp__UnhandledExceptionFilter@4 1001f1e0     kernel32:KERNEL32.dll
 0002:000001e4       __imp__InitializeCriticalSectionAndSpinCount@8 1001f1e4     kernel32:KERNEL32.dll
 0002:000001e8       __imp__WaitForSingleObjectEx@12 1001f1e8     kernel32:KERNEL32.dll
 0002:000001ec       \177KERNEL32_NULL_THUNK_DATA 1001f1ec     kernel32:KERNEL32.dll
 0002:000001f0       __imp__OleCreatePropertyFrame@44 1001f1f0     oleaut32:OLEAUT32.dll
 0002:000001f4       __imp__UnRegisterTypeLib@20 1001f1f4     oleaut32:OLEAUT32.dll
 0002:000001f8       __imp__RegisterTypeLib@12  1001f1f8     oleaut32:OLEAUT32.dll
 0002:000001fc       __imp__LoadRegTypeLib@20   1001f1fc     oleaut32:OLEAUT32.dll
 0002:00000200       __imp__LoadTypeLib@8       1001f200     oleaut32:OLEAUT32.dll
 0002:00000204       __imp__VarUI4FromStr@16    1001f204     oleaut32:OLEAUT32.dll
 0002:00000208       __imp__VariantInit@4       1001f208     oleaut32:OLEAUT32.dll
 0002:0000020c       __imp__SysAllocStringByteLen@8 1001f20c     oleaut32:OLEAUT32.dll
 0002:00000210       __imp__SysStringByteLen@4  1001f210     oleaut32:OLEAUT32.dll
 0002:00000214       __imp__VariantChangeType@16 1001f214     oleaut32:OLEAUT32.dll
 0002:00000218       __imp__VariantClear@4      1001f218     oleaut32:OLEAUT32.dll
 0002:0000021c       __imp__SysStringLen@4      1001f21c     oleaut32:OLEAUT32.dll
 0002:00000220       __imp__SysFreeString@4     1001f220     oleaut32:OLEAUT32.dll
 0002:00000224       __imp__SysAllocStringLen@8 1001f224     oleaut32:OLEAUT32.dll
 0002:00000228       __imp__SysAllocString@4    1001f228     oleaut32:OLEAUT32.dll
 0002:0000022c       \177OLEAUT32_NULL_THUNK_DATA 1001f22c     oleaut32:OLEAUT32.dll
 0002:00000230       __imp__UnregisterClassW@8  1001f230     user32:USER32.dll
 0002:00000234       __imp__PostMessageW@16     1001f234     user32:USER32.dll
 0002:00000238       __imp__DefWindowProcW@16   1001f238     user32:USER32.dll
 0002:0000023c       __imp__CallWindowProcW@20  1001f23c     user32:USER32.dll
 0002:00000240       __imp__RegisterClassExW@4  1001f240     user32:USER32.dll
 0002:00000244       __imp__GetClassInfoExW@12  1001f244     user32:USER32.dll
 0002:00000248       __imp__CreateWindowExW@48  1001f248     user32:USER32.dll
 0002:0000024c       __imp__IsWindow@4          1001f24c     user32:USER32.dll
 0002:00000250       __imp__IsChild@8           1001f250     user32:USER32.dll
 0002:00000254       __imp__DestroyWindow@4     1001f254     user32:USER32.dll
 0002:00000258       __imp__ShowWindow@8        1001f258     user32:USER32.dll
 0002:0000025c       __imp__SetWindowPos@28     1001f25c     user32:USER32.dll
 0002:00000260       __imp__CharNextW@4         1001f260     user32:USER32.dll
 0002:00000264       __imp__SetFocus@4          1001f264     user32:USER32.dll
 0002:00000268       __imp__LoadBitmapW@8       1001f268     user32:USER32.dll
 0002:0000026c       __imp__RegisterClassW@4    1001f26c     user32:USER32.dll
 0002:00000270       __imp__PeekMessageW@20     1001f270     user32:USER32.dll
 0002:00000274       __imp__LoadCursorW@8       1001f274     user32:USER32.dll
 0002:00000278       __imp__GetParent@4         1001f278     user32:USER32.dll
 0002:0000027c       __imp__SetWindowLongW@12   1001f27c     user32:USER32.dll
 0002:00000280       __imp__GetWindowLongW@8    1001f280     user32:USER32.dll
 0002:00000284       __imp__PtInRect@12         1001f284     user32:USER32.dll
 0002:00000288       __imp__EqualRect@8         1001f288     user32:USER32.dll
 0002:0000028c       __imp__OffsetRect@12       1001f28c     user32:USER32.dll
 0002:00000290       __imp__UnionRect@12        1001f290     user32:USER32.dll
 0002:00000294       __imp__IntersectRect@12    1001f294     user32:USER32.dll
 0002:00000298       __imp__GetClientRect@8     1001f298     user32:USER32.dll
 0002:0000029c       __imp__InvalidateRect@12   1001f29c     user32:USER32.dll
 0002:000002a0       __imp__SetWindowRgn@12     1001f2a0     user32:USER32.dll
 0002:000002a4       __imp__EndPaint@8          1001f2a4     user32:USER32.dll
 0002:000002a8       __imp__BeginPaint@8        1001f2a8     user32:USER32.dll
 0002:000002ac       __imp__ReleaseDC@8         1001f2ac     user32:USER32.dll
 0002:000002b0       __imp__GetDC@4             1001f2b0     user32:USER32.dll
 0002:000002b4       __imp__GetKeyState@4       1001f2b4     user32:USER32.dll
 0002:000002b8       __imp__GetFocus@0          1001f2b8     user32:USER32.dll
 0002:000002bc       \177USER32_NULL_THUNK_DATA 1001f2bc     user32:USER32.dll
 0002:000002c0       __imp__StringFromGUID2@12  1001f2c0     ole32:ole32.dll
 0002:000002c4       __imp__CoTaskMemAlloc@4    1001f2c4     ole32:ole32.dll
 0002:000002c8       __imp__CoTaskMemRealloc@8  1001f2c8     ole32:ole32.dll
 0002:000002cc       __imp__CoTaskMemFree@4     1001f2cc     ole32:ole32.dll
 0002:000002d0       __imp__ReadClassStm@8      1001f2d0     ole32:ole32.dll
 0002:000002d4       __imp__WriteClassStm@8     1001f2d4     ole32:ole32.dll
 0002:000002d8       __imp__CreateDataAdviseHolder@4 1001f2d8     ole32:ole32.dll
 0002:000002dc       __imp__OleSaveToStream@8   1001f2dc     ole32:ole32.dll
 0002:000002e0       __imp__CreateOleAdviseHolder@4 1001f2e0     ole32:ole32.dll
 0002:000002e4       __imp__OleRegGetUserType@12 1001f2e4     ole32:ole32.dll
 0002:000002e8       __imp__OleRegGetMiscStatus@12 1001f2e8     ole32:ole32.dll
 0002:000002ec       __imp__OleRegEnumVerbs@8   1001f2ec     ole32:ole32.dll
 0002:000002f0       __imp__CLSIDFromProgID@8   1001f2f0     ole32:ole32.dll
 0002:000002f4       __imp__CoCreateInstance@20 1001f2f4     ole32:ole32.dll
 0002:000002f8       \177ole32_NULL_THUNK_DATA  1001f2f8     ole32:ole32.dll
 0002:000002fc       ___guard_check_icall_fptr  1001f2fc     LIBCMT:guard_support.obj
 0002:00000300       ___xc_a                    1001f300     LIBCMT:initializers.obj
 0002:00000318       ___xc_z                    1001f318     LIBCMT:initializers.obj
 0002:0000031c       ___xi_a                    1001f31c     LIBCMT:initializers.obj
 0002:00000324       ___acrt_stdio_initializer  1001f324     libucrt:stdio_initializer.obj
 0002:00000328       ___acrt_multibyte_initializer 1001f328     libucrt:multibyte_initializer.obj
 0002:0000032c       ___acrt_tran_sse2_initializer 1001f32c     libucrt:sse2_initializer.obj
 0002:00000330       ___xi_z                    1001f330     LIBCMT:initializers.obj
 0002:00000334       ___xl_a                    1001f334     LIBCMT:tlssup.obj
 0002:00000338       ___xl_z                    1001f338     LIBCMT:tlssup.obj
 0002:0000033c       ___xp_a                    1001f33c     LIBCMT:initializers.obj
 0002:00000340       ___acrt_locale_terminator  1001f340     libucrt:locale_initializer.obj
 0002:00000344       ___dcrt_console_output_terminator 1001f344     libucrt:console_output_initializer.obj
 0002:00000348       ___acrt_stdio_terminator   1001f348     libucrt:stdio_initializer.obj
 0002:0000034c       ___xp_z                    1001f34c     LIBCMT:initializers.obj
 0002:00000350       ___xt_a                    1001f350     LIBCMT:initializers.obj
 0002:00000354       ___xt_z                    1001f354     LIBCMT:initializers.obj
 0002:00000360       ??_C@_13HADIAKP@?$AAS@     1001f360     OposVariant.obj
 0002:00000364       ??_C@_13LHMFKAAD@?$AAM@    1001f364     OposVariant.obj
 0002:00000368       ??_C@_13MKMNOPIJ@?$AAD@    1001f368     OposVariant.obj
 0002:0000036c       ??_C@_13OPKGLAFF@?$AAB@    1001f36c     OposVariant.obj
 0002:00000370       ??_C@_17LLMMEOJD@?$AAV?$AAa?$AAl@ 1001f370     OposVariant.obj
 0002:00000378       ??_C@_1BI@JFAIJMHL@?$AAF?$AAo?$AAr?$AAc?$AAe?$AAR?$AAe?$AAm?$AAo?$AAv?$AAe@ 1001f378     OposVariant.obj
 0002:00000390       ??_C@_1BC@GCKHIPE@?$AAN?$AAo?$AAR?$AAe?$AAm?$AAo?$AAv?$AAe@ 1001f390     OposVariant.obj
 0002:000003a4       ??_C@_1O@JDLOHAN@?$AAD?$AAe?$AAl?$AAe?$AAt?$AAe@ 1001f3a4     OposVariant.obj
 0002:000003b4       ??_C@_11LOCGONAA@@         1001f3b4     OposVariant.obj
 0002:000003b8       ??_7CComClassFactory@ATL@@6B@ 1001f3b8     CoinDispenser.obj
 0002:000003d0       ?_entries@?1??_GetEntries@CComClassFactory@ATL@@SGPBU_ATL_INTMAP_ENTRY@3@XZ@4QBU43@B 1001f3d0     CoinDispenser.obj
 0002:000003e8       __GUID_00000001_0000_0000_c000_000000000046 1001f3e8     CoinDispenser.obj
 0002:000003f8       _IID_IOPOSCoinDispenser_1_5 1001f3f8     CoinDispenser.obj
 0002:00000408       _IID_IOPOSCoinDispenser_1_8 1001f408     CoinDispenser.obj
 0002:00000418       _IID_IOPOSCoinDispenser_1_9 1001f418     CoinDispenser.obj
 0002:00000428       _IID_IOPOSCoinDispenser_1_11 1001f428     CoinDispenser.obj
 0002:00000438       _IID_IOPOSCoinDispenser    1001f438     CoinDispenser.obj
 0002:00000448       _LIBID_OposCoinDispenser_CCO 1001f448     CoinDispenser.obj
 0002:00000458       _DIID__IOPOSCoinDispenserEvents 1001f458     CoinDispenser.obj
 0002:00000468       _CLSID_OPOSCoinDispenser   1001f468     CoinDispenser.obj
 0002:00000478       __GUID_00000114_0000_0000_c000_000000000046 1001f478     CoinDispenser.obj
 0002:00000488       ??_C@_1BK@BIGILECK@?$AAA?$AAd?$AAv?$AAa?$AAp?$AAi?$AA3?$AA2?$AA?4?$AAd?$AAl?$AAl@ 1001f488     CoinDispenser.obj
 0002:000004a4       ??_C@_0BI@MNCFCPFK@RegCreateKeyTransactedW@ 1001f4a4     CoinDispenser.obj
 0002:000004bc       __GUID_b196b287_bab4_101a_b69c_00aa00341d07 1001f4bc     CoinDispenser.obj
 0002:000004cc       __GUID_b196b285_bab4_101a_b69c_00aa00341d07 1001f4cc     CoinDispenser.obj
 0002:000004dc       __GUID_a6bc3ac0_dbaa_11ce_9de3_00aa004bb851 1001f4dc     CoinDispenser.obj
 0002:000004ec       __GUID_0000010c_0000_0000_c000_000000000046 1001f4ec     CoinDispenser.obj
 0002:000004fc       __GUID_00000146_0000_0000_c000_000000000046 1001f4fc     CoinDispenser.obj
 0002:00000510       ?_entries@?1??_GetEntries@COPOSCoinDispenser@@SGPBU_ATL_INTMAP_ENTRY@ATL@@XZ@4QBU34@B 1001f510     CoinDispenser.obj
 0002:00000654       __GUID_cf51ed10_62fe_11cf_bf86_00a0c9034836 1001f654     CoinDispenser.obj
 0002:00000664       __GUID_0000010a_0000_0000_c000_000000000046 1001f664     CoinDispenser.obj
 0002:00000674       __GUID_b196b283_bab4_101a_b69c_00aa00341d07 1001f674     CoinDispenser.obj
 0002:00000684       __GUID_cb5bdc81_93c1_11cf_8f20_00805f2cd064 1001f684     CoinDispenser.obj
 0002:00000698       ?pPropMap@?1??GetPropertyMap@COPOSCoinDispenser@@SAPBUATL_PROPMAP_ENTRY@ATL@@XZ@4QBU34@B 1001f698     CoinDispenser.obj
 0002:00000704       ??_C@_17DGDADEHL@?$AA_?$AAc?$AAx@ 1001f704     CoinDispenser.obj
 0002:0000070c       ??_C@_17IOIMFDBO@?$AA_?$AAc?$AAy@ 1001f70c     CoinDispenser.obj
 0002:00000714       ??_7CComModule@ATL@@6B@    1001f714     CoinDispenser.obj
 0002:0000073c       __GUID_922eada0_3424_11cf_b670_00aa004cd6d8 1001f73c     CoinDispenser.obj
 0002:0000074c       ??_7?$CComObjectCached@VCComClassFactory@ATL@@@ATL@@6B@ 1001f74c     CoinDispenser.obj
 0002:00000764       __GUID_9c2cad80_3424_11cf_b670_00aa004cd6d8 1001f764     CoinDispenser.obj
 0002:00000774       __GUID_00000119_0000_0000_c000_000000000046 1001f774     CoinDispenser.obj
 0002:00000784       __GUID_b196b289_bab4_101a_b69c_00aa00341d07 1001f784     CoinDispenser.obj
 0002:00000794       ??_C@_1CE@PGFMOFKI@?$AAS?$AAt?$AAa?$AAt?$AAu?$AAs?$AAU?$AAp?$AAd?$AAa?$AAt?$AAe?$AAE?$AAv?$AAe@ 1001f794     CoinDispenser.obj
 0002:000007b8       ??_C@_1BM@CBGEBBBJ@?$AAD?$AAi?$AAr?$AAe?$AAc?$AAt?$AAI?$AAO?$AAE?$AAv?$AAe?$AAn?$AAt@ 1001f7b8     CoinDispenser.obj
 0002:000007d4       __GUID_b196b286_bab4_101a_b69c_00aa00341d07 1001f7d4     CoinDispenser.obj
 0002:000007e4       __GUID_00000000_0000_0000_c000_000000000046 1001f7e4     CoinDispenser.obj
 0002:000007f4       __GUID_00020400_0000_0000_c000_000000000046 1001f7f4     CoinDispenser.obj
 0002:00000804       __GUID_00000117_0000_0000_c000_000000000046 1001f804     CoinDispenser.obj
 0002:00000814       ??_C@_1BC@ENICKDH@?$AAC?$AAo?$AAn?$AAt?$AAe?$AAn?$AAt?$AAs@ 1001f814     CoinDispenser.obj
 0002:00000828       ??_7?$CComObject@V?$CComEnum@UIEnumConnectionPoints@@$1?_GUID_b196b285_bab4_101a_b69c_00aa00341d07@@3U__s_GUID@@BPAUIConnectionPoint@@V?$_CopyInterface@UIConnectionPoint@@@ATL@@VCComSingleThreadModel@6@@ATL@@@ATL@@6B@ 1001f828     CoinDispenser.obj
 0002:00000848       ??_C@_1M@KANJNLFF@?$AAC?$AAL?$AAS?$AAI?$AAD@ 1001f848     CoinDispenser.obj
 0002:00000854       ??_C@_1M@EJNEECMJ@?$AAA?$AAp?$AAp?$AAI?$AAD@ 1001f854     CoinDispenser.obj
 0002:00000860       __GUID_0000010e_0000_0000_c000_000000000046 1001f860     CoinDispenser.obj
 0002:00000870       __GUID_b196b288_bab4_101a_b69c_00aa00341d07 1001f870     CoinDispenser.obj
 0002:00000880       ?rgszNeverDelete@CRegParser@ATL@@1QBQB_WB 1001f880     CoinDispenser.obj
 0002:000008b0       ??_7CRegObject@ATL@@6B@    1001f8b0     CoinDispenser.obj
 0002:000008c8       __GUID_00000113_0000_0000_c000_000000000046 1001f8c8     CoinDispenser.obj
 0002:000008d8       __GUID_1c2056cc_5ef4_101b_8bc8_00aa003e3b29 1001f8d8     CoinDispenser.obj
 0002:000008e8       ??_C@_1CK@OEKPKBNA@?$AAC?$AAo?$AAm?$AAp?$AAo?$AAn?$AAe?$AAn?$AAt?$AA?5?$AAC?$AAa?$AAt?$AAe?$AAg@ 1001f8e8     CoinDispenser.obj
 0002:00000914       ??_C@_1BC@NKMMNMGL@?$AAF?$AAi?$AAl?$AAe?$AAT?$AAy?$AAp?$AAe@ 1001f914     CoinDispenser.obj
 0002:00000928       ??_C@_1BE@EKPAFMCP@?$AAI?$AAn?$AAt?$AAe?$AAr?$AAf?$AAa?$AAc?$AAe@ 1001f928     CoinDispenser.obj
 0002:0000093c       ??_C@_1BC@MAICEHGI@?$AAH?$AAa?$AAr?$AAd?$AAw?$AAa?$AAr?$AAe@ 1001f93c     CoinDispenser.obj
 0002:00000950       ??_C@_19HLLLM@?$AAM?$AAi?$AAm?$AAe@ 1001f950     CoinDispenser.obj
 0002:0000095c       ??_C@_17OMAOINJK@?$AAS?$AAA?$AAM@ 1001f95c     CoinDispenser.obj
 0002:00000964       ??_C@_1BC@IBECJAAI@?$AAS?$AAE?$AAC?$AAU?$AAR?$AAI?$AAT?$AAY@ 1001f964     CoinDispenser.obj
 0002:00000978       ??_C@_1O@GBFINDKL@?$AAS?$AAY?$AAS?$AAT?$AAE?$AAM@ 1001f978     CoinDispenser.obj
 0002:00000988       ??_C@_1BC@EAHCMADO@?$AAS?$AAo?$AAf?$AAt?$AAw?$AAa?$AAr?$AAe@ 1001f988     CoinDispenser.obj
 0002:0000099c       ??_C@_1BA@JIHHIEDE@?$AAT?$AAy?$AAp?$AAe?$AAL?$AAi?$AAb@ 1001f99c     CoinDispenser.obj
 0002:000009b0       ?map@?1??HKeyFromString@CRegParser@ATL@@KAPAUHKEY__@@PA_W@Z@4QBUkeymap@?1??123@KAPAU4@0@Z@B 1001f9b0     CoinDispenser.obj
 0002:00000a20       ??_C@_19NCHLBIN@?$AAH?$AAK?$AAC?$AAR@ 1001fa20     CoinDispenser.obj
 0002:00000a2c       ??_C@_19JAPAIJDE@?$AAH?$AAK?$AAC?$AAU@ 1001fa2c     CoinDispenser.obj
 0002:00000a38       ??_C@_19PEALEEJB@?$AAH?$AAK?$AAL?$AAM@ 1001fa38     CoinDispenser.obj
 0002:00000a44       ??_C@_17PJOJPMPB@?$AAH?$AAK?$AAU@ 1001fa44     CoinDispenser.obj
 0002:00000a4c       ??_C@_19PNBHMJPL@?$AAH?$AAK?$AAP?$AAD@ 1001fa4c     CoinDispenser.obj
 0002:00000a58       ??_C@_19GFFAIJHG@?$AAH?$AAK?$AAD?$AAD@ 1001fa58     CoinDispenser.obj
 0002:00000a64       ??_C@_19OFICIBHH@?$AAH?$AAK?$AAC?$AAC@ 1001fa64     CoinDispenser.obj
 0002:00000a70       ??_C@_1CE@PACHPJFI@?$AAH?$AAK?$AAE?$AAY?$AA_?$AAC?$AAL?$AAA?$AAS?$AAS?$AAE?$AAS?$AA_?$AAR?$AAO@ 1001fa70     CoinDispenser.obj
 0002:00000a94       ??_C@_1CE@HLHNCBPM@?$AAH?$AAK?$AAE?$AAY?$AA_?$AAC?$AAU?$AAR?$AAR?$AAE?$AAN?$AAT?$AA_?$AAU?$AAS@ 1001fa94     CoinDispenser.obj
 0002:00000ab8       ??_C@_1CG@GFBEANJL@?$AAH?$AAK?$AAE?$AAY?$AA_?$AAL?$AAO?$AAC?$AAA?$AAL?$AA_?$AAM?$AAA?$AAC?$AAH@ 1001fab8     CoinDispenser.obj
 0002:00000ae0       ??_C@_1BG@BGODANIO@?$AAH?$AAK?$AAE?$AAY?$AA_?$AAU?$AAS?$AAE?$AAR?$AAS@ 1001fae0     CoinDispenser.obj
 0002:00000af8       ??_C@_1CM@KHNNAOIC@?$AAH?$AAK?$AAE?$AAY?$AA_?$AAP?$AAE?$AAR?$AAF?$AAO?$AAR?$AAM?$AAA?$AAN?$AAC@ 1001faf8     CoinDispenser.obj
 0002:00000b24       ??_C@_1BM@HAGMMHIA@?$AAH?$AAK?$AAE?$AAY?$AA_?$AAD?$AAY?$AAN?$AA_?$AAD?$AAA?$AAT?$AAA@ 1001fb24     CoinDispenser.obj
 0002:00000b40       ??_C@_1CI@BBJOACGG@?$AAH?$AAK?$AAE?$AAY?$AA_?$AAC?$AAU?$AAR?$AAR?$AAE?$AAN?$AAT?$AA_?$AAC?$AAO@ 1001fb40     CoinDispenser.obj
 0002:00000b68       __GUID_00000112_0000_0000_c000_000000000046 1001fb68     CoinDispenser.obj
 0002:00000b78       __GUID_00000109_0000_0000_c000_000000000046 1001fb78     CoinDispenser.obj
 0002:00000b88       __GUID_7fd52380_4e07_101b_ae2d_08002b2ec713 1001fb88     CoinDispenser.obj
 0002:00000b98       __GUID_3af24292_0c96_11ce_a0cf_00aa00600ab8 1001fb98     CoinDispenser.obj
 0002:00000ba8       __GUID_00000127_0000_0000_c000_000000000046 1001fba8     CoinDispenser.obj
 0002:00000bb8       __GUID_0000010d_0000_0000_c000_000000000046 1001fbb8     CoinDispenser.obj
 0002:00000bc8       ??_C@_1M@PPPPCDEP@?$AAA?$AAP?$AAP?$AAI?$AAD@ 1001fbc8     CoinDispenser.obj
 0002:00000bd8       ??_C@_1EA@NHKLICFA@?$AAH?$AAK?$AAC?$AAU?$AA?$AN?$AA?6?$AA?$HL?$AA?7?$AAS?$AAo?$AAf?$AAt?$AAw?$AAa?$AAr@ 1001fbd8     CoinDispenser.obj
 0002:00000c18       ??_C@_1BE@LJOLIMEM@?$AA?$AN?$AA?6?$AA?7?$AA?$HN?$AA?$AN?$AA?6?$AA?$HN?$AA?$AN?$AA?6@ 1001fc18     CoinDispenser.obj
 0002:00000c2c       ??_C@_1O@MNLDABAF@?$AAM?$AAo?$AAd?$AAu?$AAl?$AAe@ 1001fc2c     CoinDispenser.obj
 0002:00000c3c       ??_C@_1BG@JBACFMF@?$AAM?$AAo?$AAd?$AAu?$AAl?$AAe?$AA_?$AAR?$AAa?$AAw@ 1001fc3c     CoinDispenser.obj
 0002:00000c54       ??_C@_1BC@KAILKFFG@?$AAR?$AAE?$AAG?$AAI?$AAS?$AAT?$AAR?$AAY@ 1001fc54     CoinDispenser.obj
 0002:00000c68       ??_7?$CComContainedObject@VCOPOSCoinDispenser@@@ATL@@6B?$IDispatchImpl@UIOPOSCoinDispenser@@$1?IID_IOPOSCoinDispenser@@3U_GUID@@B$1?LIBID_OposCoinDispenser_CCO@@3U3@B$00$0A@VCComTypeInfoHolder@ATL@@@1@@ 1001fc68     CoinDispenser.obj
 0002:00000d4c       ??_7?$CComContainedObject@VCOPOSCoinDispenser@@@ATL@@6BCComControlBase@1@@ 1001fd4c     CoinDispenser.obj
 0002:00000d60       ??_7?$CComContainedObject@VCOPOSCoinDispenser@@@ATL@@6B?$CWindowImpl@VCOPOSCoinDispenser@@VCWindow@ATL@@V?$CWinTraits@$0FGAAAAAA@$0A@@3@@1@@ 1001fd60     CoinDispenser.obj
 0002:00000d70       ??_7?$CComContainedObject@VCOPOSCoinDispenser@@@ATL@@6B?$IPersistStreamInitImpl@VCOPOSCoinDispenser@@@1@@ 1001fd70     CoinDispenser.obj
 0002:00000d94       ??_7?$CComContainedObject@VCOPOSCoinDispenser@@@ATL@@6B?$IOleControlImpl@VCOPOSCoinDispenser@@@1@@ 1001fd94     CoinDispenser.obj
 0002:00000db0       ??_7?$CComContainedObject@VCOPOSCoinDispenser@@@ATL@@6B?$IOleObjectImpl@VCOPOSCoinDispenser@@@1@@ 1001fdb0     CoinDispenser.obj
 0002:00000e10       ??_7?$CComContainedObject@VCOPOSCoinDispenser@@@ATL@@6B?$IOleInPlaceActiveObjectImpl@VCOPOSCoinDispenser@@@1@@ 1001fe10     CoinDispenser.obj
 0002:00000e38       ??_7?$CComContainedObject@VCOPOSCoinDispenser@@@ATL@@6B?$IViewObjectExImpl@VCOPOSCoinDispenser@@@1@@ 1001fe38     CoinDispenser.obj
 0002:00000e74       ??_7?$CComContainedObject@VCOPOSCoinDispenser@@@ATL@@6B?$IOleInPlaceObjectWindowlessImpl@VCOPOSCoinDispenser@@@1@@ 1001fe74     CoinDispenser.obj
 0002:00000ea0       ??_7?$CComContainedObject@VCOPOSCoinDispenser@@@ATL@@6B?$IConnectionPointContainerImpl@VCOPOSCoinDispenser@@@1@@ 1001fea0     CoinDispenser.obj
 0002:00000eb4       ??_7?$CComContainedObject@VCOPOSCoinDispenser@@@ATL@@6B?$IPersistStorageImpl@VCOPOSCoinDispenser@@@1@@ 1001feb4     CoinDispenser.obj
 0002:00000edc       ??_7?$CComContainedObject@VCOPOSCoinDispenser@@@ATL@@6B?$ISpecifyPropertyPagesImpl@VCOPOSCoinDispenser@@@1@@ 1001fedc     CoinDispenser.obj
 0002:00000eec       ??_7?$CComContainedObject@VCOPOSCoinDispenser@@@ATL@@6B?$IQuickActivateImpl@VCOPOSCoinDispenser@@@1@@ 1001feec     CoinDispenser.obj
 0002:00000f04       ??_7?$CComContainedObject@VCOPOSCoinDispenser@@@ATL@@6B?$IDataObjectImpl@VCOPOSCoinDispenser@@@1@@ 1001ff04     CoinDispenser.obj
 0002:00000f34       ??_7?$CComContainedObject@VCOPOSCoinDispenser@@@ATL@@6B?$IProvideClassInfo2Impl@$1?CLSID_OPOSCoinDispenser@@3U_GUID@@B$1?DIID__IOPOSCoinDispenserEvents@@3U2@B$1?LIBID_OposCoinDispenser_CCO@@3U2@B$00$0A@VCComTypeInfoHolder@ATL@@@1@@ 1001ff34     CoinDispenser.obj
 0002:00000f48       ??_7?$CComContainedObject@VCOPOSCoinDispenser@@@ATL@@6B?$IObjectSafetyImpl@VCOPOSCoinDispenser@@$02@1@@ 1001ff48     CoinDispenser.obj
 0002:00000f60       ??_7?$CComContainedObject@VCOPOSCoinDispenser@@@ATL@@6B?$IPropertyNotifySinkCP@VCOPOSCoinDispenser@@VCComDynamicUnkArray@ATL@@@1@@ 1001ff60     CoinDispenser.obj
 0002:00000f80       ??_7?$CComContainedObject@VCOPOSCoinDispenser@@@ATL@@6B?$CProxy_IOPOSEvents@VCOPOSCoinDispenser@@@@@ 1001ff80     CoinDispenser.obj
 0002:00000fa0       ??_7?$CComAggObject@VCOPOSCoinDispenser@@@ATL@@6B@ 1001ffa0     CoinDispenser.obj
 0002:00000fb0       ??_7?$CComObject@VCOPOSCoinDispenser@@@ATL@@6B?$IDispatchImpl@UIOPOSCoinDispenser@@$1?IID_IOPOSCoinDispenser@@3U_GUID@@B$1?LIBID_OposCoinDispenser_CCO@@3U3@B$00$0A@VCComTypeInfoHolder@ATL@@@1@@ 1001ffb0     CoinDispenser.obj
 0002:00001094       ??_7?$CComObject@VCOPOSCoinDispenser@@@ATL@@6BCComControlBase@1@@ 10020094     CoinDispenser.obj
 0002:000010a8       ??_7?$CComObject@VCOPOSCoinDispenser@@@ATL@@6B?$CWindowImpl@VCOPOSCoinDispenser@@VCWindow@ATL@@V?$CWinTraits@$0FGAAAAAA@$0A@@3@@1@@ 100200a8     CoinDispenser.obj
 0002:000010b8       ??_7?$CComObject@VCOPOSCoinDispenser@@@ATL@@6B?$IPersistStreamInitImpl@VCOPOSCoinDispenser@@@1@@ 100200b8     CoinDispenser.obj
 0002:000010dc       ??_7?$CComObject@VCOPOSCoinDispenser@@@ATL@@6B?$IOleControlImpl@VCOPOSCoinDispenser@@@1@@ 100200dc     CoinDispenser.obj
 0002:000010f8       ??_7?$CComObject@VCOPOSCoinDispenser@@@ATL@@6B?$IOleObjectImpl@VCOPOSCoinDispenser@@@1@@ 100200f8     CoinDispenser.obj
 0002:00001158       ??_7?$CComObject@VCOPOSCoinDispenser@@@ATL@@6B?$IOleInPlaceActiveObjectImpl@VCOPOSCoinDispenser@@@1@@ 10020158     CoinDispenser.obj
 0002:00001180       ??_7?$CComObject@VCOPOSCoinDispenser@@@ATL@@6B?$IViewObjectExImpl@VCOPOSCoinDispenser@@@1@@ 10020180     CoinDispenser.obj
 0002:000011bc       ??_7?$CComObject@VCOPOSCoinDispenser@@@ATL@@6B?$IOleInPlaceObjectWindowlessImpl@VCOPOSCoinDispenser@@@1@@ 100201bc     CoinDispenser.obj
 0002:000011e8       ??_7?$CComObject@VCOPOSCoinDispenser@@@ATL@@6B?$IConnectionPointContainerImpl@VCOPOSCoinDispenser@@@1@@ 100201e8     CoinDispenser.obj
 0002:000011fc       ??_7?$CComObject@VCOPOSCoinDispenser@@@ATL@@6B?$IPersistStorageImpl@VCOPOSCoinDispenser@@@1@@ 100201fc     CoinDispenser.obj
 0002:00001224       ??_7?$CComObject@VCOPOSCoinDispenser@@@ATL@@6B?$ISpecifyPropertyPagesImpl@VCOPOSCoinDispenser@@@1@@ 10020224     CoinDispenser.obj
 0002:00001234       ??_7?$CComObject@VCOPOSCoinDispenser@@@ATL@@6B?$IQuickActivateImpl@VCOPOSCoinDispenser@@@1@@ 10020234     CoinDispenser.obj
 0002:0000124c       ??_7?$CComObject@VCOPOSCoinDispenser@@@ATL@@6B?$IDataObjectImpl@VCOPOSCoinDispenser@@@1@@ 1002024c     CoinDispenser.obj
 0002:0000127c       ??_7?$CComObject@VCOPOSCoinDispenser@@@ATL@@6B?$IProvideClassInfo2Impl@$1?CLSID_OPOSCoinDispenser@@3U_GUID@@B$1?DIID__IOPOSCoinDispenserEvents@@3U2@B$1?LIBID_OposCoinDispenser_CCO@@3U2@B$00$0A@VCComTypeInfoHolder@ATL@@@1@@ 1002027c     CoinDispenser.obj
 0002:00001290       ??_7?$CComObject@VCOPOSCoinDispenser@@@ATL@@6B?$IObjectSafetyImpl@VCOPOSCoinDispenser@@$02@1@@ 10020290     CoinDispenser.obj
 0002:000012a8       ??_7?$CComObject@VCOPOSCoinDispenser@@@ATL@@6B?$IPropertyNotifySinkCP@VCOPOSCoinDispenser@@VCComDynamicUnkArray@ATL@@@1@@ 100202a8     CoinDispenser.obj
 0002:000012c8       ??_7?$CComObject@VCOPOSCoinDispenser@@@ATL@@6B?$CProxy_IOPOSEvents@VCOPOSCoinDispenser@@@@@ 100202c8     CoinDispenser.obj
 0002:000012e8       ??_C@_1O@GBFKGNEO@?$AAA?$AAT?$AAL?$AA?3?$AA?$CF?$AAp@ 100202e8     CoinDispenser.obj
 0002:000012f8       ??_C@_1BA@PICGEGJB@?$AAD?$AAI?$AAS?$AAP?$AAL?$AAA?$AAY@ 100202f8     CoinDispenser.obj
 0002:00001308       __GUID_9bfbbc02_eff1_101a_84ed_00aa00341d07 10020308     CoinDispenser.obj
 0002:00001318       ?_entries@?1??_GetEntries@?$CComEnum@UIEnumConnectionPoints@@$1?_GUID_b196b285_bab4_101a_b69c_00aa00341d07@@3U__s_GUID@@BPAUIConnectionPoint@@V?$_CopyInterface@UIConnectionPoint@@@ATL@@VCComSingleThreadModel@6@@ATL@@SGPBU_ATL_INTMAP_ENTRY@3@XZ@4QBU43@B 10020318     CoinDispenser.obj
 0002:00001330       __GUID_b196b284_bab4_101a_b69c_00aa00341d07 10020330     CoinDispenser.obj
 0002:00001340       __GUID_00020412_0000_0000_c000_000000000046 10020340     CoinDispenser.obj
 0002:00001350       __GUID_00020401_0000_0000_c000_000000000046 10020350     CoinDispenser.obj
 0002:00001360       ??_7?$CComObject@V?$CComEnum@UIEnumConnections@@$1?_GUID_b196b287_bab4_101a_b69c_00aa00341d07@@3U__s_GUID@@BUtagCONNECTDATA@@V?$_Copy@UtagCONNECTDATA@@@ATL@@VCComSingleThreadModel@6@@ATL@@@ATL@@6B@ 10020360     CoinDispenser.obj
 0002:00001380       __GUID_55980ba0_35aa_11cf_b671_00aa004cd6d8 10020380     CoinDispenser.obj
 0002:00001390       __GUID_b196b28b_bab4_101a_b69c_00aa00341d07 10020390     CoinDispenser.obj
 0002:000013a0       ?_entries@?1??_GetEntries@?$CComEnum@UIEnumConnections@@$1?_GUID_b196b287_bab4_101a_b69c_00aa00341d07@@3U__s_GUID@@BUtagCONNECTDATA@@V?$_Copy@UtagCONNECTDATA@@@ATL@@VCComSingleThreadModel@6@@ATL@@SGPBU_ATL_INTMAP_ENTRY@3@XZ@4QBU43@B 100203a0     CoinDispenser.obj
 0002:000013b8       ??_C@_0BG@EKFFMJIO@RegOpenKeyTransactedW@ 100203b8     CoinDispenser.obj
 0002:000013d0       ??_C@_0BI@HAKLOOGP@RegDeleteKeyTransactedW@ 100203d0     CoinDispenser.obj
 0002:000013e8       ??_C@_0BA@LILAPHGE@RegDeleteKeyExW@ 100203e8     CoinDispenser.obj
 0002:000013f8       ??_C@_19ILOCMLCJ@?$AA?4?$AAt?$AAl?$AAb@ 100203f8     CoinDispenser.obj
 0002:00001404       __GUID_0002e012_0000_0000_c000_000000000046 10020404     CoinDispenser.obj
 0002:00001414       ??_C@_1O@FHBGLCIO@?$AAC?$AAL?$AAS?$AAI?$AAD?$AA?2@ 10020414     CoinDispenser.obj
 0002:00001424       ??_C@_1CK@IFBKBFAA@?$AA?2?$AAR?$AAe?$AAq?$AAu?$AAi?$AAr?$AAe?$AAd?$AA?5?$AAC?$AAa?$AAt?$AAe?$AAg@ 10020424     CoinDispenser.obj
 0002:00001450       ??_C@_1DA@BIHALFED@?$AA?2?$AAI?$AAm?$AAp?$AAl?$AAe?$AAm?$AAe?$AAn?$AAt?$AAe?$AAd?$AA?5?$AAC?$AAa@ 10020450     CoinDispenser.obj
 0002:00001480       ??_C@_1BK@EDKOLFBJ@?$AAO?$AAL?$AAE?$AAA?$AAU?$AAT?$AA3?$AA2?$AA?4?$AAD?$AAL?$AAL@ 10020480     CoinDispenser.obj
 0002:0000149c       ??_C@_0BJ@CNLFOMHB@UnRegisterTypeLibForUser@ 1002049c     CoinDispenser.obj
 0002:000014b8       ??_C@_0BH@LBOMMKPJ@RegisterTypeLibForUser@ 100204b8     CoinDispenser.obj
 0002:000014d0       ??_C@_0P@MMNMMLGK@COFreezeEvents@ 100204d0     CoinDispenserImpl.obj
 0002:000014e0       ??_C@_0BC@OGCGGIMP@GetPropertyNumber@ 100204e0     CoinDispenserImpl.obj
 0002:000014f4       ??_C@_0BC@MDCNODNB@SetPropertyNumber@ 100204f4     CoinDispenserImpl.obj
 0002:00001508       ??_C@_0BC@CFCCMIMD@GetPropertyString@ 10020508     CoinDispenserImpl.obj
 0002:0000151c       ??_C@_0BC@CJEDNN@SetPropertyString@ 1002051c     CoinDispenserImpl.obj
 0002:00001530       ??_C@_0M@LNPKKKDA@OpenService@ 10020530     CoinDispenserImpl.obj
 0002:0000153c       ??_C@_0M@PCMCHHMH@CheckHealth@ 1002053c     CoinDispenserImpl.obj
 0002:00001548       ??_C@_0M@JGMIDNEK@ClaimDevice@ 10020548     CoinDispenserImpl.obj
 0002:00001554       ??_C@_0N@DDFIIBMP@CloseService@ 10020554     CoinDispenserImpl.obj
 0002:00001564       ??_C@_08EEIHICPC@DirectIO@ 10020564     CoinDispenserImpl.obj
 0002:00001570       ??_C@_0O@BCPMENMJ@ReleaseDevice@ 10020570     CoinDispenserImpl.obj
 0002:00001580       ??_C@_0P@GNCBCCPO@DispenseChange@ 10020580     CoinDispenserImpl.obj
 0002:00001590       ??_C@_0BA@GFABKEEE@ResetStatistics@ 10020590     CoinDispenserImpl.obj
 0002:000015a0       ??_C@_0BD@DPALHJGC@RetrieveStatistics@ 100205a0     CoinDispenserImpl.obj
 0002:000015b4       ??_C@_0BB@KOHIKNFC@UpdateStatistics@ 100205b4     CoinDispenserImpl.obj
 0002:000015c8       ??_C@_0BH@PBKBNMGB@CompareFirmwareVersion@ 100205c8     CoinDispenserImpl.obj
 0002:000015e0       ??_C@_0P@FBPDPIPA@UpdateFirmware@ 100205e0     CoinDispenserImpl.obj
 0002:000015f0       ??_C@_0BB@OAMAKNAK@AdjustCashCounts@ 100205f0     CoinDispenserImpl.obj
 0002:00001604       ??_C@_0P@HELDJPLA@ReadCashCounts@ 10020604     CoinDispenserImpl.obj
 0002:00001614       ??_7?$CProxy_IOPOSEvents@VCOPOSCoinDispenser@@@@6B@ 10020614     CoinDispenserImpl.obj
 0002:00001634       ??_C@_1BA@IFHENID@?$AA?$FL?$AAE?$AAr?$AAr?$AAo?$AAr?$AA?$FN@ 10020634     CoinDispenserImpl.obj
 0002:00001644       ??_C@_0DA@HMMGFBHA@SOFTWARE?2OLEforRetail?2ServiceOP@ 10020644     CoinDispenserImpl.obj
 0002:00001674       ??_C@_1M@IAIJHCCH@?$AAC?$AAl?$AAo?$AAs?$AAe@ 10020674     CoinDispenserImpl.obj
 0002:00001680       ??_C@_1M@PCPKGJAH@?$AAC?$AAl?$AAa?$AAi?$AAm@ 10020680     CoinDispenserImpl.obj
 0002:0000168c       ??_C@_1BA@NDFKIOCP@?$AAR?$AAe?$AAl?$AAe?$AAa?$AAs?$AAe@ 1002068c     CoinDispenserImpl.obj
 0002:0000169c       ??_C@_0O@HAMECMKL@CoinDispenser@ 1002069c     CoinDispenserImpl.obj
 0002:000016ac       ??_C@_1BM@IJMNMBPK@?$AAG?$AAe?$AAt?$AAO?$AAp?$AAe?$AAn?$AAR?$AAe?$AAs?$AAu?$AAl?$AAt@ 100206ac     CoinDispenserImpl.obj
 0002:000016c8       _IID_IPropertyNotifySink   100206c8     uuid:ocidl_i.obj
 0002:000016d8       _GUID_NULL                 100206d8     uuid:cguid_i.obj
 0002:000016e8       _CLSID_StdGlobalInterfaceTable 100206e8     uuid:cguid_i.obj
 0002:000016f8       _IID_IDispatch             100206f8     uuid:oaidl_i.obj
 0002:00001708       _CLSID_StdComponentCategoriesMgr 10020708     uuid:ieguids.obj
 0002:00001718       _IID_IUnknown              10020718     uuid:unknwn_i.obj
 0002:00001728       ??_C@_1EC@JIJBPKFM@?$AAa?$AAp?$AAi?$AA?9?$AAm?$AAs?$AA?9?$AAw?$AAi?$AAn?$AA?9?$AAc?$AAo?$AAr?$AAe@ 10020728     LIBCMT:thread_safe_statics.obj
 0002:0000176c       ??_C@_1BK@MGMFAEKH@?$AAk?$AAe?$AAr?$AAn?$AAe?$AAl?$AA3?$AA2?$AA?4?$AAd?$AAl?$AAl@ 1002076c     LIBCMT:thread_safe_statics.obj
 0002:00001788       ??_C@_0BJ@JEBJOJFJ@SleepConditionVariableCS@ 10020788     LIBCMT:thread_safe_statics.obj
 0002:000017a4       ??_C@_0BJ@PGPPEPCC@WakeAllConditionVariable@ 100207a4     LIBCMT:thread_safe_statics.obj
 0002:000017bd       ?nothrow@std@@3Unothrow_t@1@B 100207bd     LIBCMT:std_nothrow.obj
 0002:000017c8       __pDefaultRawDllMain       100207c8     LIBCMT:dll_dllmain.obj
 0002:000017c8       __pRawDllMain              100207c8     LIBCMT:dll_dllmain.obj
 0002:000017d0       ??_7exception@std@@6B@     100207d0     LIBCMT:throw_bad_alloc.obj
 0002:000017d8       ??_C@_0BC@EOODALEL@Unknown?5exception@ 100207d8     LIBCMT:throw_bad_alloc.obj
 0002:000017f0       ??_7bad_alloc@std@@6B@     100207f0     LIBCMT:throw_bad_alloc.obj
 0002:000017f8       ??_C@_0P@GHFPNOJB@bad?5allocation@ 100207f8     LIBCMT:throw_bad_alloc.obj
 0002:0000180c       ??_7bad_array_new_length@std@@6B@ 1002080c     LIBCMT:throw_bad_alloc.obj
 0002:00001814       ??_C@_0BF@KINCDENJ@bad?5array?5new?5length@ 10020814     LIBCMT:throw_bad_alloc.obj
 0002:00001830       ??_7type_info@@6B@         10020830     LIBCMT:std_type_info_static.obj
 0002:00001834       _GUID_ATLVer110            10020834     atls:atlbase.obj
 0002:00001848       ??_C@_1IC@ONKHOIDK@?$AAE?$AAR?$AAR?$AAO?$AAR?$AA?5?$AA?3?$AA?5?$AAU?$AAn?$AAa?$AAb?$AAl?$AAe?$AA?5@ 10020848     atls:atlbase.obj
 0002:000018cc       ??_C@_0N@FJEPLCIH@atlthunk?4dll@ 100208cc     atls:atlthunk.obj
 0002:000018dc       ??_C@_0BG@GAKFHCBM@AtlThunk_AllocateData@ 100208dc     atls:atlthunk.obj
 0002:000018f4       ??_C@_0BC@JKONFIAH@AtlThunk_InitData@ 100208f4     atls:atlthunk.obj
 0002:00001908       ??_C@_0BE@IAOEELAK@AtlThunk_DataToCode@ 10020908     atls:atlthunk.obj
 0002:0000191c       ??_C@_0BC@GBGKAIPI@AtlThunk_FreeData@ 1002091c     atls:atlthunk.obj
 0002:00001930       __pDestructExceptionObject 10020930     libvcruntime:ehhelpers.obj
 0002:00001938       ??_7bad_exception@std@@6B@ 10020938     libvcruntime:frame.obj
 0002:00001940       ??_C@_0O@DPKOEFFH@bad?5exception@ 10020940     libvcruntime:frame.obj
 0002:00001cd0       ??_C@_08EHJDFFNH@__based?$CI@ 10020cd0     libvcruntime:undname.obj
 0002:00001cdc       ??_C@_07KOLFKCDI@__cdecl@  10020cdc     libvcruntime:undname.obj
 0002:00001ce4       ??_C@_08GHMPAG@__pascal@   10020ce4     libvcruntime:undname.obj
 0002:00001cf0       ??_C@_09IFJBGAPI@__stdcall@ 10020cf0     libvcruntime:undname.obj
 0002:00001cfc       ??_C@_0L@NPHFGOKO@__thiscall@ 10020cfc     libvcruntime:undname.obj
 0002:00001d08       ??_C@_0L@JMKHOMEK@__fastcall@ 10020d08     libvcruntime:undname.obj
 0002:00001d14       ??_C@_0N@BCKKPABJ@__vectorcall@ 10020d14     libvcruntime:undname.obj
 0002:00001d24       ??_C@_09HIJEGCPM@__clrcall@ 10020d24     libvcruntime:undname.obj
 0002:00001d30       ??_C@_06GHPCKEAG@__eabi@   10020d30     libvcruntime:undname.obj
 0002:00001d38       ??_C@_09IOPIDJLG@__swift_1@ 10020d38     libvcruntime:undname.obj
 0002:00001d44       ??_C@_09KFNFGKHF@__swift_2@ 10020d44     libvcruntime:undname.obj
 0002:00001d50       ??_C@_07JOMMBBKO@__ptr64@  10020d50     libvcruntime:undname.obj
 0002:00001d58       ??_C@_0L@PILCLIHE@__restrict@ 10020d58     libvcruntime:undname.obj
 0002:00001d64       ??_C@_0M@GFIIJFMG@__unaligned@ 10020d64     libvcruntime:undname.obj
 0002:00001d70       ??_C@_09DHDLOLLB@restrict?$CI@ 10020d70     libvcruntime:undname.obj
 0002:00001d7a       ??_C@_00CNPNBAHC@@         10020d7a     libvcruntime:undname.obj
 0002:00001d7c       ??_C@_04NIHEBCM@?5new@     10020d7c     libvcruntime:undname.obj
 0002:00001d84       ??_C@_07FPCDHGMM@?5delete@ 10020d84     libvcruntime:undname.obj
 0002:00001d8c       ??_C@_01NEMOKFLO@?$DN@     10020d8c     libvcruntime:undname.obj
 0002:00001d90       ??_C@_02GPIOPFAK@?$DO?$DO@ 10020d90     libvcruntime:undname.obj
 0002:00001d94       ??_C@_02FODMEDOG@?$DM?$DM@ 10020d94     libvcruntime:undname.obj
 0002:00001d98       ??_C@_01DCLJPIOD@?$CB@     10020d98     libvcruntime:undname.obj
 0002:00001d9c       ??_C@_02EGOFBIJA@?$DN?$DN@ 10020d9c     libvcruntime:undname.obj
 0002:00001da0       ??_C@_02FDNJECIE@?$CB?$DN@ 10020da0     libvcruntime:undname.obj
 0002:00001da4       ??_C@_02GPECMEKF@?$FL?$FN@ 10020da4     libvcruntime:undname.obj
 0002:00001da8       ??_C@_08LHJFAFGD@operator@ 10020da8     libvcruntime:undname.obj
 0002:00001db4       ??_C@_02HBOOOICD@?9?$DO@   10020db4     libvcruntime:undname.obj
 0002:00001db8       ??_C@_01NBENCBCI@?$CK@     10020db8     libvcruntime:undname.obj
 0002:00001dbc       ??_C@_02ECNGHCIF@?$CL?$CL@ 10020dbc     libvcruntime:undname.obj
 0002:00001dc0       ??_C@_02BAABKJLB@?9?9@     10020dc0     libvcruntime:undname.obj
 0002:00001dc4       ??_C@_01JOAMLHOP@?9@       10020dc4     libvcruntime:undname.obj
 0002:00001dc8       ??_C@_01MIFGBAGJ@?$CL@     10020dc8     libvcruntime:undname.obj
 0002:00001dcc       ??_C@_01HNPIGOCE@?$CG@     10020dcc     libvcruntime:undname.obj
 0002:00001dd0       ??_C@_03MNHNFDLC@?9?$DO?$CK@ 10020dd0     libvcruntime:undname.obj
 0002:00001dd4       ??_C@_01KMDKNFGN@?1@       10020dd4     libvcruntime:undname.obj
 0002:00001dd8       ??_C@_01FGNFDNOH@?$CF@     10020dd8     libvcruntime:undname.obj
 0002:00001ddc       ??_C@_01MNNFJEPP@?$DM@     10020ddc     libvcruntime:undname.obj
 0002:00001de0       ??_C@_02EHCHHCKH@?$DM?$DN@ 10020de0     libvcruntime:undname.obj
 0002:00001de4       ??_C@_01PPODPGHN@?$DO@     10020de4     libvcruntime:undname.obj
 0002:00001de8       ??_C@_02EEKDKGMJ@?$DO?$DN@ 10020de8     libvcruntime:undname.obj
 0002:00001dec       ??_C@_01IHBHIGKO@?0@       10020dec     libvcruntime:undname.obj
 0002:00001df0       ??_C@_02HCKGKOFO@?$CI?$CJ@ 10020df0     libvcruntime:undname.obj
 0002:00001df4       ??_C@_01PJKLJHI@?$HO@      10020df4     libvcruntime:undname.obj
 0002:00001df8       ??_C@_01JKBOJNNK@?$FO@     10020df8     libvcruntime:undname.obj
 0002:00001dfc       ??_C@_01DNKMNLPK@?$HM@     10020dfc     libvcruntime:undname.obj
 0002:00001e00       ??_C@_02PPKAJPJL@?$CG?$CG@ 10020e00     libvcruntime:undname.obj
 0002:00001e04       ??_C@_02NONPIBCD@?$HM?$HM@ 10020e04     libvcruntime:undname.obj
 0002:00001e08       ??_C@_02FPIMKNGF@?$CK?$DN@ 10020e08     libvcruntime:undname.obj
 0002:00001e0c       ??_C@_02FOEOMHFC@?$CL?$DN@ 10020e0c     libvcruntime:undname.obj
 0002:00001e10       ??_C@_02FKMDLLOA@?9?$DN@   10020e10     libvcruntime:undname.obj
 0002:00001e14       ??_C@_02FJEHGPIO@?1?$DN@   10020e14     libvcruntime:undname.obj
 0002:00001e18       ??_C@_02FENAOKFI@?$CF?$DN@ 10020e18     libvcruntime:undname.obj
 0002:00001e1c       ??_C@_03IKFCCPFF@?$DO?$DO?$DN@ 10020e1c     libvcruntime:undname.obj
 0002:00001e20       ??_C@_03CDNPDDLA@?$DM?$DM?$DN@ 10020e20     libvcruntime:undname.obj
 0002:00001e24       ??_C@_02FGJGFEAB@?$CG?$DN@ 10020e24     libvcruntime:undname.obj
 0002:00001e28       ??_C@_02DHLNPPGH@?$HM?$DN@ 10020e28     libvcruntime:undname.obj
 0002:00001e2c       ??_C@_02MHEGNOJ@?$FO?$DN@  10020e2c     libvcruntime:undname.obj
 0002:00001e30       ??_C@_09IFPLHPGF@?$GAvftable?8@ 10020e30     libvcruntime:undname.obj
 0002:00001e3c       ??_C@_09BLBHBJP@?$GAvbtable?8@ 10020e3c     libvcruntime:undname.obj
 0002:00001e48       ??_C@_07FEEIOKP@?$GAvcall?8@ 10020e48     libvcruntime:undname.obj
 0002:00001e50       ??_C@_08LLFFHHDJ@?$GAtypeof?8@ 10020e50     libvcruntime:undname.obj
 0002:00001e5c       ??_C@_0BF@KDPPACIK@?$GAlocal?5static?5guard?8@ 10020e5c     libvcruntime:undname.obj
 0002:00001e74       ??_C@_08OBABFOLI@?$GAstring?8@ 10020e74     libvcruntime:undname.obj
 0002:00001e80       ??_C@_0BD@JDLKDPAB@?$GAvbase?5destructor?8@ 10020e80     libvcruntime:undname.obj
 0002:00001e94       ??_C@_0BN@DEGPLNFK@?$GAvector?5deleting?5destructor?8@ 10020e94     libvcruntime:undname.obj
 0002:00001eb4       ??_C@_0BO@OBMKPJIG@?$GAdefault?5constructor?5closure?8@ 10020eb4     libvcruntime:undname.obj
 0002:00001ed4       ??_C@_0BN@IMDCHIKM@?$GAscalar?5deleting?5destructor?8@ 10020ed4     libvcruntime:undname.obj
 0002:00001ef4       ??_C@_0BO@PFGOCPJJ@?$GAvector?5constructor?5iterator?8@ 10020ef4     libvcruntime:undname.obj
 0002:00001f14       ??_C@_0BN@LFPFMEDL@?$GAvector?5destructor?5iterator?8@ 10020f14     libvcruntime:undname.obj
 0002:00001f34       ??_C@_0CE@IKBNEHA@?$GAvector?5vbase?5constructor?5itera@ 10020f34     libvcruntime:undname.obj
 0002:00001f58       ??_C@_0BL@NILFHHPC@?$GAvirtual?5displacement?5map?8@ 10020f58     libvcruntime:undname.obj
 0002:00001f74       ??_C@_0CB@JONCMFFK@?$GAeh?5vector?5constructor?5iterator@ 10020f74     libvcruntime:undname.obj
 0002:00001f98       ??_C@_0CA@GCEOPDGL@?$GAeh?5vector?5destructor?5iterator?8@ 10020f98     libvcruntime:undname.obj
 0002:00001fb8       ??_C@_0CH@OOJPLCPH@?$GAeh?5vector?5vbase?5constructor?5it@ 10020fb8     libvcruntime:undname.obj
 0002:00001fe0       ??_C@_0BL@LLKPOHJI@?$GAcopy?5constructor?5closure?8@ 10020fe0     libvcruntime:undname.obj
 0002:00001ffc       ??_C@_0BA@KBCDOMBN@?$GAudt?5returning?8@ 10020ffc     libvcruntime:undname.obj
 0002:0000200c       ??_C@_03KLGMFNMG@?$GAEH@   1002100c     libvcruntime:undname.obj
 0002:00002010       ??_C@_05KHLCHHI@?$GARTTI@  10021010     libvcruntime:undname.obj
 0002:00002018       ??_C@_0BA@KKLDJDLB@?$GAlocal?5vftable?8@ 10021018     libvcruntime:undname.obj
 0002:00002028       ??_C@_0CE@IIHCMGGL@?$GAlocal?5vftable?5constructor?5clos@ 10021028     libvcruntime:undname.obj
 0002:0000204c       ??_C@_06FHBGPFGH@?5new?$FL?$FN@ 1002104c     libvcruntime:undname.obj
 0002:00002054       ??_C@_09LBNFPBCA@?5delete?$FL?$FN@ 10021054     libvcruntime:undname.obj
 0002:00002060       ??_C@_0P@HJKNJFNN@?$GAomni?5callsig?8@ 10021060     libvcruntime:undname.obj
 0002:00002070       ??_C@_0BL@CNOONJFP@?$GAplacement?5delete?5closure?8@ 10021070     libvcruntime:undname.obj
 0002:0000208c       ??_C@_0BN@CKNJLHMB@?$GAplacement?5delete?$FL?$FN?5closure?8@ 1002108c     libvcruntime:undname.obj
 0002:000020ac       ??_C@_0CG@CFDHKGGD@?$GAmanaged?5vector?5constructor?5ite@ 100210ac     libvcruntime:undname.obj
 0002:000020d4       ??_C@_0CF@IMGKMJNO@?$GAmanaged?5vector?5destructor?5iter@ 100210d4     libvcruntime:undname.obj
 0002:000020fc       ??_C@_0CG@HLDDJMAG@?$GAeh?5vector?5copy?5constructor?5ite@ 100210fc     libvcruntime:undname.obj
 0002:00002124       ??_C@_0CM@FCBBDIGB@?$GAeh?5vector?5vbase?5copy?5construct@ 10021124     libvcruntime:undname.obj
 0002:00002150       ??_C@_0BL@CLIPGLGB@?$GAdynamic?5initializer?5for?5?8@ 10021150     libvcruntime:undname.obj
 0002:0000216c       ??_C@_0CB@PDBIFEP@?$GAdynamic?5atexit?5destructor?5for?5@ 1002116c     libvcruntime:undname.obj
 0002:00002190       ??_C@_0CD@CGAJBKEJ@?$GAvector?5copy?5constructor?5iterat@ 10021190     libvcruntime:undname.obj
 0002:000021b4       ??_C@_0CJ@GJELGAMM@?$GAvector?5vbase?5copy?5constructor?5@ 100211b4     libvcruntime:undname.obj
 0002:000021e0       ??_C@_0CL@FGIJHLCE@?$GAmanaged?5vector?5copy?5constructo@ 100211e0     libvcruntime:undname.obj
 0002:0000220c       ??_C@_0BM@PMGGMLDN@?$GAlocal?5static?5thread?5guard?8@ 1002120c     libvcruntime:undname.obj
 0002:00002228       ??_C@_0N@BDNMDMOL@operator?5?$CC?$CC?5@ 10021228     libvcruntime:undname.obj
 0002:00002238       ??_C@_0BC@GGEBGALA@operator?5co_await@ 10021238     libvcruntime:undname.obj
 0002:0000224c       ??_C@_0M@GAAIMMOH@operator?$DM?$DN?$DO@ 1002124c     libvcruntime:undname.obj
 0002:00002258       ??_C@_0BC@DAFEJGAK@?5Type?5Descriptor?8@ 10021258     libvcruntime:undname.obj
 0002:0000226c       ??_C@_0BM@LDKODKLH@?5Base?5Class?5Descriptor?5at?5?$CI@ 1002126c     libvcruntime:undname.obj
 0002:00002288       ??_C@_0BD@LGICGFMM@?5Base?5Class?5Array?8@ 10021288     libvcruntime:undname.obj
 0002:0000229c       ??_C@_0BN@MECKDCOJ@?5Class?5Hierarchy?5Descriptor?8@ 1002129c     libvcruntime:undname.obj
 0002:000022bc       ??_C@_0BK@CFCOFLF@?5Complete?5Object?5Locator?8@ 100212bc     libvcruntime:undname.obj
 0002:000022d8       ??_C@_0BG@JNJLAMPM@?$GAanonymous?5namespace?8@ 100212d8     libvcruntime:undname.obj
 0002:000022fc       ??_C@_1DM@KHCHBNEB@?$AAa?$AAp?$AAi?$AA?9?$AAm?$AAs?$AA?9?$AAw?$AAi?$AAn?$AA?9?$AAc?$AAo?$AAr?$AAe@ 100212fc     libvcruntime:winapi_downlevel.obj
 0002:00002338       ??_C@_1DK@LPPGFMPP@?$AAa?$AAp?$AAi?$AA?9?$AAm?$AAs?$AA?9?$AAw?$AAi?$AAn?$AA?9?$AAc?$AAo?$AAr?$AAe@ 10021338     libvcruntime:winapi_downlevel.obj
 0002:00002374       ??_C@_1BC@GDMECMAK@?$AAk?$AAe?$AAr?$AAn?$AAe?$AAl?$AA3?$AA2@ 10021374     libvcruntime:winapi_downlevel.obj
 0002:00002388       ??_C@_1BA@PFFKHIOG@?$AAa?$AAp?$AAi?$AA?9?$AAm?$AAs?$AA?9@ 10021388     libvcruntime:winapi_downlevel.obj
 0002:000023a0       ??_C@_08KNHFBNJ@FlsAlloc@  100213a0     libvcruntime:winapi_downlevel.obj
 0002:000023b4       ??_C@_07PEJMOBNF@FlsFree@  100213b4     libvcruntime:winapi_downlevel.obj
 0002:000023c4       ??_C@_0M@GDNOONDI@FlsGetValue@ 100213c4     libvcruntime:winapi_downlevel.obj
 0002:000023d8       ??_C@_0M@JCPCPOEF@FlsSetValue@ 100213d8     libvcruntime:winapi_downlevel.obj
 0002:000023ec       ??_C@_0BM@HCFOFFN@InitializeCriticalSectionEx@ 100213ec     libvcruntime:winapi_downlevel.obj
 0002:00002570       ?format_validation_lookup_table_spectre@__crt_stdio_output@@3V?$spectre_mitigated_lookup_table@Ustate_transition_pair@__crt_stdio_output@@$0IA@@1@B 10021570     libucrt:output.obj
 0002:00002970       ??_C@_1O@CEDCILHN@?$AA?$CI?$AAn?$AAu?$AAl?$AAl?$AA?$CJ@ 10021970     libucrt:output.obj
 0002:00002980       ??_C@_06OJHGLDPL@?$CInull?$CJ@ 10021980     libucrt:output.obj
 0002:00002988       ___acrt_exception_action_table 10021988     libucrt:exception_filter.obj
 0002:00002a18       ___acrt_signal_action_table_count 10021a18     libucrt:exception_filter.obj
 0002:00002a1c       ___acrt_signal_action_first_fpe_index 10021a1c     libucrt:exception_filter.obj
 0002:00002a20       ___acrt_signal_action_fpe_count 10021a20     libucrt:exception_filter.obj
 0002:00002a24       ??_C@_1BI@BGOHAHKC@?$AAm?$AAs?$AAc?$AAo?$AAr?$AAe?$AAe?$AA?4?$AAd?$AAl?$AAl@ 10021a24     libucrt:exit.obj
 0002:00002a3c       ??_C@_0P@MIGLKIOC@CorExitProcess@ 10021a3c     libucrt:exit.obj
 0002:00002b20       ??_C@_1EA@JGEFHKEI@?$AAa?$AAp?$AAi?$AA?9?$AAm?$AAs?$AA?9?$AAw?$AAi?$AAn?$AA?9?$AAc?$AAo?$AAr?$AAe@ 10021b20     libucrt:winapi_thunks.obj
 0002:00002b60       ??_C@_1DI@IJCEHOCB@?$AAa?$AAp?$AAi?$AA?9?$AAm?$AAs?$AA?9?$AAw?$AAi?$AAn?$AA?9?$AAc?$AAo?$AAr?$AAe@ 10021b60     libucrt:winapi_thunks.obj
 0002:00002b98       ??_C@_1EI@MPIAOHOC@?$AAa?$AAp?$AAi?$AA?9?$AAm?$AAs?$AA?9?$AAw?$AAi?$AAn?$AA?9?$AAc?$AAo?$AAr?$AAe@ 10021b98     libucrt:winapi_thunks.obj
 0002:00002be0       ??_C@_1FK@FPHCKFIE@?$AAa?$AAp?$AAi?$AA?9?$AAm?$AAs?$AA?9?$AAw?$AAi?$AAn?$AA?9?$AAc?$AAo?$AAr?$AAe@ 10021be0     libucrt:winapi_thunks.obj
 0002:00002c40       ??_C@_1EM@DILCGIIO@?$AAa?$AAp?$AAi?$AA?9?$AAm?$AAs?$AA?9?$AAw?$AAi?$AAn?$AA?9?$AAc?$AAo?$AAr?$AAe@ 10021c40     libucrt:winapi_thunks.obj
 0002:00002c8c       ??_C@_1DM@LNCGDDPN@?$AAa?$AAp?$AAi?$AA?9?$AAm?$AAs?$AA?9?$AAw?$AAi?$AAn?$AA?9?$AAc?$AAo?$AAr?$AAe@ 10021c8c     libucrt:winapi_thunks.obj
 0002:00002cc8       ??_C@_1DO@FPAPJEMD@?$AAa?$AAp?$AAi?$AA?9?$AAm?$AAs?$AA?9?$AAw?$AAi?$AAn?$AA?9?$AAc?$AAo?$AAr?$AAe@ 10021cc8     libucrt:winapi_thunks.obj
 0002:00002d08       ??_C@_1DK@NDHNAHIO@?$AAa?$AAp?$AAi?$AA?9?$AAm?$AAs?$AA?9?$AAw?$AAi?$AAn?$AA?9?$AAc?$AAo?$AAr?$AAe@ 10021d08     libucrt:winapi_thunks.obj
 0002:00002d44       ??_C@_1DM@KGHDGBCM@?$AAa?$AAp?$AAi?$AA?9?$AAm?$AAs?$AA?9?$AAw?$AAi?$AAn?$AA?9?$AAc?$AAo?$AAr?$AAe@ 10021d44     libucrt:winapi_thunks.obj
 0002:00002d80       ??_C@_1EO@IJIOEFOH@?$AAa?$AAp?$AAi?$AA?9?$AAm?$AAs?$AA?9?$AAw?$AAi?$AAn?$AA?9?$AAr?$AAt?$AAc?$AAo@ 10021d80     libucrt:winapi_thunks.obj
 0002:00002dd0       ??_C@_1FG@HHGEKANL@?$AAa?$AAp?$AAi?$AA?9?$AAm?$AAs?$AA?9?$AAw?$AAi?$AAn?$AA?9?$AAs?$AAe?$AAc?$AAu@ 10021dd0     libucrt:winapi_thunks.obj
 0002:00002e28       ??_C@_1EG@DBIOJECG@?$AAe?$AAx?$AAt?$AA?9?$AAm?$AAs?$AA?9?$AAw?$AAi?$AAn?$AA?9?$AAn?$AAt?$AAu?$AAs@ 10021e28     libucrt:winapi_thunks.obj
 0002:00002e70       ??_C@_1EO@FIHMJCLF@?$AAe?$AAx?$AAt?$AA?9?$AAm?$AAs?$AA?9?$AAw?$AAi?$AAn?$AA?9?$AAn?$AAt?$AAu?$AAs@ 10021e70     libucrt:winapi_thunks.obj
 0002:00002ec0       ??_C@_1BC@DNHGCMLG@?$AAa?$AAd?$AAv?$AAa?$AAp?$AAi?$AA3?$AA2@ 10021ec0     libucrt:winapi_thunks.obj
 0002:00002ed4       ??_C@_1M@OAIMIKLP@?$AAn?$AAt?$AAd?$AAl?$AAl@ 10021ed4     libucrt:winapi_thunks.obj
 0002:00002ee0       ??_C@_1EG@DPGNFKGC@?$AAa?$AAp?$AAi?$AA?9?$AAm?$AAs?$AA?9?$AAw?$AAi?$AAn?$AA?9?$AAa?$AAp?$AAp?$AAm@ 10021ee0     libucrt:winapi_thunks.obj
 0002:00002f28       ??_C@_1O@BCCLBEOE@?$AAu?$AAs?$AAe?$AAr?$AA3?$AA2@ 10021f28     libucrt:winapi_thunks.obj
 0002:00002f38       ??_C@_1BA@IAIFMGEF@?$AAe?$AAx?$AAt?$AA?9?$AAm?$AAs?$AA?9@ 10021f38     libucrt:winapi_thunks.obj
 0002:00002f4c       ??_C@_0BA@FHFNEAED@AreFileApisANSI@ 10021f4c     libucrt:winapi_thunks.obj
 0002:00002f8c       ??_C@_0O@KKBNKAPF@LCMapStringEx@ 10021f8c     libucrt:winapi_thunks.obj
 0002:00002fa4       ??_C@_0BB@HBDEELFH@LocaleNameToLCID@ 10021fa4     libucrt:winapi_thunks.obj
 0002:00002fbc       ??_C@_0CF@OJOFEIGO@AppPolicyGetProcessTerminationM@ 10021fbc     libucrt:winapi_thunks.obj
 0002:00002fec       ??_C@_0BI@BKLFFAPO@SetThreadStackGuarantee@ 10021fec     libucrt:winapi_thunks.obj
 0002:00003048       ??_C@_03OEIAHPBN@INF@      10022048     libucrt:cvt.obj
 0002:0000304c       ??_C@_03OJHLLCGB@inf@      1002204c     libucrt:cvt.obj
 0002:00003050       ??_C@_03LKNCIKJB@NAN@      10022050     libucrt:cvt.obj
 0002:00003054       ??_C@_03LHCJEHON@nan@      10022054     libucrt:cvt.obj
 0002:00003058       ??_C@_09OFJJIMPC@NAN?$CISNAN?$CJ@ 10022058     libucrt:cvt.obj
 0002:00003064       ??_C@_09IPFBKMDL@nan?$CIsnan?$CJ@ 10022064     libucrt:cvt.obj
 0002:00003070       ??_C@_08IKHNHAJ@NAN?$CIIND?$CJ@ 10022070     libucrt:cvt.obj
 0002:0000307c       ??_C@_08OFCDMILK@nan?$CIind?$CJ@ 1002207c     libucrt:cvt.obj
 0002:00003088       ??_C@_05KLBDPFGC@e?$CL000@ 10022088     libucrt:cvt.obj
 0002:00003090       ___lc_time_c               10022090     libucrt:nlsdata.obj
 0002:000031f4       ??_C@_03KOEHGMDN@Sun@      100221f4     libucrt:nlsdata.obj
 0002:000031f8       ??_C@_03PDAGKDH@Mon@       100221f8     libucrt:nlsdata.obj
 0002:000031fc       ??_C@_03NAGEINEP@Tue@      100221fc     libucrt:nlsdata.obj
 0002:00003200       ??_C@_03MHOMLAJA@Wed@      10022200     libucrt:nlsdata.obj
 0002:00003204       ??_C@_03IOFIKPDN@Thu@      10022204     libucrt:nlsdata.obj
 0002:00003208       ??_C@_03IDIOELNC@Fri@      10022208     libucrt:nlsdata.obj
 0002:0000320c       ??_C@_03FEFJNEK@Sat@       1002220c     libucrt:nlsdata.obj
 0002:00003210       ??_C@_06OOPIFAJ@Sunday@    10022210     libucrt:nlsdata.obj
 0002:00003218       ??_C@_06JLEDEDGH@Monday@   10022218     libucrt:nlsdata.obj
 0002:00003220       ??_C@_07BAAGCFCM@Tuesday@  10022220     libucrt:nlsdata.obj
 0002:00003228       ??_C@_09DLIGFAKA@Wednesday@ 10022228     libucrt:nlsdata.obj
 0002:00003234       ??_C@_08HACCIKIA@Thursday@ 10022234     libucrt:nlsdata.obj
 0002:00003240       ??_C@_06JECMNKMI@Friday@   10022240     libucrt:nlsdata.obj
 0002:00003248       ??_C@_08INBOOONO@Saturday@ 10022248     libucrt:nlsdata.obj
 0002:00003254       ??_C@_03JIHJHPIE@Jan@      10022254     libucrt:nlsdata.obj
 0002:00003258       ??_C@_03HJBDCHOM@Feb@      10022258     libucrt:nlsdata.obj
 0002:0000325c       ??_C@_03ODNJBKGA@Mar@      1002225c     libucrt:nlsdata.obj
 0002:00003260       ??_C@_03LEOLGMJP@Apr@      10022260     libucrt:nlsdata.obj
 0002:00003264       ??_C@_03CNMDKL@May@        10022264     libucrt:nlsdata.obj
 0002:00003268       ??_C@_03IDFGHECI@Jun@      10022268     libucrt:nlsdata.obj
 0002:0000326c       ??_C@_03LBGABGKK@Jul@      1002226c     libucrt:nlsdata.obj
 0002:00003270       ??_C@_03IFJFEIGA@Aug@      10022270     libucrt:nlsdata.obj
 0002:00003274       ??_C@_03GGCAPAJC@Sep@      10022274     libucrt:nlsdata.obj
 0002:00003278       ??_C@_03BMAOKBAD@Oct@      10022278     libucrt:nlsdata.obj
 0002:0000327c       ??_C@_03JPJOFNIA@Nov@      1002227c     libucrt:nlsdata.obj
 0002:00003280       ??_C@_03MKABNOCG@Dec@      10022280     libucrt:nlsdata.obj
 0002:00003284       ??_C@_07CGJPFGJA@January@  10022284     libucrt:nlsdata.obj
 0002:0000328c       ??_C@_08GNJGEPFN@February@ 1002228c     libucrt:nlsdata.obj
 0002:00003298       ??_C@_05HPCKOFNC@March@    10022298     libucrt:nlsdata.obj
 0002:000032a0       ??_C@_05DMJDNLEJ@April@    100222a0     libucrt:nlsdata.obj
 0002:000032a8       ??_C@_04CNLMGBGM@June@     100222a8     libucrt:nlsdata.obj
 0002:000032b0       ??_C@_04MIEPOIFP@July@     100222b0     libucrt:nlsdata.obj
 0002:000032b8       ??_C@_06LBBHFDDG@August@   100222b8     libucrt:nlsdata.obj
 0002:000032c0       ??_C@_09BHHEALKD@September@ 100222c0     libucrt:nlsdata.obj
 0002:000032cc       ??_C@_07JJNFCEND@October@  100222cc     libucrt:nlsdata.obj
 0002:000032d4       ??_C@_08HCHEGEOA@November@ 100222d4     libucrt:nlsdata.obj
 0002:000032e0       ??_C@_08EDHMEBNP@December@ 100222e0     libucrt:nlsdata.obj
 0002:000032ec       ??_C@_02DEDBPAFC@AM@       100222ec     libucrt:nlsdata.obj
 0002:000032f0       ??_C@_02CJNFDJBF@PM@       100222f0     libucrt:nlsdata.obj
 0002:000032f4       ??_C@_08BPBNCDIB@MM?1dd?1yy@ 100222f4     libucrt:nlsdata.obj
 0002:00003300       ??_C@_0BE@CKGJFCPC@dddd?0?5MMMM?5dd?0?5yyyy@ 10022300     libucrt:nlsdata.obj
 0002:00003314       ??_C@_08JCCMCCIL@HH?3mm?3ss@ 10022314     libucrt:nlsdata.obj
 0002:00003320       ??_C@_17MBGCMIPB@?$AAS?$AAu?$AAn@ 10022320     libucrt:nlsdata.obj
 0002:00003328       ??_C@_17KBOMKBF@?$AAM?$AAo?$AAn@ 10022328     libucrt:nlsdata.obj
 0002:00003330       ??_C@_17BMKGEGOJ@?$AAT?$AAu?$AAe@ 10022330     libucrt:nlsdata.obj
 0002:00003338       ??_C@_17CJEDCEPE@?$AAW?$AAe?$AAd@ 10022338     libucrt:nlsdata.obj
 0002:00003340       ??_C@_17PDPHAADD@?$AAT?$AAh?$AAu@ 10022340     libucrt:nlsdata.obj
 0002:00003348       ??_C@_17HFOLPPLP@?$AAF?$AAr?$AAi@ 10022348     libucrt:nlsdata.obj
 0002:00003350       ??_C@_17GGIBDPIH@?$AAS?$AAa?$AAt@ 10022350     libucrt:nlsdata.obj
 0002:00003358       ??_C@_1O@IHNHDHPB@?$AAS?$AAu?$AAn?$AAd?$AAa?$AAy@ 10022358     libucrt:nlsdata.obj
 0002:00003368       ??_C@_1O@MMNBFLIA@?$AAM?$AAo?$AAn?$AAd?$AAa?$AAy@ 10022368     libucrt:nlsdata.obj
 0002:00003378       ??_C@_1BA@ENFBFFEK@?$AAT?$AAu?$AAe?$AAs?$AAd?$AAa?$AAy@ 10022378     libucrt:nlsdata.obj
 0002:00003388       ??_C@_1BE@EBOGMDOH@?$AAW?$AAe?$AAd?$AAn?$AAe?$AAs?$AAd?$AAa?$AAy@ 10022388     libucrt:nlsdata.obj
 0002:0000339c       ??_C@_1BC@HHMNLIHE@?$AAT?$AAh?$AAu?$AAr?$AAs?$AAd?$AAa?$AAy@ 1002239c     libucrt:nlsdata.obj
 0002:000033b0       ??_C@_1O@PDICJHAG@?$AAF?$AAr?$AAi?$AAd?$AAa?$AAy@ 100223b0     libucrt:nlsdata.obj
 0002:000033c0       ??_C@_1BC@ENMNNPAJ@?$AAS?$AAa?$AAt?$AAu?$AAr?$AAd?$AAa?$AAy@ 100223c0     libucrt:nlsdata.obj
 0002:000033d4       ??_C@_17DKNBKCHM@?$AAJ?$AAa?$AAn@ 100223d4     libucrt:nlsdata.obj
 0002:000033dc       ??_C@_17LMDJEKJN@?$AAF?$AAe?$AAb@ 100223dc     libucrt:nlsdata.obj
 0002:000033e4       ??_C@_17CKNLEDEC@?$AAM?$AAa?$AAr@ 100223e4     libucrt:nlsdata.obj
 0002:000033ec       ??_C@_17LFPOIHDD@?$AAA?$AAp?$AAr@ 100223ec     libucrt:nlsdata.obj
 0002:000033f4       ??_C@_17PNNKMEED@?$AAM?$AAa?$AAy@ 100223f4     libucrt:nlsdata.obj
 0002:000033fc       ??_C@_17KCJGOCPB@?$AAJ?$AAu?$AAn@ 100223fc     libucrt:nlsdata.obj
 0002:00003404       ??_C@_17IJPCKHK@?$AAJ?$AAu?$AAl@ 10022404     libucrt:nlsdata.obj
 0002:0000340c       ??_C@_17ICPELBCN@?$AAA?$AAu?$AAg@ 1002240c     libucrt:nlsdata.obj
 0002:00003414       ??_C@_17HCHCOKMG@?$AAS?$AAe?$AAp@ 10022414     libucrt:nlsdata.obj
 0002:0000341c       ??_C@_17FNLKOI@?$AAO?$AAc?$AAt@ 1002241c     libucrt:nlsdata.obj
 0002:00003424       ??_C@_17BBDMLCIG@?$AAN?$AAo?$AAv@ 10022424     libucrt:nlsdata.obj
 0002:0000342c       ??_C@_17EGKACKIF@?$AAD?$AAe?$AAc@ 1002242c     libucrt:nlsdata.obj
 0002:00003434       ??_C@_1BA@EFMEIEBA@?$AAJ?$AAa?$AAn?$AAu?$AAa?$AAr?$AAy@ 10022434     libucrt:nlsdata.obj
 0002:00003444       ??_C@_1BC@JGDDFFAM@?$AAF?$AAe?$AAb?$AAr?$AAu?$AAa?$AAr?$AAy@ 10022444     libucrt:nlsdata.obj
 0002:00003458       ??_C@_1M@IKEENEDF@?$AAM?$AAa?$AAr?$AAc?$AAh@ 10022458     libucrt:nlsdata.obj
 0002:00003464       ??_C@_1M@GJNLMHFD@?$AAA?$AAp?$AAr?$AAi?$AAl@ 10022464     libucrt:nlsdata.obj
 0002:00003470       ??_C@_19EPFLPGAP@?$AAJ?$AAu?$AAn?$AAe@ 10022470     libucrt:nlsdata.obj
 0002:0000347c       ??_C@_19BIFMLPCD@?$AAJ?$AAu?$AAl?$AAy@ 1002247c     libucrt:nlsdata.obj
 0002:00003488       ??_C@_1O@PAHLKOAC@?$AAA?$AAu?$AAg?$AAu?$AAs?$AAt@ 10022488     libucrt:nlsdata.obj
 0002:00003498       ??_C@_1BE@DKAAMBJL@?$AAS?$AAe?$AAp?$AAt?$AAe?$AAm?$AAb?$AAe?$AAr@ 10022498     libucrt:nlsdata.obj
 0002:000034ac       ??_C@_1BA@EPANDLNG@?$AAO?$AAc?$AAt?$AAo?$AAb?$AAe?$AAr@ 100224ac     libucrt:nlsdata.obj
 0002:000034bc       ??_C@_1BC@BGLIFPF@?$AAN?$AAo?$AAv?$AAe?$AAm?$AAb?$AAe?$AAr@ 100224bc     libucrt:nlsdata.obj
 0002:000034d0       ??_C@_1BC@FEMKIFH@?$AAD?$AAe?$AAc?$AAe?$AAm?$AAb?$AAe?$AAr@ 100224d0     libucrt:nlsdata.obj
 0002:000034e4       ??_C@_15ODEHAHHF@?$AAA?$AAM@ 100224e4     libucrt:nlsdata.obj
 0002:000034ec       ??_C@_15CLMNNGEL@?$AAP?$AAM@ 100224ec     libucrt:nlsdata.obj
 0002:000034f4       ??_C@_1BC@IEBCMHCM@?$AAM?$AAM?$AA?1?$AAd?$AAd?$AA?1?$AAy?$AAy@ 100224f4     libucrt:nlsdata.obj
 0002:00003508       ??_C@_1CI@KNAKOEBC@?$AAd?$AAd?$AAd?$AAd?$AA?0?$AA?5?$AAM?$AAM?$AAM?$AAM?$AA?5?$AAd?$AAd?$AA?0?$AA?5@ 10022508     libucrt:nlsdata.obj
 0002:00003530       ??_C@_1BC@GDGBMEMK@?$AAH?$AAH?$AA?3?$AAm?$AAm?$AA?3?$AAs?$AAs@ 10022530     libucrt:nlsdata.obj
 0002:00003544       ??_C@_1M@BMHNFIME@?$AAe?$AAn?$AA?9?$AAU?$AAS@ 10022544     libucrt:nlsdata.obj
 0002:00003560       ??_C@_1M@HPNHIDJI@?$AAj?$AAa?$AA?9?$AAJ?$AAP@ 10022560     libucrt:mbctype.obj
 0002:0000356c       ??_C@_1M@BIBDDEMK@?$AAz?$AAh?$AA?9?$AAC?$AAN@ 1002256c     libucrt:mbctype.obj
 0002:00003578       ??_C@_1M@JLOOOEGK@?$AAk?$AAo?$AA?9?$AAK?$AAR@ 10022578     libucrt:mbctype.obj
 0002:00003584       ??_C@_1M@CLNBBOPM@?$AAz?$AAh?$AA?9?$AAT?$AAW@ 10022584     libucrt:mbctype.obj
 0002:00003590       ___newctype                10022590     libucrt:ctype.obj
 0002:00003890       ___newclmap                10022890     libucrt:ctype.obj
 0002:00003a10       ___newcumap                10022a10     libucrt:ctype.obj
 0002:00003b90       __wctype                   10022b90     libucrt:ctype.obj
 0002:000044b8       ??_C@_15EMKDOKLE@?$AAa?$AAr@ 100234b8     libucrt:lcidtoname_downlevel.obj
 0002:000044c0       ??_C@_15KNPADPLH@?$AAb?$AAg@ 100234c0     libucrt:lcidtoname_downlevel.obj
 0002:000044c8       ??_C@_15EDMHLDMO@?$AAc?$AAa@ 100234c8     libucrt:lcidtoname_downlevel.obj
 0002:000044d0       ??_C@_1O@BPEAJADD@?$AAz?$AAh?$AA?9?$AAC?$AAH?$AAS@ 100234d0     libucrt:lcidtoname_downlevel.obj
 0002:000044e0       ??_C@_15LJNHCMNK@?$AAc?$AAs@ 100234e0     libucrt:lcidtoname_downlevel.obj
 0002:000044e8       ??_C@_15FOMCIDHG@?$AAd?$AAa@ 100234e8     libucrt:lcidtoname_downlevel.obj
 0002:000044f0       ??_C@_15NBKABECB@?$AAd?$AAe@ 100234f0     libucrt:lcidtoname_downlevel.obj
 0002:000044f8       ??_C@_15GHPEIIAO@?$AAe?$AAl@ 100234f8     libucrt:lcidtoname_downlevel.obj
 0002:00004500       ??_C@_15MNPNEAIF@?$AAe?$AAn@ 10023500     libucrt:lcidtoname_downlevel.obj
 0002:00004508       ??_C@_15GPIOMPMH@?$AAe?$AAs@ 10023508     libucrt:lcidtoname_downlevel.obj
 0002:00004510       ??_C@_15NGLOAKJC@?$AAf?$AAi@ 10023510     libucrt:lcidtoname_downlevel.obj
 0002:00004518       ??_C@_15FBKGNKAM@?$AAf?$AAr@ 10023518     libucrt:lcidtoname_downlevel.obj
 0002:00004520       ??_C@_15KGGCNEFK@?$AAh?$AAe@ 10023520     libucrt:lcidtoname_downlevel.obj
 0002:00004528       ??_C@_15PGHLIDMF@?$AAh?$AAu@ 10023528     libucrt:lcidtoname_downlevel.obj
 0002:00004530       ??_C@_15BIEMAPLM@?$AAi?$AAs@ 10023530     libucrt:lcidtoname_downlevel.obj
 0002:00004538       ??_C@_15IFJLDHAF@?$AAi?$AAt@ 10023538     libucrt:lcidtoname_downlevel.obj
 0002:00004540       ??_C@_15GEMIOCAG@?$AAj?$AAa@ 10023540     libucrt:lcidtoname_downlevel.obj
 0002:00004548       ??_C@_15EPELEGJA@?$AAk?$AAo@ 10023548     libucrt:lcidtoname_downlevel.obj
 0002:00004550       ??_C@_15NDDHIMN@?$AAn?$AAl@ 10023550     libucrt:lcidtoname_downlevel.obj
 0002:00004558       ??_C@_15BPIGNHCD@?$AAn?$AAo@ 10023558     libucrt:lcidtoname_downlevel.obj
 0002:00004560       ??_C@_15DEOPBLCG@?$AAp?$AAl@ 10023560     libucrt:lcidtoname_downlevel.obj
 0002:00004568       ??_C@_15KBECGEFG@?$AAp?$AAt@ 10023568     libucrt:lcidtoname_downlevel.obj
 0002:00004570       ??_C@_15GLJCBFMD@?$AAr?$AAo@ 10023570     libucrt:lcidtoname_downlevel.obj
 0002:00004578       ??_C@_15FEDGKCDI@?$AAr?$AAu@ 10023578     libucrt:lcidtoname_downlevel.obj
 0002:00004580       ??_C@_15GLKMLLHM@?$AAh?$AAr@ 10023580     libucrt:lcidtoname_downlevel.obj
 0002:00004588       ??_C@_15CPKMFBDB@?$AAs?$AAk@ 10023588     libucrt:lcidtoname_downlevel.obj
 0002:00004590       ??_C@_15BAAIOGMK@?$AAs?$AAq@ 10023590     libucrt:lcidtoname_downlevel.obj
 0002:00004598       ??_C@_15INNPNOHD@?$AAs?$AAv@ 10023598     libucrt:lcidtoname_downlevel.obj
 0002:000045a0       ??_C@_15CABMMOGH@?$AAt?$AAh@ 100235a0     libucrt:lcidtoname_downlevel.obj
 0002:000045a8       ??_C@_15BPLIHJJM@?$AAt?$AAr@ 100235a8     libucrt:lcidtoname_downlevel.obj
 0002:000045b0       ??_C@_15NEOEKKDJ@?$AAu?$AAr@ 100235b0     libucrt:lcidtoname_downlevel.obj
 0002:000045b8       ??_C@_15NFICGAJK@?$AAi?$AAd@ 100235b8     libucrt:lcidtoname_downlevel.obj
 0002:000045c0       ??_C@_15PJPFLCCM@?$AAu?$AAk@ 100235c0     libucrt:lcidtoname_downlevel.obj
 0002:000045c8       ??_C@_15HPJPHDM@?$AAb?$AAe@ 100235c8     libucrt:lcidtoname_downlevel.obj
 0002:000045d0       ??_C@_15LCHLGJII@?$AAs?$AAl@ 100235d0     libucrt:lcidtoname_downlevel.obj
 0002:000045d8       ??_C@_15PCFJPHHO@?$AAe?$AAt@ 100235d8     libucrt:lcidtoname_downlevel.obj
 0002:000045e0       ??_C@_15HPFPGODN@?$AAl?$AAv@ 100235e0     libucrt:lcidtoname_downlevel.obj
 0002:000045e8       ??_C@_15NFFGKGLG@?$AAl?$AAt@ 100235e8     libucrt:lcidtoname_downlevel.obj
 0002:000045f0       ??_C@_15BDAKCCHN@?$AAf?$AAa@ 100235f0     libucrt:lcidtoname_downlevel.obj
 0002:000045f8       ??_C@_15NFGIAIAJ@?$AAv?$AAi@ 100235f8     libucrt:lcidtoname_downlevel.obj
 0002:00004600       ??_C@_15LMKNDMHN@?$AAh?$AAy@ 10023600     libucrt:lcidtoname_downlevel.obj
 0002:00004608       ??_C@_15IJBHMCFL@?$AAa?$AAz@ 10023608     libucrt:lcidtoname_downlevel.obj
 0002:00004610       ??_C@_15EKOFJABL@?$AAe?$AAu@ 10023610     libucrt:lcidtoname_downlevel.obj
 0002:00004618       ??_C@_15BGHADCNK@?$AAm?$AAk@ 10023618     libucrt:lcidtoname_downlevel.obj
 0002:00004620       ??_C@_15JDNICKHM@?$AAa?$AAf@ 10023620     libucrt:lcidtoname_downlevel.obj
 0002:00004628       ??_C@_15KPJEDBKD@?$AAk?$AAa@ 10023628     libucrt:lcidtoname_downlevel.obj
 0002:00004630       ??_C@_15PDNFFFEO@?$AAf?$AAo@ 10023630     libucrt:lcidtoname_downlevel.obj
 0002:00004638       ??_C@_15OMLEGLOC@?$AAh?$AAi@ 10023638     libucrt:lcidtoname_downlevel.obj
 0002:00004640       ??_C@_15IDNNENKK@?$AAm?$AAs@ 10023640     libucrt:lcidtoname_downlevel.obj
 0002:00004648       ??_C@_15MACJNBMH@?$AAk?$AAk@ 10023648     libucrt:lcidtoname_downlevel.obj
 0002:00004650       ??_C@_15DKDJEOND@?$AAk?$AAy@ 10023650     libucrt:lcidtoname_downlevel.obj
 0002:00004658       ??_C@_15DFGDLJBG@?$AAs?$AAw@ 10023658     libucrt:lcidtoname_downlevel.obj
 0002:00004660       ??_C@_15BBFAICNG@?$AAu?$AAz@ 10023660     libucrt:lcidtoname_downlevel.obj
 0002:00004668       ??_C@_15DKNDCGEA@?$AAt?$AAt@ 10023668     libucrt:lcidtoname_downlevel.obj
 0002:00004670       ??_C@_15MGIFMDPL@?$AAp?$AAa@ 10023670     libucrt:lcidtoname_downlevel.obj
 0002:00004678       ??_C@_15HCNDBBA@?$AAg?$AAu@ 10023678     libucrt:lcidtoname_downlevel.obj
 0002:00004680       ??_C@_15FNBEIBON@?$AAt?$AAa@ 10023680     libucrt:lcidtoname_downlevel.obj
 0002:00004688       ??_C@_15NCHGBGLK@?$AAt?$AAe@ 10023688     libucrt:lcidtoname_downlevel.obj
 0002:00004690       ??_C@_15PHPHCBPF@?$AAk?$AAn@ 10023690     libucrt:lcidtoname_downlevel.obj
 0002:00004698       ??_C@_15DLGBCKMP@?$AAm?$AAr@ 10023698     libucrt:lcidtoname_downlevel.obj
 0002:000046a0       ??_C@_15EABBLBFF@?$AAs?$AAa@ 100236a0     libucrt:lcidtoname_downlevel.obj
 0002:000046a8       ??_C@_15CBKOMCOI@?$AAm?$AAn@ 100236a8     libucrt:lcidtoname_downlevel.obj
 0002:000046b0       ??_C@_15CKDMCJAF@?$AAg?$AAl@ 100236b0     libucrt:lcidtoname_downlevel.obj
 0002:000046b8       ??_C@_17CNJFBPG@?$AAk?$AAo?$AAk@ 100236b8     libucrt:lcidtoname_downlevel.obj
 0002:000046c0       ??_C@_17FFBJICPL@?$AAs?$AAy?$AAr@ 100236c0     libucrt:lcidtoname_downlevel.obj
 0002:000046c8       ??_C@_17KPNDCPAF@?$AAd?$AAi?$AAv@ 100236c8     libucrt:lcidtoname_downlevel.obj
 0002:000046d0       ??_C@_1M@OKAHONE@?$AAa?$AAr?$AA?9?$AAS?$AAA@ 100236d0     libucrt:lcidtoname_downlevel.obj
 0002:000046dc       ??_C@_1M@FFFIGIGK@?$AAb?$AAg?$AA?9?$AAB?$AAG@ 100236dc     libucrt:lcidtoname_downlevel.obj
 0002:000046e8       ??_C@_1M@BJNKEDC@?$AAc?$AAa?$AA?9?$AAE?$AAS@ 100236e8     libucrt:lcidtoname_downlevel.obj
 0002:000046f4       ??_C@_1M@IJJHFJHA@?$AAc?$AAs?$AA?9?$AAC?$AAZ@ 100236f4     libucrt:lcidtoname_downlevel.obj
 0002:00004700       ??_C@_1M@CLPEOBGI@?$AAd?$AAa?$AA?9?$AAD?$AAK@ 10023700     libucrt:lcidtoname_downlevel.obj
 0002:0000470c       ??_C@_1M@MCMADGCB@?$AAd?$AAe?$AA?9?$AAD?$AAE@ 1002370c     libucrt:lcidtoname_downlevel.obj
 0002:00004718       ??_C@_1M@OOCKEMAM@?$AAe?$AAl?$AA?9?$AAG?$AAR@ 10023718     libucrt:lcidtoname_downlevel.obj
 0002:00004724       ??_C@_1M@DDNJFGID@?$AAf?$AAi?$AA?9?$AAF?$AAI@ 10023724     libucrt:lcidtoname_downlevel.obj
 0002:00004730       ??_C@_1M@GLIPPMAC@?$AAf?$AAr?$AA?9?$AAF?$AAR@ 10023730     libucrt:lcidtoname_downlevel.obj
 0002:0000473c       ??_C@_1M@GFMCHPE@?$AAh?$AAe?$AA?9?$AAI?$AAL@ 1002373c     libucrt:lcidtoname_downlevel.obj
 0002:00004748       ??_C@_1M@MHLPGNKM@?$AAh?$AAu?$AA?9?$AAH?$AAU@ 10023748     libucrt:lcidtoname_downlevel.obj
 0002:00004754       ??_C@_1M@LPDDNNPN@?$AAi?$AAs?$AA?9?$AAI?$AAS@ 10023754     libucrt:lcidtoname_downlevel.obj
 0002:00004760       ??_C@_1M@MADIPODN@?$AAi?$AAt?$AA?9?$AAI?$AAT@ 10023760     libucrt:lcidtoname_downlevel.obj
 0002:0000476c       ??_C@_1M@IHBJJGG@?$AAn?$AAl?$AA?9?$AAN?$AAL@ 1002376c     libucrt:lcidtoname_downlevel.obj
 0002:00004778       ??_C@_1M@EANAGDL@?$AAn?$AAb?$AA?9?$AAN?$AAO@ 10023778     libucrt:lcidtoname_downlevel.obj
 0002:00004784       ??_C@_1M@NEIEMEGP@?$AAp?$AAl?$AA?9?$AAP?$AAL@ 10023784     libucrt:lcidtoname_downlevel.obj
 0002:00004790       ??_C@_1M@BOCFIGEP@?$AAp?$AAt?$AA?9?$AAB?$AAR@ 10023790     libucrt:lcidtoname_downlevel.obj
 0002:0000479c       ??_C@_1M@IMPFOPBG@?$AAr?$AAo?$AA?9?$AAR?$AAO@ 1002379c     libucrt:lcidtoname_downlevel.obj
 0002:000047a8       ??_C@_1M@IDNNEJMM@?$AAr?$AAu?$AA?9?$AAR?$AAU@ 100237a8     libucrt:lcidtoname_downlevel.obj
 0002:000047b4       ??_C@_1M@LILEEOGM@?$AAh?$AAr?$AA?9?$AAH?$AAR@ 100237b4     libucrt:lcidtoname_downlevel.obj
 0002:000047c0       ??_C@_1M@FKIFEHPB@?$AAs?$AAk?$AA?9?$AAS?$AAK@ 100237c0     libucrt:lcidtoname_downlevel.obj
 0002:000047cc       ??_C@_1M@LJMAMNPJ@?$AAs?$AAq?$AA?9?$AAA?$AAL@ 100237cc     libucrt:lcidtoname_downlevel.obj
 0002:000047d8       ??_C@_1M@GIAKDKJK@?$AAs?$AAv?$AA?9?$AAS?$AAE@ 100237d8     libucrt:lcidtoname_downlevel.obj
 0002:000047e4       ??_C@_1M@MKJKIKCL@?$AAt?$AAh?$AA?9?$AAT?$AAH@ 100237e4     libucrt:lcidtoname_downlevel.obj
 0002:000047f0       ??_C@_1M@MFLCCMPB@?$AAt?$AAr?$AA?9?$AAT?$AAR@ 100237f0     libucrt:lcidtoname_downlevel.obj
 0002:000047fc       ??_C@_1M@OIJHDKJN@?$AAu?$AAr?$AA?9?$AAP?$AAK@ 100237fc     libucrt:lcidtoname_downlevel.obj
 0002:00004808       ??_C@_1M@LHIPCIEK@?$AAi?$AAd?$AA?9?$AAI?$AAD@ 10023808     libucrt:lcidtoname_downlevel.obj
 0002:00004814       ??_C@_1M@MFMOBGI@?$AAu?$AAk?$AA?9?$AAU?$AAA@ 10023814     libucrt:lcidtoname_downlevel.obj
 0002:00004820       ??_C@_1M@OBGLJIPL@?$AAb?$AAe?$AA?9?$AAB?$AAY@ 10023820     libucrt:lcidtoname_downlevel.obj
 0002:0000482c       ??_C@_1M@BCFAJEAD@?$AAs?$AAl?$AA?9?$AAS?$AAI@ 1002382c     libucrt:lcidtoname_downlevel.obj
 0002:00004838       ??_C@_1M@FKFFEDDN@?$AAe?$AAt?$AA?9?$AAE?$AAE@ 10023838     libucrt:lcidtoname_downlevel.obj
 0002:00004844       ??_C@_1M@KGKKAACI@?$AAl?$AAv?$AA?9?$AAL?$AAV@ 10023844     libucrt:lcidtoname_downlevel.obj
 0002:00004850       ??_C@_1M@IFGBIJO@?$AAl?$AAt?$AA?9?$AAL?$AAT@ 10023850     libucrt:lcidtoname_downlevel.obj
 0002:0000485c       ??_C@_1M@FGEAHEDM@?$AAf?$AAa?$AA?9?$AAI?$AAR@ 1002385c     libucrt:lcidtoname_downlevel.obj
 0002:00004868       ??_C@_1M@KBMAIBFN@?$AAv?$AAi?$AA?9?$AAV?$AAN@ 10023868     libucrt:lcidtoname_downlevel.obj
 0002:00004874       ??_C@_1M@GPCBKDJK@?$AAh?$AAy?$AA?9?$AAA?$AAM@ 10023874     libucrt:lcidtoname_downlevel.obj
 0002:00004880       ??_C@_1BG@BECMDDJB@?$AAa?$AAz?$AA?9?$AAA?$AAZ?$AA?9?$AAL?$AAa?$AAt?$AAn@ 10023880     libucrt:lcidtoname_downlevel.obj
 0002:00004898       ??_C@_1M@MAOFCAEA@?$AAe?$AAu?$AA?9?$AAE?$AAS@ 10023898     libucrt:lcidtoname_downlevel.obj
 0002:000048a4       ??_C@_1M@IGHABKPI@?$AAm?$AAk?$AA?9?$AAM?$AAK@ 100238a4     libucrt:lcidtoname_downlevel.obj
 0002:000048b0       ??_C@_1M@IAIGNEJG@?$AAt?$AAn?$AA?9?$AAZ?$AAA@ 100238b0     libucrt:lcidtoname_downlevel.obj
 0002:000048bc       ??_C@_1M@IIJCOJFA@?$AAx?$AAh?$AA?9?$AAZ?$AAA@ 100238bc     libucrt:lcidtoname_downlevel.obj
 0002:000048c8       ??_C@_1M@LGPJHNJH@?$AAz?$AAu?$AA?9?$AAZ?$AAA@ 100238c8     libucrt:lcidtoname_downlevel.obj
 0002:000048d4       ??_C@_1M@HOKAOIO@?$AAa?$AAf?$AA?9?$AAZ?$AAA@ 100238d4     libucrt:lcidtoname_downlevel.obj
 0002:000048e0       ??_C@_1M@DPCLHLIE@?$AAk?$AAa?$AA?9?$AAG?$AAE@ 100238e0     libucrt:lcidtoname_downlevel.obj
 0002:000048ec       ??_C@_1M@BLKMHJBI@?$AAf?$AAo?$AA?9?$AAF?$AAO@ 100238ec     libucrt:lcidtoname_downlevel.obj
 0002:000048f8       ??_C@_1M@LGGJAPPB@?$AAh?$AAi?$AA?9?$AAI?$AAN@ 100238f8     libucrt:lcidtoname_downlevel.obj
 0002:00004904       ??_C@_1M@FIKPIHFE@?$AAm?$AAt?$AA?9?$AAM?$AAT@ 10023904     libucrt:lcidtoname_downlevel.obj
 0002:00004910       ??_C@_1M@HEGGPBFA@?$AAs?$AAe?$AA?9?$AAN?$AAO@ 10023910     libucrt:lcidtoname_downlevel.obj
 0002:0000491c       ??_C@_1M@EIBJEEPA@?$AAm?$AAs?$AA?9?$AAM?$AAY@ 1002391c     libucrt:lcidtoname_downlevel.obj
 0002:00004928       ??_C@_1M@FHLBGMPP@?$AAk?$AAk?$AA?9?$AAK?$AAZ@ 10023928     libucrt:lcidtoname_downlevel.obj
 0002:00004934       ??_C@_1M@NGJJLCGI@?$AAk?$AAy?$AA?9?$AAK?$AAG@ 10023934     libucrt:lcidtoname_downlevel.obj
 0002:00004940       ??_C@_1M@GIENNBFC@?$AAs?$AAw?$AA?9?$AAK?$AAE@ 10023940     libucrt:lcidtoname_downlevel.obj
 0002:0000494c       ??_C@_1BG@NDGMJIMJ@?$AAu?$AAz?$AA?9?$AAU?$AAZ?$AA?9?$AAL?$AAa?$AAt?$AAn@ 1002394c     libucrt:lcidtoname_downlevel.obj
 0002:00004964       ??_C@_1M@IDCCIHBC@?$AAt?$AAt?$AA?9?$AAR?$AAU@ 10023964     libucrt:lcidtoname_downlevel.obj
 0002:00004970       ??_C@_1M@LOICPMOJ@?$AAb?$AAn?$AA?9?$AAI?$AAN@ 10023970     libucrt:lcidtoname_downlevel.obj
 0002:0000497c       ??_C@_1M@KPKKNEAH@?$AAp?$AAa?$AA?9?$AAI?$AAN@ 1002397c     libucrt:lcidtoname_downlevel.obj
 0002:00004988       ??_C@_1M@PJGPPBOG@?$AAg?$AAu?$AA?9?$AAI?$AAN@ 10023988     libucrt:lcidtoname_downlevel.obj
 0002:00004994       ??_C@_1M@KMKMOPHI@?$AAt?$AAa?$AA?9?$AAI?$AAN@ 10023994     libucrt:lcidtoname_downlevel.obj
 0002:000049a0       ??_C@_1M@KFEHEPAC@?$AAt?$AAe?$AA?9?$AAI?$AAN@ 100239a0     libucrt:lcidtoname_downlevel.obj
 0002:000049ac       ??_C@_1M@CDCLMGHI@?$AAk?$AAn?$AA?9?$AAI?$AAN@ 100239ac     libucrt:lcidtoname_downlevel.obj
 0002:000049b8       ??_C@_1M@MIODLDKF@?$AAm?$AAl?$AA?9?$AAI?$AAN@ 100239b8     libucrt:lcidtoname_downlevel.obj
 0002:000049c4       ??_C@_1M@PBIEACPO@?$AAm?$AAr?$AA?9?$AAI?$AAN@ 100239c4     libucrt:lcidtoname_downlevel.obj
 0002:000049d0       ??_C@_1M@NIDEAGPH@?$AAs?$AAa?$AA?9?$AAI?$AAN@ 100239d0     libucrt:lcidtoname_downlevel.obj
 0002:000049dc       ??_C@_1M@FHIHCBIO@?$AAm?$AAn?$AA?9?$AAM?$AAN@ 100239dc     libucrt:lcidtoname_downlevel.obj
 0002:000049e8       ??_C@_1M@JAIJPENP@?$AAc?$AAy?$AA?9?$AAG?$AAB@ 100239e8     libucrt:lcidtoname_downlevel.obj
 0002:000049f4       ??_C@_1M@PHGFBEPN@?$AAg?$AAl?$AA?9?$AAE?$AAS@ 100239f4     libucrt:lcidtoname_downlevel.obj
 0002:00004a00       ??_C@_1O@KPIPDNCP@?$AAk?$AAo?$AAk?$AA?9?$AAI?$AAN@ 10023a00     libucrt:lcidtoname_downlevel.obj
 0002:00004a10       ??_C@_1O@KNHJLDJA@?$AAs?$AAy?$AAr?$AA?9?$AAS?$AAY@ 10023a10     libucrt:lcidtoname_downlevel.obj
 0002:00004a20       ??_C@_1O@MKEKBLAH@?$AAd?$AAi?$AAv?$AA?9?$AAM?$AAV@ 10023a20     libucrt:lcidtoname_downlevel.obj
 0002:00004a30       ??_C@_1O@OHDCKDDF@?$AAq?$AAu?$AAz?$AA?9?$AAB?$AAO@ 10023a30     libucrt:lcidtoname_downlevel.obj
 0002:00004a40       ??_C@_1M@LEPJNLFD@?$AAn?$AAs?$AA?9?$AAZ?$AAA@ 10023a40     libucrt:lcidtoname_downlevel.obj
 0002:00004a4c       ??_C@_1M@OMLEIIJB@?$AAm?$AAi?$AA?9?$AAN?$AAZ@ 10023a4c     libucrt:lcidtoname_downlevel.obj
 0002:00004a58       ??_C@_1M@PMPEAILG@?$AAa?$AAr?$AA?9?$AAI?$AAQ@ 10023a58     libucrt:lcidtoname_downlevel.obj
 0002:00004a64       ??_C@_1M@CNKPNOEE@?$AAd?$AAe?$AA?9?$AAC?$AAH@ 10023a64     libucrt:lcidtoname_downlevel.obj
 0002:00004a70       ??_C@_1M@LKMGMLKO@?$AAe?$AAn?$AA?9?$AAG?$AAB@ 10023a70     libucrt:lcidtoname_downlevel.obj
 0002:00004a7c       ??_C@_1M@PGKJFFGL@?$AAe?$AAs?$AA?9?$AAM?$AAX@ 10023a7c     libucrt:lcidtoname_downlevel.obj
 0002:00004a88       ??_C@_1M@DNNANBDC@?$AAf?$AAr?$AA?9?$AAB?$AAE@ 10023a88     libucrt:lcidtoname_downlevel.obj
 0002:00004a94       ??_C@_1M@HLGMDFHM@?$AAi?$AAt?$AA?9?$AAC?$AAH@ 10023a94     libucrt:lcidtoname_downlevel.obj
 0002:00004aa0       ??_C@_1M@CLLBGJH@?$AAn?$AAl?$AA?9?$AAB?$AAE@ 10023aa0     libucrt:lcidtoname_downlevel.obj
 0002:00004aac       ??_C@_1M@BODBOGLF@?$AAn?$AAn?$AA?9?$AAN?$AAO@ 10023aac     libucrt:lcidtoname_downlevel.obj
 0002:00004ab8       ??_C@_1M@HFFAHKAD@?$AAp?$AAt?$AA?9?$AAP?$AAT@ 10023ab8     libucrt:lcidtoname_downlevel.obj
 0002:00004ac4       ??_C@_1BG@LNOAKHIE@?$AAs?$AAr?$AA?9?$AAS?$AAP?$AA?9?$AAL?$AAa?$AAt?$AAn@ 10023ac4     libucrt:lcidtoname_downlevel.obj
 0002:00004adc       ??_C@_1M@HBMHBGAK@?$AAs?$AAv?$AA?9?$AAF?$AAI@ 10023adc     libucrt:lcidtoname_downlevel.obj
 0002:00004ae8       ??_C@_1BG@DGCJGJBE@?$AAa?$AAz?$AA?9?$AAA?$AAZ?$AA?9?$AAC?$AAy?$AAr?$AAl@ 10023ae8     libucrt:lcidtoname_downlevel.obj
 0002:00004b00       ??_C@_1M@KEJDAAHB@?$AAs?$AAe?$AA?9?$AAS?$AAE@ 10023b00     libucrt:lcidtoname_downlevel.obj
 0002:00004b0c       ??_C@_1M@HEIBJJAD@?$AAm?$AAs?$AA?9?$AAB?$AAN@ 10023b0c     libucrt:lcidtoname_downlevel.obj
 0002:00004b18       ??_C@_1BG@PBGJMCEM@?$AAu?$AAz?$AA?9?$AAU?$AAZ?$AA?9?$AAC?$AAy?$AAr?$AAl@ 10023b18     libucrt:lcidtoname_downlevel.obj
 0002:00004b30       ??_C@_1O@LAOBCMDF@?$AAq?$AAu?$AAz?$AA?9?$AAE?$AAC@ 10023b30     libucrt:lcidtoname_downlevel.obj
 0002:00004b40       ??_C@_1M@POEEMAIO@?$AAa?$AAr?$AA?9?$AAE?$AAG@ 10023b40     libucrt:lcidtoname_downlevel.obj
 0002:00004b4c       ??_C@_1M@EFAKDEDL@?$AAz?$AAh?$AA?9?$AAH?$AAK@ 10023b4c     libucrt:lcidtoname_downlevel.obj
 0002:00004b58       ??_C@_1M@HKKIJHGI@?$AAd?$AAe?$AA?9?$AAA?$AAT@ 10023b58     libucrt:lcidtoname_downlevel.obj
 0002:00004b64       ??_C@_1M@KBFBEHJF@?$AAe?$AAn?$AA?9?$AAA?$AAU@ 10023b64     libucrt:lcidtoname_downlevel.obj
 0002:00004b70       ??_C@_1M@MNPLFAAH@?$AAe?$AAs?$AA?9?$AAE?$AAS@ 10023b70     libucrt:lcidtoname_downlevel.obj
 0002:00004b7c       ??_C@_1M@HJOOJFMA@?$AAf?$AAr?$AA?9?$AAC?$AAA@ 10023b7c     libucrt:lcidtoname_downlevel.obj
 0002:00004b88       ??_C@_1BG@JPOFPNAB@?$AAs?$AAr?$AA?9?$AAS?$AAP?$AA?9?$AAC?$AAy?$AAr?$AAl@ 10023b88     libucrt:lcidtoname_downlevel.obj
 0002:00004ba0       ??_C@_1M@LNFOCMOB@?$AAs?$AAe?$AA?9?$AAF?$AAI@ 10023ba0     libucrt:lcidtoname_downlevel.obj
 0002:00004bac       ??_C@_1O@MGJBOAMB@?$AAq?$AAu?$AAz?$AA?9?$AAP?$AAE@ 10023bac     libucrt:lcidtoname_downlevel.obj
 0002:00004bbc       ??_C@_1M@GJINLBOK@?$AAa?$AAr?$AA?9?$AAL?$AAY@ 10023bbc     libucrt:lcidtoname_downlevel.obj
 0002:00004bc8       ??_C@_1M@GGMNHJNL@?$AAz?$AAh?$AA?9?$AAS?$AAG@ 10023bc8     libucrt:lcidtoname_downlevel.obj
 0002:00004bd4       ??_C@_1M@HOIKODND@?$AAd?$AAe?$AA?9?$AAL?$AAU@ 10023bd4     libucrt:lcidtoname_downlevel.obj
 0002:00004be0       ??_C@_1M@DDOCCGFG@?$AAe?$AAn?$AA?9?$AAC?$AAA@ 10023be0     libucrt:lcidtoname_downlevel.obj
 0002:00004bec       ??_C@_1M@BNOEMJLF@?$AAe?$AAs?$AA?9?$AAG?$AAT@ 10023bec     libucrt:lcidtoname_downlevel.obj
 0002:00004bf8       ??_C@_1M@EOGNKEK@?$AAf?$AAr?$AA?9?$AAC?$AAH@ 10023bf8     libucrt:lcidtoname_downlevel.obj
 0002:00004c04       ??_C@_1M@FLIDJFHL@?$AAh?$AAr?$AA?9?$AAB?$AAA@ 10023c04     libucrt:lcidtoname_downlevel.obj
 0002:00004c10       ??_C@_1O@FMCELNAJ@?$AAs?$AAm?$AAj?$AA?9?$AAN?$AAO@ 10023c10     libucrt:lcidtoname_downlevel.obj
 0002:00004c20       ??_C@_1M@JHGLJMGJ@?$AAa?$AAr?$AA?9?$AAD?$AAZ@ 10023c20     libucrt:lcidtoname_downlevel.obj
 0002:00004c2c       ??_C@_1M@JKKFDCNP@?$AAz?$AAh?$AA?9?$AAM?$AAO@ 10023c2c     libucrt:lcidtoname_downlevel.obj
 0002:00004c38       ??_C@_1M@GEEFALPE@?$AAd?$AAe?$AA?9?$AAL?$AAI@ 10023c38     libucrt:lcidtoname_downlevel.obj
 0002:00004c44       ??_C@_1M@IGEOFBG@?$AAe?$AAn?$AA?9?$AAN?$AAZ@ 10023c44     libucrt:lcidtoname_downlevel.obj
 0002:00004c50       ??_C@_1M@KDBONEHP@?$AAe?$AAs?$AA?9?$AAC?$AAR@ 10023c50     libucrt:lcidtoname_downlevel.obj
 0002:00004c5c       ??_C@_1M@FHMDOHNN@?$AAf?$AAr?$AA?9?$AAL?$AAU@ 10023c5c     libucrt:lcidtoname_downlevel.obj
 0002:00004c68       ??_C@_1BG@NFKKMAFG@?$AAb?$AAs?$AA?9?$AAB?$AAA?$AA?9?$AAL?$AAa?$AAt?$AAn@ 10023c68     libucrt:lcidtoname_downlevel.obj
 0002:00004c80       ??_C@_1O@IMNBEMCI@?$AAs?$AAm?$AAj?$AA?9?$AAS?$AAE@ 10023c80     libucrt:lcidtoname_downlevel.obj
 0002:00004c90       ??_C@_1M@DHHMBNDP@?$AAa?$AAr?$AA?9?$AAM?$AAA@ 10023c90     libucrt:lcidtoname_downlevel.obj
 0002:00004c9c       ??_C@_1M@BNBLJCGH@?$AAe?$AAn?$AA?9?$AAI?$AAE@ 10023c9c     libucrt:lcidtoname_downlevel.obj
 0002:00004ca8       ??_C@_1M@GEPAFMDL@?$AAe?$AAs?$AA?9?$AAP?$AAA@ 10023ca8     libucrt:lcidtoname_downlevel.obj
 0002:00004cb4       ??_C@_1M@OJONDMDL@?$AAf?$AAr?$AA?9?$AAM?$AAC@ 10023cb4     libucrt:lcidtoname_downlevel.obj
 0002:00004cc0       ??_C@_1BG@OBCNFJB@?$AAs?$AAr?$AA?9?$AAB?$AAA?$AA?9?$AAL?$AAa?$AAt?$AAn@ 10023cc0     libucrt:lcidtoname_downlevel.obj
 0002:00004cd8       ??_C@_1O@KEMEEGPO@?$AAs?$AAm?$AAa?$AA?9?$AAN?$AAO@ 10023cd8     libucrt:lcidtoname_downlevel.obj
 0002:00004ce8       ??_C@_1M@ELMGFODK@?$AAa?$AAr?$AA?9?$AAT?$AAN@ 10023ce8     libucrt:lcidtoname_downlevel.obj
 0002:00004cf4       ??_C@_1M@BHDLHFAF@?$AAe?$AAn?$AA?9?$AAZ?$AAA@ 10023cf4     libucrt:lcidtoname_downlevel.obj
 0002:00004d00       ??_C@_1M@BMGIGLIF@?$AAe?$AAs?$AA?9?$AAD?$AAO@ 10023d00     libucrt:lcidtoname_downlevel.obj
 0002:00004d0c       ??_C@_1BG@CMBHIPBE@?$AAs?$AAr?$AA?9?$AAB?$AAA?$AA?9?$AAC?$AAy?$AAr?$AAl@ 10023d0c     libucrt:lcidtoname_downlevel.obj
 0002:00004d24       ??_C@_1O@HEDBLHNP@?$AAs?$AAm?$AAa?$AA?9?$AAS?$AAE@ 10023d24     libucrt:lcidtoname_downlevel.obj
 0002:00004d34       ??_C@_1M@DAGCADIM@?$AAa?$AAr?$AA?9?$AAO?$AAM@ 10023d34     libucrt:lcidtoname_downlevel.obj
 0002:00004d40       ??_C@_1M@FODLMICG@?$AAe?$AAn?$AA?9?$AAJ?$AAM@ 10023d40     libucrt:lcidtoname_downlevel.obj
 0002:00004d4c       ??_C@_1M@DNMLCIHB@?$AAe?$AAs?$AA?9?$AAV?$AAE@ 10023d4c     libucrt:lcidtoname_downlevel.obj
 0002:00004d58       ??_C@_1O@EOKHMKJK@?$AAs?$AAm?$AAs?$AA?9?$AAF?$AAI@ 10023d58     libucrt:lcidtoname_downlevel.obj
 0002:00004d68       ??_C@_1M@CAFJMKOF@?$AAa?$AAr?$AA?9?$AAY?$AAE@ 10023d68     libucrt:lcidtoname_downlevel.obj
 0002:00004d74       ??_C@_1M@CBFHIJLI@?$AAe?$AAn?$AA?9?$AAC?$AAB@ 10023d74     libucrt:lcidtoname_downlevel.obj
 0002:00004d80       ??_C@_1M@BGNFLDN@?$AAe?$AAs?$AA?9?$AAC?$AAO@ 10023d80     libucrt:lcidtoname_downlevel.obj
 0002:00004d8c       ??_C@_1O@JMPHMAMC@?$AAs?$AAm?$AAn?$AA?9?$AAF?$AAI@ 10023d8c     libucrt:lcidtoname_downlevel.obj
 0002:00004d9c       ??_C@_1M@JLANABKE@?$AAa?$AAr?$AA?9?$AAS?$AAY@ 10023d9c     libucrt:lcidtoname_downlevel.obj
 0002:00004da8       ??_C@_1M@HPKGCFGN@?$AAe?$AAn?$AA?9?$AAB?$AAZ@ 10023da8     libucrt:lcidtoname_downlevel.obj
 0002:00004db4       ??_C@_1M@OLJCMLGM@?$AAe?$AAs?$AA?9?$AAP?$AAE@ 10023db4     libucrt:lcidtoname_downlevel.obj
 0002:00004dc0       ??_C@_1M@MKKGFKLE@?$AAa?$AAr?$AA?9?$AAJ?$AAO@ 10023dc0     libucrt:lcidtoname_downlevel.obj
 0002:00004dcc       ??_C@_1M@EKPGLDNI@?$AAe?$AAn?$AA?9?$AAT?$AAT@ 10023dcc     libucrt:lcidtoname_downlevel.obj
 0002:00004dd8       ??_C@_1M@OONGHFHE@?$AAe?$AAs?$AA?9?$AAA?$AAR@ 10023dd8     libucrt:lcidtoname_downlevel.obj
 0002:00004de4       ??_C@_1M@OOJFGBHE@?$AAa?$AAr?$AA?9?$AAL?$AAB@ 10023de4     libucrt:lcidtoname_downlevel.obj
 0002:00004df0       ??_C@_1M@GCEJHNEG@?$AAe?$AAn?$AA?9?$AAZ?$AAW@ 10023df0     libucrt:lcidtoname_downlevel.obj
 0002:00004dfc       ??_C@_1M@JNOCAHJI@?$AAe?$AAs?$AA?9?$AAE?$AAC@ 10023dfc     libucrt:lcidtoname_downlevel.obj
 0002:00004e08       ??_C@_1M@JEFHPGGB@?$AAa?$AAr?$AA?9?$AAK?$AAW@ 10023e08     libucrt:lcidtoname_downlevel.obj
 0002:00004e14       ??_C@_1M@MLKIBJOJ@?$AAe?$AAn?$AA?9?$AAP?$AAH@ 10023e14     libucrt:lcidtoname_downlevel.obj
 0002:00004e20       ??_C@_1M@BDNIPEND@?$AAe?$AAs?$AA?9?$AAC?$AAL@ 10023e20     libucrt:lcidtoname_downlevel.obj
 0002:00004e2c       ??_C@_1M@MPNMEKBD@?$AAa?$AAr?$AA?9?$AAA?$AAE@ 10023e2c     libucrt:lcidtoname_downlevel.obj
 0002:00004e38       ??_C@_1M@KBJALCPI@?$AAe?$AAs?$AA?9?$AAU?$AAY@ 10023e38     libucrt:lcidtoname_downlevel.obj
 0002:00004e44       ??_C@_1M@LLCCOAGA@?$AAa?$AAr?$AA?9?$AAB?$AAH@ 10023e44     libucrt:lcidtoname_downlevel.obj
 0002:00004e50       ??_C@_1M@PBFNCDEL@?$AAe?$AAs?$AA?9?$AAP?$AAY@ 10023e50     libucrt:lcidtoname_downlevel.obj
 0002:00004e5c       ??_C@_1M@EDGINPNP@?$AAa?$AAr?$AA?9?$AAQ?$AAA@ 10023e5c     libucrt:lcidtoname_downlevel.obj
 0002:00004e68       ??_C@_1M@MKDBIIJI@?$AAe?$AAs?$AA?9?$AAB?$AAO@ 10023e68     libucrt:lcidtoname_downlevel.obj
 0002:00004e74       ??_C@_1M@CPKKEBLD@?$AAe?$AAs?$AA?9?$AAS?$AAV@ 10023e74     libucrt:lcidtoname_downlevel.obj
 0002:00004e80       ??_C@_1M@NDBGMMJL@?$AAe?$AAs?$AA?9?$AAH?$AAN@ 10023e80     libucrt:lcidtoname_downlevel.obj
 0002:00004e8c       ??_C@_1M@JIJIBHDP@?$AAe?$AAs?$AA?9?$AAN?$AAI@ 10023e8c     libucrt:lcidtoname_downlevel.obj
 0002:00004e98       ??_C@_1M@CGFMKEEK@?$AAe?$AAs?$AA?9?$AAP?$AAR@ 10023e98     libucrt:lcidtoname_downlevel.obj
 0002:00004ea4       ??_C@_1O@ICJHKIIK@?$AAz?$AAh?$AA?9?$AAC?$AAH?$AAT@ 10023ea4     libucrt:lcidtoname_downlevel.obj
 0002:00004eb4       ??_C@_15CLNEJCE@?$AAs?$AAr@ 10023eb4     libucrt:lcidtoname_downlevel.obj
 0002:000055e0       ??_C@_1M@KAHEKEIG@?$AAa?$AAf?$AA?9?$AAz?$AAa@ 100245e0     libucrt:lcidtoname_downlevel.obj
 0002:000055ec       ??_C@_1M@GIECOABL@?$AAa?$AAr?$AA?9?$AAa?$AAe@ 100245ec     libucrt:lcidtoname_downlevel.obj
 0002:000055f8       ??_C@_1M@BMLMEKGI@?$AAa?$AAr?$AA?9?$AAb?$AAh@ 100245f8     libucrt:lcidtoname_downlevel.obj
 0002:00005604       ??_C@_1M@DAPFDGGB@?$AAa?$AAr?$AA?9?$AAd?$AAz@ 10024604     libucrt:lcidtoname_downlevel.obj
 0002:00005610       ??_C@_1M@FJNKGKIG@?$AAa?$AAr?$AA?9?$AAe?$AAg@ 10024610     libucrt:lcidtoname_downlevel.obj
 0002:0000561c       ??_C@_1M@FLGKKCLO@?$AAa?$AAr?$AA?9?$AAi?$AAq@ 1002461c     libucrt:lcidtoname_downlevel.obj
 0002:00005628       ??_C@_1M@GNDIPALM@?$AAa?$AAr?$AA?9?$AAj?$AAo@ 10024628     libucrt:lcidtoname_downlevel.obj
 0002:00005634       ??_C@_1M@DDMJFMGJ@?$AAa?$AAr?$AA?9?$AAk?$AAw@ 10024634     libucrt:lcidtoname_downlevel.obj
 0002:00005640       ??_C@_1M@EJALMLHM@?$AAa?$AAr?$AA?9?$AAl?$AAb@ 10024640     libucrt:lcidtoname_downlevel.obj
 0002:0000564c       ??_C@_1M@MOBDBLOC@?$AAa?$AAr?$AA?9?$AAl?$AAy@ 1002464c     libucrt:lcidtoname_downlevel.obj
 0002:00005658       ??_C@_1M@JAOCLHDH@?$AAa?$AAr?$AA?9?$AAm?$AAa@ 10024658     libucrt:lcidtoname_downlevel.obj
 0002:00005664       ??_C@_1M@JHPMKJIE@?$AAa?$AAr?$AA?9?$AAo?$AAm@ 10024664     libucrt:lcidtoname_downlevel.obj
 0002:00005670       ??_C@_1M@OEPGHFNH@?$AAa?$AAr?$AA?9?$AAq?$AAa@ 10024670     libucrt:lcidtoname_downlevel.obj
 0002:0000567c       ??_C@_1M@KJDONENM@?$AAa?$AAr?$AA?9?$AAs?$AAa@ 1002467c     libucrt:lcidtoname_downlevel.obj
 0002:00005688       ??_C@_1M@DMJDKLKM@?$AAa?$AAr?$AA?9?$AAs?$AAy@ 10024688     libucrt:lcidtoname_downlevel.obj
 0002:00005694       ??_C@_1M@OMFIPEDC@?$AAa?$AAr?$AA?9?$AAt?$AAn@ 10024694     libucrt:lcidtoname_downlevel.obj
 0002:000056a0       ??_C@_1M@IHMHGAON@?$AAa?$AAr?$AA?9?$AAy?$AAe@ 100246a0     libucrt:lcidtoname_downlevel.obj
 0002:000056ac       ??_C@_1BG@KDCPGJGB@?$AAa?$AAz?$AA?9?$AAa?$AAz?$AA?9?$AAc?$AAy?$AAr?$AAl@ 100246ac     libucrt:lcidtoname_downlevel.obj
 0002:000056c4       ??_C@_1BG@IBCKDDOE@?$AAa?$AAz?$AA?9?$AAa?$AAz?$AA?9?$AAl?$AAa?$AAt?$AAn@ 100246c4     libucrt:lcidtoname_downlevel.obj
 0002:000056dc       ??_C@_1M@EGPFDCPD@?$AAb?$AAe?$AA?9?$AAb?$AAy@ 100246dc     libucrt:lcidtoname_downlevel.obj
 0002:000056e8       ??_C@_1M@PCMGMCGC@?$AAb?$AAg?$AA?9?$AAb?$AAg@ 100246e8     libucrt:lcidtoname_downlevel.obj
 0002:000056f4       ??_C@_1M@BJBMFGOB@?$AAb?$AAn?$AA?9?$AAi?$AAn@ 100246f4     libucrt:lcidtoname_downlevel.obj
 0002:00005700       ??_C@_1BG@EAKMMACD@?$AAb?$AAs?$AA?9?$AAb?$AAa?$AA?9?$AAl?$AAa?$AAt?$AAn@ 10024700     libucrt:lcidtoname_downlevel.obj
 0002:00005718       ??_C@_1M@KGADAODK@?$AAc?$AAa?$AA?9?$AAe?$AAs@ 10024718     libucrt:lcidtoname_downlevel.obj
 0002:00005724       ??_C@_1M@COAJPDHI@?$AAc?$AAs?$AA?9?$AAc?$AAz@ 10024724     libucrt:lcidtoname_downlevel.obj
 0002:00005730       ??_C@_1M@DHBHFONH@?$AAc?$AAy?$AA?9?$AAg?$AAb@ 10024730     libucrt:lcidtoname_downlevel.obj
 0002:0000573c       ??_C@_1M@IMGKELGA@?$AAd?$AAa?$AA?9?$AAd?$AAk@ 1002473c     libucrt:lcidtoname_downlevel.obj
 0002:00005748       ??_C@_1M@NNDGDNGA@?$AAd?$AAe?$AA?9?$AAa?$AAt@ 10024748     libucrt:lcidtoname_downlevel.obj
 0002:00005754       ??_C@_1M@IKDBHEEM@?$AAd?$AAe?$AA?9?$AAc?$AAh@ 10024754     libucrt:lcidtoname_downlevel.obj
 0002:00005760       ??_C@_1M@GFFOJMCJ@?$AAd?$AAe?$AA?9?$AAd?$AAe@ 10024760     libucrt:lcidtoname_downlevel.obj
 0002:0000576c       ??_C@_1M@MDNLKBPM@?$AAd?$AAe?$AA?9?$AAl?$AAi@ 1002476c     libucrt:lcidtoname_downlevel.obj
 0002:00005778       ??_C@_1M@NJBEEJNL@?$AAd?$AAe?$AA?9?$AAl?$AAu@ 10024778     libucrt:lcidtoname_downlevel.obj
 0002:00005784       ??_C@_1O@GNNELBAP@?$AAd?$AAi?$AAv?$AA?9?$AAm?$AAv@ 10024784     libucrt:lcidtoname_downlevel.obj
 0002:00005794       ??_C@_1M@EJLEOGAE@?$AAe?$AAl?$AA?9?$AAg?$AAr@ 10024794     libucrt:lcidtoname_downlevel.obj
 0002:000057a0       ??_C@_1M@GMPONJN@?$AAe?$AAn?$AA?9?$AAa?$AAu@ 100247a0     libucrt:lcidtoname_downlevel.obj
 0002:000057ac       ??_C@_1M@NIDIIPGF@?$AAe?$AAn?$AA?9?$AAb?$AAz@ 100247ac     libucrt:lcidtoname_downlevel.obj
 0002:000057b8       ??_C@_1M@JEHMIMFO@?$AAe?$AAn?$AA?9?$AAc?$AAa@ 100247b8     libucrt:lcidtoname_downlevel.obj
 0002:000057c4       ??_C@_1M@IGMJCDLA@?$AAe?$AAn?$AA?9?$AAc?$AAb@ 100247c4     libucrt:lcidtoname_downlevel.obj
 0002:000057d0       ??_C@_1M@BNFIGBKG@?$AAe?$AAn?$AA?9?$AAg?$AAb@ 100247d0     libucrt:lcidtoname_downlevel.obj
 0002:000057dc       ??_C@_1M@LKIFDIGP@?$AAe?$AAn?$AA?9?$AAi?$AAe@ 100247dc     libucrt:lcidtoname_downlevel.obj
 0002:000057e8       ??_C@_1M@PJKFGCCO@?$AAe?$AAn?$AA?9?$AAj?$AAm@ 100247e8     libucrt:lcidtoname_downlevel.obj
 0002:000057f4       ??_C@_1M@KPPKEPBO@?$AAe?$AAn?$AA?9?$AAn?$AAz@ 100247f4     libucrt:lcidtoname_downlevel.obj
 0002:00005800       ??_C@_1M@GMDGLDOB@?$AAe?$AAn?$AA?9?$AAp?$AAh@ 10024800     libucrt:lcidtoname_downlevel.obj
 0002:0000580c       ??_C@_1M@ONGIBJNA@?$AAe?$AAn?$AA?9?$AAt?$AAt@ 1002480c     libucrt:lcidtoname_downlevel.obj
 0002:00005818       ??_C@_1M@LLODPCMM@?$AAe?$AAn?$AA?9?$AAu?$AAs@ 10024818     libucrt:lcidtoname_downlevel.obj
 0002:00005824       ??_C@_1M@LAKFNPAN@?$AAe?$AAn?$AA?9?$AAz?$AAa@ 10024824     libucrt:lcidtoname_downlevel.obj
 0002:00005830       ??_C@_1M@MFNHNHEO@?$AAe?$AAn?$AA?9?$AAz?$AAw@ 10024830     libucrt:lcidtoname_downlevel.obj
 0002:0000583c       ??_C@_1M@EJEINPHM@?$AAe?$AAs?$AA?9?$AAa?$AAr@ 1002483c     libucrt:lcidtoname_downlevel.obj
 0002:00005848       ??_C@_1M@GNKPCCJA@?$AAe?$AAs?$AA?9?$AAb?$AAo@ 10024848     libucrt:lcidtoname_downlevel.obj
 0002:00005854       ??_C@_1M@LEEGFONL@?$AAe?$AAs?$AA?9?$AAc?$AAl@ 10024854     libucrt:lcidtoname_downlevel.obj
 0002:00005860       ??_C@_1M@KGPDPBDF@?$AAe?$AAs?$AA?9?$AAc?$AAo@ 10024860     libucrt:lcidtoname_downlevel.obj
 0002:0000586c       ??_C@_1M@EIAHOHH@?$AAe?$AAs?$AA?9?$AAc?$AAr@ 1002486c     libucrt:lcidtoname_downlevel.obj
 0002:00005878       ??_C@_1M@LLPGMBIN@?$AAe?$AAs?$AA?9?$AAd?$AAo@ 10024878     libucrt:lcidtoname_downlevel.obj
 0002:00005884       ??_C@_1M@DKHMKNJA@?$AAe?$AAs?$AA?9?$AAe?$AAc@ 10024884     libucrt:lcidtoname_downlevel.obj
 0002:00005890       ??_C@_1M@GKGFPKAP@?$AAe?$AAs?$AA?9?$AAe?$AAs@ 10024890     libucrt:lcidtoname_downlevel.obj
 0002:0000589c       ??_C@_1M@LKHKGDLN@?$AAe?$AAs?$AA?9?$AAg?$AAt@ 1002489c     libucrt:lcidtoname_downlevel.obj
 0002:000058a8       ??_C@_1M@HEIIGGJD@?$AAe?$AAs?$AA?9?$AAh?$AAn@ 100248a8     libucrt:lcidtoname_downlevel.obj
 0002:000058b4       ??_C@_1M@FBDHPPGD@?$AAe?$AAs?$AA?9?$AAm?$AAx@ 100248b4     libucrt:lcidtoname_downlevel.obj
 0002:000058c0       ??_C@_1M@DPAGLNDH@?$AAe?$AAs?$AA?9?$AAn?$AAi@ 100248c0     libucrt:lcidtoname_downlevel.obj
 0002:000058cc       ??_C@_1M@MDGOPGDD@?$AAe?$AAs?$AA?9?$AAp?$AAa@ 100248cc     libucrt:lcidtoname_downlevel.obj
 0002:000058d8       ??_C@_1M@EMAMGBGE@?$AAe?$AAs?$AA?9?$AAp?$AAe@ 100248d8     libucrt:lcidtoname_downlevel.obj
 0002:000058e4       ??_C@_1M@IBMCAOEC@?$AAe?$AAs?$AA?9?$AAp?$AAr@ 100248e4     libucrt:lcidtoname_downlevel.obj
 0002:000058f0       ??_C@_1M@FGMDIJED@?$AAe?$AAs?$AA?9?$AAp?$AAy@ 100248f0     libucrt:lcidtoname_downlevel.obj
 0002:000058fc       ??_C@_1M@IIDEOLLL@?$AAe?$AAs?$AA?9?$AAs?$AAv@ 100248fc     libucrt:lcidtoname_downlevel.obj
 0002:00005908       ??_C@_1M@GAOBIPA@?$AAe?$AAs?$AA?9?$AAu?$AAy@ 10024908     libucrt:lcidtoname_downlevel.obj
 0002:00005914       ??_C@_1M@JKFFICHJ@?$AAe?$AAs?$AA?9?$AAv?$AAe@ 10024914     libucrt:lcidtoname_downlevel.obj
 0002:00005920       ??_C@_1M@PNMLOJDF@?$AAe?$AAt?$AA?9?$AAe?$AAe@ 10024920     libucrt:lcidtoname_downlevel.obj
 0002:0000592c       ??_C@_1M@GHHLIKEI@?$AAe?$AAu?$AA?9?$AAe?$AAs@ 1002492c     libucrt:lcidtoname_downlevel.obj
 0002:00005938       ??_C@_1M@PBNONODE@?$AAf?$AAa?$AA?9?$AAi?$AAr@ 10024938     libucrt:lcidtoname_downlevel.obj
 0002:00005944       ??_C@_1M@JEEHPMIL@?$AAf?$AAi?$AA?9?$AAf?$AAi@ 10024944     libucrt:lcidtoname_downlevel.obj
 0002:00005950       ??_C@_1M@LMDCNDBA@?$AAf?$AAo?$AA?9?$AAf?$AAo@ 10024950     libucrt:lcidtoname_downlevel.obj
 0002:0000595c       ??_C@_1M@JKEOHLDK@?$AAf?$AAr?$AA?9?$AAb?$AAe@ 1002495c     libucrt:lcidtoname_downlevel.obj
 0002:00005968       ??_C@_1M@NOHADPMI@?$AAf?$AAr?$AA?9?$AAc?$AAa@ 10024968     libucrt:lcidtoname_downlevel.obj
 0002:00005974       ??_C@_1M@KDHIHAEC@?$AAf?$AAr?$AA?9?$AAc?$AAh@ 10024974     libucrt:lcidtoname_downlevel.obj
 0002:00005980       ??_C@_1M@MMBBFGAK@?$AAf?$AAr?$AA?9?$AAf?$AAr@ 10024980     libucrt:lcidtoname_downlevel.obj
 0002:0000598c       ??_C@_1M@PAFNENNF@?$AAf?$AAr?$AA?9?$AAl?$AAu@ 1002498c     libucrt:lcidtoname_downlevel.obj
 0002:00005998       ??_C@_1M@EOHDJGDD@?$AAf?$AAr?$AA?9?$AAm?$AAc@ 10024998     libucrt:lcidtoname_downlevel.obj
 0002:000059a4       ??_C@_1M@FAPLLOPF@?$AAg?$AAl?$AA?9?$AAe?$AAs@ 100249a4     libucrt:lcidtoname_downlevel.obj
 0002:000059b0       ??_C@_1M@FOPBFLOO@?$AAg?$AAu?$AA?9?$AAi?$AAn@ 100249b0     libucrt:lcidtoname_downlevel.obj
 0002:000059bc       ??_C@_1M@KBMCINPM@?$AAh?$AAe?$AA?9?$AAi?$AAl@ 100249bc     libucrt:lcidtoname_downlevel.obj
 0002:000059c8       ??_C@_1M@BBPHKFPJ@?$AAh?$AAi?$AA?9?$AAi?$AAn@ 100249c8     libucrt:lcidtoname_downlevel.obj
 0002:000059d4       ??_C@_1M@PMBNDPHD@?$AAh?$AAr?$AA?9?$AAb?$AAa@ 100249d4     libucrt:lcidtoname_downlevel.obj
 0002:000059e0       ??_C@_1M@BPCKOEGE@?$AAh?$AAr?$AA?9?$AAh?$AAr@ 100249e0     libucrt:lcidtoname_downlevel.obj
 0002:000059ec       ??_C@_1M@GACBMHKE@?$AAh?$AAu?$AA?9?$AAh?$AAu@ 100249ec     libucrt:lcidtoname_downlevel.obj
 0002:000059f8       ??_C@_1M@MILPAJJC@?$AAh?$AAy?$AA?9?$AAa?$AAm@ 100249f8     libucrt:lcidtoname_downlevel.obj
 0002:00005a04       ??_C@_1M@BABBICEC@?$AAi?$AAd?$AA?9?$AAi?$AAd@ 10024a04     libucrt:lcidtoname_downlevel.obj
 0002:00005a10       ??_C@_1M@BIKNHHPF@?$AAi?$AAs?$AA?9?$AAi?$AAs@ 10024a10     libucrt:lcidtoname_downlevel.obj
 0002:00005a1c       ??_C@_1M@NMPCJPHE@?$AAi?$AAt?$AA?9?$AAc?$AAh@ 10024a1c     libucrt:lcidtoname_downlevel.obj
 0002:00005a28       ??_C@_1M@GHKGFEDF@?$AAi?$AAt?$AA?9?$AAi?$AAt@ 10024a28     libucrt:lcidtoname_downlevel.obj
 0002:00005a34       ??_C@_1M@NIEJCJJA@?$AAj?$AAa?$AA?9?$AAj?$AAp@ 10024a34     libucrt:lcidtoname_downlevel.obj
 0002:00005a40       ??_C@_1M@JILFNBIM@?$AAk?$AAa?$AA?9?$AAg?$AAe@ 10024a40     libucrt:lcidtoname_downlevel.obj
 0002:00005a4c       ??_C@_1M@PACPMGPH@?$AAk?$AAk?$AA?9?$AAk?$AAz@ 10024a4c     libucrt:lcidtoname_downlevel.obj
 0002:00005a58       ??_C@_1M@IELFGMHA@?$AAk?$AAn?$AA?9?$AAi?$AAn@ 10024a58     libucrt:lcidtoname_downlevel.obj
 0002:00005a64       ??_C@_1O@IBBJHCH@?$AAk?$AAo?$AAk?$AA?9?$AAi?$AAn@ 10024a64     libucrt:lcidtoname_downlevel.obj
 0002:00005a74       ??_C@_1M@DMHAEOGC@?$AAk?$AAo?$AA?9?$AAk?$AAr@ 10024a74     libucrt:lcidtoname_downlevel.obj
 0002:00005a80       ??_C@_1M@HBAHBIGA@?$AAk?$AAy?$AA?9?$AAk?$AAg@ 10024a80     libucrt:lcidtoname_downlevel.obj
 0002:00005a8c       ??_C@_1M@KPMILCJG@?$AAl?$AAt?$AA?9?$AAl?$AAt@ 10024a8c     libucrt:lcidtoname_downlevel.obj
 0002:00005a98       ??_C@_1M@BDEKKCA@?$AAl?$AAv?$AA?9?$AAl?$AAv@ 10024a98     libucrt:lcidtoname_downlevel.obj
 0002:00005aa4       ??_C@_1M@ELCKCCJJ@?$AAm?$AAi?$AA?9?$AAn?$AAz@ 10024aa4     libucrt:lcidtoname_downlevel.obj
 0002:00005ab0       ??_C@_1M@CBOOLAPA@?$AAm?$AAk?$AA?9?$AAm?$AAk@ 10024ab0     libucrt:lcidtoname_downlevel.obj
 0002:00005abc       ??_C@_1M@GPHNBJKN@?$AAm?$AAl?$AA?9?$AAi?$AAn@ 10024abc     libucrt:lcidtoname_downlevel.obj
 0002:00005ac8       ??_C@_1M@PABJILIG@?$AAm?$AAn?$AA?9?$AAm?$AAn@ 10024ac8     libucrt:lcidtoname_downlevel.obj
 0002:00005ad4       ??_C@_1M@FGBKKIPG@?$AAm?$AAr?$AA?9?$AAi?$AAn@ 10024ad4     libucrt:lcidtoname_downlevel.obj
 0002:00005ae0       ??_C@_1M@NDBPDDAL@?$AAm?$AAs?$AA?9?$AAb?$AAn@ 10024ae0     libucrt:lcidtoname_downlevel.obj
 0002:00005aec       ??_C@_1M@OPIHOOPI@?$AAm?$AAs?$AA?9?$AAm?$AAy@ 10024aec     libucrt:lcidtoname_downlevel.obj
 0002:00005af8       ??_C@_1M@PPDBCNFM@?$AAm?$AAt?$AA?9?$AAm?$AAt@ 10024af8     libucrt:lcidtoname_downlevel.obj
 0002:00005b04       ??_C@_1M@KDJDKMDD@?$AAn?$AAb?$AA?9?$AAn?$AAo@ 10024b04     libucrt:lcidtoname_downlevel.obj
 0002:00005b10       ??_C@_1M@KFCFLMJP@?$AAn?$AAl?$AA?9?$AAb?$AAe@ 10024b10     libucrt:lcidtoname_downlevel.obj
 0002:00005b1c       ??_C@_1M@KPOPDDGO@?$AAn?$AAl?$AA?9?$AAn?$AAl@ 10024b1c     libucrt:lcidtoname_downlevel.obj
 0002:00005b28       ??_C@_1M@LJKPEMLN@?$AAn?$AAn?$AA?9?$AAn?$AAo@ 10024b28     libucrt:lcidtoname_downlevel.obj
 0002:00005b34       ??_C@_1M@BDGHHBFL@?$AAn?$AAs?$AA?9?$AAz?$AAa@ 10024b34     libucrt:lcidtoname_downlevel.obj
 0002:00005b40       ??_C@_1M@IDEHOAP@?$AAp?$AAa?$AA?9?$AAi?$AAn@ 10024b40     libucrt:lcidtoname_downlevel.obj
 0002:00005b4c       ??_C@_1M@HDBKGOGH@?$AAp?$AAl?$AA?9?$AAp?$AAl@ 10024b4c     libucrt:lcidtoname_downlevel.obj
 0002:00005b58       ??_C@_1M@LJLLCMEH@?$AAp?$AAt?$AA?9?$AAb?$AAr@ 10024b58     libucrt:lcidtoname_downlevel.obj
 0002:00005b64       ??_C@_1M@NCMONAAL@?$AAp?$AAt?$AA?9?$AAp?$AAt@ 10024b64     libucrt:lcidtoname_downlevel.obj
 0002:00005b70       ??_C@_1O@EAKMAJDN@?$AAq?$AAu?$AAz?$AA?9?$AAb?$AAo@ 10024b70     libucrt:lcidtoname_downlevel.obj
 0002:00005b80       ??_C@_1O@BHHPIGDN@?$AAq?$AAu?$AAz?$AA?9?$AAe?$AAc@ 10024b80     libucrt:lcidtoname_downlevel.obj
 0002:00005b90       ??_C@_1O@GBAPEKMJ@?$AAq?$AAu?$AAz?$AA?9?$AAp?$AAe@ 10024b90     libucrt:lcidtoname_downlevel.obj
 0002:00005ba0       ??_C@_1M@CLGLEFBO@?$AAr?$AAo?$AA?9?$AAr?$AAo@ 10024ba0     libucrt:lcidtoname_downlevel.obj
 0002:00005bac       ??_C@_1M@CEEDODME@?$AAr?$AAu?$AA?9?$AAr?$AAu@ 10024bac     libucrt:lcidtoname_downlevel.obj
 0002:00005bb8       ??_C@_1M@HPKKKMPP@?$AAs?$AAa?$AA?9?$AAi?$AAn@ 10024bb8     libucrt:lcidtoname_downlevel.obj
 0002:00005bc4       ??_C@_1M@BKMAIGOJ@?$AAs?$AAe?$AA?9?$AAf?$AAi@ 10024bc4     libucrt:lcidtoname_downlevel.obj
 0002:00005bd0       ??_C@_1M@NDPIFLFI@?$AAs?$AAe?$AA?9?$AAn?$AAo@ 10024bd0     libucrt:lcidtoname_downlevel.obj
 0002:00005bdc       ??_C@_1M@DANKKHJ@?$AAs?$AAe?$AA?9?$AAs?$AAe@ 10024bdc     libucrt:lcidtoname_downlevel.obj
 0002:00005be8       ??_C@_1M@PNBLONPJ@?$AAs?$AAk?$AA?9?$AAs?$AAk@ 10024be8     libucrt:lcidtoname_downlevel.obj
 0002:00005bf4       ??_C@_1M@LFMODOAL@?$AAs?$AAl?$AA?9?$AAs?$AAi@ 10024bf4     libucrt:lcidtoname_downlevel.obj
 0002:00005c00       ??_C@_1O@DFKOMPG@?$AAs?$AAm?$AAa?$AA?9?$AAn?$AAo@ 10024c00     libucrt:lcidtoname_downlevel.obj
 0002:00005c10       ??_C@_1O@NDKPBNNH@?$AAs?$AAm?$AAa?$AA?9?$AAs?$AAe@ 10024c10     libucrt:lcidtoname_downlevel.obj
 0002:00005c20       ??_C@_1O@PLLKBHAB@?$AAs?$AAm?$AAj?$AA?9?$AAn?$AAo@ 10024c20     libucrt:lcidtoname_downlevel.obj
 0002:00005c30       ??_C@_1O@CLEPOGCA@?$AAs?$AAm?$AAj?$AA?9?$AAs?$AAe@ 10024c30     libucrt:lcidtoname_downlevel.obj
 0002:00005c40       ??_C@_1O@DLGJGKMK@?$AAs?$AAm?$AAn?$AA?9?$AAf?$AAi@ 10024c40     libucrt:lcidtoname_downlevel.obj
 0002:00005c50       ??_C@_1O@OJDJGAJC@?$AAs?$AAm?$AAs?$AA?9?$AAf?$AAi@ 10024c50     libucrt:lcidtoname_downlevel.obj
 0002:00005c60       ??_C@_1M@BOFOGHPB@?$AAs?$AAq?$AA?9?$AAa?$AAl@ 10024c60     libucrt:lcidtoname_downlevel.obj
 0002:00005c6c       ??_C@_1BG@LJBBIPGB@?$AAs?$AAr?$AA?9?$AAb?$AAa?$AA?9?$AAc?$AAy?$AAr?$AAl@ 10024c6c     libucrt:lcidtoname_downlevel.obj
 0002:00005c84       ??_C@_1BG@JLBENFOE@?$AAs?$AAr?$AA?9?$AAb?$AAa?$AA?9?$AAl?$AAa?$AAt?$AAn@ 10024c84     libucrt:lcidtoname_downlevel.obj
 0002:00005c9c       ??_C@_1BG@KODPNHE@?$AAs?$AAr?$AA?9?$AAs?$AAp?$AA?9?$AAc?$AAy?$AAr?$AAl@ 10024c9c     libucrt:lcidtoname_downlevel.obj
 0002:00005cb4       ??_C@_1BG@CIOGKHPB@?$AAs?$AAr?$AA?9?$AAs?$AAp?$AA?9?$AAl?$AAa?$AAt?$AAn@ 10024cb4     libucrt:lcidtoname_downlevel.obj
 0002:00005ccc       ??_C@_1M@NGFJLMAC@?$AAs?$AAv?$AA?9?$AAf?$AAi@ 10024ccc     libucrt:lcidtoname_downlevel.obj
 0002:00005cd8       ??_C@_1M@MPJEJAJC@?$AAs?$AAv?$AA?9?$AAs?$AAe@ 10024cd8     libucrt:lcidtoname_downlevel.obj
 0002:00005ce4       ??_C@_1M@MPNDHLFK@?$AAs?$AAw?$AA?9?$AAk?$AAe@ 10024ce4     libucrt:lcidtoname_downlevel.obj
 0002:00005cf0       ??_C@_1O@KOHBJJI@?$AAs?$AAy?$AAr?$AA?9?$AAs?$AAy@ 10024cf0     libucrt:lcidtoname_downlevel.obj
 0002:00005d00       ??_C@_1M@LDCEFHA@?$AAt?$AAa?$AA?9?$AAi?$AAn@ 10024d00     libucrt:lcidtoname_downlevel.obj
 0002:00005d0c       ??_C@_1M@CNJOFAK@?$AAt?$AAe?$AA?9?$AAi?$AAn@ 10024d0c     libucrt:lcidtoname_downlevel.obj
 0002:00005d18       ??_C@_1M@GNAECACD@?$AAt?$AAh?$AA?9?$AAt?$AAh@ 10024d18     libucrt:lcidtoname_downlevel.obj
 0002:00005d24       ??_C@_1M@CHBIHOJO@?$AAt?$AAn?$AA?9?$AAz?$AAa@ 10024d24     libucrt:lcidtoname_downlevel.obj
 0002:00005d30       ??_C@_1M@GCCMIGPJ@?$AAt?$AAr?$AA?9?$AAt?$AAr@ 10024d30     libucrt:lcidtoname_downlevel.obj
 0002:00005d3c       ??_C@_1M@CELMCNBK@?$AAt?$AAt?$AA?9?$AAr?$AAu@ 10024d3c     libucrt:lcidtoname_downlevel.obj
 0002:00005d48       ??_C@_1M@KLMCELGA@?$AAu?$AAk?$AA?9?$AAu?$AAa@ 10024d48     libucrt:lcidtoname_downlevel.obj
 0002:00005d54       ??_C@_1M@EPAJJAJF@?$AAu?$AAr?$AA?9?$AAp?$AAk@ 10024d54     libucrt:lcidtoname_downlevel.obj
 0002:00005d60       ??_C@_1BG@GEGPMCDJ@?$AAu?$AAz?$AA?9?$AAu?$AAz?$AA?9?$AAc?$AAy?$AAr?$AAl@ 10024d60     libucrt:lcidtoname_downlevel.obj
 0002:00005d78       ??_C@_1BG@EGGKJILM@?$AAu?$AAz?$AA?9?$AAu?$AAz?$AA?9?$AAl?$AAa?$AAt?$AAn@ 10024d78     libucrt:lcidtoname_downlevel.obj
 0002:00005d90       ??_C@_1M@GFOCLFF@?$AAv?$AAi?$AA?9?$AAv?$AAn@ 10024d90     libucrt:lcidtoname_downlevel.obj
 0002:00005d9c       ??_C@_1M@CPAMEDFI@?$AAx?$AAh?$AA?9?$AAz?$AAa@ 10024d9c     libucrt:lcidtoname_downlevel.obj
 0002:00005da8       ??_C@_1O@EBKIFIGN@?$AAz?$AAh?$AA?9?$AAc?$AAh?$AAs@ 10024da8     libucrt:lcidtoname_downlevel.obj
 0002:00005db8       ??_C@_1O@NMHPGANE@?$AAz?$AAh?$AA?9?$AAc?$AAh?$AAt@ 10024db8     libucrt:lcidtoname_downlevel.obj
 0002:00005dc8       ??_C@_1M@LPINJOMC@?$AAz?$AAh?$AA?9?$AAc?$AAn@ 10024dc8     libucrt:lcidtoname_downlevel.obj
 0002:00005dd4       ??_C@_1M@OCJEJODD@?$AAz?$AAh?$AA?9?$AAh?$AAk@ 10024dd4     libucrt:lcidtoname_downlevel.obj
 0002:00005de0       ??_C@_1M@DNDLJINH@?$AAz?$AAh?$AA?9?$AAm?$AAo@ 10024de0     libucrt:lcidtoname_downlevel.obj
 0002:00005dec       ??_C@_1M@MBFDNDND@?$AAz?$AAh?$AA?9?$AAs?$AAg@ 10024dec     libucrt:lcidtoname_downlevel.obj
 0002:00005df8       ??_C@_1M@IMEPLEPE@?$AAz?$AAh?$AA?9?$AAt?$AAw@ 10024df8     libucrt:lcidtoname_downlevel.obj
 0002:00005e04       ??_C@_1M@BBGHNHJP@?$AAz?$AAu?$AA?9?$AAz?$AAa@ 10024e04     libucrt:lcidtoname_downlevel.obj
 0002:00005e10       ?large_power_data@?1??multiply_by_power_of_ten@__crt_strtox@@YA_NAAUbig_integer@2@I@Z@4QBIB 10024e10     libucrt:cfout.obj
 0002:00006718       ?large_power_indices@?1??multiply_by_power_of_ten@__crt_strtox@@YA_NAAUbig_integer@2@I@Z@4QBUunpack_index@?1??12@YA_N0I@Z@B 10025718     libucrt:cfout.obj
 0002:000067b0       ?small_powers_of_ten@?1??multiply_by_power_of_ten@__crt_strtox@@YA_NAAUbig_integer@2@I@Z@4QBIB 100257b0     libucrt:cfout.obj
 0002:000067d4       ??_C@_01GBGANLPD@0@        100257d4     libucrt:cfout.obj
 0002:000067d8       ??_C@_05DNEBIAHO@1?$CDINF@ 100257d8     libucrt:cfout.obj
 0002:000067e0       ??_C@_06IMKFLFPG@1?$CDQNAN@ 100257e0     libucrt:cfout.obj
 0002:000067e8       ??_C@_06PGGFOGJG@1?$CDSNAN@ 100257e8     libucrt:cfout.obj
 0002:000067f0       ??_C@_05PHHOCPM@1?$CDIND@  100257f0     libucrt:cfout.obj
 0002:00006960       __infinity                 10025960     libucrt:87tran.obj
 0002:0000696a       __minfinity                1002596a     libucrt:87tran.obj
 0002:00006974       __logemax                  10025974     libucrt:87tran.obj
 0002:0000699a       __OP_EXPjmptab             1002599a     libucrt:87tran.obj
 0002:000069c0       __indefinite               100259c0     libucrt:87disp.obj
 0002:000069ca       __piby2                    100259ca     libucrt:87disp.obj
 0002:000069d4       __piby4                    100259d4     libucrt:87disp.obj
 0002:00006a08       __DEFAULT_CW_in_mem        10025a08     libucrt:common.obj
 0002:00006a0a       __pi_by_2_to_61            10025a0a     libucrt:common.obj
 0002:00006a44       ??_C@_03MGHMBJCF@log@      10025a44     libucrt:libm_error.obj
 0002:00006a48       ??_C@_05HGHHAHAP@log10@    10025a48     libucrt:libm_error.obj
 0002:00006a50       ??_C@_03KHJOGHMM@exp@      10025a50     libucrt:libm_error.obj
 0002:00006a54       ??_C@_03JGHBODFD@pow@      10025a54     libucrt:libm_error.obj
 0002:00006a58       ??_C@_04FIHNOPOL@asin@     10025a58     libucrt:libm_error.obj
 0002:00006a60       ??_C@_04PDIFKINK@acos@     10025a60     libucrt:libm_error.obj
 0002:00006a68       ??_C@_04EIAKFFMI@sqrt@     10025a68     libucrt:libm_error.obj
 0002:00006a70       __real@3ff0000000000000    10025a70     libucrt:libm_error.obj
 0002:00006a78       ??_C@_1BA@BALFACEM@?$AAC?$AAO?$AAN?$AAO?$AAU?$AAT?$AA$@ 10025a78     libucrt:initcon.obj
 0002:00006aa0       ___acrt_log10_table_t      10025aa0     libucrt:log10_tables.obj
 0002:00006eb0       ___acrt_log10_table_cb     10025eb0     libucrt:log10_tables.obj
 0002:000072c0       __real@3fe0000000000000    100262c0     libucrt:powhlp.obj
 0002:000073b0       ??_C@_04COOMCNPB@sinh@     100263b0     libucrt:fpexcept.obj
 0002:000073b8       ??_C@_04HPJJNFIM@cosh@     100263b8     libucrt:fpexcept.obj
 0002:000073c0       ??_C@_04FJHINJAO@tanh@     100263c0     libucrt:fpexcept.obj
 0002:000073c8       ??_C@_04MLLJIGOK@atan@     100263c8     libucrt:fpexcept.obj
 0002:000073d0       ??_C@_05KNGEOGJB@atan2@    100263d0     libucrt:fpexcept.obj
 0002:000073d8       ??_C@_03BLEJJJBH@sin@      100263d8     libucrt:fpexcept.obj
 0002:000073dc       ??_C@_03LALBNOCG@cos@      100263dc     libucrt:fpexcept.obj
 0002:000073e0       ??_C@_03IIINPABG@tan@      100263e0     libucrt:fpexcept.obj
 0002:000073e4       ??_C@_04GFPJNGEK@ceil@     100263e4     libucrt:fpexcept.obj
 0002:000073ec       ??_C@_05PBJFFIGL@floor@    100263ec     libucrt:fpexcept.obj
 0002:000073f4       ??_C@_04ODHECPBC@fabs@     100263f4     libucrt:fpexcept.obj
 0002:000073fc       ??_C@_04EHEDPDJG@modf@     100263fc     libucrt:fpexcept.obj
 0002:00007404       ??_C@_05CEJMAHNP@ldexp@    10026404     libucrt:fpexcept.obj
 0002:0000740c       ??_C@_05KBKMEMPO@_cabs@    1002640c     libucrt:fpexcept.obj
 0002:00007414       ??_C@_06MEIMCGCF@_hypot@   10026414     libucrt:fpexcept.obj
 0002:0000741c       ??_C@_04KEPJIHGP@fmod@     1002641c     libucrt:fpexcept.obj
 0002:00007424       ??_C@_05GKKHEGJL@frexp@    10026424     libucrt:fpexcept.obj
 0002:0000742c       ??_C@_03MJLDFKDL@_y0@      1002642c     libucrt:fpexcept.obj
 0002:00007430       ??_C@_03NAKIGLHK@_y1@      10026430     libucrt:fpexcept.obj
 0002:00007434       ??_C@_03ONILCKOB@_yn@      10026434     libucrt:fpexcept.obj
 0002:00007438       ??_C@_05JGDBENOH@_logb@    10026438     libucrt:fpexcept.obj
 0002:00007440       ??_C@_0L@KDOEJCKC@_nextafter@ 10026440     libucrt:fpexcept.obj
 0002:00007450       __d_inf                    10026450     libucrt:util.obj
 0002:00007458       __d_max                    10026458     libucrt:util.obj
 0002:00007460       __d_mzero                  10026460     libucrt:util.obj
 0002:000074d0       __load_config_used         100264d0     LIBCMT:loadcfg.obj
 0002:00007588       __tls_used                 10026588     LIBCMT:tlssup.obj
 0002:000075a0       ??_R4exception@std@@6B@    100265a0     LIBCMT:throw_bad_alloc.obj
 0002:000075b4       ??_R3exception@std@@8      100265b4     LIBCMT:throw_bad_alloc.obj
 0002:000075c4       ??_R2exception@std@@8      100265c4     LIBCMT:throw_bad_alloc.obj
 0002:000075cc       ??_R1A@?0A@EA@exception@std@@8 100265cc     LIBCMT:throw_bad_alloc.obj
 0002:000075e8       ??_R4bad_alloc@std@@6B@    100265e8     LIBCMT:throw_bad_alloc.obj
 0002:000075fc       ??_R3bad_alloc@std@@8      100265fc     LIBCMT:throw_bad_alloc.obj
 0002:0000760c       ??_R2bad_alloc@std@@8      1002660c     LIBCMT:throw_bad_alloc.obj
 0002:00007618       ??_R1A@?0A@EA@bad_alloc@std@@8 10026618     LIBCMT:throw_bad_alloc.obj
 0002:00007634       ??_R4bad_array_new_length@std@@6B@ 10026634     LIBCMT:throw_bad_alloc.obj
 0002:00007648       ??_R3bad_array_new_length@std@@8 10026648     LIBCMT:throw_bad_alloc.obj
 0002:00007658       ??_R2bad_array_new_length@std@@8 10026658     LIBCMT:throw_bad_alloc.obj
 0002:00007668       ??_R1A@?0A@EA@bad_array_new_length@std@@8 10026668     LIBCMT:throw_bad_alloc.obj
 0002:00007684       ??_R4type_info@@6B@        10026684     LIBCMT:std_type_info_static.obj
 0002:00007698       ??_R3type_info@@8          10026698     LIBCMT:std_type_info_static.obj
 0002:000076a8       ??_R2type_info@@8          100266a8     LIBCMT:std_type_info_static.obj
 0002:000076b0       ??_R1A@?0A@EA@type_info@@8 100266b0     LIBCMT:std_type_info_static.obj
 0002:000076cc       ??_R4bad_exception@std@@6B@ 100266cc     libvcruntime:frame.obj
 0002:000076e0       ??_R3bad_exception@std@@8  100266e0     libvcruntime:frame.obj
 0002:000076f0       ??_R2bad_exception@std@@8  100266f0     libvcruntime:frame.obj
 0002:000076fc       ??_R1A@?0A@EA@bad_exception@std@@8 100266fc     libvcruntime:frame.obj
 0002:00007718       ___safe_se_handler_table   10026718     <linker-defined>
 0002:00007b14       ___rtc_iaa                 10026b14     LIBCMT:initsect.obj
 0002:00007b18       ___rtc_izz                 10026b18     LIBCMT:initsect.obj
 0002:00007b1c       ___rtc_taa                 10026b1c     LIBCMT:initsect.obj
 0002:00007b20       ___rtc_tzz                 10026b20     LIBCMT:initsect.obj
 0002:00007b24       __tls_start                10026b24     LIBCMT:tlssup.obj
 0002:00007b28       __Init_thread_epoch        10026b28     LIBCMT:thread_safe_statics.obj
 0002:00007b2c       __tls_end                  10026b2c     LIBCMT:tlssup.obj
 0002:00007c2c       __TI2?AVbad_alloc@std@@    10026c2c     LIBCMT:throw_bad_alloc.obj
 0002:00007c3c       __CTA2?AVbad_alloc@std@@   10026c3c     LIBCMT:throw_bad_alloc.obj
 0002:00007c48       __CT??_R0?AVbad_alloc@std@@@8??0bad_alloc@std@@QAE@ABV01@@Z12 10026c48     LIBCMT:throw_bad_alloc.obj
 0002:00007c64       __CT??_R0?AVexception@std@@@8??0exception@std@@QAE@ABV01@@Z12 10026c64     LIBCMT:throw_bad_alloc.obj
 0002:00007c80       __TI3?AVbad_array_new_length@std@@ 10026c80     LIBCMT:throw_bad_alloc.obj
 0002:00007c90       __CTA3?AVbad_array_new_length@std@@ 10026c90     LIBCMT:throw_bad_alloc.obj
 0002:00007ca0       __CT??_R0?AVbad_array_new_length@std@@@8??0bad_array_new_length@std@@QAE@ABV01@@Z12 10026ca0     LIBCMT:throw_bad_alloc.obj
 0002:00007dc4       __TI2?AVbad_exception@std@@ 10026dc4     libvcruntime:frame.obj
 0002:00007dd4       __CTA2?AVbad_exception@std@@ 10026dd4     libvcruntime:frame.obj
 0002:00007de0       __CT??_R0?AVbad_exception@std@@@8??0bad_exception@std@@QAE@ABV01@@Z12 10026de0     libvcruntime:frame.obj
 0002:0000815c       ___pobjMapEntryFirst       1002715c     OposVariant.obj
 0002:00008160       ___pobjMapEntryLast        10027160     OposVariant.obj
 0002:00008220       __IMPORT_DESCRIPTOR_KERNEL32 10027220     kernel32:KERNEL32.dll
 0002:00008234       __IMPORT_DESCRIPTOR_USER32 10027234     user32:USER32.dll
 0002:00008248       __IMPORT_DESCRIPTOR_GDI32  10027248     gdi32:GDI32.dll
 0002:0000825c       __IMPORT_DESCRIPTOR_ADVAPI32 1002725c     advapi32:ADVAPI32.dll
 0002:00008270       __IMPORT_DESCRIPTOR_ole32  10027270     ole32:ole32.dll
 0002:00008284       __IMPORT_DESCRIPTOR_OLEAUT32 10027284     oleaut32:OLEAUT32.dll
 0002:00008298       __NULL_IMPORT_DESCRIPTOR   10027298     kernel32:KERNEL32.dll
 0003:00000000       ?s_Claim@?7??GetIDsOfNames@CComTypeInfoHolder@ATL@@QAEJABU_GUID@@PAPA_WIKPAJ@Z@4PA_WA 10029000     CoinDispenser.obj
 0003:00000018       ?s_Release@?7??GetIDsOfNames@CComTypeInfoHolder@ATL@@QAEJABU_GUID@@PAPA_WIKPAJ@Z@4PA_WA 10029018     CoinDispenser.obj
 0003:00000034       ?_tih@?$IDispatchImpl@UIOPOSCoinDispenser@@$1?IID_IOPOSCoinDispenser@@3U_GUID@@B$1?LIBID_OposCoinDispenser_CCO@@3U3@B$00$0A@VCComTypeInfoHolder@ATL@@@ATL@@1VCComTypeInfoHolder@2@A 10029034     CoinDispenser.obj
 0003:00000050       ?_tih@?$IProvideClassInfo2Impl@$1?CLSID_OPOSCoinDispenser@@3U_GUID@@B$1?DIID__IOPOSCoinDispenserEvents@@3U2@B$1?LIBID_OposCoinDispenser_CCO@@3U2@B$00$0A@VCComTypeInfoHolder@ATL@@@ATL@@1VCComTypeInfoHolder@2@A 10029050     CoinDispenser.obj
 0003:0000006c       ?vszContents@?6??Save@?$IPersistStorageImpl@VCOPOSCoinDispenser@@@ATL@@UAGJPAUIStorage@@H@Z@4PB_WB 1002906c     CoinDispenser.obj
 0003:00000070       ?wc@?1??GetWndClassInfo@?$CWindowImpl@VCOPOSCoinDispenser@@VCWindow@ATL@@V?$CWinTraits@$0FGAAAAAA@$0A@@3@@ATL@@SAAAU_ATL_WNDCLASSINFOW@3@XZ@4U43@A 10029070     CoinDispenser.obj
 0003:000000fc       ?rcDefault@CWindow@ATL@@2UtagRECT@@A 100290fc     CoinDispenser.obj
 0003:00000158       ?g_WindowName@@3PA_WA      10029158     CoinDispenserImpl.obj
 0003:00000188       ?g_ControlDescription@@3PADA 10029188     CoinDispenserImpl.obj
 0003:000001d8       ?g_ControlVersion@@3JA     100291d8     CoinDispenserImpl.obj
 0003:00000260       ___scrt_native_dllmain_reason 10029260     LIBCMT:utility.obj
 0003:00000264       __Init_global_epoch        10029264     LIBCMT:thread_safe_statics.obj
 0003:00000270       ___security_cookie_complement 10029270     LIBCMT:gs_cookie.obj
 0003:00000274       ___security_cookie         10029274     LIBCMT:gs_cookie.obj
 0003:00000278       ___isa_enabled             10029278     LIBCMT:cpu_disp.obj
 0003:00000290       __NLG_Destination          10029290     libvcruntime:exsup.obj
 0003:000002a8       ___abort_behavior          100292a8     libucrt:abort.obj
 0003:000002b8       __iob                      100292b8     libucrt:_file.obj
 0003:00000360       ___acrt_initial_locale_data 10029360     libucrt:nlsdata.obj
 0003:00000418       ___acrt_initial_locale_pointers 10029418     libucrt:nlsdata.obj
 0003:00000420       ___acrt_wide_c_locale_string 10029420     libucrt:nlsdata.obj
 0003:00000428       ___acrt_initial_multibyte_data 10029428     libucrt:mbctype.obj
 0003:00000948       __pwctype                  10029948     libucrt:ctype.obj
 0003:0000094c       ___globallocalestatus      1002994c     libucrt:glstatus.obj
 0003:00000950       ___acrt_lconv_c            10029950     libucrt:localeconv.obj
 0003:000009a0       ___acrt_lconv_static_decimal 100299a0     libucrt:localeconv.obj
 0003:000009a4       ___acrt_lconv_static_W_decimal 100299a4     libucrt:localeconv.obj
 0003:000009b0       __lookuptrailbytes         100299b0     libucrt:read.obj
 0003:00000ac0       __fltused                  10029ac0     LIBCMT:fltused.obj
 0003:00000ad0       ??_R0?AVbad_alloc@std@@@8  10029ad0     LIBCMT:throw_bad_alloc.obj
 0003:00000aec       ??_R0?AVexception@std@@@8  10029aec     LIBCMT:throw_bad_alloc.obj
 0003:00000b08       ??_R0?AVbad_array_new_length@std@@@8 10029b08     LIBCMT:throw_bad_alloc.obj
 0003:00000b30       ??_R0?AVtype_info@@@8      10029b30     LIBCMT:std_type_info_static.obj
 0003:00000b48       ??_R0?AVbad_exception@std@@@8 10029b48     libvcruntime:frame.obj
 0003:00000b68       ?m_bInitFailed@CAtlBaseModule@ATL@@2_NA 10029b68     OposVariant.obj
 0003:00000b6c       ?_pPerfRegFunc@ATL@@3P6AJPAUHINSTANCE__@@@ZA 10029b6c     OposVariant.obj
 0003:00000b70       ?_pPerfUnRegFunc@ATL@@3P6AJXZA 10029b70     OposVariant.obj
 0003:00000b74       ?_AtlRegisterPerUser@ATL@@3_NA 10029b74     OposVariant.obj
 0003:00000b78       ?_pAtlModule@ATL@@3PAVCAtlModule@1@A 10029b78     OposVariant.obj
 0003:00000b7c       ?_pModule@ATL@@3PAVCComModule@1@A 10029b7c     OposVariant.obj
 0003:00000b80       ?_AtlComModule@ATL@@3VCAtlComModule@1@A 10029b80     OposVariant.obj
 0003:00000ba8       ?_AtlWinModule@ATL@@3VCAtlWinModule@1@A 10029ba8     OposVariant.obj
 0003:00000bd4       ?m_libid@CAtlModule@ATL@@2U_GUID@@A 10029bd4     CoinDispenser.obj
 0003:00000be4       ?_entries@?1??GetConnMap@COPOSCoinDispenser@@SAPBU_ATL_CONNMAP_ENTRY@ATL@@PAH@Z@4QBU34@B 10029be4     CoinDispenser.obj
 0003:00000bf0       ?$TSS0@?1??GetConnMap@COPOSCoinDispenser@@SAPBU_ATL_CONNMAP_ENTRY@ATL@@PAH@Z@4HA 10029bf0     CoinDispenser.obj
 0003:00000bf8       ?_OptionsStorage@?1??__local_stdio_printf_options@@9@4_KA 10029bf8     CoinDispenser.obj
 0003:00000c00       ?pfnRegDeleteKeyEx@?1??DeleteSubKey@CRegKey@ATL@@QAEJPB_W@Z@4P6GJPAUHKEY__@@0KK@ZA 10029c00     CoinDispenser.obj
 0003:00000c04       ?bInitialized@?1??DeleteSubKey@CRegKey@ATL@@QAEJPB_W@Z@4_NA 10029c04     CoinDispenser.obj
 0003:00000c08       ?_Module@@3VCComModule@ATL@@A 10029c08     CoinDispenser.obj
 0003:00000c38       ?pConnMap@?$IConnectionPointContainerImpl@VCOPOSCoinDispenser@@@ATL@@0PBU_ATL_CONNMAP_ENTRY@2@B 10029c38     CoinDispenser.obj
 0003:00000c3c       ?s_nInstances@COPOSCoinDispenser@@1HA 10029c3c     CoinDispenserImpl.obj
 0003:00000c40       ___scrt_current_native_startup_state 10029c40     LIBCMT:utility.obj
 0003:00000c44       ___scrt_native_startup_lock 10029c44     LIBCMT:utility.obj
 0003:00000fac       __tls_index                10029fac     LIBCMT:tlssup.obj
 0003:00000fb4       ___isa_available           10029fb4     LIBCMT:cpu_disp.obj
 0003:00000fb8       ___favor                   10029fb8     LIBCMT:cpu_disp.obj
 0003:00000fbc       ___scrt_debugger_hook_flag 10029fbc     LIBCMT:utility_desktop.obj
 0003:00000fc0       ?__type_info_root_node@@3U__type_info_node@@A 10029fc0     LIBCMT:tncleanup.obj
 0003:00000fc8       ?_OptionsStorage@?1??__local_stdio_scanf_options@@9@4_KA 10029fc8     LIBCMT:default_local_stdio_options.obj
 0003:00000fd0       ?_AtlBaseModule@ATL@@3VCAtlBaseModule@1@A 10029fd0     atls:atlbase.obj
 0003:00001008       ?__AtlThunkPool@@3PAT_SLIST_HEADER@@A 1002a008     atls:atlthunk.obj
 0003:00001020       ___@@_PchSym_@00@UztvmgUPdlipUEUhUrmgvinvwrzgvUexgllohUzgohOmzgrevkilqPBACIAJCBDBUlyqiUcIGUhgwzucOlyq@4B2008FD98C1DD4 1002a020     atls:stdafx.obj
 0003:00001024       ?__WinRTOutOfMemoryExceptionCallback@@3P6GPAXXZA 1002a024     libvcruntime:ehhelpers.obj
 0003:00001028       ___pPurecall               1002a028     libvcruntime:purevirt_data.obj
 0003:00001070       ?pArgList@UnDecorator@@0PAVReplicator@@A 1002a070     libvcruntime:undname.obj
 0003:00001074       ?pZNameList@UnDecorator@@0PAVReplicator@@A 1002a074     libvcruntime:undname.obj
 0003:00001078       ?pTemplateArgList@UnDecorator@@0PAVReplicator@@A 1002a078     libvcruntime:undname.obj
 0003:0000107c       ?gName@UnDecorator@@0PBDB  1002a07c     libvcruntime:undname.obj
 0003:00001080       ?name@UnDecorator@@0PBDB   1002a080     libvcruntime:undname.obj
 0003:00001084       ?disableFlags@UnDecorator@@0KA 1002a084     libvcruntime:undname.obj
 0003:00001088       ?fExplicitTemplateParams@UnDecorator@@0_NA 1002a088     libvcruntime:undname.obj
 0003:00001089       ?fGetTemplateArgumentList@UnDecorator@@0_NA 1002a089     libvcruntime:undname.obj
 0003:0000108c       ?m_pGetParameter@UnDecorator@@0P6APADJ@ZA 1002a08c     libvcruntime:undname.obj
 0003:00001090       ?m_CHPENameOffset@UnDecorator@@0KA 1002a090     libvcruntime:undname.obj
 0003:00001094       ?m_recursionLevel@UnDecorator@@0KA 1002a094     libvcruntime:undname.obj
 0003:000010d8       ?c_exit_complete@?1???R<lambda_6e4b09c48022b2350581041d5f6b0c4c>@@QBE@XZ@4_NA 1002a0d8     libucrt:exit.obj
 0003:000011e8       __environ_table            1002a1e8     libucrt:environment_initialization.obj
 0003:000011ec       __wenviron_table           1002a1ec     libucrt:environment_initialization.obj
 0003:000011f0       ___dcrt_initial_wide_environment 1002a1f0     libucrt:environment_initialization.obj
 0003:000011f4       ___dcrt_initial_narrow_environment 1002a1f4     libucrt:environment_initialization.obj
 0003:000011f8       ___acrt_atexit_table       1002a1f8     libucrt:onexit.obj
 0003:00001204       ___acrt_at_quick_exit_table 1002a204     libucrt:onexit.obj
 0003:000012f8       __nstream                  1002a2f8     libucrt:_file.obj
 0003:000012fc       ___piob                    1002a2fc     libucrt:_file.obj
 0003:00001304       ___acrt_stdout_buffer      1002a304     libucrt:_sftbuf.obj
 0003:00001308       ___acrt_stderr_buffer      1002a308     libucrt:_sftbuf.obj
 0003:0000130c       ___acrt_locale_changed_data 1002a30c     libucrt:wsetlocale.obj
 0003:00001310       ___acrt_current_locale_data 1002a310     libucrt:nlsdata.obj
 0003:00001318       ___pioinfo                 1002a318     libucrt:ioinit.obj
 0003:00001518       __nhandle                  1002a518     libucrt:ioinit.obj
 0003:00001674       __mbctype                  1002a674     libucrt:mbctype.obj
 0003:00001678       __mbcasemap                1002a678     libucrt:mbctype.obj
 0003:0000167c       ___acrt_current_multibyte_data 1002a67c     libucrt:mbctype.obj
 0003:00001688       __pgmptr                   1002a688     libucrt:argv_data.obj
 0003:0000168c       ___argc                    1002a68c     libucrt:argv_data.obj
 0003:00001690       ___argv                    1002a690     libucrt:argv_data.obj
 0003:00001694       ___wargv                   1002a694     libucrt:argv_data.obj
 0003:00001698       __acmdln                   1002a698     libucrt:argv_data.obj
 0003:0000169c       __wcmdln                   1002a69c     libucrt:argv_data.obj
 0003:000016a0       ___acrt_heap               1002a6a0     libucrt:heap_handle.obj
 0003:000016bc       ___acrt_lconv_static_null  1002a6bc     libucrt:localeconv.obj
 0003:000016c0       ___acrt_lconv_static_W_null 1002a6c0     libucrt:localeconv.obj
 0003:000016d0       ___fastflag                1002a6d0     libucrt:fp_flags.obj
 0003:000016d8       ___dyn_tls_init_callback   1002a6d8     <common>
 0003:000016dc       ___scrt_ucrt_dll_is_in_use 1002a6dc     <common>
 0003:000016e0       __pmatherr                 1002a6e0     <common>
 0003:000016e4       ___use_sse2_mathfcns       1002a6e4     <common>

 entry point at        0001:0000ba3d

 Static symbols

 0000:fffcf000       .debug$S                   10000000     OPOSCoinDispenser.exp
 0000:fffcf000       .debug$S                   10000000     advapi32:ADVAPI32.dll
 0000:fffcf000       .debug$S                   10000000     advapi32:ADVAPI32.dll
 0000:fffcf000       .debug$S                   10000000     advapi32:ADVAPI32.dll
 0000:fffcf000       .debug$S                   10000000     advapi32:ADVAPI32.dll
 0000:fffcf000       .debug$S                   10000000     advapi32:ADVAPI32.dll
 0000:fffcf000       .debug$S                   10000000     advapi32:ADVAPI32.dll
 0000:fffcf000       .debug$S                   10000000     advapi32:ADVAPI32.dll
 0000:fffcf000       .debug$S                   10000000     advapi32:ADVAPI32.dll
 0000:fffcf000       .debug$S                   10000000     advapi32:ADVAPI32.dll
 0000:fffcf000       .debug$S                   10000000     gdi32:GDI32.dll
 0000:fffcf000       .debug$S                   10000000     gdi32:GDI32.dll
 0000:fffcf000       .debug$S                   10000000     gdi32:GDI32.dll
 0000:fffcf000       .debug$S                   10000000     gdi32:GDI32.dll
 0000:fffcf000       .debug$S                   10000000     gdi32:GDI32.dll
 0000:fffcf000       .debug$S                   10000000     gdi32:GDI32.dll
 0000:fffcf000       .debug$S                   10000000     gdi32:GDI32.dll
 0000:fffcf000       .debug$S                   10000000     gdi32:GDI32.dll
 0000:fffcf000       .debug$S                   10000000     gdi32:GDI32.dll
 0000:fffcf000       .debug$S                   10000000     gdi32:GDI32.dll
 0000:fffcf000       .debug$S                   10000000     gdi32:GDI32.dll
 0000:fffcf000       .debug$S                   10000000     gdi32:GDI32.dll
 0000:fffcf000       .debug$S                   10000000     gdi32:GDI32.dll
 0000:fffcf000       .debug$S                   10000000     gdi32:GDI32.dll
 0000:fffcf000       .debug$S                   10000000     gdi32:GDI32.dll
 0000:fffcf000       .debug$S                   10000000     gdi32:GDI32.dll
 0000:fffcf000       .debug$S                   10000000     gdi32:GDI32.dll
 0000:fffcf000       .debug$S                   10000000     gdi32:GDI32.dll
 0000:fffcf000       .debug$S                   10000000     gdi32:GDI32.dll
 0000:fffcf000       .debug$S                   10000000     kernel32:KERNEL32.dll
 0000:fffcf000       .debug$S                   10000000     kernel32:KERNEL32.dll
 0000:fffcf000       .debug$S                   10000000     kernel32:KERNEL32.dll
 0000:fffcf000       .debug$S                   10000000     kernel32:KERNEL32.dll
 0000:fffcf000       .debug$S                   10000000     kernel32:KERNEL32.dll
 0000:fffcf000       .debug$S                   10000000     kernel32:KERNEL32.dll
 0000:fffcf000       .debug$S                   10000000     kernel32:KERNEL32.dll
 0000:fffcf000       .debug$S                   10000000     kernel32:KERNEL32.dll
 0000:fffcf000       .debug$S                   10000000     kernel32:KERNEL32.dll
 0000:fffcf000       .debug$S                   10000000     kernel32:KERNEL32.dll
 0000:fffcf000       .debug$S                   10000000     kernel32:KERNEL32.dll
 0000:fffcf000       .debug$S                   10000000     kernel32:KERNEL32.dll
 0000:fffcf000       .debug$S                   10000000     kernel32:KERNEL32.dll
 0000:fffcf000       .debug$S                   10000000     kernel32:KERNEL32.dll
 0000:fffcf000       .debug$S                   10000000     kernel32:KERNEL32.dll
 0000:fffcf000       .debug$S                   10000000     kernel32:KERNEL32.dll
 0000:fffcf000       .debug$S                   10000000     kernel32:KERNEL32.dll
 0000:fffcf000       .debug$S                   10000000     kernel32:KERNEL32.dll
 0000:fffcf000       .debug$S                   10000000     kernel32:KERNEL32.dll
 0000:fffcf000       .debug$S                   10000000     kernel32:KERNEL32.dll
 0000:fffcf000       .debug$S                   10000000     kernel32:KERNEL32.dll
 0000:fffcf000       .debug$S                   10000000     kernel32:KERNEL32.dll
 0000:fffcf000       .debug$S                   10000000     kernel32:KERNEL32.dll
 0000:fffcf000       .debug$S                   10000000     kernel32:KERNEL32.dll
 0000:fffcf000       .debug$S                   10000000     kernel32:KERNEL32.dll
 0000:fffcf000       .debug$S                   10000000     kernel32:KERNEL32.dll
 0000:fffcf000       .debug$S                   10000000     kernel32:KERNEL32.dll
 0000:fffcf000       .debug$S                   10000000     kernel32:KERNEL32.dll
 0000:fffcf000       .debug$S                   10000000     kernel32:KERNEL32.dll
 0000:fffcf000       .debug$S                   10000000     kernel32:KERNEL32.dll
 0000:fffcf000       .debug$S                   10000000     kernel32:KERNEL32.dll
 0000:fffcf000       .debug$S                   10000000     kernel32:KERNEL32.dll
 0000:fffcf000       .debug$S                   10000000     kernel32:KERNEL32.dll
 0000:fffcf000       .debug$S                   10000000     kernel32:KERNEL32.dll
 0000:fffcf000       .debug$S                   10000000     kernel32:KERNEL32.dll
 0000:fffcf000       .debug$S                   10000000     kernel32:KERNEL32.dll
 0000:fffcf000       .debug$S                   10000000     kernel32:KERNEL32.dll
 0000:fffcf000       .debug$S                   10000000     kernel32:KERNEL32.dll
 0000:fffcf000       .debug$S                   10000000     kernel32:KERNEL32.dll
 0000:fffcf000       .debug$S                   10000000     kernel32:KERNEL32.dll
 0000:fffcf000       .debug$S                   10000000     kernel32:KERNEL32.dll
 0000:fffcf000       .debug$S                   10000000     kernel32:KERNEL32.dll
 0000:fffcf000       .debug$S                   10000000     kernel32:KERNEL32.dll
 0000:fffcf000       .debug$S                   10000000     kernel32:KERNEL32.dll
 0000:fffcf000       .debug$S                   10000000     kernel32:KERNEL32.dll
 0000:fffcf000       .debug$S                   10000000     kernel32:KERNEL32.dll
 0000:fffcf000       .debug$S                   10000000     kernel32:KERNEL32.dll
 0000:fffcf000       .debug$S                   10000000     kernel32:KERNEL32.dll
 0000:fffcf000       .debug$S                   10000000     kernel32:KERNEL32.dll
 0000:fffcf000       .debug$S                   10000000     kernel32:KERNEL32.dll
 0000:fffcf000       .debug$S                   10000000     kernel32:KERNEL32.dll
 0000:fffcf000       .debug$S                   10000000     kernel32:KERNEL32.dll
 0000:fffcf000       .debug$S                   10000000     kernel32:KERNEL32.dll
 0000:fffcf000       .debug$S                   10000000     kernel32:KERNEL32.dll
 0000:fffcf000       .debug$S                   10000000     kernel32:KERNEL32.dll
 0000:fffcf000       .debug$S                   10000000     kernel32:KERNEL32.dll
 0000:fffcf000       .debug$S                   10000000     kernel32:KERNEL32.dll
 0000:fffcf000       .debug$S                   10000000     kernel32:KERNEL32.dll
 0000:fffcf000       .debug$S                   10000000     kernel32:KERNEL32.dll
 0000:fffcf000       .debug$S                   10000000     kernel32:KERNEL32.dll
 0000:fffcf000       .debug$S                   10000000     kernel32:KERNEL32.dll
 0000:fffcf000       .debug$S                   10000000     kernel32:KERNEL32.dll
 0000:fffcf000       .debug$S                   10000000     kernel32:KERNEL32.dll
 0000:fffcf000       .debug$S                   10000000     kernel32:KERNEL32.dll
 0000:fffcf000       .debug$S                   10000000     kernel32:KERNEL32.dll
 0000:fffcf000       .debug$S                   10000000     kernel32:KERNEL32.dll
 0000:fffcf000       .debug$S                   10000000     kernel32:KERNEL32.dll
 0000:fffcf000       .debug$S                   10000000     kernel32:KERNEL32.dll
 0000:fffcf000       .debug$S                   10000000     kernel32:KERNEL32.dll
 0000:fffcf000       .debug$S                   10000000     kernel32:KERNEL32.dll
 0000:fffcf000       .debug$S                   10000000     kernel32:KERNEL32.dll
 0000:fffcf000       .debug$S                   10000000     kernel32:KERNEL32.dll
 0000:fffcf000       .debug$S                   10000000     kernel32:KERNEL32.dll
 0000:fffcf000       .debug$S                   10000000     kernel32:KERNEL32.dll
 0000:fffcf000       .debug$S                   10000000     kernel32:KERNEL32.dll
 0000:fffcf000       .debug$S                   10000000     kernel32:KERNEL32.dll
 0000:fffcf000       .debug$S                   10000000     kernel32:KERNEL32.dll
 0000:fffcf000       .debug$S                   10000000     kernel32:KERNEL32.dll
 0000:fffcf000       .debug$S                   10000000     kernel32:KERNEL32.dll
 0000:fffcf000       .debug$S                   10000000     kernel32:KERNEL32.dll
 0000:fffcf000       .debug$S                   10000000     kernel32:KERNEL32.dll
 0000:fffcf000       .debug$S                   10000000     kernel32:KERNEL32.dll
 0000:fffcf000       .debug$S                   10000000     kernel32:KERNEL32.dll
 0000:fffcf000       .debug$S                   10000000     kernel32:KERNEL32.dll
 0000:fffcf000       .debug$S                   10000000     kernel32:KERNEL32.dll
 0000:fffcf000       .debug$S                   10000000     kernel32:KERNEL32.dll
 0000:fffcf000       .debug$S                   10000000     kernel32:KERNEL32.dll
 0000:fffcf000       .debug$S                   10000000     kernel32:KERNEL32.dll
 0000:fffcf000       .debug$S                   10000000     kernel32:KERNEL32.dll
 0000:fffcf000       .debug$S                   10000000     kernel32:KERNEL32.dll
 0000:fffcf000       .debug$S                   10000000     kernel32:KERNEL32.dll
 0000:fffcf000       .debug$S                   10000000     kernel32:KERNEL32.dll
 0000:fffcf000       .debug$S                   10000000     kernel32:KERNEL32.dll
 0000:fffcf000       .debug$S                   10000000     kernel32:KERNEL32.dll
 0000:fffcf000       .debug$S                   10000000     kernel32:KERNEL32.dll
 0000:fffcf000       .debug$S                   10000000     kernel32:KERNEL32.dll
 0000:fffcf000       .debug$S                   10000000     kernel32:KERNEL32.dll
 0000:fffcf000       .debug$S                   10000000     kernel32:KERNEL32.dll
 0000:fffcf000       .debug$S                   10000000     kernel32:KERNEL32.dll
 0000:fffcf000       .debug$S                   10000000     kernel32:KERNEL32.dll
 0000:fffcf000       .debug$S                   10000000     kernel32:KERNEL32.dll
 0000:fffcf000       .debug$S                   10000000     kernel32:KERNEL32.dll
 0000:fffcf000       .debug$S                   10000000     kernel32:KERNEL32.dll
 0000:fffcf000       .debug$S                   10000000     kernel32:KERNEL32.dll
 0000:fffcf000       .debug$S                   10000000     kernel32:KERNEL32.dll
 0000:fffcf000       .debug$S                   10000000     kernel32:KERNEL32.dll
 0000:fffcf000       .debug$S                   10000000     ole32:ole32.dll
 0000:fffcf000       .debug$S                   10000000     ole32:ole32.dll
 0000:fffcf000       .debug$S                   10000000     ole32:ole32.dll
 0000:fffcf000       .debug$S                   10000000     ole32:ole32.dll
 0000:fffcf000       .debug$S                   10000000     ole32:ole32.dll
 0000:fffcf000       .debug$S                   10000000     ole32:ole32.dll
 0000:fffcf000       .debug$S                   10000000     ole32:ole32.dll
 0000:fffcf000       .debug$S                   10000000     ole32:ole32.dll
 0000:fffcf000       .debug$S                   10000000     ole32:ole32.dll
 0000:fffcf000       .debug$S                   10000000     ole32:ole32.dll
 0000:fffcf000       .debug$S                   10000000     ole32:ole32.dll
 0000:fffcf000       .debug$S                   10000000     ole32:ole32.dll
 0000:fffcf000       .debug$S                   10000000     ole32:ole32.dll
 0000:fffcf000       .debug$S                   10000000     ole32:ole32.dll
 0000:fffcf000       .debug$S                   10000000     oleaut32:OLEAUT32.dll
 0000:fffcf000       .debug$S                   10000000     oleaut32:OLEAUT32.dll
 0000:fffcf000       .debug$S                   10000000     oleaut32:OLEAUT32.dll
 0000:fffcf000       .debug$S                   10000000     oleaut32:OLEAUT32.dll
 0000:fffcf000       .debug$S                   10000000     oleaut32:OLEAUT32.dll
 0000:fffcf000       .debug$S                   10000000     oleaut32:OLEAUT32.dll
 0000:fffcf000       .debug$S                   10000000     oleaut32:OLEAUT32.dll
 0000:fffcf000       .debug$S                   10000000     oleaut32:OLEAUT32.dll
 0000:fffcf000       .debug$S                   10000000     oleaut32:OLEAUT32.dll
 0000:fffcf000       .debug$S                   10000000     oleaut32:OLEAUT32.dll
 0000:fffcf000       .debug$S                   10000000     oleaut32:OLEAUT32.dll
 0000:fffcf000       .debug$S                   10000000     oleaut32:OLEAUT32.dll
 0000:fffcf000       .debug$S                   10000000     oleaut32:OLEAUT32.dll
 0000:fffcf000       .debug$S                   10000000     oleaut32:OLEAUT32.dll
 0000:fffcf000       .debug$S                   10000000     oleaut32:OLEAUT32.dll
 0000:fffcf000       .debug$S                   10000000     oleaut32:OLEAUT32.dll
 0000:fffcf000       .debug$S                   10000000     user32:USER32.dll
 0000:fffcf000       .debug$S                   10000000     user32:USER32.dll
 0000:fffcf000       .debug$S                   10000000     user32:USER32.dll
 0000:fffcf000       .debug$S                   10000000     user32:USER32.dll
 0000:fffcf000       .debug$S                   10000000     user32:USER32.dll
 0000:fffcf000       .debug$S                   10000000     user32:USER32.dll
 0000:fffcf000       .debug$S                   10000000     user32:USER32.dll
 0000:fffcf000       .debug$S                   10000000     user32:USER32.dll
 0000:fffcf000       .debug$S                   10000000     user32:USER32.dll
 0000:fffcf000       .debug$S                   10000000     user32:USER32.dll
 0000:fffcf000       .debug$S                   10000000     user32:USER32.dll
 0000:fffcf000       .debug$S                   10000000     user32:USER32.dll
 0000:fffcf000       .debug$S                   10000000     user32:USER32.dll
 0000:fffcf000       .debug$S                   10000000     user32:USER32.dll
 0000:fffcf000       .debug$S                   10000000     user32:USER32.dll
 0000:fffcf000       .debug$S                   10000000     user32:USER32.dll
 0000:fffcf000       .debug$S                   10000000     user32:USER32.dll
 0000:fffcf000       .debug$S                   10000000     user32:USER32.dll
 0000:fffcf000       .debug$S                   10000000     user32:USER32.dll
 0000:fffcf000       .debug$S                   10000000     user32:USER32.dll
 0000:fffcf000       .debug$S                   10000000     user32:USER32.dll
 0000:fffcf000       .debug$S                   10000000     user32:USER32.dll
 0000:fffcf000       .debug$S                   10000000     user32:USER32.dll
 0000:fffcf000       .debug$S                   10000000     user32:USER32.dll
 0000:fffcf000       .debug$S                   10000000     user32:USER32.dll
 0000:fffcf000       .debug$S                   10000000     user32:USER32.dll
 0000:fffcf000       .debug$S                   10000000     user32:USER32.dll
 0000:fffcf000       .debug$S                   10000000     user32:USER32.dll
 0000:fffcf000       .debug$S                   10000000     user32:USER32.dll
 0000:fffcf000       .debug$S                   10000000     user32:USER32.dll
 0000:fffcf000       .debug$S                   10000000     user32:USER32.dll
 0000:fffcf000       .debug$S                   10000000     user32:USER32.dll
 0000:fffcf000       .debug$S                   10000000     user32:USER32.dll
 0000:fffcf000       .debug$S                   10000000     user32:USER32.dll
 0000:fffcf000       .debug$S                   10000000     user32:USER32.dll
 0001:00000000       ??__E_AtlComModule@ATL@@YAXXZ 10001000 f   OposVariant.obj
 0001:00000016       ??__E_AtlWinModule@ATL@@YAXXZ 10001016 f   OposVariant.obj
 0001:0000002c       ??__E?pConnMap@?$IConnectionPointContainerImpl@VCOPOSCoinDispenser@@@ATL@@0PBU_ATL_CONNMAP_ENTRY@2@B@@YAXXZ 1000102c f   CoinDispenser.obj
 0001:0000003a       ??__E_Module@@YAXXZ        1000103a f   CoinDispenser.obj
 0001:00000064       ??__E_AtlBaseModule@ATL@@YAXXZ 10001064 f   atls:atlbase.obj
 0001:00000c47       $LN24                      10001c47     CoinDispenser.obj
 0001:000056ea       $LN48                      100066ea     CoinDispenser.obj
 0001:00005702       $LN47                      10006702     CoinDispenser.obj
 0001:000078af       $LN38                      100088af     CoinDispenser.obj
 0001:000078c7       $LN37                      100088c7     CoinDispenser.obj
 0001:00008fb7       $LN76                      10009fb7     CoinDispenser.obj
 0001:00008fcf       $LN75                      10009fcf     CoinDispenser.obj
 0001:00009388       _memcpy_s                  1000a388 f   CoinDispenser.obj
 0001:0000aece       ?find_pe_section@@YAPAU_IMAGE_SECTION_HEADER@@QAEI@Z 1000bece f   LIBCMT:utility.obj
 0001:0000b1ed       ?__scrt_initialize_thread_safe_statics@@YAHXZ 1000c1ed f   LIBCMT:thread_safe_statics.obj
 0001:0000b214       ?__scrt_initialize_thread_safe_statics_platform_specific@@YAXXZ 1000c214 f   LIBCMT:thread_safe_statics.obj
 0001:0000b296       ?__scrt_uninitialize_thread_safe_statics@@YAXXZ 1000c296 f   LIBCMT:thread_safe_statics.obj
 0001:0000b605       __catch$??2@YAPAXIABUnothrow_t@std@@@Z$0 1000c605 f   LIBCMT:new_scalar_nothrow.obj
 0001:0000b640       $$000000                   1000c640     LIBCMT:sehprolg4gs.obj
 0001:0000b6a0       $$000000                   1000c6a0     LIBCMT:alloca16.obj
 0001:0000b6d0       $$000000                   1000c6d0     LIBCMT:chkstk.obj
 0001:0000b6fd       ?dllmain_crt_dispatch@@YGHQAUHINSTANCE__@@KQAX@Z 1000c6fd f   LIBCMT:dll_dllmain.obj
 0001:0000b750       ?dllmain_crt_process_attach@@YAHQAUHINSTANCE__@@QAX@Z 1000c750 f   LIBCMT:dll_dllmain.obj
 0001:0000b857       ?dllmain_crt_process_detach@@YAH_N@Z 1000c857 f   LIBCMT:dll_dllmain.obj
 0001:0000b907       ?dllmain_dispatch@@YAHQAUHINSTANCE__@@KQAX@Z 1000c907 f   LIBCMT:dll_dllmain.obj
 0001:0000ba12       ?dllmain_raw@@YGHQAUHINSTANCE__@@KQAX@Z 1000ca12 f   LIBCMT:dll_dllmain.obj
 0001:0000bd90       $$000000                   1000cd90     LIBCMT:sehprolg4.obj
 0001:0000bdec       ___get_entropy             1000cdec f   LIBCMT:gs_support.obj
 0001:0000c0e3       ??$GetProcAddressAll@P6GP6GJPAUHWND__@@IIJ@ZPAUAtlThunkData_t@@@Z@@YAP6GP6GJPAUHWND__@@IIJ@ZPAUAtlThunkData_t@@@ZPAP6GP6GJ0IIJ@Z1@Z@Z 1000d0e3 f   atls:atlthunk.obj
 0001:0000c0e3       ??$GetProcAddressAll@P6GPAUAtlThunkData_t@@XZ@@YAP6GPAUAtlThunkData_t@@XZPAP6GPAU0@XZ@Z 1000d0e3 f   atls:atlthunk.obj
 0001:0000c0e3       ??$GetProcAddressAll@P6GXPAUAtlThunkData_t@@@Z@@YAP6GXPAUAtlThunkData_t@@@ZPAP6GX0@Z@Z 1000d0e3 f   atls:atlthunk.obj
 0001:0000c0e3       ??$GetProcAddressAll@P6GXPAUAtlThunkData_t@@PAXI@Z@@YAP6GXPAUAtlThunkData_t@@PAXI@ZPAP6GX01I@Z@Z 1000d0e3 f   atls:atlthunk.obj
 0001:0000c193       ?GetProcAddressSingle@@YA_NPAUHINSTANCE__@@PBDPAPAX@Z 1000d193 f   atls:atlthunk.obj
 0001:0000c2e5       ?__InitializeThunkPool@@YAHXZ 1000d2e5 f   atls:atlthunk.obj
 0001:0000c730       _ValidateLocalCookies      1000d730 f   libvcruntime:chandler4.obj
 0001:0000d75a       $LN1250                    1000e75a     libvcruntime:memcmp.obj
 0001:0000d7e0       $$000000                   1000e7e0     libvcruntime:memcpy.obj
 0001:0000da44       TrailingUpVec              1000ea44     libvcruntime:memcpy.obj
 0001:0000daf0       TrailingDownVec            1000eaf0     libvcruntime:memcpy.obj
 0001:0000dd60       $$000000                   1000ed60     libvcruntime:memset.obj
 0001:0000e363       ?_FilterSetCurrentException@@YAKPAU_EXCEPTION_POINTERS@@E@Z 1000f363 f   libvcruntime:ehhelpers.obj
 0001:0000e5b0       $$000000                   1000f5b0     libvcruntime:memmove.obj
 0001:0000e814       TrailingUpVec              1000f814     libvcruntime:memmove.obj
 0001:0000e8c0       TrailingDownVec            1000f8c0     libvcruntime:memmove.obj
 0001:0000eb30       $$000000                   1000fb30     libvcruntime:exsup4.obj
 0001:0000ebc0       __unwind_handler4          1000fbc0 f   libvcruntime:exsup4.obj
 0001:0000ee9f       ??$BuildCatchObjectHelperInternal@V__FrameHandler3@@@@YAHPAUEHExceptionRecord@@PAXPBU_s_HandlerType@@PBU_s_CatchableType@@@Z 1000fe9f f   libvcruntime:frame.obj
 0001:0000efdd       ??$BuildCatchObjectInternal@V__FrameHandler3@@@@YAXPAUEHExceptionRecord@@PAXPBU_s_HandlerType@@PBU_s_CatchableType@@@Z 1000ffdd f   libvcruntime:frame.obj
 0001:0000f076       ??$CatchIt@V__FrameHandler3@@@@YAXPAUEHExceptionRecord@@PAUEHRegistrationNode@@PAU_CONTEXT@@PAXPBU_s_FuncInfo@@PBU_s_HandlerType@@PBU_s_CatchableType@@PBU_s_TryBlockMapEntry@@H1EE@Z 10010076 f   libvcruntime:frame.obj
 0001:0000f0f6       ??$FindHandler@V__FrameHandler3@@@@YAXPAUEHExceptionRecord@@PAUEHRegistrationNode@@PAU_CONTEXT@@PAXPBU_s_FuncInfo@@EH1@Z 100100f6 f   libvcruntime:frame.obj
 0001:0000f4ac       ??$FindHandlerForForeignException@V__FrameHandler3@@@@YAXPAUEHExceptionRecord@@PAUEHRegistrationNode@@PAU_CONTEXT@@PAXPBU_s_FuncInfo@@HH1@Z 100104ac f   libvcruntime:frame.obj
 0001:0000f7c4       ?CallCatchBlock@@YAPAXPAUEHExceptionRecord@@PAUEHRegistrationNode@@PAU_CONTEXT@@PBU_s_FuncInfo@@PAXHK@Z 100107c4 f   libvcruntime:frame.obj
 0001:0000f988       ?CallUnexpected@@YAXPBU_s_ESTypeList@@@Z 10010988 f   libvcruntime:frame.obj
 0001:0000f9a8       __catch$?CallUnexpected@@YAXPBU_s_ESTypeList@@@Z$0 100109a8 f   libvcruntime:frame.obj
 0001:0000f9c2       ?ExFilterRethrow@@YAHPAU_EXCEPTION_POINTERS@@@Z 100109c2 f   libvcruntime:frame.obj
 0001:0000fb0c       ?IsInExceptionSpec@@YAEPAUEHExceptionRecord@@PBU_s_ESTypeList@@@Z 10010b0c f   libvcruntime:frame.obj
 0001:0000fbe0       $$000000                   10010be0     libvcruntime:lowhelpr.obj
 0001:0000fc30       $$000000                   10010c30     libvcruntime:exsup.obj
 0001:0000fc51       __unwind_handler           10010c51 f   libvcruntime:exsup.obj
 0001:0000fd6e       ?try_get_first_available_module@@YAPAUHINSTANCE__@@QBW4module_id@?A0x9d0f8d90@@0@Z 10010d6e f   libvcruntime:winapi_downlevel.obj
 0001:0000fe08       ?try_get_function@@YAPAXW4function_id@?A0x9d0f8d90@@QBDQBW4module_id@2@2@Z 10010e08 f   libvcruntime:winapi_downlevel.obj
 0001:00010492       ??$common_tcsncpy_s@_W@@YAHQA_WIQB_WI@Z 10011492 f   libucrt:wcsncpy_s.obj
 0001:00010568       ??$common_vsprintf@Vformat_validation_base@__crt_stdio_output@@_W@@YAH_KQA_WIQB_WQAU__crt_locale_pointers@@QAD@Z 10011568 f   libucrt:output.obj
 0001:000106ef       ??$common_vsprintf_s@_W@@YAH_KQA_WIQB_WQAU__crt_locale_pointers@@QAD@Z 100116ef f   libucrt:output.obj
 0001:00010e53       $LN48                      10011e53     libucrt:output.obj
 0001:0001135c       $LN18                      1001235c     libucrt:output.obj
 0001:00011370       $LN17                      10012370     libucrt:output.obj
 0001:00011bcb       ??$?RV<lambda_03b1d95aef87969028cfba75ccab2455>@@AAV<lambda_6e4b09c48022b2350581041d5f6b0c4c>@@V<lambda_22bdf7517842c4b3e53723af5aa32b9e>@@@?$__crt_seh_guarded_call@X@@QAEX$$QAV<lambda_03b1d95aef87969028cfba75ccab2455>@@AAV<lambda_6e4b09c48022b2350581041d5f6b0c4c>@@$$QAV<lambda_22bdf7517842c4b3e53723af5aa32b9e>@@@Z 10012bcb f   libucrt:exit.obj
 0001:00011c18       ??R<lambda_6e4b09c48022b2350581041d5f6b0c4c>@@QBE@XZ 10012c18 f   libucrt:exit.obj
 0001:00011cf2       ?atexit_exception_filter@@YAHK@Z 10012cf2 f   libucrt:exit.obj
 0001:00011d05       ?common_exit@@YAXHW4_crt_exit_cleanup_mode@@W4_crt_exit_return_mode@@@Z 10012d05 f   libucrt:exit.obj
 0001:00011d69       ?exit_or_terminate_process@@YAXI@Z 10012d69 f   libucrt:exit.obj
 0001:00011dab       ?is_managed_app@@YA_NXZ    10012dab f   libucrt:exit.obj
 0001:00011dee       ?try_cor_exit_process@@YAXI@Z 10012dee f   libucrt:exit.obj
 0001:00011e7c       ??$common_configure_argv@D@@YAHW4_crt_argv_mode@@@Z 10012e7c f   libucrt:argv_parsing.obj
 0001:00011fb2       ??$parse_command_line@D@@YAXPADPAPAD0PAI2@Z 10012fb2 f   libucrt:argv_parsing.obj
 0001:00012180       ??$common_initialize_environment_nolock@D@@YAHXZ 10013180 f   libucrt:environment_initialization.obj
 0001:000121d3       ??$create_environment@D@@YAQAPADQAD@Z 100131d3 f   libucrt:environment_initialization.obj
 0001:000122a3       ??$free_environment@D@@YAXQAPAD@Z 100132a3 f   libucrt:environment_initialization.obj
 0001:000122a3       ??$free_environment@_W@@YAXQAPA_W@Z 100132a3 f   libucrt:environment_initialization.obj
 0001:000122fb       ??$uninitialize_environment_internal@D@@YAXAAPAPAD@Z 100132fb f   libucrt:environment_initialization.obj
 0001:00012316       ??$uninitialize_environment_internal@_W@@YAXAAPAPA_W@Z 10013316 f   libucrt:environment_initialization.obj
 0001:0001236d       ??$?RV<lambda_69a2805e680e0e292e8ba93315fe43a8>@@AAV<lambda_f03950bc5685219e0bcd2087efbe011e>@@V<lambda_03fcd07e894ec930e3f35da366ca99d6>@@@?$__crt_seh_guarded_call@H@@QAEH$$QAV<lambda_69a2805e680e0e292e8ba93315fe43a8>@@AAV<lambda_f03950bc5685219e0bcd2087efbe011e>@@$$QAV<lambda_03fcd07e894ec930e3f35da366ca99d6>@@@Z 1001336d f   libucrt:onexit.obj
 0001:000123c8       ??$?RV<lambda_8e746cf0007f6ed984d6f78af1fec997>@@AAV<lambda_22ebabd17bc4fa466a2aca6d8deb888d>@@V<lambda_18ed0c0b38a6dc0daf1e7ac6d6adf05e>@@@?$__crt_seh_guarded_call@H@@QAEH$$QAV<lambda_8e746cf0007f6ed984d6f78af1fec997>@@AAV<lambda_22ebabd17bc4fa466a2aca6d8deb888d>@@$$QAV<lambda_18ed0c0b38a6dc0daf1e7ac6d6adf05e>@@@Z 100133c8 f   libucrt:onexit.obj
 0001:00012442       ??R<lambda_22ebabd17bc4fa466a2aca6d8deb888d>@@QBEHXZ 10013442 f   libucrt:onexit.obj
 0001:0001256b       ??R<lambda_f03950bc5685219e0bcd2087efbe011e>@@QBEHXZ 1001356b f   libucrt:onexit.obj
 0001:000126e4       _initialize_global_variables 100136e4 f   libucrt:initialization.obj
 0001:000126f1       _initialize_c              100136f1 f   libucrt:initialization.obj
 0001:0001270b       _initialize_environment    1001370b f   libucrt:initialization.obj
 0001:0001270b       _initialize_global_state_isolation 1001370b f   libucrt:initialization.obj
 0001:0001270b       _report_memory_leaks       1001370b f   libucrt:initialization.obj
 0001:0001270b       _uninitialize_c            1001370b f   libucrt:initialization.obj
 0001:0001270b       _uninitialize_global_state_isolation 1001370b f   libucrt:initialization.obj
 0001:0001270e       _uninitialize_environment  1001370e f   libucrt:initialization.obj
 0001:00012716       _initialize_pointers       10013716 f   libucrt:initialization.obj
 0001:00012744       _uninitialize_vcruntime    10013744 f   libucrt:initialization.obj
 0001:0001274d       _uninitialize_allocated_memory 1001374d f   libucrt:initialization.obj
 0001:00012764       _uninitialize_allocated_io_buffers 10013764 f   libucrt:initialization.obj
 0001:000127b4       ??R<lambda_af42a3ee9806e9a7305d451646e05244>@@QBEXAAPAU__crt_multibyte_data@@@Z 100137b4 f   libucrt:initialization.obj
 0001:000130a0       $$000000                   100140a0     libucrt:strncmp.obj
 0001:0001318c       ??$?RV<lambda_15ade71b0218206bbe3333a0c9b79046>@@AAV<lambda_da44e0f8b0f19ba52fefafb335991732>@@V<lambda_207f2d024fc103971653565357d6cd41>@@@?$__crt_seh_guarded_call@X@@QAEX$$QAV<lambda_15ade71b0218206bbe3333a0c9b79046>@@AAV<lambda_da44e0f8b0f19ba52fefafb335991732>@@$$QAV<lambda_207f2d024fc103971653565357d6cd41>@@@Z 1001418c f   libucrt:per_thread_data.obj
 0001:000131de       ??$?RV<lambda_38edbb1296d33220d7e4dd0ed76b244a>@@AAV<lambda_5ce1d447e08cb34b2473517608e21441>@@V<lambda_fb385d3da700c9147fc39e65dd577a8c>@@@?$__crt_seh_guarded_call@X@@QAEX$$QAV<lambda_38edbb1296d33220d7e4dd0ed76b244a>@@AAV<lambda_5ce1d447e08cb34b2473517608e21441>@@$$QAV<lambda_fb385d3da700c9147fc39e65dd577a8c>@@@Z 100141de f   libucrt:per_thread_data.obj
 0001:00013249       ??$?RV<lambda_6affb1475c98b40b75cdec977db92e3c>@@AAV<lambda_b8d4b9c228a6ecc3f80208dbb4b4a104>@@V<lambda_608742c3c92a14382c1684fc64f96c88>@@@?$__crt_seh_guarded_call@X@@QAEX$$QAV<lambda_6affb1475c98b40b75cdec977db92e3c>@@AAV<lambda_b8d4b9c228a6ecc3f80208dbb4b4a104>@@$$QAV<lambda_608742c3c92a14382c1684fc64f96c88>@@@Z 10014249 f   libucrt:per_thread_data.obj
 0001:0001329e       ??$?RV<lambda_a7e850c220f1c8d1e6efeecdedd162c6>@@AAV<lambda_46720907175c18b6c9d2717bc0d2d362>@@V<lambda_9048902d66e8d99359bc9897bbb930a8>@@@?$__crt_seh_guarded_call@X@@QAEX$$QAV<lambda_a7e850c220f1c8d1e6efeecdedd162c6>@@AAV<lambda_46720907175c18b6c9d2717bc0d2d362>@@$$QAV<lambda_9048902d66e8d99359bc9897bbb930a8>@@@Z 1001429e f   libucrt:per_thread_data.obj
 0001:000132f8       ?construct_ptd@@YAXQAU__acrt_ptd@@QAPAU__crt_locale_data@@@Z 100142f8 f   libucrt:per_thread_data.obj
 0001:00013391       ?destroy_fls@@YGXPAX@Z     10014391 f   libucrt:per_thread_data.obj
 0001:000133b2       ?destroy_ptd@@YAXQAU__acrt_ptd@@@Z 100143b2 f   libucrt:per_thread_data.obj
 0001:0001347f       ?replace_current_thread_locale_nolock@@YAXQAU__acrt_ptd@@QAU__crt_locale_data@@@Z 1001447f f   libucrt:per_thread_data.obj
 0001:0001388f       ?try_get_AreFileApisANSI@@YAP6GHXZXZ 1001488f f   libucrt:winapi_thunks.obj
 0001:000138a9       ?try_get_LCMapStringEx@@YAP6GHPB_WK0HPA_WHPAU_nlsversioninfo@@PAXJ@ZXZ 100148a9 f   libucrt:winapi_thunks.obj
 0001:000138c3       ?try_get_LocaleNameToLCID@@YAP6GKPB_WK@ZXZ 100148c3 f   libucrt:winapi_thunks.obj
 0001:000138dd       ?try_get_first_available_module@@YAPAUHINSTANCE__@@QBW4module_id@?A0x391cf84c@@0@Z 100148dd f   libucrt:winapi_thunks.obj
 0001:000139a4       ?try_get_function@@YAPAXW4function_id@?A0x391cf84c@@QBDQBW4module_id@2@2@Z 100149a4 f   libucrt:winapi_thunks.obj
 0001:00014107       ?fe_to_nearest@@YA_NQBN_KF@Z 10015107 f   libucrt:cvt.obj
 0001:000141aa       ?fp_format_a@@YAHQBNPADIQADIH_NIQAU__crt_locale_pointers@@W4__acrt_rounding_mode@@@Z 100151aa f   libucrt:cvt.obj
 0001:000144b9       ?fp_format_e@@YAHQBNQADI1IH_NIQAU__crt_locale_pointers@@W4__acrt_rounding_mode@@@Z 100154b9 f   libucrt:cvt.obj
 0001:00014561       ?fp_format_e_internal@@YAHQADIH_NIQAU_strflt@@1QAU__crt_locale_pointers@@@Z 10015561 f   libucrt:cvt.obj
 0001:000146a9       ?fp_format_f@@YAHQBNQADI1IHQAU__crt_locale_pointers@@W4__acrt_rounding_mode@@@Z 100156a9 f   libucrt:cvt.obj
 0001:0001473a       ?fp_format_f_internal@@YAHQADIHQAU_strflt@@_NQAU__crt_locale_pointers@@@Z 1001573a f   libucrt:cvt.obj
 0001:00014832       ?fp_format_g@@YAHQBNQADI1IH_NIQAU__crt_locale_pointers@@@Z 10015832 f   libucrt:cvt.obj
 0001:000148fb       ?fp_format_nan_or_infinity@@YAHW4__acrt_fp_class@@_NPADI1@Z 100158fb f   libucrt:cvt.obj
 0001:00014990       ?shift_bytes@@YAXQADI0H@Z  10015990 f   libucrt:cvt.obj
 0001:000149c4       ?should_round_up@@YA_NQBN_KFW4__acrt_rounding_mode@@@Z 100159c4 f   libucrt:cvt.obj
 0001:00014d2d       ??$?RV<lambda_e5124f882df8998aaf41531e079ba474>@@AAV<lambda_3e16ef9562a7dcce91392c22ab16ea36>@@V<lambda_e25ca0880e6ef98be67edffd8c599615>@@@?$__crt_seh_guarded_call@X@@QAEX$$QAV<lambda_e5124f882df8998aaf41531e079ba474>@@AAV<lambda_3e16ef9562a7dcce91392c22ab16ea36>@@$$QAV<lambda_e25ca0880e6ef98be67edffd8c599615>@@@Z 10015d2d f   libucrt:wsetlocale.obj
 0001:00014dcd       ?initialize_inherited_file_handles_nolock@@YAXXZ 10015dcd f   libucrt:ioinit.obj
 0001:00014e83       ?initialize_stdio_handles_nolock@@YAXXZ 10015e83 f   libucrt:ioinit.obj
 0001:00015094       ?<lambda_invoker_cdecl>@<lambda_838c7f62c73c983481e27c09e84b0b5d>@@CAHPBX0@Z 10016094 f   libucrt:argv_wildcards.obj
 0001:000150ac       ??$__acrt_convert_wcs_mbs_cp@D_WV<lambda_62f6974d9771e494a5ea317cc32e971c>@@U__crt_win32_buffer_internal_dynamic_resizing@@@@YAHQBDAAV?$__crt_win32_buffer@_WU__crt_win32_buffer_internal_dynamic_resizing@@@@ABV<lambda_62f6974d9771e494a5ea317cc32e971c>@@I@Z 100160ac f   libucrt:argv_wildcards.obj
 0001:0001515e       ??$__acrt_convert_wcs_mbs_cp@_WDV<lambda_28bda7af82a03b66c1cb3803a755f95d>@@U__crt_win32_buffer_internal_dynamic_resizing@@@@YAHQB_WAAV?$__crt_win32_buffer@DU__crt_win32_buffer_internal_dynamic_resizing@@@@ABV<lambda_28bda7af82a03b66c1cb3803a755f95d>@@I@Z 1001615e f   libucrt:argv_wildcards.obj
 0001:0001524a       ??$common_expand_argv_wildcards@D@@YAHQAPADQAPAPAD@Z 1001624a f   libucrt:argv_wildcards.obj
 0001:00015439       ??$copy_and_add_argument_to_buffer@D@@YAHQBD0IAAV?$argument_list@D@?A0x5f5c8891@@@Z 10016439 f   libucrt:argv_wildcards.obj
 0001:000154ea       ??$expand_argument_wildcards@D@@YAHQAD0AAV?$argument_list@D@?A0x5f5c8891@@@Z 100164ea f   libucrt:argv_wildcards.obj
 0001:00015834       ?expand_if_necessary@?$argument_list@D@?A0x5f5c8891@@AAEHXZ 10016834 f   libucrt:argv_wildcards.obj
 0001:000158c6       ??$__acrt_convert_wcs_mbs_cp@_WDV<lambda_0fec1a7b3f42a53036604e18c2d5e07e>@@U__crt_win32_buffer_no_resizing@@@@YAHQB_WAAV?$__crt_win32_buffer@DU__crt_win32_buffer_no_resizing@@@@ABV<lambda_0fec1a7b3f42a53036604e18c2d5e07e>@@I@Z 100168c6 f   libucrt:getmodulefilenamea.obj
 0001:00015a69       ??$?RV<lambda_ceb1ee4838e85a9d631eb091e2fbe199>@@AAV<lambda_ae742caa10f662c28703da3d2ea5e57e>@@V<lambda_cd08b5d6af4937fe54fc07d0c9bf6b37>@@@?$__crt_seh_guarded_call@X@@QAEX$$QAV<lambda_ceb1ee4838e85a9d631eb091e2fbe199>@@AAV<lambda_ae742caa10f662c28703da3d2ea5e57e>@@$$QAV<lambda_cd08b5d6af4937fe54fc07d0c9bf6b37>@@@Z 10016a69 f   libucrt:mbctype.obj
 0001:00015ab6       ??R<lambda_ae742caa10f662c28703da3d2ea5e57e>@@QBEXXZ 10016ab6 f   libucrt:mbctype.obj
 0001:00015b39       ?CPtoLocaleName@@YAPB_WH@Z 10016b39 f   libucrt:mbctype.obj
 0001:00015b77       ?getSystemCP@@YAHH@Z       10016b77 f   libucrt:mbctype.obj
 0001:00015be8       ?setSBCS@@YAXPAU__crt_multibyte_data@@@Z 10016be8 f   libucrt:mbctype.obj
 0001:00015c4d       ?setSBUpLow@@YAXPAU__crt_multibyte_data@@@Z 10016c4d f   libucrt:mbctype.obj
 0001:00015dcd       ?setmbcp_internal@@YAHH_NQAU__acrt_ptd@@QAPAU__crt_multibyte_data@@@Z 10016dcd f   libucrt:mbctype.obj
 0001:00015ee1       ?update_thread_multibyte_data_internal@@YAPAU__crt_multibyte_data@@QAU__acrt_ptd@@QAPAU1@@Z 10016ee1 f   libucrt:mbctype.obj
 0001:000161cf       _memcpy_s                  100171cf f   libucrt:cfout.obj
 0001:000161cf       _memcpy_s                  100171cf f   libucrt:mbctype.obj
 0001:00016250       ?x_ismbbtype_l@@YAHPAU__crt_locale_pointers@@IHH@Z 10017250 f   libucrt:ismbbyte.obj
 0001:0001640b       ?find_end_of_double_null_terminated_sequence@@YAPB_WQB_W@Z 1001740b f   libucrt:get_environment_from_os.obj
 0001:0001657a       ??$?RV<lambda_cbab9ec6f41b0180b23cc171c22676b0>@@AAV<lambda_44731a7d0e6d81c3e6aa82d741081786>@@V<lambda_4b292cb8dd18144e164572427af410ab>@@@?$__crt_seh_guarded_call@P6AXH@Z@@QAEP6AXH@Z$$QAV<lambda_cbab9ec6f41b0180b23cc171c22676b0>@@AAV<lambda_44731a7d0e6d81c3e6aa82d741081786>@@$$QAV<lambda_4b292cb8dd18144e164572427af410ab>@@@Z 1001757a f   libucrt:signal.obj
 0001:000165de       ?get_global_action_nolock@@YAPAP6AXH@ZH@Z 100175de f   libucrt:signal.obj
 0001:00016620       ?siglookup@@YAPAU__crt_signal_action_t@@HQAU1@@Z 10017620 f   libucrt:signal.obj
 0001:000168d9       ??$?RV<lambda_2866be3712abc81a800a822484c830d8>@@AAV<lambda_39ca0ed439415581b5b15c265174cece>@@V<lambda_2b24c74d71094a6cd0cb82e44167d71b>@@@?$__crt_seh_guarded_call@X@@QAEX$$QAV<lambda_2866be3712abc81a800a822484c830d8>@@AAV<lambda_39ca0ed439415581b5b15c265174cece>@@$$QAV<lambda_2b24c74d71094a6cd0cb82e44167d71b>@@@Z 100178d9 f   libucrt:fflush.obj
 0001:00016965       ??$?RV<lambda_2cc53f568c5a2bb6f192f930a45d44ea>@@AAV<lambda_ab61a845afdef5b7c387490eaf3616ee>@@V<lambda_c2ffc0b7726aa6be21d5f0026187e748>@@@?$__crt_seh_guarded_call@X@@QAEX$$QAV<lambda_2cc53f568c5a2bb6f192f930a45d44ea>@@AAV<lambda_ab61a845afdef5b7c387490eaf3616ee>@@$$QAV<lambda_c2ffc0b7726aa6be21d5f0026187e748>@@@Z 10017965 f   libucrt:fflush.obj
 0001:00016a11       ?common_flush_all@@YAH_N@Z 10017a11 f   libucrt:fflush.obj
 0001:00016a5e       ?common_flush_all_should_try_to_flush_stream@@YA_NV__crt_stdio_stream@@QAH@Z 10017a5e f   libucrt:fflush.obj
 0001:00016a91       ?is_stream_flushable_or_commitable@@YA_NJ@Z 10017a91 f   libucrt:fflush.obj
 0001:00016f9a       ?GetTableIndexFromLocaleName@@YAHPB_W@Z 10017f9a f   libucrt:lcidtoname_downlevel.obj
 0001:00017050       ??R<lambda_3d301b9e52f5099be73030e1f0bf487e>@@QBEIPBD@Z 10018050 f   libucrt:mbrtowc.obj
 0001:000171d6       ?should_round_up@@YA_NQBDHW4__acrt_has_trailing_digits@@W4__acrt_rounding_mode@@@Z 100181d6 f   libucrt:_fptostr.obj
 0001:00018f74       ?free_crt_array_internal@@YAXQAPBXI@Z 10019f74 f   libucrt:inittime.obj
 0001:0001993e       ??$common_tcsncpy_s@D@@YAHQADIQBDI@Z 1001a93e f   libucrt:strncpy_s.obj
 0001:00019a00       $$000000                   1001aa00     libucrt:strpbrk.obj
 0001:00019ae4       ?__acrt_LCMapStringA_stat@@YAHPAU__crt_locale_pointers@@PB_WKPBDHPADHHH@Z 1001aae4 f   libucrt:lcmapstringa.obj
 0001:00019d17       ?initialize_multibyte@@YAHXZ 1001ad17 f   libucrt:multibyte_initializer.obj
 0001:00019d26       ??$?RV<lambda_9e9de3de5fa147e2223d7db92bc10aa6>@@AAV<lambda_38ce7e780aa69e748d6df282ebc68efe>@@V<lambda_8ca6da459f0f6780f1cff60fdc3d00e5>@@@?$__crt_seh_guarded_call@H@@QAEH$$QAV<lambda_9e9de3de5fa147e2223d7db92bc10aa6>@@AAV<lambda_38ce7e780aa69e748d6df282ebc68efe>@@$$QAV<lambda_8ca6da459f0f6780f1cff60fdc3d00e5>@@@Z 1001ad26 f   libucrt:commit.obj
 0001:00019e45       ?write_double_translated_ansi_nolock@@YA?AUwrite_result@?A0x17268360@@HQBDI@Z 1001ae45 f   libucrt:write.obj
 0001:0001a1f1       ?write_double_translated_unicode_nolock@@YA?AUwrite_result@?A0x17268360@@QBDI@Z 1001b1f1 f   libucrt:write.obj
 0001:0001a259       ?write_requires_double_translation_nolock@@YA_NH@Z 1001b259 f   libucrt:write.obj
 0001:0001a2ca       ?write_text_ansi_nolock@@YA?AUwrite_result@?A0x17268360@@HQBDI@Z 1001b2ca f   libucrt:write.obj
 0001:0001a3a5       ?write_text_utf16le_nolock@@YA?AUwrite_result@?A0x17268360@@HQBDI@Z 1001b3a5 f   libucrt:write.obj
 0001:0001a48e       ?write_text_utf8_nolock@@YA?AUwrite_result@?A0x17268360@@HQBDI@Z 1001b48e f   libucrt:write.obj
 0001:0001abb0       $$000000                   1001bbb0     libucrt:log10_impl.obj
 0001:0001acc0       $$000000                   1001bcc0     libucrt:ceil_pentium4.obj
 0001:0001addd       ?to_abstract_control@@YA?AW4__acrt_fenv_abstract_control@@W4__acrt_fenv_machine_sse_control@@@Z 1001bddd f   libucrt:_fenvutils.obj
 0001:0001ae99       ?to_abstract_control@@YA?AW4__acrt_fenv_abstract_control@@W4__acrt_fenv_machine_x87_control@@@Z 1001be99 f   libucrt:_fenvutils.obj
 0001:0001af52       ?to_machine_sse_control@@YA?AW4__acrt_fenv_machine_sse_control@@W4__acrt_fenv_abstract_control@@@Z 1001bf52 f   libucrt:_fenvutils.obj
 0001:0001b01f       ?to_machine_x87_control@@YA?AW4__acrt_fenv_machine_x87_control@@W4__acrt_fenv_abstract_control@@@Z 1001c01f f   libucrt:_fenvutils.obj
 0001:0001b3b3       ??$common_lseek_nolock@_J@@YA_JH_JH@Z 1001c3b3 f   libucrt:lseek.obj
 0001:0001b599       ___hw_cw_sse2              1001c599 f   libucrt:ieee87.obj
 0001:0001ba1f       __hw_cw                    1001ca1f f   libucrt:ieee87.obj
 0001:0001bad0       $$000000                   1001cad0     libucrt:log10_pentium4.obj
 0001:0001bd60       $$000000                   1001cd60     libucrt:87tran.obj
 0001:0001bf70       $$000000                   1001cf70     libucrt:87disp.obj
 0001:0001c1d0       $$000000                   1001d1d0     libucrt:common.obj
 0001:0001c360       $$000000                   1001d360     libucrt:genexcep.obj
 0001:0001c65c       ??$?RV<lambda_218ce3db14220d0be481dae8ef3383b6>@@AAV<lambda_628dfdc04ba53c8bfc02c9951375f3f5>@@V<lambda_57dc472bd5c9d5f3b2cbca59b8a843ae>@@@?$__crt_seh_guarded_call@H@@QAEH$$QAV<lambda_218ce3db14220d0be481dae8ef3383b6>@@AAV<lambda_628dfdc04ba53c8bfc02c9951375f3f5>@@$$QAV<lambda_57dc472bd5c9d5f3b2cbca59b8a843ae>@@@Z 1001d65c f   libucrt:close.obj
 0001:0001c850       $$000000                   1001d850     libucrt:_strnicm.obj
 0001:0001c8b1       ?__dcrt_lowio_initialize_console_output@@YAXXZ 1001d8b1 f   libucrt:initcon.obj
 0001:0001d790       $$000000                   1001e790     LIBCMT:ulldvrm.obj
 0001:0001d830       $$000000                   1001e830     LIBCMT:llmul.obj
 0001:0001d870       $$000000                   1001e870     LIBCMT:lldvrm.obj
 0001:0001d950       $$000000                   1001e950     LIBCMT:llshl.obj
 0001:0001d970       $$000000                   1001e970     LIBCMT:ullshr.obj
 0001:0001d990       $$000000                   1001e990     LIBCMT:ftol2.obj
 0001:0001dc30       $$000000                   1001ec30     libvcruntime:strrchr.obj
 0001:0001dd70       $$000000                   1001ed70     libvcruntime:strchr.obj
 0001:0001df13       __ehhandler$??2@YAPAXIABUnothrow_t@std@@@Z 1001ef13 f   LIBCMT:new_scalar_nothrow.obj
 0001:0001df2e       __ehhandler$?CallUnexpected@@YAXPBU_s_ESTypeList@@@Z 1001ef2e f   libvcruntime:frame.obj
 0001:0001df49       ??__F_AtlComModule@ATL@@YAXXZ 1001ef49 f   OposVariant.obj
 0001:0001df53       ??__F_AtlWinModule@ATL@@YAXXZ 1001ef53 f   OposVariant.obj
 0001:0001df6d       ??__F_Module@@YAXXZ        1001ef6d f   CoinDispenser.obj
 0001:0001df81       ??__F_AtlBaseModule@ATL@@YAXXZ 1001ef81 f   atls:atlbase.obj
 0002:00000304       ?_AtlBaseModule$initializer$@ATL@@3P6AXXZA 1001f304     atls:atlbase.obj
 0002:00000308       ?_AtlComModule$initializer$@ATL@@3P6AXXZA 1001f308     OposVariant.obj
 0002:0000030c       ?_AtlWinModule$initializer$@ATL@@3P6AXXZA 1001f30c     OposVariant.obj
 0002:00000310       ?_Module$initializer$@@3P6AXXZA 1001f310     CoinDispenser.obj
 0002:00000314       ??pConnMap$initializer$@?$IConnectionPointContainerImpl@VCOPOSCoinDispenser@@@ATL@@0P6AXXZA@@3P6AXXZA 1001f314     CoinDispenser.obj
 0002:00000320       ?__scrt_initialize_tss_var@@3P6AHXZA 1001f320     LIBCMT:thread_safe_statics.obj
 0002:000017c0       _GS_ExceptionPointers      100207c0     LIBCMT:gs_report.obj
 0002:00001950       ?tokenTable@@3QBUStringLiteral@@B 10020950     libvcruntime:undname.obj
 0002:000019d0       ?nameTable@@3QBUStringLiteral@@B 100209d0     libvcruntime:undname.obj
 0002:00001c68       ?rttiTable@@3QBUStringLiteral@@B 10020c68     libvcruntime:undname.obj
 0002:00001c90       ?IndirectionName@@3QBUStringLiteral@@B 10020c90     libvcruntime:undname.obj
 0002:00001cc0       ?PrefixName@@3QBUStringLiteral@@B 10020cc0     libvcruntime:undname.obj
 0002:000022f0       ?module_names@?A0x9d0f8d90@@3QBQB_WB 100212f0     libvcruntime:winapi_downlevel.obj
 0002:00002398       ?candidate_modules@?1??try_get_FlsAlloc@@YAP6GKP6GXPAX@Z@ZXZ@4QBW4module_id@?A0x9d0f8d90@@B 10021398     libvcruntime:winapi_downlevel.obj
 0002:000023ac       ?candidate_modules@?1??try_get_FlsFree@@YAP6GHK@ZXZ@4QBW4module_id@?A0x9d0f8d90@@B 100213ac     libvcruntime:winapi_downlevel.obj
 0002:000023bc       ?candidate_modules@?1??try_get_FlsGetValue@@YAP6GPAXK@ZXZ@4QBW4module_id@?A0x9d0f8d90@@B 100213bc     libvcruntime:winapi_downlevel.obj
 0002:000023d0       ?candidate_modules@?1??try_get_FlsSetValue@@YAP6GHKPAX@ZXZ@4QBW4module_id@?A0x9d0f8d90@@B 100213d0     libvcruntime:winapi_downlevel.obj
 0002:000023e4       ?candidate_modules@?1??try_get_InitializeCriticalSectionEx@@YAP6GHPAU_RTL_CRITICAL_SECTION@@KK@ZXZ@4QBW4module_id@?A0x9d0f8d90@@B 100213e4     libvcruntime:winapi_downlevel.obj
 0002:00002408       ?errtable@@3QBUerrentry@?A0x31fdb9ec@@B 10021408     libucrt:errno.obj
 0002:00002a50       ___acrt_initializers       10021a50     libucrt:initialization.obj
 0002:00002ad0       ?module_names@?A0x391cf84c@@3QBQB_WB 10021ad0     libucrt:winapi_thunks.obj
 0002:00002f48       ?candidate_modules@?1??try_get_AreFileApisANSI@@YAP6GHXZXZ@4QBW4module_id@?A0x391cf84c@@B 10021f48     libucrt:winapi_thunks.obj
 0002:00002f5c       ?candidate_modules@?1??try_get_FlsAlloc@@YAP6GKP6GXPAX@Z@ZXZ@4QBW4module_id@?A0x391cf84c@@B 10021f5c     libucrt:winapi_thunks.obj
 0002:00002f64       ?candidate_modules@?1??try_get_FlsFree@@YAP6GHK@ZXZ@4QBW4module_id@?A0x391cf84c@@B 10021f64     libucrt:winapi_thunks.obj
 0002:00002f6c       ?candidate_modules@?1??try_get_FlsGetValue@@YAP6GPAXK@ZXZ@4QBW4module_id@?A0x391cf84c@@B 10021f6c     libucrt:winapi_thunks.obj
 0002:00002f74       ?candidate_modules@?1??try_get_FlsSetValue@@YAP6GHKPAX@ZXZ@4QBW4module_id@?A0x391cf84c@@B 10021f74     libucrt:winapi_thunks.obj
 0002:00002f7c       ?candidate_modules@?1??try_get_InitializeCriticalSectionEx@@YAP6GHPAU_RTL_CRITICAL_SECTION@@KK@ZXZ@4QBW4module_id@?A0x391cf84c@@B 10021f7c     libucrt:winapi_thunks.obj
 0002:00002f84       ?candidate_modules@?1??try_get_LCMapStringEx@@YAP6GHPB_WK0HPA_WHPAU_nlsversioninfo@@PAXJ@ZXZ@4QBW4module_id@?A0x391cf84c@@B 10021f84     libucrt:winapi_thunks.obj
 0002:00002f9c       ?candidate_modules@?1??try_get_LocaleNameToLCID@@YAP6GKPB_WK@ZXZ@4QBW4module_id@?A0x391cf84c@@B 10021f9c     libucrt:winapi_thunks.obj
 0002:00002fb8       ?candidate_modules@?1??try_get_AppPolicyGetProcessTerminationMethod@@YAP6GJPAXPAW4AppPolicyProcessTerminationMethod@@@ZXZ@4QBW4module_id@?A0x391cf84c@@B 10021fb8     libucrt:winapi_thunks.obj
 0002:00002fe4       ?candidate_modules@?1??try_get_SetThreadStackGuarantee@@YAP6GHPAK@ZXZ@4QBW4module_id@?A0x391cf84c@@B 10021fe4     libucrt:winapi_thunks.obj
 0002:00003008       ?strings@?1??fp_format_nan_or_infinity@@YAHW4__acrt_fp_class@@_NPADI1@Z@4QAY03QBDA 10022008     libucrt:cvt.obj
 0002:00003550       ?_mb_locale_names@@3QBQB_WB 10022550     libucrt:mbctype.obj
 0002:00003d98       ?LcidToLocaleNameTable@?A0x881e4c05@@3QBULcidToLocaleName@1@B 10022d98     libucrt:lcidtoname_downlevel.obj
 0002:00004ec0       ?LocaleNameToIndexTable@?A0x881e4c05@@3QBULocaleNameIndex@1@B 10023ec0     libucrt:lcidtoname_downlevel.obj
 0002:00006800       LOG_name                   10025800     libucrt:log10_impl.obj
 0002:00006810       _One                       10025810     libucrt:ceil_pentium4.obj
 0002:00006820       _Bns                       10025820     libucrt:ceil_pentium4.obj
 0002:00006830       _Zero                      10025830     libucrt:ceil_pentium4.obj
 0002:00006840       _S                         10025840     libucrt:ceil_pentium4.obj
 0002:00006850       _NegZero                   10025850     libucrt:ceil_pentium4.obj
 0002:00006860       emask                      10025860     libucrt:log10_pentium4.obj
 0002:00006870       CC                         10025870     libucrt:log10_pentium4.obj
 0002:00006880       Magic                      10025880     libucrt:log10_pentium4.obj
 0002:00006890       hi_mask                    10025890     libucrt:log10_pentium4.obj
 0002:000068a0       LOG10_2                    100258a0     libucrt:log10_pentium4.obj
 0002:000068b0       place_L                    100258b0     libucrt:log10_pentium4.obj
 0002:000068d0       One                        100258d0     libucrt:log10_pentium4.obj
 0002:000068e0       Zero                       100258e0     libucrt:log10_pentium4.obj
 0002:000068f0       Two52                      100258f0     libucrt:log10_pentium4.obj
 0002:00006900       Infs                       10025900     libucrt:log10_pentium4.obj
 0002:00006910       NaN                        10025910     libucrt:log10_pentium4.obj
 0002:00006920       coeff                      10025920     libucrt:log10_pentium4.obj
 0002:0000697e       _log2max                   1002597e     libucrt:87tran.obj
 0002:00006988       _smallarg                  10025988     libucrt:87tran.obj
 0002:00006992       _half                      10025992     libucrt:87tran.obj
 0002:000069de       One                        100259de     libucrt:87disp.obj
 0002:000069e6       Three                      100259e6     libucrt:87disp.obj
 0002:000069ee       XAMtoTagTab                100259ee     libucrt:87disp.obj
 0002:00006a00       One                        10025a00     libucrt:common.obj
 0002:00006a14       DblMax                     10025a14     libucrt:common.obj
 0002:00006a1c       DblMin                     10025a1c     libucrt:common.obj
 0002:00006a24       IeeeAdjO                   10025a24     libucrt:common.obj
 0002:00006a2c       IeeeAdjU                   10025a2c     libucrt:common.obj
 0002:00006a34       _infinity                  10025a34     libucrt:common.obj
 0002:00006a3c       _zero                      10025a3c     libucrt:common.obj
 0002:00006a88       _over                      10025a88     libucrt:fpctrl.obj
 0002:00006a94       _under                     10025a94     libucrt:fpctrl.obj
 0002:000072c8       ?_names@?1??_get_fname@@9@9 100262c8     libucrt:fpexcept.obj
 0002:00007470       two32                      10026470     LIBCMT:ftol2.obj
 0002:00007474       two63                      10026474     LIBCMT:ftol2.obj
 0002:00007478       _NaN                       10026478     LIBCMT:ftol2.obj
 0002:00007b30       __sehtable$?_AtlVerifyStackAvailable@_ATL_SAFE_ALLOCA_IMPL@ATL@@YA_NK@Z 10026b30     CoinDispenser.obj
 0002:00007b50       __sehtable$___scrt_is_nonwritable_in_current_image 10026b50     LIBCMT:utility.obj
 0002:00007b6c       __catchsym$??2@YAPAXIABUnothrow_t@std@@@Z$2 10026b6c     LIBCMT:new_scalar_nothrow.obj
 0002:00007b7c       __unwindtable$??2@YAPAXIABUnothrow_t@std@@@Z 10026b7c     LIBCMT:new_scalar_nothrow.obj
 0002:00007b8c       __tryblocktable$??2@YAPAXIABUnothrow_t@std@@@Z 10026b8c     LIBCMT:new_scalar_nothrow.obj
 0002:00007ba0       __ehfuncinfo$??2@YAPAXIABUnothrow_t@std@@@Z 10026ba0     LIBCMT:new_scalar_nothrow.obj
 0002:00007bc8       __sehtable$?dllmain_crt_process_attach@@YAHQAUHINSTANCE__@@QAX@Z 10026bc8     LIBCMT:dll_dllmain.obj
 0002:00007be8       __sehtable$?dllmain_crt_process_detach@@YAH_N@Z 10026be8     LIBCMT:dll_dllmain.obj
 0002:00007c10       __sehtable$?dllmain_dispatch@@YAHQAUHINSTANCE__@@KQAX@Z 10026c10     LIBCMT:dll_dllmain.obj
 0002:00007cc0       __sehtable$___DestructExceptionObject 10026cc0     libvcruntime:ehhelpers.obj
 0002:00007ce0       __sehtable$?FrameUnwindToState@__FrameHandler3@@SAXPAUEHRegistrationNode@@PAXPBU_s_FuncInfo@@H@Z 10026ce0     libvcruntime:frame.obj
 0002:00007d08       __sehtable$?CallCatchBlock@@YAPAXPAUEHExceptionRecord@@PAUEHRegistrationNode@@PAU_CONTEXT@@PBU_s_FuncInfo@@PAXHK@Z 10026d08     libvcruntime:frame.obj
 0002:00007d30       __catchsym$?CallUnexpected@@YAXPBU_s_ESTypeList@@@Z$2 10026d30     libvcruntime:frame.obj
 0002:00007d40       __unwindtable$?CallUnexpected@@YAXPBU_s_ESTypeList@@@Z 10026d40     libvcruntime:frame.obj
 0002:00007d50       __tryblocktable$?CallUnexpected@@YAXPBU_s_ESTypeList@@@Z 10026d50     libvcruntime:frame.obj
 0002:00007d64       __ehfuncinfo$?CallUnexpected@@YAXPBU_s_ESTypeList@@@Z 10026d64     libvcruntime:frame.obj
 0002:00007d88       __sehtable$??$BuildCatchObjectHelperInternal@V__FrameHandler3@@@@YAHPAUEHExceptionRecord@@PAXPBU_s_HandlerType@@PBU_s_CatchableType@@@Z 10026d88     libvcruntime:frame.obj
 0002:00007da8       __sehtable$??$BuildCatchObjectInternal@V__FrameHandler3@@@@YAXPAUEHExceptionRecord@@PAXPBU_s_HandlerType@@PBU_s_CatchableType@@@Z 10026da8     libvcruntime:frame.obj
 0002:00007e00       __sehtable$??R<lambda_6e4b09c48022b2350581041d5f6b0c4c>@@QBE@XZ 10026e00     libucrt:exit.obj
 0002:00007e20       __sehtable$??$?RV<lambda_03b1d95aef87969028cfba75ccab2455>@@AAV<lambda_6e4b09c48022b2350581041d5f6b0c4c>@@V<lambda_22bdf7517842c4b3e53723af5aa32b9e>@@@?$__crt_seh_guarded_call@X@@QAEX$$QAV<lambda_03b1d95aef87969028cfba75ccab2455>@@AAV<lambda_6e4b09c48022b2350581041d5f6b0c4c>@@$$QAV<lambda_22bdf7517842c4b3e53723af5aa32b9e>@@@Z 10026e20     libucrt:exit.obj
 0002:00007e40       __sehtable$??$?RV<lambda_8e746cf0007f6ed984d6f78af1fec997>@@AAV<lambda_22ebabd17bc4fa466a2aca6d8deb888d>@@V<lambda_18ed0c0b38a6dc0daf1e7ac6d6adf05e>@@@?$__crt_seh_guarded_call@H@@QAEH$$QAV<lambda_8e746cf0007f6ed984d6f78af1fec997>@@AAV<lambda_22ebabd17bc4fa466a2aca6d8deb888d>@@$$QAV<lambda_18ed0c0b38a6dc0daf1e7ac6d6adf05e>@@@Z 10026e40     libucrt:onexit.obj
 0002:00007e60       __sehtable$??$?RV<lambda_69a2805e680e0e292e8ba93315fe43a8>@@AAV<lambda_f03950bc5685219e0bcd2087efbe011e>@@V<lambda_03fcd07e894ec930e3f35da366ca99d6>@@@?$__crt_seh_guarded_call@H@@QAEH$$QAV<lambda_69a2805e680e0e292e8ba93315fe43a8>@@AAV<lambda_f03950bc5685219e0bcd2087efbe011e>@@$$QAV<lambda_03fcd07e894ec930e3f35da366ca99d6>@@@Z 10026e60     libucrt:onexit.obj
 0002:00007e80       __sehtable$__query_new_handler 10026e80     libucrt:new_handler.obj
 0002:00007ea0       __sehtable$_terminate      10026ea0     libucrt:terminate.obj
 0002:00007ec0       __sehtable$??$?RV<lambda_15ade71b0218206bbe3333a0c9b79046>@@AAV<lambda_da44e0f8b0f19ba52fefafb335991732>@@V<lambda_207f2d024fc103971653565357d6cd41>@@@?$__crt_seh_guarded_call@X@@QAEX$$QAV<lambda_15ade71b0218206bbe3333a0c9b79046>@@AAV<lambda_da44e0f8b0f19ba52fefafb335991732>@@$$QAV<lambda_207f2d024fc103971653565357d6cd41>@@@Z 10026ec0     libucrt:per_thread_data.obj
 0002:00007ee0       __sehtable$??$?RV<lambda_a7e850c220f1c8d1e6efeecdedd162c6>@@AAV<lambda_46720907175c18b6c9d2717bc0d2d362>@@V<lambda_9048902d66e8d99359bc9897bbb930a8>@@@?$__crt_seh_guarded_call@X@@QAEX$$QAV<lambda_a7e850c220f1c8d1e6efeecdedd162c6>@@AAV<lambda_46720907175c18b6c9d2717bc0d2d362>@@$$QAV<lambda_9048902d66e8d99359bc9897bbb930a8>@@@Z 10026ee0     libucrt:per_thread_data.obj
 0002:00007f00       __sehtable$??$?RV<lambda_38edbb1296d33220d7e4dd0ed76b244a>@@AAV<lambda_5ce1d447e08cb34b2473517608e21441>@@V<lambda_fb385d3da700c9147fc39e65dd577a8c>@@@?$__crt_seh_guarded_call@X@@QAEX$$QAV<lambda_38edbb1296d33220d7e4dd0ed76b244a>@@AAV<lambda_5ce1d447e08cb34b2473517608e21441>@@$$QAV<lambda_fb385d3da700c9147fc39e65dd577a8c>@@@Z 10026f00     libucrt:per_thread_data.obj
 0002:00007f20       __sehtable$??$?RV<lambda_6affb1475c98b40b75cdec977db92e3c>@@AAV<lambda_b8d4b9c228a6ecc3f80208dbb4b4a104>@@V<lambda_608742c3c92a14382c1684fc64f96c88>@@@?$__crt_seh_guarded_call@X@@QAEX$$QAV<lambda_6affb1475c98b40b75cdec977db92e3c>@@AAV<lambda_b8d4b9c228a6ecc3f80208dbb4b4a104>@@$$QAV<lambda_608742c3c92a14382c1684fc64f96c88>@@@Z 10026f20     libucrt:per_thread_data.obj
 0002:00007f40       __sehtable$??$?RV<lambda_e5124f882df8998aaf41531e079ba474>@@AAV<lambda_3e16ef9562a7dcce91392c22ab16ea36>@@V<lambda_e25ca0880e6ef98be67edffd8c599615>@@@?$__crt_seh_guarded_call@X@@QAEX$$QAV<lambda_e5124f882df8998aaf41531e079ba474>@@AAV<lambda_3e16ef9562a7dcce91392c22ab16ea36>@@$$QAV<lambda_e25ca0880e6ef98be67edffd8c599615>@@@Z 10026f40     libucrt:wsetlocale.obj
 0002:00007f60       __sehtable$___acrt_initialize_lowio 10026f60     libucrt:ioinit.obj
 0002:00007f80       __sehtable$?update_thread_multibyte_data_internal@@YAPAU__crt_multibyte_data@@QAU__acrt_ptd@@QAPAU1@@Z 10026f80     libucrt:mbctype.obj
 0002:00007fa0       __sehtable$??$?RV<lambda_ceb1ee4838e85a9d631eb091e2fbe199>@@AAV<lambda_ae742caa10f662c28703da3d2ea5e57e>@@V<lambda_cd08b5d6af4937fe54fc07d0c9bf6b37>@@@?$__crt_seh_guarded_call@X@@QAEX$$QAV<lambda_ceb1ee4838e85a9d631eb091e2fbe199>@@AAV<lambda_ae742caa10f662c28703da3d2ea5e57e>@@$$QAV<lambda_cd08b5d6af4937fe54fc07d0c9bf6b37>@@@Z 10026fa0     libucrt:mbctype.obj
 0002:00007fc0       __sehtable$_raise          10026fc0     libucrt:signal.obj
 0002:00007fe0       __sehtable$??$?RV<lambda_cbab9ec6f41b0180b23cc171c22676b0>@@AAV<lambda_44731a7d0e6d81c3e6aa82d741081786>@@V<lambda_4b292cb8dd18144e164572427af410ab>@@@?$__crt_seh_guarded_call@P6AXH@Z@@QAEP6AXH@Z$$QAV<lambda_cbab9ec6f41b0180b23cc171c22676b0>@@AAV<lambda_44731a7d0e6d81c3e6aa82d741081786>@@$$QAV<lambda_4b292cb8dd18144e164572427af410ab>@@@Z 10026fe0     libucrt:signal.obj
 0002:00008000       __sehtable$??$?RV<lambda_2866be3712abc81a800a822484c830d8>@@AAV<lambda_39ca0ed439415581b5b15c265174cece>@@V<lambda_2b24c74d71094a6cd0cb82e44167d71b>@@@?$__crt_seh_guarded_call@X@@QAEX$$QAV<lambda_2866be3712abc81a800a822484c830d8>@@AAV<lambda_39ca0ed439415581b5b15c265174cece>@@$$QAV<lambda_2b24c74d71094a6cd0cb82e44167d71b>@@@Z 10027000     libucrt:fflush.obj
 0002:00008020       __sehtable$??$?RV<lambda_2cc53f568c5a2bb6f192f930a45d44ea>@@AAV<lambda_ab61a845afdef5b7c387490eaf3616ee>@@V<lambda_c2ffc0b7726aa6be21d5f0026187e748>@@@?$__crt_seh_guarded_call@X@@QAEX$$QAV<lambda_2cc53f568c5a2bb6f192f930a45d44ea>@@AAV<lambda_ab61a845afdef5b7c387490eaf3616ee>@@$$QAV<lambda_c2ffc0b7726aa6be21d5f0026187e748>@@@Z 10027020     libucrt:fflush.obj
 0002:00008040       __sehtable$___acrt_update_thread_locale_data 10027040     libucrt:locale_refcounting.obj
 0002:00008060       __sehtable$__fcloseall     10027060     libucrt:closeall.obj
 0002:00008080       __sehtable$___acrt_lowio_ensure_fh_exists 10027080     libucrt:osfinfo.obj
 0002:000080a0       __sehtable$??$?RV<lambda_9e9de3de5fa147e2223d7db92bc10aa6>@@AAV<lambda_38ce7e780aa69e748d6df282ebc68efe>@@V<lambda_8ca6da459f0f6780f1cff60fdc3d00e5>@@@?$__crt_seh_guarded_call@H@@QAEH$$QAV<lambda_9e9de3de5fa147e2223d7db92bc10aa6>@@AAV<lambda_38ce7e780aa69e748d6df282ebc68efe>@@$$QAV<lambda_8ca6da459f0f6780f1cff60fdc3d00e5>@@@Z 100270a0     libucrt:commit.obj
 0002:000080c0       __sehtable$__write         100270c0     libucrt:write.obj
 0002:000080e0       __sehtable$_fclose         100270e0     libucrt:fclose.obj
 0002:00008100       __sehtable$??$?RV<lambda_218ce3db14220d0be481dae8ef3383b6>@@AAV<lambda_628dfdc04ba53c8bfc02c9951375f3f5>@@V<lambda_57dc472bd5c9d5f3b2cbca59b8a843ae>@@@?$__crt_seh_guarded_call@H@@QAEH$$QAV<lambda_218ce3db14220d0be481dae8ef3383b6>@@AAV<lambda_628dfdc04ba53c8bfc02c9951375f3f5>@@$$QAV<lambda_57dc472bd5c9d5f3b2cbca59b8a843ae>@@@Z 10027100     libucrt:close.obj
 0002:00008120       __sehtable$___set_fpsr_sse2 10027120     libucrt:fpctrl.obj
 0002:00008140       __sehtable$__IsNonwritableInCurrentImage 10027140     LIBCMT:pesect.obj
 0002:00008170       .edata                     10027170     OPOSCoinDispenser.exp
 0002:00008198       rgpv                       10027198     OPOSCoinDispenser.exp
 0002:000081a8       rgszName                   100271a8     OPOSCoinDispenser.exp
 0002:000081b8       rgwOrd                     100271b8     OPOSCoinDispenser.exp
 0002:000081c0       szName                     100271c0     OPOSCoinDispenser.exp
 0002:000081d6       $N00001                    100271d6     OPOSCoinDispenser.exp
 0002:000081e6       $N00002                    100271e6     OPOSCoinDispenser.exp
 0002:000081f8       $N00003                    100271f8     OPOSCoinDispenser.exp
 0002:0000820a       $N00004                    1002720a     OPOSCoinDispenser.exp
 0002:0000881a       .idata$6                   1002781a     kernel32:KERNEL32.dll
 0002:00008a2e       .idata$6                   10027a2e     user32:USER32.dll
 0002:00008b62       .idata$6                   10027b62     gdi32:GDI32.dll
 0002:00008c08       .idata$6                   10027c08     advapi32:ADVAPI32.dll
 0002:00008d24       .idata$6                   10027d24     ole32:ole32.dll
 0002:00008d2e       .idata$6                   10027d2e     oleaut32:OLEAUT32.dll
 0003:00000110       ?ObjectMap@@3PAU_ATL_OBJMAP_ENTRY30@ATL@@A 10029110     CoinDispenser.obj
 0003:000001e0       ?s_SOMethodNames@@3PAPADA  100291e0     CoinDispenserImpl.obj
 0003:00000230       ?s_RequiredMethodsPerRelease@@3PAHA 10029230     CoinDispenserImpl.obj
 0003:00000280       ?__vcrt_flsindex@@3KA      10029280     libvcruntime:per_thread_data.obj
 0003:000002a0       ?errno_no_memory@@3HA      100292a0     libucrt:errno.obj
 0003:000002a4       ?doserrno_no_memory@@3KA   100292a4     libucrt:errno.obj
 0003:000002b0       ?__acrt_flsindex@@3KA      100292b0     libucrt:per_thread_data.obj
 0003:00000648       __mbctypes                 10029648     libucrt:mbctype.obj
 0003:00000750       __mbcasemaps               10029750     libucrt:mbctype.obj
 0003:00000850       ?__rgctypeflag@@3PADA      10029850     libucrt:mbctype.obj
 0003:00000858       ?__rgcode_page_info@@3PAUcode_page_info@@A 10029858     libucrt:mbctype.obj
 0003:00000ab0       ?__dcrt_lowio_console_output_handle@@3PAXA 10029ab0     libucrt:initcon.obj
 0003:00000ab4       ?__DAZ_ENABLED@?1??__set_fpsr_sse2@@9@9 10029ab4     libucrt:fpctrl.obj
 0003:00000c48       ?is_initialized_as_dll@@3_NA 10029c48     LIBCMT:utility.obj
 0003:00000c49       ?module_local_atexit_table_initialized@@3_NA 10029c49     LIBCMT:utility.obj
 0003:00000c4c       ?module_local_atexit_table@@3U_onexit_table_t@@A 10029c4c     LIBCMT:utility.obj
 0003:00000c58       ?module_local_at_quick_exit_table@@3U_onexit_table_t@@A 10029c58     LIBCMT:utility.obj
 0003:00000c64       ?g_tss_cv@@3U_RTL_CONDITION_VARIABLE@@A 10029c64     LIBCMT:thread_safe_statics.obj
 0003:00000c68       ?g_tss_event@@3PAXA        10029c68     LIBCMT:thread_safe_statics.obj
 0003:00000c6c       ?g_tss_mutex@@3U_RTL_CRITICAL_SECTION@@A 10029c6c     LIBCMT:thread_safe_statics.obj
 0003:00000c84       ?g_sleep_condition_variable_cs@@3P6GHPAU_RTL_CONDITION_VARIABLE@@PAU_RTL_CRITICAL_SECTION@@K@ZA 10029c84     LIBCMT:thread_safe_statics.obj
 0003:00000c88       ?g_wake_all_condition_variable@@3P6GXPAU_RTL_CONDITION_VARIABLE@@@ZA 10029c88     LIBCMT:thread_safe_statics.obj
 0003:00000c90       _GS_ExceptionRecord        10029c90     LIBCMT:gs_report.obj
 0003:00000ce0       _GS_ContextRecord          10029ce0     LIBCMT:gs_report.obj
 0003:00000fb0       ?__proc_attached@@3HA      10029fb0     LIBCMT:dll_dllmain.obj
 0003:0000100c       ?AllocateData@@3P6GPAUAtlThunkData_t@@XZA 1002a00c     atls:atlthunk.obj
 0003:00001010       ?InitData@@3P6GXPAUAtlThunkData_t@@PAXI@ZA 1002a010     atls:atlthunk.obj
 0003:00001014       ?DataToCode@@3P6GP6GJPAUHWND__@@IIJ@ZPAUAtlThunkData_t@@@ZA 1002a014     atls:atlthunk.obj
 0003:00001018       ?FreeData@@3P6GXPAUAtlThunkData_t@@@ZA 1002a018     atls:atlthunk.obj
 0003:0000101c       ?Initialized@@3_NA         1002a01c     atls:atlthunk.obj
 0003:0000102c       ?__vcrt_startup_thread_ptd@@3U__vcrt_ptd@@A 1002a02c     libvcruntime:per_thread_data.obj
 0003:00001054       ___vcrt_lock_table         1002a054     libvcruntime:locks.obj
 0003:0000106c       ___vcrt_locks_initialized  1002a06c     libvcruntime:locks.obj
 0003:00001098       ?heap@@3V_HeapManager@@A   1002a098     libvcruntime:undname.obj
 0003:000010ac       ?module_handles@@3PAPAUHINSTANCE__@@A 1002a0ac     libvcruntime:winapi_downlevel.obj
 0003:000010b8       ?function_pointers@@3PAPAXA 1002a0b8     libvcruntime:winapi_downlevel.obj
 0003:000010cc       ?__acrt_invalid_parameter_handler@@3V?$dual_state_global@P6AXPB_W00II@Z@__crt_state_management@@A 1002a0cc     libucrt:invalid_parameter.obj
 0003:000010d0       ?c_termination_complete@@3JA 1002a0d0     libucrt:exit.obj
 0003:000010d4       ?thread_local_exit_callback_func@@3P6GXPAXK0@ZA 1002a0d4     libucrt:exit.obj
 0003:000010e0       ?program_name@?1???$common_configure_argv@D@@YAHW4_crt_argv_mode@@@Z@4PADA 1002a0e0     libucrt:argv_parsing.obj
 0003:00001210       ?__acrt_new_handler@@3V?$dual_state_global@P6AHI@Z@__crt_state_management@@A 1002a210     libucrt:new_handler.obj
 0003:00001218       ?module_handles@@3PAPAUHINSTANCE__@@A 1002a218     libucrt:winapi_thunks.obj
 0003:00001268       ?encoded_function_pointers@@3PAPAXA 1002a268     libucrt:winapi_thunks.obj
 0003:000012f0       ?internal_state@?1??_mbtowc_l@@9@4U_Mbstatet@@A 1002a2f0     libucrt:mbtowc.obj
 0003:00001300       ?enable_percent_n@@3IA     1002a300     libucrt:printf_count_output.obj
 0003:00001520       ?__acrt_lock_table@@3PAU_RTL_CRITICAL_SECTION@@A 1002a520     libucrt:locks.obj
 0003:00001670       ?__acrt_locks_initialized@@3IA 1002a670     libucrt:locks.obj
 0003:00001680       ?fSystemSet@@3HA           1002a680     libucrt:mbctype.obj
 0003:00001684       ?initialized@?1??__acrt_initialize_multibyte@@9@4_NA 1002a684     libucrt:mbctype.obj
 0003:000016a4       ?ctrlc_action@@3V?$dual_state_global@P6AXH@Z@__crt_state_management@@A 1002a6a4     libucrt:signal.obj
 0003:000016a8       ?ctrlbreak_action@@3V?$dual_state_global@P6AXH@Z@__crt_state_management@@A 1002a6a8     libucrt:signal.obj
 0003:000016ac       ?abort_action@@3V?$dual_state_global@P6AXH@Z@__crt_state_management@@A 1002a6ac     libucrt:signal.obj
 0003:000016b0       ?term_action@@3V?$dual_state_global@P6AXH@Z@__crt_state_management@@A 1002a6b0     libucrt:signal.obj
 0003:000016b4       ?user_matherr@@3V?$dual_state_global@P6AHPAU_exception@@@Z@__crt_state_management@@A 1002a6b4     libucrt:matherr.obj
 0003:000016b8       ?__acrt_global_new_mode@@3V?$dual_state_global@J@__crt_state_management@@A 1002a6b8     libucrt:new_mode.obj
 0003:000016c4       ?internal_pst@?1??__mbrtoc32_utf8@__crt_mbstring@@YAIPA_UPBDIPAU_Mbstatet@@@Z@4U3@A 1002a6c4     libucrt:mbrtoc32.obj
 0003:000016cc       ?__acrt_app_type@@3W4_crt_app_type@@A 1002a6cc     libucrt:report_runtime_error.obj
 0003:000016d4       __pmatherr_set             1002a6d4     libucrt:libm_error.obj
 0004:00000220       $R000000                   1002b220     CoinDispenser.res
 0004:00000bc8       $R0009A8                   1002bbc8     CoinDispenser.res
 0004:00000cb0       $R000A90                   1002bcb0     CoinDispenser.res
 0004:00000f18       $R000CF8                   1002bf18     CoinDispenser.res
 0004:00001498       $R001278                   1002c498     CoinDispenser.res
 0004:00003b58       $R003938                   1002eb58     CoinDispenser.res
 0004:00003b98       $R003978                   1002eb98     CoinDispenser.res
