 OPOSPOSPower

 Timestamp is 5ed45950 (Mon Jun  1 10:26:40 2020)

 Preferred load address is 10000000

 Start         Length     Name                   Class
 0001:00000000 00000080H .text$di                CODE
 0001:00000080 0001dfb3H .text$mn                CODE
 0001:0001e033 00000036H .text$x                 CODE
 0001:0001e069 00000042H .text$yd                CODE
 0002:00000000 000002fcH .idata$5                DATA
 0002:000002fc 00000004H .00cfg                  DATA
 0002:00000300 00000004H .CRT$XCA                DATA
 0002:00000304 00000004H .CRT$XCL                DATA
 0002:00000308 00000010H .CRT$XCU                DATA
 0002:00000318 00000004H .CRT$XCZ                DATA
 0002:0000031c 00000004H .CRT$XIA                DATA
 0002:00000320 00000010H .CRT$XIC                DATA
 0002:00000330 00000004H .CRT$XIZ                DATA
 0002:00000334 00000004H .CRT$XLA                DATA
 0002:00000338 00000004H .CRT$XLZ                DATA
 0002:0000033c 00000004H .CRT$XPA                DATA
 0002:00000340 00000008H .CRT$XPX                DATA
 0002:00000348 00000004H .CRT$XPXA               DATA
 0002:0000034c 00000004H .CRT$XPZ                DATA
 0002:00000350 00000004H .CRT$XTA                DATA
 0002:00000354 0000000cH .CRT$XTZ                DATA
 0002:00000358 00000000H .gfids$y                DATA
 0002:00000360 00007298H .rdata                  DATA
 0002:000075f8 00000018H .rdata$T                DATA
 0002:00007610 00000178H .rdata$r                DATA
 0002:00007788 0000001cH .rdata$sxdata           DATA
 0002:000077a4 000003dcH .rdata$zzzdbg           DATA
 0002:00007b80 00000004H .rtc$IAA                DATA
 0002:00007b84 00000004H .rtc$IZZ                DATA
 0002:00007b88 00000004H .rtc$TAA                DATA
 0002:00007b8c 00000004H .rtc$TZZ                DATA
 0002:00007b90 00000004H .tls                    DATA
 0002:00007b94 00000004H .tls$                   DATA
 0002:00007b98 00000008H .tls$ZZZ                DATA
 0002:00007ba0 0000062cH .xdata$x                DATA
 0002:000081cc 00000004H ATL$__a                 DATA
 0002:000081d0 00000010H ATL$__z                 DATA
 0002:000081e0 000000acH .edata                  DATA
 0002:0000828c 00000078H .idata$2                DATA
 0002:00008304 00000014H .idata$3                DATA
 0002:00008318 000002fcH .idata$4                DATA
 0002:00008614 00000bceH .idata$6                DATA
 0003:00000000 00000aa0H .data                   DATA
 0003:00000aa0 00000098H .data$r                 DATA
 0003:00000b38 00000b80H .bss                    DATA
 0004:00000000 00000220H .rsrc$01                DATA
 0004:00000220 000043d0H .rsrc$02                DATA

  Address         Publics by Value              Rva+Base       Lib:Object

 0000:00000000       ___arm64x_redirection_metadata 00000000     <absolute>
 0000:00000000       ___guard_iat_count         00000000     <absolute>
 0000:00000000       ___x64_code_ranges_to_entry_points 00000000     <absolute>
 0000:00000000       ___guard_fids_count        00000000     <absolute>
 0000:00000000       ___guard_longjmp_table     00000000     <absolute>
 0000:00000000       ___hybrid_code_map_count   00000000     <absolute>
 0000:00000000       ___dynamic_value_reloc_table 00000000     <absolute>
 0000:00000000       ___guard_longjmp_count     00000000     <absolute>
 0000:00000000       __except_list              00000000     <absolute>
 0000:00000000       ___arm64x_native_entrypoint 00000000     <absolute>
 0000:00000000       ___guard_fids_table        00000000     <absolute>
 0000:00000000       ___guard_eh_cont_count     00000000     <absolute>
 0000:00000000       ___hybrid_auxiliary_iat    00000000     <absolute>
 0000:00000000       ___guard_iat_table         00000000     <absolute>
 0000:00000000       ___volatile_metadata       00000000     <absolute>
 0000:00000000       ___enclave_config          00000000     <absolute>
 0000:00000000       ___AbsoluteZero            00000000     <absolute>
 0000:00000000       ___guard_eh_cont_table     00000000     <absolute>
 0000:00000000       ___hybrid_code_map         00000000     <absolute>
 0000:00000007       ___safe_se_handler_count   00000007     <absolute>
 0000:0000002c       __tls_array                0000002c     <absolute>
 0000:00000100       ___guard_flags             00000100     <absolute>
 0000:00000000       ___ImageBase               10000000     <linker-defined>
 0001:00000080       ?DupWide@_CW@@AAEXXZ       10001080 f   CWString.obj
 0001:0000009c       ?cw_dup@@YGXPBDAAHAAPA_W1@Z 1000109c f   CWString.obj
 0001:00000124       ?cw_memcpy@@YGHPA_WPBDH@Z  10001124 f   CWString.obj
 0001:00000150       ?cw_strcpy@@YAHPA_WPBD@Z   10001150 f   CWString.obj
 0001:00000163       ?cw_strlen@@YAHPBD@Z       10001163 f   CWString.obj
 0001:0000017c       ??0CAtlComModule@ATL@@QAE@XZ 1000117c f i OposVariant.obj
 0001:000001c1       ??0CAtlWinModule@ATL@@QAE@XZ 100011c1 f i OposVariant.obj
 0001:000001f8       ??0OposDispParms@@QAE@PAVOposVariant@@H@Z 100011f8 f   OposVariant.obj
 0001:00000269       ??1OposDispParms@@QAE@XZ   10001269 f   OposVariant.obj
 0001:00000277       ??A?$CSimpleArray@GV?$CSimpleArrayEqualHelper@G@ATL@@@ATL@@QAEAAGH@Z 10001277 f i OposVariant.obj
 0001:0000029c       ??_Estringdispid@CComTypeInfoHolder@ATL@@QAEPAXI@Z 1000129c f i OposVariant.obj
 0001:00000308       ?AtlWinModuleInit@ATL@@YGJPAU_ATL_WIN_MODULE70@1@@Z 10001308 f i OposVariant.obj
 0001:0000032e       ?AtlWinModuleTerm@ATL@@YGJPAU_ATL_WIN_MODULE70@1@PAUHINSTANCE__@@@Z 1000132e f i OposVariant.obj
 0001:00000391       ?ChangeBSTR@OposVariant@@QAEXPAPA_WAAJ@Z 10001391 f   OposVariant.obj
 0001:000003d2       ?ChangeLONG@OposVariant@@QAEXPAJAAJ@Z 100013d2 f   OposVariant.obj
 0001:00000413       ?GetLONG@OposVariant@@QAEJXZ 10001413 f   OposVariant.obj
 0001:0000042e       ?Init@CComCriticalSection@ATL@@QAEJXZ 1000142e f i OposVariant.obj
 0001:00000456       ?RemoveAll@?$CSimpleArray@PAUHINSTANCE__@@V?$CSimpleArrayEqualHelper@PAUHINSTANCE__@@@ATL@@@ATL@@QAEXXZ 10001456 f i atls:atlbase.obj
 0001:00000456       ?RemoveAll@?$CSimpleArray@GV?$CSimpleArrayEqualHelper@G@ATL@@@ATL@@QAEXXZ 10001456 f i OposVariant.obj
 0001:00000473       ?SetBSTR@OposVariant@@QAEXPA_WAAJ@Z 10001473 f   OposVariant.obj
 0001:000004a7       ?SetBSTR_Copy@OposVariant@@QAEXPA_WAAJ@Z 100014a7 f   OposVariant.obj
 0001:000004f7       ?SetBSTR_InOutPtr@OposVariant@@QAE_NPAPA_WAAJ@Z 100014f7 f   OposVariant.obj
 0001:0000052e       ?SetDispatch_Ptr@OposVariant@@QAEXPAUIDispatch@@AAJ@Z 1000152e f   OposVariant.obj
 0001:00000569       ?SetLONG@OposVariant@@QAEXJ@Z 10001569 f   OposVariant.obj
 0001:0000058b       ?SetLONG_Ptr@OposVariant@@QAEXPAJAAJ@Z 1000158b f   OposVariant.obj
 0001:000005be       ?SetString@OposVariant@@QAEXPB_WAAJ@Z 100015be f   OposVariant.obj
 0001:00000604       ?SetVARIANT_BOOL@OposVariant@@QAEXF@Z 10001604 f   OposVariant.obj
 0001:0000062e       ?Term@CAtlComModule@ATL@@QAEXXZ 1000162e f i OposVariant.obj
 0001:00000678       ?_AtlRaiseException@ATL@@YAXKK@Z 10001678 f i OposVariant.obj
 0001:0000068d       ?Release@?$CComContainedObject@VCOPOSPOSPower@@@ATL@@WIA@AGKXZ 1000168d f i POSPower.obj
 0001:0000069a       ?QueryInterface@?$CComContainedObject@VCOPOSPOSPower@@@ATL@@WIE@AGJABU_GUID@@PAPAX@Z 1000169a f i POSPower.obj
 0001:000006a7       ?AddRef@?$CComContainedObject@VCOPOSPOSPower@@@ATL@@WIE@AGKXZ 100016a7 f i POSPower.obj
 0001:000006b4       ?Release@?$CComContainedObject@VCOPOSPOSPower@@@ATL@@WIE@AGKXZ 100016b4 f i POSPower.obj
 0001:000006c1       ?QueryInterface@?$CComContainedObject@VCOPOSPOSPower@@@ATL@@WII@AGJABU_GUID@@PAPAX@Z 100016c1 f i POSPower.obj
 0001:000006ce       ?AddRef@?$CComContainedObject@VCOPOSPOSPower@@@ATL@@WII@AGKXZ 100016ce f i POSPower.obj
 0001:000006db       ?Release@?$CComContainedObject@VCOPOSPOSPower@@@ATL@@WII@AGKXZ 100016db f i POSPower.obj
 0001:000006e8       ?QueryInterface@?$CComContainedObject@VCOPOSPOSPower@@@ATL@@WIM@AGJABU_GUID@@PAPAX@Z 100016e8 f i POSPower.obj
 0001:000006f5       ?AddRef@?$CComContainedObject@VCOPOSPOSPower@@@ATL@@WIM@AGKXZ 100016f5 f i POSPower.obj
 0001:00000702       ?Release@?$CComContainedObject@VCOPOSPOSPower@@@ATL@@WIM@AGKXZ 10001702 f i POSPower.obj
 0001:0000070f       ?QueryInterface@?$CComContainedObject@VCOPOSPOSPower@@@ATL@@WJA@AGJABU_GUID@@PAPAX@Z 1000170f f i POSPower.obj
 0001:0000071c       ?AddRef@?$CComContainedObject@VCOPOSPOSPower@@@ATL@@WJA@AGKXZ 1000171c f i POSPower.obj
 0001:00000729       ?Release@?$CComContainedObject@VCOPOSPOSPower@@@ATL@@WJA@AGKXZ 10001729 f i POSPower.obj
 0001:00000736       ?QueryInterface@?$CComContainedObject@VCOPOSPOSPower@@@ATL@@WJE@AGJABU_GUID@@PAPAX@Z 10001736 f i POSPower.obj
 0001:00000743       ?AddRef@?$CComContainedObject@VCOPOSPOSPower@@@ATL@@WJE@AGKXZ 10001743 f i POSPower.obj
 0001:00000750       ?Release@?$CComContainedObject@VCOPOSPOSPower@@@ATL@@WJE@AGKXZ 10001750 f i POSPower.obj
 0001:0000075d       ?QueryInterface@?$CComContainedObject@VCOPOSPOSPower@@@ATL@@WJI@AGJABU_GUID@@PAPAX@Z 1000175d f i POSPower.obj
 0001:0000076a       ?AddRef@?$CComContainedObject@VCOPOSPOSPower@@@ATL@@WJI@AGKXZ 1000176a f i POSPower.obj
 0001:00000777       ?Release@?$CComContainedObject@VCOPOSPOSPower@@@ATL@@WJI@AGKXZ 10001777 f i POSPower.obj
 0001:00000784       ?QueryInterface@?$CComContainedObject@VCOPOSPOSPower@@@ATL@@WJM@AGJABU_GUID@@PAPAX@Z 10001784 f i POSPower.obj
 0001:00000791       ?AddRef@?$CComContainedObject@VCOPOSPOSPower@@@ATL@@WJM@AGKXZ 10001791 f i POSPower.obj
 0001:0000079e       ?Release@?$CComContainedObject@VCOPOSPOSPower@@@ATL@@WJM@AGKXZ 1000179e f i POSPower.obj
 0001:000007ab       ?QueryInterface@?$CComContainedObject@VCOPOSPOSPower@@@ATL@@WKA@AGJABU_GUID@@PAPAX@Z 100017ab f i POSPower.obj
 0001:000007b8       ?AddRef@?$CComContainedObject@VCOPOSPOSPower@@@ATL@@WKA@AGKXZ 100017b8 f i POSPower.obj
 0001:000007c5       ?Release@?$CComContainedObject@VCOPOSPOSPower@@@ATL@@WKA@AGKXZ 100017c5 f i POSPower.obj
 0001:000007d2       ?AddRef@?$CComContainedObject@VCOPOSPOSPower@@@ATL@@WKI@AGKXZ 100017d2 f i POSPower.obj
 0001:000007df       ?Release@?$CComContainedObject@VCOPOSPOSPower@@@ATL@@WKI@AGKXZ 100017df f i POSPower.obj
 0001:000007ec       ?AddRef@?$CComContainedObject@VCOPOSPOSPower@@@ATL@@WLE@AGKXZ 100017ec f i POSPower.obj
 0001:000007f9       ?Release@?$CComContainedObject@VCOPOSPOSPower@@@ATL@@WLE@AGKXZ 100017f9 f i POSPower.obj
 0001:00000806       ?CreateInstance@CComClassFactory@ATL@@UAGJPAUIUnknown@@ABU_GUID@@PAPAX@Z 10001806 f i POSPower.obj
 0001:00000844       ?LockServer@CComClassFactory@ATL@@UAGJH@Z 10001844 f i POSPower.obj
 0001:00000863       ??_ECComClassFactory@ATL@@UAEPAXI@Z 10001863 f i POSPower.obj
 0001:00000863       ??_GCComClassFactory@ATL@@UAEPAXI@Z 10001863 f i POSPower.obj
 0001:0000088e       ?GetWindowProc@?$CWindowImplBaseT@VCWindow@ATL@@V?$CWinTraits@$0FGAAAAAA@$0A@@2@@ATL@@UAEP6GJPAUHWND__@@IIJ@ZXZ 1000188e f i POSPower.obj
 0001:00000894       ?StartWindowProc@?$CWindowImplBaseT@VCWindow@ATL@@V?$CWinTraits@$0FGAAAAAA@$0A@@2@@ATL@@SGJPAUHWND__@@IIJ@Z 10001894 f i POSPower.obj
 0001:000008e8       ?OnFinalMessage@?$CWindowImplBaseT@VCWindow@ATL@@V?$CWinTraits@$0FGAAAAAA@$0A@@2@@ATL@@UAEXPAUHWND__@@@Z 100018e8 f i POSPower.obj
 0001:000008e8       ?ObjectMain@CComObjectRootBase@ATL@@SGX_N@Z 100018e8 f i POSPower.obj
 0001:000008eb       ?GetTypeInfoCount@?$IDispatchImpl@UIOPOSPOSPower@@$1?IID_IOPOSPOSPower@@3U_GUID@@B$1?LIBID_OposPOSPower_CCO@@3U3@B$00$0A@VCComTypeInfoHolder@ATL@@@ATL@@UAGJPAI@Z 100018eb f i POSPower.obj
 0001:00000908       ?GetTypeInfo@?$IDispatchImpl@UIOPOSPOSPower@@$1?IID_IOPOSPOSPower@@3U_GUID@@B$1?LIBID_OposPOSPower_CCO@@3U3@B$00$0A@VCComTypeInfoHolder@ATL@@@ATL@@UAGJIKPAPAUITypeInfo@@@Z 10001908 f i POSPower.obj
 0001:0000092c       ?GetIDsOfNames@?$IDispatchImpl@UIOPOSPOSPower@@$1?IID_IOPOSPOSPower@@3U_GUID@@B$1?LIBID_OposPOSPower_CCO@@3U3@B$00$0A@VCComTypeInfoHolder@ATL@@@ATL@@UAGJABU_GUID@@PAPA_WIKPAJ@Z 1000192c f i POSPower.obj
 0001:0000094c       ?Invoke@?$IDispatchImpl@UIOPOSPOSPower@@$1?IID_IOPOSPOSPower@@3U_GUID@@B$1?LIBID_OposPOSPower_CCO@@3U3@B$00$0A@VCComTypeInfoHolder@ATL@@@ATL@@UAGJJABU_GUID@@KGPAUtagDISPPARAMS@@PAUtagVARIANT@@PAUtagEXCEPINFO@@PAI@Z 1000194c f i POSPower.obj
 0001:0000095a       ?CreateControlWindow@?$CComControl@VCOPOSPOSPower@@V?$CWindowImpl@VCOPOSPOSPower@@VCWindow@ATL@@V?$CWinTraits@$0FGAAAAAA@$0A@@3@@ATL@@@ATL@@UAEPAUHWND__@@PAU3@AAUtagRECT@@@Z 1000195a f i POSPower.obj
 0001:00000989       ?ControlQueryInterface@?$CComControl@VCOPOSPOSPower@@V?$CWindowImpl@VCOPOSPOSPower@@VCWindow@ATL@@V?$CWinTraits@$0FGAAAAAA@$0A@@3@@ATL@@@ATL@@UAEJABU_GUID@@PAPAX@Z 10001989 f i POSPower.obj
 0001:000009a4       ?GetClassID@?$IPersistStorageImpl@VCOPOSPOSPower@@@ATL@@UAGJPAU_GUID@@@Z 100019a4 f i POSPower.obj
 0001:000009a4       ?GetUserClassID@?$IOleObjectImpl@VCOPOSPOSPower@@@ATL@@UAGJPAU_GUID@@@Z 100019a4 f i POSPower.obj
 0001:000009a4       ?GetClassID@?$IPersistStreamInitImpl@VCOPOSPOSPower@@@ATL@@UAGJPAU_GUID@@@Z 100019a4 f i POSPower.obj
 0001:000009c8       ?IsDirty@?$IPersistStreamInitImpl@VCOPOSPOSPower@@@ATL@@UAGJXZ 100019c8 f i POSPower.obj
 0001:000009e7       ?Load@?$IPersistStreamInitImpl@VCOPOSPOSPower@@@ATL@@UAGJPAUIStream@@@Z 100019e7 f i POSPower.obj
 0001:00000a06       ?Save@?$IPersistStreamInitImpl@VCOPOSPOSPower@@@ATL@@UAGJPAUIStream@@H@Z 10001a06 f i POSPower.obj
 0001:00000a28       ?GetSizeMax@?$IPersistStreamInitImpl@VCOPOSPOSPower@@@ATL@@UAGJPAT_ULARGE_INTEGER@@@Z 10001a28 f i POSPower.obj
 0001:00000c07       ?InitNew@?$IPersistStreamInitImpl@VCOPOSPOSPower@@@ATL@@UAGJXZ 10001c07 f i POSPower.obj
 0001:00000c24       ?SOOutputCompleteDummy@COPOSPOSPower@@MAGJJ@Z 10001c24 f i POSPower.obj
 0001:00000c24       ?GetDropTarget@?$IOleInPlaceObjectWindowlessImpl@VCOPOSPOSPower@@@ATL@@UAGJPAPAUIDropTarget@@@Z 10001c24 f i POSPower.obj
 0001:00000c24       ?ContextSensitiveHelp@?$IOleInPlaceActiveObjectImpl@VCOPOSPOSPower@@@ATL@@UAGJH@Z 10001c24 f i POSPower.obj
 0001:00000c24       ?SODataDummy@COPOSPOSPower@@MAGJJ@Z 10001c24 f i POSPower.obj
 0001:00000c24       ?Unfreeze@?$IViewObjectExImpl@VCOPOSPOSPower@@@ATL@@UAGJK@Z 10001c24 f i POSPower.obj
 0001:00000c24       ?SetColorScheme@?$IOleObjectImpl@VCOPOSPOSPower@@@ATL@@UAGJPAUtagLOGPALETTE@@@Z 10001c24 f i POSPower.obj
 0001:00000c24       ?OnMnemonic@?$IOleControlImpl@VCOPOSPOSPower@@@ATL@@UAGJPAUtagMSG@@@Z 10001c24 f i POSPower.obj
 0001:00000c24       ?ContextSensitiveHelp@?$IOleInPlaceObjectWindowlessImpl@VCOPOSPOSPower@@@ATL@@UAGJH@Z 10001c24 f i POSPower.obj
 0001:00000c24       ?QueryGetData@?$IDataObjectImpl@VCOPOSPOSPower@@@ATL@@UAGJPAUtagFORMATETC@@@Z 10001c24 f i POSPower.obj
 0001:00000c24       ?GetControlInfo@?$IOleControlImpl@VCOPOSPOSPower@@@ATL@@UAGJPAUtagCONTROLINFO@@@Z 10001c24 f i POSPower.obj
 0001:00000c2c       ?EnableModeless@?$IOleInPlaceActiveObjectImpl@VCOPOSPOSPower@@@ATL@@UAGJH@Z 10001c2c f i POSPower.obj
 0001:00000c2c       ?OnFrameWindowActivate@?$IOleInPlaceActiveObjectImpl@VCOPOSPOSPower@@@ATL@@UAGJH@Z 10001c2c f i POSPower.obj
 0001:00000c2c       ?OnAmbientPropertyChange@?$IOleControlImpl@VCOPOSPOSPower@@@ATL@@UAGJJ@Z 10001c2c f i POSPower.obj
 0001:00000c2c       ?SaveCompleted@?$IPersistStorageImpl@VCOPOSPOSPower@@@ATL@@UAGJPAUIStorage@@@Z 10001c2c f i POSPower.obj
 0001:00000c31       ?SetClientSite@?$IOleObjectImpl@VCOPOSPOSPower@@@ATL@@UAGJPAUIOleClientSite@@@Z 10001c31 f i POSPower.obj
 0001:00000c4e       ?GetClientSite@?$IOleObjectImpl@VCOPOSPOSPower@@@ATL@@UAGJPAPAUIOleClientSite@@@Z 10001c4e f i POSPower.obj
 0001:00000c6b       ?SetHostNames@?$IOleObjectImpl@VCOPOSPOSPower@@@ATL@@UAGJPB_W0@Z 10001c6b f i POSPower.obj
 0001:00000c70       ?Close@?$IOleObjectImpl@VCOPOSPOSPower@@@ATL@@UAGJK@Z 10001c70 f i POSPower.obj
 0001:00000c8d       ?GetCanonicalFormatEtc@?$IDataObjectImpl@VCOPOSPOSPower@@@ATL@@UAGJPAUtagFORMATETC@@0@Z 10001c8d f i POSPower.obj
 0001:00000c8d       ?GetDataHere@?$IDataObjectImpl@VCOPOSPOSPower@@@ATL@@UAGJPAUtagFORMATETC@@PAUtagSTGMEDIUM@@@Z 10001c8d f i POSPower.obj
 0001:00000c8d       ?GetRect@?$IViewObjectExImpl@VCOPOSPOSPower@@@ATL@@UAGJKPAU_RECTL@@@Z 10001c8d f i POSPower.obj
 0001:00000c8d       ?EnumFormatEtc@?$IDataObjectImpl@VCOPOSPOSPower@@@ATL@@UAGJKPAPAUIEnumFORMATETC@@@Z 10001c8d f i POSPower.obj
 0001:00000c8d       ?GetClipboardData@?$IOleObjectImpl@VCOPOSPOSPower@@@ATL@@UAGJKPAPAUIDataObject@@@Z 10001c8d f i POSPower.obj
 0001:00000c8d       ?QueryInterface@CRegObject@ATL@@UAGJABU_GUID@@PAPAX@Z 10001c8d f i POSPower.obj
 0001:00000c8d       ?SetMoniker@?$IOleObjectImpl@VCOPOSPOSPower@@@ATL@@UAGJKPAUIMoniker@@@Z 10001c8d f i POSPower.obj
 0001:00000c95       ?GetMoniker@?$IOleObjectImpl@VCOPOSPOSPower@@@ATL@@UAGJKKPAPAUIMoniker@@@Z 10001c95 f i POSPower.obj
 0001:00000c95       ?SetData@?$IDataObjectImpl@VCOPOSPOSPower@@@ATL@@UAGJPAUtagFORMATETC@@PAUtagSTGMEDIUM@@H@Z 10001c95 f i POSPower.obj
 0001:00000c95       ?InitFromData@?$IOleObjectImpl@VCOPOSPOSPower@@@ATL@@UAGJPAUIDataObject@@HK@Z 10001c95 f i POSPower.obj
 0001:00000c9d       ?DoVerb@?$IOleObjectImpl@VCOPOSPOSPower@@@ATL@@UAGJJPAUtagMSG@@PAUIOleClientSite@@JPAUHWND__@@PBUtagRECT@@@Z 10001c9d f i POSPower.obj
 0001:00000d91       ?EnumVerbs@?$IOleObjectImpl@VCOPOSPOSPower@@@ATL@@UAGJPAPAUIEnumOLEVERB@@@Z 10001d91 f i POSPower.obj
 0001:00000db3       ?HandsOffStorage@?$IPersistStorageImpl@VCOPOSPOSPower@@@ATL@@UAGJXZ 10001db3 f i POSPower.obj
 0001:00000db3       ?IsUpToDate@?$IOleObjectImpl@VCOPOSPOSPower@@@ATL@@UAGJXZ 10001db3 f i POSPower.obj
 0001:00000db3       ?Update@?$IOleObjectImpl@VCOPOSPOSPower@@@ATL@@UAGJXZ 10001db3 f i POSPower.obj
 0001:00000db3       ?Release@CRegObject@ATL@@UAGKXZ 10001db3 f i POSPower.obj
 0001:00000db8       ?GetUserType@?$IOleObjectImpl@VCOPOSPOSPower@@@ATL@@UAGJKPAPA_W@Z 10001db8 f i POSPower.obj
 0001:00000dd0       ?SetExtent@?$IOleObjectImpl@VCOPOSPOSPower@@@ATL@@UAGJKPAUtagSIZE@@@Z 10001dd0 f i POSPower.obj
 0001:00000df0       ?GetExtent@?$IOleObjectImpl@VCOPOSPOSPower@@@ATL@@UAGJKPAUtagSIZE@@@Z 10001df0 f i POSPower.obj
 0001:00000e2e       ?Advise@?$IOleObjectImpl@VCOPOSPOSPower@@@ATL@@UAGJPAUIAdviseSink@@PAK@Z 10001e2e f i POSPower.obj
 0001:00000e4e       ?Unadvise@?$IOleObjectImpl@VCOPOSPOSPower@@@ATL@@UAGJK@Z 10001e4e f i POSPower.obj
 0001:00000e7d       ?EnumAdvise@?$IOleObjectImpl@VCOPOSPOSPower@@@ATL@@UAGJPAPAUIEnumSTATDATA@@@Z 10001e7d f i POSPower.obj
 0001:00000ebd       ?GetMiscStatus@?$IOleObjectImpl@VCOPOSPOSPower@@@ATL@@UAGJKPAK@Z 10001ebd f i POSPower.obj
 0001:00000ed5       ?GetWindow@?$IOleInPlaceActiveObjectImpl@VCOPOSPOSPower@@@ATL@@UAGJPAPAUHWND__@@@Z 10001ed5 f i POSPower.obj
 0001:00000f22       ?TranslateAcceleratorW@?$IOleInPlaceActiveObjectImpl@VCOPOSPOSPower@@@ATL@@UAGJPAUtagMSG@@@Z 10001f22 f i POSPower.obj
 0001:00000fd0       ?OnDocWindowActivate@?$IOleInPlaceActiveObjectImpl@VCOPOSPOSPower@@@ATL@@UAGJH@Z 10001fd0 f i POSPower.obj
 0001:00000ff2       ?ResizeBorder@?$IOleInPlaceActiveObjectImpl@VCOPOSPOSPower@@@ATL@@UAGJPBUtagRECT@@PAUIOleInPlaceUIWindow@@H@Z 10001ff2 f i POSPower.obj
 0001:00000ff7       ?Draw@?$IViewObjectExImpl@VCOPOSPOSPower@@@ATL@@UAGJKJPAXPAUtagDVTARGETDEVICE@@PAUHDC__@@2PBU_RECTL@@3P6GHK@ZK@Z 10001ff7 f i POSPower.obj
 0001:00001029       ?GetColorSet@?$IViewObjectExImpl@VCOPOSPOSPower@@@ATL@@UAGJKJPAXPAUtagDVTARGETDEVICE@@PAUHDC__@@PAPAUtagLOGPALETTE@@@Z 10002029 f i POSPower.obj
 0001:00001031       ?SOErrorDummy@COPOSPOSPower@@MAGJJJJPAJ@Z 10002031 f i POSPower.obj
 0001:00001031       ?Freeze@?$IViewObjectExImpl@VCOPOSPOSPower@@@ATL@@UAGJKJPAXPAK@Z 10002031 f i POSPower.obj
 0001:00001039       ?SetAdvise@?$IViewObjectExImpl@VCOPOSPOSPower@@@ATL@@UAGJKKPAUIAdviseSink@@@Z 10002039 f i POSPower.obj
 0001:00001058       ?GetAdvise@?$IViewObjectExImpl@VCOPOSPOSPower@@@ATL@@UAGJPAK0PAPAUIAdviseSink@@@Z 10002058 f i POSPower.obj
 0001:0000108d       ?GetExtent@?$IViewObjectExImpl@VCOPOSPOSPower@@@ATL@@UAGJKJPAUtagDVTARGETDEVICE@@PAUtagSIZE@@@Z 1000208d f i POSPower.obj
 0001:000010be       ?GetViewStatus@?$IViewObjectExImpl@VCOPOSPOSPower@@@ATL@@UAGJPAK@Z 100020be f i POSPower.obj
 0001:000010db       ?QueryHitPoint@?$IViewObjectExImpl@VCOPOSPOSPower@@@ATL@@UAGJKPBUtagRECT@@UtagPOINT@@JPAK@Z 100020db f i POSPower.obj
 0001:0000111c       ?QueryHitRect@?$IViewObjectExImpl@VCOPOSPOSPower@@@ATL@@UAGJKPBUtagRECT@@0JPAK@Z 1000211c f i POSPower.obj
 0001:00001177       ?GetNaturalExtent@?$IViewObjectExImpl@VCOPOSPOSPower@@@ATL@@UAGJKJPAUtagDVTARGETDEVICE@@PAUHDC__@@PAUtagExtentInfo@@PAUtagSIZE@@@Z 10002177 f i POSPower.obj
 0001:000011c2       ?GetWindow@?$IOleInPlaceObjectWindowlessImpl@VCOPOSPOSPower@@@ATL@@UAGJPAPAUHWND__@@@Z 100021c2 f i POSPower.obj
 0001:0000120f       ?InPlaceDeactivate@?$IOleInPlaceObjectWindowlessImpl@VCOPOSPOSPower@@@ATL@@UAGJXZ 1000220f f i POSPower.obj
 0001:00001229       ?UIDeactivate@?$IOleInPlaceObjectWindowlessImpl@VCOPOSPOSPower@@@ATL@@UAGJXZ 10002229 f i POSPower.obj
 0001:00001243       ?SetObjectRects@?$IOleInPlaceObjectWindowlessImpl@VCOPOSPOSPower@@@ATL@@UAGJPBUtagRECT@@0@Z 10002243 f i POSPower.obj
 0001:00001263       ?ReactivateAndUndo@?$IOleInPlaceObjectWindowlessImpl@VCOPOSPOSPower@@@ATL@@UAGJXZ 10002263 f i POSPower.obj
 0001:0000126b       ?OnWindowMessage@?$IOleInPlaceObjectWindowlessImpl@VCOPOSPOSPower@@@ATL@@UAGJIIJPAJ@Z 1000226b f i POSPower.obj
 0001:000012db       ?EnumConnectionPoints@?$IConnectionPointContainerImpl@VCOPOSPOSPower@@@ATL@@UAGJPAPAUIEnumConnectionPoints@@@Z 100022db f i POSPower.obj
 0001:00001467       ?FindConnectionPoint@?$IConnectionPointContainerImpl@VCOPOSPOSPower@@@ATL@@UAGJABU_GUID@@PAPAUIConnectionPoint@@@Z 10002467 f i POSPower.obj
 0001:0000150a       ?IsDirty@?$IPersistStorageImpl@VCOPOSPOSPower@@@ATL@@UAGJXZ 1000250a f i POSPower.obj
 0001:0000153a       ?InitNew@?$IPersistStorageImpl@VCOPOSPOSPower@@@ATL@@UAGJPAUIStorage@@@Z 1000253a f i POSPower.obj
 0001:0000156a       ?Load@?$IPersistStorageImpl@VCOPOSPOSPower@@@ATL@@UAGJPAUIStorage@@@Z 1000256a f i POSPower.obj
 0001:000015d6       ?Save@?$IPersistStorageImpl@VCOPOSPOSPower@@@ATL@@UAGJPAUIStorage@@H@Z 100025d6 f i POSPower.obj
 0001:00001649       ?GetPages@?$ISpecifyPropertyPagesImpl@VCOPOSPOSPower@@@ATL@@UAGJPAUtagCAUUID@@@Z 10002649 f i POSPower.obj
 0001:00001660       ?QuickActivate@?$IQuickActivateImpl@VCOPOSPOSPower@@@ATL@@UAGJPAUtagQACONTAINER@@PAUtagQACONTROL@@@Z 10002660 f i POSPower.obj
 0001:00001683       ?SetContentExtent@?$IQuickActivateImpl@VCOPOSPOSPower@@@ATL@@UAGJPAUtagSIZE@@@Z 10002683 f i POSPower.obj
 0001:000016af       ?GetContentExtent@?$IQuickActivateImpl@VCOPOSPOSPower@@@ATL@@UAGJPAUtagSIZE@@@Z 100026af f i POSPower.obj
 0001:000016e9       ?GetData@?$IDataObjectImpl@VCOPOSPOSPower@@@ATL@@UAGJPAUtagFORMATETC@@PAUtagSTGMEDIUM@@@Z 100026e9 f i POSPower.obj
 0001:0000170c       ?DAdvise@?$IDataObjectImpl@VCOPOSPOSPower@@@ATL@@UAGJPAUtagFORMATETC@@KPAUIAdviseSink@@PAK@Z 1000270c f i POSPower.obj
 0001:0000174d       ?DUnadvise@?$IDataObjectImpl@VCOPOSPOSPower@@@ATL@@UAGJK@Z 1000274d f i POSPower.obj
 0001:0000177b       ?EnumDAdvise@?$IDataObjectImpl@VCOPOSPOSPower@@@ATL@@UAGJPAPAUIEnumSTATDATA@@@Z 1000277b f i POSPower.obj
 0001:000017ba       ?GetClassInfoW@?$IProvideClassInfo2Impl@$1?CLSID_OPOSPOSPower@@3U_GUID@@B$1?DIID__IOPOSPOSPowerEvents@@3U2@B$1?LIBID_OposPOSPower_CCO@@3U2@B$00$0A@VCComTypeInfoHolder@ATL@@@ATL@@UAGJPAPAUITypeInfo@@@Z 100027ba f i POSPower.obj
 0001:000017d0       ?GetGUID@?$IProvideClassInfo2Impl@$1?CLSID_OPOSPOSPower@@3U_GUID@@B$1?DIID__IOPOSPOSPowerEvents@@3U2@B$1?LIBID_OposPOSPower_CCO@@3U2@B$00$0A@VCComTypeInfoHolder@ATL@@@ATL@@UAGJKPAU_GUID@@@Z 100027d0 f i POSPower.obj
 0001:0000180e       ?FAccessAllowed@?$IObjectSafetyImpl@VCOPOSPOSPower@@$02@ATL@@MAEHXZ 1000280e f i POSPower.obj
 0001:0000180e       __get_startup_argv_mode    1000280e f i LIBCMT:argv_mode.obj
 0001:00001812       ?GetInterfaceSafetyOptions@?$IObjectSafetyImpl@VCOPOSPOSPower@@$02@ATL@@UAGJABU_GUID@@PAK1@Z 10002812 f i POSPower.obj
 0001:00001886       ?SetInterfaceSafetyOptions@?$IObjectSafetyImpl@VCOPOSPOSPower@@$02@ATL@@UAGJABU_GUID@@KK@Z 10002886 f i POSPower.obj
 0001:00001900       ?_LocCPQueryInterface@?$IConnectionPointImpl@VCOPOSPOSPower@@$1?IID_IPropertyNotifySink@@3U_GUID@@BVCComDynamicUnkArray@ATL@@@ATL@@UAGJABU_GUID@@PAPAX@Z 10002900 f i POSPower.obj
 0001:00001900       ?_LocCPQueryInterface@?$IConnectionPointImpl@VCOPOSPOSPower@@$1?DIID__IOPOSPOSPowerEvents@@3U_GUID@@BVCComDynamicUnkArray@ATL@@@ATL@@UAGJABU_GUID@@PAPAX@Z 10002900 f i POSPower.obj
 0001:0000194d       ?GetConnectionInterface@?$IConnectionPointImpl@VCOPOSPOSPower@@$1?IID_IPropertyNotifySink@@3U_GUID@@BVCComDynamicUnkArray@ATL@@@ATL@@UAGJPAU_GUID@@@Z 1000294d f i POSPower.obj
 0001:00001971       ?GetConnectionPointContainer@?$IConnectionPointImpl@VCOPOSPOSPower@@$1?IID_IPropertyNotifySink@@3U_GUID@@BVCComDynamicUnkArray@ATL@@@ATL@@UAGJPAPAUIConnectionPointContainer@@@Z 10002971 f i POSPower.obj
 0001:00001994       ?Advise@?$IConnectionPointImpl@VCOPOSPOSPower@@$1?IID_IPropertyNotifySink@@3U_GUID@@BVCComDynamicUnkArray@ATL@@@ATL@@UAGJPAUIUnknown@@PAK@Z 10002994 f i POSPower.obj
 0001:00001994       ?Advise@?$IConnectionPointImpl@VCOPOSPOSPower@@$1?DIID__IOPOSPOSPowerEvents@@3U_GUID@@BVCComDynamicUnkArray@ATL@@@ATL@@UAGJPAUIUnknown@@PAK@Z 10002994 f i POSPower.obj
 0001:00001a34       ?Unadvise@?$IConnectionPointImpl@VCOPOSPOSPower@@$1?IID_IPropertyNotifySink@@3U_GUID@@BVCComDynamicUnkArray@ATL@@@ATL@@UAGJK@Z 10002a34 f i POSPower.obj
 0001:00001a34       ?Unadvise@?$IConnectionPointImpl@VCOPOSPOSPower@@$1?DIID__IOPOSPOSPowerEvents@@3U_GUID@@BVCComDynamicUnkArray@ATL@@@ATL@@UAGJK@Z 10002a34 f i POSPower.obj
 0001:00001a74       ?EnumConnections@?$IConnectionPointImpl@VCOPOSPOSPower@@$1?DIID__IOPOSPOSPowerEvents@@3U_GUID@@BVCComDynamicUnkArray@ATL@@@ATL@@UAGJPAPAUIEnumConnections@@@Z 10002a74 f i POSPower.obj
 0001:00001a74       ?EnumConnections@?$IConnectionPointImpl@VCOPOSPOSPower@@$1?IID_IPropertyNotifySink@@3U_GUID@@BVCComDynamicUnkArray@ATL@@@ATL@@UAGJPAPAUIEnumConnections@@@Z 10002a74 f i POSPower.obj
 0001:00001b6f       ?GetObjectDescription@?$CComCoClass@VCOPOSPOSPower@@$1?CLSID_OPOSPOSPower@@3U_GUID@@B@ATL@@SGPB_WXZ 10002b6f f i POSPower.obj
 0001:00001b6f       ?GetCategoryMap@CComObjectRootBase@ATL@@SAPBU_ATL_CATMAP_ENTRY@2@XZ 10002b6f f i POSPower.obj
 0001:00001b72       ?GetConnectionInterface@?$IConnectionPointImpl@VCOPOSPOSPower@@$1?DIID__IOPOSPOSPowerEvents@@3U_GUID@@BVCComDynamicUnkArray@ATL@@@ATL@@UAGJPAU_GUID@@@Z 10002b72 f i POSPower.obj
 0001:00001b96       ?GetConnectionPointContainer@?$IConnectionPointImpl@VCOPOSPOSPower@@$1?DIID__IOPOSPOSPowerEvents@@3U_GUID@@BVCComDynamicUnkArray@ATL@@@ATL@@UAGJPAPAUIConnectionPointContainer@@@Z 10002b96 f i POSPower.obj
 0001:00001bb9       ?UpdateRegistry@COPOSPOSPower@@SGJH@Z 10002bb9 f i POSPower.obj
 0001:00001bd1       ?ProcessWindowMessage@COPOSPOSPower@@UAEHPAUHWND__@@IIJAAJK@Z 10002bd1 f i POSPower.obj
 0001:00001c1a       ?SODirectIO@COPOSPOSPower@@MAGJJPAJPAPA_W@Z 10002c1a f i POSPower.obj
 0001:00001c63       ?SOStatusUpdate@COPOSPOSPower@@MAGJJ@Z 10002c63 f i POSPower.obj
 0001:00001c9c       ?Lock@CAtlModule@ATL@@UAEJXZ 10002c9c f i POSPower.obj
 0001:00001ca6       ?Unlock@CAtlModule@ATL@@UAEJXZ 10002ca6 f i POSPower.obj
 0001:00001cb0       ?GetLockCount@CAtlModule@ATL@@UAEJXZ 10002cb0 f i POSPower.obj
 0001:00001cb4       ?GetGITPtr@CAtlModule@ATL@@UAEJPAPAUIGlobalInterfaceTable@@@Z 10002cb4 f i POSPower.obj
 0001:00001d00       ?AddCommonRGSReplacements@?$CAtlModuleT@VCComModule@ATL@@@ATL@@UAEJPAUIRegistrarBase@@@Z 10002d00 f i POSPower.obj
 0001:00001d1a       ?UpdateRegistryFromResourceD@CComModule@ATL@@UAGJPB_WHPAU_ATL_REGMAP_ENTRY@2@@Z 10002d1a f i POSPower.obj
 0001:00001d1a       ?UpdateRegistryFromResourceD@CComModule@ATL@@UAGJIHPAU_ATL_REGMAP_ENTRY@2@@Z 10002d1a f i POSPower.obj
 0001:00001d22       ?UpdateRegistryFromResource@CComModule@ATL@@UAGJPB_WHPAU_ATL_REGMAP_ENTRY@2@@Z 10002d22 f i POSPower.obj
 0001:00001d2b       ?UpdateRegistryFromResource@CComModule@ATL@@UAGJIHPAU_ATL_REGMAP_ENTRY@2@@Z 10002d2b f i POSPower.obj
 0001:00001d34       ?CreateInstance@?$CComCreator@V?$CComObjectCached@VCComClassFactory@ATL@@@ATL@@@ATL@@SGJPAXABU_GUID@@PAPAX@Z 10002d34 f i POSPower.obj
 0001:00001dd4       ?CreateInstance@?$CComCreator2@V?$CComCreator@V?$CComObject@VCOPOSPOSPower@@@ATL@@@ATL@@V?$CComCreator@V?$CComAggObject@VCOPOSPOSPower@@@ATL@@@2@@ATL@@SGJPAXABU_GUID@@PAPAX@Z 10002dd4 f i POSPower.obj
 0001:00001df4       ??_ECComModule@ATL@@UAEPAXI@Z 10002df4 f i POSPower.obj
 0001:00001df4       ??_GCComModule@ATL@@UAEPAXI@Z 10002df4 f i POSPower.obj
 0001:00001e1c       ?AddRef@?$CComObjectCached@VCComClassFactory@ATL@@@ATL@@UAGKXZ 10002e1c f i POSPower.obj
 0001:00001e43       ?Release@?$CComObjectCached@VCComClassFactory@ATL@@@ATL@@UAGKXZ 10002e43 f i POSPower.obj
 0001:00001e79       ?QueryInterface@?$CComObjectCached@VCComClassFactory@ATL@@@ATL@@UAGJABU_GUID@@PAPAX@Z 10002e79 f i POSPower.obj
 0001:00001e93       ??_G?$CComObjectCached@VCComClassFactory@ATL@@@ATL@@UAEPAXI@Z 10002e93 f i POSPower.obj
 0001:00001e93       ??_E?$CComObjectCached@VCComClassFactory@ATL@@@ATL@@UAEPAXI@Z 10002e93 f i POSPower.obj
 0001:00001eb5       ?Next@?$CComEnumImpl@UIEnumConnectionPoints@@$1?_GUID_b196b285_bab4_101a_b69c_00aa00341d07@@3U__s_GUID@@BPAUIConnectionPoint@@V?$_CopyInterface@UIConnectionPoint@@@ATL@@@ATL@@UAGJKPAPAUIConnectionPoint@@PAK@Z 10002eb5 f i POSPower.obj
 0001:00001f8c       ?Skip@?$CComEnumImpl@UIEnumConnectionPoints@@$1?_GUID_b196b285_bab4_101a_b69c_00aa00341d07@@3U__s_GUID@@BPAUIConnectionPoint@@V?$_CopyInterface@UIConnectionPoint@@@ATL@@@ATL@@UAGJK@Z 10002f8c f i POSPower.obj
 0001:00001fb9       ?Reset@?$CComEnumImpl@UIEnumConnections@@$1?_GUID_b196b287_bab4_101a_b69c_00aa00341d07@@3U__s_GUID@@BUtagCONNECTDATA@@V?$_Copy@UtagCONNECTDATA@@@ATL@@@ATL@@UAGJXZ 10002fb9 f i POSPower.obj
 0001:00001fb9       ?Reset@?$CComEnumImpl@UIEnumConnectionPoints@@$1?_GUID_b196b285_bab4_101a_b69c_00aa00341d07@@3U__s_GUID@@BPAUIConnectionPoint@@V?$_CopyInterface@UIConnectionPoint@@@ATL@@@ATL@@UAGJXZ 10002fb9 f i POSPower.obj
 0001:00001fcb       ?Clone@?$CComEnumImpl@UIEnumConnectionPoints@@$1?_GUID_b196b285_bab4_101a_b69c_00aa00341d07@@3U__s_GUID@@BPAUIConnectionPoint@@V?$_CopyInterface@UIConnectionPoint@@@ATL@@@ATL@@UAGJPAPAUIEnumConnectionPoints@@@Z 10002fcb f i POSPower.obj
 0001:000020ac       ?AddRef@?$CComObject@V?$CComEnum@UIEnumConnectionPoints@@$1?_GUID_b196b285_bab4_101a_b69c_00aa00341d07@@3U__s_GUID@@BPAUIConnectionPoint@@V?$_CopyInterface@UIConnectionPoint@@@ATL@@VCComSingleThreadModel@6@@ATL@@@ATL@@UAGKXZ 100030ac f i POSPower.obj
 0001:000020ac       ?AddRef@?$CComObject@V?$CComEnum@UIEnumConnections@@$1?_GUID_b196b287_bab4_101a_b69c_00aa00341d07@@3U__s_GUID@@BUtagCONNECTDATA@@V?$_Copy@UtagCONNECTDATA@@@ATL@@VCComSingleThreadModel@6@@ATL@@@ATL@@UAGKXZ 100030ac f i POSPower.obj
 0001:000020bd       ?Release@?$CComObject@V?$CComEnum@UIEnumConnections@@$1?_GUID_b196b287_bab4_101a_b69c_00aa00341d07@@3U__s_GUID@@BUtagCONNECTDATA@@V?$_Copy@UtagCONNECTDATA@@@ATL@@VCComSingleThreadModel@6@@ATL@@@ATL@@UAGKXZ 100030bd f i POSPower.obj
 0001:000020bd       ?Release@?$CComObject@V?$CComEnum@UIEnumConnectionPoints@@$1?_GUID_b196b285_bab4_101a_b69c_00aa00341d07@@3U__s_GUID@@BPAUIConnectionPoint@@V?$_CopyInterface@UIConnectionPoint@@@ATL@@VCComSingleThreadModel@6@@ATL@@@ATL@@UAGKXZ 100030bd f i POSPower.obj
 0001:000020f9       ?QueryInterface@?$CComObject@V?$CComEnum@UIEnumConnectionPoints@@$1?_GUID_b196b285_bab4_101a_b69c_00aa00341d07@@3U__s_GUID@@BPAUIConnectionPoint@@V?$_CopyInterface@UIConnectionPoint@@@ATL@@VCComSingleThreadModel@6@@ATL@@@ATL@@UAGJABU_GUID@@PAPAX@Z 100030f9 f i POSPower.obj
 0001:00002113       ??_E?$CComObject@V?$CComEnum@UIEnumConnectionPoints@@$1?_GUID_b196b285_bab4_101a_b69c_00aa00341d07@@3U__s_GUID@@BPAUIConnectionPoint@@V?$_CopyInterface@UIConnectionPoint@@@ATL@@VCComSingleThreadModel@6@@ATL@@@ATL@@UAEPAXI@Z 10003113 f i POSPower.obj
 0001:00002113       ??_G?$CComObject@V?$CComEnum@UIEnumConnectionPoints@@$1?_GUID_b196b285_bab4_101a_b69c_00aa00341d07@@3U__s_GUID@@BPAUIConnectionPoint@@V?$_CopyInterface@UIConnectionPoint@@@ATL@@VCComSingleThreadModel@6@@ATL@@@ATL@@UAEPAXI@Z 10003113 f i POSPower.obj
 0001:00002135       ?AddRef@CRegObject@ATL@@UAGKXZ 10003135 f i POSPower.obj
 0001:0000213b       ?AddReplacement@CRegObject@ATL@@UAGJPB_W0@Z 1000313b f i POSPower.obj
 0001:00002174       ?ClearReplacements@CRegObject@ATL@@UAGJXZ 10003174 f i POSPower.obj
 0001:00002186       ??_ECRegObject@ATL@@UAEPAXI@Z 10003186 f i POSPower.obj
 0001:00002186       ??_GCRegObject@ATL@@UAEPAXI@Z 10003186 f i POSPower.obj
 0001:000021a8       ?AddRef@?$CComAggObject@VCOPOSPOSPower@@@ATL@@UAGKXZ 100031a8 f i POSPower.obj
 0001:000021b9       ?Release@?$CComAggObject@VCOPOSPOSPower@@@ATL@@UAGKXZ 100031b9 f i POSPower.obj
 0001:000021f5       ?QueryInterface@?$CComAggObject@VCOPOSPOSPower@@@ATL@@UAGJABU_GUID@@PAPAX@Z 100031f5 f i POSPower.obj
 0001:00002244       ?AddRef@?$CComContainedObject@VCOPOSPOSPower@@@ATL@@UAGKXZ 10003244 f i POSPower.obj
 0001:0000225a       ?Release@?$CComContainedObject@VCOPOSPOSPower@@@ATL@@UAGKXZ 1000325a f i POSPower.obj
 0001:00002270       ?QueryInterface@?$CComContainedObject@VCOPOSPOSPower@@@ATL@@UAGJABU_GUID@@PAPAX@Z 10003270 f i POSPower.obj
 0001:0000228b       ??_E?$CComAggObject@VCOPOSPOSPower@@@ATL@@UAEPAXI@Z 1000328b f i POSPower.obj
 0001:0000228b       ??_G?$CComAggObject@VCOPOSPOSPower@@@ATL@@UAEPAXI@Z 1000328b f i POSPower.obj
 0001:000022b0       ?AddRef@?$CComObject@VCOPOSPOSPower@@@ATL@@UAGKXZ 100032b0 f i POSPower.obj
 0001:000022c7       ?Release@?$CComObject@VCOPOSPOSPower@@@ATL@@UAGKXZ 100032c7 f i POSPower.obj
 0001:00002309       ?QueryInterface@?$CComObject@VCOPOSPOSPower@@@ATL@@UAGJABU_GUID@@PAPAX@Z 10003309 f i POSPower.obj
 0001:00002323       ?OnDrawAdvanced@CComControlBase@ATL@@UAEJAAUATL_DRAWINFO@@@Z 10003323 f i POSPower.obj
 0001:00002416       ?Next@?$CComEnumImpl@UIEnumConnections@@$1?_GUID_b196b287_bab4_101a_b69c_00aa00341d07@@3U__s_GUID@@BUtagCONNECTDATA@@V?$_Copy@UtagCONNECTDATA@@@ATL@@@ATL@@UAGJKPAUtagCONNECTDATA@@PAK@Z 10003416 f i POSPower.obj
 0001:000024ed       ?Skip@?$CComEnumImpl@UIEnumConnections@@$1?_GUID_b196b287_bab4_101a_b69c_00aa00341d07@@3U__s_GUID@@BUtagCONNECTDATA@@V?$_Copy@UtagCONNECTDATA@@@ATL@@@ATL@@UAGJK@Z 100034ed f i POSPower.obj
 0001:0000251a       ?Clone@?$CComEnumImpl@UIEnumConnections@@$1?_GUID_b196b287_bab4_101a_b69c_00aa00341d07@@3U__s_GUID@@BUtagCONNECTDATA@@V?$_Copy@UtagCONNECTDATA@@@ATL@@@ATL@@UAGJPAPAUIEnumConnections@@@Z 1000351a f i POSPower.obj
 0001:000025fb       ?QueryInterface@?$CComObject@V?$CComEnum@UIEnumConnections@@$1?_GUID_b196b287_bab4_101a_b69c_00aa00341d07@@3U__s_GUID@@BUtagCONNECTDATA@@V?$_Copy@UtagCONNECTDATA@@@ATL@@VCComSingleThreadModel@6@@ATL@@@ATL@@UAGJABU_GUID@@PAPAX@Z 100035fb f i POSPower.obj
 0001:00002615       ??_G?$CComObject@V?$CComEnum@UIEnumConnections@@$1?_GUID_b196b287_bab4_101a_b69c_00aa00341d07@@3U__s_GUID@@BUtagCONNECTDATA@@V?$_Copy@UtagCONNECTDATA@@@ATL@@VCComSingleThreadModel@6@@ATL@@@ATL@@UAEPAXI@Z 10003615 f i POSPower.obj
 0001:00002615       ??_E?$CComObject@V?$CComEnum@UIEnumConnections@@$1?_GUID_b196b287_bab4_101a_b69c_00aa00341d07@@3U__s_GUID@@BUtagCONNECTDATA@@V?$_Copy@UtagCONNECTDATA@@@ATL@@VCComSingleThreadModel@6@@ATL@@@ATL@@UAEPAXI@Z 10003615 f i POSPower.obj
 0001:00002637       ??_E?$CComObject@VCOPOSPOSPower@@@ATL@@W3AEPAXI@Z 10003637 f i POSPower.obj
 0001:0000263f       ??_E?$CComObject@VCOPOSPOSPower@@@ATL@@WEM@AEPAXI@Z 1000363f f i POSPower.obj
 0001:00002647       ?QueryInterface@?$CComObject@VCOPOSPOSPower@@@ATL@@WHA@AGJABU_GUID@@PAPAX@Z 10003647 f i POSPower.obj
 0001:00002651       ?AddRef@?$CComObject@VCOPOSPOSPower@@@ATL@@WHA@AGKXZ 10003651 f i POSPower.obj
 0001:0000265b       ?Release@?$CComObject@VCOPOSPOSPower@@@ATL@@WHA@AGKXZ 1000365b f i POSPower.obj
 0001:00002665       ?QueryInterface@?$CComObject@VCOPOSPOSPower@@@ATL@@WHE@AGJABU_GUID@@PAPAX@Z 10003665 f i POSPower.obj
 0001:0000266f       ?AddRef@?$CComObject@VCOPOSPOSPower@@@ATL@@WHE@AGKXZ 1000366f f i POSPower.obj
 0001:00002679       ?Release@?$CComObject@VCOPOSPOSPower@@@ATL@@WHE@AGKXZ 10003679 f i POSPower.obj
 0001:00002683       ?QueryInterface@?$CComObject@VCOPOSPOSPower@@@ATL@@WHI@AGJABU_GUID@@PAPAX@Z 10003683 f i POSPower.obj
 0001:0000268d       ?AddRef@?$CComObject@VCOPOSPOSPower@@@ATL@@WHI@AGKXZ 1000368d f i POSPower.obj
 0001:00002697       ?Release@?$CComObject@VCOPOSPOSPower@@@ATL@@WHI@AGKXZ 10003697 f i POSPower.obj
 0001:000026a1       ?QueryInterface@?$CComObject@VCOPOSPOSPower@@@ATL@@WHM@AGJABU_GUID@@PAPAX@Z 100036a1 f i POSPower.obj
 0001:000026ab       ?AddRef@?$CComObject@VCOPOSPOSPower@@@ATL@@WHM@AGKXZ 100036ab f i POSPower.obj
 0001:000026b5       ?Release@?$CComObject@VCOPOSPOSPower@@@ATL@@WHM@AGKXZ 100036b5 f i POSPower.obj
 0001:000026bf       ?QueryInterface@?$CComObject@VCOPOSPOSPower@@@ATL@@WIA@AGJABU_GUID@@PAPAX@Z 100036bf f i POSPower.obj
 0001:000026cc       ?AddRef@?$CComObject@VCOPOSPOSPower@@@ATL@@WIA@AGKXZ 100036cc f i POSPower.obj
 0001:000026d9       ?Release@?$CComObject@VCOPOSPOSPower@@@ATL@@WIA@AGKXZ 100036d9 f i POSPower.obj
 0001:000026e6       ?QueryInterface@?$CComObject@VCOPOSPOSPower@@@ATL@@WIE@AGJABU_GUID@@PAPAX@Z 100036e6 f i POSPower.obj
 0001:000026f3       ?AddRef@?$CComObject@VCOPOSPOSPower@@@ATL@@WIE@AGKXZ 100036f3 f i POSPower.obj
 0001:00002700       ?Release@?$CComObject@VCOPOSPOSPower@@@ATL@@WIE@AGKXZ 10003700 f i POSPower.obj
 0001:0000270d       ?QueryInterface@?$CComObject@VCOPOSPOSPower@@@ATL@@WII@AGJABU_GUID@@PAPAX@Z 1000370d f i POSPower.obj
 0001:0000271a       ?AddRef@?$CComObject@VCOPOSPOSPower@@@ATL@@WII@AGKXZ 1000371a f i POSPower.obj
 0001:00002727       ?Release@?$CComObject@VCOPOSPOSPower@@@ATL@@WII@AGKXZ 10003727 f i POSPower.obj
 0001:00002734       ?QueryInterface@?$CComObject@VCOPOSPOSPower@@@ATL@@WIM@AGJABU_GUID@@PAPAX@Z 10003734 f i POSPower.obj
 0001:00002741       ?AddRef@?$CComObject@VCOPOSPOSPower@@@ATL@@WIM@AGKXZ 10003741 f i POSPower.obj
 0001:0000274e       ?Release@?$CComObject@VCOPOSPOSPower@@@ATL@@WIM@AGKXZ 1000374e f i POSPower.obj
 0001:0000275b       ?QueryInterface@?$CComObject@VCOPOSPOSPower@@@ATL@@WJA@AGJABU_GUID@@PAPAX@Z 1000375b f i POSPower.obj
 0001:00002768       ?AddRef@?$CComObject@VCOPOSPOSPower@@@ATL@@WJA@AGKXZ 10003768 f i POSPower.obj
 0001:00002775       ?Release@?$CComObject@VCOPOSPOSPower@@@ATL@@WJA@AGKXZ 10003775 f i POSPower.obj
 0001:00002782       ?QueryInterface@?$CComObject@VCOPOSPOSPower@@@ATL@@WJE@AGJABU_GUID@@PAPAX@Z 10003782 f i POSPower.obj
 0001:0000278f       ?AddRef@?$CComObject@VCOPOSPOSPower@@@ATL@@WJE@AGKXZ 1000378f f i POSPower.obj
 0001:0000279c       ?Release@?$CComObject@VCOPOSPOSPower@@@ATL@@WJE@AGKXZ 1000379c f i POSPower.obj
 0001:000027a9       ?QueryInterface@?$CComObject@VCOPOSPOSPower@@@ATL@@WJI@AGJABU_GUID@@PAPAX@Z 100037a9 f i POSPower.obj
 0001:000027b6       ?AddRef@?$CComObject@VCOPOSPOSPower@@@ATL@@WJI@AGKXZ 100037b6 f i POSPower.obj
 0001:000027c3       ?Release@?$CComObject@VCOPOSPOSPower@@@ATL@@WJI@AGKXZ 100037c3 f i POSPower.obj
 0001:000027d0       ?QueryInterface@?$CComObject@VCOPOSPOSPower@@@ATL@@WJM@AGJABU_GUID@@PAPAX@Z 100037d0 f i POSPower.obj
 0001:000027dd       ?AddRef@?$CComObject@VCOPOSPOSPower@@@ATL@@WJM@AGKXZ 100037dd f i POSPower.obj
 0001:000027ea       ?Release@?$CComObject@VCOPOSPOSPower@@@ATL@@WJM@AGKXZ 100037ea f i POSPower.obj
 0001:000027f7       ?QueryInterface@?$CComObject@VCOPOSPOSPower@@@ATL@@WKA@AGJABU_GUID@@PAPAX@Z 100037f7 f i POSPower.obj
 0001:00002804       ?AddRef@?$CComObject@VCOPOSPOSPower@@@ATL@@WKA@AGKXZ 10003804 f i POSPower.obj
 0001:00002811       ?Release@?$CComObject@VCOPOSPOSPower@@@ATL@@WKA@AGKXZ 10003811 f i POSPower.obj
 0001:0000281e       ?AddRef@?$CComObject@VCOPOSPOSPower@@@ATL@@WKI@AGKXZ 1000381e f i POSPower.obj
 0001:0000282b       ?Release@?$CComObject@VCOPOSPOSPower@@@ATL@@WKI@AGKXZ 1000382b f i POSPower.obj
 0001:00002838       ?AddRef@?$CComObject@VCOPOSPOSPower@@@ATL@@WLE@AGKXZ 10003838 f i POSPower.obj
 0001:00002845       ?Release@?$CComObject@VCOPOSPOSPower@@@ATL@@WLE@AGKXZ 10003845 f i POSPower.obj
 0001:00002852       ??_E?$CComContainedObject@VCOPOSPOSPower@@@ATL@@W3AEPAXI@Z 10003852 f i POSPower.obj
 0001:0000285a       ??_E?$CComContainedObject@VCOPOSPOSPower@@@ATL@@WEM@AEPAXI@Z 1000385a f i POSPower.obj
 0001:00002862       ?QueryInterface@?$CComContainedObject@VCOPOSPOSPower@@@ATL@@WHA@AGJABU_GUID@@PAPAX@Z 10003862 f i POSPower.obj
 0001:0000286c       ?AddRef@?$CComContainedObject@VCOPOSPOSPower@@@ATL@@WHA@AGKXZ 1000386c f i POSPower.obj
 0001:00002876       ?Release@?$CComContainedObject@VCOPOSPOSPower@@@ATL@@WHA@AGKXZ 10003876 f i POSPower.obj
 0001:00002880       ?QueryInterface@?$CComContainedObject@VCOPOSPOSPower@@@ATL@@WHE@AGJABU_GUID@@PAPAX@Z 10003880 f i POSPower.obj
 0001:0000288a       ?AddRef@?$CComContainedObject@VCOPOSPOSPower@@@ATL@@WHE@AGKXZ 1000388a f i POSPower.obj
 0001:00002894       ?Release@?$CComContainedObject@VCOPOSPOSPower@@@ATL@@WHE@AGKXZ 10003894 f i POSPower.obj
 0001:0000289e       ?QueryInterface@?$CComContainedObject@VCOPOSPOSPower@@@ATL@@WHI@AGJABU_GUID@@PAPAX@Z 1000389e f i POSPower.obj
 0001:000028a8       ?AddRef@?$CComContainedObject@VCOPOSPOSPower@@@ATL@@WHI@AGKXZ 100038a8 f i POSPower.obj
 0001:000028b2       ?Release@?$CComContainedObject@VCOPOSPOSPower@@@ATL@@WHI@AGKXZ 100038b2 f i POSPower.obj
 0001:000028bc       ?QueryInterface@?$CComContainedObject@VCOPOSPOSPower@@@ATL@@WHM@AGJABU_GUID@@PAPAX@Z 100038bc f i POSPower.obj
 0001:000028c6       ?AddRef@?$CComContainedObject@VCOPOSPOSPower@@@ATL@@WHM@AGKXZ 100038c6 f i POSPower.obj
 0001:000028d0       ?Release@?$CComContainedObject@VCOPOSPOSPower@@@ATL@@WHM@AGKXZ 100038d0 f i POSPower.obj
 0001:000028da       ?QueryInterface@?$CComContainedObject@VCOPOSPOSPower@@@ATL@@WIA@AGJABU_GUID@@PAPAX@Z 100038da f i POSPower.obj
 0001:000028e7       ?AddRef@?$CComContainedObject@VCOPOSPOSPower@@@ATL@@WIA@AGKXZ 100038e7 f i POSPower.obj
 0001:000028f4       ??$?4UITypeInfo2@@@?$CComPtr@UITypeInfo@@@ATL@@QAEPAUITypeInfo@@ABV?$CComPtr@UITypeInfo2@@@1@@Z 100038f4 f i POSPower.obj
 0001:00002921       ??$AtlAdd@K@ATL@@YAJPAKKK@Z 10003921 f i POSPower.obj
 0001:00002944       ??$AtlAdd@_K@ATL@@YAJPA_K_K1@Z 10003944 f i POSPower.obj
 0001:0000297c       ??$AtlAddThrow@K@ATL@@YAKKK@Z 1000397c f i POSPower.obj
 0001:000029a2       ??$AtlModuleRegisterWndClassInfoT@VAtlModuleRegisterWndClassInfoParamW@ATL@@@ATL@@YAGPAU_ATL_BASE_MODULE70@0@PAU_ATL_WIN_MODULE70@0@PAU_ATL_WNDCLASSINFOW@0@PAP6GJPAUHWND__@@IIJ@ZVAtlModuleRegisterWndClassInfoParamW@0@@Z 100039a2 f i POSPower.obj
 0001:00002af0       ??$AtlMultiply@H@ATL@@YAJPAHHH@Z 10003af0 f i POSPower.obj
 0001:00002b28       ??$AtlMultiply@I@ATL@@YAJPAIII@Z 10003b28 f i POSPower.obj
 0001:00002b28       ??$AtlMultiply@K@ATL@@YAJPAKKK@Z 10003b28 f i POSPower.obj
 0001:00002b4a       ??$AtlMultiplyThrow@I@ATL@@YAIII@Z 10003b4a f i POSPower.obj
 0001:00002b70       ??0?$CComAggObject@VCOPOSPOSPower@@@ATL@@QAE@PAX@Z 10003b70 f i POSPower.obj
 0001:00002b9d       ??0?$CComContainedObject@VCOPOSPOSPower@@@ATL@@QAE@PAX@Z 10003b9d f i POSPower.obj
 0001:00002c56       ??0?$CComObject@V?$CComEnum@UIEnumConnectionPoints@@$1?_GUID_b196b285_bab4_101a_b69c_00aa00341d07@@3U__s_GUID@@BPAUIConnectionPoint@@V?$_CopyInterface@UIConnectionPoint@@@ATL@@VCComSingleThreadModel@6@@ATL@@@ATL@@QAE@PAX@Z 10003c56 f i POSPower.obj
 0001:00002c84       ??0?$CComObject@V?$CComEnum@UIEnumConnections@@$1?_GUID_b196b287_bab4_101a_b69c_00aa00341d07@@3U__s_GUID@@BUtagCONNECTDATA@@V?$_Copy@UtagCONNECTDATA@@@ATL@@VCComSingleThreadModel@6@@ATL@@@ATL@@QAE@PAX@Z 10003c84 f i POSPower.obj
 0001:00002cb2       ??0?$CComObject@VCOPOSPOSPower@@@ATL@@QAE@PAX@Z 10003cb2 f i POSPower.obj
 0001:00002d69       ??0?$CComQIPtr@UIOleControlSite@@$1?_GUID_b196b289_bab4_101a_b69c_00aa00341d07@@3U__s_GUID@@B@ATL@@QAE@PAUIUnknown@@@Z 10003d69 f i POSPower.obj
 0001:00002d92       ??0CAtlModule@ATL@@QAE@XZ  10003d92 f i POSPower.obj
 0001:00002dd3       ??0CParseBuffer@CRegParser@ATL@@QAE@H@Z 10003dd3 f i POSPower.obj
 0001:00002e09       ??0_ATL_MSG@ATL@@QAE@PAUHWND__@@IIJH@Z 10003e09 f i POSPower.obj
 0001:00002e41       ??1?$CComAggObject@VCOPOSPOSPower@@@ATL@@UAE@XZ 10003e41 f i POSPower.obj
 0001:00002e65       ??1?$CComEnumImpl@UIEnumConnectionPoints@@$1?_GUID_b196b285_bab4_101a_b69c_00aa00341d07@@3U__s_GUID@@BPAUIConnectionPoint@@V?$_CopyInterface@UIConnectionPoint@@@ATL@@@ATL@@UAE@XZ 10003e65 f i POSPower.obj
 0001:00002ea5       ??1?$CComEnumImpl@UIEnumConnections@@$1?_GUID_b196b287_bab4_101a_b69c_00aa00341d07@@3U__s_GUID@@BUtagCONNECTDATA@@V?$_Copy@UtagCONNECTDATA@@@ATL@@@ATL@@UAE@XZ 10003ea5 f i POSPower.obj
 0001:00002ee5       ??1?$CComObject@V?$CComEnum@UIEnumConnectionPoints@@$1?_GUID_b196b285_bab4_101a_b69c_00aa00341d07@@3U__s_GUID@@BPAUIConnectionPoint@@V?$_CopyInterface@UIConnectionPoint@@@ATL@@VCComSingleThreadModel@6@@ATL@@@ATL@@UAE@XZ 10003ee5 f i POSPower.obj
 0001:00002f08       ??1?$CComObject@V?$CComEnum@UIEnumConnections@@$1?_GUID_b196b287_bab4_101a_b69c_00aa00341d07@@3U__s_GUID@@BUtagCONNECTDATA@@V?$_Copy@UtagCONNECTDATA@@@ATL@@VCComSingleThreadModel@6@@ATL@@@ATL@@UAE@XZ 10003f08 f i POSPower.obj
 0001:00002f2b       ??1?$CComObject@VCOPOSPOSPower@@@ATL@@UAE@XZ 10003f2b f i POSPower.obj
 0001:00002fe9       ??1?$CComObjectCached@VCComClassFactory@ATL@@@ATL@@UAE@XZ 10003fe9 f i POSPower.obj
 0001:00002fff       ??1?$CComObjectRootEx@VCComMultiThreadModel@ATL@@@ATL@@QAE@XZ 10003fff f i POSPower.obj
 0001:00003014       ??1CRegObject@ATL@@UAE@XZ  10004014 f i POSPower.obj
 0001:00003034       ??4?$CComPtr@UIOleClientSite@@@ATL@@QAEPAUIOleClientSite@@PAU2@@Z 10004034 f i POSPower.obj
 0001:00003034       ??4?$CComPtr@UIAdviseSink@@@ATL@@QAEPAUIAdviseSink@@PAU2@@Z 10004034 f i POSPower.obj
 0001:00003034       ??4?$CComPtr@UIUnknown@@@ATL@@QAEPAUIUnknown@@PAU2@@Z 10004034 f i POSPower.obj
 0001:00003068       ??_E?$CComContainedObject@VCOPOSPOSPower@@@ATL@@UAEPAXI@Z 10004068 f i POSPower.obj
 0001:00003068       ??_G?$CComContainedObject@VCOPOSPOSPower@@@ATL@@UAEPAXI@Z 10004068 f i POSPower.obj
 0001:0000308d       ??_E?$CComObject@VCOPOSPOSPower@@@ATL@@UAEPAXI@Z 1000408d f i POSPower.obj
 0001:0000308d       ??_G?$CComObject@VCOPOSPOSPower@@@ATL@@UAEPAXI@Z 1000408d f i POSPower.obj
 0001:000030b2       ?Add@?$CSimpleArray@GV?$CSimpleArrayEqualHelper@G@ATL@@@ATL@@QAEHABG@Z 100040b2 f i POSPower.obj
 0001:00003136       ?Add@?$CSimpleMap@PA_WPA_WVCExpansionVectorEqualHelper@ATL@@@ATL@@QAEHABQA_W0@Z 10004136 f i POSPower.obj
 0001:0000318b       ?Add@CComDynamicUnkArray@ATL@@QAEKPAUIUnknown@@@Z 1000418b f i POSPower.obj
 0001:00003241       ?Add@CExpansionVector@ATL@@QAEHPB_W0@Z 10004241 f i POSPower.obj
 0001:0000334a       ?AddString@CParseBuffer@CRegParser@ATL@@QAEHPB_W@Z 1000434a f i POSPower.obj
 0001:0000337f       ?AddTermFunc@CAtlModule@ATL@@QAEJP6GXK@ZK@Z 1000437f f i POSPower.obj
 0001:000033e2       ?AddValue@CRegParser@ATL@@IAEJAAVCRegKey@2@PB_WPA_W@Z 100043e2 f i POSPower.obj
 0001:000036fc       ?Allocate@?$CAtlSafeAllocBufferManager@VCCRTAllocator@ATL@@@_ATL_SAFE_ALLOCA_IMPL@ATL@@QAEPAXK@Z 100046fc f i POSPower.obj
 0001:00003729       ?Allocate@?$CTempBuffer@E$0BAA@VCCRTAllocator@ATL@@@ATL@@QAEPAEI@Z 10004729 f i POSPower.obj
 0001:00003758       ?Allocate@?$CTempBuffer@_W$0BAA@VCCRTAllocator@ATL@@@ATL@@QAEPA_WI@Z 10004758 f i POSPower.obj
 0001:00003787       ?Allocate@?$CTempBuffer@_W$0EAA@VCCRTAllocator@ATL@@@ATL@@QAEPA_WI@Z 10004787 f i POSPower.obj
 0001:000037b6       ?AllocateHeap@?$CTempBuffer@_W$0EAA@VCCRTAllocator@ATL@@@ATL@@AAEXI@Z 100047b6 f i POSPower.obj
 0001:000037b6       ?AllocateHeap@?$CTempBuffer@_W$0BAA@VCCRTAllocator@ATL@@@ATL@@AAEXI@Z 100047b6 f i POSPower.obj
 0001:000037b6       ?AllocateHeap@?$CTempBuffer@E$0BAA@VCCRTAllocator@ATL@@@ATL@@AAEXI@Z 100047b6 f i POSPower.obj
 0001:000037db       ?Append@CParseBuffer@CRegParser@ATL@@QAEHPB_WH@Z 100047db f i POSPower.obj
 0001:00003869       ?AtlCoTaskMemCAlloc@ATL@@YAPAXKK@Z 10004869 f i POSPower.obj
 0001:00003896       ?AtlCoTaskMemRecalloc@ATL@@YAPAXPAXKK@Z 10004896 f i POSPower.obj
 0001:000038c6       ?AtlComModuleGetClassObject@ATL@@YGJPAU_ATL_COM_MODULE70@1@ABU_GUID@@1PAPAX@Z 100048c6 f i POSPower.obj
 0001:000039b9       ?AtlComModuleRegisterServer@ATL@@YGJPAU_ATL_COM_MODULE70@1@HPBU_GUID@@@Z 100049b9 f i POSPower.obj
 0001:00003a41       ?AtlComModuleUnregisterServer@ATL@@YGJPAU_ATL_COM_MODULE70@1@HPBU_GUID@@@Z 10004a41 f i POSPower.obj
 0001:00003ac9       ?AtlComQIPtrAssign2@ATL@@YAXPAPAUIUnknown@@PAU2@ABU_GUID@@@Z 10004ac9 f i POSPower.obj
 0001:00003af8       ?AtlCreateTargetDC@ATL@@YGPAUHDC__@@PAU2@PAUtagDVTARGETDEVICE@@@Z 10004af8 f i POSPower.obj
 0001:00003b61       ?AtlCrtErrorCheck@ATL@@YAHH@Z 10004b61 f i POSPower.obj
 0001:00003b9c       ?AtlHiMetricToPixel@ATL@@YGXPBUtagSIZE@@PAU2@@Z 10004b9c f i POSPower.obj
 0001:00003c11       ?AtlHresultFromLastError@ATL@@YAJXZ 10004c11 f i POSPower.obj
 0001:00003c28       ?AtlHresultFromWin32@ATL@@YAJK@Z 10004c28 f i POSPower.obj
 0001:00003c3d       ?AtlInternalOleLoadFromStream@ATL@@YAJPAUIStream@@ABU_GUID@@PAPAXTClassesAllowedInStream@1@K@Z 10004c3d f i POSPower.obj
 0001:00003d5b       ?AtlInternalQueryInterface@ATL@@YGJPAXPBU_ATL_INTMAP_ENTRY@1@ABU_GUID@@PAPAX@Z 10004d5b f i POSPower.obj
 0001:00003dfe       ?AtlLoadTypeLib@ATL@@YGJPAUHINSTANCE__@@PB_WPAPA_WPAPAUITypeLib@@@Z 10004dfe f i POSPower.obj
 0001:00003fdc       ?AtlRegisterClassCategoriesHelper@ATL@@YGJABU_GUID@@PBU_ATL_CATMAP_ENTRY@1@H@Z 10004fdc f i POSPower.obj
 0001:000042d8       ?AtlRegisterTypeLib@ATL@@YGJPAUHINSTANCE__@@PB_W@Z 100052d8 f i POSPower.obj
 0001:00004460       ?AtlThrowImpl@ATL@@YGXJ@Z  10005460 f i POSPower.obj
 0001:0000447e       ?AtlUnRegisterTypeLib@ATL@@YGJPAUHINSTANCE__@@PB_W@Z 1000547e f i POSPower.obj
 0001:00004529       ?AtlWinModuleAddCreateWndData@ATL@@YGXPAU_ATL_WIN_MODULE70@1@PAU_AtlCreateWndData@1@PAX@Z 10005529 f i POSPower.obj
 0001:0000457d       ?AtlWinModuleExtractCreateWndData@ATL@@YGPAXPAU_ATL_WIN_MODULE70@1@@Z 1000557d f i POSPower.obj
 0001:000045e0       ?AtlWinModuleRegisterClassExW@ATL@@YGGPAU_ATL_WIN_MODULE70@1@PBUtagWNDCLASSEXW@@@Z 100055e0 f i POSPower.obj
 0001:0000461f       ?CanForceRemoveKey@CRegParser@ATL@@IAEHPB_W@Z 1000561f f i POSPower.obj
 0001:0000464e       ?ChToByte@CRegParser@ATL@@KAE_W@Z 1000564e f i POSPower.obj
 0001:00004681       ?Cleanup@CComTypeInfoHolder@ATL@@SGXK@Z 10005681 f i POSPower.obj
 0001:000046b4       ?ClearReplacements@CExpansionVector@ATL@@QAEJXZ 100056b4 f i POSPower.obj
 0001:000046f1       ?Close@CRegKey@ATL@@QAEJXZ 100056f1 f i POSPower.obj
 0001:0000470b       ?CreateInstance@?$CComCreator@V?$CComAggObject@VCOPOSPOSPower@@@ATL@@@ATL@@SGJPAXABU_GUID@@PAPAX@Z 1000570b f i POSPower.obj
 0001:00004780       ?CreateInstance@?$CComCreator@V?$CComObject@VCOPOSPOSPower@@@ATL@@@ATL@@SGJPAXABU_GUID@@PAPAX@Z 10005780 f i POSPower.obj
 0001:00004800       ?CreateInstance@?$CComObject@V?$CComEnum@UIEnumConnectionPoints@@$1?_GUID_b196b285_bab4_101a_b69c_00aa00341d07@@3U__s_GUID@@BPAUIConnectionPoint@@V?$_CopyInterface@UIConnectionPoint@@@ATL@@VCComSingleThreadModel@6@@ATL@@@ATL@@SGJPAPAV12@@Z 10005800 f i POSPower.obj
 0001:0000484a       ?CreateInstance@?$CComObject@V?$CComEnum@UIEnumConnections@@$1?_GUID_b196b287_bab4_101a_b69c_00aa00341d07@@3U__s_GUID@@BUtagCONNECTDATA@@V?$_Copy@UtagCONNECTDATA@@@ATL@@VCComSingleThreadModel@6@@ATL@@@ATL@@SGJPAPAV12@@Z 1000584a f i POSPower.obj
 0001:00004894       ?DefaultReflectionHandler@?$CWindowImplRoot@VCWindow@ATL@@@ATL@@SAHPAUHWND__@@IIJAAJ@Z 10005894 f i POSPower.obj
 0001:00004907       ?DeleteSubKey@CRegKey@ATL@@QAEJPB_W@Z 10005907 f i POSPower.obj
 0001:00004980       ?DoEvent@COPOSPOSPower@@IAEXIIJ@Z 10005980 f i POSPower.obj
 0001:00004a00       ?DoVerbHide@?$IOleObjectImpl@VCOPOSPOSPower@@@ATL@@QAEJPBUtagRECT@@PAUHWND__@@@Z 10005a00 f i POSPower.obj
 0001:00004a36       ?DoVerbInPlaceActivate@?$IOleObjectImpl@VCOPOSPOSPower@@@ATL@@QAEJPBUtagRECT@@PAUHWND__@@@Z 10005a36 f i POSPower.obj
 0001:00004a69       ?DoVerbPrimary@?$IOleObjectImpl@VCOPOSPOSPower@@@ATL@@QAEJPBUtagRECT@@PAUHWND__@@@Z 10005a69 f i POSPower.obj
 0001:00004af5       ?DoVerbProperties@CComControlBase@ATL@@QAEJPBUtagRECT@@PAUHWND__@@@Z 10005af5 f i POSPower.obj
 0001:00004c74       ?DoVerbUIActivate@?$IOleObjectImpl@VCOPOSPOSPower@@@ATL@@QAEJPBUtagRECT@@PAUHWND__@@@Z 10005c74 f i POSPower.obj
 0001:00004cb1       ?DoesVerbActivate@CComControlBase@ATL@@QAEHJ@Z 10005cb1 f i POSPower.obj
 0001:00004cd2       ?DoesVerbUIActivate@CComControlBase@ATL@@QAEHJ@Z 10005cd2 f i POSPower.obj
 0001:00004d07       ?EndOfVar@CRegParser@ATL@@IAEHXZ 10005d07 f i POSPower.obj
 0001:00004d27       ?EscapeSingleQuote@CAtlModule@ATL@@SAXPA_WIPB_W@Z 10005d27 f i POSPower.obj
 0001:00004d76       ?FindKey@?$CSimpleMap@PA_WPA_WVCExpansionVectorEqualHelper@ATL@@@ATL@@QBEHABQA_W@Z 10005d76 f i POSPower.obj
 0001:00004dad       ?FireTheEvent@?$CProxy_IOPOSEvents@VCOPOSPOSPower@@@@IAEXPAVOposVariant@@IAAJPB_WJ@Z 10005dad f i POSPower.obj
 0001:00004e3f       ?FireViewChange@CComControlBase@ATL@@QAEJXZ 10005e3f f i POSPower.obj
 0001:00004e88       ?Fire_DirectIOEvent@?$CProxy_IOPOSEvents@VCOPOSPOSPower@@@@QAEXJPAJPAPA_W@Z 10005e88 f i POSPower.obj
 0001:00004f74       ?Fire_StatusUpdateEvent@?$CProxy_IOPOSEvents@VCOPOSPOSPower@@@@QAEXJ@Z 10005f74 f i POSPower.obj
 0001:0000500a       ?FreeHeap@?$CTempBuffer@E$0BAA@VCCRTAllocator@ATL@@@ATL@@AAEXXZ 1000600a f i POSPower.obj
 0001:0000500a       ?FreeHeap@?$CTempBuffer@_W$0EAA@VCCRTAllocator@ATL@@@ATL@@AAEXXZ 1000600a f i POSPower.obj
 0001:0000500a       ?FreeHeap@?$CTempBuffer@_W$0BAA@VCCRTAllocator@ATL@@@ATL@@AAEXXZ 1000600a f i POSPower.obj
 0001:00005013       ?GetAmbientLocaleID@CComControlBase@ATL@@QAEJAAK@Z 10006013 f i POSPower.obj
 0001:0000506f       ?GetAmbientUserMode@CComControlBase@ATL@@QAEJAAH@Z 1000606f f i POSPower.obj
 0001:000050df       ?GetAt@CComDynamicUnkArray@ATL@@QAEPAUIUnknown@@H@Z 100060df f i POSPower.obj
 0001:000050fb       ?GetClassObject@CComModule@ATL@@QAEJABU_GUID@@0PAPAX@Z 100060fb f i POSPower.obj
 0001:0000519d       ?GetConnMap@COPOSPOSPower@@SAPBU_ATL_CONNMAP_ENTRY@ATL@@PAH@Z 1000619d f i POSPower.obj
 0001:0000520d       ?GetCookie@CComDynamicUnkArray@ATL@@QAGKPAPAUIUnknown@@@Z 1000620d f i POSPower.obj
 0001:00005245       ?GetIDsOfNames@CComTypeInfoHolder@ATL@@QAEJABU_GUID@@PAPA_WIKPAJ@Z 10006245 f i POSPower.obj
 0001:0000536c       ?GetKeyAt@?$CSimpleMap@PA_WPA_WVCExpansionVectorEqualHelper@ATL@@@ATL@@QBEAAPA_WH@Z 1000636c f i POSPower.obj
 0001:00005391       ?GetPagesHelper@?$ISpecifyPropertyPagesImpl@VCOPOSPOSPower@@@ATL@@IAEJPAUtagCAUUID@@PBUATL_PROPMAP_ENTRY@2@@Z 10006391 f i POSPower.obj
 0001:000054b8       ?GetProperty@?$CComPtr@UIDispatch@@@ATL@@SAJPAUIDispatch@@JPAUtagVARIANT@@@Z 100064b8 f i POSPower.obj
 0001:00005507       ?GetSizeMax@CComVariant@ATL@@QBEJPAT_ULARGE_INTEGER@@@Z 10006507 f i POSPower.obj
 0001:000056c9       ?GetTI@CComTypeInfoHolder@ATL@@QAEJK@Z 100066c9 f i POSPower.obj
 0001:000058a8       ?GetTI@CComTypeInfoHolder@ATL@@QAEJKPAPAUITypeInfo@@@Z 100068a8 f i POSPower.obj
 0001:000058ea       ?GetUnknown@CComDynamicUnkArray@ATL@@QAGPAUIUnknown@@K@Z 100068ea f i POSPower.obj
 0001:0000590b       ?GetValueAt@?$CSimpleMap@PA_WPA_WVCExpansionVectorEqualHelper@ATL@@@ATL@@QBEAAPA_WH@Z 1000690b f i POSPower.obj
 0001:00005931       ?GetZoomInfo@CComControlBase@ATL@@QAEXAAUATL_DRAWINFO@@@Z 10006931 f i POSPower.obj
 0001:000059c4       ?HKeyFromString@CRegParser@ATL@@KAPAUHKEY__@@PA_W@Z 100069c4 f i POSPower.obj
 0001:000059f2       ?HasSubKeys@CRegParser@ATL@@IAEHPAUHKEY__@@@Z 100069f2 f i POSPower.obj
 0001:00005a27       ?IDataObject_GetData@CComControlBase@ATL@@QAEJPAUtagFORMATETC@@PAUtagSTGMEDIUM@@@Z 10006a27 f i POSPower.obj
 0001:00005bcd       ?IOleInPlaceObject_InPlaceDeactivate@CComControlBase@ATL@@QAEJXZ 10006bcd f i POSPower.obj
 0001:00005c54       ?IOleInPlaceObject_SetObjectRects@CComControlBase@ATL@@QAEJPBUtagRECT@@0@Z 10006c54 f i POSPower.obj
 0001:00005d21       ?IOleInPlaceObject_UIDeactivate@CComControlBase@ATL@@QAEJXZ 10006d21 f i POSPower.obj
 0001:00005de3       ?IOleObject_Advise@CComControlBase@ATL@@QAEJPAUIAdviseSink@@PAK@Z 10006de3 f i POSPower.obj
 0001:00005e0d       ?IOleObject_Close@CComControlBase@ATL@@QAEJK@Z 10006e0d f i POSPower.obj
 0001:00005ef1       ?IOleObject_GetClientSite@CComControlBase@ATL@@QAEJPAPAUIOleClientSite@@@Z 10006ef1 f i POSPower.obj
 0001:00005f1a       ?IOleObject_SetClientSite@CComControlBase@ATL@@QAEJPAUIOleClientSite@@@Z 10006f1a f i POSPower.obj
 0001:00005f59       ?IOleObject_SetExtent@CComControlBase@ATL@@QAEJKPAUtagSIZE@@@Z 10006f59 f i POSPower.obj
 0001:0000600d       ?IPSI_GetIPersistStreamInit@?$IPersistStorageImpl@VCOPOSPOSPower@@@ATL@@AAEPAUIPersistStreamInit@@XZ 1000700d f i POSPower.obj
 0001:000060b5       ?IPersistStreamInit_Load@?$IPersistStreamInitImpl@VCOPOSPOSPower@@@ATL@@QAEJPAUIStream@@PBUATL_PROPMAP_ENTRY@2@@Z 100070b5 f i POSPower.obj
 0001:0000632a       ?IPersistStreamInit_Save@?$IPersistStreamInitImpl@VCOPOSPOSPower@@@ATL@@QAEJPAUIStream@@HPBUATL_PROPMAP_ENTRY@2@@Z 1000732a f i POSPower.obj
 0001:00006518       ?IQuickActivate_QuickActivate@CComControlBase@ATL@@QAEJPAUtagQACONTAINER@@PAUtagQACONTROL@@@Z 10007518 f i POSPower.obj
 0001:0000675a       ?IViewObject_Draw@CComControlBase@ATL@@QAEJKJPAXPAUtagDVTARGETDEVICE@@PAUHDC__@@2PBU_RECTL@@3@Z 1000775a f i POSPower.obj
 0001:00006802       ?InPlaceActivate@CComControlBase@ATL@@QAEJJPBUtagRECT@@@Z 10007802 f i POSPower.obj
 0001:00006a73       ?Init@?$CComEnumImpl@UIEnumConnectionPoints@@$1?_GUID_b196b285_bab4_101a_b69c_00aa00341d07@@3U__s_GUID@@BPAUIConnectionPoint@@V?$_CopyInterface@UIConnectionPoint@@@ATL@@@ATL@@QAEJPAPAUIConnectionPoint@@0PAUIUnknown@@W4CComEnumFlags@2@@Z 10007a73 f i POSPower.obj
 0001:00006b52       ?Init@?$CComEnumImpl@UIEnumConnections@@$1?_GUID_b196b287_bab4_101a_b69c_00aa00341d07@@3U__s_GUID@@BUtagCONNECTDATA@@V?$_Copy@UtagCONNECTDATA@@@ATL@@@ATL@@QAEJPAUtagCONNECTDATA@@0PAUIUnknown@@W4CComEnumFlags@2@@Z 10007b52 f i POSPower.obj
 0001:00006c31       ?Init@CComModule@ATL@@QAEJPAU_ATL_OBJMAP_ENTRY30@2@PAUHINSTANCE__@@PBU_GUID@@@Z 10007c31 f i POSPower.obj
 0001:00006c90       ?Init@CDynamicStdCallThunk2@ATL@@QAEHKPAX@Z 10007c90 f i POSPower.obj
 0001:00006cbb       ?InlineIsEqualUnknown@ATL@@YGHABU_GUID@@@Z 10007cbb f i POSPower.obj
 0001:00006ce3       ?InternalSetAtIndex@?$CSimpleMap@PA_WPA_WVCExpansionVectorEqualHelper@ATL@@@ATL@@QAEXHABQA_W0@Z 10007ce3 f i POSPower.obj
 0001:00006d0d       ?Invoke@CComTypeInfoHolder@ATL@@QAEJPAUIDispatch@@JABU_GUID@@KGPAUtagDISPPARAMS@@PAUtagVARIANT@@PAUtagEXCEPINFO@@PAI@Z 10007d0d f i POSPower.obj
 0001:00006d50       ?IsEqualObject@?$CComPtrBase@UIOleClientSite@@@ATL@@QAE_NPAUIUnknown@@@Z 10007d50 f i POSPower.obj
 0001:00006d50       ?IsEqualObject@?$CComPtrBase@UITypeInfo@@@ATL@@QAE_NPAUIUnknown@@@Z 10007d50 f i POSPower.obj
 0001:00006dbd       ?IsSpace@CRegParser@ATL@@IAEH_W@Z 10007dbd f i POSPower.obj
 0001:00006de7       ?LoadNameCache@CComTypeInfoHolder@ATL@@QAEJPAUITypeInfo@@@Z 10007de7 f i POSPower.obj
 0001:00006f1c       ?Lookup@?$CSimpleMap@PA_WPA_WVCExpansionVectorEqualHelper@ATL@@@ATL@@QBEPA_WABQA_W@Z 10007f1c f i POSPower.obj
 0001:00006f42       ?NextToken@CRegParser@ATL@@IAEJPA_W@Z 10007f42 f i POSPower.obj
 0001:0000707a       ?OnKillFocus@CComControlBase@ATL@@QAEJIIJAAH@Z 1000807a f i POSPower.obj
 0001:000070d5       ?OnMouseActivate@CComControlBase@ATL@@QAEJIIJAAH@Z 100080d5 f i POSPower.obj
 0001:00007143       ?OnPaint@CComControlBase@ATL@@QAEJIIJAAH@Z 10008143 f i POSPower.obj
 0001:000071f5       ?OnSetFocus@CComControlBase@ATL@@QAEJIIJAAH@Z 100081f5 f i POSPower.obj
 0001:0000727e       ?Open@CRegKey@ATL@@QAEJPAUHKEY__@@PB_WK@Z 1000827e f i POSPower.obj
 0001:000072d3       ?PreProcessBuffer@CRegParser@ATL@@QAEJPA_WPAPA_W@Z 100082d3 f i POSPower.obj
 0001:00007542       ?ProcessWindowMessage@?$CComControl@VCOPOSPOSPower@@V?$CWindowImpl@VCOPOSPOSPower@@VCWindow@ATL@@V?$CWinTraits@$0FGAAAAAA@$0A@@3@@ATL@@@ATL@@UAEHPAUHWND__@@IIJAAJK@Z 10008542 f i POSPower.obj
 0001:000075e1       ?ReadFromStream@CComBSTR@ATL@@QAEJPAUIStream@@@Z 100085e1 f i POSPower.obj
 0001:00007704       ?ReadFromStream@CComVariant@ATL@@QAEJPAUIStream@@GTClassesAllowedInStream@2@K@Z 10008704 f i POSPower.obj
 0001:0000788e       ?RecurseDeleteKey@CRegKey@ATL@@QAEJPB_W@Z 1000888e f i POSPower.obj
 0001:0000797c       ?RegCreateKeyExW@CAtlTransactionManager@ATL@@QAEJPAUHKEY__@@PB_WKPA_WKKQAU_SECURITY_ATTRIBUTES@@PAPAU3@PAK@Z 1000897c f i POSPower.obj
 0001:000079df       ?RegDeleteKeyW@CAtlTransactionManager@ATL@@QAEJPAUHKEY__@@PB_W@Z 100089df f i POSPower.obj
 0001:00007a31       ?RegOpenKeyExW@CAtlTransactionManager@ATL@@QAEJPAUHKEY__@@PB_WKKPAPAU3@@Z 10008a31 f i POSPower.obj
 0001:00007a88       ?Register@_ATL_WNDCLASSINFOW@ATL@@QAEGPAP6GJPAUHWND__@@IIJ@Z@Z 10008a88 f i POSPower.obj
 0001:00007aa8       ?RegisterBuffer@CRegParser@ATL@@QAEJPA_WH@Z 10008aa8 f i POSPower.obj
 0001:00007bef       ?RegisterFromResource@CRegObject@ATL@@IAEJPB_W00H@Z 10008bef f i POSPower.obj
 0001:00007d25       ?RegisterServer@?$CAtlModuleT@VCComModule@ATL@@@ATL@@QAEJHPBU_GUID@@@Z 10008d25 f i POSPower.obj
 0001:00007d53       ?RegisterServer@CComModule@ATL@@QAEJHPBU_GUID@@@Z 10008d53 f i POSPower.obj
 0001:00007dc9       ?RegisterSubkeys@CRegParser@ATL@@IAEJPA_WPAUHKEY__@@HH@Z 10008dc9 f i POSPower.obj
 0001:00008476       ?Remove@CComDynamicUnkArray@ATL@@QAEHK@Z 10009476 f i POSPower.obj
 0001:0000849f       ?RemoveAll@?$CSimpleMap@PA_WPA_WVCExpansionVectorEqualHelper@ATL@@@ATL@@QAEXXZ 1000949f f i POSPower.obj
 0001:000084cb       ?ResourceRegisterSz@CRegObject@ATL@@QAGJPB_W00@Z 100094cb f i POSPower.obj
 0001:000084f8       ?ResourceUnregisterSz@CRegObject@ATL@@QAGJPB_W00@Z 100094f8 f i POSPower.obj
 0001:00008525       ?SendOnDataChange@CComControlBase@ATL@@QAEJK@Z 10009525 f i POSPower.obj
 0001:00008572       ?SetControlFocus@CComControlBase@ATL@@QAEHH@Z 10009572 f i POSPower.obj
 0001:0000860f       ?SetMultiStringValue@CRegKey@ATL@@QAEJPB_W0@Z 1000960f f i POSPower.obj
 0001:0000866b       ?SetStringValue@CRegKey@ATL@@QAEJPB_W0K@Z 1000966b f i POSPower.obj
 0001:000086b4       ?SkipAssignment@CRegParser@ATL@@IAEJPA_W@Z 100096b4 f i POSPower.obj
 0001:00008719       ?SkipWhiteSpace@CRegParser@ATL@@IAEXXZ 10009719 f i POSPower.obj
 0001:0000873b       ?StrChrW@CRegParser@ATL@@KAPA_WPA_W_W@Z 1000973b f i POSPower.obj
 0001:00008778       ?Term@CAtlModule@ATL@@QAEXXZ 10009778 f i POSPower.obj
 0001:000087cb       ?Term@CComModule@ATL@@QAEXXZ 100097cb f i POSPower.obj
 0001:00008823       ?UnregisterServer@?$CAtlModuleT@VCComModule@ATL@@@ATL@@QAEJHPBU_GUID@@@Z 10009823 f i POSPower.obj
 0001:00008849       ?UnregisterServer@CComModule@ATL@@QAEJHPBU_GUID@@@Z 10009849 f i POSPower.obj
 0001:000088bf       ?UpdateRegistryFromResource@CAtlModule@ATL@@QAGJIHPAU_ATL_REGMAP_ENTRY@2@@Z 100098bf f i POSPower.obj
 0001:00008a8a       ?UpdateRegistryFromResource@CAtlModule@ATL@@QAGJPB_WHPAU_ATL_REGMAP_ENTRY@2@@Z 10009a8a f i POSPower.obj
 0001:00008c5b       ?VTFromRegType@CRegParser@ATL@@KAHPB_WAAG@Z 10009c5b f i POSPower.obj
 0001:00008cc8       ?WindowProc@?$CWindowImplBaseT@VCWindow@ATL@@V?$CWinTraits@$0FGAAAAAA@$0A@@2@@ATL@@SGJPAUHWND__@@IIJ@Z 10009cc8 f i POSPower.obj
 0001:00008dba       ?WriteToStream@CComBSTR@ATL@@QAEJPAUIStream@@@Z 10009dba f i POSPower.obj
 0001:00008e1c       ?WriteToStream@CComVariant@ATL@@QAEJPAUIStream@@@Z 10009e1c f i POSPower.obj
 0001:00008f96       ?WriteToStream@CComVariant@ATL@@QAEJPAUIStream@@G@Z 10009f96 f i POSPower.obj
 0001:00008fff       ?_AtlInitialConstruct@?$CComObjectRootEx@VCComMultiThreadModel@ATL@@@ATL@@QAEJXZ 10009fff f i POSPower.obj
 0001:00009014       ?_AtlVerifyStackAvailable@_ATL_SAFE_ALLOCA_IMPL@ATL@@YA_NK@Z 1000a014 f i POSPower.obj
 0001:00009092       ?atlCreate@?$CWindowImpl@VCOPOSPOSPower@@VCWindow@ATL@@V?$CWinTraits@$0FGAAAAAA@$0A@@3@@ATL@@QAEPAUHWND__@@PAU3@V_U_RECT@2@PB_WKKV_U_MENUorID@2@PAX@Z 1000a092 f i POSPower.obj
 0001:000090d6       ?atlCreate@?$CWindowImplBaseT@VCWindow@ATL@@V?$CWinTraits@$0FGAAAAAA@$0A@@2@@ATL@@QAEPAUHWND__@@PAU3@V_U_RECT@2@PB_WKKV_U_MENUorID@2@GPAX@Z 1000a0d6 f i POSPower.obj
 0001:00009172       ?copy@?$_Copy@UtagCONNECTDATA@@@ATL@@SAJPAUtagCONNECTDATA@@PBU3@@Z 1000a172 f i POSPower.obj
 0001:000091a8       ?copy@?$_CopyInterface@UIConnectionPoint@@@ATL@@SAJPAPAUIConnectionPoint@@PBQAU3@@Z 1000a1a8 f i POSPower.obj
 0001:000091d6       ?memcpy_s@Checked@ATL@@YAXPAXIPBXI@Z 1000a1d6 f i POSPower.obj
 0001:000091f5       ?ocscpy_s@@YA_NPA_WIPB_W@Z 1000a1f5 f i POSPower.obj
 0001:0000923f       ?wcscpy_s@Checked@ATL@@YAXPA_WIPB_W@Z 1000a23f f i POSPower.obj
 0001:0000925b       _DllCanUnloadNow@0         1000a25b f   POSPower.obj
 0001:00009267       _DllGetClassObject@12      1000a267 f   POSPower.obj
 0001:00009275       _DllMain@12                1000a275 f   POSPower.obj
 0001:000092b7       _DllRegisterServer@0       1000a2b7 f   POSPower.obj
 0001:000092c6       _DllUnregisterServer@0     1000a2c6 f   POSPower.obj
 0001:000092d5       _InlineIsEqualGUID         1000a2d5 f i POSPower.obj
 0001:00009305       ___local_stdio_printf_options 1000a305 f i POSPower.obj
 0001:0000930b       __vswprintf_s_l            1000a30b f i POSPower.obj
 0001:000093b8       _swprintf_s                1000a3b8 f i POSPower.obj
 0001:000093d4       ??0?$CComControl@VCOPOSPOSPower@@V?$CWindowImpl@VCOPOSPOSPower@@VCWindow@ATL@@V?$CWinTraits@$0FGAAAAAA@$0A@@3@@ATL@@@ATL@@QAE@XZ 1000a3d4 f i POSPowerImpl.obj
 0001:000093fb       ??0CComControlBase@ATL@@QAE@AAPAUHWND__@@@Z 1000a3fb f i POSPowerImpl.obj
 0001:00009445       ??0COPOSPOSPower@@QAE@XZ   1000a445 f   POSPowerImpl.obj
 0001:00009494       ??1?$CComControl@VCOPOSPOSPower@@V?$CWindowImpl@VCOPOSPOSPower@@VCWindow@ATL@@V?$CWinTraits@$0FGAAAAAA@$0A@@3@@ATL@@@ATL@@UAE@XZ 1000a494 f i POSPowerImpl.obj
 0001:000094ad       ??1?$IConnectionPointImpl@VCOPOSPOSPower@@$1?IID_IPropertyNotifySink@@3U_GUID@@BVCComDynamicUnkArray@ATL@@@ATL@@QAE@XZ 1000a4ad f i POSPowerImpl.obj
 0001:000094ad       ??1?$IConnectionPointImpl@VCOPOSPOSPower@@$1?DIID__IOPOSPOSPowerEvents@@3U_GUID@@BVCComDynamicUnkArray@ATL@@@ATL@@QAE@XZ 1000a4ad f i POSPowerImpl.obj
 0001:000094ea       ??1CComControlBase@ATL@@UAE@XZ 1000a4ea f i POSPowerImpl.obj
 0001:0000954d       ??1COPOSPOSPower@@UAE@XZ   1000a54d f   POSPowerImpl.obj
 0001:00009595       ?CheckHealth@COPOSPOSPower@@UAGJJPAJ@Z 1000a595 f   POSPowerImpl.obj
 0001:000095e4       ?ClaimDevice@COPOSPOSPower@@UAGJJPAJ@Z 1000a5e4 f   POSPowerImpl.obj
 0001:00009652       ?Close@COPOSPOSPower@@UAGJPAJ@Z 1000a652 f   POSPowerImpl.obj
 0001:000096c0       ?CompareFirmwareVersion@COPOSPOSPower@@UAGJPA_WPAJ1@Z 1000a6c0 f   POSPowerImpl.obj
 0001:00009740       ?DirectIO@COPOSPOSPower@@UAGJJPAJPAPA_W0@Z 1000a740 f   POSPowerImpl.obj
 0001:000097ee       ?DoInvoke@COPOSPOSPower@@IAEJJPAVOposVariant@@IHPAJ_N@Z 1000a7ee f   POSPowerImpl.obj
 0001:000098ca       ?EventClose@COPOSPOSPower@@IAEXXZ 1000a8ca f i POSPowerImpl.obj
 0001:000098fd       ?EventInit@COPOSPOSPower@@IAEJXZ 1000a8fd f i POSPowerImpl.obj
 0001:000099c9       ?EventUninit@COPOSPOSPower@@IAEXXZ 1000a9c9 f i POSPowerImpl.obj
 0001:00009a1b       ?EventWindowProc@COPOSPOSPower@@IAGJIIJ@Z 1000aa1b f i POSPowerImpl.obj
 0001:00009a92       ?FinalConstruct@COPOSPOSPower@@QAEJXZ 1000aa92 f   POSPowerImpl.obj
 0001:00009acb       ?FireEventCleanup@COPOSPOSPower@@IAEXXZ 1000aacb f i POSPowerImpl.obj
 0001:00009ae1       ?FireEventSetup@COPOSPOSPower@@IAE_NXZ 1000aae1 f i POSPowerImpl.obj
 0001:00009b15       ?FreezeEvents@COPOSPOSPower@@MAGJH@Z 1000ab15 f   POSPowerImpl.obj
 0001:00009b66       ?GetOposProp@COPOSPOSPower@@IAEJJPAFJ@Z 1000ab66 f   POSPowerImpl.obj
 0001:00009b89       ?GetOposProp@COPOSPOSPower@@IAEJJPAJJ@Z 1000ab89 f   POSPowerImpl.obj
 0001:00009c58       ?GetOposProp@COPOSPOSPower@@IAEJJPAPA_WJ@Z 1000ac58 f   POSPowerImpl.obj
 0001:00009d34       ?OnDraw@COPOSPOSPower@@MAEJAAUATL_DRAWINFO@@@Z 1000ad34 f   POSPowerImpl.obj
 0001:00009dd4       ?Open@COPOSPOSPower@@UAGJPA_WPAJ@Z 1000add4 f   POSPowerImpl.obj
 0001:0000a61b       ?ReleaseDevice@COPOSPOSPower@@UAGJPAJ@Z 1000b61b f   POSPowerImpl.obj
 0001:0000a652       ?ResetStatistics@COPOSPOSPower@@UAGJPA_WPAJ@Z 1000b652 f   POSPowerImpl.obj
 0001:0000a6a9       ?RestartPOS@COPOSPOSPower@@UAGJPAJ@Z 1000b6a9 f   POSPowerImpl.obj
 0001:0000a6c4       ?RetrieveStatistics@COPOSPOSPower@@UAGJPAPA_WPAJ@Z 1000b6c4 f   POSPowerImpl.obj
 0001:0000a71b       ?SOProcessID@COPOSPOSPower@@UAGJPAJ@Z 1000b71b f   POSPowerImpl.obj
 0001:0000a72f       ?SetCOFreezeEvents@COPOSPOSPower@@IAEXF@Z 1000b72f f   POSPowerImpl.obj
 0001:0000a7cf       ?SetOposProp@COPOSPOSPower@@IAEJJJJ@Z 1000b7cf f   POSPowerImpl.obj
 0001:0000a8c6       ?ShutdownPOS@COPOSPOSPower@@UAGJPAJ@Z 1000b8c6 f   POSPowerImpl.obj
 0001:0000a8e1       ?StandbyPOS@COPOSPOSPower@@UAGJJPAJ@Z 1000b8e1 f   POSPowerImpl.obj
 0001:0000a930       ?SuspendPOS@COPOSPOSPower@@UAGJJPAJ@Z 1000b930 f   POSPowerImpl.obj
 0001:0000a97f       ?UpdateFirmware@COPOSPOSPower@@UAGJPA_WPAJ@Z 1000b97f f   POSPowerImpl.obj
 0001:0000a9d6       ?UpdateStatistics@COPOSPOSPower@@UAGJPA_WPAJ@Z 1000b9d6 f   POSPowerImpl.obj
 0001:0000aa2d       ?get_BatteryCapacityRemaining@COPOSPOSPower@@UAGJPAJ@Z 1000ba2d f   POSPowerImpl.obj
 0001:0000aa46       ?get_BatteryCriticallyLowThreshold@COPOSPOSPower@@UAGJPAJ@Z 1000ba46 f   POSPowerImpl.obj
 0001:0000aa5f       ?get_BatteryLowThreshold@COPOSPOSPower@@UAGJPAJ@Z 1000ba5f f   POSPowerImpl.obj
 0001:0000aa78       ?get_BinaryConversion@COPOSPOSPower@@UAGJPAJ@Z 1000ba78 f   POSPowerImpl.obj
 0001:0000aa8e       ?get_CapBatteryCapacityRemaining@COPOSPOSPower@@UAGJPAF@Z 1000ba8e f   POSPowerImpl.obj
 0001:0000aaa7       ?get_CapCompareFirmwareVersion@COPOSPOSPower@@UAGJPAF@Z 1000baa7 f   POSPowerImpl.obj
 0001:0000aac0       ?get_CapFanAlarm@COPOSPOSPower@@UAGJPAF@Z 1000bac0 f   POSPowerImpl.obj
 0001:0000aad9       ?get_CapHeatAlarm@COPOSPOSPower@@UAGJPAF@Z 1000bad9 f   POSPowerImpl.obj
 0001:0000aaf2       ?get_CapPowerReporting@COPOSPOSPower@@UAGJPAJ@Z 1000baf2 f   POSPowerImpl.obj
 0001:0000ab0b       ?get_CapQuickCharge@COPOSPOSPower@@UAGJPAF@Z 1000bb0b f   POSPowerImpl.obj
 0001:0000ab24       ?get_CapRestartPOS@COPOSPOSPower@@UAGJPAF@Z 1000bb24 f   POSPowerImpl.obj
 0001:0000ab3d       ?get_CapShutdownPOS@COPOSPOSPower@@UAGJPAF@Z 1000bb3d f   POSPowerImpl.obj
 0001:0000ab56       ?get_CapStandbyPOS@COPOSPOSPower@@UAGJPAF@Z 1000bb56 f   POSPowerImpl.obj
 0001:0000ab6f       ?get_CapStatisticsReporting@COPOSPOSPower@@UAGJPAF@Z 1000bb6f f   POSPowerImpl.obj
 0001:0000ab88       ?get_CapSuspendPOS@COPOSPOSPower@@UAGJPAF@Z 1000bb88 f   POSPowerImpl.obj
 0001:0000aba1       ?get_CapUPSChargeState@COPOSPOSPower@@UAGJPAJ@Z 1000bba1 f   POSPowerImpl.obj
 0001:0000abba       ?get_CapUpdateFirmware@COPOSPOSPower@@UAGJPAF@Z 1000bbba f   POSPowerImpl.obj
 0001:0000abd3       ?get_CapUpdateStatistics@COPOSPOSPower@@UAGJPAF@Z 1000bbd3 f   POSPowerImpl.obj
 0001:0000abec       ?get_CapVariableBatteryCriticallyLowThreshold@COPOSPOSPower@@UAGJPAF@Z 1000bbec f   POSPowerImpl.obj
 0001:0000ac05       ?get_CapVariableBatteryLowThreshold@COPOSPOSPower@@UAGJPAF@Z 1000bc05 f   POSPowerImpl.obj
 0001:0000ac1e       ?get_CheckHealthText@COPOSPOSPower@@UAGJPAPA_W@Z 1000bc1e f   POSPowerImpl.obj
 0001:0000ac37       ?get_Claimed@COPOSPOSPower@@UAGJPAF@Z 1000bc37 f   POSPowerImpl.obj
 0001:0000ac4d       ?get_ControlObjectDescription@COPOSPOSPower@@UAGJPAPA_W@Z 1000bc4d f   POSPowerImpl.obj
 0001:0000ac9b       ?get_ControlObjectVersion@COPOSPOSPower@@UAGJPAJ@Z 1000bc9b f   POSPowerImpl.obj
 0001:0000acae       ?get_DeviceDescription@COPOSPOSPower@@UAGJPAPA_W@Z 1000bcae f   POSPowerImpl.obj
 0001:0000acc7       ?get_DeviceEnabled@COPOSPOSPower@@UAGJPAF@Z 1000bcc7 f   POSPowerImpl.obj
 0001:0000acdd       ?get_DeviceName@COPOSPOSPower@@UAGJPAPA_W@Z 1000bcdd f   POSPowerImpl.obj
 0001:0000acf6       ?get_EnforcedShutdownDelayTime@COPOSPOSPower@@UAGJPAJ@Z 1000bcf6 f   POSPowerImpl.obj
 0001:0000ad0f       ?get_FreezeEvents@COPOSPOSPower@@UAGJPAF@Z 1000bd0f f   POSPowerImpl.obj
 0001:0000ad25       ?get_OpenResult@COPOSPOSPower@@UAGJPAJ@Z 1000bd25 f   POSPowerImpl.obj
 0001:0000ad3c       ?get_PowerFailDelayTime@COPOSPOSPower@@UAGJPAJ@Z 1000bd3c f   POSPowerImpl.obj
 0001:0000ad55       ?get_PowerNotify@COPOSPOSPower@@UAGJPAJ@Z 1000bd55 f   POSPowerImpl.obj
 0001:0000ad6b       ?get_PowerSource@COPOSPOSPower@@UAGJPAJ@Z 1000bd6b f   POSPowerImpl.obj
 0001:0000ad84       ?get_PowerState@COPOSPOSPower@@UAGJPAJ@Z 1000bd84 f   POSPowerImpl.obj
 0001:0000ad9a       ?get_QuickChargeMode@COPOSPOSPower@@UAGJPAF@Z 1000bd9a f   POSPowerImpl.obj
 0001:0000adb3       ?get_QuickChargeTime@COPOSPOSPower@@UAGJPAJ@Z 1000bdb3 f   POSPowerImpl.obj
 0001:0000adcc       ?get_ResultCode@COPOSPOSPower@@UAGJPAJ@Z 1000bdcc f   POSPowerImpl.obj
 0001:0000ae0a       ?get_ResultCodeExtended@COPOSPOSPower@@UAGJPAJ@Z 1000be0a f   POSPowerImpl.obj
 0001:0000ae20       ?get_ServiceObjectDescription@COPOSPOSPower@@UAGJPAPA_W@Z 1000be20 f   POSPowerImpl.obj
 0001:0000ae39       ?get_ServiceObjectVersion@COPOSPOSPower@@UAGJPAJ@Z 1000be39 f   POSPowerImpl.obj
 0001:0000ae4f       ?get_State@COPOSPOSPower@@UAGJPAJ@Z 1000be4f f   POSPowerImpl.obj
 0001:0000ae7b       ?get_UPSChargeState@COPOSPOSPower@@UAGJPAJ@Z 1000be7b f   POSPowerImpl.obj
 0001:0000ae94       ?put_BatteryCriticallyLowThreshold@COPOSPOSPower@@UAGJJ@Z 1000be94 f   POSPowerImpl.obj
 0001:0000aead       ?put_BatteryLowThreshold@COPOSPOSPower@@UAGJJ@Z 1000bead f   POSPowerImpl.obj
 0001:0000aec6       ?put_BinaryConversion@COPOSPOSPower@@UAGJJ@Z 1000bec6 f   POSPowerImpl.obj
 0001:0000aedc       ?put_DeviceEnabled@COPOSPOSPower@@UAGJF@Z 1000bedc f   POSPowerImpl.obj
 0001:0000aef9       ?put_EnforcedShutdownDelayTime@COPOSPOSPower@@UAGJJ@Z 1000bef9 f   POSPowerImpl.obj
 0001:0000af12       ?put_FreezeEvents@COPOSPOSPower@@UAGJF@Z 1000bf12 f   POSPowerImpl.obj
 0001:0000af5e       ?put_PowerNotify@COPOSPOSPower@@UAGJJ@Z 1000bf5e f   POSPowerImpl.obj
 0001:0000af74       ?s_EventWindowProc@COPOSPOSPower@@KGJPAUHWND__@@IIJ@Z 1000bf74 f i POSPowerImpl.obj
 0001:0000afc6       ??_U@YAPAXI@Z              1000bfc6 f   LIBCMT:new_array.obj
 0001:0000afcf       ??3@YAXPAXI@Z              1000bfcf f   LIBCMT:delete_scalar_size.obj
 0001:0000afdd       ??_V@YAXPAX@Z              1000bfdd f   LIBCMT:delete_array.obj
 0001:0000afe2       ??_V@YAXPAXI@Z             1000bfe2 f   LIBCMT:delete_array_size.obj
 0001:0000b034       ___scrt_acquire_startup_lock 1000c034 f   LIBCMT:utility.obj
 0001:0000b066       ___scrt_dllmain_after_initialize_c 1000c066 f   LIBCMT:utility.obj
 0001:0000b091       ___scrt_dllmain_before_initialize_c 1000c091 f   LIBCMT:utility.obj
 0001:0000b09f       ___scrt_dllmain_crt_thread_attach 1000c09f f   LIBCMT:utility.obj
 0001:0000b0be       ___scrt_dllmain_crt_thread_detach 1000c0be f   LIBCMT:utility.obj
 0001:0000b0cb       ___scrt_dllmain_exception_filter 1000c0cb f   LIBCMT:utility.obj
 0001:0000b0ff       ___scrt_dllmain_uninitialize_c 1000c0ff f   LIBCMT:utility.obj
 0001:0000b122       ___scrt_dllmain_uninitialize_critical 1000c122 f   LIBCMT:utility.obj
 0001:0000b12f       ___scrt_initialize_crt     1000c12f f   LIBCMT:utility.obj
 0001:0000b168       ___scrt_initialize_onexit_tables 1000c168 f   LIBCMT:utility.obj
 0001:0000b1ef       ___scrt_is_nonwritable_in_current_image 1000c1ef f   LIBCMT:utility.obj
 0001:0000b283       ___scrt_release_startup_lock 1000c283 f   LIBCMT:utility.obj
 0001:0000b2a0       ___scrt_uninitialize_crt   1000c2a0 f   LIBCMT:utility.obj
 0001:0000b2c8       __onexit                   1000c2c8 f   LIBCMT:utility.obj
 0001:0000b2f5       _atexit                    1000c2f5 f   LIBCMT:utility.obj
 0001:0000b30a       ??3@YAXPAX@Z               1000c30a f   LIBCMT:delete_scalar.obj
 0001:0000b3d4       __Init_thread_footer       1000c3d4 f   LIBCMT:thread_safe_statics.obj
 0001:0000b41e       __Init_thread_header       1000c41e f   LIBCMT:thread_safe_statics.obj
 0001:0000b470       __Init_thread_notify       1000c470 f   LIBCMT:thread_safe_statics.obj
 0001:0000b4a6       __Init_thread_wait         1000c4a6 f   LIBCMT:thread_safe_statics.obj
 0001:0000b4f4       ___raise_securityfailure   1000c4f4 f   LIBCMT:gs_report.obj
 0001:0000b51c       ___report_gsfailure        1000c51c f   LIBCMT:gs_report.obj
 0001:0000b615       ___report_rangecheckfailure 1000c615 f   LIBCMT:gs_report.obj
 0001:0000b621       ___report_securityfailure  1000c621 f   LIBCMT:gs_report.obj
 0001:0000b6ef       ??2@YAPAXIABUnothrow_t@std@@@Z 1000c6ef f   LIBCMT:new_scalar_nothrow.obj
 0001:0000b73f       ??_U@YAPAXIABUnothrow_t@std@@@Z 1000c73f f   LIBCMT:new_array_nothrow.obj
 0001:0000b748       @__security_check_cookie@4 1000c748 f   LIBCMT:secchk.obj
 0001:0000b760       __SEH_prolog4_GS           1000c760 f   LIBCMT:sehprolg4gs.obj
 0001:0000b7a9       __SEH_epilog4_GS           1000c7a9 f   LIBCMT:sehprolg4gs.obj
 0001:0000b7c0       __alloca_probe_16          1000c7c0 f   LIBCMT:alloca16.obj
 0001:0000b7d6       __alloca_probe_8           1000c7d6     LIBCMT:alloca16.obj
 0001:0000b7f0       __alloca_probe             1000c7f0 f   LIBCMT:chkstk.obj
 0001:0000b7f0       __chkstk                   1000c7f0 f   LIBCMT:chkstk.obj
 0001:0000bb5d       __DllMainCRTStartup@12     1000cb5d f   LIBCMT:dll_dllmain.obj
 0001:0000bb80       ??2@YAPAXI@Z               1000cb80 f   LIBCMT:new_scalar.obj
 0001:0000bbb0       ___isa_available_init      1000cbb0 f   LIBCMT:cpu_disp.obj
 0001:0000bd80       ___scrt_is_ucrt_dll_in_use 1000cd80 f   LIBCMT:ucrt_detection.obj
 0001:0000bd8c       ___scrt_fastfail           1000cd8c f   LIBCMT:utility_desktop.obj
 0001:0000bea6       __crt_debugger_hook        1000cea6 f   LIBCMT:utility_desktop.obj
 0001:0000beb0       __SEH_prolog4              1000ceb0 f   LIBCMT:sehprolg4.obj
 0001:0000bef6       __SEH_epilog4              1000cef6 f   LIBCMT:sehprolg4.obj
 0001:0000bf0b       @_guard_check_icall_nop@4  1000cf0b f i LIBCMT:guard_support.obj
 0001:0000bf59       ___security_init_cookie    1000cf59 f   LIBCMT:gs_support.obj
 0001:0000bfa4       ?__scrt_initialize_type_info@@YAXXZ 1000cfa4 f   LIBCMT:tncleanup.obj
 0001:0000bfb0       ?__scrt_uninitialize_type_info@@YAXXZ 1000cfb0 f   LIBCMT:tncleanup.obj
 0001:0000bfbc       ___local_stdio_scanf_options 1000cfbc f i LIBCMT:default_local_stdio_options.obj
 0001:0000bfc2       ___scrt_initialize_default_local_stdio_options 1000cfc2 f   LIBCMT:default_local_stdio_options.obj
 0001:0000bfdf       ___scrt_get_dyn_tls_init_callback 1000cfdf f   LIBCMT:dyn_tls_init.obj
 0001:0000bfe5       __RTC_Initialize           1000cfe5 f   LIBCMT:initsect.obj
 0001:0000c011       __RTC_Terminate            1000d011 f   LIBCMT:initsect.obj
 0001:0000c03d       ??0bad_alloc@std@@QAE@ABV01@@Z 1000d03d f i LIBCMT:throw_bad_alloc.obj
 0001:0000c058       ??0bad_alloc@std@@QAE@XZ   1000d058 f i LIBCMT:throw_bad_alloc.obj
 0001:0000c070       ??0bad_array_new_length@std@@QAE@ABV01@@Z 1000d070 f i LIBCMT:throw_bad_alloc.obj
 0001:0000c08b       ??0bad_array_new_length@std@@QAE@XZ 1000d08b f i LIBCMT:throw_bad_alloc.obj
 0001:0000c0a3       ??0exception@std@@QAE@ABV01@@Z 1000d0a3 f i LIBCMT:throw_bad_alloc.obj
 0001:0000c0cf       ??1bad_alloc@std@@UAE@XZ   1000d0cf f i LIBCMT:throw_bad_alloc.obj
 0001:0000c0cf       ??1bad_exception@std@@UAE@XZ 1000d0cf f i libvcruntime:frame.obj
 0001:0000c0cf       ??1bad_array_new_length@std@@UAE@XZ 1000d0cf f i LIBCMT:throw_bad_alloc.obj
 0001:0000c0e0       ??_Eexception@std@@UAEPAXI@Z 1000d0e0 f i LIBCMT:throw_bad_alloc.obj
 0001:0000c0e0       ??_Ebad_alloc@std@@UAEPAXI@Z 1000d0e0 f i LIBCMT:throw_bad_alloc.obj
 0001:0000c0e0       ??_Gbad_alloc@std@@UAEPAXI@Z 1000d0e0 f i LIBCMT:throw_bad_alloc.obj
 0001:0000c0e0       ??_Gexception@std@@UAEPAXI@Z 1000d0e0 f i LIBCMT:throw_bad_alloc.obj
 0001:0000c0e0       ??_Gbad_exception@std@@UAEPAXI@Z 1000d0e0 f i libvcruntime:frame.obj
 0001:0000c0e0       ??_Ebad_array_new_length@std@@UAEPAXI@Z 1000d0e0 f i LIBCMT:throw_bad_alloc.obj
 0001:0000c0e0       ??_Gbad_array_new_length@std@@UAEPAXI@Z 1000d0e0 f i LIBCMT:throw_bad_alloc.obj
 0001:0000c0e0       ??_Ebad_exception@std@@UAEPAXI@Z 1000d0e0 f i libvcruntime:frame.obj
 0001:0000c10d       ?__scrt_throw_std_bad_alloc@@YAXXZ 1000d10d f   LIBCMT:throw_bad_alloc.obj
 0001:0000c12a       ?__scrt_throw_std_bad_array_new_length@@YAXXZ 1000d12a f   LIBCMT:throw_bad_alloc.obj
 0001:0000c147       ?what@exception@std@@UBEPBDXZ 1000d147 f i LIBCMT:throw_bad_alloc.obj
 0001:0000c154       ??_Gtype_info@@UAEPAXI@Z   1000d154 f i LIBCMT:std_type_info_static.obj
 0001:0000c154       ??_Etype_info@@UAEPAXI@Z   1000d154 f i LIBCMT:std_type_info_static.obj
 0001:0000c177       ??0CAtlBaseModule@ATL@@QAE@XZ 1000d177 f   atls:atlbase.obj
 0001:0000c1ca       ??0_ATL_BASE_MODULE70@ATL@@QAE@XZ 1000d1ca f i atls:atlbase.obj
 0001:0000c1ed       ??1CAtlBaseModule@ATL@@QAE@XZ 1000d1ed f   atls:atlbase.obj
 0001:0000c2da       ?Init@_stdcallthunk@ATL@@QAEHKPAX@Z 1000d2da f i atls:atlthunk.obj
 0001:0000c30f       ?__AllocStdCallThunk_cmn@@YAPAXXZ 1000d30f f   atls:atlthunk.obj
 0001:0000c3d5       ?__FreeStdCallThunk_cmn@@YAXPAX@Z 1000d3d5 f   atls:atlthunk.obj
 0001:0000c470       _AtlThunk_AllocateData@0   1000d470 f   atls:atlthunk.obj
 0001:0000c4d5       _AtlThunk_DataToCode@4     1000d4d5 f   atls:atlthunk.obj
 0001:0000c51c       _AtlThunk_FreeData@4       1000d51c f   atls:atlthunk.obj
 0001:0000c572       _AtlThunk_InitData@12      1000d572 f   atls:atlthunk.obj
 0001:0000c5c1       __get_purecall_handler     1000d5c1 f   libvcruntime:purevirt.obj
 0001:0000c5c7       __purecall                 1000d5c7 f   libvcruntime:purevirt.obj
 0001:0000c5e3       _wcsstr                    1000d5e3 f   libvcruntime:wcsstr.obj
 0001:0000c890       __except_handler4          1000d890 f   libvcruntime:chandler4.obj
 0001:0000c9ee       _memcmp                    1000d9ee f   libvcruntime:memcmp.obj
 0001:0000d900       _memcpy                    1000e900 f   libvcruntime:memcpy.obj
 0001:0000de80       _memset                    1000ee80 f   libvcruntime:memset.obj
 0001:0000dfda       ___vcrt_initialize         1000efda f   libvcruntime:initialization.obj
 0001:0000dff9       ___vcrt_thread_attach      1000eff9 f   libvcruntime:initialization.obj
 0001:0000e004       ___vcrt_thread_detach      1000f004 f   libvcruntime:initialization.obj
 0001:0000e00f       ___vcrt_uninitialize       1000f00f f   libvcruntime:initialization.obj
 0001:0000e026       ___vcrt_uninitialize_critical 1000f026 f   libvcruntime:initialization.obj
 0001:0000e02e       ?GetRangeOfTrysToCheck@__FrameHandler3@@SA?AU?$pair@Viterator@TryBlockMap@__FrameHandler3@@V123@@std@@AAVTryBlockMap@1@HPAXPBU_s_FuncInfo@@H@Z 1000f02e f   libvcruntime:trnsctrl.obj
 0001:0000e09e       ?_CallCatchBlock2@@YAPAXPAUEHRegistrationNode@@PBU_s_FuncInfo@@PAXHK@Z 1000f09e f   libvcruntime:trnsctrl.obj
 0001:0000e0fc       ?_CallSETranslator@@YAHPAUEHExceptionRecord@@PAUEHRegistrationNode@@PAX2PBU_s_FuncInfo@@H1@Z 1000f0fc f   libvcruntime:trnsctrl.obj
 0001:0000e1e2       ?_JumpToContinuation@@YGXPAXPAUEHRegistrationNode@@@Z 1000f1e2 f   libvcruntime:trnsctrl.obj
 0001:0000e212       ?_UnwindNestedFrames@@YGXPAUEHRegistrationNode@@PAUEHExceptionRecord@@@Z 1000f212 f   libvcruntime:trnsctrl.obj
 0001:0000e265       __CatchGuardHandler        1000f265 f   libvcruntime:trnsctrl.obj
 0001:0000e296       __CreateFrameInfo          1000f296 f   libvcruntime:trnsctrl.obj
 0001:0000e2ba       __FindAndUnlinkFrame       1000f2ba f   libvcruntime:trnsctrl.obj
 0001:0000e302       __TranslatorGuardHandler   1000f302 f   libvcruntime:trnsctrl.obj
 0001:0000e39f       ___CxxFrameHandler3        1000f39f f   libvcruntime:trnsctrl.obj
 0001:0000e3d5       ___DestructExceptionObject 1000f3d5 f   libvcruntime:ehhelpers.obj
 0001:0000e476       ?_CallMemberFunction0@@YGXQAX0@Z 1000f476 f i libvcruntime:ehhelpers.obj
 0001:0000e4db       __IsExceptionObjectToBeDestroyed 1000f4db f   libvcruntime:ehhelpers.obj
 0001:0000e501       ___AdjustPointer           1000f501 f   libvcruntime:ehhelpers.obj
 0001:0000e526       ___FrameUnwindFilter       1000f526 f   libvcruntime:ehhelpers.obj
 0001:0000e57c       ___std_type_info_compare   1000f57c f   libvcruntime:std_type_info.obj
 0001:0000e5b8       ___std_type_info_destroy_list 1000f5b8 f   libvcruntime:std_type_info.obj
 0001:0000e5db       ___std_exception_copy      1000f5db f   libvcruntime:std_exception.obj
 0001:0000e63e       ___std_exception_destroy   1000f63e f   libvcruntime:std_exception.obj
 0001:0000e65d       __CxxThrowException@8      1000f65d f   libvcruntime:throw.obj
 0001:0000e6d0       _memmove                   1000f6d0 f   libvcruntime:memmove.obj
 0001:0000ec50       __local_unwind4            1000fc50 f   libvcruntime:exsup4.obj
 0001:0000ed28       __seh_longjmp_unwind4@4    1000fd28 f   libvcruntime:exsup4.obj
 0001:0000ed50       @_EH4_CallFilterFunc@8     1000fd50 f   libvcruntime:exsup4.obj
 0001:0000ed68       @_EH4_TransferToHandler@8  1000fd68 f   libvcruntime:exsup4.obj
 0001:0000ed84       @_EH4_GlobalUnwind2@8      1000fd84 f   libvcruntime:exsup4.obj
 0001:0000eda0       @_EH4_LocalUnwind@16       1000fda0 f   libvcruntime:exsup4.obj
 0001:0000edb7       ___except_validate_context_record 1000fdb7 f   libvcruntime:jbcxrval.obj
 0001:0000ede7       ___except_validate_jump_buffer 1000fde7 f   libvcruntime:jbcxrval.obj
 0001:0000ee14       ___vcrt_freefls@4          1000fe14 f   libvcruntime:per_thread_data.obj
 0001:0000ee30       ___vcrt_freeptd            1000fe30 f   libvcruntime:per_thread_data.obj
 0001:0000ee66       ___vcrt_getptd             1000fe66 f   libvcruntime:per_thread_data.obj
 0001:0000ee74       ___vcrt_getptd_noexit      1000fe74 f   libvcruntime:per_thread_data.obj
 0001:0000ef06       ___vcrt_initialize_ptd     1000ff06 f   libvcruntime:per_thread_data.obj
 0001:0000ef39       ___vcrt_uninitialize_ptd   1000ff39 f   libvcruntime:per_thread_data.obj
 0001:0000ef54       ___vcrt_initialize_locks   1000ff54 f   libvcruntime:locks.obj
 0001:0000ef90       ___vcrt_uninitialize_locks 1000ff90 f   libvcruntime:locks.obj
 0001:0000f702       ??$TypeMatchHelper@V__FrameHandler3@@@@YAHPBU_s_HandlerType@@PBU_s_CatchableType@@PBU_s_ThrowInfo@@@Z 10010702 f i libvcruntime:frame.obj
 0001:0000f790       ??$__InternalCxxFrameHandler@V__FrameHandler3@@@@YA?AW4_EXCEPTION_DISPOSITION@@PAUEHExceptionRecord@@PAUEHRegistrationNode@@PAU_CONTEXT@@PAXPBU_s_FuncInfo@@H1E@Z 10010790 f i libvcruntime:frame.obj
 0001:0000f892       ??0bad_exception@std@@QAE@ABV01@@Z 10010892 f i libvcruntime:frame.obj
 0001:0000f8ad       ??0bad_exception@std@@QAE@XZ 100108ad f i libvcruntime:frame.obj
 0001:0000f8c5       ??8type_info@@QBE_NABV0@@Z 100108c5 f i libvcruntime:frame.obj
 0001:0000fb2c       ?FrameUnwindToEmptyState@__FrameHandler3@@SAXPAUEHRegistrationNode@@PAXPBU_s_FuncInfo@@@Z 10010b2c f   libvcruntime:frame.obj
 0001:0000fb44       ?FrameUnwindToState@__FrameHandler3@@SAXPAUEHRegistrationNode@@PAXPBU_s_FuncInfo@@H@Z 10010b44 f   libvcruntime:frame.obj
 0001:0000fcc6       ?_CallMemberFunction1@@YGXQAX00@Z 10010cc6 f i libvcruntime:frame.obj
 0001:0000fcd6       ?_CallMemberFunction2@@YGXQAX00H@Z 10010cd6 f i libvcruntime:frame.obj
 0001:0000fce9       ?getESTypes@__FrameHandler3@@SAPBU_s_ESTypeList@@PBU_s_FuncInfo@@@Z 10010ce9 f i libvcruntime:frame.obj
 0001:0000fd00       __CallSettingFrame@12      10010d00 f   libvcruntime:lowhelpr.obj
 0001:0000fd27       __NLG_Return               10010d27     libvcruntime:lowhelpr.obj
 0001:0000fd50       __global_unwind2           10010d50 f   libvcruntime:exsup.obj
 0001:0000fdb6       __local_unwind2            10010db6 f   libvcruntime:exsup.obj
 0001:0000fe3a       __abnormal_termination     10010e3a f   libvcruntime:exsup.obj
 0001:0000fe60       __NLG_Notify1              10010e60 f   libvcruntime:exsup.obj
 0001:0000fe6c       __NLG_Notify               10010e6c f   libvcruntime:exsup.obj
 0001:0000fe83       __NLG_Dispatch2            10010e83     libvcruntime:exsup.obj
 0001:0000fe83       __NLG_Dispatch             10010e83     libvcruntime:exsup.obj
 0001:0000fe8b       __NLG_Call                 10010e8b f   libvcruntime:exsup.obj
 0001:0000fe8d       __NLG_Return2              10010e8d     libvcruntime:exsup.obj
 0001:0000ff71       ___vcrt_FlsAlloc           10010f71 f   libvcruntime:winapi_downlevel.obj
 0001:0000ffac       ___vcrt_FlsFree            10010fac f   libvcruntime:winapi_downlevel.obj
 0001:0000ffe7       ___vcrt_FlsGetValue        10010fe7 f   libvcruntime:winapi_downlevel.obj
 0001:00010022       ___vcrt_FlsSetValue        10011022 f   libvcruntime:winapi_downlevel.obj
 0001:00010060       ___vcrt_InitializeCriticalSectionEx 10011060 f   libvcruntime:winapi_downlevel.obj
 0001:000100a7       _unexpected                100110a7 f   libvcruntime:unexpected.obj
 0001:000100c4       ?GetCurrentState@__FrameHandler3@@SAHPAUEHRegistrationNode@@PAXPBU_s_FuncInfo@@@Z 100110c4 f   libvcruntime:ehstate.obj
 0001:000100e1       ?SetState@__FrameHandler3@@SAXPAUEHRegistrationNode@@PBU_s_FuncInfo@@H@Z 100110e1 f   libvcruntime:ehstate.obj
 0001:000100ef       _free                      100110ef f   libucrt:free.obj
 0001:0001010a       ___acrt_call_reportfault   1001110a f   libucrt:invalid_parameter.obj
 0001:00010243       ___acrt_initialize_invalid_parameter_handler 10011243 f   libucrt:invalid_parameter.obj
 0001:00010252       __invalid_parameter        10011252 f   libucrt:invalid_parameter.obj
 0001:000102b6       __invalid_parameter_noinfo 100112b6 f   libucrt:invalid_parameter.obj
 0001:000102c6       __invoke_watson            100112c6 f   libucrt:invalid_parameter.obj
 0001:000102fa       ___acrt_errno_from_os_error 100112fa f   libucrt:errno.obj
 0001:0001033d       ___acrt_errno_map_os_error 1001133d f   libucrt:errno.obj
 0001:00010360       ___doserrno                10011360 f   libucrt:errno.obj
 0001:00010373       __errno                    10011373 f   libucrt:errno.obj
 0001:00010386       _calloc                    10011386 f   libucrt:calloc.obj
 0001:00010391       _malloc                    10011391 f   libucrt:malloc.obj
 0001:0001039c       __recalloc                 1001139c f   libucrt:recalloc.obj
 0001:000103a7       __recalloc_base            100113a7 f   libucrt:recalloc.obj
 0001:00010414       __resetstkoflw             10011414 f   libucrt:resetstk.obj
 0001:000104d9       _wcscat_s                  100114d9 f   libucrt:wcscat_s.obj
 0001:0001054e       _wcscpy_s                  1001154e f   libucrt:wcscpy_s.obj
 0001:0001067d       _wcsncpy_s                 1001167d f   libucrt:wcsncpy_s.obj
 0001:00010889       ??$count@D@formatting_buffer@__crt_stdio_output@@QBEIXZ 10011889 f i libucrt:output.obj
 0001:000108a1       ??$count@_W@formatting_buffer@__crt_stdio_output@@QBEIXZ 100118a1 f i libucrt:output.obj
 0001:000108ba       ??$ensure_buffer_is_big_enough@D@formatting_buffer@__crt_stdio_output@@QAE_NI@Z 100118ba f i libucrt:output.obj
 0001:00010937       ??$ensure_buffer_is_big_enough@_W@formatting_buffer@__crt_stdio_output@@QAE_NI@Z 10011937 f i libucrt:output.obj
 0001:000109b5       ??$is_wide_character_specifier@_W@__crt_stdio_output@@YA_N_K_WW4length_modifier@0@@Z 100119b5 f i libucrt:output.obj
 0001:00010a03       ??$scratch_data@D@formatting_buffer@__crt_stdio_output@@QAEPADXZ 10011a03 f i libucrt:output.obj
 0001:00010a21       ??$type_case_integer_parse_into_buffer@I@?$output_processor@_WV?$string_output_adapter@_W@__crt_stdio_output@@V?$format_validation_base@_WV?$string_output_adapter@_W@__crt_stdio_output@@@2@@__crt_stdio_output@@AAEXII_N@Z 10011a21 f i libucrt:output.obj
 0001:00010aa8       ??$type_case_integer_parse_into_buffer@_K@?$output_processor@_WV?$string_output_adapter@_W@__crt_stdio_output@@V?$format_validation_base@_WV?$string_output_adapter@_W@__crt_stdio_output@@@2@@__crt_stdio_output@@AAEX_KI_N@Z 10011aa8 f i libucrt:output.obj
 0001:00010b4a       ??$write_multiple_characters@V?$string_output_adapter@_W@__crt_stdio_output@@D@__crt_stdio_output@@YAXABV?$string_output_adapter@_W@0@DHQAH@Z 10011b4a f i libucrt:output.obj
 0001:00010b7b       ??0?$common_data@_W@__crt_stdio_output@@IAE@XZ 10011b7b f i libucrt:output.obj
 0001:00010bc5       ??0?$output_adapter_data@_WV?$string_output_adapter@_W@__crt_stdio_output@@@__crt_stdio_output@@IAE@ABV?$string_output_adapter@_W@1@_KQB_WQAU__crt_locale_pointers@@QAD@Z 10011bc5 f i libucrt:output.obj
 0001:00010c01       ??0_LocaleUpdate@@QAE@QAU__crt_locale_pointers@@@Z 10011c01 f i libucrt:output.obj
 0001:00010c84       ??1formatting_buffer@__crt_stdio_output@@QAE@XZ 10011c84 f i libucrt:output.obj
 0001:00010c9e       ??4?$__crt_unique_heap_ptr@DU__crt_internal_free_policy@@@@QAEAAV0@$$QAV0@@Z 10011c9e f i libucrt:output.obj
 0001:00010cd0       ?crop_zeroes@__crt_stdio_output@@YAXPADQAU__crt_locale_pointers@@@Z 10011cd0 f i libucrt:output.obj
 0001:00010d51       ?find_next_state@?$output_processor@_WV?$string_output_adapter@_W@__crt_stdio_output@@V?$format_validation_base@_WV?$string_output_adapter@_W@__crt_stdio_output@@@2@@__crt_stdio_output@@ABE?AW4state@2@_WW432@@Z 10011d51 f i libucrt:output.obj
 0001:00010d90       ?force_decimal_point@__crt_stdio_output@@YAXPADQAU__crt_locale_pointers@@@Z 10011d90 f i libucrt:output.obj
 0001:00010df5       ?parse_int_from_format_string@?$output_processor@_WV?$string_output_adapter@_W@__crt_stdio_output@@V?$format_validation_base@_WV?$string_output_adapter@_W@__crt_stdio_output@@@2@@__crt_stdio_output@@AAE_NQAH@Z 10011df5 f i libucrt:output.obj
 0001:00010e6b       ?process@?$output_processor@_WV?$string_output_adapter@_W@__crt_stdio_output@@V?$format_validation_base@_WV?$string_output_adapter@_W@__crt_stdio_output@@@2@@__crt_stdio_output@@QAEHXZ 10011e6b f i libucrt:output.obj
 0001:00010f93       ?state_case_flag@?$output_processor@_WV?$string_output_adapter@_W@__crt_stdio_output@@V?$format_validation_base@_WV?$string_output_adapter@_W@__crt_stdio_output@@@2@@__crt_stdio_output@@AAE_NXZ 10011f93 f i libucrt:output.obj
 0001:00010fd0       ?state_case_normal@?$output_processor@_WV?$string_output_adapter@_W@__crt_stdio_output@@V?$format_validation_base@_WV?$string_output_adapter@_W@__crt_stdio_output@@@2@@__crt_stdio_output@@AAE_NXZ 10011fd0 f i libucrt:output.obj
 0001:00010fef       ?state_case_normal_common@?$output_processor@_WV?$string_output_adapter@_W@__crt_stdio_output@@V?$format_validation_base@_WV?$string_output_adapter@_W@__crt_stdio_output@@@2@@__crt_stdio_output@@AAE_NXZ 10011fef f i libucrt:output.obj
 0001:0001100a       ?state_case_precision@?$output_processor@_WV?$string_output_adapter@_W@__crt_stdio_output@@V?$format_validation_base@_WV?$string_output_adapter@_W@__crt_stdio_output@@@2@@__crt_stdio_output@@AAE_NXZ 1001200a f i libucrt:output.obj
 0001:00011031       ?state_case_size@?$output_processor@_WV?$string_output_adapter@_W@__crt_stdio_output@@V?$format_validation_base@_WV?$string_output_adapter@_W@__crt_stdio_output@@@2@@__crt_stdio_output@@AAE_NXZ 10012031 f i libucrt:output.obj
 0001:000111a9       ?state_case_type@?$output_processor@_WV?$string_output_adapter@_W@__crt_stdio_output@@V?$format_validation_base@_WV?$string_output_adapter@_W@__crt_stdio_output@@@2@@__crt_stdio_output@@AAE_NXZ 100121a9 f i libucrt:output.obj
 0001:00011406       ?state_case_width@?$output_processor@_WV?$string_output_adapter@_W@__crt_stdio_output@@V?$format_validation_base@_WV?$string_output_adapter@_W@__crt_stdio_output@@@2@@__crt_stdio_output@@AAE_NXZ 10012406 f i libucrt:output.obj
 0001:00011440       ?to_integer_size@__crt_stdio_output@@YAIW4length_modifier@1@@Z 10012440 f i libucrt:output.obj
 0001:0001149c       ?type_case_Z@?$output_processor@_WV?$string_output_adapter@_W@__crt_stdio_output@@V?$format_validation_base@_WV?$string_output_adapter@_W@__crt_stdio_output@@@2@@__crt_stdio_output@@AAE_NXZ 1001249c f i libucrt:output.obj
 0001:000114f6       ?type_case_a@?$output_processor@_WV?$string_output_adapter@_W@__crt_stdio_output@@V?$format_validation_base@_WV?$string_output_adapter@_W@__crt_stdio_output@@@2@@__crt_stdio_output@@AAE_NXZ 100124f6 f i libucrt:output.obj
 0001:0001165d       ?type_case_c_tchar@?$output_processor@_WV?$string_output_adapter@_W@__crt_stdio_output@@V?$format_validation_base@_WV?$string_output_adapter@_W@__crt_stdio_output@@@2@@__crt_stdio_output@@AAE_N_W@Z 1001265d f i libucrt:output.obj
 0001:000116f3       ?type_case_integer@?$output_processor@_WV?$string_output_adapter@_W@__crt_stdio_output@@V?$format_validation_base@_WV?$string_output_adapter@_W@__crt_stdio_output@@@2@@__crt_stdio_output@@AAE_NI_N@Z 100126f3 f i libucrt:output.obj
 0001:00011848       ?type_case_n@?$output_processor@_WV?$string_output_adapter@_W@__crt_stdio_output@@V?$format_validation_base@_WV?$string_output_adapter@_W@__crt_stdio_output@@@2@@__crt_stdio_output@@AAE_NXZ 10012848 f i libucrt:output.obj
 0001:000118bc       ?type_case_o@?$output_processor@_WV?$string_output_adapter@_W@__crt_stdio_output@@V?$format_validation_base@_WV?$string_output_adapter@_W@__crt_stdio_output@@@2@@__crt_stdio_output@@AAE_NXZ 100128bc f i libucrt:output.obj
 0001:000118db       ?type_case_p@?$output_processor@_WV?$string_output_adapter@_W@__crt_stdio_output@@V?$format_validation_base@_WV?$string_output_adapter@_W@__crt_stdio_output@@@2@@__crt_stdio_output@@AAE_NXZ 100128db f i libucrt:output.obj
 0001:000118f3       ?type_case_s@?$output_processor@_WV?$string_output_adapter@_W@__crt_stdio_output@@V?$format_validation_base@_WV?$string_output_adapter@_W@__crt_stdio_output@@@2@@__crt_stdio_output@@AAE_NXZ 100128f3 f i libucrt:output.obj
 0001:00011966       ?type_case_s_compute_narrow_string_length@?$output_processor@_WV?$string_output_adapter@_W@__crt_stdio_output@@V?$format_validation_base@_WV?$string_output_adapter@_W@__crt_stdio_output@@@2@@__crt_stdio_output@@ABEHH_W@Z 10012966 f i libucrt:output.obj
 0001:000119ad       ?validate@?$string_output_adapter@_W@__crt_stdio_output@@QBE_NXZ 100129ad f i libucrt:output.obj
 0001:000119ad       ?validate@?$c_string_character_source@_W@__crt_strtox@@QBE_NXZ 100129ad f i libucrt:atox.obj
 0001:000119c8       ?validate_and_update_state_at_end_of_format_string@?$format_validation_base@_WV?$string_output_adapter@_W@__crt_stdio_output@@@__crt_stdio_output@@IBE_NXZ 100129c8 f i libucrt:output.obj
 0001:000119ea       ?write_character@?$string_output_adapter@_W@__crt_stdio_output@@QBE_N_WQAH@Z 100129ea f i libucrt:output.obj
 0001:00011a2f       ?write_stored_string_tchar@?$output_processor@_WV?$string_output_adapter@_W@__crt_stdio_output@@V?$format_validation_base@_WV?$string_output_adapter@_W@__crt_stdio_output@@@2@@__crt_stdio_output@@AAE_N_W@Z 10012a2f f i libucrt:output.obj
 0001:00011abc       ?write_string@?$string_output_adapter@_W@__crt_stdio_output@@QBEXQB_WHQAHAAV__crt_deferred_errno_cache@@@Z 10012abc f i libucrt:output.obj
 0001:00011b2d       ___acrt_locale_get_ctype_array_value 10012b2d f i libucrt:output.obj
 0001:00011b4f       ___stdio_common_vswprintf_s 10012b4f f   libucrt:output.obj
 0001:00011b73       __seh_filter_dll           10012b73 f   libucrt:exception_filter.obj
 0001:00011b93       __seh_filter_exe           10012b93 f   libucrt:exception_filter.obj
 0001:00011f61       ___acrt_initialize_thread_local_exit_callback 10012f61 f   libucrt:exit.obj
 0001:00011f70       __cexit                    10012f70 f   libucrt:exit.obj
 0001:00011f7f       __exit                     10012f7f f   libucrt:exit.obj
 0001:00011f95       __is_c_termination_complete 10012f95 f   libucrt:exit.obj
 0001:00012246       ___acrt_allocate_buffer_for_argv 10013246 f   libucrt:argv_parsing.obj
 0001:00012295       __configure_narrow_argv    10013295 f   libucrt:argv_parsing.obj
 0001:000123f2       ??$uninitialize@A6AXAAPAPA_W@Z@?$dual_state_global@PAPA_W@__crt_state_management@@QAEXA6AXAAPAPA_W@Z@Z 100133f2 f i libucrt:environment_initialization.obj
 0001:000123f2       ??$uninitialize@A6AXAAPAPAD@Z@?$dual_state_global@PAPAD@__crt_state_management@@QAEXA6AXAAPAPAD@Z@Z 100133f2 f i libucrt:environment_initialization.obj
 0001:00012451       ___dcrt_uninitialize_environments_nolock 10013451 f   libucrt:environment_initialization.obj
 0001:00012488       __initialize_narrow_environment 10013488 f   libucrt:environment_initialization.obj
 0001:00012543       ??$__crt_fast_encode_pointer@PAP6AXXZ@@YAPAP6AXXZQAP6AXXZ@Z 10013543 f i libucrt:onexit.obj
 0001:00012543       ??$__crt_fast_encode_pointer@P6AHXZ@@YAP6AHXZQ6AHXZ@Z 10013543 f i libucrt:onexit.obj
 0001:00012543       ??$__crt_fast_encode_pointer@PAX@@YAPAXQAX@Z 10013543 f i libucrt:initialization.obj
 0001:00012765       __crt_atexit               10013765 f   libucrt:onexit.obj
 0001:0001277b       __execute_onexit_table     1001377b f   libucrt:onexit.obj
 0001:000127a8       __initialize_onexit_table  100137a8 f   libucrt:onexit.obj
 0001:000127d1       __register_onexit_function 100137d1 f   libucrt:onexit.obj
 0001:0001282b       ___acrt_uninitialize_command_line 1001382b f   libucrt:argv_data.obj
 0001:00012902       ___acrt_initialize         10013902 f   libucrt:initialization.obj
 0001:00012914       ___acrt_thread_attach      10013914 f   libucrt:initialization.obj
 0001:0001291f       ___acrt_thread_detach      1001391f f   libucrt:initialization.obj
 0001:00012927       ___acrt_uninitialize       10013927 f   libucrt:initialization.obj
 0001:00012957       ___acrt_uninitialize_critical 10013957 f   libucrt:initialization.obj
 0001:00012969       __initterm                 10013969 f   libucrt:initterm.obj
 0001:000129ae       __initterm_e               100139ae f   libucrt:initterm.obj
 0001:000129dc       ___acrt_initialize_new_handler 100139dc f   libucrt:new_handler.obj
 0001:000129eb       __callnewh                 100139eb f   libucrt:new_handler.obj
 0001:00012a18       __query_new_handler        10013a18 f   libucrt:new_handler.obj
 0001:00012a74       _terminate                 10013a74 f   libucrt:terminate.obj
 0001:00012ab0       _abort                     10013ab0 f   libucrt:abort.obj
 0001:00012af4       _strcpy_s                  10013af4 f   libucrt:strcpy_s.obj
 0001:00012b4e       ??$is_overflow_condition@K@__crt_strtox@@YA_NIK@Z 10013b4e f i libucrt:atox.obj
 0001:00012b7f       ??$parse_integer@KV?$c_string_character_source@_W@__crt_strtox@@@__crt_strtox@@YAKQAU__crt_locale_pointers@@V?$c_string_character_source@_W@0@H_N@Z 10013b7f f i libucrt:atox.obj
 0001:00013187       ?unget@?$c_string_character_source@_W@__crt_strtox@@QAEX_W@Z 10014187 f i libucrt:atox.obj
 0001:000131c0       _strncmp                   100141c0 f   libucrt:strncmp.obj
 0001:00013238       _wcsncmp                   10014238 f   libucrt:wcsncmp.obj
 0001:00013272       __free_base                10014272 f   libucrt:free_base.obj
 0001:000135ea       ___acrt_freeptd            100145ea f   libucrt:per_thread_data.obj
 0001:00013616       ___acrt_getptd             10014616 f   libucrt:per_thread_data.obj
 0001:000136d3       ___acrt_getptd_head        100146d3 f   libucrt:per_thread_data.obj
 0001:0001376d       ___acrt_getptd_noexit      1001476d f   libucrt:per_thread_data.obj
 0001:00013822       ___acrt_initialize_ptd     10014822 f   libucrt:per_thread_data.obj
 0001:0001384e       ___acrt_uninitialize_ptd   1001484e f   libucrt:per_thread_data.obj
 0001:00013868       __calloc_base              10014868 f   libucrt:calloc_base.obj
 0001:000138c5       __malloc_base              100148c5 f   libucrt:malloc_base.obj
 0001:00013913       __msize_base               10014913 f   libucrt:msize.obj
 0001:00013946       __realloc_base             10014946 f   libucrt:realloc_base.obj
 0001:00013b47       ___acrt_AppPolicyGetProcessTerminationMethodInternal@4 10014b47 f   libucrt:winapi_thunks.obj
 0001:00013b87       ___acrt_AreFileApisANSI@0  10014b87 f   libucrt:winapi_thunks.obj
 0001:00013ba6       ___acrt_FlsAlloc@4         10014ba6 f   libucrt:winapi_thunks.obj
 0001:00013be5       ___acrt_FlsFree@4          10014be5 f   libucrt:winapi_thunks.obj
 0001:00013c24       ___acrt_FlsGetValue@4      10014c24 f   libucrt:winapi_thunks.obj
 0001:00013c63       ___acrt_FlsSetValue@8      10014c63 f   libucrt:winapi_thunks.obj
 0001:00013ca5       ___acrt_InitializeCriticalSectionEx@12 10014ca5 f   libucrt:winapi_thunks.obj
 0001:00013cf0       ___acrt_LCMapStringEx@36   10014cf0 f   libucrt:winapi_thunks.obj
 0001:00013d4d       ___acrt_LocaleNameToLCID@8 10014d4d f   libucrt:winapi_thunks.obj
 0001:00013d7e       ___acrt_SetThreadStackGuarantee@4 10014d7e f   libucrt:winapi_thunks.obj
 0001:00013db9       ___acrt_initialize_winapi_thunks 10014db9 f   libucrt:winapi_thunks.obj
 0001:00013de4       ___acrt_uninitialize_winapi_thunks 10014de4 f   libucrt:winapi_thunks.obj
 0001:00013e1a       ??$make_c_string_character_source@_WPAPA_W@__crt_strtox@@YA?AV?$c_string_character_source@_W@0@QB_WQAPA_W@Z 10014e1a f i libucrt:strtox.obj
 0001:00013e35       _wcstol                    10014e35 f   libucrt:strtox.obj
 0001:00013e5f       __mbtowc_l                 10014e5f f   libucrt:mbtowc.obj
 0001:00013fa1       _mbtowc                    10014fa1 f   libucrt:mbtowc.obj
 0001:00013fbb       _wcsnlen                   10014fbb f   libucrt:strnlen.obj
 0001:0001416b       ___acrt_update_locale_info 1001516b f   libucrt:locale_update.obj
 0001:00014198       ___acrt_update_multibyte_info 10015198 f   libucrt:locale_update.obj
 0001:000141c5       ?__acrt_fp_classify@@YA?AW4__acrt_fp_class@@ABN@Z 100151c5 f i libucrt:cvt.obj
 0001:00014b77       ___acrt_fp_format          10015b77 f   libucrt:cvt.obj
 0001:00014cd5       __fileno                   10015cd5 f   libucrt:fileno.obj
 0001:00014cfc       ___acrt_initialize_stdio   10015cfc f   libucrt:_file.obj
 0001:00014dc4       ___acrt_uninitialize_stdio 10015dc4 f   libucrt:_file.obj
 0001:00014e10       __lock_file                10015e10 f   libucrt:_file.obj
 0001:00014e24       __unlock_file              10015e24 f   libucrt:_file.obj
 0001:00014e38       __get_printf_count_output  10015e38 f   libucrt:printf_count_output.obj
 0001:00014ebb       ___acrt_set_locale_changed 10015ebb f   libucrt:wsetlocale.obj
 0001:00014ec6       ___acrt_uninitialize_locale 10015ec6 f   libucrt:wsetlocale.obj
 0001:00015057       ___acrt_initialize_lowio   10016057 f   libucrt:ioinit.obj
 0001:000150b7       ___acrt_uninitialize_lowio 100160b7 f   libucrt:ioinit.obj
 0001:000150e3       ___acrt_initialize_locks   100160e3 f   libucrt:locks.obj
 0001:00015124       ___acrt_lock               10016124 f   libucrt:locks.obj
 0001:0001513b       ___acrt_uninitialize_locks 1001613b f   libucrt:locks.obj
 0001:0001516c       ___acrt_unlock             1001616c f   libucrt:locks.obj
 0001:00015183       ___acrt_get_process_end_policy 10016183 f   libucrt:win_policies.obj
 0001:0001534d       ??$__acrt_mbs_to_wcs_cp@U__crt_win32_buffer_internal_dynamic_resizing@@@@YAHQBDAAV?$__crt_win32_buffer@_WU__crt_win32_buffer_internal_dynamic_resizing@@@@I@Z 1001634d f i libucrt:argv_wildcards.obj
 0001:00015861       ?__acrt_get_utf8_acp_compatibility_codepage@@YAIXZ 10016861 f i libucrt:argv_wildcards.obj
 0001:000158a0       ?_deallocate@?$__crt_win32_buffer@_WU__crt_win32_buffer_internal_dynamic_resizing@@@@AAEXXZ 100168a0 f i libucrt:argv_wildcards.obj
 0001:000158a0       ?_deallocate@?$__crt_win32_buffer@DU__crt_win32_buffer_internal_dynamic_resizing@@@@AAEXXZ 100168a0 f i libucrt:argv_wildcards.obj
 0001:000158ba       ?allocate@?$__crt_win32_buffer@DU__crt_win32_buffer_internal_dynamic_resizing@@@@QAEHI@Z 100168ba f i libucrt:argv_wildcards.obj
 0001:000158f6       ?allocate@?$__crt_win32_buffer@_WU__crt_win32_buffer_internal_dynamic_resizing@@@@QAEHI@Z 100168f6 f i libucrt:argv_wildcards.obj
 0001:00015935       ?allocate@__crt_win32_buffer_internal_dynamic_resizing@@SAHQAPAXIABV__crt_win32_buffer_empty_debug_info@@@Z 10016935 f i libucrt:argv_wildcards.obj
 0001:000159db       ___acrt_expand_narrow_argv_wildcards 100169db f   libucrt:argv_wildcards.obj
 0001:00015aad       ?allocate@?$__crt_win32_buffer@DU__crt_win32_buffer_no_resizing@@@@QAEHI@Z 10016aad f i libucrt:getmodulefilenamea.obj
 0001:00015ad4       ?set_to_nullptr@?$__crt_win32_buffer@DU__crt_win32_buffer_no_resizing@@@@QAEXXZ 10016ad4 f i libucrt:getmodulefilenamea.obj
 0001:00015ae8       ___acrt_GetModuleFileNameA 10016ae8 f   libucrt:getmodulefilenamea.obj
 0001:000160a1       ___acrt_initialize_multibyte 100170a1 f   libucrt:mbctype.obj
 0001:000160e9       ___acrt_update_thread_multibyte_data 100170e9 f   libucrt:mbctype.obj
 0001:000160fc       __setmbcp_nolock           100170fc f   libucrt:mbctype.obj
 0001:000163c7       __ismbblead                100173c7 f   libucrt:ismbbyte.obj
 0001:000163df       ___acrt_initialize_command_line 100173df f   libucrt:argv_data.obj
 0001:000163f8       ___acrt_MultiByteToWideChar 100173f8 f   libucrt:multibytetowidechar.obj
 0001:00016474       ___acrt_WideCharToMultiByte 10017474 f   libucrt:widechartomultibyte.obj
 0001:00016562       ___dcrt_get_narrow_environment_from_os 10017562 f   libucrt:get_environment_from_os.obj
 0001:000165e6       ___acrt_initialize_heap    100175e6 f   libucrt:heap_handle.obj
 0001:000165f7       ___acrt_uninitialize_heap  100175f7 f   libucrt:heap_handle.obj
 0001:00016601       ___acrt_execute_initializers 10017601 f   libucrt:shared_initialization.obj
 0001:00016669       ___acrt_execute_uninitializers 10017669 f   libucrt:shared_initialization.obj
 0001:00016768       ___acrt_get_sigabrt_handler 10017768 f   libucrt:signal.obj
 0001:0001678f       ___acrt_initialize_signal_handlers 1001778f f   libucrt:signal.obj
 0001:000167ad       _raise                     100177ad f   libucrt:signal.obj
 0001:000169a0       ___acrt_has_user_matherr   100179a0 f   libucrt:matherr.obj
 0001:000169b8       ___acrt_initialize_user_matherr 100179b8 f   libucrt:matherr.obj
 0001:000169c7       ___acrt_invoke_user_matherr 100179c7 f   libucrt:matherr.obj
 0001:00016bd6       ___acrt_stdio_flush_nolock 10017bd6 f   libucrt:fflush.obj
 0001:00016c3b       __fflush_nolock            10017c3b f   libucrt:fflush.obj
 0001:00016c83       __flushall                 10017c83 f   libucrt:fflush.obj
 0001:00016c8c       ___pctype_func             10017c8c f   libucrt:ctype.obj
 0001:00016cb0       _iswctype                  10017cb0 f   libucrt:iswctype.obj
 0001:00016d19       ___acrt_add_locale_ref     10017d19 f   libucrt:locale_refcounting.obj
 0001:00016d96       ___acrt_free_locale        10017d96 f   libucrt:locale_refcounting.obj
 0001:00016ede       ___acrt_locale_add_lc_time_reference 10017ede f   libucrt:locale_refcounting.obj
 0001:00016f07       ___acrt_locale_free_lc_time_if_unreferenced 10017f07 f   libucrt:locale_refcounting.obj
 0001:00016f38       ___acrt_locale_release_lc_time_reference 10017f38 f   libucrt:locale_refcounting.obj
 0001:00016f61       ___acrt_release_locale_ref 10017f61 f   libucrt:locale_refcounting.obj
 0001:00016fe2       ___acrt_update_thread_locale_data 10017fe2 f   libucrt:locale_refcounting.obj
 0001:00017063       __updatetlocinfoEx_nolock  10018063 f   libucrt:locale_refcounting.obj
 0001:000170b3       __query_new_mode           100180b3 f   libucrt:new_mode.obj
 0001:0001710a       ___acrt_DownlevelLocaleNameToLCID 1001810a f   libucrt:lcidtoname_downlevel.obj
 0001:00017136       __isleadbyte_l             10018136 f i libucrt:_wctype.obj
 0001:0001719c       ?__mbrtowc_utf8@__crt_mbstring@@YAIPA_WPBDIPAU_Mbstatet@@@Z 1001819c f   libucrt:mbrtowc.obj
 0001:000171dc       ?__mbsrtowcs_utf8@__crt_mbstring@@YAIPA_WPAPBDIPAU_Mbstatet@@@Z 100181dc f   libucrt:mbrtowc.obj
 0001:000172d7       ?return_illegal_sequence@__crt_mbstring@@YAIPAU_Mbstatet@@@Z 100182d7 f i libucrt:c32rtomb.obj
 0001:00017361       ___acrt_fp_strflt_to_string 10018361 f   libucrt:_fptostr.obj
 0001:00017440       ?divide@__crt_strtox@@YA_KAAUbig_integer@1@ABU21@@Z 10018440 f i libucrt:cfout.obj
 0001:000178d8       ___acrt_fltout             100188d8 f   libucrt:cfout.obj
 0001:00018ddf       _fegetround                10019ddf f   libucrt:fegetround.obj
 0001:00018dec       __fcloseall                10019dec f   libucrt:closeall.obj
 0001:00018e97       ___acrt_stdio_free_buffer_nolock 10019e97 f   libucrt:_freebuf.obj
 0001:00018ed7       __isatty                   10019ed7 f   libucrt:isatty.obj
 0001:00018f2d       ___acrt_locale_free_monetary 10019f2d f   libucrt:initmon.obj
 0001:0001902b       ___acrt_locale_free_numeric 1001a02b f   libucrt:initnum.obj
 0001:000190cc       ___acrt_locale_free_time   1001a0cc f   libucrt:inittime.obj
 0001:000191b0       ___acrt_GetStringTypeA     1001a1b0 f   libucrt:getstringtypea.obj
 0001:000192b3       __freea_crt                1001a2b3 f i libucrt:getstringtypea.obj
 0001:000192d3       ___acrt_lowio_create_handle_array 1001a2d3 f   libucrt:osfinfo.obj
 0001:0001934e       ___acrt_lowio_destroy_handle_array 1001a34e f   libucrt:osfinfo.obj
 0001:00019383       ___acrt_lowio_ensure_fh_exists 1001a383 f   libucrt:osfinfo.obj
 0001:00019421       ___acrt_lowio_lock_fh      1001a421 f   libucrt:osfinfo.obj
 0001:00019444       ___acrt_lowio_unlock_fh    1001a444 f   libucrt:osfinfo.obj
 0001:00019467       __free_osfhnd              1001a467 f   libucrt:osfinfo.obj
 0001:000194f8       __get_osfhandle            1001a4f8 f   libucrt:osfinfo.obj
 0001:00019570       _qsort                     1001a570 f   libucrt:qsort.obj
 0001:00019b11       _strncpy_s                 1001ab11 f   libucrt:strncpy_s.obj
 0001:00019b20       _strpbrk                   1001ab20 f   libucrt:strpbrk.obj
 0001:00019b60       __mbsdec                   1001ab60 f   libucrt:mbsdec.obj
 0001:00019b77       __mbsdec_l                 1001ab77 f   libucrt:mbsdec.obj
 0001:00019dee       ___acrt_LCMapStringA       1001adee f   libucrt:lcmapstringa.obj
 0001:00019ee8       __commit                   1001aee8 f   libucrt:commit.obj
 0001:0001a6e0       __write                    1001b6e0 f   libucrt:write.obj
 0001:0001a7d2       __write_nolock             1001b7d2 f   libucrt:write.obj
 0001:0001a9ac       ___acrt_GetStringTypeW     1001b9ac f   libucrt:getstringtypew.obj
 0001:0001a9c5       ___ascii_wcsnicmp          1001b9c5 f   libucrt:wcsnicmp.obj
 0001:0001aa14       ?__mbrtoc32_utf8@__crt_mbstring@@YAIPA_UPBDIPAU_Mbstatet@@@Z 1001ba14 f   libucrt:mbrtoc32.obj
 0001:0001abbb       __controlfp_s              1001bbbb f   libucrt:contrlfp.obj
 0001:0001ac1a       _fegetenv                  1001bc1a f   libucrt:fegetenv.obj
 0001:0001ac37       _fesetenv                  1001bc37 f   libucrt:fesetenv.obj
 0001:0001ac82       _feholdexcept              1001bc82 f   libucrt:feholdexcept.obj
 0001:0001acd0       __CIlog10                  1001bcd0 f   libucrt:log10_impl.obj
 0001:0001ad0b       __CIlog10_default          1001bd0b f   libucrt:log10_impl.obj
 0001:0001ad1f       __log10_default            1001bd1f     libucrt:log10_impl.obj
 0001:0001ade0       _ceil                      1001bde0 f   libucrt:ceil_pentium4.obj
 0001:0001ae20       __ceil_pentium4            1001be20 f   libucrt:ceil_pentium4.obj
 0001:0001b21a       ___acrt_fenv_get_common_round_control 1001c21a f   libucrt:_fenvutils.obj
 0001:0001b23c       ___acrt_fenv_get_control   1001c23c f   libucrt:_fenvutils.obj
 0001:0001b2bc       ___acrt_fenv_get_status    1001c2bc f   libucrt:_fenvutils.obj
 0001:0001b374       ___acrt_fenv_set_control   1001c374 f   libucrt:_fenvutils.obj
 0001:0001b3dc       ___acrt_fenv_set_status    1001c3dc f   libucrt:_fenvutils.obj
 0001:0001b54f       __lseeki64_nolock          1001c54f f   libucrt:lseek.obj
 0001:0001b56a       __fclose_nolock            1001c56a f   libucrt:fclose.obj
 0001:0001b5e1       _fclose                    1001c5e1 f   libucrt:fclose.obj
 0001:0001b665       __query_app_type           1001c665 f   libucrt:report_runtime_error.obj
 0001:0001b66b       ___strncnt                 1001c66b f   libucrt:strncnt.obj
 0001:0001b687       __putwch_nolock            1001c687 f   libucrt:putwch.obj
 0001:0001b760       __clearfp                  1001c760 f   libucrt:ieee87.obj
 0001:0001b83e       __control87                1001c83e f   libucrt:ieee87.obj
 0001:0001bbdd       ___acrt_initialize_sse2    1001cbdd f   libucrt:mathfcns.obj
 0001:0001bbf0       __CIlog10_pentium4         1001cbf0 f   libucrt:log10_pentium4.obj
 0001:0001bc08       __log10_pentium4           1001cc08     libucrt:log10_pentium4.obj
 0001:0001bea0       __fFEXP                    1001cea0 f   libucrt:87tran.obj
 0001:0001bef7       __rtinfpopse               1001cef7     libucrt:87tran.obj
 0001:0001bef9       __rtinfnpopse              1001cef9     libucrt:87tran.obj
 0001:0001bf09       __fFLN                     1001cf09     libucrt:87tran.obj
 0001:0001bfbe       __rtinfpop                 1001cfbe     libucrt:87tran.obj
 0001:0001bfc0       __rtinfnpop                1001cfc0     libucrt:87tran.obj
 0001:0001bfd0       __rtforexpinf              1001cfd0 f   libucrt:87tran.obj
 0001:0001bfdd       __ffexpm1                  1001cfdd     libucrt:87tran.obj
 0001:0001c090       __trandisp1                1001d090 f   libucrt:87disp.obj
 0001:0001c105       __trandisp2                1001d105 f   libucrt:87disp.obj
 0001:0001c19f       __rttospopde               1001d19f     libucrt:87disp.obj
 0001:0001c1a4       __rttospop                 1001d1a4     libucrt:87disp.obj
 0001:0001c1b0       __rtnospop                 1001d1b0 f   libucrt:87disp.obj
 0001:0001c1c0       __rttosnpop                1001d1c0 f   libucrt:87disp.obj
 0001:0001c1c1       __rtnospopde               1001d1c1     libucrt:87disp.obj
 0001:0001c1c8       __rtzeropop                1001d1c8     libucrt:87disp.obj
 0001:0001c1ca       __rtzeronpop               1001d1ca     libucrt:87disp.obj
 0001:0001c1d0       __rtzerospop               1001d1d0 f   libucrt:87disp.obj
 0001:0001c1dd       __rtonepop                 1001d1dd     libucrt:87disp.obj
 0001:0001c1e0       __rtonenpop                1001d1e0 f   libucrt:87disp.obj
 0001:0001c1f0       __tosnan1                  1001d1f0 f   libucrt:87disp.obj
 0001:0001c220       __nosnan2                  1001d220 f   libucrt:87disp.obj
 0001:0001c230       __tosnan2                  1001d230 f   libucrt:87disp.obj
 0001:0001c260       __nan2                     1001d260 f   libucrt:87disp.obj
 0001:0001c2a0       __rtindfpop                1001d2a0 f   libucrt:87disp.obj
 0001:0001c2a2       __rtindfnpop               1001d2a2     libucrt:87disp.obj
 0001:0001c2b3       __rttosnpopde              1001d2b3     libucrt:87disp.obj
 0001:0001c2c0       __rtatan2inf               1001d2c0 f   libucrt:87disp.obj
 0001:0001c2dd       __rtchsifneg               1001d2dd     libucrt:87disp.obj
 0001:0001c2f0       __twoToTOS                 1001d2f0 f   libucrt:common.obj
 0001:0001c305       __load_CW                  1001d305 f   libucrt:common.obj
 0001:0001c31c       __convertTOStoQNaN         1001d31c f   libucrt:common.obj
 0001:0001c335       __fload_withFB             1001d335 f   libucrt:common.obj
 0001:0001c378       __checkTOS_withFB          1001d378 f   libucrt:common.obj
 0001:0001c38e       __fast_exit                1001d38e f   libucrt:common.obj
 0001:0001c39b       __math_exit                1001d39b f   libucrt:common.obj
 0001:0001c3c5       __check_overflow_exit      1001d3c5 f   libucrt:common.obj
 0001:0001c3d9       __check_range_exit         1001d3d9 f   libucrt:common.obj
 0001:0001c480       __startTwoArgErrorHandling 1001d480 f   libucrt:genexcep.obj
 0001:0001c497       __startOneArgErrorHandling 1001d497 f   libucrt:genexcep.obj
 0001:0001c4d3       ___libm_error_support      1001d4d3 f   libucrt:libm_error.obj
 0001:0001c6c7       __ceil_default             1001d6c7 f   libucrt:ceil.obj
 0001:0001c808       __close                    1001d808 f   libucrt:close.obj
 0001:0001c895       __close_nolock             1001d895 f   libucrt:close.obj
 0001:0001c931       ?__acrt_stdio_free_stream@@YAXV__crt_stdio_stream@@@Z 1001d931 f   libucrt:stream.obj
 0001:0001c970       ___ascii_strnicmp          1001d970 f   libucrt:_strnicm.obj
 0001:0001c9f0       ___dcrt_lowio_ensure_console_output_initialized 1001d9f0 f   libucrt:initcon.obj
 0001:0001ca0f       ___dcrt_terminate_console_output 1001da0f f   libucrt:initcon.obj
 0001:0001ca26       ___dcrt_write_console      1001da26 f   libucrt:initcon.obj
 0001:0001ca7b       ___set_fpsr_sse2           1001da7b f   libucrt:fpctrl.obj
 0001:0001cafb       __clrfp                    1001dafb f   libucrt:fpctrl.obj
 0001:0001cb0c       __ctrlfp                   1001db0c f   libucrt:fpctrl.obj
 0001:0001cb36       __set_statfp               1001db36 f   libucrt:fpctrl.obj
 0001:0001cb8f       __statfp                   1001db8f f   libucrt:fpctrl.obj
 0001:0001cb9f       __d_inttype                1001db9f f   libucrt:powhlp.obj
 0001:0001cc07       __powhlp                   1001dc07 f   libucrt:powhlp.obj
 0001:0001cd32       __87except                 1001dd32 f   libucrt:87except.obj
 0001:0001ce3c       __frnd                     1001de3c f   libucrt:frnd.obj
 0001:0001ce50       __errcode                  1001de50 f   libucrt:fpexcept.obj
 0001:0001ce84       __except1                  1001de84 f   libucrt:fpexcept.obj
 0001:0001cf52       __handle_exc               1001df52 f   libucrt:fpexcept.obj
 0001:0001d13d       __raise_exc                1001e13d f   libucrt:fpexcept.obj
 0001:0001d160       __raise_exc_ex             1001e160 f   libucrt:fpexcept.obj
 0001:0001d456       __set_errno_from_matherr   1001e456 f   libucrt:fpexcept.obj
 0001:0001d485       __umatherr                 1001e485 f   libucrt:fpexcept.obj
 0001:0001d525       __decomp                   1001e525 f   libucrt:util.obj
 0001:0001d5f7       __set_exp                  1001e5f7 f   libucrt:util.obj
 0001:0001d624       __sptype                   1001e624 f   libucrt:util.obj
 0001:0001d682       __fpclass                  1001e682 f   libucrt:ieeemisc.obj
 0001:0001d726       _IsProcessorFeaturePresent@4 1001e726 f   kernel32:KERNEL32.dll
 0001:0001d730       __FindPESection            1001e730 f   LIBCMT:pesect.obj
 0001:0001d780       __IsNonwritableInCurrentImage 1001e780 f   LIBCMT:pesect.obj
 0001:0001d840       __ValidateImageBase        1001e840 f   LIBCMT:pesect.obj
 0001:0001d873       __EH_prolog3_catch         1001e873 f   LIBCMT:ehprolg3.obj
 0001:0001d8b0       __aulldvrm                 1001e8b0 f   LIBCMT:ulldvrm.obj
 0001:0001d950       __allmul                   1001e950 f   LIBCMT:llmul.obj
 0001:0001d990       __alldvrm                  1001e990 f   LIBCMT:lldvrm.obj
 0001:0001da70       __allshl                   1001ea70 f   LIBCMT:llshl.obj
 0001:0001da90       __aullshr                  1001ea90 f   LIBCMT:ullshr.obj
 0001:0001dab0       __ftol2_sse_excpt          1001eab0     LIBCMT:ftol2.obj
 0001:0001dab0       __ftoi2                    1001eab0 f   LIBCMT:ftol2.obj
 0001:0001dab0       __ftol2_sse                1001eab0     LIBCMT:ftol2.obj
 0001:0001db30       __ftoui2                   1001eb30 f   LIBCMT:ftol2.obj
 0001:0001dbe0       __ftol2                    1001ebe0 f   LIBCMT:ftol2.obj
 0001:0001dc90       __ftoul2                   1001ec90 f   LIBCMT:ftol2.obj
 0001:0001dd50       _strrchr                   1001ed50 f   libvcruntime:strrchr.obj
 0001:0001de90       _strchr                    1001ee90 f   libvcruntime:strchr.obj
 0001:0001defe       ___from_strstr_to_strchr   1001eefe     libvcruntime:strchr.obj
 0001:0001dfbb       __filter_x86_sse2_floating_point_exception 1001efbb f   LIBCMT:x86_exception_filter.obj
 0001:0001dfbb       __filter_x86_sse2_floating_point_exception_default 1001efbb f   LIBCMT:x86_exception_filter.obj
 0002:00000000       __imp__RegQueryValueExW@24 10020000     advapi32:ADVAPI32.dll
 0002:00000004       __imp__RegSetValueExW@24   10020004     advapi32:ADVAPI32.dll
 0002:00000008       __imp__RegQueryInfoKeyW@48 10020008     advapi32:ADVAPI32.dll
 0002:0000000c       __imp__RegOpenKeyExW@20    1002000c     advapi32:ADVAPI32.dll
 0002:00000010       __imp__RegEnumKeyExW@32    10020010     advapi32:ADVAPI32.dll
 0002:00000014       __imp__RegDeleteValueW@8   10020014     advapi32:ADVAPI32.dll
 0002:00000018       __imp__RegDeleteKeyW@8     10020018     advapi32:ADVAPI32.dll
 0002:0000001c       __imp__RegCreateKeyExW@36  1002001c     advapi32:ADVAPI32.dll
 0002:00000020       __imp__RegCloseKey@4       10020020     advapi32:ADVAPI32.dll
 0002:00000024       \177ADVAPI32_NULL_THUNK_DATA 10020024     advapi32:ADVAPI32.dll
 0002:00000028       __imp__GetObjectW@12       10020028     gdi32:GDI32.dll
 0002:0000002c       __imp__SelectObject@8      1002002c     gdi32:GDI32.dll
 0002:00000030       __imp__DeleteObject@4      10020030     gdi32:GDI32.dll
 0002:00000034       __imp__CreateCompatibleDC@4 10020034     gdi32:GDI32.dll
 0002:00000038       __imp__BitBlt@36           10020038     gdi32:GDI32.dll
 0002:0000003c       __imp__SetWindowOrgEx@16   1002003c     gdi32:GDI32.dll
 0002:00000040       __imp__SetWindowExtEx@16   10020040     gdi32:GDI32.dll
 0002:00000044       __imp__SetViewportOrgEx@16 10020044     gdi32:GDI32.dll
 0002:00000048       __imp__LPtoDP@12           10020048     gdi32:GDI32.dll
 0002:0000004c       __imp__SetMapMode@8        1002004c     gdi32:GDI32.dll
 0002:00000050       __imp__SaveDC@4            10020050     gdi32:GDI32.dll
 0002:00000054       __imp__RestoreDC@8         10020054     gdi32:GDI32.dll
 0002:00000058       __imp__GetDeviceCaps@8     10020058     gdi32:GDI32.dll
 0002:0000005c       __imp__DeleteMetaFile@4    1002005c     gdi32:GDI32.dll
 0002:00000060       __imp__DeleteDC@4          10020060     gdi32:GDI32.dll
 0002:00000064       __imp__CreateRectRgnIndirect@4 10020064     gdi32:GDI32.dll
 0002:00000068       __imp__CreateMetaFileW@4   10020068     gdi32:GDI32.dll
 0002:0000006c       __imp__CreateDCW@16        1002006c     gdi32:GDI32.dll
 0002:00000070       __imp__CloseMetaFile@4     10020070     gdi32:GDI32.dll
 0002:00000074       \177GDI32_NULL_THUNK_DATA  10020074     gdi32:GDI32.dll
 0002:00000078       __imp__CloseHandle@4       10020078     kernel32:KERNEL32.dll
 0002:0000007c       __imp__SetEvent@4          1002007c     kernel32:KERNEL32.dll
 0002:00000080       __imp__CreateMutexW@12     10020080     kernel32:KERNEL32.dll
 0002:00000084       __imp__CreateEventW@16     10020084     kernel32:KERNEL32.dll
 0002:00000088       __imp__GetCurrentProcessId@0 10020088     kernel32:KERNEL32.dll
 0002:0000008c       __imp__CreateFileW@28      1002008c     kernel32:KERNEL32.dll
 0002:00000090       __imp__GetConsoleMode@8    10020090     kernel32:KERNEL32.dll
 0002:00000094       __imp__GetConsoleOutputCP@0 10020094     kernel32:KERNEL32.dll
 0002:00000098       __imp__WriteFile@20        10020098     kernel32:KERNEL32.dll
 0002:0000009c       __imp__FlushFileBuffers@4  1002009c     kernel32:KERNEL32.dll
 0002:000000a0       __imp__SetStdHandle@8      100200a0     kernel32:KERNEL32.dll
 0002:000000a4       __imp__GetStringTypeW@16   100200a4     kernel32:KERNEL32.dll
 0002:000000a8       __imp__SetFilePointerEx@20 100200a8     kernel32:KERNEL32.dll
 0002:000000ac       __imp__FreeEnvironmentStringsW@4 100200ac     kernel32:KERNEL32.dll
 0002:000000b0       __imp__GetEnvironmentStringsW@0 100200b0     kernel32:KERNEL32.dll
 0002:000000b4       __imp__lstrcmpiW@8         100200b4     kernel32:KERNEL32.dll
 0002:000000b8       __imp__GetCommandLineA@0   100200b8     kernel32:KERNEL32.dll
 0002:000000bc       __imp__GetCPInfo@8         100200bc     kernel32:KERNEL32.dll
 0002:000000c0       __imp__GetOEMCP@0          100200c0     kernel32:KERNEL32.dll
 0002:000000c4       __imp__GetACP@0            100200c4     kernel32:KERNEL32.dll
 0002:000000c8       __imp__IsValidCodePage@4   100200c8     kernel32:KERNEL32.dll
 0002:000000cc       __imp__FindNextFileW@8     100200cc     kernel32:KERNEL32.dll
 0002:000000d0       __imp__FindFirstFileExW@24 100200d0     kernel32:KERNEL32.dll
 0002:000000d4       __imp__FindClose@4         100200d4     kernel32:KERNEL32.dll
 0002:000000d8       __imp__GetFileType@4       100200d8     kernel32:KERNEL32.dll
 0002:000000dc       __imp__GetStdHandle@4      100200dc     kernel32:KERNEL32.dll
 0002:000000e0       __imp__LCMapStringW@24     100200e0     kernel32:KERNEL32.dll
 0002:000000e4       __imp__HeapReAlloc@16      100200e4     kernel32:KERNEL32.dll
 0002:000000e8       __imp__HeapSize@12         100200e8     kernel32:KERNEL32.dll
 0002:000000ec       __imp__MulDiv@12           100200ec     kernel32:KERNEL32.dll
 0002:000000f0       __imp__GlobalLock@4        100200f0     kernel32:KERNEL32.dll
 0002:000000f4       __imp__GlobalUnlock@4      100200f4     kernel32:KERNEL32.dll
 0002:000000f8       __imp__GlobalAlloc@8       100200f8     kernel32:KERNEL32.dll
 0002:000000fc       __imp__FindResourceW@12    100200fc     kernel32:KERNEL32.dll
 0002:00000100       __imp__SizeofResource@8    10020100     kernel32:KERNEL32.dll
 0002:00000104       __imp__LoadResource@8      10020104     kernel32:KERNEL32.dll
 0002:00000108       __imp__LoadLibraryExW@12   10020108     kernel32:KERNEL32.dll
 0002:0000010c       __imp__GetProcAddress@8    1002010c     kernel32:KERNEL32.dll
 0002:00000110       __imp__GetModuleHandleW@4  10020110     kernel32:KERNEL32.dll
 0002:00000114       __imp__GetModuleFileNameW@12 10020114     kernel32:KERNEL32.dll
 0002:00000118       __imp__FreeLibrary@4       10020118     kernel32:KERNEL32.dll
 0002:0000011c       __imp__DisableThreadLibraryCalls@4 1002011c     kernel32:KERNEL32.dll
 0002:00000120       __imp__GetCurrentThreadId@0 10020120     kernel32:KERNEL32.dll
 0002:00000124       __imp__Sleep@4             10020124     kernel32:KERNEL32.dll
 0002:00000128       __imp__WaitForSingleObject@8 10020128     kernel32:KERNEL32.dll
 0002:0000012c       __imp__ReleaseMutex@4      1002012c     kernel32:KERNEL32.dll
 0002:00000130       __imp__ResetEvent@4        10020130     kernel32:KERNEL32.dll
 0002:00000134       __imp__EnterCriticalSection@4 10020134     kernel32:KERNEL32.dll
 0002:00000138       __imp__LeaveCriticalSection@4 10020138     kernel32:KERNEL32.dll
 0002:0000013c       __imp__SetLastError@4      1002013c     kernel32:KERNEL32.dll
 0002:00000140       __imp__EncodePointer@4     10020140     kernel32:KERNEL32.dll
 0002:00000144       __imp__DeleteCriticalSection@4 10020144     kernel32:KERNEL32.dll
 0002:00000148       __imp__InitializeCriticalSectionEx@12 10020148     kernel32:KERNEL32.dll
 0002:0000014c       __imp__GetLastError@0      1002014c     kernel32:KERNEL32.dll
 0002:00000150       __imp__RaiseException@16   10020150     kernel32:KERNEL32.dll
 0002:00000154       __imp__DecodePointer@4     10020154     kernel32:KERNEL32.dll
 0002:00000158       __imp__WideCharToMultiByte@32 10020158     kernel32:KERNEL32.dll
 0002:0000015c       __imp__GetCommandLineW@0   1002015c     kernel32:KERNEL32.dll
 0002:00000160       __imp__MultiByteToWideChar@24 10020160     kernel32:KERNEL32.dll
 0002:00000164       __imp__WriteConsoleW@20    10020164     kernel32:KERNEL32.dll
 0002:00000168       __imp__GetModuleHandleExW@12 10020168     kernel32:KERNEL32.dll
 0002:0000016c       __imp__ExitProcess@4       1002016c     kernel32:KERNEL32.dll
 0002:00000170       __imp__VirtualQuery@12     10020170     kernel32:KERNEL32.dll
 0002:00000174       __imp__VirtualProtect@16   10020174     kernel32:KERNEL32.dll
 0002:00000178       __imp__GetSystemInfo@4     10020178     kernel32:KERNEL32.dll
 0002:0000017c       __imp__TlsFree@4           1002017c     kernel32:KERNEL32.dll
 0002:00000180       __imp__TlsSetValue@8       10020180     kernel32:KERNEL32.dll
 0002:00000184       __imp__TlsGetValue@4       10020184     kernel32:KERNEL32.dll
 0002:00000188       __imp__TlsAlloc@0          10020188     kernel32:KERNEL32.dll
 0002:0000018c       __imp__InterlockedFlushSList@4 1002018c     kernel32:KERNEL32.dll
 0002:00000190       __imp__RtlUnwind@16        10020190     kernel32:KERNEL32.dll
 0002:00000194       __imp__LoadLibraryExA@12   10020194     kernel32:KERNEL32.dll
 0002:00000198       __imp__VirtualFree@12      10020198     kernel32:KERNEL32.dll
 0002:0000019c       __imp__VirtualAlloc@16     1002019c     kernel32:KERNEL32.dll
 0002:000001a0       __imp__FlushInstructionCache@12 100201a0     kernel32:KERNEL32.dll
 0002:000001a4       __imp__InterlockedPushEntrySList@8 100201a4     kernel32:KERNEL32.dll
 0002:000001a8       __imp__InterlockedPopEntrySList@4 100201a8     kernel32:KERNEL32.dll
 0002:000001ac       __imp__GetProcessHeap@0    100201ac     kernel32:KERNEL32.dll
 0002:000001b0       __imp__HeapFree@12         100201b0     kernel32:KERNEL32.dll
 0002:000001b4       __imp__HeapAlloc@12        100201b4     kernel32:KERNEL32.dll
 0002:000001b8       __imp__OutputDebugStringW@4 100201b8     kernel32:KERNEL32.dll
 0002:000001bc       __imp__InitializeSListHead@4 100201bc     kernel32:KERNEL32.dll
 0002:000001c0       __imp__GetSystemTimeAsFileTime@4 100201c0     kernel32:KERNEL32.dll
 0002:000001c4       __imp__QueryPerformanceCounter@4 100201c4     kernel32:KERNEL32.dll
 0002:000001c8       __imp__GetStartupInfoW@4   100201c8     kernel32:KERNEL32.dll
 0002:000001cc       __imp__IsDebuggerPresent@0 100201cc     kernel32:KERNEL32.dll
 0002:000001d0       __imp__IsProcessorFeaturePresent@4 100201d0     kernel32:KERNEL32.dll
 0002:000001d4       __imp__TerminateProcess@8  100201d4     kernel32:KERNEL32.dll
 0002:000001d8       __imp__GetCurrentProcess@0 100201d8     kernel32:KERNEL32.dll
 0002:000001dc       __imp__SetUnhandledExceptionFilter@4 100201dc     kernel32:KERNEL32.dll
 0002:000001e0       __imp__UnhandledExceptionFilter@4 100201e0     kernel32:KERNEL32.dll
 0002:000001e4       __imp__InitializeCriticalSectionAndSpinCount@8 100201e4     kernel32:KERNEL32.dll
 0002:000001e8       __imp__WaitForSingleObjectEx@12 100201e8     kernel32:KERNEL32.dll
 0002:000001ec       \177KERNEL32_NULL_THUNK_DATA 100201ec     kernel32:KERNEL32.dll
 0002:000001f0       __imp__OleCreatePropertyFrame@44 100201f0     oleaut32:OLEAUT32.dll
 0002:000001f4       __imp__UnRegisterTypeLib@20 100201f4     oleaut32:OLEAUT32.dll
 0002:000001f8       __imp__RegisterTypeLib@12  100201f8     oleaut32:OLEAUT32.dll
 0002:000001fc       __imp__LoadRegTypeLib@20   100201fc     oleaut32:OLEAUT32.dll
 0002:00000200       __imp__LoadTypeLib@8       10020200     oleaut32:OLEAUT32.dll
 0002:00000204       __imp__VarUI4FromStr@16    10020204     oleaut32:OLEAUT32.dll
 0002:00000208       __imp__VariantInit@4       10020208     oleaut32:OLEAUT32.dll
 0002:0000020c       __imp__SysAllocStringByteLen@8 1002020c     oleaut32:OLEAUT32.dll
 0002:00000210       __imp__SysStringByteLen@4  10020210     oleaut32:OLEAUT32.dll
 0002:00000214       __imp__VariantChangeType@16 10020214     oleaut32:OLEAUT32.dll
 0002:00000218       __imp__VariantClear@4      10020218     oleaut32:OLEAUT32.dll
 0002:0000021c       __imp__SysStringLen@4      1002021c     oleaut32:OLEAUT32.dll
 0002:00000220       __imp__SysFreeString@4     10020220     oleaut32:OLEAUT32.dll
 0002:00000224       __imp__SysAllocStringLen@8 10020224     oleaut32:OLEAUT32.dll
 0002:00000228       __imp__SysAllocString@4    10020228     oleaut32:OLEAUT32.dll
 0002:0000022c       \177OLEAUT32_NULL_THUNK_DATA 1002022c     oleaut32:OLEAUT32.dll
 0002:00000230       __imp__UnregisterClassW@8  10020230     user32:USER32.dll
 0002:00000234       __imp__PostMessageW@16     10020234     user32:USER32.dll
 0002:00000238       __imp__DefWindowProcW@16   10020238     user32:USER32.dll
 0002:0000023c       __imp__CallWindowProcW@20  1002023c     user32:USER32.dll
 0002:00000240       __imp__RegisterClassExW@4  10020240     user32:USER32.dll
 0002:00000244       __imp__GetClassInfoExW@12  10020244     user32:USER32.dll
 0002:00000248       __imp__CreateWindowExW@48  10020248     user32:USER32.dll
 0002:0000024c       __imp__IsWindow@4          1002024c     user32:USER32.dll
 0002:00000250       __imp__IsChild@8           10020250     user32:USER32.dll
 0002:00000254       __imp__DestroyWindow@4     10020254     user32:USER32.dll
 0002:00000258       __imp__ShowWindow@8        10020258     user32:USER32.dll
 0002:0000025c       __imp__SetWindowPos@28     1002025c     user32:USER32.dll
 0002:00000260       __imp__CharNextW@4         10020260     user32:USER32.dll
 0002:00000264       __imp__SetFocus@4          10020264     user32:USER32.dll
 0002:00000268       __imp__LoadBitmapW@8       10020268     user32:USER32.dll
 0002:0000026c       __imp__RegisterClassW@4    1002026c     user32:USER32.dll
 0002:00000270       __imp__PeekMessageW@20     10020270     user32:USER32.dll
 0002:00000274       __imp__LoadCursorW@8       10020274     user32:USER32.dll
 0002:00000278       __imp__GetParent@4         10020278     user32:USER32.dll
 0002:0000027c       __imp__SetWindowLongW@12   1002027c     user32:USER32.dll
 0002:00000280       __imp__GetWindowLongW@8    10020280     user32:USER32.dll
 0002:00000284       __imp__PtInRect@12         10020284     user32:USER32.dll
 0002:00000288       __imp__EqualRect@8         10020288     user32:USER32.dll
 0002:0000028c       __imp__OffsetRect@12       1002028c     user32:USER32.dll
 0002:00000290       __imp__UnionRect@12        10020290     user32:USER32.dll
 0002:00000294       __imp__IntersectRect@12    10020294     user32:USER32.dll
 0002:00000298       __imp__GetClientRect@8     10020298     user32:USER32.dll
 0002:0000029c       __imp__InvalidateRect@12   1002029c     user32:USER32.dll
 0002:000002a0       __imp__SetWindowRgn@12     100202a0     user32:USER32.dll
 0002:000002a4       __imp__EndPaint@8          100202a4     user32:USER32.dll
 0002:000002a8       __imp__BeginPaint@8        100202a8     user32:USER32.dll
 0002:000002ac       __imp__ReleaseDC@8         100202ac     user32:USER32.dll
 0002:000002b0       __imp__GetDC@4             100202b0     user32:USER32.dll
 0002:000002b4       __imp__GetKeyState@4       100202b4     user32:USER32.dll
 0002:000002b8       __imp__GetFocus@0          100202b8     user32:USER32.dll
 0002:000002bc       \177USER32_NULL_THUNK_DATA 100202bc     user32:USER32.dll
 0002:000002c0       __imp__StringFromGUID2@12  100202c0     ole32:ole32.dll
 0002:000002c4       __imp__CoTaskMemAlloc@4    100202c4     ole32:ole32.dll
 0002:000002c8       __imp__CoTaskMemRealloc@8  100202c8     ole32:ole32.dll
 0002:000002cc       __imp__CoTaskMemFree@4     100202cc     ole32:ole32.dll
 0002:000002d0       __imp__ReadClassStm@8      100202d0     ole32:ole32.dll
 0002:000002d4       __imp__WriteClassStm@8     100202d4     ole32:ole32.dll
 0002:000002d8       __imp__CreateDataAdviseHolder@4 100202d8     ole32:ole32.dll
 0002:000002dc       __imp__OleSaveToStream@8   100202dc     ole32:ole32.dll
 0002:000002e0       __imp__CreateOleAdviseHolder@4 100202e0     ole32:ole32.dll
 0002:000002e4       __imp__OleRegGetUserType@12 100202e4     ole32:ole32.dll
 0002:000002e8       __imp__OleRegGetMiscStatus@12 100202e8     ole32:ole32.dll
 0002:000002ec       __imp__OleRegEnumVerbs@8   100202ec     ole32:ole32.dll
 0002:000002f0       __imp__CLSIDFromProgID@8   100202f0     ole32:ole32.dll
 0002:000002f4       __imp__CoCreateInstance@20 100202f4     ole32:ole32.dll
 0002:000002f8       \177ole32_NULL_THUNK_DATA  100202f8     ole32:ole32.dll
 0002:000002fc       ___guard_check_icall_fptr  100202fc     LIBCMT:guard_support.obj
 0002:00000300       ___xc_a                    10020300     LIBCMT:initializers.obj
 0002:00000318       ___xc_z                    10020318     LIBCMT:initializers.obj
 0002:0000031c       ___xi_a                    1002031c     LIBCMT:initializers.obj
 0002:00000324       ___acrt_stdio_initializer  10020324     libucrt:stdio_initializer.obj
 0002:00000328       ___acrt_multibyte_initializer 10020328     libucrt:multibyte_initializer.obj
 0002:0000032c       ___acrt_tran_sse2_initializer 1002032c     libucrt:sse2_initializer.obj
 0002:00000330       ___xi_z                    10020330     LIBCMT:initializers.obj
 0002:00000334       ___xl_a                    10020334     LIBCMT:tlssup.obj
 0002:00000338       ___xl_z                    10020338     LIBCMT:tlssup.obj
 0002:0000033c       ___xp_a                    1002033c     LIBCMT:initializers.obj
 0002:00000340       ___acrt_locale_terminator  10020340     libucrt:locale_initializer.obj
 0002:00000344       ___dcrt_console_output_terminator 10020344     libucrt:console_output_initializer.obj
 0002:00000348       ___acrt_stdio_terminator   10020348     libucrt:stdio_initializer.obj
 0002:0000034c       ___xp_z                    1002034c     LIBCMT:initializers.obj
 0002:00000350       ___xt_a                    10020350     LIBCMT:initializers.obj
 0002:00000354       ___xt_z                    10020354     LIBCMT:initializers.obj
 0002:00000360       ??_C@_13HADIAKP@?$AAS@     10020360     OposVariant.obj
 0002:00000364       ??_C@_13LHMFKAAD@?$AAM@    10020364     OposVariant.obj
 0002:00000368       ??_C@_13MKMNOPIJ@?$AAD@    10020368     OposVariant.obj
 0002:0000036c       ??_C@_13OPKGLAFF@?$AAB@    1002036c     OposVariant.obj
 0002:00000370       ??_C@_17LLMMEOJD@?$AAV?$AAa?$AAl@ 10020370     OposVariant.obj
 0002:00000378       ??_C@_1BI@JFAIJMHL@?$AAF?$AAo?$AAr?$AAc?$AAe?$AAR?$AAe?$AAm?$AAo?$AAv?$AAe@ 10020378     OposVariant.obj
 0002:00000390       ??_C@_1BC@GCKHIPE@?$AAN?$AAo?$AAR?$AAe?$AAm?$AAo?$AAv?$AAe@ 10020390     OposVariant.obj
 0002:000003a4       ??_C@_1O@JDLOHAN@?$AAD?$AAe?$AAl?$AAe?$AAt?$AAe@ 100203a4     OposVariant.obj
 0002:000003b4       ??_C@_11LOCGONAA@@         100203b4     OposVariant.obj
 0002:000003b8       ??_7CComClassFactory@ATL@@6B@ 100203b8     POSPower.obj
 0002:000003d0       ?_entries@?1??_GetEntries@CComClassFactory@ATL@@SGPBU_ATL_INTMAP_ENTRY@3@XZ@4QBU43@B 100203d0     POSPower.obj
 0002:000003e8       __GUID_00000001_0000_0000_c000_000000000046 100203e8     POSPower.obj
 0002:000003f8       _IID_IOPOSPOSPower_1_5     100203f8     POSPower.obj
 0002:00000408       _IID_IOPOSPOSPower_1_8     10020408     POSPower.obj
 0002:00000418       _IID_IOPOSPOSPower_1_9     10020418     POSPower.obj
 0002:00000428       _IID_IOPOSPOSPower         10020428     POSPower.obj
 0002:00000438       _LIBID_OposPOSPower_CCO    10020438     POSPower.obj
 0002:00000448       _DIID__IOPOSPOSPowerEvents 10020448     POSPower.obj
 0002:00000458       _CLSID_OPOSPOSPower        10020458     POSPower.obj
 0002:00000468       __GUID_00000114_0000_0000_c000_000000000046 10020468     POSPower.obj
 0002:00000478       ??_C@_1BK@BIGILECK@?$AAA?$AAd?$AAv?$AAa?$AAp?$AAi?$AA3?$AA2?$AA?4?$AAd?$AAl?$AAl@ 10020478     POSPower.obj
 0002:00000494       ??_C@_0BI@MNCFCPFK@RegCreateKeyTransactedW@ 10020494     POSPower.obj
 0002:000004ac       __GUID_b196b287_bab4_101a_b69c_00aa00341d07 100204ac     POSPower.obj
 0002:000004bc       __GUID_b196b285_bab4_101a_b69c_00aa00341d07 100204bc     POSPower.obj
 0002:000004cc       __GUID_a6bc3ac0_dbaa_11ce_9de3_00aa004bb851 100204cc     POSPower.obj
 0002:000004dc       __GUID_0000010c_0000_0000_c000_000000000046 100204dc     POSPower.obj
 0002:000004ec       __GUID_00000146_0000_0000_c000_000000000046 100204ec     POSPower.obj
 0002:00000500       ?_entries@?1??_GetEntries@COPOSPOSPower@@SGPBU_ATL_INTMAP_ENTRY@ATL@@XZ@4QBU34@B 10020500     POSPower.obj
 0002:00000638       __GUID_cf51ed10_62fe_11cf_bf86_00a0c9034836 10020638     POSPower.obj
 0002:00000648       __GUID_0000010a_0000_0000_c000_000000000046 10020648     POSPower.obj
 0002:00000658       __GUID_b196b283_bab4_101a_b69c_00aa00341d07 10020658     POSPower.obj
 0002:00000668       __GUID_cb5bdc81_93c1_11cf_8f20_00805f2cd064 10020668     POSPower.obj
 0002:00000678       ?pPropMap@?1??GetPropertyMap@COPOSPOSPower@@SAPBUATL_PROPMAP_ENTRY@ATL@@XZ@4QBU34@B 10020678     POSPower.obj
 0002:000006e4       ??_C@_17DGDADEHL@?$AA_?$AAc?$AAx@ 100206e4     POSPower.obj
 0002:000006ec       ??_C@_17IOIMFDBO@?$AA_?$AAc?$AAy@ 100206ec     POSPower.obj
 0002:000006f4       ??_7CComModule@ATL@@6B@    100206f4     POSPower.obj
 0002:0000071c       __GUID_922eada0_3424_11cf_b670_00aa004cd6d8 1002071c     POSPower.obj
 0002:0000072c       __GUID_9c2cad80_3424_11cf_b670_00aa004cd6d8 1002072c     POSPower.obj
 0002:0000073c       __GUID_00000119_0000_0000_c000_000000000046 1002073c     POSPower.obj
 0002:0000074c       __GUID_b196b289_bab4_101a_b69c_00aa00341d07 1002074c     POSPower.obj
 0002:0000075c       ??_7?$CComObjectCached@VCComClassFactory@ATL@@@ATL@@6B@ 1002075c     POSPower.obj
 0002:00000774       ??_C@_1CE@PGFMOFKI@?$AAS?$AAt?$AAa?$AAt?$AAu?$AAs?$AAU?$AAp?$AAd?$AAa?$AAt?$AAe?$AAE?$AAv?$AAe@ 10020774     POSPower.obj
 0002:00000798       __GUID_00000000_0000_0000_c000_000000000046 10020798     POSPower.obj
 0002:000007a8       ??_C@_1BM@CBGEBBBJ@?$AAD?$AAi?$AAr?$AAe?$AAc?$AAt?$AAI?$AAO?$AAE?$AAv?$AAe?$AAn?$AAt@ 100207a8     POSPower.obj
 0002:000007c4       __GUID_b196b286_bab4_101a_b69c_00aa00341d07 100207c4     POSPower.obj
 0002:000007d4       __GUID_00020400_0000_0000_c000_000000000046 100207d4     POSPower.obj
 0002:000007e4       __GUID_00000117_0000_0000_c000_000000000046 100207e4     POSPower.obj
 0002:000007f4       ??_C@_1BC@ENICKDH@?$AAC?$AAo?$AAn?$AAt?$AAe?$AAn?$AAt?$AAs@ 100207f4     POSPower.obj
 0002:00000808       ??_7?$CComObject@V?$CComEnum@UIEnumConnectionPoints@@$1?_GUID_b196b285_bab4_101a_b69c_00aa00341d07@@3U__s_GUID@@BPAUIConnectionPoint@@V?$_CopyInterface@UIConnectionPoint@@@ATL@@VCComSingleThreadModel@6@@ATL@@@ATL@@6B@ 10020808     POSPower.obj
 0002:00000828       ??_C@_1M@KANJNLFF@?$AAC?$AAL?$AAS?$AAI?$AAD@ 10020828     POSPower.obj
 0002:00000834       ??_C@_1M@EJNEECMJ@?$AAA?$AAp?$AAp?$AAI?$AAD@ 10020834     POSPower.obj
 0002:00000840       __GUID_0000010e_0000_0000_c000_000000000046 10020840     POSPower.obj
 0002:00000850       __GUID_b196b288_bab4_101a_b69c_00aa00341d07 10020850     POSPower.obj
 0002:00000860       ?rgszNeverDelete@CRegParser@ATL@@1QBQB_WB 10020860     POSPower.obj
 0002:00000890       ??_7CRegObject@ATL@@6B@    10020890     POSPower.obj
 0002:000008a8       __GUID_00000113_0000_0000_c000_000000000046 100208a8     POSPower.obj
 0002:000008b8       __GUID_1c2056cc_5ef4_101b_8bc8_00aa003e3b29 100208b8     POSPower.obj
 0002:000008c8       ??_C@_1CK@OEKPKBNA@?$AAC?$AAo?$AAm?$AAp?$AAo?$AAn?$AAe?$AAn?$AAt?$AA?5?$AAC?$AAa?$AAt?$AAe?$AAg@ 100208c8     POSPower.obj
 0002:000008f4       ??_C@_1BC@NKMMNMGL@?$AAF?$AAi?$AAl?$AAe?$AAT?$AAy?$AAp?$AAe@ 100208f4     POSPower.obj
 0002:00000908       ??_C@_1BE@EKPAFMCP@?$AAI?$AAn?$AAt?$AAe?$AAr?$AAf?$AAa?$AAc?$AAe@ 10020908     POSPower.obj
 0002:0000091c       ??_C@_1BC@MAICEHGI@?$AAH?$AAa?$AAr?$AAd?$AAw?$AAa?$AAr?$AAe@ 1002091c     POSPower.obj
 0002:00000930       ??_C@_19HLLLM@?$AAM?$AAi?$AAm?$AAe@ 10020930     POSPower.obj
 0002:0000093c       ??_C@_17OMAOINJK@?$AAS?$AAA?$AAM@ 1002093c     POSPower.obj
 0002:00000944       ??_C@_1BC@IBECJAAI@?$AAS?$AAE?$AAC?$AAU?$AAR?$AAI?$AAT?$AAY@ 10020944     POSPower.obj
 0002:00000958       ??_C@_1O@GBFINDKL@?$AAS?$AAY?$AAS?$AAT?$AAE?$AAM@ 10020958     POSPower.obj
 0002:00000968       ??_C@_1BC@EAHCMADO@?$AAS?$AAo?$AAf?$AAt?$AAw?$AAa?$AAr?$AAe@ 10020968     POSPower.obj
 0002:0000097c       ??_C@_1BA@JIHHIEDE@?$AAT?$AAy?$AAp?$AAe?$AAL?$AAi?$AAb@ 1002097c     POSPower.obj
 0002:00000990       ?map@?1??HKeyFromString@CRegParser@ATL@@KAPAUHKEY__@@PA_W@Z@4QBUkeymap@?1??123@KAPAU4@0@Z@B 10020990     POSPower.obj
 0002:00000a00       ??_C@_19NCHLBIN@?$AAH?$AAK?$AAC?$AAR@ 10020a00     POSPower.obj
 0002:00000a0c       ??_C@_19JAPAIJDE@?$AAH?$AAK?$AAC?$AAU@ 10020a0c     POSPower.obj
 0002:00000a18       ??_C@_19PEALEEJB@?$AAH?$AAK?$AAL?$AAM@ 10020a18     POSPower.obj
 0002:00000a24       ??_C@_17PJOJPMPB@?$AAH?$AAK?$AAU@ 10020a24     POSPower.obj
 0002:00000a2c       ??_C@_19PNBHMJPL@?$AAH?$AAK?$AAP?$AAD@ 10020a2c     POSPower.obj
 0002:00000a38       ??_C@_19GFFAIJHG@?$AAH?$AAK?$AAD?$AAD@ 10020a38     POSPower.obj
 0002:00000a44       ??_C@_19OFICIBHH@?$AAH?$AAK?$AAC?$AAC@ 10020a44     POSPower.obj
 0002:00000a50       ??_C@_1CE@PACHPJFI@?$AAH?$AAK?$AAE?$AAY?$AA_?$AAC?$AAL?$AAA?$AAS?$AAS?$AAE?$AAS?$AA_?$AAR?$AAO@ 10020a50     POSPower.obj
 0002:00000a74       ??_C@_1CE@HLHNCBPM@?$AAH?$AAK?$AAE?$AAY?$AA_?$AAC?$AAU?$AAR?$AAR?$AAE?$AAN?$AAT?$AA_?$AAU?$AAS@ 10020a74     POSPower.obj
 0002:00000a98       ??_C@_1CG@GFBEANJL@?$AAH?$AAK?$AAE?$AAY?$AA_?$AAL?$AAO?$AAC?$AAA?$AAL?$AA_?$AAM?$AAA?$AAC?$AAH@ 10020a98     POSPower.obj
 0002:00000ac0       ??_C@_1BG@BGODANIO@?$AAH?$AAK?$AAE?$AAY?$AA_?$AAU?$AAS?$AAE?$AAR?$AAS@ 10020ac0     POSPower.obj
 0002:00000ad8       ??_C@_1CM@KHNNAOIC@?$AAH?$AAK?$AAE?$AAY?$AA_?$AAP?$AAE?$AAR?$AAF?$AAO?$AAR?$AAM?$AAA?$AAN?$AAC@ 10020ad8     POSPower.obj
 0002:00000b04       ??_C@_1BM@HAGMMHIA@?$AAH?$AAK?$AAE?$AAY?$AA_?$AAD?$AAY?$AAN?$AA_?$AAD?$AAA?$AAT?$AAA@ 10020b04     POSPower.obj
 0002:00000b20       ??_C@_1CI@BBJOACGG@?$AAH?$AAK?$AAE?$AAY?$AA_?$AAC?$AAU?$AAR?$AAR?$AAE?$AAN?$AAT?$AA_?$AAC?$AAO@ 10020b20     POSPower.obj
 0002:00000b48       __GUID_00000112_0000_0000_c000_000000000046 10020b48     POSPower.obj
 0002:00000b58       __GUID_00000109_0000_0000_c000_000000000046 10020b58     POSPower.obj
 0002:00000b68       __GUID_7fd52380_4e07_101b_ae2d_08002b2ec713 10020b68     POSPower.obj
 0002:00000b78       __GUID_3af24292_0c96_11ce_a0cf_00aa00600ab8 10020b78     POSPower.obj
 0002:00000b88       __GUID_00000127_0000_0000_c000_000000000046 10020b88     POSPower.obj
 0002:00000b98       __GUID_0000010d_0000_0000_c000_000000000046 10020b98     POSPower.obj
 0002:00000ba8       ??_C@_1M@PPPPCDEP@?$AAA?$AAP?$AAP?$AAI?$AAD@ 10020ba8     POSPower.obj
 0002:00000bb8       ??_C@_1EA@NHKLICFA@?$AAH?$AAK?$AAC?$AAU?$AA?$AN?$AA?6?$AA?$HL?$AA?7?$AAS?$AAo?$AAf?$AAt?$AAw?$AAa?$AAr@ 10020bb8     POSPower.obj
 0002:00000bf8       ??_C@_1BE@LJOLIMEM@?$AA?$AN?$AA?6?$AA?7?$AA?$HN?$AA?$AN?$AA?6?$AA?$HN?$AA?$AN?$AA?6@ 10020bf8     POSPower.obj
 0002:00000c0c       ??_C@_1O@MNLDABAF@?$AAM?$AAo?$AAd?$AAu?$AAl?$AAe@ 10020c0c     POSPower.obj
 0002:00000c1c       ??_C@_1BG@JBACFMF@?$AAM?$AAo?$AAd?$AAu?$AAl?$AAe?$AA_?$AAR?$AAa?$AAw@ 10020c1c     POSPower.obj
 0002:00000c34       ??_C@_1BC@KAILKFFG@?$AAR?$AAE?$AAG?$AAI?$AAS?$AAT?$AAR?$AAY@ 10020c34     POSPower.obj
 0002:00000c48       ??_7?$CComContainedObject@VCOPOSPOSPower@@@ATL@@6B?$IDispatchImpl@UIOPOSPOSPower@@$1?IID_IOPOSPOSPower@@3U_GUID@@B$1?LIBID_OposPOSPower_CCO@@3U3@B$00$0A@VCComTypeInfoHolder@ATL@@@1@@ 10020c48     POSPower.obj
 0002:00000d7c       ??_7?$CComContainedObject@VCOPOSPOSPower@@@ATL@@6BCComControlBase@1@@ 10020d7c     POSPower.obj
 0002:00000d90       ??_7?$CComContainedObject@VCOPOSPOSPower@@@ATL@@6B?$CWindowImpl@VCOPOSPOSPower@@VCWindow@ATL@@V?$CWinTraits@$0FGAAAAAA@$0A@@3@@1@@ 10020d90     POSPower.obj
 0002:00000da0       ??_7?$CComContainedObject@VCOPOSPOSPower@@@ATL@@6B?$IPersistStreamInitImpl@VCOPOSPOSPower@@@1@@ 10020da0     POSPower.obj
 0002:00000dc4       ??_7?$CComContainedObject@VCOPOSPOSPower@@@ATL@@6B?$IOleControlImpl@VCOPOSPOSPower@@@1@@ 10020dc4     POSPower.obj
 0002:00000de0       ??_7?$CComContainedObject@VCOPOSPOSPower@@@ATL@@6B?$IOleObjectImpl@VCOPOSPOSPower@@@1@@ 10020de0     POSPower.obj
 0002:00000e40       ??_7?$CComContainedObject@VCOPOSPOSPower@@@ATL@@6B?$IOleInPlaceActiveObjectImpl@VCOPOSPOSPower@@@1@@ 10020e40     POSPower.obj
 0002:00000e68       ??_7?$CComContainedObject@VCOPOSPOSPower@@@ATL@@6B?$IViewObjectExImpl@VCOPOSPOSPower@@@1@@ 10020e68     POSPower.obj
 0002:00000ea4       ??_7?$CComContainedObject@VCOPOSPOSPower@@@ATL@@6B?$IOleInPlaceObjectWindowlessImpl@VCOPOSPOSPower@@@1@@ 10020ea4     POSPower.obj
 0002:00000ed0       ??_7?$CComContainedObject@VCOPOSPOSPower@@@ATL@@6B?$IConnectionPointContainerImpl@VCOPOSPOSPower@@@1@@ 10020ed0     POSPower.obj
 0002:00000ee4       ??_7?$CComContainedObject@VCOPOSPOSPower@@@ATL@@6B?$IPersistStorageImpl@VCOPOSPOSPower@@@1@@ 10020ee4     POSPower.obj
 0002:00000f0c       ??_7?$CComContainedObject@VCOPOSPOSPower@@@ATL@@6B?$ISpecifyPropertyPagesImpl@VCOPOSPOSPower@@@1@@ 10020f0c     POSPower.obj
 0002:00000f1c       ??_7?$CComContainedObject@VCOPOSPOSPower@@@ATL@@6B?$IQuickActivateImpl@VCOPOSPOSPower@@@1@@ 10020f1c     POSPower.obj
 0002:00000f34       ??_7?$CComContainedObject@VCOPOSPOSPower@@@ATL@@6B?$IDataObjectImpl@VCOPOSPOSPower@@@1@@ 10020f34     POSPower.obj
 0002:00000f64       ??_7?$CComContainedObject@VCOPOSPOSPower@@@ATL@@6B?$IProvideClassInfo2Impl@$1?CLSID_OPOSPOSPower@@3U_GUID@@B$1?DIID__IOPOSPOSPowerEvents@@3U2@B$1?LIBID_OposPOSPower_CCO@@3U2@B$00$0A@VCComTypeInfoHolder@ATL@@@1@@ 10020f64     POSPower.obj
 0002:00000f78       ??_7?$CComContainedObject@VCOPOSPOSPower@@@ATL@@6B?$IObjectSafetyImpl@VCOPOSPOSPower@@$02@1@@ 10020f78     POSPower.obj
 0002:00000f90       ??_7?$CComContainedObject@VCOPOSPOSPower@@@ATL@@6B?$IPropertyNotifySinkCP@VCOPOSPOSPower@@VCComDynamicUnkArray@ATL@@@1@@ 10020f90     POSPower.obj
 0002:00000fb0       ??_7?$CComContainedObject@VCOPOSPOSPower@@@ATL@@6B?$CProxy_IOPOSEvents@VCOPOSPOSPower@@@@@ 10020fb0     POSPower.obj
 0002:00000fd0       ??_7?$CComAggObject@VCOPOSPOSPower@@@ATL@@6B@ 10020fd0     POSPower.obj
 0002:00000fe0       ??_7?$CComObject@VCOPOSPOSPower@@@ATL@@6B?$IDispatchImpl@UIOPOSPOSPower@@$1?IID_IOPOSPOSPower@@3U_GUID@@B$1?LIBID_OposPOSPower_CCO@@3U3@B$00$0A@VCComTypeInfoHolder@ATL@@@1@@ 10020fe0     POSPower.obj
 0002:00001114       ??_7?$CComObject@VCOPOSPOSPower@@@ATL@@6BCComControlBase@1@@ 10021114     POSPower.obj
 0002:00001128       ??_7?$CComObject@VCOPOSPOSPower@@@ATL@@6B?$CWindowImpl@VCOPOSPOSPower@@VCWindow@ATL@@V?$CWinTraits@$0FGAAAAAA@$0A@@3@@1@@ 10021128     POSPower.obj
 0002:00001138       ??_7?$CComObject@VCOPOSPOSPower@@@ATL@@6B?$IPersistStreamInitImpl@VCOPOSPOSPower@@@1@@ 10021138     POSPower.obj
 0002:0000115c       ??_7?$CComObject@VCOPOSPOSPower@@@ATL@@6B?$IOleControlImpl@VCOPOSPOSPower@@@1@@ 1002115c     POSPower.obj
 0002:00001178       ??_7?$CComObject@VCOPOSPOSPower@@@ATL@@6B?$IOleObjectImpl@VCOPOSPOSPower@@@1@@ 10021178     POSPower.obj
 0002:000011d8       ??_7?$CComObject@VCOPOSPOSPower@@@ATL@@6B?$IOleInPlaceActiveObjectImpl@VCOPOSPOSPower@@@1@@ 100211d8     POSPower.obj
 0002:00001200       ??_7?$CComObject@VCOPOSPOSPower@@@ATL@@6B?$IViewObjectExImpl@VCOPOSPOSPower@@@1@@ 10021200     POSPower.obj
 0002:0000123c       ??_7?$CComObject@VCOPOSPOSPower@@@ATL@@6B?$IOleInPlaceObjectWindowlessImpl@VCOPOSPOSPower@@@1@@ 1002123c     POSPower.obj
 0002:00001268       ??_7?$CComObject@VCOPOSPOSPower@@@ATL@@6B?$IConnectionPointContainerImpl@VCOPOSPOSPower@@@1@@ 10021268     POSPower.obj
 0002:0000127c       ??_7?$CComObject@VCOPOSPOSPower@@@ATL@@6B?$IPersistStorageImpl@VCOPOSPOSPower@@@1@@ 1002127c     POSPower.obj
 0002:000012a4       ??_7?$CComObject@VCOPOSPOSPower@@@ATL@@6B?$ISpecifyPropertyPagesImpl@VCOPOSPOSPower@@@1@@ 100212a4     POSPower.obj
 0002:000012b4       ??_7?$CComObject@VCOPOSPOSPower@@@ATL@@6B?$IQuickActivateImpl@VCOPOSPOSPower@@@1@@ 100212b4     POSPower.obj
 0002:000012cc       ??_7?$CComObject@VCOPOSPOSPower@@@ATL@@6B?$IDataObjectImpl@VCOPOSPOSPower@@@1@@ 100212cc     POSPower.obj
 0002:000012fc       ??_7?$CComObject@VCOPOSPOSPower@@@ATL@@6B?$IProvideClassInfo2Impl@$1?CLSID_OPOSPOSPower@@3U_GUID@@B$1?DIID__IOPOSPOSPowerEvents@@3U2@B$1?LIBID_OposPOSPower_CCO@@3U2@B$00$0A@VCComTypeInfoHolder@ATL@@@1@@ 100212fc     POSPower.obj
 0002:00001310       ??_7?$CComObject@VCOPOSPOSPower@@@ATL@@6B?$IObjectSafetyImpl@VCOPOSPOSPower@@$02@1@@ 10021310     POSPower.obj
 0002:00001328       ??_7?$CComObject@VCOPOSPOSPower@@@ATL@@6B?$IPropertyNotifySinkCP@VCOPOSPOSPower@@VCComDynamicUnkArray@ATL@@@1@@ 10021328     POSPower.obj
 0002:00001348       ??_7?$CComObject@VCOPOSPOSPower@@@ATL@@6B?$CProxy_IOPOSEvents@VCOPOSPOSPower@@@@@ 10021348     POSPower.obj
 0002:00001368       ??_C@_1O@GBFKGNEO@?$AAA?$AAT?$AAL?$AA?3?$AA?$CF?$AAp@ 10021368     POSPower.obj
 0002:00001378       ??_C@_1BA@PICGEGJB@?$AAD?$AAI?$AAS?$AAP?$AAL?$AAA?$AAY@ 10021378     POSPower.obj
 0002:00001388       __GUID_9bfbbc02_eff1_101a_84ed_00aa00341d07 10021388     POSPower.obj
 0002:00001398       __GUID_b196b284_bab4_101a_b69c_00aa00341d07 10021398     POSPower.obj
 0002:000013a8       ?_entries@?1??_GetEntries@?$CComEnum@UIEnumConnectionPoints@@$1?_GUID_b196b285_bab4_101a_b69c_00aa00341d07@@3U__s_GUID@@BPAUIConnectionPoint@@V?$_CopyInterface@UIConnectionPoint@@@ATL@@VCComSingleThreadModel@6@@ATL@@SGPBU_ATL_INTMAP_ENTRY@3@XZ@4QBU43@B 100213a8     POSPower.obj
 0002:000013c0       __GUID_00020412_0000_0000_c000_000000000046 100213c0     POSPower.obj
 0002:000013d0       __GUID_00020401_0000_0000_c000_000000000046 100213d0     POSPower.obj
 0002:000013e0       ??_7?$CComObject@V?$CComEnum@UIEnumConnections@@$1?_GUID_b196b287_bab4_101a_b69c_00aa00341d07@@3U__s_GUID@@BUtagCONNECTDATA@@V?$_Copy@UtagCONNECTDATA@@@ATL@@VCComSingleThreadModel@6@@ATL@@@ATL@@6B@ 100213e0     POSPower.obj
 0002:00001400       __GUID_55980ba0_35aa_11cf_b671_00aa004cd6d8 10021400     POSPower.obj
 0002:00001410       __GUID_b196b28b_bab4_101a_b69c_00aa00341d07 10021410     POSPower.obj
 0002:00001420       ?_entries@?1??_GetEntries@?$CComEnum@UIEnumConnections@@$1?_GUID_b196b287_bab4_101a_b69c_00aa00341d07@@3U__s_GUID@@BUtagCONNECTDATA@@V?$_Copy@UtagCONNECTDATA@@@ATL@@VCComSingleThreadModel@6@@ATL@@SGPBU_ATL_INTMAP_ENTRY@3@XZ@4QBU43@B 10021420     POSPower.obj
 0002:00001438       ??_C@_0BG@EKFFMJIO@RegOpenKeyTransactedW@ 10021438     POSPower.obj
 0002:00001450       ??_C@_0BI@HAKLOOGP@RegDeleteKeyTransactedW@ 10021450     POSPower.obj
 0002:00001468       ??_C@_0BA@LILAPHGE@RegDeleteKeyExW@ 10021468     POSPower.obj
 0002:00001478       ??_C@_19ILOCMLCJ@?$AA?4?$AAt?$AAl?$AAb@ 10021478     POSPower.obj
 0002:00001484       __GUID_0002e012_0000_0000_c000_000000000046 10021484     POSPower.obj
 0002:00001494       ??_C@_1O@FHBGLCIO@?$AAC?$AAL?$AAS?$AAI?$AAD?$AA?2@ 10021494     POSPower.obj
 0002:000014a4       ??_C@_1CK@IFBKBFAA@?$AA?2?$AAR?$AAe?$AAq?$AAu?$AAi?$AAr?$AAe?$AAd?$AA?5?$AAC?$AAa?$AAt?$AAe?$AAg@ 100214a4     POSPower.obj
 0002:000014d0       ??_C@_1DA@BIHALFED@?$AA?2?$AAI?$AAm?$AAp?$AAl?$AAe?$AAm?$AAe?$AAn?$AAt?$AAe?$AAd?$AA?5?$AAC?$AAa@ 100214d0     POSPower.obj
 0002:00001500       ??_C@_1BK@EDKOLFBJ@?$AAO?$AAL?$AAE?$AAA?$AAU?$AAT?$AA3?$AA2?$AA?4?$AAD?$AAL?$AAL@ 10021500     POSPower.obj
 0002:0000151c       ??_C@_0BJ@CNLFOMHB@UnRegisterTypeLibForUser@ 1002151c     POSPower.obj
 0002:00001538       ??_C@_0BH@LBOMMKPJ@RegisterTypeLibForUser@ 10021538     POSPower.obj
 0002:00001550       ??_C@_0P@MMNMMLGK@COFreezeEvents@ 10021550     POSPowerImpl.obj
 0002:00001560       ??_C@_0BC@OGCGGIMP@GetPropertyNumber@ 10021560     POSPowerImpl.obj
 0002:00001574       ??_C@_0BC@MDCNODNB@SetPropertyNumber@ 10021574     POSPowerImpl.obj
 0002:00001588       ??_C@_0BC@CFCCMIMD@GetPropertyString@ 10021588     POSPowerImpl.obj
 0002:0000159c       ??_C@_0BC@CJEDNN@SetPropertyString@ 1002159c     POSPowerImpl.obj
 0002:000015b0       ??_C@_0M@LNPKKKDA@OpenService@ 100215b0     POSPowerImpl.obj
 0002:000015bc       ??_C@_0M@PCMCHHMH@CheckHealth@ 100215bc     POSPowerImpl.obj
 0002:000015c8       ??_C@_0M@JGMIDNEK@ClaimDevice@ 100215c8     POSPowerImpl.obj
 0002:000015d4       ??_C@_0N@DDFIIBMP@CloseService@ 100215d4     POSPowerImpl.obj
 0002:000015e4       ??_C@_08EEIHICPC@DirectIO@ 100215e4     POSPowerImpl.obj
 0002:000015f0       ??_C@_0O@BCPMENMJ@ReleaseDevice@ 100215f0     POSPowerImpl.obj
 0002:00001600       ??_C@_0M@KANALHME@ShutdownPOS@ 10021600     POSPowerImpl.obj
 0002:0000160c       ??_C@_0BA@GFABKEEE@ResetStatistics@ 1002160c     POSPowerImpl.obj
 0002:0000161c       ??_C@_0BD@DPALHJGC@RetrieveStatistics@ 1002161c     POSPowerImpl.obj
 0002:00001630       ??_C@_0BB@KOHIKNFC@UpdateStatistics@ 10021630     POSPowerImpl.obj
 0002:00001644       ??_C@_0BH@PBKBNMGB@CompareFirmwareVersion@ 10021644     POSPowerImpl.obj
 0002:0000165c       ??_C@_0P@FBPDPIPA@UpdateFirmware@ 1002165c     POSPowerImpl.obj
 0002:0000166c       ??_C@_0L@CEHEODOE@RestartPOS@ 1002166c     POSPowerImpl.obj
 0002:00001678       ??_C@_0L@OLKFHIGL@StandbyPOS@ 10021678     POSPowerImpl.obj
 0002:00001684       ??_C@_0L@KGKFMCEH@SuspendPOS@ 10021684     POSPowerImpl.obj
 0002:00001690       ??_7?$CProxy_IOPOSEvents@VCOPOSPOSPower@@@@6B@ 10021690     POSPowerImpl.obj
 0002:000016b0       ??_C@_1BA@IFHENID@?$AA?$FL?$AAE?$AAr?$AAr?$AAo?$AAr?$AA?$FN@ 100216b0     POSPowerImpl.obj
 0002:000016c0       ??_C@_0CL@EMHFMPDC@SOFTWARE?2OLEforRetail?2ServiceOP@ 100216c0     POSPowerImpl.obj
 0002:000016ec       ??_C@_1M@IAIJHCCH@?$AAC?$AAl?$AAo?$AAs?$AAe@ 100216ec     POSPowerImpl.obj
 0002:000016f8       ??_C@_1M@PCPKGJAH@?$AAC?$AAl?$AAa?$AAi?$AAm@ 100216f8     POSPowerImpl.obj
 0002:00001704       ??_C@_1BA@NDFKIOCP@?$AAR?$AAe?$AAl?$AAe?$AAa?$AAs?$AAe@ 10021704     POSPowerImpl.obj
 0002:00001714       ??_C@_08DLDFOLLN@POSPower@ 10021714     POSPowerImpl.obj
 0002:00001720       ??_C@_1BM@IJMNMBPK@?$AAG?$AAe?$AAt?$AAO?$AAp?$AAe?$AAn?$AAR?$AAe?$AAs?$AAu?$AAl?$AAt@ 10021720     POSPowerImpl.obj
 0002:0000173c       _IID_IPropertyNotifySink   1002173c     uuid:ocidl_i.obj
 0002:0000174c       _GUID_NULL                 1002174c     uuid:cguid_i.obj
 0002:0000175c       _CLSID_StdGlobalInterfaceTable 1002175c     uuid:cguid_i.obj
 0002:0000176c       _IID_IDispatch             1002176c     uuid:oaidl_i.obj
 0002:0000177c       _CLSID_StdComponentCategoriesMgr 1002177c     uuid:ieguids.obj
 0002:0000178c       _IID_IUnknown              1002178c     uuid:unknwn_i.obj
 0002:000017a0       ??_C@_1EC@JIJBPKFM@?$AAa?$AAp?$AAi?$AA?9?$AAm?$AAs?$AA?9?$AAw?$AAi?$AAn?$AA?9?$AAc?$AAo?$AAr?$AAe@ 100217a0     LIBCMT:thread_safe_statics.obj
 0002:000017e4       ??_C@_1BK@MGMFAEKH@?$AAk?$AAe?$AAr?$AAn?$AAe?$AAl?$AA3?$AA2?$AA?4?$AAd?$AAl?$AAl@ 100217e4     LIBCMT:thread_safe_statics.obj
 0002:00001800       ??_C@_0BJ@JEBJOJFJ@SleepConditionVariableCS@ 10021800     LIBCMT:thread_safe_statics.obj
 0002:0000181c       ??_C@_0BJ@PGPPEPCC@WakeAllConditionVariable@ 1002181c     LIBCMT:thread_safe_statics.obj
 0002:00001835       ?nothrow@std@@3Unothrow_t@1@B 10021835     LIBCMT:std_nothrow.obj
 0002:00001840       __pDefaultRawDllMain       10021840     LIBCMT:dll_dllmain.obj
 0002:00001840       __pRawDllMain              10021840     LIBCMT:dll_dllmain.obj
 0002:00001848       ??_7exception@std@@6B@     10021848     LIBCMT:throw_bad_alloc.obj
 0002:00001850       ??_C@_0BC@EOODALEL@Unknown?5exception@ 10021850     LIBCMT:throw_bad_alloc.obj
 0002:00001868       ??_7bad_alloc@std@@6B@     10021868     LIBCMT:throw_bad_alloc.obj
 0002:00001870       ??_C@_0P@GHFPNOJB@bad?5allocation@ 10021870     LIBCMT:throw_bad_alloc.obj
 0002:00001884       ??_7bad_array_new_length@std@@6B@ 10021884     LIBCMT:throw_bad_alloc.obj
 0002:0000188c       ??_C@_0BF@KINCDENJ@bad?5array?5new?5length@ 1002188c     LIBCMT:throw_bad_alloc.obj
 0002:000018a8       ??_7type_info@@6B@         100218a8     LIBCMT:std_type_info_static.obj
 0002:000018ac       _GUID_ATLVer110            100218ac     atls:atlbase.obj
 0002:000018c0       ??_C@_1IC@ONKHOIDK@?$AAE?$AAR?$AAR?$AAO?$AAR?$AA?5?$AA?3?$AA?5?$AAU?$AAn?$AAa?$AAb?$AAl?$AAe?$AA?5@ 100218c0     atls:atlbase.obj
 0002:00001944       ??_C@_0N@FJEPLCIH@atlthunk?4dll@ 10021944     atls:atlthunk.obj
 0002:00001954       ??_C@_0BG@GAKFHCBM@AtlThunk_AllocateData@ 10021954     atls:atlthunk.obj
 0002:0000196c       ??_C@_0BC@JKONFIAH@AtlThunk_InitData@ 1002196c     atls:atlthunk.obj
 0002:00001980       ??_C@_0BE@IAOEELAK@AtlThunk_DataToCode@ 10021980     atls:atlthunk.obj
 0002:00001994       ??_C@_0BC@GBGKAIPI@AtlThunk_FreeData@ 10021994     atls:atlthunk.obj
 0002:000019a8       __pDestructExceptionObject 100219a8     libvcruntime:ehhelpers.obj
 0002:000019b0       ??_7bad_exception@std@@6B@ 100219b0     libvcruntime:frame.obj
 0002:000019b8       ??_C@_0O@DPKOEFFH@bad?5exception@ 100219b8     libvcruntime:frame.obj
 0002:00001d48       ??_C@_08EHJDFFNH@__based?$CI@ 10021d48     libvcruntime:undname.obj
 0002:00001d54       ??_C@_07KOLFKCDI@__cdecl@  10021d54     libvcruntime:undname.obj
 0002:00001d5c       ??_C@_08GHMPAG@__pascal@   10021d5c     libvcruntime:undname.obj
 0002:00001d68       ??_C@_09IFJBGAPI@__stdcall@ 10021d68     libvcruntime:undname.obj
 0002:00001d74       ??_C@_0L@NPHFGOKO@__thiscall@ 10021d74     libvcruntime:undname.obj
 0002:00001d80       ??_C@_0L@JMKHOMEK@__fastcall@ 10021d80     libvcruntime:undname.obj
 0002:00001d8c       ??_C@_0N@BCKKPABJ@__vectorcall@ 10021d8c     libvcruntime:undname.obj
 0002:00001d9c       ??_C@_09HIJEGCPM@__clrcall@ 10021d9c     libvcruntime:undname.obj
 0002:00001da8       ??_C@_06GHPCKEAG@__eabi@   10021da8     libvcruntime:undname.obj
 0002:00001db0       ??_C@_09IOPIDJLG@__swift_1@ 10021db0     libvcruntime:undname.obj
 0002:00001dbc       ??_C@_09KFNFGKHF@__swift_2@ 10021dbc     libvcruntime:undname.obj
 0002:00001dc8       ??_C@_07JOMMBBKO@__ptr64@  10021dc8     libvcruntime:undname.obj
 0002:00001dd0       ??_C@_0L@PILCLIHE@__restrict@ 10021dd0     libvcruntime:undname.obj
 0002:00001ddc       ??_C@_0M@GFIIJFMG@__unaligned@ 10021ddc     libvcruntime:undname.obj
 0002:00001de8       ??_C@_09DHDLOLLB@restrict?$CI@ 10021de8     libvcruntime:undname.obj
 0002:00001df2       ??_C@_00CNPNBAHC@@         10021df2     libvcruntime:undname.obj
 0002:00001df4       ??_C@_04NIHEBCM@?5new@     10021df4     libvcruntime:undname.obj
 0002:00001dfc       ??_C@_07FPCDHGMM@?5delete@ 10021dfc     libvcruntime:undname.obj
 0002:00001e04       ??_C@_01NEMOKFLO@?$DN@     10021e04     libvcruntime:undname.obj
 0002:00001e08       ??_C@_02GPIOPFAK@?$DO?$DO@ 10021e08     libvcruntime:undname.obj
 0002:00001e0c       ??_C@_02FODMEDOG@?$DM?$DM@ 10021e0c     libvcruntime:undname.obj
 0002:00001e10       ??_C@_01DCLJPIOD@?$CB@     10021e10     libvcruntime:undname.obj
 0002:00001e14       ??_C@_02EGOFBIJA@?$DN?$DN@ 10021e14     libvcruntime:undname.obj
 0002:00001e18       ??_C@_02FDNJECIE@?$CB?$DN@ 10021e18     libvcruntime:undname.obj
 0002:00001e1c       ??_C@_02GPECMEKF@?$FL?$FN@ 10021e1c     libvcruntime:undname.obj
 0002:00001e20       ??_C@_08LHJFAFGD@operator@ 10021e20     libvcruntime:undname.obj
 0002:00001e2c       ??_C@_02HBOOOICD@?9?$DO@   10021e2c     libvcruntime:undname.obj
 0002:00001e30       ??_C@_01NBENCBCI@?$CK@     10021e30     libvcruntime:undname.obj
 0002:00001e34       ??_C@_02ECNGHCIF@?$CL?$CL@ 10021e34     libvcruntime:undname.obj
 0002:00001e38       ??_C@_02BAABKJLB@?9?9@     10021e38     libvcruntime:undname.obj
 0002:00001e3c       ??_C@_01JOAMLHOP@?9@       10021e3c     libvcruntime:undname.obj
 0002:00001e40       ??_C@_01MIFGBAGJ@?$CL@     10021e40     libvcruntime:undname.obj
 0002:00001e44       ??_C@_01HNPIGOCE@?$CG@     10021e44     libvcruntime:undname.obj
 0002:00001e48       ??_C@_03MNHNFDLC@?9?$DO?$CK@ 10021e48     libvcruntime:undname.obj
 0002:00001e4c       ??_C@_01KMDKNFGN@?1@       10021e4c     libvcruntime:undname.obj
 0002:00001e50       ??_C@_01FGNFDNOH@?$CF@     10021e50     libvcruntime:undname.obj
 0002:00001e54       ??_C@_01MNNFJEPP@?$DM@     10021e54     libvcruntime:undname.obj
 0002:00001e58       ??_C@_02EHCHHCKH@?$DM?$DN@ 10021e58     libvcruntime:undname.obj
 0002:00001e5c       ??_C@_01PPODPGHN@?$DO@     10021e5c     libvcruntime:undname.obj
 0002:00001e60       ??_C@_02EEKDKGMJ@?$DO?$DN@ 10021e60     libvcruntime:undname.obj
 0002:00001e64       ??_C@_01IHBHIGKO@?0@       10021e64     libvcruntime:undname.obj
 0002:00001e68       ??_C@_02HCKGKOFO@?$CI?$CJ@ 10021e68     libvcruntime:undname.obj
 0002:00001e6c       ??_C@_01PJKLJHI@?$HO@      10021e6c     libvcruntime:undname.obj
 0002:00001e70       ??_C@_01JKBOJNNK@?$FO@     10021e70     libvcruntime:undname.obj
 0002:00001e74       ??_C@_01DNKMNLPK@?$HM@     10021e74     libvcruntime:undname.obj
 0002:00001e78       ??_C@_02PPKAJPJL@?$CG?$CG@ 10021e78     libvcruntime:undname.obj
 0002:00001e7c       ??_C@_02NONPIBCD@?$HM?$HM@ 10021e7c     libvcruntime:undname.obj
 0002:00001e80       ??_C@_02FPIMKNGF@?$CK?$DN@ 10021e80     libvcruntime:undname.obj
 0002:00001e84       ??_C@_02FOEOMHFC@?$CL?$DN@ 10021e84     libvcruntime:undname.obj
 0002:00001e88       ??_C@_02FKMDLLOA@?9?$DN@   10021e88     libvcruntime:undname.obj
 0002:00001e8c       ??_C@_02FJEHGPIO@?1?$DN@   10021e8c     libvcruntime:undname.obj
 0002:00001e90       ??_C@_02FENAOKFI@?$CF?$DN@ 10021e90     libvcruntime:undname.obj
 0002:00001e94       ??_C@_03IKFCCPFF@?$DO?$DO?$DN@ 10021e94     libvcruntime:undname.obj
 0002:00001e98       ??_C@_03CDNPDDLA@?$DM?$DM?$DN@ 10021e98     libvcruntime:undname.obj
 0002:00001e9c       ??_C@_02FGJGFEAB@?$CG?$DN@ 10021e9c     libvcruntime:undname.obj
 0002:00001ea0       ??_C@_02DHLNPPGH@?$HM?$DN@ 10021ea0     libvcruntime:undname.obj
 0002:00001ea4       ??_C@_02MHEGNOJ@?$FO?$DN@  10021ea4     libvcruntime:undname.obj
 0002:00001ea8       ??_C@_09IFPLHPGF@?$GAvftable?8@ 10021ea8     libvcruntime:undname.obj
 0002:00001eb4       ??_C@_09BLBHBJP@?$GAvbtable?8@ 10021eb4     libvcruntime:undname.obj
 0002:00001ec0       ??_C@_07FEEIOKP@?$GAvcall?8@ 10021ec0     libvcruntime:undname.obj
 0002:00001ec8       ??_C@_08LLFFHHDJ@?$GAtypeof?8@ 10021ec8     libvcruntime:undname.obj
 0002:00001ed4       ??_C@_0BF@KDPPACIK@?$GAlocal?5static?5guard?8@ 10021ed4     libvcruntime:undname.obj
 0002:00001eec       ??_C@_08OBABFOLI@?$GAstring?8@ 10021eec     libvcruntime:undname.obj
 0002:00001ef8       ??_C@_0BD@JDLKDPAB@?$GAvbase?5destructor?8@ 10021ef8     libvcruntime:undname.obj
 0002:00001f0c       ??_C@_0BN@DEGPLNFK@?$GAvector?5deleting?5destructor?8@ 10021f0c     libvcruntime:undname.obj
 0002:00001f2c       ??_C@_0BO@OBMKPJIG@?$GAdefault?5constructor?5closure?8@ 10021f2c     libvcruntime:undname.obj
 0002:00001f4c       ??_C@_0BN@IMDCHIKM@?$GAscalar?5deleting?5destructor?8@ 10021f4c     libvcruntime:undname.obj
 0002:00001f6c       ??_C@_0BO@PFGOCPJJ@?$GAvector?5constructor?5iterator?8@ 10021f6c     libvcruntime:undname.obj
 0002:00001f8c       ??_C@_0BN@LFPFMEDL@?$GAvector?5destructor?5iterator?8@ 10021f8c     libvcruntime:undname.obj
 0002:00001fac       ??_C@_0CE@IKBNEHA@?$GAvector?5vbase?5constructor?5itera@ 10021fac     libvcruntime:undname.obj
 0002:00001fd0       ??_C@_0BL@NILFHHPC@?$GAvirtual?5displacement?5map?8@ 10021fd0     libvcruntime:undname.obj
 0002:00001fec       ??_C@_0CB@JONCMFFK@?$GAeh?5vector?5constructor?5iterator@ 10021fec     libvcruntime:undname.obj
 0002:00002010       ??_C@_0CA@GCEOPDGL@?$GAeh?5vector?5destructor?5iterator?8@ 10022010     libvcruntime:undname.obj
 0002:00002030       ??_C@_0CH@OOJPLCPH@?$GAeh?5vector?5vbase?5constructor?5it@ 10022030     libvcruntime:undname.obj
 0002:00002058       ??_C@_0BL@LLKPOHJI@?$GAcopy?5constructor?5closure?8@ 10022058     libvcruntime:undname.obj
 0002:00002074       ??_C@_0BA@KBCDOMBN@?$GAudt?5returning?8@ 10022074     libvcruntime:undname.obj
 0002:00002084       ??_C@_03KLGMFNMG@?$GAEH@   10022084     libvcruntime:undname.obj
 0002:00002088       ??_C@_05KHLCHHI@?$GARTTI@  10022088     libvcruntime:undname.obj
 0002:00002090       ??_C@_0BA@KKLDJDLB@?$GAlocal?5vftable?8@ 10022090     libvcruntime:undname.obj
 0002:000020a0       ??_C@_0CE@IIHCMGGL@?$GAlocal?5vftable?5constructor?5clos@ 100220a0     libvcruntime:undname.obj
 0002:000020c4       ??_C@_06FHBGPFGH@?5new?$FL?$FN@ 100220c4     libvcruntime:undname.obj
 0002:000020cc       ??_C@_09LBNFPBCA@?5delete?$FL?$FN@ 100220cc     libvcruntime:undname.obj
 0002:000020d8       ??_C@_0P@HJKNJFNN@?$GAomni?5callsig?8@ 100220d8     libvcruntime:undname.obj
 0002:000020e8       ??_C@_0BL@CNOONJFP@?$GAplacement?5delete?5closure?8@ 100220e8     libvcruntime:undname.obj
 0002:00002104       ??_C@_0BN@CKNJLHMB@?$GAplacement?5delete?$FL?$FN?5closure?8@ 10022104     libvcruntime:undname.obj
 0002:00002124       ??_C@_0CG@CFDHKGGD@?$GAmanaged?5vector?5constructor?5ite@ 10022124     libvcruntime:undname.obj
 0002:0000214c       ??_C@_0CF@IMGKMJNO@?$GAmanaged?5vector?5destructor?5iter@ 1002214c     libvcruntime:undname.obj
 0002:00002174       ??_C@_0CG@HLDDJMAG@?$GAeh?5vector?5copy?5constructor?5ite@ 10022174     libvcruntime:undname.obj
 0002:0000219c       ??_C@_0CM@FCBBDIGB@?$GAeh?5vector?5vbase?5copy?5construct@ 1002219c     libvcruntime:undname.obj
 0002:000021c8       ??_C@_0BL@CLIPGLGB@?$GAdynamic?5initializer?5for?5?8@ 100221c8     libvcruntime:undname.obj
 0002:000021e4       ??_C@_0CB@PDBIFEP@?$GAdynamic?5atexit?5destructor?5for?5@ 100221e4     libvcruntime:undname.obj
 0002:00002208       ??_C@_0CD@CGAJBKEJ@?$GAvector?5copy?5constructor?5iterat@ 10022208     libvcruntime:undname.obj
 0002:0000222c       ??_C@_0CJ@GJELGAMM@?$GAvector?5vbase?5copy?5constructor?5@ 1002222c     libvcruntime:undname.obj
 0002:00002258       ??_C@_0CL@FGIJHLCE@?$GAmanaged?5vector?5copy?5constructo@ 10022258     libvcruntime:undname.obj
 0002:00002284       ??_C@_0BM@PMGGMLDN@?$GAlocal?5static?5thread?5guard?8@ 10022284     libvcruntime:undname.obj
 0002:000022a0       ??_C@_0N@BDNMDMOL@operator?5?$CC?$CC?5@ 100222a0     libvcruntime:undname.obj
 0002:000022b0       ??_C@_0BC@GGEBGALA@operator?5co_await@ 100222b0     libvcruntime:undname.obj
 0002:000022c4       ??_C@_0M@GAAIMMOH@operator?$DM?$DN?$DO@ 100222c4     libvcruntime:undname.obj
 0002:000022d0       ??_C@_0BC@DAFEJGAK@?5Type?5Descriptor?8@ 100222d0     libvcruntime:undname.obj
 0002:000022e4       ??_C@_0BM@LDKODKLH@?5Base?5Class?5Descriptor?5at?5?$CI@ 100222e4     libvcruntime:undname.obj
 0002:00002300       ??_C@_0BD@LGICGFMM@?5Base?5Class?5Array?8@ 10022300     libvcruntime:undname.obj
 0002:00002314       ??_C@_0BN@MECKDCOJ@?5Class?5Hierarchy?5Descriptor?8@ 10022314     libvcruntime:undname.obj
 0002:00002334       ??_C@_0BK@CFCOFLF@?5Complete?5Object?5Locator?8@ 10022334     libvcruntime:undname.obj
 0002:00002350       ??_C@_0BG@JNJLAMPM@?$GAanonymous?5namespace?8@ 10022350     libvcruntime:undname.obj
 0002:00002374       ??_C@_1DM@KHCHBNEB@?$AAa?$AAp?$AAi?$AA?9?$AAm?$AAs?$AA?9?$AAw?$AAi?$AAn?$AA?9?$AAc?$AAo?$AAr?$AAe@ 10022374     libvcruntime:winapi_downlevel.obj
 0002:000023b0       ??_C@_1DK@LPPGFMPP@?$AAa?$AAp?$AAi?$AA?9?$AAm?$AAs?$AA?9?$AAw?$AAi?$AAn?$AA?9?$AAc?$AAo?$AAr?$AAe@ 100223b0     libvcruntime:winapi_downlevel.obj
 0002:000023ec       ??_C@_1BC@GDMECMAK@?$AAk?$AAe?$AAr?$AAn?$AAe?$AAl?$AA3?$AA2@ 100223ec     libvcruntime:winapi_downlevel.obj
 0002:00002400       ??_C@_1BA@PFFKHIOG@?$AAa?$AAp?$AAi?$AA?9?$AAm?$AAs?$AA?9@ 10022400     libvcruntime:winapi_downlevel.obj
 0002:00002418       ??_C@_08KNHFBNJ@FlsAlloc@  10022418     libvcruntime:winapi_downlevel.obj
 0002:0000242c       ??_C@_07PEJMOBNF@FlsFree@  1002242c     libvcruntime:winapi_downlevel.obj
 0002:0000243c       ??_C@_0M@GDNOONDI@FlsGetValue@ 1002243c     libvcruntime:winapi_downlevel.obj
 0002:00002450       ??_C@_0M@JCPCPOEF@FlsSetValue@ 10022450     libvcruntime:winapi_downlevel.obj
 0002:00002464       ??_C@_0BM@HCFOFFN@InitializeCriticalSectionEx@ 10022464     libvcruntime:winapi_downlevel.obj
 0002:000025e8       ?format_validation_lookup_table_spectre@__crt_stdio_output@@3V?$spectre_mitigated_lookup_table@Ustate_transition_pair@__crt_stdio_output@@$0IA@@1@B 100225e8     libucrt:output.obj
 0002:000029e8       ??_C@_1O@CEDCILHN@?$AA?$CI?$AAn?$AAu?$AAl?$AAl?$AA?$CJ@ 100229e8     libucrt:output.obj
 0002:000029f8       ??_C@_06OJHGLDPL@?$CInull?$CJ@ 100229f8     libucrt:output.obj
 0002:00002a00       ___acrt_exception_action_table 10022a00     libucrt:exception_filter.obj
 0002:00002a90       ___acrt_signal_action_table_count 10022a90     libucrt:exception_filter.obj
 0002:00002a94       ___acrt_signal_action_first_fpe_index 10022a94     libucrt:exception_filter.obj
 0002:00002a98       ___acrt_signal_action_fpe_count 10022a98     libucrt:exception_filter.obj
 0002:00002a9c       ??_C@_1BI@BGOHAHKC@?$AAm?$AAs?$AAc?$AAo?$AAr?$AAe?$AAe?$AA?4?$AAd?$AAl?$AAl@ 10022a9c     libucrt:exit.obj
 0002:00002ab4       ??_C@_0P@MIGLKIOC@CorExitProcess@ 10022ab4     libucrt:exit.obj
 0002:00002b98       ??_C@_1EA@JGEFHKEI@?$AAa?$AAp?$AAi?$AA?9?$AAm?$AAs?$AA?9?$AAw?$AAi?$AAn?$AA?9?$AAc?$AAo?$AAr?$AAe@ 10022b98     libucrt:winapi_thunks.obj
 0002:00002bd8       ??_C@_1DI@IJCEHOCB@?$AAa?$AAp?$AAi?$AA?9?$AAm?$AAs?$AA?9?$AAw?$AAi?$AAn?$AA?9?$AAc?$AAo?$AAr?$AAe@ 10022bd8     libucrt:winapi_thunks.obj
 0002:00002c10       ??_C@_1EI@MPIAOHOC@?$AAa?$AAp?$AAi?$AA?9?$AAm?$AAs?$AA?9?$AAw?$AAi?$AAn?$AA?9?$AAc?$AAo?$AAr?$AAe@ 10022c10     libucrt:winapi_thunks.obj
 0002:00002c58       ??_C@_1FK@FPHCKFIE@?$AAa?$AAp?$AAi?$AA?9?$AAm?$AAs?$AA?9?$AAw?$AAi?$AAn?$AA?9?$AAc?$AAo?$AAr?$AAe@ 10022c58     libucrt:winapi_thunks.obj
 0002:00002cb8       ??_C@_1EM@DILCGIIO@?$AAa?$AAp?$AAi?$AA?9?$AAm?$AAs?$AA?9?$AAw?$AAi?$AAn?$AA?9?$AAc?$AAo?$AAr?$AAe@ 10022cb8     libucrt:winapi_thunks.obj
 0002:00002d04       ??_C@_1DM@LNCGDDPN@?$AAa?$AAp?$AAi?$AA?9?$AAm?$AAs?$AA?9?$AAw?$AAi?$AAn?$AA?9?$AAc?$AAo?$AAr?$AAe@ 10022d04     libucrt:winapi_thunks.obj
 0002:00002d40       ??_C@_1DO@FPAPJEMD@?$AAa?$AAp?$AAi?$AA?9?$AAm?$AAs?$AA?9?$AAw?$AAi?$AAn?$AA?9?$AAc?$AAo?$AAr?$AAe@ 10022d40     libucrt:winapi_thunks.obj
 0002:00002d80       ??_C@_1DK@NDHNAHIO@?$AAa?$AAp?$AAi?$AA?9?$AAm?$AAs?$AA?9?$AAw?$AAi?$AAn?$AA?9?$AAc?$AAo?$AAr?$AAe@ 10022d80     libucrt:winapi_thunks.obj
 0002:00002dbc       ??_C@_1DM@KGHDGBCM@?$AAa?$AAp?$AAi?$AA?9?$AAm?$AAs?$AA?9?$AAw?$AAi?$AAn?$AA?9?$AAc?$AAo?$AAr?$AAe@ 10022dbc     libucrt:winapi_thunks.obj
 0002:00002df8       ??_C@_1EO@IJIOEFOH@?$AAa?$AAp?$AAi?$AA?9?$AAm?$AAs?$AA?9?$AAw?$AAi?$AAn?$AA?9?$AAr?$AAt?$AAc?$AAo@ 10022df8     libucrt:winapi_thunks.obj
 0002:00002e48       ??_C@_1FG@HHGEKANL@?$AAa?$AAp?$AAi?$AA?9?$AAm?$AAs?$AA?9?$AAw?$AAi?$AAn?$AA?9?$AAs?$AAe?$AAc?$AAu@ 10022e48     libucrt:winapi_thunks.obj
 0002:00002ea0       ??_C@_1EG@DBIOJECG@?$AAe?$AAx?$AAt?$AA?9?$AAm?$AAs?$AA?9?$AAw?$AAi?$AAn?$AA?9?$AAn?$AAt?$AAu?$AAs@ 10022ea0     libucrt:winapi_thunks.obj
 0002:00002ee8       ??_C@_1EO@FIHMJCLF@?$AAe?$AAx?$AAt?$AA?9?$AAm?$AAs?$AA?9?$AAw?$AAi?$AAn?$AA?9?$AAn?$AAt?$AAu?$AAs@ 10022ee8     libucrt:winapi_thunks.obj
 0002:00002f38       ??_C@_1BC@DNHGCMLG@?$AAa?$AAd?$AAv?$AAa?$AAp?$AAi?$AA3?$AA2@ 10022f38     libucrt:winapi_thunks.obj
 0002:00002f4c       ??_C@_1M@OAIMIKLP@?$AAn?$AAt?$AAd?$AAl?$AAl@ 10022f4c     libucrt:winapi_thunks.obj
 0002:00002f58       ??_C@_1EG@DPGNFKGC@?$AAa?$AAp?$AAi?$AA?9?$AAm?$AAs?$AA?9?$AAw?$AAi?$AAn?$AA?9?$AAa?$AAp?$AAp?$AAm@ 10022f58     libucrt:winapi_thunks.obj
 0002:00002fa0       ??_C@_1O@BCCLBEOE@?$AAu?$AAs?$AAe?$AAr?$AA3?$AA2@ 10022fa0     libucrt:winapi_thunks.obj
 0002:00002fb0       ??_C@_1BA@IAIFMGEF@?$AAe?$AAx?$AAt?$AA?9?$AAm?$AAs?$AA?9@ 10022fb0     libucrt:winapi_thunks.obj
 0002:00002fc4       ??_C@_0BA@FHFNEAED@AreFileApisANSI@ 10022fc4     libucrt:winapi_thunks.obj
 0002:00003004       ??_C@_0O@KKBNKAPF@LCMapStringEx@ 10023004     libucrt:winapi_thunks.obj
 0002:0000301c       ??_C@_0BB@HBDEELFH@LocaleNameToLCID@ 1002301c     libucrt:winapi_thunks.obj
 0002:00003034       ??_C@_0CF@OJOFEIGO@AppPolicyGetProcessTerminationM@ 10023034     libucrt:winapi_thunks.obj
 0002:00003064       ??_C@_0BI@BKLFFAPO@SetThreadStackGuarantee@ 10023064     libucrt:winapi_thunks.obj
 0002:000030c0       ??_C@_03OEIAHPBN@INF@      100230c0     libucrt:cvt.obj
 0002:000030c4       ??_C@_03OJHLLCGB@inf@      100230c4     libucrt:cvt.obj
 0002:000030c8       ??_C@_03LKNCIKJB@NAN@      100230c8     libucrt:cvt.obj
 0002:000030cc       ??_C@_03LHCJEHON@nan@      100230cc     libucrt:cvt.obj
 0002:000030d0       ??_C@_09OFJJIMPC@NAN?$CISNAN?$CJ@ 100230d0     libucrt:cvt.obj
 0002:000030dc       ??_C@_09IPFBKMDL@nan?$CIsnan?$CJ@ 100230dc     libucrt:cvt.obj
 0002:000030e8       ??_C@_08IKHNHAJ@NAN?$CIIND?$CJ@ 100230e8     libucrt:cvt.obj
 0002:000030f4       ??_C@_08OFCDMILK@nan?$CIind?$CJ@ 100230f4     libucrt:cvt.obj
 0002:00003100       ??_C@_05KLBDPFGC@e?$CL000@ 10023100     libucrt:cvt.obj
 0002:00003108       ___lc_time_c               10023108     libucrt:nlsdata.obj
 0002:0000326c       ??_C@_03KOEHGMDN@Sun@      1002326c     libucrt:nlsdata.obj
 0002:00003270       ??_C@_03PDAGKDH@Mon@       10023270     libucrt:nlsdata.obj
 0002:00003274       ??_C@_03NAGEINEP@Tue@      10023274     libucrt:nlsdata.obj
 0002:00003278       ??_C@_03MHOMLAJA@Wed@      10023278     libucrt:nlsdata.obj
 0002:0000327c       ??_C@_03IOFIKPDN@Thu@      1002327c     libucrt:nlsdata.obj
 0002:00003280       ??_C@_03IDIOELNC@Fri@      10023280     libucrt:nlsdata.obj
 0002:00003284       ??_C@_03FEFJNEK@Sat@       10023284     libucrt:nlsdata.obj
 0002:00003288       ??_C@_06OOPIFAJ@Sunday@    10023288     libucrt:nlsdata.obj
 0002:00003290       ??_C@_06JLEDEDGH@Monday@   10023290     libucrt:nlsdata.obj
 0002:00003298       ??_C@_07BAAGCFCM@Tuesday@  10023298     libucrt:nlsdata.obj
 0002:000032a0       ??_C@_09DLIGFAKA@Wednesday@ 100232a0     libucrt:nlsdata.obj
 0002:000032ac       ??_C@_08HACCIKIA@Thursday@ 100232ac     libucrt:nlsdata.obj
 0002:000032b8       ??_C@_06JECMNKMI@Friday@   100232b8     libucrt:nlsdata.obj
 0002:000032c0       ??_C@_08INBOOONO@Saturday@ 100232c0     libucrt:nlsdata.obj
 0002:000032cc       ??_C@_03JIHJHPIE@Jan@      100232cc     libucrt:nlsdata.obj
 0002:000032d0       ??_C@_03HJBDCHOM@Feb@      100232d0     libucrt:nlsdata.obj
 0002:000032d4       ??_C@_03ODNJBKGA@Mar@      100232d4     libucrt:nlsdata.obj
 0002:000032d8       ??_C@_03LEOLGMJP@Apr@      100232d8     libucrt:nlsdata.obj
 0002:000032dc       ??_C@_03CNMDKL@May@        100232dc     libucrt:nlsdata.obj
 0002:000032e0       ??_C@_03IDFGHECI@Jun@      100232e0     libucrt:nlsdata.obj
 0002:000032e4       ??_C@_03LBGABGKK@Jul@      100232e4     libucrt:nlsdata.obj
 0002:000032e8       ??_C@_03IFJFEIGA@Aug@      100232e8     libucrt:nlsdata.obj
 0002:000032ec       ??_C@_03GGCAPAJC@Sep@      100232ec     libucrt:nlsdata.obj
 0002:000032f0       ??_C@_03BMAOKBAD@Oct@      100232f0     libucrt:nlsdata.obj
 0002:000032f4       ??_C@_03JPJOFNIA@Nov@      100232f4     libucrt:nlsdata.obj
 0002:000032f8       ??_C@_03MKABNOCG@Dec@      100232f8     libucrt:nlsdata.obj
 0002:000032fc       ??_C@_07CGJPFGJA@January@  100232fc     libucrt:nlsdata.obj
 0002:00003304       ??_C@_08GNJGEPFN@February@ 10023304     libucrt:nlsdata.obj
 0002:00003310       ??_C@_05HPCKOFNC@March@    10023310     libucrt:nlsdata.obj
 0002:00003318       ??_C@_05DMJDNLEJ@April@    10023318     libucrt:nlsdata.obj
 0002:00003320       ??_C@_04CNLMGBGM@June@     10023320     libucrt:nlsdata.obj
 0002:00003328       ??_C@_04MIEPOIFP@July@     10023328     libucrt:nlsdata.obj
 0002:00003330       ??_C@_06LBBHFDDG@August@   10023330     libucrt:nlsdata.obj
 0002:00003338       ??_C@_09BHHEALKD@September@ 10023338     libucrt:nlsdata.obj
 0002:00003344       ??_C@_07JJNFCEND@October@  10023344     libucrt:nlsdata.obj
 0002:0000334c       ??_C@_08HCHEGEOA@November@ 1002334c     libucrt:nlsdata.obj
 0002:00003358       ??_C@_08EDHMEBNP@December@ 10023358     libucrt:nlsdata.obj
 0002:00003364       ??_C@_02DEDBPAFC@AM@       10023364     libucrt:nlsdata.obj
 0002:00003368       ??_C@_02CJNFDJBF@PM@       10023368     libucrt:nlsdata.obj
 0002:0000336c       ??_C@_08BPBNCDIB@MM?1dd?1yy@ 1002336c     libucrt:nlsdata.obj
 0002:00003378       ??_C@_0BE@CKGJFCPC@dddd?0?5MMMM?5dd?0?5yyyy@ 10023378     libucrt:nlsdata.obj
 0002:0000338c       ??_C@_08JCCMCCIL@HH?3mm?3ss@ 1002338c     libucrt:nlsdata.obj
 0002:00003398       ??_C@_17MBGCMIPB@?$AAS?$AAu?$AAn@ 10023398     libucrt:nlsdata.obj
 0002:000033a0       ??_C@_17KBOMKBF@?$AAM?$AAo?$AAn@ 100233a0     libucrt:nlsdata.obj
 0002:000033a8       ??_C@_17BMKGEGOJ@?$AAT?$AAu?$AAe@ 100233a8     libucrt:nlsdata.obj
 0002:000033b0       ??_C@_17CJEDCEPE@?$AAW?$AAe?$AAd@ 100233b0     libucrt:nlsdata.obj
 0002:000033b8       ??_C@_17PDPHAADD@?$AAT?$AAh?$AAu@ 100233b8     libucrt:nlsdata.obj
 0002:000033c0       ??_C@_17HFOLPPLP@?$AAF?$AAr?$AAi@ 100233c0     libucrt:nlsdata.obj
 0002:000033c8       ??_C@_17GGIBDPIH@?$AAS?$AAa?$AAt@ 100233c8     libucrt:nlsdata.obj
 0002:000033d0       ??_C@_1O@IHNHDHPB@?$AAS?$AAu?$AAn?$AAd?$AAa?$AAy@ 100233d0     libucrt:nlsdata.obj
 0002:000033e0       ??_C@_1O@MMNBFLIA@?$AAM?$AAo?$AAn?$AAd?$AAa?$AAy@ 100233e0     libucrt:nlsdata.obj
 0002:000033f0       ??_C@_1BA@ENFBFFEK@?$AAT?$AAu?$AAe?$AAs?$AAd?$AAa?$AAy@ 100233f0     libucrt:nlsdata.obj
 0002:00003400       ??_C@_1BE@EBOGMDOH@?$AAW?$AAe?$AAd?$AAn?$AAe?$AAs?$AAd?$AAa?$AAy@ 10023400     libucrt:nlsdata.obj
 0002:00003414       ??_C@_1BC@HHMNLIHE@?$AAT?$AAh?$AAu?$AAr?$AAs?$AAd?$AAa?$AAy@ 10023414     libucrt:nlsdata.obj
 0002:00003428       ??_C@_1O@PDICJHAG@?$AAF?$AAr?$AAi?$AAd?$AAa?$AAy@ 10023428     libucrt:nlsdata.obj
 0002:00003438       ??_C@_1BC@ENMNNPAJ@?$AAS?$AAa?$AAt?$AAu?$AAr?$AAd?$AAa?$AAy@ 10023438     libucrt:nlsdata.obj
 0002:0000344c       ??_C@_17DKNBKCHM@?$AAJ?$AAa?$AAn@ 1002344c     libucrt:nlsdata.obj
 0002:00003454       ??_C@_17LMDJEKJN@?$AAF?$AAe?$AAb@ 10023454     libucrt:nlsdata.obj
 0002:0000345c       ??_C@_17CKNLEDEC@?$AAM?$AAa?$AAr@ 1002345c     libucrt:nlsdata.obj
 0002:00003464       ??_C@_17LFPOIHDD@?$AAA?$AAp?$AAr@ 10023464     libucrt:nlsdata.obj
 0002:0000346c       ??_C@_17PNNKMEED@?$AAM?$AAa?$AAy@ 1002346c     libucrt:nlsdata.obj
 0002:00003474       ??_C@_17KCJGOCPB@?$AAJ?$AAu?$AAn@ 10023474     libucrt:nlsdata.obj
 0002:0000347c       ??_C@_17IJPCKHK@?$AAJ?$AAu?$AAl@ 1002347c     libucrt:nlsdata.obj
 0002:00003484       ??_C@_17ICPELBCN@?$AAA?$AAu?$AAg@ 10023484     libucrt:nlsdata.obj
 0002:0000348c       ??_C@_17HCHCOKMG@?$AAS?$AAe?$AAp@ 1002348c     libucrt:nlsdata.obj
 0002:00003494       ??_C@_17FNLKOI@?$AAO?$AAc?$AAt@ 10023494     libucrt:nlsdata.obj
 0002:0000349c       ??_C@_17BBDMLCIG@?$AAN?$AAo?$AAv@ 1002349c     libucrt:nlsdata.obj
 0002:000034a4       ??_C@_17EGKACKIF@?$AAD?$AAe?$AAc@ 100234a4     libucrt:nlsdata.obj
 0002:000034ac       ??_C@_1BA@EFMEIEBA@?$AAJ?$AAa?$AAn?$AAu?$AAa?$AAr?$AAy@ 100234ac     libucrt:nlsdata.obj
 0002:000034bc       ??_C@_1BC@JGDDFFAM@?$AAF?$AAe?$AAb?$AAr?$AAu?$AAa?$AAr?$AAy@ 100234bc     libucrt:nlsdata.obj
 0002:000034d0       ??_C@_1M@IKEENEDF@?$AAM?$AAa?$AAr?$AAc?$AAh@ 100234d0     libucrt:nlsdata.obj
 0002:000034dc       ??_C@_1M@GJNLMHFD@?$AAA?$AAp?$AAr?$AAi?$AAl@ 100234dc     libucrt:nlsdata.obj
 0002:000034e8       ??_C@_19EPFLPGAP@?$AAJ?$AAu?$AAn?$AAe@ 100234e8     libucrt:nlsdata.obj
 0002:000034f4       ??_C@_19BIFMLPCD@?$AAJ?$AAu?$AAl?$AAy@ 100234f4     libucrt:nlsdata.obj
 0002:00003500       ??_C@_1O@PAHLKOAC@?$AAA?$AAu?$AAg?$AAu?$AAs?$AAt@ 10023500     libucrt:nlsdata.obj
 0002:00003510       ??_C@_1BE@DKAAMBJL@?$AAS?$AAe?$AAp?$AAt?$AAe?$AAm?$AAb?$AAe?$AAr@ 10023510     libucrt:nlsdata.obj
 0002:00003524       ??_C@_1BA@EPANDLNG@?$AAO?$AAc?$AAt?$AAo?$AAb?$AAe?$AAr@ 10023524     libucrt:nlsdata.obj
 0002:00003534       ??_C@_1BC@BGLIFPF@?$AAN?$AAo?$AAv?$AAe?$AAm?$AAb?$AAe?$AAr@ 10023534     libucrt:nlsdata.obj
 0002:00003548       ??_C@_1BC@FEMKIFH@?$AAD?$AAe?$AAc?$AAe?$AAm?$AAb?$AAe?$AAr@ 10023548     libucrt:nlsdata.obj
 0002:0000355c       ??_C@_15ODEHAHHF@?$AAA?$AAM@ 1002355c     libucrt:nlsdata.obj
 0002:00003564       ??_C@_15CLMNNGEL@?$AAP?$AAM@ 10023564     libucrt:nlsdata.obj
 0002:0000356c       ??_C@_1BC@IEBCMHCM@?$AAM?$AAM?$AA?1?$AAd?$AAd?$AA?1?$AAy?$AAy@ 1002356c     libucrt:nlsdata.obj
 0002:00003580       ??_C@_1CI@KNAKOEBC@?$AAd?$AAd?$AAd?$AAd?$AA?0?$AA?5?$AAM?$AAM?$AAM?$AAM?$AA?5?$AAd?$AAd?$AA?0?$AA?5@ 10023580     libucrt:nlsdata.obj
 0002:000035a8       ??_C@_1BC@GDGBMEMK@?$AAH?$AAH?$AA?3?$AAm?$AAm?$AA?3?$AAs?$AAs@ 100235a8     libucrt:nlsdata.obj
 0002:000035bc       ??_C@_1M@BMHNFIME@?$AAe?$AAn?$AA?9?$AAU?$AAS@ 100235bc     libucrt:nlsdata.obj
 0002:000035d8       ??_C@_1M@HPNHIDJI@?$AAj?$AAa?$AA?9?$AAJ?$AAP@ 100235d8     libucrt:mbctype.obj
 0002:000035e4       ??_C@_1M@BIBDDEMK@?$AAz?$AAh?$AA?9?$AAC?$AAN@ 100235e4     libucrt:mbctype.obj
 0002:000035f0       ??_C@_1M@JLOOOEGK@?$AAk?$AAo?$AA?9?$AAK?$AAR@ 100235f0     libucrt:mbctype.obj
 0002:000035fc       ??_C@_1M@CLNBBOPM@?$AAz?$AAh?$AA?9?$AAT?$AAW@ 100235fc     libucrt:mbctype.obj
 0002:00003608       ___newctype                10023608     libucrt:ctype.obj
 0002:00003908       ___newclmap                10023908     libucrt:ctype.obj
 0002:00003a88       ___newcumap                10023a88     libucrt:ctype.obj
 0002:00003c08       __wctype                   10023c08     libucrt:ctype.obj
 0002:00004530       ??_C@_15EMKDOKLE@?$AAa?$AAr@ 10024530     libucrt:lcidtoname_downlevel.obj
 0002:00004538       ??_C@_15KNPADPLH@?$AAb?$AAg@ 10024538     libucrt:lcidtoname_downlevel.obj
 0002:00004540       ??_C@_15EDMHLDMO@?$AAc?$AAa@ 10024540     libucrt:lcidtoname_downlevel.obj
 0002:00004548       ??_C@_1O@BPEAJADD@?$AAz?$AAh?$AA?9?$AAC?$AAH?$AAS@ 10024548     libucrt:lcidtoname_downlevel.obj
 0002:00004558       ??_C@_15LJNHCMNK@?$AAc?$AAs@ 10024558     libucrt:lcidtoname_downlevel.obj
 0002:00004560       ??_C@_15FOMCIDHG@?$AAd?$AAa@ 10024560     libucrt:lcidtoname_downlevel.obj
 0002:00004568       ??_C@_15NBKABECB@?$AAd?$AAe@ 10024568     libucrt:lcidtoname_downlevel.obj
 0002:00004570       ??_C@_15GHPEIIAO@?$AAe?$AAl@ 10024570     libucrt:lcidtoname_downlevel.obj
 0002:00004578       ??_C@_15MNPNEAIF@?$AAe?$AAn@ 10024578     libucrt:lcidtoname_downlevel.obj
 0002:00004580       ??_C@_15GPIOMPMH@?$AAe?$AAs@ 10024580     libucrt:lcidtoname_downlevel.obj
 0002:00004588       ??_C@_15NGLOAKJC@?$AAf?$AAi@ 10024588     libucrt:lcidtoname_downlevel.obj
 0002:00004590       ??_C@_15FBKGNKAM@?$AAf?$AAr@ 10024590     libucrt:lcidtoname_downlevel.obj
 0002:00004598       ??_C@_15KGGCNEFK@?$AAh?$AAe@ 10024598     libucrt:lcidtoname_downlevel.obj
 0002:000045a0       ??_C@_15PGHLIDMF@?$AAh?$AAu@ 100245a0     libucrt:lcidtoname_downlevel.obj
 0002:000045a8       ??_C@_15BIEMAPLM@?$AAi?$AAs@ 100245a8     libucrt:lcidtoname_downlevel.obj
 0002:000045b0       ??_C@_15IFJLDHAF@?$AAi?$AAt@ 100245b0     libucrt:lcidtoname_downlevel.obj
 0002:000045b8       ??_C@_15GEMIOCAG@?$AAj?$AAa@ 100245b8     libucrt:lcidtoname_downlevel.obj
 0002:000045c0       ??_C@_15EPELEGJA@?$AAk?$AAo@ 100245c0     libucrt:lcidtoname_downlevel.obj
 0002:000045c8       ??_C@_15NDDHIMN@?$AAn?$AAl@ 100245c8     libucrt:lcidtoname_downlevel.obj
 0002:000045d0       ??_C@_15BPIGNHCD@?$AAn?$AAo@ 100245d0     libucrt:lcidtoname_downlevel.obj
 0002:000045d8       ??_C@_15DEOPBLCG@?$AAp?$AAl@ 100245d8     libucrt:lcidtoname_downlevel.obj
 0002:000045e0       ??_C@_15KBECGEFG@?$AAp?$AAt@ 100245e0     libucrt:lcidtoname_downlevel.obj
 0002:000045e8       ??_C@_15GLJCBFMD@?$AAr?$AAo@ 100245e8     libucrt:lcidtoname_downlevel.obj
 0002:000045f0       ??_C@_15FEDGKCDI@?$AAr?$AAu@ 100245f0     libucrt:lcidtoname_downlevel.obj
 0002:000045f8       ??_C@_15GLKMLLHM@?$AAh?$AAr@ 100245f8     libucrt:lcidtoname_downlevel.obj
 0002:00004600       ??_C@_15CPKMFBDB@?$AAs?$AAk@ 10024600     libucrt:lcidtoname_downlevel.obj
 0002:00004608       ??_C@_15BAAIOGMK@?$AAs?$AAq@ 10024608     libucrt:lcidtoname_downlevel.obj
 0002:00004610       ??_C@_15INNPNOHD@?$AAs?$AAv@ 10024610     libucrt:lcidtoname_downlevel.obj
 0002:00004618       ??_C@_15CABMMOGH@?$AAt?$AAh@ 10024618     libucrt:lcidtoname_downlevel.obj
 0002:00004620       ??_C@_15BPLIHJJM@?$AAt?$AAr@ 10024620     libucrt:lcidtoname_downlevel.obj
 0002:00004628       ??_C@_15NEOEKKDJ@?$AAu?$AAr@ 10024628     libucrt:lcidtoname_downlevel.obj
 0002:00004630       ??_C@_15NFICGAJK@?$AAi?$AAd@ 10024630     libucrt:lcidtoname_downlevel.obj
 0002:00004638       ??_C@_15PJPFLCCM@?$AAu?$AAk@ 10024638     libucrt:lcidtoname_downlevel.obj
 0002:00004640       ??_C@_15HPJPHDM@?$AAb?$AAe@ 10024640     libucrt:lcidtoname_downlevel.obj
 0002:00004648       ??_C@_15LCHLGJII@?$AAs?$AAl@ 10024648     libucrt:lcidtoname_downlevel.obj
 0002:00004650       ??_C@_15PCFJPHHO@?$AAe?$AAt@ 10024650     libucrt:lcidtoname_downlevel.obj
 0002:00004658       ??_C@_15HPFPGODN@?$AAl?$AAv@ 10024658     libucrt:lcidtoname_downlevel.obj
 0002:00004660       ??_C@_15NFFGKGLG@?$AAl?$AAt@ 10024660     libucrt:lcidtoname_downlevel.obj
 0002:00004668       ??_C@_15BDAKCCHN@?$AAf?$AAa@ 10024668     libucrt:lcidtoname_downlevel.obj
 0002:00004670       ??_C@_15NFGIAIAJ@?$AAv?$AAi@ 10024670     libucrt:lcidtoname_downlevel.obj
 0002:00004678       ??_C@_15LMKNDMHN@?$AAh?$AAy@ 10024678     libucrt:lcidtoname_downlevel.obj
 0002:00004680       ??_C@_15IJBHMCFL@?$AAa?$AAz@ 10024680     libucrt:lcidtoname_downlevel.obj
 0002:00004688       ??_C@_15EKOFJABL@?$AAe?$AAu@ 10024688     libucrt:lcidtoname_downlevel.obj
 0002:00004690       ??_C@_15BGHADCNK@?$AAm?$AAk@ 10024690     libucrt:lcidtoname_downlevel.obj
 0002:00004698       ??_C@_15JDNICKHM@?$AAa?$AAf@ 10024698     libucrt:lcidtoname_downlevel.obj
 0002:000046a0       ??_C@_15KPJEDBKD@?$AAk?$AAa@ 100246a0     libucrt:lcidtoname_downlevel.obj
 0002:000046a8       ??_C@_15PDNFFFEO@?$AAf?$AAo@ 100246a8     libucrt:lcidtoname_downlevel.obj
 0002:000046b0       ??_C@_15OMLEGLOC@?$AAh?$AAi@ 100246b0     libucrt:lcidtoname_downlevel.obj
 0002:000046b8       ??_C@_15IDNNENKK@?$AAm?$AAs@ 100246b8     libucrt:lcidtoname_downlevel.obj
 0002:000046c0       ??_C@_15MACJNBMH@?$AAk?$AAk@ 100246c0     libucrt:lcidtoname_downlevel.obj
 0002:000046c8       ??_C@_15DKDJEOND@?$AAk?$AAy@ 100246c8     libucrt:lcidtoname_downlevel.obj
 0002:000046d0       ??_C@_15DFGDLJBG@?$AAs?$AAw@ 100246d0     libucrt:lcidtoname_downlevel.obj
 0002:000046d8       ??_C@_15BBFAICNG@?$AAu?$AAz@ 100246d8     libucrt:lcidtoname_downlevel.obj
 0002:000046e0       ??_C@_15DKNDCGEA@?$AAt?$AAt@ 100246e0     libucrt:lcidtoname_downlevel.obj
 0002:000046e8       ??_C@_15MGIFMDPL@?$AAp?$AAa@ 100246e8     libucrt:lcidtoname_downlevel.obj
 0002:000046f0       ??_C@_15HCNDBBA@?$AAg?$AAu@ 100246f0     libucrt:lcidtoname_downlevel.obj
 0002:000046f8       ??_C@_15FNBEIBON@?$AAt?$AAa@ 100246f8     libucrt:lcidtoname_downlevel.obj
 0002:00004700       ??_C@_15NCHGBGLK@?$AAt?$AAe@ 10024700     libucrt:lcidtoname_downlevel.obj
 0002:00004708       ??_C@_15PHPHCBPF@?$AAk?$AAn@ 10024708     libucrt:lcidtoname_downlevel.obj
 0002:00004710       ??_C@_15DLGBCKMP@?$AAm?$AAr@ 10024710     libucrt:lcidtoname_downlevel.obj
 0002:00004718       ??_C@_15EABBLBFF@?$AAs?$AAa@ 10024718     libucrt:lcidtoname_downlevel.obj
 0002:00004720       ??_C@_15CBKOMCOI@?$AAm?$AAn@ 10024720     libucrt:lcidtoname_downlevel.obj
 0002:00004728       ??_C@_15CKDMCJAF@?$AAg?$AAl@ 10024728     libucrt:lcidtoname_downlevel.obj
 0002:00004730       ??_C@_17CNJFBPG@?$AAk?$AAo?$AAk@ 10024730     libucrt:lcidtoname_downlevel.obj
 0002:00004738       ??_C@_17FFBJICPL@?$AAs?$AAy?$AAr@ 10024738     libucrt:lcidtoname_downlevel.obj
 0002:00004740       ??_C@_17KPNDCPAF@?$AAd?$AAi?$AAv@ 10024740     libucrt:lcidtoname_downlevel.obj
 0002:00004748       ??_C@_1M@OKAHONE@?$AAa?$AAr?$AA?9?$AAS?$AAA@ 10024748     libucrt:lcidtoname_downlevel.obj
 0002:00004754       ??_C@_1M@FFFIGIGK@?$AAb?$AAg?$AA?9?$AAB?$AAG@ 10024754     libucrt:lcidtoname_downlevel.obj
 0002:00004760       ??_C@_1M@BJNKEDC@?$AAc?$AAa?$AA?9?$AAE?$AAS@ 10024760     libucrt:lcidtoname_downlevel.obj
 0002:0000476c       ??_C@_1M@IJJHFJHA@?$AAc?$AAs?$AA?9?$AAC?$AAZ@ 1002476c     libucrt:lcidtoname_downlevel.obj
 0002:00004778       ??_C@_1M@CLPEOBGI@?$AAd?$AAa?$AA?9?$AAD?$AAK@ 10024778     libucrt:lcidtoname_downlevel.obj
 0002:00004784       ??_C@_1M@MCMADGCB@?$AAd?$AAe?$AA?9?$AAD?$AAE@ 10024784     libucrt:lcidtoname_downlevel.obj
 0002:00004790       ??_C@_1M@OOCKEMAM@?$AAe?$AAl?$AA?9?$AAG?$AAR@ 10024790     libucrt:lcidtoname_downlevel.obj
 0002:0000479c       ??_C@_1M@DDNJFGID@?$AAf?$AAi?$AA?9?$AAF?$AAI@ 1002479c     libucrt:lcidtoname_downlevel.obj
 0002:000047a8       ??_C@_1M@GLIPPMAC@?$AAf?$AAr?$AA?9?$AAF?$AAR@ 100247a8     libucrt:lcidtoname_downlevel.obj
 0002:000047b4       ??_C@_1M@GFMCHPE@?$AAh?$AAe?$AA?9?$AAI?$AAL@ 100247b4     libucrt:lcidtoname_downlevel.obj
 0002:000047c0       ??_C@_1M@MHLPGNKM@?$AAh?$AAu?$AA?9?$AAH?$AAU@ 100247c0     libucrt:lcidtoname_downlevel.obj
 0002:000047cc       ??_C@_1M@LPDDNNPN@?$AAi?$AAs?$AA?9?$AAI?$AAS@ 100247cc     libucrt:lcidtoname_downlevel.obj
 0002:000047d8       ??_C@_1M@MADIPODN@?$AAi?$AAt?$AA?9?$AAI?$AAT@ 100247d8     libucrt:lcidtoname_downlevel.obj
 0002:000047e4       ??_C@_1M@IHBJJGG@?$AAn?$AAl?$AA?9?$AAN?$AAL@ 100247e4     libucrt:lcidtoname_downlevel.obj
 0002:000047f0       ??_C@_1M@EANAGDL@?$AAn?$AAb?$AA?9?$AAN?$AAO@ 100247f0     libucrt:lcidtoname_downlevel.obj
 0002:000047fc       ??_C@_1M@NEIEMEGP@?$AAp?$AAl?$AA?9?$AAP?$AAL@ 100247fc     libucrt:lcidtoname_downlevel.obj
 0002:00004808       ??_C@_1M@BOCFIGEP@?$AAp?$AAt?$AA?9?$AAB?$AAR@ 10024808     libucrt:lcidtoname_downlevel.obj
 0002:00004814       ??_C@_1M@IMPFOPBG@?$AAr?$AAo?$AA?9?$AAR?$AAO@ 10024814     libucrt:lcidtoname_downlevel.obj
 0002:00004820       ??_C@_1M@IDNNEJMM@?$AAr?$AAu?$AA?9?$AAR?$AAU@ 10024820     libucrt:lcidtoname_downlevel.obj
 0002:0000482c       ??_C@_1M@LILEEOGM@?$AAh?$AAr?$AA?9?$AAH?$AAR@ 1002482c     libucrt:lcidtoname_downlevel.obj
 0002:00004838       ??_C@_1M@FKIFEHPB@?$AAs?$AAk?$AA?9?$AAS?$AAK@ 10024838     libucrt:lcidtoname_downlevel.obj
 0002:00004844       ??_C@_1M@LJMAMNPJ@?$AAs?$AAq?$AA?9?$AAA?$AAL@ 10024844     libucrt:lcidtoname_downlevel.obj
 0002:00004850       ??_C@_1M@GIAKDKJK@?$AAs?$AAv?$AA?9?$AAS?$AAE@ 10024850     libucrt:lcidtoname_downlevel.obj
 0002:0000485c       ??_C@_1M@MKJKIKCL@?$AAt?$AAh?$AA?9?$AAT?$AAH@ 1002485c     libucrt:lcidtoname_downlevel.obj
 0002:00004868       ??_C@_1M@MFLCCMPB@?$AAt?$AAr?$AA?9?$AAT?$AAR@ 10024868     libucrt:lcidtoname_downlevel.obj
 0002:00004874       ??_C@_1M@OIJHDKJN@?$AAu?$AAr?$AA?9?$AAP?$AAK@ 10024874     libucrt:lcidtoname_downlevel.obj
 0002:00004880       ??_C@_1M@LHIPCIEK@?$AAi?$AAd?$AA?9?$AAI?$AAD@ 10024880     libucrt:lcidtoname_downlevel.obj
 0002:0000488c       ??_C@_1M@MFMOBGI@?$AAu?$AAk?$AA?9?$AAU?$AAA@ 1002488c     libucrt:lcidtoname_downlevel.obj
 0002:00004898       ??_C@_1M@OBGLJIPL@?$AAb?$AAe?$AA?9?$AAB?$AAY@ 10024898     libucrt:lcidtoname_downlevel.obj
 0002:000048a4       ??_C@_1M@BCFAJEAD@?$AAs?$AAl?$AA?9?$AAS?$AAI@ 100248a4     libucrt:lcidtoname_downlevel.obj
 0002:000048b0       ??_C@_1M@FKFFEDDN@?$AAe?$AAt?$AA?9?$AAE?$AAE@ 100248b0     libucrt:lcidtoname_downlevel.obj
 0002:000048bc       ??_C@_1M@KGKKAACI@?$AAl?$AAv?$AA?9?$AAL?$AAV@ 100248bc     libucrt:lcidtoname_downlevel.obj
 0002:000048c8       ??_C@_1M@IFGBIJO@?$AAl?$AAt?$AA?9?$AAL?$AAT@ 100248c8     libucrt:lcidtoname_downlevel.obj
 0002:000048d4       ??_C@_1M@FGEAHEDM@?$AAf?$AAa?$AA?9?$AAI?$AAR@ 100248d4     libucrt:lcidtoname_downlevel.obj
 0002:000048e0       ??_C@_1M@KBMAIBFN@?$AAv?$AAi?$AA?9?$AAV?$AAN@ 100248e0     libucrt:lcidtoname_downlevel.obj
 0002:000048ec       ??_C@_1M@GPCBKDJK@?$AAh?$AAy?$AA?9?$AAA?$AAM@ 100248ec     libucrt:lcidtoname_downlevel.obj
 0002:000048f8       ??_C@_1BG@BECMDDJB@?$AAa?$AAz?$AA?9?$AAA?$AAZ?$AA?9?$AAL?$AAa?$AAt?$AAn@ 100248f8     libucrt:lcidtoname_downlevel.obj
 0002:00004910       ??_C@_1M@MAOFCAEA@?$AAe?$AAu?$AA?9?$AAE?$AAS@ 10024910     libucrt:lcidtoname_downlevel.obj
 0002:0000491c       ??_C@_1M@IGHABKPI@?$AAm?$AAk?$AA?9?$AAM?$AAK@ 1002491c     libucrt:lcidtoname_downlevel.obj
 0002:00004928       ??_C@_1M@IAIGNEJG@?$AAt?$AAn?$AA?9?$AAZ?$AAA@ 10024928     libucrt:lcidtoname_downlevel.obj
 0002:00004934       ??_C@_1M@IIJCOJFA@?$AAx?$AAh?$AA?9?$AAZ?$AAA@ 10024934     libucrt:lcidtoname_downlevel.obj
 0002:00004940       ??_C@_1M@LGPJHNJH@?$AAz?$AAu?$AA?9?$AAZ?$AAA@ 10024940     libucrt:lcidtoname_downlevel.obj
 0002:0000494c       ??_C@_1M@HOKAOIO@?$AAa?$AAf?$AA?9?$AAZ?$AAA@ 1002494c     libucrt:lcidtoname_downlevel.obj
 0002:00004958       ??_C@_1M@DPCLHLIE@?$AAk?$AAa?$AA?9?$AAG?$AAE@ 10024958     libucrt:lcidtoname_downlevel.obj
 0002:00004964       ??_C@_1M@BLKMHJBI@?$AAf?$AAo?$AA?9?$AAF?$AAO@ 10024964     libucrt:lcidtoname_downlevel.obj
 0002:00004970       ??_C@_1M@LGGJAPPB@?$AAh?$AAi?$AA?9?$AAI?$AAN@ 10024970     libucrt:lcidtoname_downlevel.obj
 0002:0000497c       ??_C@_1M@FIKPIHFE@?$AAm?$AAt?$AA?9?$AAM?$AAT@ 1002497c     libucrt:lcidtoname_downlevel.obj
 0002:00004988       ??_C@_1M@HEGGPBFA@?$AAs?$AAe?$AA?9?$AAN?$AAO@ 10024988     libucrt:lcidtoname_downlevel.obj
 0002:00004994       ??_C@_1M@EIBJEEPA@?$AAm?$AAs?$AA?9?$AAM?$AAY@ 10024994     libucrt:lcidtoname_downlevel.obj
 0002:000049a0       ??_C@_1M@FHLBGMPP@?$AAk?$AAk?$AA?9?$AAK?$AAZ@ 100249a0     libucrt:lcidtoname_downlevel.obj
 0002:000049ac       ??_C@_1M@NGJJLCGI@?$AAk?$AAy?$AA?9?$AAK?$AAG@ 100249ac     libucrt:lcidtoname_downlevel.obj
 0002:000049b8       ??_C@_1M@GIENNBFC@?$AAs?$AAw?$AA?9?$AAK?$AAE@ 100249b8     libucrt:lcidtoname_downlevel.obj
 0002:000049c4       ??_C@_1BG@NDGMJIMJ@?$AAu?$AAz?$AA?9?$AAU?$AAZ?$AA?9?$AAL?$AAa?$AAt?$AAn@ 100249c4     libucrt:lcidtoname_downlevel.obj
 0002:000049dc       ??_C@_1M@IDCCIHBC@?$AAt?$AAt?$AA?9?$AAR?$AAU@ 100249dc     libucrt:lcidtoname_downlevel.obj
 0002:000049e8       ??_C@_1M@LOICPMOJ@?$AAb?$AAn?$AA?9?$AAI?$AAN@ 100249e8     libucrt:lcidtoname_downlevel.obj
 0002:000049f4       ??_C@_1M@KPKKNEAH@?$AAp?$AAa?$AA?9?$AAI?$AAN@ 100249f4     libucrt:lcidtoname_downlevel.obj
 0002:00004a00       ??_C@_1M@PJGPPBOG@?$AAg?$AAu?$AA?9?$AAI?$AAN@ 10024a00     libucrt:lcidtoname_downlevel.obj
 0002:00004a0c       ??_C@_1M@KMKMOPHI@?$AAt?$AAa?$AA?9?$AAI?$AAN@ 10024a0c     libucrt:lcidtoname_downlevel.obj
 0002:00004a18       ??_C@_1M@KFEHEPAC@?$AAt?$AAe?$AA?9?$AAI?$AAN@ 10024a18     libucrt:lcidtoname_downlevel.obj
 0002:00004a24       ??_C@_1M@CDCLMGHI@?$AAk?$AAn?$AA?9?$AAI?$AAN@ 10024a24     libucrt:lcidtoname_downlevel.obj
 0002:00004a30       ??_C@_1M@MIODLDKF@?$AAm?$AAl?$AA?9?$AAI?$AAN@ 10024a30     libucrt:lcidtoname_downlevel.obj
 0002:00004a3c       ??_C@_1M@PBIEACPO@?$AAm?$AAr?$AA?9?$AAI?$AAN@ 10024a3c     libucrt:lcidtoname_downlevel.obj
 0002:00004a48       ??_C@_1M@NIDEAGPH@?$AAs?$AAa?$AA?9?$AAI?$AAN@ 10024a48     libucrt:lcidtoname_downlevel.obj
 0002:00004a54       ??_C@_1M@FHIHCBIO@?$AAm?$AAn?$AA?9?$AAM?$AAN@ 10024a54     libucrt:lcidtoname_downlevel.obj
 0002:00004a60       ??_C@_1M@JAIJPENP@?$AAc?$AAy?$AA?9?$AAG?$AAB@ 10024a60     libucrt:lcidtoname_downlevel.obj
 0002:00004a6c       ??_C@_1M@PHGFBEPN@?$AAg?$AAl?$AA?9?$AAE?$AAS@ 10024a6c     libucrt:lcidtoname_downlevel.obj
 0002:00004a78       ??_C@_1O@KPIPDNCP@?$AAk?$AAo?$AAk?$AA?9?$AAI?$AAN@ 10024a78     libucrt:lcidtoname_downlevel.obj
 0002:00004a88       ??_C@_1O@KNHJLDJA@?$AAs?$AAy?$AAr?$AA?9?$AAS?$AAY@ 10024a88     libucrt:lcidtoname_downlevel.obj
 0002:00004a98       ??_C@_1O@MKEKBLAH@?$AAd?$AAi?$AAv?$AA?9?$AAM?$AAV@ 10024a98     libucrt:lcidtoname_downlevel.obj
 0002:00004aa8       ??_C@_1O@OHDCKDDF@?$AAq?$AAu?$AAz?$AA?9?$AAB?$AAO@ 10024aa8     libucrt:lcidtoname_downlevel.obj
 0002:00004ab8       ??_C@_1M@LEPJNLFD@?$AAn?$AAs?$AA?9?$AAZ?$AAA@ 10024ab8     libucrt:lcidtoname_downlevel.obj
 0002:00004ac4       ??_C@_1M@OMLEIIJB@?$AAm?$AAi?$AA?9?$AAN?$AAZ@ 10024ac4     libucrt:lcidtoname_downlevel.obj
 0002:00004ad0       ??_C@_1M@PMPEAILG@?$AAa?$AAr?$AA?9?$AAI?$AAQ@ 10024ad0     libucrt:lcidtoname_downlevel.obj
 0002:00004adc       ??_C@_1M@CNKPNOEE@?$AAd?$AAe?$AA?9?$AAC?$AAH@ 10024adc     libucrt:lcidtoname_downlevel.obj
 0002:00004ae8       ??_C@_1M@LKMGMLKO@?$AAe?$AAn?$AA?9?$AAG?$AAB@ 10024ae8     libucrt:lcidtoname_downlevel.obj
 0002:00004af4       ??_C@_1M@PGKJFFGL@?$AAe?$AAs?$AA?9?$AAM?$AAX@ 10024af4     libucrt:lcidtoname_downlevel.obj
 0002:00004b00       ??_C@_1M@DNNANBDC@?$AAf?$AAr?$AA?9?$AAB?$AAE@ 10024b00     libucrt:lcidtoname_downlevel.obj
 0002:00004b0c       ??_C@_1M@HLGMDFHM@?$AAi?$AAt?$AA?9?$AAC?$AAH@ 10024b0c     libucrt:lcidtoname_downlevel.obj
 0002:00004b18       ??_C@_1M@CLLBGJH@?$AAn?$AAl?$AA?9?$AAB?$AAE@ 10024b18     libucrt:lcidtoname_downlevel.obj
 0002:00004b24       ??_C@_1M@BODBOGLF@?$AAn?$AAn?$AA?9?$AAN?$AAO@ 10024b24     libucrt:lcidtoname_downlevel.obj
 0002:00004b30       ??_C@_1M@HFFAHKAD@?$AAp?$AAt?$AA?9?$AAP?$AAT@ 10024b30     libucrt:lcidtoname_downlevel.obj
 0002:00004b3c       ??_C@_1BG@LNOAKHIE@?$AAs?$AAr?$AA?9?$AAS?$AAP?$AA?9?$AAL?$AAa?$AAt?$AAn@ 10024b3c     libucrt:lcidtoname_downlevel.obj
 0002:00004b54       ??_C@_1M@HBMHBGAK@?$AAs?$AAv?$AA?9?$AAF?$AAI@ 10024b54     libucrt:lcidtoname_downlevel.obj
 0002:00004b60       ??_C@_1BG@DGCJGJBE@?$AAa?$AAz?$AA?9?$AAA?$AAZ?$AA?9?$AAC?$AAy?$AAr?$AAl@ 10024b60     libucrt:lcidtoname_downlevel.obj
 0002:00004b78       ??_C@_1M@KEJDAAHB@?$AAs?$AAe?$AA?9?$AAS?$AAE@ 10024b78     libucrt:lcidtoname_downlevel.obj
 0002:00004b84       ??_C@_1M@HEIBJJAD@?$AAm?$AAs?$AA?9?$AAB?$AAN@ 10024b84     libucrt:lcidtoname_downlevel.obj
 0002:00004b90       ??_C@_1BG@PBGJMCEM@?$AAu?$AAz?$AA?9?$AAU?$AAZ?$AA?9?$AAC?$AAy?$AAr?$AAl@ 10024b90     libucrt:lcidtoname_downlevel.obj
 0002:00004ba8       ??_C@_1O@LAOBCMDF@?$AAq?$AAu?$AAz?$AA?9?$AAE?$AAC@ 10024ba8     libucrt:lcidtoname_downlevel.obj
 0002:00004bb8       ??_C@_1M@POEEMAIO@?$AAa?$AAr?$AA?9?$AAE?$AAG@ 10024bb8     libucrt:lcidtoname_downlevel.obj
 0002:00004bc4       ??_C@_1M@EFAKDEDL@?$AAz?$AAh?$AA?9?$AAH?$AAK@ 10024bc4     libucrt:lcidtoname_downlevel.obj
 0002:00004bd0       ??_C@_1M@HKKIJHGI@?$AAd?$AAe?$AA?9?$AAA?$AAT@ 10024bd0     libucrt:lcidtoname_downlevel.obj
 0002:00004bdc       ??_C@_1M@KBFBEHJF@?$AAe?$AAn?$AA?9?$AAA?$AAU@ 10024bdc     libucrt:lcidtoname_downlevel.obj
 0002:00004be8       ??_C@_1M@MNPLFAAH@?$AAe?$AAs?$AA?9?$AAE?$AAS@ 10024be8     libucrt:lcidtoname_downlevel.obj
 0002:00004bf4       ??_C@_1M@HJOOJFMA@?$AAf?$AAr?$AA?9?$AAC?$AAA@ 10024bf4     libucrt:lcidtoname_downlevel.obj
 0002:00004c00       ??_C@_1BG@JPOFPNAB@?$AAs?$AAr?$AA?9?$AAS?$AAP?$AA?9?$AAC?$AAy?$AAr?$AAl@ 10024c00     libucrt:lcidtoname_downlevel.obj
 0002:00004c18       ??_C@_1M@LNFOCMOB@?$AAs?$AAe?$AA?9?$AAF?$AAI@ 10024c18     libucrt:lcidtoname_downlevel.obj
 0002:00004c24       ??_C@_1O@MGJBOAMB@?$AAq?$AAu?$AAz?$AA?9?$AAP?$AAE@ 10024c24     libucrt:lcidtoname_downlevel.obj
 0002:00004c34       ??_C@_1M@GJINLBOK@?$AAa?$AAr?$AA?9?$AAL?$AAY@ 10024c34     libucrt:lcidtoname_downlevel.obj
 0002:00004c40       ??_C@_1M@GGMNHJNL@?$AAz?$AAh?$AA?9?$AAS?$AAG@ 10024c40     libucrt:lcidtoname_downlevel.obj
 0002:00004c4c       ??_C@_1M@HOIKODND@?$AAd?$AAe?$AA?9?$AAL?$AAU@ 10024c4c     libucrt:lcidtoname_downlevel.obj
 0002:00004c58       ??_C@_1M@DDOCCGFG@?$AAe?$AAn?$AA?9?$AAC?$AAA@ 10024c58     libucrt:lcidtoname_downlevel.obj
 0002:00004c64       ??_C@_1M@BNOEMJLF@?$AAe?$AAs?$AA?9?$AAG?$AAT@ 10024c64     libucrt:lcidtoname_downlevel.obj
 0002:00004c70       ??_C@_1M@EOGNKEK@?$AAf?$AAr?$AA?9?$AAC?$AAH@ 10024c70     libucrt:lcidtoname_downlevel.obj
 0002:00004c7c       ??_C@_1M@FLIDJFHL@?$AAh?$AAr?$AA?9?$AAB?$AAA@ 10024c7c     libucrt:lcidtoname_downlevel.obj
 0002:00004c88       ??_C@_1O@FMCELNAJ@?$AAs?$AAm?$AAj?$AA?9?$AAN?$AAO@ 10024c88     libucrt:lcidtoname_downlevel.obj
 0002:00004c98       ??_C@_1M@JHGLJMGJ@?$AAa?$AAr?$AA?9?$AAD?$AAZ@ 10024c98     libucrt:lcidtoname_downlevel.obj
 0002:00004ca4       ??_C@_1M@JKKFDCNP@?$AAz?$AAh?$AA?9?$AAM?$AAO@ 10024ca4     libucrt:lcidtoname_downlevel.obj
 0002:00004cb0       ??_C@_1M@GEEFALPE@?$AAd?$AAe?$AA?9?$AAL?$AAI@ 10024cb0     libucrt:lcidtoname_downlevel.obj
 0002:00004cbc       ??_C@_1M@IGEOFBG@?$AAe?$AAn?$AA?9?$AAN?$AAZ@ 10024cbc     libucrt:lcidtoname_downlevel.obj
 0002:00004cc8       ??_C@_1M@KDBONEHP@?$AAe?$AAs?$AA?9?$AAC?$AAR@ 10024cc8     libucrt:lcidtoname_downlevel.obj
 0002:00004cd4       ??_C@_1M@FHMDOHNN@?$AAf?$AAr?$AA?9?$AAL?$AAU@ 10024cd4     libucrt:lcidtoname_downlevel.obj
 0002:00004ce0       ??_C@_1BG@NFKKMAFG@?$AAb?$AAs?$AA?9?$AAB?$AAA?$AA?9?$AAL?$AAa?$AAt?$AAn@ 10024ce0     libucrt:lcidtoname_downlevel.obj
 0002:00004cf8       ??_C@_1O@IMNBEMCI@?$AAs?$AAm?$AAj?$AA?9?$AAS?$AAE@ 10024cf8     libucrt:lcidtoname_downlevel.obj
 0002:00004d08       ??_C@_1M@DHHMBNDP@?$AAa?$AAr?$AA?9?$AAM?$AAA@ 10024d08     libucrt:lcidtoname_downlevel.obj
 0002:00004d14       ??_C@_1M@BNBLJCGH@?$AAe?$AAn?$AA?9?$AAI?$AAE@ 10024d14     libucrt:lcidtoname_downlevel.obj
 0002:00004d20       ??_C@_1M@GEPAFMDL@?$AAe?$AAs?$AA?9?$AAP?$AAA@ 10024d20     libucrt:lcidtoname_downlevel.obj
 0002:00004d2c       ??_C@_1M@OJONDMDL@?$AAf?$AAr?$AA?9?$AAM?$AAC@ 10024d2c     libucrt:lcidtoname_downlevel.obj
 0002:00004d38       ??_C@_1BG@OBCNFJB@?$AAs?$AAr?$AA?9?$AAB?$AAA?$AA?9?$AAL?$AAa?$AAt?$AAn@ 10024d38     libucrt:lcidtoname_downlevel.obj
 0002:00004d50       ??_C@_1O@KEMEEGPO@?$AAs?$AAm?$AAa?$AA?9?$AAN?$AAO@ 10024d50     libucrt:lcidtoname_downlevel.obj
 0002:00004d60       ??_C@_1M@ELMGFODK@?$AAa?$AAr?$AA?9?$AAT?$AAN@ 10024d60     libucrt:lcidtoname_downlevel.obj
 0002:00004d6c       ??_C@_1M@BHDLHFAF@?$AAe?$AAn?$AA?9?$AAZ?$AAA@ 10024d6c     libucrt:lcidtoname_downlevel.obj
 0002:00004d78       ??_C@_1M@BMGIGLIF@?$AAe?$AAs?$AA?9?$AAD?$AAO@ 10024d78     libucrt:lcidtoname_downlevel.obj
 0002:00004d84       ??_C@_1BG@CMBHIPBE@?$AAs?$AAr?$AA?9?$AAB?$AAA?$AA?9?$AAC?$AAy?$AAr?$AAl@ 10024d84     libucrt:lcidtoname_downlevel.obj
 0002:00004d9c       ??_C@_1O@HEDBLHNP@?$AAs?$AAm?$AAa?$AA?9?$AAS?$AAE@ 10024d9c     libucrt:lcidtoname_downlevel.obj
 0002:00004dac       ??_C@_1M@DAGCADIM@?$AAa?$AAr?$AA?9?$AAO?$AAM@ 10024dac     libucrt:lcidtoname_downlevel.obj
 0002:00004db8       ??_C@_1M@FODLMICG@?$AAe?$AAn?$AA?9?$AAJ?$AAM@ 10024db8     libucrt:lcidtoname_downlevel.obj
 0002:00004dc4       ??_C@_1M@DNMLCIHB@?$AAe?$AAs?$AA?9?$AAV?$AAE@ 10024dc4     libucrt:lcidtoname_downlevel.obj
 0002:00004dd0       ??_C@_1O@EOKHMKJK@?$AAs?$AAm?$AAs?$AA?9?$AAF?$AAI@ 10024dd0     libucrt:lcidtoname_downlevel.obj
 0002:00004de0       ??_C@_1M@CAFJMKOF@?$AAa?$AAr?$AA?9?$AAY?$AAE@ 10024de0     libucrt:lcidtoname_downlevel.obj
 0002:00004dec       ??_C@_1M@CBFHIJLI@?$AAe?$AAn?$AA?9?$AAC?$AAB@ 10024dec     libucrt:lcidtoname_downlevel.obj
 0002:00004df8       ??_C@_1M@BGNFLDN@?$AAe?$AAs?$AA?9?$AAC?$AAO@ 10024df8     libucrt:lcidtoname_downlevel.obj
 0002:00004e04       ??_C@_1O@JMPHMAMC@?$AAs?$AAm?$AAn?$AA?9?$AAF?$AAI@ 10024e04     libucrt:lcidtoname_downlevel.obj
 0002:00004e14       ??_C@_1M@JLANABKE@?$AAa?$AAr?$AA?9?$AAS?$AAY@ 10024e14     libucrt:lcidtoname_downlevel.obj
 0002:00004e20       ??_C@_1M@HPKGCFGN@?$AAe?$AAn?$AA?9?$AAB?$AAZ@ 10024e20     libucrt:lcidtoname_downlevel.obj
 0002:00004e2c       ??_C@_1M@OLJCMLGM@?$AAe?$AAs?$AA?9?$AAP?$AAE@ 10024e2c     libucrt:lcidtoname_downlevel.obj
 0002:00004e38       ??_C@_1M@MKKGFKLE@?$AAa?$AAr?$AA?9?$AAJ?$AAO@ 10024e38     libucrt:lcidtoname_downlevel.obj
 0002:00004e44       ??_C@_1M@EKPGLDNI@?$AAe?$AAn?$AA?9?$AAT?$AAT@ 10024e44     libucrt:lcidtoname_downlevel.obj
 0002:00004e50       ??_C@_1M@OONGHFHE@?$AAe?$AAs?$AA?9?$AAA?$AAR@ 10024e50     libucrt:lcidtoname_downlevel.obj
 0002:00004e5c       ??_C@_1M@OOJFGBHE@?$AAa?$AAr?$AA?9?$AAL?$AAB@ 10024e5c     libucrt:lcidtoname_downlevel.obj
 0002:00004e68       ??_C@_1M@GCEJHNEG@?$AAe?$AAn?$AA?9?$AAZ?$AAW@ 10024e68     libucrt:lcidtoname_downlevel.obj
 0002:00004e74       ??_C@_1M@JNOCAHJI@?$AAe?$AAs?$AA?9?$AAE?$AAC@ 10024e74     libucrt:lcidtoname_downlevel.obj
 0002:00004e80       ??_C@_1M@JEFHPGGB@?$AAa?$AAr?$AA?9?$AAK?$AAW@ 10024e80     libucrt:lcidtoname_downlevel.obj
 0002:00004e8c       ??_C@_1M@MLKIBJOJ@?$AAe?$AAn?$AA?9?$AAP?$AAH@ 10024e8c     libucrt:lcidtoname_downlevel.obj
 0002:00004e98       ??_C@_1M@BDNIPEND@?$AAe?$AAs?$AA?9?$AAC?$AAL@ 10024e98     libucrt:lcidtoname_downlevel.obj
 0002:00004ea4       ??_C@_1M@MPNMEKBD@?$AAa?$AAr?$AA?9?$AAA?$AAE@ 10024ea4     libucrt:lcidtoname_downlevel.obj
 0002:00004eb0       ??_C@_1M@KBJALCPI@?$AAe?$AAs?$AA?9?$AAU?$AAY@ 10024eb0     libucrt:lcidtoname_downlevel.obj
 0002:00004ebc       ??_C@_1M@LLCCOAGA@?$AAa?$AAr?$AA?9?$AAB?$AAH@ 10024ebc     libucrt:lcidtoname_downlevel.obj
 0002:00004ec8       ??_C@_1M@PBFNCDEL@?$AAe?$AAs?$AA?9?$AAP?$AAY@ 10024ec8     libucrt:lcidtoname_downlevel.obj
 0002:00004ed4       ??_C@_1M@EDGINPNP@?$AAa?$AAr?$AA?9?$AAQ?$AAA@ 10024ed4     libucrt:lcidtoname_downlevel.obj
 0002:00004ee0       ??_C@_1M@MKDBIIJI@?$AAe?$AAs?$AA?9?$AAB?$AAO@ 10024ee0     libucrt:lcidtoname_downlevel.obj
 0002:00004eec       ??_C@_1M@CPKKEBLD@?$AAe?$AAs?$AA?9?$AAS?$AAV@ 10024eec     libucrt:lcidtoname_downlevel.obj
 0002:00004ef8       ??_C@_1M@NDBGMMJL@?$AAe?$AAs?$AA?9?$AAH?$AAN@ 10024ef8     libucrt:lcidtoname_downlevel.obj
 0002:00004f04       ??_C@_1M@JIJIBHDP@?$AAe?$AAs?$AA?9?$AAN?$AAI@ 10024f04     libucrt:lcidtoname_downlevel.obj
 0002:00004f10       ??_C@_1M@CGFMKEEK@?$AAe?$AAs?$AA?9?$AAP?$AAR@ 10024f10     libucrt:lcidtoname_downlevel.obj
 0002:00004f1c       ??_C@_1O@ICJHKIIK@?$AAz?$AAh?$AA?9?$AAC?$AAH?$AAT@ 10024f1c     libucrt:lcidtoname_downlevel.obj
 0002:00004f2c       ??_C@_15CLNEJCE@?$AAs?$AAr@ 10024f2c     libucrt:lcidtoname_downlevel.obj
 0002:00005658       ??_C@_1M@KAHEKEIG@?$AAa?$AAf?$AA?9?$AAz?$AAa@ 10025658     libucrt:lcidtoname_downlevel.obj
 0002:00005664       ??_C@_1M@GIECOABL@?$AAa?$AAr?$AA?9?$AAa?$AAe@ 10025664     libucrt:lcidtoname_downlevel.obj
 0002:00005670       ??_C@_1M@BMLMEKGI@?$AAa?$AAr?$AA?9?$AAb?$AAh@ 10025670     libucrt:lcidtoname_downlevel.obj
 0002:0000567c       ??_C@_1M@DAPFDGGB@?$AAa?$AAr?$AA?9?$AAd?$AAz@ 1002567c     libucrt:lcidtoname_downlevel.obj
 0002:00005688       ??_C@_1M@FJNKGKIG@?$AAa?$AAr?$AA?9?$AAe?$AAg@ 10025688     libucrt:lcidtoname_downlevel.obj
 0002:00005694       ??_C@_1M@FLGKKCLO@?$AAa?$AAr?$AA?9?$AAi?$AAq@ 10025694     libucrt:lcidtoname_downlevel.obj
 0002:000056a0       ??_C@_1M@GNDIPALM@?$AAa?$AAr?$AA?9?$AAj?$AAo@ 100256a0     libucrt:lcidtoname_downlevel.obj
 0002:000056ac       ??_C@_1M@DDMJFMGJ@?$AAa?$AAr?$AA?9?$AAk?$AAw@ 100256ac     libucrt:lcidtoname_downlevel.obj
 0002:000056b8       ??_C@_1M@EJALMLHM@?$AAa?$AAr?$AA?9?$AAl?$AAb@ 100256b8     libucrt:lcidtoname_downlevel.obj
 0002:000056c4       ??_C@_1M@MOBDBLOC@?$AAa?$AAr?$AA?9?$AAl?$AAy@ 100256c4     libucrt:lcidtoname_downlevel.obj
 0002:000056d0       ??_C@_1M@JAOCLHDH@?$AAa?$AAr?$AA?9?$AAm?$AAa@ 100256d0     libucrt:lcidtoname_downlevel.obj
 0002:000056dc       ??_C@_1M@JHPMKJIE@?$AAa?$AAr?$AA?9?$AAo?$AAm@ 100256dc     libucrt:lcidtoname_downlevel.obj
 0002:000056e8       ??_C@_1M@OEPGHFNH@?$AAa?$AAr?$AA?9?$AAq?$AAa@ 100256e8     libucrt:lcidtoname_downlevel.obj
 0002:000056f4       ??_C@_1M@KJDONENM@?$AAa?$AAr?$AA?9?$AAs?$AAa@ 100256f4     libucrt:lcidtoname_downlevel.obj
 0002:00005700       ??_C@_1M@DMJDKLKM@?$AAa?$AAr?$AA?9?$AAs?$AAy@ 10025700     libucrt:lcidtoname_downlevel.obj
 0002:0000570c       ??_C@_1M@OMFIPEDC@?$AAa?$AAr?$AA?9?$AAt?$AAn@ 1002570c     libucrt:lcidtoname_downlevel.obj
 0002:00005718       ??_C@_1M@IHMHGAON@?$AAa?$AAr?$AA?9?$AAy?$AAe@ 10025718     libucrt:lcidtoname_downlevel.obj
 0002:00005724       ??_C@_1BG@KDCPGJGB@?$AAa?$AAz?$AA?9?$AAa?$AAz?$AA?9?$AAc?$AAy?$AAr?$AAl@ 10025724     libucrt:lcidtoname_downlevel.obj
 0002:0000573c       ??_C@_1BG@IBCKDDOE@?$AAa?$AAz?$AA?9?$AAa?$AAz?$AA?9?$AAl?$AAa?$AAt?$AAn@ 1002573c     libucrt:lcidtoname_downlevel.obj
 0002:00005754       ??_C@_1M@EGPFDCPD@?$AAb?$AAe?$AA?9?$AAb?$AAy@ 10025754     libucrt:lcidtoname_downlevel.obj
 0002:00005760       ??_C@_1M@PCMGMCGC@?$AAb?$AAg?$AA?9?$AAb?$AAg@ 10025760     libucrt:lcidtoname_downlevel.obj
 0002:0000576c       ??_C@_1M@BJBMFGOB@?$AAb?$AAn?$AA?9?$AAi?$AAn@ 1002576c     libucrt:lcidtoname_downlevel.obj
 0002:00005778       ??_C@_1BG@EAKMMACD@?$AAb?$AAs?$AA?9?$AAb?$AAa?$AA?9?$AAl?$AAa?$AAt?$AAn@ 10025778     libucrt:lcidtoname_downlevel.obj
 0002:00005790       ??_C@_1M@KGADAODK@?$AAc?$AAa?$AA?9?$AAe?$AAs@ 10025790     libucrt:lcidtoname_downlevel.obj
 0002:0000579c       ??_C@_1M@COAJPDHI@?$AAc?$AAs?$AA?9?$AAc?$AAz@ 1002579c     libucrt:lcidtoname_downlevel.obj
 0002:000057a8       ??_C@_1M@DHBHFONH@?$AAc?$AAy?$AA?9?$AAg?$AAb@ 100257a8     libucrt:lcidtoname_downlevel.obj
 0002:000057b4       ??_C@_1M@IMGKELGA@?$AAd?$AAa?$AA?9?$AAd?$AAk@ 100257b4     libucrt:lcidtoname_downlevel.obj
 0002:000057c0       ??_C@_1M@NNDGDNGA@?$AAd?$AAe?$AA?9?$AAa?$AAt@ 100257c0     libucrt:lcidtoname_downlevel.obj
 0002:000057cc       ??_C@_1M@IKDBHEEM@?$AAd?$AAe?$AA?9?$AAc?$AAh@ 100257cc     libucrt:lcidtoname_downlevel.obj
 0002:000057d8       ??_C@_1M@GFFOJMCJ@?$AAd?$AAe?$AA?9?$AAd?$AAe@ 100257d8     libucrt:lcidtoname_downlevel.obj
 0002:000057e4       ??_C@_1M@MDNLKBPM@?$AAd?$AAe?$AA?9?$AAl?$AAi@ 100257e4     libucrt:lcidtoname_downlevel.obj
 0002:000057f0       ??_C@_1M@NJBEEJNL@?$AAd?$AAe?$AA?9?$AAl?$AAu@ 100257f0     libucrt:lcidtoname_downlevel.obj
 0002:000057fc       ??_C@_1O@GNNELBAP@?$AAd?$AAi?$AAv?$AA?9?$AAm?$AAv@ 100257fc     libucrt:lcidtoname_downlevel.obj
 0002:0000580c       ??_C@_1M@EJLEOGAE@?$AAe?$AAl?$AA?9?$AAg?$AAr@ 1002580c     libucrt:lcidtoname_downlevel.obj
 0002:00005818       ??_C@_1M@GMPONJN@?$AAe?$AAn?$AA?9?$AAa?$AAu@ 10025818     libucrt:lcidtoname_downlevel.obj
 0002:00005824       ??_C@_1M@NIDIIPGF@?$AAe?$AAn?$AA?9?$AAb?$AAz@ 10025824     libucrt:lcidtoname_downlevel.obj
 0002:00005830       ??_C@_1M@JEHMIMFO@?$AAe?$AAn?$AA?9?$AAc?$AAa@ 10025830     libucrt:lcidtoname_downlevel.obj
 0002:0000583c       ??_C@_1M@IGMJCDLA@?$AAe?$AAn?$AA?9?$AAc?$AAb@ 1002583c     libucrt:lcidtoname_downlevel.obj
 0002:00005848       ??_C@_1M@BNFIGBKG@?$AAe?$AAn?$AA?9?$AAg?$AAb@ 10025848     libucrt:lcidtoname_downlevel.obj
 0002:00005854       ??_C@_1M@LKIFDIGP@?$AAe?$AAn?$AA?9?$AAi?$AAe@ 10025854     libucrt:lcidtoname_downlevel.obj
 0002:00005860       ??_C@_1M@PJKFGCCO@?$AAe?$AAn?$AA?9?$AAj?$AAm@ 10025860     libucrt:lcidtoname_downlevel.obj
 0002:0000586c       ??_C@_1M@KPPKEPBO@?$AAe?$AAn?$AA?9?$AAn?$AAz@ 1002586c     libucrt:lcidtoname_downlevel.obj
 0002:00005878       ??_C@_1M@GMDGLDOB@?$AAe?$AAn?$AA?9?$AAp?$AAh@ 10025878     libucrt:lcidtoname_downlevel.obj
 0002:00005884       ??_C@_1M@ONGIBJNA@?$AAe?$AAn?$AA?9?$AAt?$AAt@ 10025884     libucrt:lcidtoname_downlevel.obj
 0002:00005890       ??_C@_1M@LLODPCMM@?$AAe?$AAn?$AA?9?$AAu?$AAs@ 10025890     libucrt:lcidtoname_downlevel.obj
 0002:0000589c       ??_C@_1M@LAKFNPAN@?$AAe?$AAn?$AA?9?$AAz?$AAa@ 1002589c     libucrt:lcidtoname_downlevel.obj
 0002:000058a8       ??_C@_1M@MFNHNHEO@?$AAe?$AAn?$AA?9?$AAz?$AAw@ 100258a8     libucrt:lcidtoname_downlevel.obj
 0002:000058b4       ??_C@_1M@EJEINPHM@?$AAe?$AAs?$AA?9?$AAa?$AAr@ 100258b4     libucrt:lcidtoname_downlevel.obj
 0002:000058c0       ??_C@_1M@GNKPCCJA@?$AAe?$AAs?$AA?9?$AAb?$AAo@ 100258c0     libucrt:lcidtoname_downlevel.obj
 0002:000058cc       ??_C@_1M@LEEGFONL@?$AAe?$AAs?$AA?9?$AAc?$AAl@ 100258cc     libucrt:lcidtoname_downlevel.obj
 0002:000058d8       ??_C@_1M@KGPDPBDF@?$AAe?$AAs?$AA?9?$AAc?$AAo@ 100258d8     libucrt:lcidtoname_downlevel.obj
 0002:000058e4       ??_C@_1M@EIAHOHH@?$AAe?$AAs?$AA?9?$AAc?$AAr@ 100258e4     libucrt:lcidtoname_downlevel.obj
 0002:000058f0       ??_C@_1M@LLPGMBIN@?$AAe?$AAs?$AA?9?$AAd?$AAo@ 100258f0     libucrt:lcidtoname_downlevel.obj
 0002:000058fc       ??_C@_1M@DKHMKNJA@?$AAe?$AAs?$AA?9?$AAe?$AAc@ 100258fc     libucrt:lcidtoname_downlevel.obj
 0002:00005908       ??_C@_1M@GKGFPKAP@?$AAe?$AAs?$AA?9?$AAe?$AAs@ 10025908     libucrt:lcidtoname_downlevel.obj
 0002:00005914       ??_C@_1M@LKHKGDLN@?$AAe?$AAs?$AA?9?$AAg?$AAt@ 10025914     libucrt:lcidtoname_downlevel.obj
 0002:00005920       ??_C@_1M@HEIIGGJD@?$AAe?$AAs?$AA?9?$AAh?$AAn@ 10025920     libucrt:lcidtoname_downlevel.obj
 0002:0000592c       ??_C@_1M@FBDHPPGD@?$AAe?$AAs?$AA?9?$AAm?$AAx@ 1002592c     libucrt:lcidtoname_downlevel.obj
 0002:00005938       ??_C@_1M@DPAGLNDH@?$AAe?$AAs?$AA?9?$AAn?$AAi@ 10025938     libucrt:lcidtoname_downlevel.obj
 0002:00005944       ??_C@_1M@MDGOPGDD@?$AAe?$AAs?$AA?9?$AAp?$AAa@ 10025944     libucrt:lcidtoname_downlevel.obj
 0002:00005950       ??_C@_1M@EMAMGBGE@?$AAe?$AAs?$AA?9?$AAp?$AAe@ 10025950     libucrt:lcidtoname_downlevel.obj
 0002:0000595c       ??_C@_1M@IBMCAOEC@?$AAe?$AAs?$AA?9?$AAp?$AAr@ 1002595c     libucrt:lcidtoname_downlevel.obj
 0002:00005968       ??_C@_1M@FGMDIJED@?$AAe?$AAs?$AA?9?$AAp?$AAy@ 10025968     libucrt:lcidtoname_downlevel.obj
 0002:00005974       ??_C@_1M@IIDEOLLL@?$AAe?$AAs?$AA?9?$AAs?$AAv@ 10025974     libucrt:lcidtoname_downlevel.obj
 0002:00005980       ??_C@_1M@GAOBIPA@?$AAe?$AAs?$AA?9?$AAu?$AAy@ 10025980     libucrt:lcidtoname_downlevel.obj
 0002:0000598c       ??_C@_1M@JKFFICHJ@?$AAe?$AAs?$AA?9?$AAv?$AAe@ 1002598c     libucrt:lcidtoname_downlevel.obj
 0002:00005998       ??_C@_1M@PNMLOJDF@?$AAe?$AAt?$AA?9?$AAe?$AAe@ 10025998     libucrt:lcidtoname_downlevel.obj
 0002:000059a4       ??_C@_1M@GHHLIKEI@?$AAe?$AAu?$AA?9?$AAe?$AAs@ 100259a4     libucrt:lcidtoname_downlevel.obj
 0002:000059b0       ??_C@_1M@PBNONODE@?$AAf?$AAa?$AA?9?$AAi?$AAr@ 100259b0     libucrt:lcidtoname_downlevel.obj
 0002:000059bc       ??_C@_1M@JEEHPMIL@?$AAf?$AAi?$AA?9?$AAf?$AAi@ 100259bc     libucrt:lcidtoname_downlevel.obj
 0002:000059c8       ??_C@_1M@LMDCNDBA@?$AAf?$AAo?$AA?9?$AAf?$AAo@ 100259c8     libucrt:lcidtoname_downlevel.obj
 0002:000059d4       ??_C@_1M@JKEOHLDK@?$AAf?$AAr?$AA?9?$AAb?$AAe@ 100259d4     libucrt:lcidtoname_downlevel.obj
 0002:000059e0       ??_C@_1M@NOHADPMI@?$AAf?$AAr?$AA?9?$AAc?$AAa@ 100259e0     libucrt:lcidtoname_downlevel.obj
 0002:000059ec       ??_C@_1M@KDHIHAEC@?$AAf?$AAr?$AA?9?$AAc?$AAh@ 100259ec     libucrt:lcidtoname_downlevel.obj
 0002:000059f8       ??_C@_1M@MMBBFGAK@?$AAf?$AAr?$AA?9?$AAf?$AAr@ 100259f8     libucrt:lcidtoname_downlevel.obj
 0002:00005a04       ??_C@_1M@PAFNENNF@?$AAf?$AAr?$AA?9?$AAl?$AAu@ 10025a04     libucrt:lcidtoname_downlevel.obj
 0002:00005a10       ??_C@_1M@EOHDJGDD@?$AAf?$AAr?$AA?9?$AAm?$AAc@ 10025a10     libucrt:lcidtoname_downlevel.obj
 0002:00005a1c       ??_C@_1M@FAPLLOPF@?$AAg?$AAl?$AA?9?$AAe?$AAs@ 10025a1c     libucrt:lcidtoname_downlevel.obj
 0002:00005a28       ??_C@_1M@FOPBFLOO@?$AAg?$AAu?$AA?9?$AAi?$AAn@ 10025a28     libucrt:lcidtoname_downlevel.obj
 0002:00005a34       ??_C@_1M@KBMCINPM@?$AAh?$AAe?$AA?9?$AAi?$AAl@ 10025a34     libucrt:lcidtoname_downlevel.obj
 0002:00005a40       ??_C@_1M@BBPHKFPJ@?$AAh?$AAi?$AA?9?$AAi?$AAn@ 10025a40     libucrt:lcidtoname_downlevel.obj
 0002:00005a4c       ??_C@_1M@PMBNDPHD@?$AAh?$AAr?$AA?9?$AAb?$AAa@ 10025a4c     libucrt:lcidtoname_downlevel.obj
 0002:00005a58       ??_C@_1M@BPCKOEGE@?$AAh?$AAr?$AA?9?$AAh?$AAr@ 10025a58     libucrt:lcidtoname_downlevel.obj
 0002:00005a64       ??_C@_1M@GACBMHKE@?$AAh?$AAu?$AA?9?$AAh?$AAu@ 10025a64     libucrt:lcidtoname_downlevel.obj
 0002:00005a70       ??_C@_1M@MILPAJJC@?$AAh?$AAy?$AA?9?$AAa?$AAm@ 10025a70     libucrt:lcidtoname_downlevel.obj
 0002:00005a7c       ??_C@_1M@BABBICEC@?$AAi?$AAd?$AA?9?$AAi?$AAd@ 10025a7c     libucrt:lcidtoname_downlevel.obj
 0002:00005a88       ??_C@_1M@BIKNHHPF@?$AAi?$AAs?$AA?9?$AAi?$AAs@ 10025a88     libucrt:lcidtoname_downlevel.obj
 0002:00005a94       ??_C@_1M@NMPCJPHE@?$AAi?$AAt?$AA?9?$AAc?$AAh@ 10025a94     libucrt:lcidtoname_downlevel.obj
 0002:00005aa0       ??_C@_1M@GHKGFEDF@?$AAi?$AAt?$AA?9?$AAi?$AAt@ 10025aa0     libucrt:lcidtoname_downlevel.obj
 0002:00005aac       ??_C@_1M@NIEJCJJA@?$AAj?$AAa?$AA?9?$AAj?$AAp@ 10025aac     libucrt:lcidtoname_downlevel.obj
 0002:00005ab8       ??_C@_1M@JILFNBIM@?$AAk?$AAa?$AA?9?$AAg?$AAe@ 10025ab8     libucrt:lcidtoname_downlevel.obj
 0002:00005ac4       ??_C@_1M@PACPMGPH@?$AAk?$AAk?$AA?9?$AAk?$AAz@ 10025ac4     libucrt:lcidtoname_downlevel.obj
 0002:00005ad0       ??_C@_1M@IELFGMHA@?$AAk?$AAn?$AA?9?$AAi?$AAn@ 10025ad0     libucrt:lcidtoname_downlevel.obj
 0002:00005adc       ??_C@_1O@IBBJHCH@?$AAk?$AAo?$AAk?$AA?9?$AAi?$AAn@ 10025adc     libucrt:lcidtoname_downlevel.obj
 0002:00005aec       ??_C@_1M@DMHAEOGC@?$AAk?$AAo?$AA?9?$AAk?$AAr@ 10025aec     libucrt:lcidtoname_downlevel.obj
 0002:00005af8       ??_C@_1M@HBAHBIGA@?$AAk?$AAy?$AA?9?$AAk?$AAg@ 10025af8     libucrt:lcidtoname_downlevel.obj
 0002:00005b04       ??_C@_1M@KPMILCJG@?$AAl?$AAt?$AA?9?$AAl?$AAt@ 10025b04     libucrt:lcidtoname_downlevel.obj
 0002:00005b10       ??_C@_1M@BDEKKCA@?$AAl?$AAv?$AA?9?$AAl?$AAv@ 10025b10     libucrt:lcidtoname_downlevel.obj
 0002:00005b1c       ??_C@_1M@ELCKCCJJ@?$AAm?$AAi?$AA?9?$AAn?$AAz@ 10025b1c     libucrt:lcidtoname_downlevel.obj
 0002:00005b28       ??_C@_1M@CBOOLAPA@?$AAm?$AAk?$AA?9?$AAm?$AAk@ 10025b28     libucrt:lcidtoname_downlevel.obj
 0002:00005b34       ??_C@_1M@GPHNBJKN@?$AAm?$AAl?$AA?9?$AAi?$AAn@ 10025b34     libucrt:lcidtoname_downlevel.obj
 0002:00005b40       ??_C@_1M@PABJILIG@?$AAm?$AAn?$AA?9?$AAm?$AAn@ 10025b40     libucrt:lcidtoname_downlevel.obj
 0002:00005b4c       ??_C@_1M@FGBKKIPG@?$AAm?$AAr?$AA?9?$AAi?$AAn@ 10025b4c     libucrt:lcidtoname_downlevel.obj
 0002:00005b58       ??_C@_1M@NDBPDDAL@?$AAm?$AAs?$AA?9?$AAb?$AAn@ 10025b58     libucrt:lcidtoname_downlevel.obj
 0002:00005b64       ??_C@_1M@OPIHOOPI@?$AAm?$AAs?$AA?9?$AAm?$AAy@ 10025b64     libucrt:lcidtoname_downlevel.obj
 0002:00005b70       ??_C@_1M@PPDBCNFM@?$AAm?$AAt?$AA?9?$AAm?$AAt@ 10025b70     libucrt:lcidtoname_downlevel.obj
 0002:00005b7c       ??_C@_1M@KDJDKMDD@?$AAn?$AAb?$AA?9?$AAn?$AAo@ 10025b7c     libucrt:lcidtoname_downlevel.obj
 0002:00005b88       ??_C@_1M@KFCFLMJP@?$AAn?$AAl?$AA?9?$AAb?$AAe@ 10025b88     libucrt:lcidtoname_downlevel.obj
 0002:00005b94       ??_C@_1M@KPOPDDGO@?$AAn?$AAl?$AA?9?$AAn?$AAl@ 10025b94     libucrt:lcidtoname_downlevel.obj
 0002:00005ba0       ??_C@_1M@LJKPEMLN@?$AAn?$AAn?$AA?9?$AAn?$AAo@ 10025ba0     libucrt:lcidtoname_downlevel.obj
 0002:00005bac       ??_C@_1M@BDGHHBFL@?$AAn?$AAs?$AA?9?$AAz?$AAa@ 10025bac     libucrt:lcidtoname_downlevel.obj
 0002:00005bb8       ??_C@_1M@IDEHOAP@?$AAp?$AAa?$AA?9?$AAi?$AAn@ 10025bb8     libucrt:lcidtoname_downlevel.obj
 0002:00005bc4       ??_C@_1M@HDBKGOGH@?$AAp?$AAl?$AA?9?$AAp?$AAl@ 10025bc4     libucrt:lcidtoname_downlevel.obj
 0002:00005bd0       ??_C@_1M@LJLLCMEH@?$AAp?$AAt?$AA?9?$AAb?$AAr@ 10025bd0     libucrt:lcidtoname_downlevel.obj
 0002:00005bdc       ??_C@_1M@NCMONAAL@?$AAp?$AAt?$AA?9?$AAp?$AAt@ 10025bdc     libucrt:lcidtoname_downlevel.obj
 0002:00005be8       ??_C@_1O@EAKMAJDN@?$AAq?$AAu?$AAz?$AA?9?$AAb?$AAo@ 10025be8     libucrt:lcidtoname_downlevel.obj
 0002:00005bf8       ??_C@_1O@BHHPIGDN@?$AAq?$AAu?$AAz?$AA?9?$AAe?$AAc@ 10025bf8     libucrt:lcidtoname_downlevel.obj
 0002:00005c08       ??_C@_1O@GBAPEKMJ@?$AAq?$AAu?$AAz?$AA?9?$AAp?$AAe@ 10025c08     libucrt:lcidtoname_downlevel.obj
 0002:00005c18       ??_C@_1M@CLGLEFBO@?$AAr?$AAo?$AA?9?$AAr?$AAo@ 10025c18     libucrt:lcidtoname_downlevel.obj
 0002:00005c24       ??_C@_1M@CEEDODME@?$AAr?$AAu?$AA?9?$AAr?$AAu@ 10025c24     libucrt:lcidtoname_downlevel.obj
 0002:00005c30       ??_C@_1M@HPKKKMPP@?$AAs?$AAa?$AA?9?$AAi?$AAn@ 10025c30     libucrt:lcidtoname_downlevel.obj
 0002:00005c3c       ??_C@_1M@BKMAIGOJ@?$AAs?$AAe?$AA?9?$AAf?$AAi@ 10025c3c     libucrt:lcidtoname_downlevel.obj
 0002:00005c48       ??_C@_1M@NDPIFLFI@?$AAs?$AAe?$AA?9?$AAn?$AAo@ 10025c48     libucrt:lcidtoname_downlevel.obj
 0002:00005c54       ??_C@_1M@DANKKHJ@?$AAs?$AAe?$AA?9?$AAs?$AAe@ 10025c54     libucrt:lcidtoname_downlevel.obj
 0002:00005c60       ??_C@_1M@PNBLONPJ@?$AAs?$AAk?$AA?9?$AAs?$AAk@ 10025c60     libucrt:lcidtoname_downlevel.obj
 0002:00005c6c       ??_C@_1M@LFMODOAL@?$AAs?$AAl?$AA?9?$AAs?$AAi@ 10025c6c     libucrt:lcidtoname_downlevel.obj
 0002:00005c78       ??_C@_1O@DFKOMPG@?$AAs?$AAm?$AAa?$AA?9?$AAn?$AAo@ 10025c78     libucrt:lcidtoname_downlevel.obj
 0002:00005c88       ??_C@_1O@NDKPBNNH@?$AAs?$AAm?$AAa?$AA?9?$AAs?$AAe@ 10025c88     libucrt:lcidtoname_downlevel.obj
 0002:00005c98       ??_C@_1O@PLLKBHAB@?$AAs?$AAm?$AAj?$AA?9?$AAn?$AAo@ 10025c98     libucrt:lcidtoname_downlevel.obj
 0002:00005ca8       ??_C@_1O@CLEPOGCA@?$AAs?$AAm?$AAj?$AA?9?$AAs?$AAe@ 10025ca8     libucrt:lcidtoname_downlevel.obj
 0002:00005cb8       ??_C@_1O@DLGJGKMK@?$AAs?$AAm?$AAn?$AA?9?$AAf?$AAi@ 10025cb8     libucrt:lcidtoname_downlevel.obj
 0002:00005cc8       ??_C@_1O@OJDJGAJC@?$AAs?$AAm?$AAs?$AA?9?$AAf?$AAi@ 10025cc8     libucrt:lcidtoname_downlevel.obj
 0002:00005cd8       ??_C@_1M@BOFOGHPB@?$AAs?$AAq?$AA?9?$AAa?$AAl@ 10025cd8     libucrt:lcidtoname_downlevel.obj
 0002:00005ce4       ??_C@_1BG@LJBBIPGB@?$AAs?$AAr?$AA?9?$AAb?$AAa?$AA?9?$AAc?$AAy?$AAr?$AAl@ 10025ce4     libucrt:lcidtoname_downlevel.obj
 0002:00005cfc       ??_C@_1BG@JLBENFOE@?$AAs?$AAr?$AA?9?$AAb?$AAa?$AA?9?$AAl?$AAa?$AAt?$AAn@ 10025cfc     libucrt:lcidtoname_downlevel.obj
 0002:00005d14       ??_C@_1BG@KODPNHE@?$AAs?$AAr?$AA?9?$AAs?$AAp?$AA?9?$AAc?$AAy?$AAr?$AAl@ 10025d14     libucrt:lcidtoname_downlevel.obj
 0002:00005d2c       ??_C@_1BG@CIOGKHPB@?$AAs?$AAr?$AA?9?$AAs?$AAp?$AA?9?$AAl?$AAa?$AAt?$AAn@ 10025d2c     libucrt:lcidtoname_downlevel.obj
 0002:00005d44       ??_C@_1M@NGFJLMAC@?$AAs?$AAv?$AA?9?$AAf?$AAi@ 10025d44     libucrt:lcidtoname_downlevel.obj
 0002:00005d50       ??_C@_1M@MPJEJAJC@?$AAs?$AAv?$AA?9?$AAs?$AAe@ 10025d50     libucrt:lcidtoname_downlevel.obj
 0002:00005d5c       ??_C@_1M@MPNDHLFK@?$AAs?$AAw?$AA?9?$AAk?$AAe@ 10025d5c     libucrt:lcidtoname_downlevel.obj
 0002:00005d68       ??_C@_1O@KOHBJJI@?$AAs?$AAy?$AAr?$AA?9?$AAs?$AAy@ 10025d68     libucrt:lcidtoname_downlevel.obj
 0002:00005d78       ??_C@_1M@LDCEFHA@?$AAt?$AAa?$AA?9?$AAi?$AAn@ 10025d78     libucrt:lcidtoname_downlevel.obj
 0002:00005d84       ??_C@_1M@CNJOFAK@?$AAt?$AAe?$AA?9?$AAi?$AAn@ 10025d84     libucrt:lcidtoname_downlevel.obj
 0002:00005d90       ??_C@_1M@GNAECACD@?$AAt?$AAh?$AA?9?$AAt?$AAh@ 10025d90     libucrt:lcidtoname_downlevel.obj
 0002:00005d9c       ??_C@_1M@CHBIHOJO@?$AAt?$AAn?$AA?9?$AAz?$AAa@ 10025d9c     libucrt:lcidtoname_downlevel.obj
 0002:00005da8       ??_C@_1M@GCCMIGPJ@?$AAt?$AAr?$AA?9?$AAt?$AAr@ 10025da8     libucrt:lcidtoname_downlevel.obj
 0002:00005db4       ??_C@_1M@CELMCNBK@?$AAt?$AAt?$AA?9?$AAr?$AAu@ 10025db4     libucrt:lcidtoname_downlevel.obj
 0002:00005dc0       ??_C@_1M@KLMCELGA@?$AAu?$AAk?$AA?9?$AAu?$AAa@ 10025dc0     libucrt:lcidtoname_downlevel.obj
 0002:00005dcc       ??_C@_1M@EPAJJAJF@?$AAu?$AAr?$AA?9?$AAp?$AAk@ 10025dcc     libucrt:lcidtoname_downlevel.obj
 0002:00005dd8       ??_C@_1BG@GEGPMCDJ@?$AAu?$AAz?$AA?9?$AAu?$AAz?$AA?9?$AAc?$AAy?$AAr?$AAl@ 10025dd8     libucrt:lcidtoname_downlevel.obj
 0002:00005df0       ??_C@_1BG@EGGKJILM@?$AAu?$AAz?$AA?9?$AAu?$AAz?$AA?9?$AAl?$AAa?$AAt?$AAn@ 10025df0     libucrt:lcidtoname_downlevel.obj
 0002:00005e08       ??_C@_1M@GFOCLFF@?$AAv?$AAi?$AA?9?$AAv?$AAn@ 10025e08     libucrt:lcidtoname_downlevel.obj
 0002:00005e14       ??_C@_1M@CPAMEDFI@?$AAx?$AAh?$AA?9?$AAz?$AAa@ 10025e14     libucrt:lcidtoname_downlevel.obj
 0002:00005e20       ??_C@_1O@EBKIFIGN@?$AAz?$AAh?$AA?9?$AAc?$AAh?$AAs@ 10025e20     libucrt:lcidtoname_downlevel.obj
 0002:00005e30       ??_C@_1O@NMHPGANE@?$AAz?$AAh?$AA?9?$AAc?$AAh?$AAt@ 10025e30     libucrt:lcidtoname_downlevel.obj
 0002:00005e40       ??_C@_1M@LPINJOMC@?$AAz?$AAh?$AA?9?$AAc?$AAn@ 10025e40     libucrt:lcidtoname_downlevel.obj
 0002:00005e4c       ??_C@_1M@OCJEJODD@?$AAz?$AAh?$AA?9?$AAh?$AAk@ 10025e4c     libucrt:lcidtoname_downlevel.obj
 0002:00005e58       ??_C@_1M@DNDLJINH@?$AAz?$AAh?$AA?9?$AAm?$AAo@ 10025e58     libucrt:lcidtoname_downlevel.obj
 0002:00005e64       ??_C@_1M@MBFDNDND@?$AAz?$AAh?$AA?9?$AAs?$AAg@ 10025e64     libucrt:lcidtoname_downlevel.obj
 0002:00005e70       ??_C@_1M@IMEPLEPE@?$AAz?$AAh?$AA?9?$AAt?$AAw@ 10025e70     libucrt:lcidtoname_downlevel.obj
 0002:00005e7c       ??_C@_1M@BBGHNHJP@?$AAz?$AAu?$AA?9?$AAz?$AAa@ 10025e7c     libucrt:lcidtoname_downlevel.obj
 0002:00005e88       ?large_power_data@?1??multiply_by_power_of_ten@__crt_strtox@@YA_NAAUbig_integer@2@I@Z@4QBIB 10025e88     libucrt:cfout.obj
 0002:00006790       ?large_power_indices@?1??multiply_by_power_of_ten@__crt_strtox@@YA_NAAUbig_integer@2@I@Z@4QBUunpack_index@?1??12@YA_N0I@Z@B 10026790     libucrt:cfout.obj
 0002:00006828       ?small_powers_of_ten@?1??multiply_by_power_of_ten@__crt_strtox@@YA_NAAUbig_integer@2@I@Z@4QBIB 10026828     libucrt:cfout.obj
 0002:0000684c       ??_C@_01GBGANLPD@0@        1002684c     libucrt:cfout.obj
 0002:00006850       ??_C@_05DNEBIAHO@1?$CDINF@ 10026850     libucrt:cfout.obj
 0002:00006858       ??_C@_06IMKFLFPG@1?$CDQNAN@ 10026858     libucrt:cfout.obj
 0002:00006860       ??_C@_06PGGFOGJG@1?$CDSNAN@ 10026860     libucrt:cfout.obj
 0002:00006868       ??_C@_05PHHOCPM@1?$CDIND@  10026868     libucrt:cfout.obj
 0002:000069d0       __infinity                 100269d0     libucrt:87tran.obj
 0002:000069da       __minfinity                100269da     libucrt:87tran.obj
 0002:000069e4       __logemax                  100269e4     libucrt:87tran.obj
 0002:00006a0a       __OP_EXPjmptab             10026a0a     libucrt:87tran.obj
 0002:00006a30       __indefinite               10026a30     libucrt:87disp.obj
 0002:00006a3a       __piby2                    10026a3a     libucrt:87disp.obj
 0002:00006a44       __piby4                    10026a44     libucrt:87disp.obj
 0002:00006a78       __DEFAULT_CW_in_mem        10026a78     libucrt:common.obj
 0002:00006a7a       __pi_by_2_to_61            10026a7a     libucrt:common.obj
 0002:00006ab4       ??_C@_03MGHMBJCF@log@      10026ab4     libucrt:libm_error.obj
 0002:00006ab8       ??_C@_05HGHHAHAP@log10@    10026ab8     libucrt:libm_error.obj
 0002:00006ac0       ??_C@_03KHJOGHMM@exp@      10026ac0     libucrt:libm_error.obj
 0002:00006ac4       ??_C@_03JGHBODFD@pow@      10026ac4     libucrt:libm_error.obj
 0002:00006ac8       ??_C@_04FIHNOPOL@asin@     10026ac8     libucrt:libm_error.obj
 0002:00006ad0       ??_C@_04PDIFKINK@acos@     10026ad0     libucrt:libm_error.obj
 0002:00006ad8       ??_C@_04EIAKFFMI@sqrt@     10026ad8     libucrt:libm_error.obj
 0002:00006ae0       __real@3ff0000000000000    10026ae0     libucrt:libm_error.obj
 0002:00006ae8       ??_C@_1BA@BALFACEM@?$AAC?$AAO?$AAN?$AAO?$AAU?$AAT?$AA$@ 10026ae8     libucrt:initcon.obj
 0002:00006b10       ___acrt_log10_table_t      10026b10     libucrt:log10_tables.obj
 0002:00006f20       ___acrt_log10_table_cb     10026f20     libucrt:log10_tables.obj
 0002:00007330       __real@3fe0000000000000    10027330     libucrt:powhlp.obj
 0002:00007420       ??_C@_04COOMCNPB@sinh@     10027420     libucrt:fpexcept.obj
 0002:00007428       ??_C@_04HPJJNFIM@cosh@     10027428     libucrt:fpexcept.obj
 0002:00007430       ??_C@_04FJHINJAO@tanh@     10027430     libucrt:fpexcept.obj
 0002:00007438       ??_C@_04MLLJIGOK@atan@     10027438     libucrt:fpexcept.obj
 0002:00007440       ??_C@_05KNGEOGJB@atan2@    10027440     libucrt:fpexcept.obj
 0002:00007448       ??_C@_03BLEJJJBH@sin@      10027448     libucrt:fpexcept.obj
 0002:0000744c       ??_C@_03LALBNOCG@cos@      1002744c     libucrt:fpexcept.obj
 0002:00007450       ??_C@_03IIINPABG@tan@      10027450     libucrt:fpexcept.obj
 0002:00007454       ??_C@_04GFPJNGEK@ceil@     10027454     libucrt:fpexcept.obj
 0002:0000745c       ??_C@_05PBJFFIGL@floor@    1002745c     libucrt:fpexcept.obj
 0002:00007464       ??_C@_04ODHECPBC@fabs@     10027464     libucrt:fpexcept.obj
 0002:0000746c       ??_C@_04EHEDPDJG@modf@     1002746c     libucrt:fpexcept.obj
 0002:00007474       ??_C@_05CEJMAHNP@ldexp@    10027474     libucrt:fpexcept.obj
 0002:0000747c       ??_C@_05KBKMEMPO@_cabs@    1002747c     libucrt:fpexcept.obj
 0002:00007484       ??_C@_06MEIMCGCF@_hypot@   10027484     libucrt:fpexcept.obj
 0002:0000748c       ??_C@_04KEPJIHGP@fmod@     1002748c     libucrt:fpexcept.obj
 0002:00007494       ??_C@_05GKKHEGJL@frexp@    10027494     libucrt:fpexcept.obj
 0002:0000749c       ??_C@_03MJLDFKDL@_y0@      1002749c     libucrt:fpexcept.obj
 0002:000074a0       ??_C@_03NAKIGLHK@_y1@      100274a0     libucrt:fpexcept.obj
 0002:000074a4       ??_C@_03ONILCKOB@_yn@      100274a4     libucrt:fpexcept.obj
 0002:000074a8       ??_C@_05JGDBENOH@_logb@    100274a8     libucrt:fpexcept.obj
 0002:000074b0       ??_C@_0L@KDOEJCKC@_nextafter@ 100274b0     libucrt:fpexcept.obj
 0002:000074c0       __d_inf                    100274c0     libucrt:util.obj
 0002:000074c8       __d_max                    100274c8     libucrt:util.obj
 0002:000074d0       __d_mzero                  100274d0     libucrt:util.obj
 0002:00007540       __load_config_used         10027540     LIBCMT:loadcfg.obj
 0002:000075f8       __tls_used                 100275f8     LIBCMT:tlssup.obj
 0002:00007610       ??_R4exception@std@@6B@    10027610     LIBCMT:throw_bad_alloc.obj
 0002:00007624       ??_R3exception@std@@8      10027624     LIBCMT:throw_bad_alloc.obj
 0002:00007634       ??_R2exception@std@@8      10027634     LIBCMT:throw_bad_alloc.obj
 0002:0000763c       ??_R1A@?0A@EA@exception@std@@8 1002763c     LIBCMT:throw_bad_alloc.obj
 0002:00007658       ??_R4bad_alloc@std@@6B@    10027658     LIBCMT:throw_bad_alloc.obj
 0002:0000766c       ??_R3bad_alloc@std@@8      1002766c     LIBCMT:throw_bad_alloc.obj
 0002:0000767c       ??_R2bad_alloc@std@@8      1002767c     LIBCMT:throw_bad_alloc.obj
 0002:00007688       ??_R1A@?0A@EA@bad_alloc@std@@8 10027688     LIBCMT:throw_bad_alloc.obj
 0002:000076a4       ??_R4bad_array_new_length@std@@6B@ 100276a4     LIBCMT:throw_bad_alloc.obj
 0002:000076b8       ??_R3bad_array_new_length@std@@8 100276b8     LIBCMT:throw_bad_alloc.obj
 0002:000076c8       ??_R2bad_array_new_length@std@@8 100276c8     LIBCMT:throw_bad_alloc.obj
 0002:000076d8       ??_R1A@?0A@EA@bad_array_new_length@std@@8 100276d8     LIBCMT:throw_bad_alloc.obj
 0002:000076f4       ??_R4type_info@@6B@        100276f4     LIBCMT:std_type_info_static.obj
 0002:00007708       ??_R3type_info@@8          10027708     LIBCMT:std_type_info_static.obj
 0002:00007718       ??_R2type_info@@8          10027718     LIBCMT:std_type_info_static.obj
 0002:00007720       ??_R1A@?0A@EA@type_info@@8 10027720     LIBCMT:std_type_info_static.obj
 0002:0000773c       ??_R4bad_exception@std@@6B@ 1002773c     libvcruntime:frame.obj
 0002:00007750       ??_R3bad_exception@std@@8  10027750     libvcruntime:frame.obj
 0002:00007760       ??_R2bad_exception@std@@8  10027760     libvcruntime:frame.obj
 0002:0000776c       ??_R1A@?0A@EA@bad_exception@std@@8 1002776c     libvcruntime:frame.obj
 0002:00007788       ___safe_se_handler_table   10027788     <linker-defined>
 0002:00007b80       ___rtc_iaa                 10027b80     LIBCMT:initsect.obj
 0002:00007b84       ___rtc_izz                 10027b84     LIBCMT:initsect.obj
 0002:00007b88       ___rtc_taa                 10027b88     LIBCMT:initsect.obj
 0002:00007b8c       ___rtc_tzz                 10027b8c     LIBCMT:initsect.obj
 0002:00007b90       __tls_start                10027b90     LIBCMT:tlssup.obj
 0002:00007b94       __Init_thread_epoch        10027b94     LIBCMT:thread_safe_statics.obj
 0002:00007b98       __tls_end                  10027b98     LIBCMT:tlssup.obj
 0002:00007c9c       __TI2?AVbad_alloc@std@@    10027c9c     LIBCMT:throw_bad_alloc.obj
 0002:00007cac       __CTA2?AVbad_alloc@std@@   10027cac     LIBCMT:throw_bad_alloc.obj
 0002:00007cb8       __CT??_R0?AVbad_alloc@std@@@8??0bad_alloc@std@@QAE@ABV01@@Z12 10027cb8     LIBCMT:throw_bad_alloc.obj
 0002:00007cd4       __CT??_R0?AVexception@std@@@8??0exception@std@@QAE@ABV01@@Z12 10027cd4     LIBCMT:throw_bad_alloc.obj
 0002:00007cf0       __TI3?AVbad_array_new_length@std@@ 10027cf0     LIBCMT:throw_bad_alloc.obj
 0002:00007d00       __CTA3?AVbad_array_new_length@std@@ 10027d00     LIBCMT:throw_bad_alloc.obj
 0002:00007d10       __CT??_R0?AVbad_array_new_length@std@@@8??0bad_array_new_length@std@@QAE@ABV01@@Z12 10027d10     LIBCMT:throw_bad_alloc.obj
 0002:00007e34       __TI2?AVbad_exception@std@@ 10027e34     libvcruntime:frame.obj
 0002:00007e44       __CTA2?AVbad_exception@std@@ 10027e44     libvcruntime:frame.obj
 0002:00007e50       __CT??_R0?AVbad_exception@std@@@8??0bad_exception@std@@QAE@ABV01@@Z12 10027e50     libvcruntime:frame.obj
 0002:000081cc       ___pobjMapEntryFirst       100281cc     OposVariant.obj
 0002:000081d0       ___pobjMapEntryLast        100281d0     OposVariant.obj
 0002:0000828c       __IMPORT_DESCRIPTOR_KERNEL32 1002828c     kernel32:KERNEL32.dll
 0002:000082a0       __IMPORT_DESCRIPTOR_USER32 100282a0     user32:USER32.dll
 0002:000082b4       __IMPORT_DESCRIPTOR_GDI32  100282b4     gdi32:GDI32.dll
 0002:000082c8       __IMPORT_DESCRIPTOR_ADVAPI32 100282c8     advapi32:ADVAPI32.dll
 0002:000082dc       __IMPORT_DESCRIPTOR_ole32  100282dc     ole32:ole32.dll
 0002:000082f0       __IMPORT_DESCRIPTOR_OLEAUT32 100282f0     oleaut32:OLEAUT32.dll
 0002:00008304       __NULL_IMPORT_DESCRIPTOR   10028304     kernel32:KERNEL32.dll
 0003:00000000       ?s_Claim@?7??GetIDsOfNames@CComTypeInfoHolder@ATL@@QAEJABU_GUID@@PAPA_WIKPAJ@Z@4PA_WA 1002a000     POSPower.obj
 0003:00000018       ?s_Release@?7??GetIDsOfNames@CComTypeInfoHolder@ATL@@QAEJABU_GUID@@PAPA_WIKPAJ@Z@4PA_WA 1002a018     POSPower.obj
 0003:00000034       ?_tih@?$IDispatchImpl@UIOPOSPOSPower@@$1?IID_IOPOSPOSPower@@3U_GUID@@B$1?LIBID_OposPOSPower_CCO@@3U3@B$00$0A@VCComTypeInfoHolder@ATL@@@ATL@@1VCComTypeInfoHolder@2@A 1002a034     POSPower.obj
 0003:00000050       ?_tih@?$IProvideClassInfo2Impl@$1?CLSID_OPOSPOSPower@@3U_GUID@@B$1?DIID__IOPOSPOSPowerEvents@@3U2@B$1?LIBID_OposPOSPower_CCO@@3U2@B$00$0A@VCComTypeInfoHolder@ATL@@@ATL@@1VCComTypeInfoHolder@2@A 1002a050     POSPower.obj
 0003:0000006c       ?vszContents@?6??Save@?$IPersistStorageImpl@VCOPOSPOSPower@@@ATL@@UAGJPAUIStorage@@H@Z@4PB_WB 1002a06c     POSPower.obj
 0003:00000070       ?wc@?1??GetWndClassInfo@?$CWindowImpl@VCOPOSPOSPower@@VCWindow@ATL@@V?$CWinTraits@$0FGAAAAAA@$0A@@3@@ATL@@SAAAU_ATL_WNDCLASSINFOW@3@XZ@4U43@A 1002a070     POSPower.obj
 0003:000000fc       ?rcDefault@CWindow@ATL@@2UtagRECT@@A 1002a0fc     POSPower.obj
 0003:00000158       ?g_WindowName@@3PA_WA      1002a158     POSPowerImpl.obj
 0003:00000178       ?g_ControlDescription@@3PADA 1002a178     POSPowerImpl.obj
 0003:000001c0       ?g_ControlVersion@@3JA     1002a1c0     POSPowerImpl.obj
 0003:0000022c       ___scrt_native_dllmain_reason 1002a22c     LIBCMT:utility.obj
 0003:00000230       __Init_global_epoch        1002a230     LIBCMT:thread_safe_statics.obj
 0003:00000240       ___security_cookie_complement 1002a240     LIBCMT:gs_cookie.obj
 0003:00000244       ___security_cookie         1002a244     LIBCMT:gs_cookie.obj
 0003:00000248       ___isa_enabled             1002a248     LIBCMT:cpu_disp.obj
 0003:00000260       __NLG_Destination          1002a260     libvcruntime:exsup.obj
 0003:00000278       ___abort_behavior          1002a278     libucrt:abort.obj
 0003:00000288       __iob                      1002a288     libucrt:_file.obj
 0003:00000330       ___acrt_initial_locale_data 1002a330     libucrt:nlsdata.obj
 0003:000003e8       ___acrt_initial_locale_pointers 1002a3e8     libucrt:nlsdata.obj
 0003:000003f0       ___acrt_wide_c_locale_string 1002a3f0     libucrt:nlsdata.obj
 0003:000003f8       ___acrt_initial_multibyte_data 1002a3f8     libucrt:mbctype.obj
 0003:00000918       __pwctype                  1002a918     libucrt:ctype.obj
 0003:0000091c       ___globallocalestatus      1002a91c     libucrt:glstatus.obj
 0003:00000920       ___acrt_lconv_c            1002a920     libucrt:localeconv.obj
 0003:00000970       ___acrt_lconv_static_decimal 1002a970     libucrt:localeconv.obj
 0003:00000974       ___acrt_lconv_static_W_decimal 1002a974     libucrt:localeconv.obj
 0003:00000980       __lookuptrailbytes         1002a980     libucrt:read.obj
 0003:00000a90       __fltused                  1002aa90     LIBCMT:fltused.obj
 0003:00000aa0       ??_R0?AVbad_alloc@std@@@8  1002aaa0     LIBCMT:throw_bad_alloc.obj
 0003:00000abc       ??_R0?AVexception@std@@@8  1002aabc     LIBCMT:throw_bad_alloc.obj
 0003:00000ad8       ??_R0?AVbad_array_new_length@std@@@8 1002aad8     LIBCMT:throw_bad_alloc.obj
 0003:00000b00       ??_R0?AVtype_info@@@8      1002ab00     LIBCMT:std_type_info_static.obj
 0003:00000b18       ??_R0?AVbad_exception@std@@@8 1002ab18     libvcruntime:frame.obj
 0003:00000b38       ?m_bInitFailed@CAtlBaseModule@ATL@@2_NA 1002ab38     OposVariant.obj
 0003:00000b3c       ?_pPerfRegFunc@ATL@@3P6AJPAUHINSTANCE__@@@ZA 1002ab3c     OposVariant.obj
 0003:00000b40       ?_pPerfUnRegFunc@ATL@@3P6AJXZA 1002ab40     OposVariant.obj
 0003:00000b44       ?_AtlRegisterPerUser@ATL@@3_NA 1002ab44     OposVariant.obj
 0003:00000b48       ?_pAtlModule@ATL@@3PAVCAtlModule@1@A 1002ab48     OposVariant.obj
 0003:00000b4c       ?_pModule@ATL@@3PAVCComModule@1@A 1002ab4c     OposVariant.obj
 0003:00000b50       ?_AtlComModule@ATL@@3VCAtlComModule@1@A 1002ab50     OposVariant.obj
 0003:00000b78       ?_AtlWinModule@ATL@@3VCAtlWinModule@1@A 1002ab78     OposVariant.obj
 0003:00000ba4       ?m_libid@CAtlModule@ATL@@2U_GUID@@A 1002aba4     POSPower.obj
 0003:00000bb4       ?_entries@?1??GetConnMap@COPOSPOSPower@@SAPBU_ATL_CONNMAP_ENTRY@ATL@@PAH@Z@4QBU34@B 1002abb4     POSPower.obj
 0003:00000bc0       ?$TSS0@?1??GetConnMap@COPOSPOSPower@@SAPBU_ATL_CONNMAP_ENTRY@ATL@@PAH@Z@4HA 1002abc0     POSPower.obj
 0003:00000bc8       ?_OptionsStorage@?1??__local_stdio_printf_options@@9@4_KA 1002abc8     POSPower.obj
 0003:00000bd0       ?pfnRegDeleteKeyEx@?1??DeleteSubKey@CRegKey@ATL@@QAEJPB_W@Z@4P6GJPAUHKEY__@@0KK@ZA 1002abd0     POSPower.obj
 0003:00000bd4       ?bInitialized@?1??DeleteSubKey@CRegKey@ATL@@QAEJPB_W@Z@4_NA 1002abd4     POSPower.obj
 0003:00000bd8       ?_Module@@3VCComModule@ATL@@A 1002abd8     POSPower.obj
 0003:00000c08       ?pConnMap@?$IConnectionPointContainerImpl@VCOPOSPOSPower@@@ATL@@0PBU_ATL_CONNMAP_ENTRY@2@B 1002ac08     POSPower.obj
 0003:00000c0c       ?s_nInstances@COPOSPOSPower@@1HA 1002ac0c     POSPowerImpl.obj
 0003:00000c10       ___scrt_current_native_startup_state 1002ac10     LIBCMT:utility.obj
 0003:00000c14       ___scrt_native_startup_lock 1002ac14     LIBCMT:utility.obj
 0003:00000f7c       __tls_index                1002af7c     LIBCMT:tlssup.obj
 0003:00000f84       ___isa_available           1002af84     LIBCMT:cpu_disp.obj
 0003:00000f88       ___favor                   1002af88     LIBCMT:cpu_disp.obj
 0003:00000f8c       ___scrt_debugger_hook_flag 1002af8c     LIBCMT:utility_desktop.obj
 0003:00000f90       ?__type_info_root_node@@3U__type_info_node@@A 1002af90     LIBCMT:tncleanup.obj
 0003:00000f98       ?_OptionsStorage@?1??__local_stdio_scanf_options@@9@4_KA 1002af98     LIBCMT:default_local_stdio_options.obj
 0003:00000fa0       ?_AtlBaseModule@ATL@@3VCAtlBaseModule@1@A 1002afa0     atls:atlbase.obj
 0003:00000fd8       ?__AtlThunkPool@@3PAT_SLIST_HEADER@@A 1002afd8     atls:atlthunk.obj
 0003:00000ff0       ___@@_PchSym_@00@UztvmgUPdlipUEUhUrmgvinvwrzgvUexgllohUzgohOmzgrevkilqPBACIAJCBDBUlyqiUcIGUhgwzucOlyq@4B2008FD98C1DD4 1002aff0     atls:stdafx.obj
 0003:00000ff4       ?__WinRTOutOfMemoryExceptionCallback@@3P6GPAXXZA 1002aff4     libvcruntime:ehhelpers.obj
 0003:00000ff8       ___pPurecall               1002aff8     libvcruntime:purevirt_data.obj
 0003:00001040       ?pArgList@UnDecorator@@0PAVReplicator@@A 1002b040     libvcruntime:undname.obj
 0003:00001044       ?pZNameList@UnDecorator@@0PAVReplicator@@A 1002b044     libvcruntime:undname.obj
 0003:00001048       ?pTemplateArgList@UnDecorator@@0PAVReplicator@@A 1002b048     libvcruntime:undname.obj
 0003:0000104c       ?gName@UnDecorator@@0PBDB  1002b04c     libvcruntime:undname.obj
 0003:00001050       ?name@UnDecorator@@0PBDB   1002b050     libvcruntime:undname.obj
 0003:00001054       ?disableFlags@UnDecorator@@0KA 1002b054     libvcruntime:undname.obj
 0003:00001058       ?fExplicitTemplateParams@UnDecorator@@0_NA 1002b058     libvcruntime:undname.obj
 0003:00001059       ?fGetTemplateArgumentList@UnDecorator@@0_NA 1002b059     libvcruntime:undname.obj
 0003:0000105c       ?m_pGetParameter@UnDecorator@@0P6APADJ@ZA 1002b05c     libvcruntime:undname.obj
 0003:00001060       ?m_CHPENameOffset@UnDecorator@@0KA 1002b060     libvcruntime:undname.obj
 0003:00001064       ?m_recursionLevel@UnDecorator@@0KA 1002b064     libvcruntime:undname.obj
 0003:000010a8       ?c_exit_complete@?1???R<lambda_6e4b09c48022b2350581041d5f6b0c4c>@@QBE@XZ@4_NA 1002b0a8     libucrt:exit.obj
 0003:000011b8       __environ_table            1002b1b8     libucrt:environment_initialization.obj
 0003:000011bc       __wenviron_table           1002b1bc     libucrt:environment_initialization.obj
 0003:000011c0       ___dcrt_initial_wide_environment 1002b1c0     libucrt:environment_initialization.obj
 0003:000011c4       ___dcrt_initial_narrow_environment 1002b1c4     libucrt:environment_initialization.obj
 0003:000011c8       ___acrt_atexit_table       1002b1c8     libucrt:onexit.obj
 0003:000011d4       ___acrt_at_quick_exit_table 1002b1d4     libucrt:onexit.obj
 0003:000012c8       __nstream                  1002b2c8     libucrt:_file.obj
 0003:000012cc       ___piob                    1002b2cc     libucrt:_file.obj
 0003:000012d4       ___acrt_stdout_buffer      1002b2d4     libucrt:_sftbuf.obj
 0003:000012d8       ___acrt_stderr_buffer      1002b2d8     libucrt:_sftbuf.obj
 0003:000012dc       ___acrt_locale_changed_data 1002b2dc     libucrt:wsetlocale.obj
 0003:000012e0       ___acrt_current_locale_data 1002b2e0     libucrt:nlsdata.obj
 0003:000012e8       ___pioinfo                 1002b2e8     libucrt:ioinit.obj
 0003:000014e8       __nhandle                  1002b4e8     libucrt:ioinit.obj
 0003:00001644       __mbctype                  1002b644     libucrt:mbctype.obj
 0003:00001648       __mbcasemap                1002b648     libucrt:mbctype.obj
 0003:0000164c       ___acrt_current_multibyte_data 1002b64c     libucrt:mbctype.obj
 0003:00001658       __pgmptr                   1002b658     libucrt:argv_data.obj
 0003:0000165c       ___argc                    1002b65c     libucrt:argv_data.obj
 0003:00001660       ___argv                    1002b660     libucrt:argv_data.obj
 0003:00001664       ___wargv                   1002b664     libucrt:argv_data.obj
 0003:00001668       __acmdln                   1002b668     libucrt:argv_data.obj
 0003:0000166c       __wcmdln                   1002b66c     libucrt:argv_data.obj
 0003:00001670       ___acrt_heap               1002b670     libucrt:heap_handle.obj
 0003:0000168c       ___acrt_lconv_static_null  1002b68c     libucrt:localeconv.obj
 0003:00001690       ___acrt_lconv_static_W_null 1002b690     libucrt:localeconv.obj
 0003:000016a0       ___fastflag                1002b6a0     libucrt:fp_flags.obj
 0003:000016a8       ___dyn_tls_init_callback   1002b6a8     <common>
 0003:000016ac       ___scrt_ucrt_dll_is_in_use 1002b6ac     <common>
 0003:000016b0       __pmatherr                 1002b6b0     <common>
 0003:000016b4       ___use_sse2_mathfcns       1002b6b4     <common>

 entry point at        0001:0000bb5d

 Static symbols

 0000:fffcd000       .debug$S                   10000000     OPOSPOSPower.exp
 0000:fffcd000       .debug$S                   10000000     advapi32:ADVAPI32.dll
 0000:fffcd000       .debug$S                   10000000     advapi32:ADVAPI32.dll
 0000:fffcd000       .debug$S                   10000000     advapi32:ADVAPI32.dll
 0000:fffcd000       .debug$S                   10000000     advapi32:ADVAPI32.dll
 0000:fffcd000       .debug$S                   10000000     advapi32:ADVAPI32.dll
 0000:fffcd000       .debug$S                   10000000     advapi32:ADVAPI32.dll
 0000:fffcd000       .debug$S                   10000000     advapi32:ADVAPI32.dll
 0000:fffcd000       .debug$S                   10000000     advapi32:ADVAPI32.dll
 0000:fffcd000       .debug$S                   10000000     advapi32:ADVAPI32.dll
 0000:fffcd000       .debug$S                   10000000     gdi32:GDI32.dll
 0000:fffcd000       .debug$S                   10000000     gdi32:GDI32.dll
 0000:fffcd000       .debug$S                   10000000     gdi32:GDI32.dll
 0000:fffcd000       .debug$S                   10000000     gdi32:GDI32.dll
 0000:fffcd000       .debug$S                   10000000     gdi32:GDI32.dll
 0000:fffcd000       .debug$S                   10000000     gdi32:GDI32.dll
 0000:fffcd000       .debug$S                   10000000     gdi32:GDI32.dll
 0000:fffcd000       .debug$S                   10000000     gdi32:GDI32.dll
 0000:fffcd000       .debug$S                   10000000     gdi32:GDI32.dll
 0000:fffcd000       .debug$S                   10000000     gdi32:GDI32.dll
 0000:fffcd000       .debug$S                   10000000     gdi32:GDI32.dll
 0000:fffcd000       .debug$S                   10000000     gdi32:GDI32.dll
 0000:fffcd000       .debug$S                   10000000     gdi32:GDI32.dll
 0000:fffcd000       .debug$S                   10000000     gdi32:GDI32.dll
 0000:fffcd000       .debug$S                   10000000     gdi32:GDI32.dll
 0000:fffcd000       .debug$S                   10000000     gdi32:GDI32.dll
 0000:fffcd000       .debug$S                   10000000     gdi32:GDI32.dll
 0000:fffcd000       .debug$S                   10000000     gdi32:GDI32.dll
 0000:fffcd000       .debug$S                   10000000     gdi32:GDI32.dll
 0000:fffcd000       .debug$S                   10000000     kernel32:KERNEL32.dll
 0000:fffcd000       .debug$S                   10000000     kernel32:KERNEL32.dll
 0000:fffcd000       .debug$S                   10000000     kernel32:KERNEL32.dll
 0000:fffcd000       .debug$S                   10000000     kernel32:KERNEL32.dll
 0000:fffcd000       .debug$S                   10000000     kernel32:KERNEL32.dll
 0000:fffcd000       .debug$S                   10000000     kernel32:KERNEL32.dll
 0000:fffcd000       .debug$S                   10000000     kernel32:KERNEL32.dll
 0000:fffcd000       .debug$S                   10000000     kernel32:KERNEL32.dll
 0000:fffcd000       .debug$S                   10000000     kernel32:KERNEL32.dll
 0000:fffcd000       .debug$S                   10000000     kernel32:KERNEL32.dll
 0000:fffcd000       .debug$S                   10000000     kernel32:KERNEL32.dll
 0000:fffcd000       .debug$S                   10000000     kernel32:KERNEL32.dll
 0000:fffcd000       .debug$S                   10000000     kernel32:KERNEL32.dll
 0000:fffcd000       .debug$S                   10000000     kernel32:KERNEL32.dll
 0000:fffcd000       .debug$S                   10000000     kernel32:KERNEL32.dll
 0000:fffcd000       .debug$S                   10000000     kernel32:KERNEL32.dll
 0000:fffcd000       .debug$S                   10000000     kernel32:KERNEL32.dll
 0000:fffcd000       .debug$S                   10000000     kernel32:KERNEL32.dll
 0000:fffcd000       .debug$S                   10000000     kernel32:KERNEL32.dll
 0000:fffcd000       .debug$S                   10000000     kernel32:KERNEL32.dll
 0000:fffcd000       .debug$S                   10000000     kernel32:KERNEL32.dll
 0000:fffcd000       .debug$S                   10000000     kernel32:KERNEL32.dll
 0000:fffcd000       .debug$S                   10000000     kernel32:KERNEL32.dll
 0000:fffcd000       .debug$S                   10000000     kernel32:KERNEL32.dll
 0000:fffcd000       .debug$S                   10000000     kernel32:KERNEL32.dll
 0000:fffcd000       .debug$S                   10000000     kernel32:KERNEL32.dll
 0000:fffcd000       .debug$S                   10000000     kernel32:KERNEL32.dll
 0000:fffcd000       .debug$S                   10000000     kernel32:KERNEL32.dll
 0000:fffcd000       .debug$S                   10000000     kernel32:KERNEL32.dll
 0000:fffcd000       .debug$S                   10000000     kernel32:KERNEL32.dll
 0000:fffcd000       .debug$S                   10000000     kernel32:KERNEL32.dll
 0000:fffcd000       .debug$S                   10000000     kernel32:KERNEL32.dll
 0000:fffcd000       .debug$S                   10000000     kernel32:KERNEL32.dll
 0000:fffcd000       .debug$S                   10000000     kernel32:KERNEL32.dll
 0000:fffcd000       .debug$S                   10000000     kernel32:KERNEL32.dll
 0000:fffcd000       .debug$S                   10000000     kernel32:KERNEL32.dll
 0000:fffcd000       .debug$S                   10000000     kernel32:KERNEL32.dll
 0000:fffcd000       .debug$S                   10000000     kernel32:KERNEL32.dll
 0000:fffcd000       .debug$S                   10000000     kernel32:KERNEL32.dll
 0000:fffcd000       .debug$S                   10000000     kernel32:KERNEL32.dll
 0000:fffcd000       .debug$S                   10000000     kernel32:KERNEL32.dll
 0000:fffcd000       .debug$S                   10000000     kernel32:KERNEL32.dll
 0000:fffcd000       .debug$S                   10000000     kernel32:KERNEL32.dll
 0000:fffcd000       .debug$S                   10000000     kernel32:KERNEL32.dll
 0000:fffcd000       .debug$S                   10000000     kernel32:KERNEL32.dll
 0000:fffcd000       .debug$S                   10000000     kernel32:KERNEL32.dll
 0000:fffcd000       .debug$S                   10000000     kernel32:KERNEL32.dll
 0000:fffcd000       .debug$S                   10000000     kernel32:KERNEL32.dll
 0000:fffcd000       .debug$S                   10000000     kernel32:KERNEL32.dll
 0000:fffcd000       .debug$S                   10000000     kernel32:KERNEL32.dll
 0000:fffcd000       .debug$S                   10000000     kernel32:KERNEL32.dll
 0000:fffcd000       .debug$S                   10000000     kernel32:KERNEL32.dll
 0000:fffcd000       .debug$S                   10000000     kernel32:KERNEL32.dll
 0000:fffcd000       .debug$S                   10000000     kernel32:KERNEL32.dll
 0000:fffcd000       .debug$S                   10000000     kernel32:KERNEL32.dll
 0000:fffcd000       .debug$S                   10000000     kernel32:KERNEL32.dll
 0000:fffcd000       .debug$S                   10000000     kernel32:KERNEL32.dll
 0000:fffcd000       .debug$S                   10000000     kernel32:KERNEL32.dll
 0000:fffcd000       .debug$S                   10000000     kernel32:KERNEL32.dll
 0000:fffcd000       .debug$S                   10000000     kernel32:KERNEL32.dll
 0000:fffcd000       .debug$S                   10000000     kernel32:KERNEL32.dll
 0000:fffcd000       .debug$S                   10000000     kernel32:KERNEL32.dll
 0000:fffcd000       .debug$S                   10000000     kernel32:KERNEL32.dll
 0000:fffcd000       .debug$S                   10000000     kernel32:KERNEL32.dll
 0000:fffcd000       .debug$S                   10000000     kernel32:KERNEL32.dll
 0000:fffcd000       .debug$S                   10000000     kernel32:KERNEL32.dll
 0000:fffcd000       .debug$S                   10000000     kernel32:KERNEL32.dll
 0000:fffcd000       .debug$S                   10000000     kernel32:KERNEL32.dll
 0000:fffcd000       .debug$S                   10000000     kernel32:KERNEL32.dll
 0000:fffcd000       .debug$S                   10000000     kernel32:KERNEL32.dll
 0000:fffcd000       .debug$S                   10000000     kernel32:KERNEL32.dll
 0000:fffcd000       .debug$S                   10000000     kernel32:KERNEL32.dll
 0000:fffcd000       .debug$S                   10000000     kernel32:KERNEL32.dll
 0000:fffcd000       .debug$S                   10000000     kernel32:KERNEL32.dll
 0000:fffcd000       .debug$S                   10000000     kernel32:KERNEL32.dll
 0000:fffcd000       .debug$S                   10000000     kernel32:KERNEL32.dll
 0000:fffcd000       .debug$S                   10000000     kernel32:KERNEL32.dll
 0000:fffcd000       .debug$S                   10000000     kernel32:KERNEL32.dll
 0000:fffcd000       .debug$S                   10000000     kernel32:KERNEL32.dll
 0000:fffcd000       .debug$S                   10000000     kernel32:KERNEL32.dll
 0000:fffcd000       .debug$S                   10000000     kernel32:KERNEL32.dll
 0000:fffcd000       .debug$S                   10000000     kernel32:KERNEL32.dll
 0000:fffcd000       .debug$S                   10000000     kernel32:KERNEL32.dll
 0000:fffcd000       .debug$S                   10000000     kernel32:KERNEL32.dll
 0000:fffcd000       .debug$S                   10000000     kernel32:KERNEL32.dll
 0000:fffcd000       .debug$S                   10000000     kernel32:KERNEL32.dll
 0000:fffcd000       .debug$S                   10000000     kernel32:KERNEL32.dll
 0000:fffcd000       .debug$S                   10000000     kernel32:KERNEL32.dll
 0000:fffcd000       .debug$S                   10000000     kernel32:KERNEL32.dll
 0000:fffcd000       .debug$S                   10000000     kernel32:KERNEL32.dll
 0000:fffcd000       .debug$S                   10000000     kernel32:KERNEL32.dll
 0000:fffcd000       .debug$S                   10000000     kernel32:KERNEL32.dll
 0000:fffcd000       .debug$S                   10000000     kernel32:KERNEL32.dll
 0000:fffcd000       .debug$S                   10000000     kernel32:KERNEL32.dll
 0000:fffcd000       .debug$S                   10000000     kernel32:KERNEL32.dll
 0000:fffcd000       .debug$S                   10000000     kernel32:KERNEL32.dll
 0000:fffcd000       .debug$S                   10000000     kernel32:KERNEL32.dll
 0000:fffcd000       .debug$S                   10000000     kernel32:KERNEL32.dll
 0000:fffcd000       .debug$S                   10000000     kernel32:KERNEL32.dll
 0000:fffcd000       .debug$S                   10000000     kernel32:KERNEL32.dll
 0000:fffcd000       .debug$S                   10000000     kernel32:KERNEL32.dll
 0000:fffcd000       .debug$S                   10000000     kernel32:KERNEL32.dll
 0000:fffcd000       .debug$S                   10000000     kernel32:KERNEL32.dll
 0000:fffcd000       .debug$S                   10000000     kernel32:KERNEL32.dll
 0000:fffcd000       .debug$S                   10000000     kernel32:KERNEL32.dll
 0000:fffcd000       .debug$S                   10000000     kernel32:KERNEL32.dll
 0000:fffcd000       .debug$S                   10000000     ole32:ole32.dll
 0000:fffcd000       .debug$S                   10000000     ole32:ole32.dll
 0000:fffcd000       .debug$S                   10000000     ole32:ole32.dll
 0000:fffcd000       .debug$S                   10000000     ole32:ole32.dll
 0000:fffcd000       .debug$S                   10000000     ole32:ole32.dll
 0000:fffcd000       .debug$S                   10000000     ole32:ole32.dll
 0000:fffcd000       .debug$S                   10000000     ole32:ole32.dll
 0000:fffcd000       .debug$S                   10000000     ole32:ole32.dll
 0000:fffcd000       .debug$S                   10000000     ole32:ole32.dll
 0000:fffcd000       .debug$S                   10000000     ole32:ole32.dll
 0000:fffcd000       .debug$S                   10000000     ole32:ole32.dll
 0000:fffcd000       .debug$S                   10000000     ole32:ole32.dll
 0000:fffcd000       .debug$S                   10000000     ole32:ole32.dll
 0000:fffcd000       .debug$S                   10000000     ole32:ole32.dll
 0000:fffcd000       .debug$S                   10000000     oleaut32:OLEAUT32.dll
 0000:fffcd000       .debug$S                   10000000     oleaut32:OLEAUT32.dll
 0000:fffcd000       .debug$S                   10000000     oleaut32:OLEAUT32.dll
 0000:fffcd000       .debug$S                   10000000     oleaut32:OLEAUT32.dll
 0000:fffcd000       .debug$S                   10000000     oleaut32:OLEAUT32.dll
 0000:fffcd000       .debug$S                   10000000     oleaut32:OLEAUT32.dll
 0000:fffcd000       .debug$S                   10000000     oleaut32:OLEAUT32.dll
 0000:fffcd000       .debug$S                   10000000     oleaut32:OLEAUT32.dll
 0000:fffcd000       .debug$S                   10000000     oleaut32:OLEAUT32.dll
 0000:fffcd000       .debug$S                   10000000     oleaut32:OLEAUT32.dll
 0000:fffcd000       .debug$S                   10000000     oleaut32:OLEAUT32.dll
 0000:fffcd000       .debug$S                   10000000     oleaut32:OLEAUT32.dll
 0000:fffcd000       .debug$S                   10000000     oleaut32:OLEAUT32.dll
 0000:fffcd000       .debug$S                   10000000     oleaut32:OLEAUT32.dll
 0000:fffcd000       .debug$S                   10000000     oleaut32:OLEAUT32.dll
 0000:fffcd000       .debug$S                   10000000     oleaut32:OLEAUT32.dll
 0000:fffcd000       .debug$S                   10000000     user32:USER32.dll
 0000:fffcd000       .debug$S                   10000000     user32:USER32.dll
 0000:fffcd000       .debug$S                   10000000     user32:USER32.dll
 0000:fffcd000       .debug$S                   10000000     user32:USER32.dll
 0000:fffcd000       .debug$S                   10000000     user32:USER32.dll
 0000:fffcd000       .debug$S                   10000000     user32:USER32.dll
 0000:fffcd000       .debug$S                   10000000     user32:USER32.dll
 0000:fffcd000       .debug$S                   10000000     user32:USER32.dll
 0000:fffcd000       .debug$S                   10000000     user32:USER32.dll
 0000:fffcd000       .debug$S                   10000000     user32:USER32.dll
 0000:fffcd000       .debug$S                   10000000     user32:USER32.dll
 0000:fffcd000       .debug$S                   10000000     user32:USER32.dll
 0000:fffcd000       .debug$S                   10000000     user32:USER32.dll
 0000:fffcd000       .debug$S                   10000000     user32:USER32.dll
 0000:fffcd000       .debug$S                   10000000     user32:USER32.dll
 0000:fffcd000       .debug$S                   10000000     user32:USER32.dll
 0000:fffcd000       .debug$S                   10000000     user32:USER32.dll
 0000:fffcd000       .debug$S                   10000000     user32:USER32.dll
 0000:fffcd000       .debug$S                   10000000     user32:USER32.dll
 0000:fffcd000       .debug$S                   10000000     user32:USER32.dll
 0000:fffcd000       .debug$S                   10000000     user32:USER32.dll
 0000:fffcd000       .debug$S                   10000000     user32:USER32.dll
 0000:fffcd000       .debug$S                   10000000     user32:USER32.dll
 0000:fffcd000       .debug$S                   10000000     user32:USER32.dll
 0000:fffcd000       .debug$S                   10000000     user32:USER32.dll
 0000:fffcd000       .debug$S                   10000000     user32:USER32.dll
 0000:fffcd000       .debug$S                   10000000     user32:USER32.dll
 0000:fffcd000       .debug$S                   10000000     user32:USER32.dll
 0000:fffcd000       .debug$S                   10000000     user32:USER32.dll
 0000:fffcd000       .debug$S                   10000000     user32:USER32.dll
 0000:fffcd000       .debug$S                   10000000     user32:USER32.dll
 0000:fffcd000       .debug$S                   10000000     user32:USER32.dll
 0000:fffcd000       .debug$S                   10000000     user32:USER32.dll
 0000:fffcd000       .debug$S                   10000000     user32:USER32.dll
 0000:fffcd000       .debug$S                   10000000     user32:USER32.dll
 0001:00000000       ??__E_AtlComModule@ATL@@YAXXZ 10001000 f   OposVariant.obj
 0001:00000016       ??__E_AtlWinModule@ATL@@YAXXZ 10001016 f   OposVariant.obj
 0001:0000002c       ??__E?pConnMap@?$IConnectionPointContainerImpl@VCOPOSPOSPower@@@ATL@@0PBU_ATL_CONNMAP_ENTRY@2@B@@YAXXZ 1000102c f   POSPower.obj
 0001:0000003a       ??__E_Module@@YAXXZ        1000103a f   POSPower.obj
 0001:00000064       ??__E_AtlBaseModule@ATL@@YAXXZ 10001064 f   atls:atlbase.obj
 0001:00000d71       $LN24                      10001d71     POSPower.obj
 0001:0000569b       $LN48                      1000669b     POSPower.obj
 0001:000056b3       $LN47                      100066b3     POSPower.obj
 0001:00007860       $LN38                      10008860     POSPower.obj
 0001:00007878       $LN37                      10008878     POSPower.obj
 0001:00008f68       $LN76                      10009f68     POSPower.obj
 0001:00008f80       $LN75                      10009f80     POSPower.obj
 0001:00009339       _memcpy_s                  1000a339 f   POSPower.obj
 0001:0000aff0       ?find_pe_section@@YAPAU_IMAGE_SECTION_HEADER@@QAEI@Z 1000bff0 f   LIBCMT:utility.obj
 0001:0000b30f       ?__scrt_initialize_thread_safe_statics@@YAHXZ 1000c30f f   LIBCMT:thread_safe_statics.obj
 0001:0000b336       ?__scrt_initialize_thread_safe_statics_platform_specific@@YAXXZ 1000c336 f   LIBCMT:thread_safe_statics.obj
 0001:0000b3b8       ?__scrt_uninitialize_thread_safe_statics@@YAXXZ 1000c3b8 f   LIBCMT:thread_safe_statics.obj
 0001:0000b727       __catch$??2@YAPAXIABUnothrow_t@std@@@Z$0 1000c727 f   LIBCMT:new_scalar_nothrow.obj
 0001:0000b760       $$000000                   1000c760     LIBCMT:sehprolg4gs.obj
 0001:0000b7c0       $$000000                   1000c7c0     LIBCMT:alloca16.obj
 0001:0000b7f0       $$000000                   1000c7f0     LIBCMT:chkstk.obj
 0001:0000b81d       ?dllmain_crt_dispatch@@YGHQAUHINSTANCE__@@KQAX@Z 1000c81d f   LIBCMT:dll_dllmain.obj
 0001:0000b870       ?dllmain_crt_process_attach@@YAHQAUHINSTANCE__@@QAX@Z 1000c870 f   LIBCMT:dll_dllmain.obj
 0001:0000b977       ?dllmain_crt_process_detach@@YAH_N@Z 1000c977 f   LIBCMT:dll_dllmain.obj
 0001:0000ba27       ?dllmain_dispatch@@YAHQAUHINSTANCE__@@KQAX@Z 1000ca27 f   LIBCMT:dll_dllmain.obj
 0001:0000bb32       ?dllmain_raw@@YGHQAUHINSTANCE__@@KQAX@Z 1000cb32 f   LIBCMT:dll_dllmain.obj
 0001:0000beb0       $$000000                   1000ceb0     LIBCMT:sehprolg4.obj
 0001:0000bf0c       ___get_entropy             1000cf0c f   LIBCMT:gs_support.obj
 0001:0000c203       ??$GetProcAddressAll@P6GP6GJPAUHWND__@@IIJ@ZPAUAtlThunkData_t@@@Z@@YAP6GP6GJPAUHWND__@@IIJ@ZPAUAtlThunkData_t@@@ZPAP6GP6GJ0IIJ@Z1@Z@Z 1000d203 f   atls:atlthunk.obj
 0001:0000c203       ??$GetProcAddressAll@P6GPAUAtlThunkData_t@@XZ@@YAP6GPAUAtlThunkData_t@@XZPAP6GPAU0@XZ@Z 1000d203 f   atls:atlthunk.obj
 0001:0000c203       ??$GetProcAddressAll@P6GXPAUAtlThunkData_t@@@Z@@YAP6GXPAUAtlThunkData_t@@@ZPAP6GX0@Z@Z 1000d203 f   atls:atlthunk.obj
 0001:0000c203       ??$GetProcAddressAll@P6GXPAUAtlThunkData_t@@PAXI@Z@@YAP6GXPAUAtlThunkData_t@@PAXI@ZPAP6GX01I@Z@Z 1000d203 f   atls:atlthunk.obj
 0001:0000c2b3       ?GetProcAddressSingle@@YA_NPAUHINSTANCE__@@PBDPAPAX@Z 1000d2b3 f   atls:atlthunk.obj
 0001:0000c405       ?__InitializeThunkPool@@YAHXZ 1000d405 f   atls:atlthunk.obj
 0001:0000c850       _ValidateLocalCookies      1000d850 f   libvcruntime:chandler4.obj
 0001:0000d87a       $LN1250                    1000e87a     libvcruntime:memcmp.obj
 0001:0000d900       $$000000                   1000e900     libvcruntime:memcpy.obj
 0001:0000db64       TrailingUpVec              1000eb64     libvcruntime:memcpy.obj
 0001:0000dc10       TrailingDownVec            1000ec10     libvcruntime:memcpy.obj
 0001:0000de80       $$000000                   1000ee80     libvcruntime:memset.obj
 0001:0000e483       ?_FilterSetCurrentException@@YAKPAU_EXCEPTION_POINTERS@@E@Z 1000f483 f   libvcruntime:ehhelpers.obj
 0001:0000e6d0       $$000000                   1000f6d0     libvcruntime:memmove.obj
 0001:0000e934       TrailingUpVec              1000f934     libvcruntime:memmove.obj
 0001:0000e9e0       TrailingDownVec            1000f9e0     libvcruntime:memmove.obj
 0001:0000ec50       $$000000                   1000fc50     libvcruntime:exsup4.obj
 0001:0000ece0       __unwind_handler4          1000fce0 f   libvcruntime:exsup4.obj
 0001:0000efbf       ??$BuildCatchObjectHelperInternal@V__FrameHandler3@@@@YAHPAUEHExceptionRecord@@PAXPBU_s_HandlerType@@PBU_s_CatchableType@@@Z 1000ffbf f   libvcruntime:frame.obj
 0001:0000f0fd       ??$BuildCatchObjectInternal@V__FrameHandler3@@@@YAXPAUEHExceptionRecord@@PAXPBU_s_HandlerType@@PBU_s_CatchableType@@@Z 100100fd f   libvcruntime:frame.obj
 0001:0000f196       ??$CatchIt@V__FrameHandler3@@@@YAXPAUEHExceptionRecord@@PAUEHRegistrationNode@@PAU_CONTEXT@@PAXPBU_s_FuncInfo@@PBU_s_HandlerType@@PBU_s_CatchableType@@PBU_s_TryBlockMapEntry@@H1EE@Z 10010196 f   libvcruntime:frame.obj
 0001:0000f216       ??$FindHandler@V__FrameHandler3@@@@YAXPAUEHExceptionRecord@@PAUEHRegistrationNode@@PAU_CONTEXT@@PAXPBU_s_FuncInfo@@EH1@Z 10010216 f   libvcruntime:frame.obj
 0001:0000f5cc       ??$FindHandlerForForeignException@V__FrameHandler3@@@@YAXPAUEHExceptionRecord@@PAUEHRegistrationNode@@PAU_CONTEXT@@PAXPBU_s_FuncInfo@@HH1@Z 100105cc f   libvcruntime:frame.obj
 0001:0000f8e4       ?CallCatchBlock@@YAPAXPAUEHExceptionRecord@@PAUEHRegistrationNode@@PAU_CONTEXT@@PBU_s_FuncInfo@@PAXHK@Z 100108e4 f   libvcruntime:frame.obj
 0001:0000faa8       ?CallUnexpected@@YAXPBU_s_ESTypeList@@@Z 10010aa8 f   libvcruntime:frame.obj
 0001:0000fac8       __catch$?CallUnexpected@@YAXPBU_s_ESTypeList@@@Z$0 10010ac8 f   libvcruntime:frame.obj
 0001:0000fae2       ?ExFilterRethrow@@YAHPAU_EXCEPTION_POINTERS@@@Z 10010ae2 f   libvcruntime:frame.obj
 0001:0000fc2c       ?IsInExceptionSpec@@YAEPAUEHExceptionRecord@@PBU_s_ESTypeList@@@Z 10010c2c f   libvcruntime:frame.obj
 0001:0000fd00       $$000000                   10010d00     libvcruntime:lowhelpr.obj
 0001:0000fd50       $$000000                   10010d50     libvcruntime:exsup.obj
 0001:0000fd71       __unwind_handler           10010d71 f   libvcruntime:exsup.obj
 0001:0000fe8e       ?try_get_first_available_module@@YAPAUHINSTANCE__@@QBW4module_id@?A0x9d0f8d90@@0@Z 10010e8e f   libvcruntime:winapi_downlevel.obj
 0001:0000ff28       ?try_get_function@@YAPAXW4function_id@?A0x9d0f8d90@@QBDQBW4module_id@2@2@Z 10010f28 f   libvcruntime:winapi_downlevel.obj
 0001:000105b2       ??$common_tcsncpy_s@_W@@YAHQA_WIQB_WI@Z 100115b2 f   libucrt:wcsncpy_s.obj
 0001:00010688       ??$common_vsprintf@Vformat_validation_base@__crt_stdio_output@@_W@@YAH_KQA_WIQB_WQAU__crt_locale_pointers@@QAD@Z 10011688 f   libucrt:output.obj
 0001:0001080f       ??$common_vsprintf_s@_W@@YAH_KQA_WIQB_WQAU__crt_locale_pointers@@QAD@Z 1001180f f   libucrt:output.obj
 0001:00010f73       $LN48                      10011f73     libucrt:output.obj
 0001:0001147c       $LN18                      1001247c     libucrt:output.obj
 0001:00011490       $LN17                      10012490     libucrt:output.obj
 0001:00011ceb       ??$?RV<lambda_03b1d95aef87969028cfba75ccab2455>@@AAV<lambda_6e4b09c48022b2350581041d5f6b0c4c>@@V<lambda_22bdf7517842c4b3e53723af5aa32b9e>@@@?$__crt_seh_guarded_call@X@@QAEX$$QAV<lambda_03b1d95aef87969028cfba75ccab2455>@@AAV<lambda_6e4b09c48022b2350581041d5f6b0c4c>@@$$QAV<lambda_22bdf7517842c4b3e53723af5aa32b9e>@@@Z 10012ceb f   libucrt:exit.obj
 0001:00011d38       ??R<lambda_6e4b09c48022b2350581041d5f6b0c4c>@@QBE@XZ 10012d38 f   libucrt:exit.obj
 0001:00011e12       ?atexit_exception_filter@@YAHK@Z 10012e12 f   libucrt:exit.obj
 0001:00011e25       ?common_exit@@YAXHW4_crt_exit_cleanup_mode@@W4_crt_exit_return_mode@@@Z 10012e25 f   libucrt:exit.obj
 0001:00011e89       ?exit_or_terminate_process@@YAXI@Z 10012e89 f   libucrt:exit.obj
 0001:00011ecb       ?is_managed_app@@YA_NXZ    10012ecb f   libucrt:exit.obj
 0001:00011f0e       ?try_cor_exit_process@@YAXI@Z 10012f0e f   libucrt:exit.obj
 0001:00011f9c       ??$common_configure_argv@D@@YAHW4_crt_argv_mode@@@Z 10012f9c f   libucrt:argv_parsing.obj
 0001:000120d2       ??$parse_command_line@D@@YAXPADPAPAD0PAI2@Z 100130d2 f   libucrt:argv_parsing.obj
 0001:000122a0       ??$common_initialize_environment_nolock@D@@YAHXZ 100132a0 f   libucrt:environment_initialization.obj
 0001:000122f3       ??$create_environment@D@@YAQAPADQAD@Z 100132f3 f   libucrt:environment_initialization.obj
 0001:000123c3       ??$free_environment@D@@YAXQAPAD@Z 100133c3 f   libucrt:environment_initialization.obj
 0001:000123c3       ??$free_environment@_W@@YAXQAPA_W@Z 100133c3 f   libucrt:environment_initialization.obj
 0001:0001241b       ??$uninitialize_environment_internal@D@@YAXAAPAPAD@Z 1001341b f   libucrt:environment_initialization.obj
 0001:00012436       ??$uninitialize_environment_internal@_W@@YAXAAPAPA_W@Z 10013436 f   libucrt:environment_initialization.obj
 0001:0001248d       ??$?RV<lambda_69a2805e680e0e292e8ba93315fe43a8>@@AAV<lambda_f03950bc5685219e0bcd2087efbe011e>@@V<lambda_03fcd07e894ec930e3f35da366ca99d6>@@@?$__crt_seh_guarded_call@H@@QAEH$$QAV<lambda_69a2805e680e0e292e8ba93315fe43a8>@@AAV<lambda_f03950bc5685219e0bcd2087efbe011e>@@$$QAV<lambda_03fcd07e894ec930e3f35da366ca99d6>@@@Z 1001348d f   libucrt:onexit.obj
 0001:000124e8       ??$?RV<lambda_8e746cf0007f6ed984d6f78af1fec997>@@AAV<lambda_22ebabd17bc4fa466a2aca6d8deb888d>@@V<lambda_18ed0c0b38a6dc0daf1e7ac6d6adf05e>@@@?$__crt_seh_guarded_call@H@@QAEH$$QAV<lambda_8e746cf0007f6ed984d6f78af1fec997>@@AAV<lambda_22ebabd17bc4fa466a2aca6d8deb888d>@@$$QAV<lambda_18ed0c0b38a6dc0daf1e7ac6d6adf05e>@@@Z 100134e8 f   libucrt:onexit.obj
 0001:00012562       ??R<lambda_22ebabd17bc4fa466a2aca6d8deb888d>@@QBEHXZ 10013562 f   libucrt:onexit.obj
 0001:0001268b       ??R<lambda_f03950bc5685219e0bcd2087efbe011e>@@QBEHXZ 1001368b f   libucrt:onexit.obj
 0001:00012804       _initialize_global_variables 10013804 f   libucrt:initialization.obj
 0001:00012811       _initialize_c              10013811 f   libucrt:initialization.obj
 0001:0001282b       _initialize_environment    1001382b f   libucrt:initialization.obj
 0001:0001282b       _initialize_global_state_isolation 1001382b f   libucrt:initialization.obj
 0001:0001282b       _report_memory_leaks       1001382b f   libucrt:initialization.obj
 0001:0001282b       _uninitialize_c            1001382b f   libucrt:initialization.obj
 0001:0001282b       _uninitialize_global_state_isolation 1001382b f   libucrt:initialization.obj
 0001:0001282e       _uninitialize_environment  1001382e f   libucrt:initialization.obj
 0001:00012836       _initialize_pointers       10013836 f   libucrt:initialization.obj
 0001:00012864       _uninitialize_vcruntime    10013864 f   libucrt:initialization.obj
 0001:0001286d       _uninitialize_allocated_memory 1001386d f   libucrt:initialization.obj
 0001:00012884       _uninitialize_allocated_io_buffers 10013884 f   libucrt:initialization.obj
 0001:000128d4       ??R<lambda_af42a3ee9806e9a7305d451646e05244>@@QBEXAAPAU__crt_multibyte_data@@@Z 100138d4 f   libucrt:initialization.obj
 0001:000131c0       $$000000                   100141c0     libucrt:strncmp.obj
 0001:000132ac       ??$?RV<lambda_15ade71b0218206bbe3333a0c9b79046>@@AAV<lambda_da44e0f8b0f19ba52fefafb335991732>@@V<lambda_207f2d024fc103971653565357d6cd41>@@@?$__crt_seh_guarded_call@X@@QAEX$$QAV<lambda_15ade71b0218206bbe3333a0c9b79046>@@AAV<lambda_da44e0f8b0f19ba52fefafb335991732>@@$$QAV<lambda_207f2d024fc103971653565357d6cd41>@@@Z 100142ac f   libucrt:per_thread_data.obj
 0001:000132fe       ??$?RV<lambda_38edbb1296d33220d7e4dd0ed76b244a>@@AAV<lambda_5ce1d447e08cb34b2473517608e21441>@@V<lambda_fb385d3da700c9147fc39e65dd577a8c>@@@?$__crt_seh_guarded_call@X@@QAEX$$QAV<lambda_38edbb1296d33220d7e4dd0ed76b244a>@@AAV<lambda_5ce1d447e08cb34b2473517608e21441>@@$$QAV<lambda_fb385d3da700c9147fc39e65dd577a8c>@@@Z 100142fe f   libucrt:per_thread_data.obj
 0001:00013369       ??$?RV<lambda_6affb1475c98b40b75cdec977db92e3c>@@AAV<lambda_b8d4b9c228a6ecc3f80208dbb4b4a104>@@V<lambda_608742c3c92a14382c1684fc64f96c88>@@@?$__crt_seh_guarded_call@X@@QAEX$$QAV<lambda_6affb1475c98b40b75cdec977db92e3c>@@AAV<lambda_b8d4b9c228a6ecc3f80208dbb4b4a104>@@$$QAV<lambda_608742c3c92a14382c1684fc64f96c88>@@@Z 10014369 f   libucrt:per_thread_data.obj
 0001:000133be       ??$?RV<lambda_a7e850c220f1c8d1e6efeecdedd162c6>@@AAV<lambda_46720907175c18b6c9d2717bc0d2d362>@@V<lambda_9048902d66e8d99359bc9897bbb930a8>@@@?$__crt_seh_guarded_call@X@@QAEX$$QAV<lambda_a7e850c220f1c8d1e6efeecdedd162c6>@@AAV<lambda_46720907175c18b6c9d2717bc0d2d362>@@$$QAV<lambda_9048902d66e8d99359bc9897bbb930a8>@@@Z 100143be f   libucrt:per_thread_data.obj
 0001:00013418       ?construct_ptd@@YAXQAU__acrt_ptd@@QAPAU__crt_locale_data@@@Z 10014418 f   libucrt:per_thread_data.obj
 0001:000134b1       ?destroy_fls@@YGXPAX@Z     100144b1 f   libucrt:per_thread_data.obj
 0001:000134d2       ?destroy_ptd@@YAXQAU__acrt_ptd@@@Z 100144d2 f   libucrt:per_thread_data.obj
 0001:0001359f       ?replace_current_thread_locale_nolock@@YAXQAU__acrt_ptd@@QAU__crt_locale_data@@@Z 1001459f f   libucrt:per_thread_data.obj
 0001:000139af       ?try_get_AreFileApisANSI@@YAP6GHXZXZ 100149af f   libucrt:winapi_thunks.obj
 0001:000139c9       ?try_get_LCMapStringEx@@YAP6GHPB_WK0HPA_WHPAU_nlsversioninfo@@PAXJ@ZXZ 100149c9 f   libucrt:winapi_thunks.obj
 0001:000139e3       ?try_get_LocaleNameToLCID@@YAP6GKPB_WK@ZXZ 100149e3 f   libucrt:winapi_thunks.obj
 0001:000139fd       ?try_get_first_available_module@@YAPAUHINSTANCE__@@QBW4module_id@?A0x391cf84c@@0@Z 100149fd f   libucrt:winapi_thunks.obj
 0001:00013ac4       ?try_get_function@@YAPAXW4function_id@?A0x391cf84c@@QBDQBW4module_id@2@2@Z 10014ac4 f   libucrt:winapi_thunks.obj
 0001:00014227       ?fe_to_nearest@@YA_NQBN_KF@Z 10015227 f   libucrt:cvt.obj
 0001:000142ca       ?fp_format_a@@YAHQBNPADIQADIH_NIQAU__crt_locale_pointers@@W4__acrt_rounding_mode@@@Z 100152ca f   libucrt:cvt.obj
 0001:000145d9       ?fp_format_e@@YAHQBNQADI1IH_NIQAU__crt_locale_pointers@@W4__acrt_rounding_mode@@@Z 100155d9 f   libucrt:cvt.obj
 0001:00014681       ?fp_format_e_internal@@YAHQADIH_NIQAU_strflt@@1QAU__crt_locale_pointers@@@Z 10015681 f   libucrt:cvt.obj
 0001:000147c9       ?fp_format_f@@YAHQBNQADI1IHQAU__crt_locale_pointers@@W4__acrt_rounding_mode@@@Z 100157c9 f   libucrt:cvt.obj
 0001:0001485a       ?fp_format_f_internal@@YAHQADIHQAU_strflt@@_NQAU__crt_locale_pointers@@@Z 1001585a f   libucrt:cvt.obj
 0001:00014952       ?fp_format_g@@YAHQBNQADI1IH_NIQAU__crt_locale_pointers@@@Z 10015952 f   libucrt:cvt.obj
 0001:00014a1b       ?fp_format_nan_or_infinity@@YAHW4__acrt_fp_class@@_NPADI1@Z 10015a1b f   libucrt:cvt.obj
 0001:00014ab0       ?shift_bytes@@YAXQADI0H@Z  10015ab0 f   libucrt:cvt.obj
 0001:00014ae4       ?should_round_up@@YA_NQBN_KFW4__acrt_rounding_mode@@@Z 10015ae4 f   libucrt:cvt.obj
 0001:00014e4d       ??$?RV<lambda_e5124f882df8998aaf41531e079ba474>@@AAV<lambda_3e16ef9562a7dcce91392c22ab16ea36>@@V<lambda_e25ca0880e6ef98be67edffd8c599615>@@@?$__crt_seh_guarded_call@X@@QAEX$$QAV<lambda_e5124f882df8998aaf41531e079ba474>@@AAV<lambda_3e16ef9562a7dcce91392c22ab16ea36>@@$$QAV<lambda_e25ca0880e6ef98be67edffd8c599615>@@@Z 10015e4d f   libucrt:wsetlocale.obj
 0001:00014eed       ?initialize_inherited_file_handles_nolock@@YAXXZ 10015eed f   libucrt:ioinit.obj
 0001:00014fa3       ?initialize_stdio_handles_nolock@@YAXXZ 10015fa3 f   libucrt:ioinit.obj
 0001:000151b4       ?<lambda_invoker_cdecl>@<lambda_838c7f62c73c983481e27c09e84b0b5d>@@CAHPBX0@Z 100161b4 f   libucrt:argv_wildcards.obj
 0001:000151cc       ??$__acrt_convert_wcs_mbs_cp@D_WV<lambda_62f6974d9771e494a5ea317cc32e971c>@@U__crt_win32_buffer_internal_dynamic_resizing@@@@YAHQBDAAV?$__crt_win32_buffer@_WU__crt_win32_buffer_internal_dynamic_resizing@@@@ABV<lambda_62f6974d9771e494a5ea317cc32e971c>@@I@Z 100161cc f   libucrt:argv_wildcards.obj
 0001:0001527e       ??$__acrt_convert_wcs_mbs_cp@_WDV<lambda_28bda7af82a03b66c1cb3803a755f95d>@@U__crt_win32_buffer_internal_dynamic_resizing@@@@YAHQB_WAAV?$__crt_win32_buffer@DU__crt_win32_buffer_internal_dynamic_resizing@@@@ABV<lambda_28bda7af82a03b66c1cb3803a755f95d>@@I@Z 1001627e f   libucrt:argv_wildcards.obj
 0001:0001536a       ??$common_expand_argv_wildcards@D@@YAHQAPADQAPAPAD@Z 1001636a f   libucrt:argv_wildcards.obj
 0001:00015559       ??$copy_and_add_argument_to_buffer@D@@YAHQBD0IAAV?$argument_list@D@?A0x5f5c8891@@@Z 10016559 f   libucrt:argv_wildcards.obj
 0001:0001560a       ??$expand_argument_wildcards@D@@YAHQAD0AAV?$argument_list@D@?A0x5f5c8891@@@Z 1001660a f   libucrt:argv_wildcards.obj
 0001:00015954       ?expand_if_necessary@?$argument_list@D@?A0x5f5c8891@@AAEHXZ 10016954 f   libucrt:argv_wildcards.obj
 0001:000159e6       ??$__acrt_convert_wcs_mbs_cp@_WDV<lambda_0fec1a7b3f42a53036604e18c2d5e07e>@@U__crt_win32_buffer_no_resizing@@@@YAHQB_WAAV?$__crt_win32_buffer@DU__crt_win32_buffer_no_resizing@@@@ABV<lambda_0fec1a7b3f42a53036604e18c2d5e07e>@@I@Z 100169e6 f   libucrt:getmodulefilenamea.obj
 0001:00015b89       ??$?RV<lambda_ceb1ee4838e85a9d631eb091e2fbe199>@@AAV<lambda_ae742caa10f662c28703da3d2ea5e57e>@@V<lambda_cd08b5d6af4937fe54fc07d0c9bf6b37>@@@?$__crt_seh_guarded_call@X@@QAEX$$QAV<lambda_ceb1ee4838e85a9d631eb091e2fbe199>@@AAV<lambda_ae742caa10f662c28703da3d2ea5e57e>@@$$QAV<lambda_cd08b5d6af4937fe54fc07d0c9bf6b37>@@@Z 10016b89 f   libucrt:mbctype.obj
 0001:00015bd6       ??R<lambda_ae742caa10f662c28703da3d2ea5e57e>@@QBEXXZ 10016bd6 f   libucrt:mbctype.obj
 0001:00015c59       ?CPtoLocaleName@@YAPB_WH@Z 10016c59 f   libucrt:mbctype.obj
 0001:00015c97       ?getSystemCP@@YAHH@Z       10016c97 f   libucrt:mbctype.obj
 0001:00015d08       ?setSBCS@@YAXPAU__crt_multibyte_data@@@Z 10016d08 f   libucrt:mbctype.obj
 0001:00015d6d       ?setSBUpLow@@YAXPAU__crt_multibyte_data@@@Z 10016d6d f   libucrt:mbctype.obj
 0001:00015eed       ?setmbcp_internal@@YAHH_NQAU__acrt_ptd@@QAPAU__crt_multibyte_data@@@Z 10016eed f   libucrt:mbctype.obj
 0001:00016001       ?update_thread_multibyte_data_internal@@YAPAU__crt_multibyte_data@@QAU__acrt_ptd@@QAPAU1@@Z 10017001 f   libucrt:mbctype.obj
 0001:000162ef       _memcpy_s                  100172ef f   libucrt:cfout.obj
 0001:000162ef       _memcpy_s                  100172ef f   libucrt:mbctype.obj
 0001:00016370       ?x_ismbbtype_l@@YAHPAU__crt_locale_pointers@@IHH@Z 10017370 f   libucrt:ismbbyte.obj
 0001:0001652b       ?find_end_of_double_null_terminated_sequence@@YAPB_WQB_W@Z 1001752b f   libucrt:get_environment_from_os.obj
 0001:0001669a       ??$?RV<lambda_cbab9ec6f41b0180b23cc171c22676b0>@@AAV<lambda_44731a7d0e6d81c3e6aa82d741081786>@@V<lambda_4b292cb8dd18144e164572427af410ab>@@@?$__crt_seh_guarded_call@P6AXH@Z@@QAEP6AXH@Z$$QAV<lambda_cbab9ec6f41b0180b23cc171c22676b0>@@AAV<lambda_44731a7d0e6d81c3e6aa82d741081786>@@$$QAV<lambda_4b292cb8dd18144e164572427af410ab>@@@Z 1001769a f   libucrt:signal.obj
 0001:000166fe       ?get_global_action_nolock@@YAPAP6AXH@ZH@Z 100176fe f   libucrt:signal.obj
 0001:00016740       ?siglookup@@YAPAU__crt_signal_action_t@@HQAU1@@Z 10017740 f   libucrt:signal.obj
 0001:000169f9       ??$?RV<lambda_2866be3712abc81a800a822484c830d8>@@AAV<lambda_39ca0ed439415581b5b15c265174cece>@@V<lambda_2b24c74d71094a6cd0cb82e44167d71b>@@@?$__crt_seh_guarded_call@X@@QAEX$$QAV<lambda_2866be3712abc81a800a822484c830d8>@@AAV<lambda_39ca0ed439415581b5b15c265174cece>@@$$QAV<lambda_2b24c74d71094a6cd0cb82e44167d71b>@@@Z 100179f9 f   libucrt:fflush.obj
 0001:00016a85       ??$?RV<lambda_2cc53f568c5a2bb6f192f930a45d44ea>@@AAV<lambda_ab61a845afdef5b7c387490eaf3616ee>@@V<lambda_c2ffc0b7726aa6be21d5f0026187e748>@@@?$__crt_seh_guarded_call@X@@QAEX$$QAV<lambda_2cc53f568c5a2bb6f192f930a45d44ea>@@AAV<lambda_ab61a845afdef5b7c387490eaf3616ee>@@$$QAV<lambda_c2ffc0b7726aa6be21d5f0026187e748>@@@Z 10017a85 f   libucrt:fflush.obj
 0001:00016b31       ?common_flush_all@@YAH_N@Z 10017b31 f   libucrt:fflush.obj
 0001:00016b7e       ?common_flush_all_should_try_to_flush_stream@@YA_NV__crt_stdio_stream@@QAH@Z 10017b7e f   libucrt:fflush.obj
 0001:00016bb1       ?is_stream_flushable_or_commitable@@YA_NJ@Z 10017bb1 f   libucrt:fflush.obj
 0001:000170ba       ?GetTableIndexFromLocaleName@@YAHPB_W@Z 100180ba f   libucrt:lcidtoname_downlevel.obj
 0001:00017170       ??R<lambda_3d301b9e52f5099be73030e1f0bf487e>@@QBEIPBD@Z 10018170 f   libucrt:mbrtowc.obj
 0001:000172f6       ?should_round_up@@YA_NQBDHW4__acrt_has_trailing_digits@@W4__acrt_rounding_mode@@@Z 100182f6 f   libucrt:_fptostr.obj
 0001:00019094       ?free_crt_array_internal@@YAXQAPBXI@Z 1001a094 f   libucrt:inittime.obj
 0001:00019a5e       ??$common_tcsncpy_s@D@@YAHQADIQBDI@Z 1001aa5e f   libucrt:strncpy_s.obj
 0001:00019b20       $$000000                   1001ab20     libucrt:strpbrk.obj
 0001:00019c04       ?__acrt_LCMapStringA_stat@@YAHPAU__crt_locale_pointers@@PB_WKPBDHPADHHH@Z 1001ac04 f   libucrt:lcmapstringa.obj
 0001:00019e37       ?initialize_multibyte@@YAHXZ 1001ae37 f   libucrt:multibyte_initializer.obj
 0001:00019e46       ??$?RV<lambda_9e9de3de5fa147e2223d7db92bc10aa6>@@AAV<lambda_38ce7e780aa69e748d6df282ebc68efe>@@V<lambda_8ca6da459f0f6780f1cff60fdc3d00e5>@@@?$__crt_seh_guarded_call@H@@QAEH$$QAV<lambda_9e9de3de5fa147e2223d7db92bc10aa6>@@AAV<lambda_38ce7e780aa69e748d6df282ebc68efe>@@$$QAV<lambda_8ca6da459f0f6780f1cff60fdc3d00e5>@@@Z 1001ae46 f   libucrt:commit.obj
 0001:00019f65       ?write_double_translated_ansi_nolock@@YA?AUwrite_result@?A0x17268360@@HQBDI@Z 1001af65 f   libucrt:write.obj
 0001:0001a311       ?write_double_translated_unicode_nolock@@YA?AUwrite_result@?A0x17268360@@QBDI@Z 1001b311 f   libucrt:write.obj
 0001:0001a379       ?write_requires_double_translation_nolock@@YA_NH@Z 1001b379 f   libucrt:write.obj
 0001:0001a3ea       ?write_text_ansi_nolock@@YA?AUwrite_result@?A0x17268360@@HQBDI@Z 1001b3ea f   libucrt:write.obj
 0001:0001a4c5       ?write_text_utf16le_nolock@@YA?AUwrite_result@?A0x17268360@@HQBDI@Z 1001b4c5 f   libucrt:write.obj
 0001:0001a5ae       ?write_text_utf8_nolock@@YA?AUwrite_result@?A0x17268360@@HQBDI@Z 1001b5ae f   libucrt:write.obj
 0001:0001acd0       $$000000                   1001bcd0     libucrt:log10_impl.obj
 0001:0001ade0       $$000000                   1001bde0     libucrt:ceil_pentium4.obj
 0001:0001aefd       ?to_abstract_control@@YA?AW4__acrt_fenv_abstract_control@@W4__acrt_fenv_machine_sse_control@@@Z 1001befd f   libucrt:_fenvutils.obj
 0001:0001afb9       ?to_abstract_control@@YA?AW4__acrt_fenv_abstract_control@@W4__acrt_fenv_machine_x87_control@@@Z 1001bfb9 f   libucrt:_fenvutils.obj
 0001:0001b072       ?to_machine_sse_control@@YA?AW4__acrt_fenv_machine_sse_control@@W4__acrt_fenv_abstract_control@@@Z 1001c072 f   libucrt:_fenvutils.obj
 0001:0001b13f       ?to_machine_x87_control@@YA?AW4__acrt_fenv_machine_x87_control@@W4__acrt_fenv_abstract_control@@@Z 1001c13f f   libucrt:_fenvutils.obj
 0001:0001b4d3       ??$common_lseek_nolock@_J@@YA_JH_JH@Z 1001c4d3 f   libucrt:lseek.obj
 0001:0001b6b9       ___hw_cw_sse2              1001c6b9 f   libucrt:ieee87.obj
 0001:0001bb3f       __hw_cw                    1001cb3f f   libucrt:ieee87.obj
 0001:0001bbf0       $$000000                   1001cbf0     libucrt:log10_pentium4.obj
 0001:0001be80       $$000000                   1001ce80     libucrt:87tran.obj
 0001:0001c090       $$000000                   1001d090     libucrt:87disp.obj
 0001:0001c2f0       $$000000                   1001d2f0     libucrt:common.obj
 0001:0001c480       $$000000                   1001d480     libucrt:genexcep.obj
 0001:0001c77c       ??$?RV<lambda_218ce3db14220d0be481dae8ef3383b6>@@AAV<lambda_628dfdc04ba53c8bfc02c9951375f3f5>@@V<lambda_57dc472bd5c9d5f3b2cbca59b8a843ae>@@@?$__crt_seh_guarded_call@H@@QAEH$$QAV<lambda_218ce3db14220d0be481dae8ef3383b6>@@AAV<lambda_628dfdc04ba53c8bfc02c9951375f3f5>@@$$QAV<lambda_57dc472bd5c9d5f3b2cbca59b8a843ae>@@@Z 1001d77c f   libucrt:close.obj
 0001:0001c970       $$000000                   1001d970     libucrt:_strnicm.obj
 0001:0001c9d1       ?__dcrt_lowio_initialize_console_output@@YAXXZ 1001d9d1 f   libucrt:initcon.obj
 0001:0001d8b0       $$000000                   1001e8b0     LIBCMT:ulldvrm.obj
 0001:0001d950       $$000000                   1001e950     LIBCMT:llmul.obj
 0001:0001d990       $$000000                   1001e990     LIBCMT:lldvrm.obj
 0001:0001da70       $$000000                   1001ea70     LIBCMT:llshl.obj
 0001:0001da90       $$000000                   1001ea90     LIBCMT:ullshr.obj
 0001:0001dab0       $$000000                   1001eab0     LIBCMT:ftol2.obj
 0001:0001dd50       $$000000                   1001ed50     libvcruntime:strrchr.obj
 0001:0001de90       $$000000                   1001ee90     libvcruntime:strchr.obj
 0001:0001e033       __ehhandler$??2@YAPAXIABUnothrow_t@std@@@Z 1001f033 f   LIBCMT:new_scalar_nothrow.obj
 0001:0001e04e       __ehhandler$?CallUnexpected@@YAXPBU_s_ESTypeList@@@Z 1001f04e f   libvcruntime:frame.obj
 0001:0001e069       ??__F_AtlComModule@ATL@@YAXXZ 1001f069 f   OposVariant.obj
 0001:0001e073       ??__F_AtlWinModule@ATL@@YAXXZ 1001f073 f   OposVariant.obj
 0001:0001e08d       ??__F_Module@@YAXXZ        1001f08d f   POSPower.obj
 0001:0001e0a1       ??__F_AtlBaseModule@ATL@@YAXXZ 1001f0a1 f   atls:atlbase.obj
 0002:00000304       ?_AtlBaseModule$initializer$@ATL@@3P6AXXZA 10020304     atls:atlbase.obj
 0002:00000308       ?_AtlComModule$initializer$@ATL@@3P6AXXZA 10020308     OposVariant.obj
 0002:0000030c       ?_AtlWinModule$initializer$@ATL@@3P6AXXZA 1002030c     OposVariant.obj
 0002:00000310       ?_Module$initializer$@@3P6AXXZA 10020310     POSPower.obj
 0002:00000314       ??pConnMap$initializer$@?$IConnectionPointContainerImpl@VCOPOSPOSPower@@@ATL@@0P6AXXZA@@3P6AXXZA 10020314     POSPower.obj
 0002:00000320       ?__scrt_initialize_tss_var@@3P6AHXZA 10020320     LIBCMT:thread_safe_statics.obj
 0002:00001838       _GS_ExceptionPointers      10021838     LIBCMT:gs_report.obj
 0002:000019c8       ?tokenTable@@3QBUStringLiteral@@B 100219c8     libvcruntime:undname.obj
 0002:00001a48       ?nameTable@@3QBUStringLiteral@@B 10021a48     libvcruntime:undname.obj
 0002:00001ce0       ?rttiTable@@3QBUStringLiteral@@B 10021ce0     libvcruntime:undname.obj
 0002:00001d08       ?IndirectionName@@3QBUStringLiteral@@B 10021d08     libvcruntime:undname.obj
 0002:00001d38       ?PrefixName@@3QBUStringLiteral@@B 10021d38     libvcruntime:undname.obj
 0002:00002368       ?module_names@?A0x9d0f8d90@@3QBQB_WB 10022368     libvcruntime:winapi_downlevel.obj
 0002:00002410       ?candidate_modules@?1??try_get_FlsAlloc@@YAP6GKP6GXPAX@Z@ZXZ@4QBW4module_id@?A0x9d0f8d90@@B 10022410     libvcruntime:winapi_downlevel.obj
 0002:00002424       ?candidate_modules@?1??try_get_FlsFree@@YAP6GHK@ZXZ@4QBW4module_id@?A0x9d0f8d90@@B 10022424     libvcruntime:winapi_downlevel.obj
 0002:00002434       ?candidate_modules@?1??try_get_FlsGetValue@@YAP6GPAXK@ZXZ@4QBW4module_id@?A0x9d0f8d90@@B 10022434     libvcruntime:winapi_downlevel.obj
 0002:00002448       ?candidate_modules@?1??try_get_FlsSetValue@@YAP6GHKPAX@ZXZ@4QBW4module_id@?A0x9d0f8d90@@B 10022448     libvcruntime:winapi_downlevel.obj
 0002:0000245c       ?candidate_modules@?1??try_get_InitializeCriticalSectionEx@@YAP6GHPAU_RTL_CRITICAL_SECTION@@KK@ZXZ@4QBW4module_id@?A0x9d0f8d90@@B 1002245c     libvcruntime:winapi_downlevel.obj
 0002:00002480       ?errtable@@3QBUerrentry@?A0x31fdb9ec@@B 10022480     libucrt:errno.obj
 0002:00002ac8       ___acrt_initializers       10022ac8     libucrt:initialization.obj
 0002:00002b48       ?module_names@?A0x391cf84c@@3QBQB_WB 10022b48     libucrt:winapi_thunks.obj
 0002:00002fc0       ?candidate_modules@?1??try_get_AreFileApisANSI@@YAP6GHXZXZ@4QBW4module_id@?A0x391cf84c@@B 10022fc0     libucrt:winapi_thunks.obj
 0002:00002fd4       ?candidate_modules@?1??try_get_FlsAlloc@@YAP6GKP6GXPAX@Z@ZXZ@4QBW4module_id@?A0x391cf84c@@B 10022fd4     libucrt:winapi_thunks.obj
 0002:00002fdc       ?candidate_modules@?1??try_get_FlsFree@@YAP6GHK@ZXZ@4QBW4module_id@?A0x391cf84c@@B 10022fdc     libucrt:winapi_thunks.obj
 0002:00002fe4       ?candidate_modules@?1??try_get_FlsGetValue@@YAP6GPAXK@ZXZ@4QBW4module_id@?A0x391cf84c@@B 10022fe4     libucrt:winapi_thunks.obj
 0002:00002fec       ?candidate_modules@?1??try_get_FlsSetValue@@YAP6GHKPAX@ZXZ@4QBW4module_id@?A0x391cf84c@@B 10022fec     libucrt:winapi_thunks.obj
 0002:00002ff4       ?candidate_modules@?1??try_get_InitializeCriticalSectionEx@@YAP6GHPAU_RTL_CRITICAL_SECTION@@KK@ZXZ@4QBW4module_id@?A0x391cf84c@@B 10022ff4     libucrt:winapi_thunks.obj
 0002:00002ffc       ?candidate_modules@?1??try_get_LCMapStringEx@@YAP6GHPB_WK0HPA_WHPAU_nlsversioninfo@@PAXJ@ZXZ@4QBW4module_id@?A0x391cf84c@@B 10022ffc     libucrt:winapi_thunks.obj
 0002:00003014       ?candidate_modules@?1??try_get_LocaleNameToLCID@@YAP6GKPB_WK@ZXZ@4QBW4module_id@?A0x391cf84c@@B 10023014     libucrt:winapi_thunks.obj
 0002:00003030       ?candidate_modules@?1??try_get_AppPolicyGetProcessTerminationMethod@@YAP6GJPAXPAW4AppPolicyProcessTerminationMethod@@@ZXZ@4QBW4module_id@?A0x391cf84c@@B 10023030     libucrt:winapi_thunks.obj
 0002:0000305c       ?candidate_modules@?1??try_get_SetThreadStackGuarantee@@YAP6GHPAK@ZXZ@4QBW4module_id@?A0x391cf84c@@B 1002305c     libucrt:winapi_thunks.obj
 0002:00003080       ?strings@?1??fp_format_nan_or_infinity@@YAHW4__acrt_fp_class@@_NPADI1@Z@4QAY03QBDA 10023080     libucrt:cvt.obj
 0002:000035c8       ?_mb_locale_names@@3QBQB_WB 100235c8     libucrt:mbctype.obj
 0002:00003e10       ?LcidToLocaleNameTable@?A0x881e4c05@@3QBULcidToLocaleName@1@B 10023e10     libucrt:lcidtoname_downlevel.obj
 0002:00004f38       ?LocaleNameToIndexTable@?A0x881e4c05@@3QBULocaleNameIndex@1@B 10024f38     libucrt:lcidtoname_downlevel.obj
 0002:00006870       LOG_name                   10026870     libucrt:log10_impl.obj
 0002:00006880       _One                       10026880     libucrt:ceil_pentium4.obj
 0002:00006890       _Bns                       10026890     libucrt:ceil_pentium4.obj
 0002:000068a0       _Zero                      100268a0     libucrt:ceil_pentium4.obj
 0002:000068b0       _S                         100268b0     libucrt:ceil_pentium4.obj
 0002:000068c0       _NegZero                   100268c0     libucrt:ceil_pentium4.obj
 0002:000068d0       emask                      100268d0     libucrt:log10_pentium4.obj
 0002:000068e0       CC                         100268e0     libucrt:log10_pentium4.obj
 0002:000068f0       Magic                      100268f0     libucrt:log10_pentium4.obj
 0002:00006900       hi_mask                    10026900     libucrt:log10_pentium4.obj
 0002:00006910       LOG10_2                    10026910     libucrt:log10_pentium4.obj
 0002:00006920       place_L                    10026920     libucrt:log10_pentium4.obj
 0002:00006940       One                        10026940     libucrt:log10_pentium4.obj
 0002:00006950       Zero                       10026950     libucrt:log10_pentium4.obj
 0002:00006960       Two52                      10026960     libucrt:log10_pentium4.obj
 0002:00006970       Infs                       10026970     libucrt:log10_pentium4.obj
 0002:00006980       NaN                        10026980     libucrt:log10_pentium4.obj
 0002:00006990       coeff                      10026990     libucrt:log10_pentium4.obj
 0002:000069ee       _log2max                   100269ee     libucrt:87tran.obj
 0002:000069f8       _smallarg                  100269f8     libucrt:87tran.obj
 0002:00006a02       _half                      10026a02     libucrt:87tran.obj
 0002:00006a4e       One                        10026a4e     libucrt:87disp.obj
 0002:00006a56       Three                      10026a56     libucrt:87disp.obj
 0002:00006a5e       XAMtoTagTab                10026a5e     libucrt:87disp.obj
 0002:00006a70       One                        10026a70     libucrt:common.obj
 0002:00006a84       DblMax                     10026a84     libucrt:common.obj
 0002:00006a8c       DblMin                     10026a8c     libucrt:common.obj
 0002:00006a94       IeeeAdjO                   10026a94     libucrt:common.obj
 0002:00006a9c       IeeeAdjU                   10026a9c     libucrt:common.obj
 0002:00006aa4       _infinity                  10026aa4     libucrt:common.obj
 0002:00006aac       _zero                      10026aac     libucrt:common.obj
 0002:00006af8       _over                      10026af8     libucrt:fpctrl.obj
 0002:00006b04       _under                     10026b04     libucrt:fpctrl.obj
 0002:00007338       ?_names@?1??_get_fname@@9@9 10027338     libucrt:fpexcept.obj
 0002:000074e0       two32                      100274e0     LIBCMT:ftol2.obj
 0002:000074e4       two63                      100274e4     LIBCMT:ftol2.obj
 0002:000074e8       _NaN                       100274e8     LIBCMT:ftol2.obj
 0002:00007ba0       __sehtable$?_AtlVerifyStackAvailable@_ATL_SAFE_ALLOCA_IMPL@ATL@@YA_NK@Z 10027ba0     POSPower.obj
 0002:00007bc0       __sehtable$___scrt_is_nonwritable_in_current_image 10027bc0     LIBCMT:utility.obj
 0002:00007bdc       __catchsym$??2@YAPAXIABUnothrow_t@std@@@Z$2 10027bdc     LIBCMT:new_scalar_nothrow.obj
 0002:00007bec       __unwindtable$??2@YAPAXIABUnothrow_t@std@@@Z 10027bec     LIBCMT:new_scalar_nothrow.obj
 0002:00007bfc       __tryblocktable$??2@YAPAXIABUnothrow_t@std@@@Z 10027bfc     LIBCMT:new_scalar_nothrow.obj
 0002:00007c10       __ehfuncinfo$??2@YAPAXIABUnothrow_t@std@@@Z 10027c10     LIBCMT:new_scalar_nothrow.obj
 0002:00007c38       __sehtable$?dllmain_crt_process_attach@@YAHQAUHINSTANCE__@@QAX@Z 10027c38     LIBCMT:dll_dllmain.obj
 0002:00007c58       __sehtable$?dllmain_crt_process_detach@@YAH_N@Z 10027c58     LIBCMT:dll_dllmain.obj
 0002:00007c80       __sehtable$?dllmain_dispatch@@YAHQAUHINSTANCE__@@KQAX@Z 10027c80     LIBCMT:dll_dllmain.obj
 0002:00007d30       __sehtable$___DestructExceptionObject 10027d30     libvcruntime:ehhelpers.obj
 0002:00007d50       __sehtable$?FrameUnwindToState@__FrameHandler3@@SAXPAUEHRegistrationNode@@PAXPBU_s_FuncInfo@@H@Z 10027d50     libvcruntime:frame.obj
 0002:00007d78       __sehtable$?CallCatchBlock@@YAPAXPAUEHExceptionRecord@@PAUEHRegistrationNode@@PAU_CONTEXT@@PBU_s_FuncInfo@@PAXHK@Z 10027d78     libvcruntime:frame.obj
 0002:00007da0       __catchsym$?CallUnexpected@@YAXPBU_s_ESTypeList@@@Z$2 10027da0     libvcruntime:frame.obj
 0002:00007db0       __unwindtable$?CallUnexpected@@YAXPBU_s_ESTypeList@@@Z 10027db0     libvcruntime:frame.obj
 0002:00007dc0       __tryblocktable$?CallUnexpected@@YAXPBU_s_ESTypeList@@@Z 10027dc0     libvcruntime:frame.obj
 0002:00007dd4       __ehfuncinfo$?CallUnexpected@@YAXPBU_s_ESTypeList@@@Z 10027dd4     libvcruntime:frame.obj
 0002:00007df8       __sehtable$??$BuildCatchObjectHelperInternal@V__FrameHandler3@@@@YAHPAUEHExceptionRecord@@PAXPBU_s_HandlerType@@PBU_s_CatchableType@@@Z 10027df8     libvcruntime:frame.obj
 0002:00007e18       __sehtable$??$BuildCatchObjectInternal@V__FrameHandler3@@@@YAXPAUEHExceptionRecord@@PAXPBU_s_HandlerType@@PBU_s_CatchableType@@@Z 10027e18     libvcruntime:frame.obj
 0002:00007e70       __sehtable$??R<lambda_6e4b09c48022b2350581041d5f6b0c4c>@@QBE@XZ 10027e70     libucrt:exit.obj
 0002:00007e90       __sehtable$??$?RV<lambda_03b1d95aef87969028cfba75ccab2455>@@AAV<lambda_6e4b09c48022b2350581041d5f6b0c4c>@@V<lambda_22bdf7517842c4b3e53723af5aa32b9e>@@@?$__crt_seh_guarded_call@X@@QAEX$$QAV<lambda_03b1d95aef87969028cfba75ccab2455>@@AAV<lambda_6e4b09c48022b2350581041d5f6b0c4c>@@$$QAV<lambda_22bdf7517842c4b3e53723af5aa32b9e>@@@Z 10027e90     libucrt:exit.obj
 0002:00007eb0       __sehtable$??$?RV<lambda_8e746cf0007f6ed984d6f78af1fec997>@@AAV<lambda_22ebabd17bc4fa466a2aca6d8deb888d>@@V<lambda_18ed0c0b38a6dc0daf1e7ac6d6adf05e>@@@?$__crt_seh_guarded_call@H@@QAEH$$QAV<lambda_8e746cf0007f6ed984d6f78af1fec997>@@AAV<lambda_22ebabd17bc4fa466a2aca6d8deb888d>@@$$QAV<lambda_18ed0c0b38a6dc0daf1e7ac6d6adf05e>@@@Z 10027eb0     libucrt:onexit.obj
 0002:00007ed0       __sehtable$??$?RV<lambda_69a2805e680e0e292e8ba93315fe43a8>@@AAV<lambda_f03950bc5685219e0bcd2087efbe011e>@@V<lambda_03fcd07e894ec930e3f35da366ca99d6>@@@?$__crt_seh_guarded_call@H@@QAEH$$QAV<lambda_69a2805e680e0e292e8ba93315fe43a8>@@AAV<lambda_f03950bc5685219e0bcd2087efbe011e>@@$$QAV<lambda_03fcd07e894ec930e3f35da366ca99d6>@@@Z 10027ed0     libucrt:onexit.obj
 0002:00007ef0       __sehtable$__query_new_handler 10027ef0     libucrt:new_handler.obj
 0002:00007f10       __sehtable$_terminate      10027f10     libucrt:terminate.obj
 0002:00007f30       __sehtable$??$?RV<lambda_15ade71b0218206bbe3333a0c9b79046>@@AAV<lambda_da44e0f8b0f19ba52fefafb335991732>@@V<lambda_207f2d024fc103971653565357d6cd41>@@@?$__crt_seh_guarded_call@X@@QAEX$$QAV<lambda_15ade71b0218206bbe3333a0c9b79046>@@AAV<lambda_da44e0f8b0f19ba52fefafb335991732>@@$$QAV<lambda_207f2d024fc103971653565357d6cd41>@@@Z 10027f30     libucrt:per_thread_data.obj
 0002:00007f50       __sehtable$??$?RV<lambda_a7e850c220f1c8d1e6efeecdedd162c6>@@AAV<lambda_46720907175c18b6c9d2717bc0d2d362>@@V<lambda_9048902d66e8d99359bc9897bbb930a8>@@@?$__crt_seh_guarded_call@X@@QAEX$$QAV<lambda_a7e850c220f1c8d1e6efeecdedd162c6>@@AAV<lambda_46720907175c18b6c9d2717bc0d2d362>@@$$QAV<lambda_9048902d66e8d99359bc9897bbb930a8>@@@Z 10027f50     libucrt:per_thread_data.obj
 0002:00007f70       __sehtable$??$?RV<lambda_38edbb1296d33220d7e4dd0ed76b244a>@@AAV<lambda_5ce1d447e08cb34b2473517608e21441>@@V<lambda_fb385d3da700c9147fc39e65dd577a8c>@@@?$__crt_seh_guarded_call@X@@QAEX$$QAV<lambda_38edbb1296d33220d7e4dd0ed76b244a>@@AAV<lambda_5ce1d447e08cb34b2473517608e21441>@@$$QAV<lambda_fb385d3da700c9147fc39e65dd577a8c>@@@Z 10027f70     libucrt:per_thread_data.obj
 0002:00007f90       __sehtable$??$?RV<lambda_6affb1475c98b40b75cdec977db92e3c>@@AAV<lambda_b8d4b9c228a6ecc3f80208dbb4b4a104>@@V<lambda_608742c3c92a14382c1684fc64f96c88>@@@?$__crt_seh_guarded_call@X@@QAEX$$QAV<lambda_6affb1475c98b40b75cdec977db92e3c>@@AAV<lambda_b8d4b9c228a6ecc3f80208dbb4b4a104>@@$$QAV<lambda_608742c3c92a14382c1684fc64f96c88>@@@Z 10027f90     libucrt:per_thread_data.obj
 0002:00007fb0       __sehtable$??$?RV<lambda_e5124f882df8998aaf41531e079ba474>@@AAV<lambda_3e16ef9562a7dcce91392c22ab16ea36>@@V<lambda_e25ca0880e6ef98be67edffd8c599615>@@@?$__crt_seh_guarded_call@X@@QAEX$$QAV<lambda_e5124f882df8998aaf41531e079ba474>@@AAV<lambda_3e16ef9562a7dcce91392c22ab16ea36>@@$$QAV<lambda_e25ca0880e6ef98be67edffd8c599615>@@@Z 10027fb0     libucrt:wsetlocale.obj
 0002:00007fd0       __sehtable$___acrt_initialize_lowio 10027fd0     libucrt:ioinit.obj
 0002:00007ff0       __sehtable$?update_thread_multibyte_data_internal@@YAPAU__crt_multibyte_data@@QAU__acrt_ptd@@QAPAU1@@Z 10027ff0     libucrt:mbctype.obj
 0002:00008010       __sehtable$??$?RV<lambda_ceb1ee4838e85a9d631eb091e2fbe199>@@AAV<lambda_ae742caa10f662c28703da3d2ea5e57e>@@V<lambda_cd08b5d6af4937fe54fc07d0c9bf6b37>@@@?$__crt_seh_guarded_call@X@@QAEX$$QAV<lambda_ceb1ee4838e85a9d631eb091e2fbe199>@@AAV<lambda_ae742caa10f662c28703da3d2ea5e57e>@@$$QAV<lambda_cd08b5d6af4937fe54fc07d0c9bf6b37>@@@Z 10028010     libucrt:mbctype.obj
 0002:00008030       __sehtable$_raise          10028030     libucrt:signal.obj
 0002:00008050       __sehtable$??$?RV<lambda_cbab9ec6f41b0180b23cc171c22676b0>@@AAV<lambda_44731a7d0e6d81c3e6aa82d741081786>@@V<lambda_4b292cb8dd18144e164572427af410ab>@@@?$__crt_seh_guarded_call@P6AXH@Z@@QAEP6AXH@Z$$QAV<lambda_cbab9ec6f41b0180b23cc171c22676b0>@@AAV<lambda_44731a7d0e6d81c3e6aa82d741081786>@@$$QAV<lambda_4b292cb8dd18144e164572427af410ab>@@@Z 10028050     libucrt:signal.obj
 0002:00008070       __sehtable$??$?RV<lambda_2866be3712abc81a800a822484c830d8>@@AAV<lambda_39ca0ed439415581b5b15c265174cece>@@V<lambda_2b24c74d71094a6cd0cb82e44167d71b>@@@?$__crt_seh_guarded_call@X@@QAEX$$QAV<lambda_2866be3712abc81a800a822484c830d8>@@AAV<lambda_39ca0ed439415581b5b15c265174cece>@@$$QAV<lambda_2b24c74d71094a6cd0cb82e44167d71b>@@@Z 10028070     libucrt:fflush.obj
 0002:00008090       __sehtable$??$?RV<lambda_2cc53f568c5a2bb6f192f930a45d44ea>@@AAV<lambda_ab61a845afdef5b7c387490eaf3616ee>@@V<lambda_c2ffc0b7726aa6be21d5f0026187e748>@@@?$__crt_seh_guarded_call@X@@QAEX$$QAV<lambda_2cc53f568c5a2bb6f192f930a45d44ea>@@AAV<lambda_ab61a845afdef5b7c387490eaf3616ee>@@$$QAV<lambda_c2ffc0b7726aa6be21d5f0026187e748>@@@Z 10028090     libucrt:fflush.obj
 0002:000080b0       __sehtable$___acrt_update_thread_locale_data 100280b0     libucrt:locale_refcounting.obj
 0002:000080d0       __sehtable$__fcloseall     100280d0     libucrt:closeall.obj
 0002:000080f0       __sehtable$___acrt_lowio_ensure_fh_exists 100280f0     libucrt:osfinfo.obj
 0002:00008110       __sehtable$??$?RV<lambda_9e9de3de5fa147e2223d7db92bc10aa6>@@AAV<lambda_38ce7e780aa69e748d6df282ebc68efe>@@V<lambda_8ca6da459f0f6780f1cff60fdc3d00e5>@@@?$__crt_seh_guarded_call@H@@QAEH$$QAV<lambda_9e9de3de5fa147e2223d7db92bc10aa6>@@AAV<lambda_38ce7e780aa69e748d6df282ebc68efe>@@$$QAV<lambda_8ca6da459f0f6780f1cff60fdc3d00e5>@@@Z 10028110     libucrt:commit.obj
 0002:00008130       __sehtable$__write         10028130     libucrt:write.obj
 0002:00008150       __sehtable$_fclose         10028150     libucrt:fclose.obj
 0002:00008170       __sehtable$??$?RV<lambda_218ce3db14220d0be481dae8ef3383b6>@@AAV<lambda_628dfdc04ba53c8bfc02c9951375f3f5>@@V<lambda_57dc472bd5c9d5f3b2cbca59b8a843ae>@@@?$__crt_seh_guarded_call@H@@QAEH$$QAV<lambda_218ce3db14220d0be481dae8ef3383b6>@@AAV<lambda_628dfdc04ba53c8bfc02c9951375f3f5>@@$$QAV<lambda_57dc472bd5c9d5f3b2cbca59b8a843ae>@@@Z 10028170     libucrt:close.obj
 0002:00008190       __sehtable$___set_fpsr_sse2 10028190     libucrt:fpctrl.obj
 0002:000081b0       __sehtable$__IsNonwritableInCurrentImage 100281b0     LIBCMT:pesect.obj
 0002:000081e0       .edata                     100281e0     OPOSPOSPower.exp
 0002:00008208       rgpv                       10028208     OPOSPOSPower.exp
 0002:00008218       rgszName                   10028218     OPOSPOSPower.exp
 0002:00008228       rgwOrd                     10028228     OPOSPOSPower.exp
 0002:00008230       szName                     10028230     OPOSPOSPower.exp
 0002:00008241       $N00001                    10028241     OPOSPOSPower.exp
 0002:00008251       $N00002                    10028251     OPOSPOSPower.exp
 0002:00008263       $N00003                    10028263     OPOSPOSPower.exp
 0002:00008275       $N00004                    10028275     OPOSPOSPower.exp
 0002:00008886       .idata$6                   10028886     kernel32:KERNEL32.dll
 0002:00008a9a       .idata$6                   10028a9a     user32:USER32.dll
 0002:00008bce       .idata$6                   10028bce     gdi32:GDI32.dll
 0002:00008c74       .idata$6                   10028c74     advapi32:ADVAPI32.dll
 0002:00008d90       .idata$6                   10028d90     ole32:ole32.dll
 0002:00008d9a       .idata$6                   10028d9a     oleaut32:OLEAUT32.dll
 0003:00000110       ?ObjectMap@@3PAU_ATL_OBJMAP_ENTRY30@ATL@@A 1002a110     POSPower.obj
 0003:000001c4       ?s_RequiredMethodsPerRelease@@3PAHA 1002a1c4     POSPowerImpl.obj
 0003:000001d8       ?s_SOMethodNames@@3PAPADA  1002a1d8     POSPowerImpl.obj
 0003:00000250       ?__vcrt_flsindex@@3KA      1002a250     libvcruntime:per_thread_data.obj
 0003:00000270       ?errno_no_memory@@3HA      1002a270     libucrt:errno.obj
 0003:00000274       ?doserrno_no_memory@@3KA   1002a274     libucrt:errno.obj
 0003:00000280       ?__acrt_flsindex@@3KA      1002a280     libucrt:per_thread_data.obj
 0003:00000618       __mbctypes                 1002a618     libucrt:mbctype.obj
 0003:00000720       __mbcasemaps               1002a720     libucrt:mbctype.obj
 0003:00000820       ?__rgctypeflag@@3PADA      1002a820     libucrt:mbctype.obj
 0003:00000828       ?__rgcode_page_info@@3PAUcode_page_info@@A 1002a828     libucrt:mbctype.obj
 0003:00000a80       ?__dcrt_lowio_console_output_handle@@3PAXA 1002aa80     libucrt:initcon.obj
 0003:00000a84       ?__DAZ_ENABLED@?1??__set_fpsr_sse2@@9@9 1002aa84     libucrt:fpctrl.obj
 0003:00000c18       ?is_initialized_as_dll@@3_NA 1002ac18     LIBCMT:utility.obj
 0003:00000c19       ?module_local_atexit_table_initialized@@3_NA 1002ac19     LIBCMT:utility.obj
 0003:00000c1c       ?module_local_atexit_table@@3U_onexit_table_t@@A 1002ac1c     LIBCMT:utility.obj
 0003:00000c28       ?module_local_at_quick_exit_table@@3U_onexit_table_t@@A 1002ac28     LIBCMT:utility.obj
 0003:00000c34       ?g_tss_cv@@3U_RTL_CONDITION_VARIABLE@@A 1002ac34     LIBCMT:thread_safe_statics.obj
 0003:00000c38       ?g_tss_event@@3PAXA        1002ac38     LIBCMT:thread_safe_statics.obj
 0003:00000c3c       ?g_tss_mutex@@3U_RTL_CRITICAL_SECTION@@A 1002ac3c     LIBCMT:thread_safe_statics.obj
 0003:00000c54       ?g_sleep_condition_variable_cs@@3P6GHPAU_RTL_CONDITION_VARIABLE@@PAU_RTL_CRITICAL_SECTION@@K@ZA 1002ac54     LIBCMT:thread_safe_statics.obj
 0003:00000c58       ?g_wake_all_condition_variable@@3P6GXPAU_RTL_CONDITION_VARIABLE@@@ZA 1002ac58     LIBCMT:thread_safe_statics.obj
 0003:00000c60       _GS_ExceptionRecord        1002ac60     LIBCMT:gs_report.obj
 0003:00000cb0       _GS_ContextRecord          1002acb0     LIBCMT:gs_report.obj
 0003:00000f80       ?__proc_attached@@3HA      1002af80     LIBCMT:dll_dllmain.obj
 0003:00000fdc       ?AllocateData@@3P6GPAUAtlThunkData_t@@XZA 1002afdc     atls:atlthunk.obj
 0003:00000fe0       ?InitData@@3P6GXPAUAtlThunkData_t@@PAXI@ZA 1002afe0     atls:atlthunk.obj
 0003:00000fe4       ?DataToCode@@3P6GP6GJPAUHWND__@@IIJ@ZPAUAtlThunkData_t@@@ZA 1002afe4     atls:atlthunk.obj
 0003:00000fe8       ?FreeData@@3P6GXPAUAtlThunkData_t@@@ZA 1002afe8     atls:atlthunk.obj
 0003:00000fec       ?Initialized@@3_NA         1002afec     atls:atlthunk.obj
 0003:00000ffc       ?__vcrt_startup_thread_ptd@@3U__vcrt_ptd@@A 1002affc     libvcruntime:per_thread_data.obj
 0003:00001024       ___vcrt_lock_table         1002b024     libvcruntime:locks.obj
 0003:0000103c       ___vcrt_locks_initialized  1002b03c     libvcruntime:locks.obj
 0003:00001068       ?heap@@3V_HeapManager@@A   1002b068     libvcruntime:undname.obj
 0003:0000107c       ?module_handles@@3PAPAUHINSTANCE__@@A 1002b07c     libvcruntime:winapi_downlevel.obj
 0003:00001088       ?function_pointers@@3PAPAXA 1002b088     libvcruntime:winapi_downlevel.obj
 0003:0000109c       ?__acrt_invalid_parameter_handler@@3V?$dual_state_global@P6AXPB_W00II@Z@__crt_state_management@@A 1002b09c     libucrt:invalid_parameter.obj
 0003:000010a0       ?c_termination_complete@@3JA 1002b0a0     libucrt:exit.obj
 0003:000010a4       ?thread_local_exit_callback_func@@3P6GXPAXK0@ZA 1002b0a4     libucrt:exit.obj
 0003:000010b0       ?program_name@?1???$common_configure_argv@D@@YAHW4_crt_argv_mode@@@Z@4PADA 1002b0b0     libucrt:argv_parsing.obj
 0003:000011e0       ?__acrt_new_handler@@3V?$dual_state_global@P6AHI@Z@__crt_state_management@@A 1002b1e0     libucrt:new_handler.obj
 0003:000011e8       ?module_handles@@3PAPAUHINSTANCE__@@A 1002b1e8     libucrt:winapi_thunks.obj
 0003:00001238       ?encoded_function_pointers@@3PAPAXA 1002b238     libucrt:winapi_thunks.obj
 0003:000012c0       ?internal_state@?1??_mbtowc_l@@9@4U_Mbstatet@@A 1002b2c0     libucrt:mbtowc.obj
 0003:000012d0       ?enable_percent_n@@3IA     1002b2d0     libucrt:printf_count_output.obj
 0003:000014f0       ?__acrt_lock_table@@3PAU_RTL_CRITICAL_SECTION@@A 1002b4f0     libucrt:locks.obj
 0003:00001640       ?__acrt_locks_initialized@@3IA 1002b640     libucrt:locks.obj
 0003:00001650       ?fSystemSet@@3HA           1002b650     libucrt:mbctype.obj
 0003:00001654       ?initialized@?1??__acrt_initialize_multibyte@@9@4_NA 1002b654     libucrt:mbctype.obj
 0003:00001674       ?ctrlc_action@@3V?$dual_state_global@P6AXH@Z@__crt_state_management@@A 1002b674     libucrt:signal.obj
 0003:00001678       ?ctrlbreak_action@@3V?$dual_state_global@P6AXH@Z@__crt_state_management@@A 1002b678     libucrt:signal.obj
 0003:0000167c       ?abort_action@@3V?$dual_state_global@P6AXH@Z@__crt_state_management@@A 1002b67c     libucrt:signal.obj
 0003:00001680       ?term_action@@3V?$dual_state_global@P6AXH@Z@__crt_state_management@@A 1002b680     libucrt:signal.obj
 0003:00001684       ?user_matherr@@3V?$dual_state_global@P6AHPAU_exception@@@Z@__crt_state_management@@A 1002b684     libucrt:matherr.obj
 0003:00001688       ?__acrt_global_new_mode@@3V?$dual_state_global@J@__crt_state_management@@A 1002b688     libucrt:new_mode.obj
 0003:00001694       ?internal_pst@?1??__mbrtoc32_utf8@__crt_mbstring@@YAIPA_UPBDIPAU_Mbstatet@@@Z@4U3@A 1002b694     libucrt:mbrtoc32.obj
 0003:0000169c       ?__acrt_app_type@@3W4_crt_app_type@@A 1002b69c     libucrt:report_runtime_error.obj
 0003:000016a4       __pmatherr_set             1002b6a4     libucrt:libm_error.obj
 0004:00000220       $R000000                   1002c220     POSPower.res
 0004:00000bb0       $R000990                   1002cbb0     POSPower.res
 0004:00000c98       $R000A78                   1002cc98     POSPower.res
 0004:00000f00       $R000CE0                   1002cf00     POSPower.res
 0004:00001458       $R001238                   1002d458     POSPower.res
 0004:00004440       $R004220                   10030440     POSPower.res
 0004:00004470       $R004250                   10030470     POSPower.res
