 OPOSPINPad

 Timestamp is 5c43fee4 (Sun Jan 20 13:53:56 2019)

 Preferred load address is 10000000

 Start         Length     Name                   Class
 0001:00000000 00000080H .text$di                CODE
 0001:00000080 0001d2abH .text$mn                CODE
 0001:0001d32b 00000051H .text$x                 CODE
 0001:0001d37c 00000042H .text$yd                CODE
 0002:00000000 00000300H .idata$5                DATA
 0002:00000300 00000004H .00cfg                  DATA
 0002:00000304 00000004H .CRT$XCA                DATA
 0002:00000308 00000004H .CRT$XCL                DATA
 0002:0000030c 00000010H .CRT$XCU                DATA
 0002:0000031c 00000004H .CRT$XCZ                DATA
 0002:00000320 00000004H .CRT$XIA                DATA
 0002:00000324 00000010H .CRT$XIC                DATA
 0002:00000334 00000004H .CRT$XIZ                DATA
 0002:00000338 00000004H .CRT$XLA                DATA
 0002:0000033c 00000004H .CRT$XLZ                DATA
 0002:00000340 00000004H .CRT$XPA                DATA
 0002:00000344 00000008H .CRT$XPX                DATA
 0002:0000034c 00000004H .CRT$XPXA               DATA
 0002:00000350 00000004H .CRT$XPZ                DATA
 0002:00000354 00000004H .CRT$XTA                DATA
 0002:00000358 00000008H .CRT$XTZ                DATA
 0002:0000035c 00000000H .gfids$x                DATA
 0002:0000035c 00000000H .gfids$y                DATA
 0002:00000360 00006f18H .rdata                  DATA
 0002:00007278 00000018H .rdata$T                DATA
 0002:00007290 00000180H .rdata$r                DATA
 0002:00007410 00000020H .rdata$sxdata           DATA
 0002:00007430 000003dcH .rdata$zzzdbg           DATA
 0002:0000780c 00000004H .rtc$IAA                DATA
 0002:00007810 00000004H .rtc$IZZ                DATA
 0002:00007814 00000004H .rtc$TAA                DATA
 0002:00007818 00000004H .rtc$TZZ                DATA
 0002:0000781c 00000004H .tls                    DATA
 0002:00007820 00000004H .tls$                   DATA
 0002:00007824 00000004H .tls$ZZZ                DATA
 0002:00007828 000005f4H .xdata$x                DATA
 0002:00007e1c 00000004H ATL$__a                 DATA
 0002:00007e20 00000010H ATL$__z                 DATA
 0002:00007e30 000000a8H .edata                  DATA
 0002:00007ed8 00000078H .idata$2                DATA
 0002:00007f50 00000014H .idata$3                DATA
 0002:00007f64 00000300H .idata$4                DATA
 0002:00008264 00000bdeH .idata$6                DATA
 0003:00000000 000009b0H .data                   DATA
 0003:000009b0 00000098H .data$r                 DATA
 0003:00000a48 00000b5cH .bss                    DATA
 0004:00000000 00000220H .rsrc$01                DATA
 0004:00000220 00004b30H .rsrc$02                DATA

  Address         Publics by Value              Rva+Base       Lib:Object

 0000:00000000       ___dynamic_value_reloc_table 00000000     <absolute>
 0000:00000000       ___guard_fids_count        00000000     <absolute>
 0000:00000000       ___guard_longjmp_table     00000000     <absolute>
 0000:00000000       ___hybrid_code_map_count   00000000     <absolute>
 0000:00000000       __except_list              00000000     <absolute>
 0000:00000000       ___hybrid_auxiliary_iat    00000000     <absolute>
 0000:00000000       ___guard_fids_table        00000000     <absolute>
 0000:00000000       ___guard_longjmp_count     00000000     <absolute>
 0000:00000000       ___guard_iat_table         00000000     <absolute>
 0000:00000000       ___guard_iat_count         00000000     <absolute>
 0000:00000000       ___volatile_metadata       00000000     <absolute>
 0000:00000000       ___enclave_config          00000000     <absolute>
 0000:00000000       ___hybrid_code_map         00000000     <absolute>
 0000:00000008       ___safe_se_handler_count   00000008     <absolute>
 0000:0000002c       __tls_array                0000002c     <absolute>
 0000:00000100       ___guard_flags             00000100     <absolute>
 0000:00000000       ___ImageBase               10000000     <linker-defined>
 0001:00000080       ?DupWide@_CW@@AAEXXZ       10001080 f   CWString.obj
 0001:0000009c       ?cw_dup@@YGXPBDAAHAAPA_W1@Z 1000109c f   CWString.obj
 0001:0000010b       ?cw_memcpy@@YGHPA_WPBDH@Z  1000110b f   CWString.obj
 0001:00000137       ?cw_strcpy@@YAHPA_WPBD@Z   10001137 f   CWString.obj
 0001:0000014a       ?cw_strlen@@YAHPBD@Z       1000114a f   CWString.obj
 0001:00000163       ??0CAtlComModule@ATL@@QAE@XZ 10001163 f i OposVariant.obj
 0001:000001a8       ??0CAtlWinModule@ATL@@QAE@XZ 100011a8 f i OposVariant.obj
 0001:000001df       ??0OposDispParms@@QAE@PAVOposVariant@@H@Z 100011df f   OposVariant.obj
 0001:00000250       ??1OposDispParms@@QAE@XZ   10001250 f   OposVariant.obj
 0001:0000025e       ??A?$CSimpleArray@GV?$CSimpleArrayEqualHelper@G@ATL@@@ATL@@QAEAAGH@Z 1000125e f i OposVariant.obj
 0001:00000283       ??_Estringdispid@CComTypeInfoHolder@ATL@@QAEPAXI@Z 10001283 f i OposVariant.obj
 0001:000002ef       ?AtlWinModuleInit@ATL@@YGJPAU_ATL_WIN_MODULE70@1@@Z 100012ef f i OposVariant.obj
 0001:00000315       ?AtlWinModuleTerm@ATL@@YGJPAU_ATL_WIN_MODULE70@1@PAUHINSTANCE__@@@Z 10001315 f i OposVariant.obj
 0001:00000378       ?ChangeBSTR@OposVariant@@QAEXPAPA_WAAJ@Z 10001378 f   OposVariant.obj
 0001:000003b9       ?ChangeCURRENCY@OposVariant@@QAEXPATtagCY@@AAJ@Z 100013b9 f   OposVariant.obj
 0001:00000408       ?ChangeLONG@OposVariant@@QAEXPAJAAJ@Z 10001408 f   OposVariant.obj
 0001:00000449       ?GetLONG@OposVariant@@QAEJXZ 10001449 f   OposVariant.obj
 0001:00000464       ?Init@CComCriticalSection@ATL@@QAEJXZ 10001464 f i OposVariant.obj
 0001:0000048c       ?RemoveAll@?$CSimpleArray@GV?$CSimpleArrayEqualHelper@G@ATL@@@ATL@@QAEXXZ 1000148c f i OposVariant.obj
 0001:0000048c       ?RemoveAll@?$CSimpleArray@PAUHINSTANCE__@@V?$CSimpleArrayEqualHelper@PAUHINSTANCE__@@@ATL@@@ATL@@QAEXXZ 1000148c f i atls:atlbase.obj
 0001:000004a9       ?SetBSTR@OposVariant@@QAEXPA_WAAJ@Z 100014a9 f   OposVariant.obj
 0001:000004dd       ?SetBSTR_Copy@OposVariant@@QAEXPA_WAAJ@Z 100014dd f   OposVariant.obj
 0001:0000052d       ?SetBSTR_InOutPtr@OposVariant@@QAE_NPAPA_WAAJ@Z 1000152d f   OposVariant.obj
 0001:00000564       ?SetBSTR_OutPtr@OposVariant@@QAE_NPAPA_WAAJ@Z 10001564 f   OposVariant.obj
 0001:00000580       ?SetCURRENCY@OposVariant@@QAEXTtagCY@@@Z 10001580 f   OposVariant.obj
 0001:000005a8       ?SetDispatch_Ptr@OposVariant@@QAEXPAUIDispatch@@AAJ@Z 100015a8 f   OposVariant.obj
 0001:000005e3       ?SetLONG@OposVariant@@QAEXJ@Z 100015e3 f   OposVariant.obj
 0001:00000605       ?SetLONG_Ptr@OposVariant@@QAEXPAJAAJ@Z 10001605 f   OposVariant.obj
 0001:00000638       ?SetString@OposVariant@@QAEXPB_WAAJ@Z 10001638 f   OposVariant.obj
 0001:0000067e       ?SetVARIANT_BOOL@OposVariant@@QAEXF@Z 1000167e f   OposVariant.obj
 0001:000006a8       ?Term@CAtlComModule@ATL@@QAEXXZ 100016a8 f i OposVariant.obj
 0001:000006f2       ?_AtlRaiseException@ATL@@YAXKK@Z 100016f2 f i OposVariant.obj
 0001:00000707       ?AddRef@?$CComObjectCached@VCComClassFactory@ATL@@@ATL@@UAGKXZ 10001707 f i PINPad.obj
 0001:0000072e       ?Release@?$CComObjectCached@VCComClassFactory@ATL@@@ATL@@UAGKXZ 1000172e f i PINPad.obj
 0001:00000764       ?QueryInterface@?$CComObjectCached@VCComClassFactory@ATL@@@ATL@@UAGJABU_GUID@@PAPAX@Z 10001764 f i PINPad.obj
 0001:0000077e       ??_G?$CComObjectCached@VCComClassFactory@ATL@@@ATL@@UAEPAXI@Z 1000177e f i PINPad.obj
 0001:0000077e       ??_E?$CComObjectCached@VCComClassFactory@ATL@@@ATL@@UAEPAXI@Z 1000177e f i PINPad.obj
 0001:000007a0       ?AddRef@?$CComAggObject@VCOPOSPINPad@@@ATL@@UAGKXZ 100017a0 f i PINPad.obj
 0001:000007b1       ?Release@?$CComAggObject@VCOPOSPINPad@@@ATL@@UAGKXZ 100017b1 f i PINPad.obj
 0001:000007ed       ?QueryInterface@?$CComAggObject@VCOPOSPINPad@@@ATL@@UAGJABU_GUID@@PAPAX@Z 100017ed f i PINPad.obj
 0001:0000083c       ?AddRef@?$CComContainedObject@VCOPOSPINPad@@@ATL@@UAGKXZ 1000183c f i PINPad.obj
 0001:00000852       ?Release@?$CComContainedObject@VCOPOSPINPad@@@ATL@@UAGKXZ 10001852 f i PINPad.obj
 0001:00000868       ?QueryInterface@?$CComContainedObject@VCOPOSPINPad@@@ATL@@UAGJABU_GUID@@PAPAX@Z 10001868 f i PINPad.obj
 0001:00000883       ??_E?$CComAggObject@VCOPOSPINPad@@@ATL@@UAEPAXI@Z 10001883 f i PINPad.obj
 0001:00000883       ??_G?$CComAggObject@VCOPOSPINPad@@@ATL@@UAEPAXI@Z 10001883 f i PINPad.obj
 0001:000008a8       ?AddRef@?$CComObject@VCOPOSPINPad@@@ATL@@UAGKXZ 100018a8 f i PINPad.obj
 0001:000008bf       ?Release@?$CComObject@VCOPOSPINPad@@@ATL@@UAGKXZ 100018bf f i PINPad.obj
 0001:00000901       ?QueryInterface@?$CComObject@VCOPOSPINPad@@@ATL@@UAGJABU_GUID@@PAPAX@Z 10001901 f i PINPad.obj
 0001:0000091b       ?OnFinalMessage@?$CWindowImplBaseT@VCWindow@ATL@@V?$CWinTraits@$0FGAAAAAA@$0A@@2@@ATL@@UAEXPAUHWND__@@@Z 1000191b f i PINPad.obj
 0001:0000091b       ?ObjectMain@CComObjectRootBase@ATL@@SGX_N@Z 1000191b f i PINPad.obj
 0001:0000091e       ?GetCategoryMap@CComObjectRootBase@ATL@@SAPBU_ATL_CATMAP_ENTRY@2@XZ 1000191e f i PINPad.obj
 0001:0000091e       ?GetObjectDescription@?$CComCoClass@VCOPOSPINPad@@$1?CLSID_OPOSPINPad@@3U_GUID@@B@ATL@@SGPB_WXZ 1000191e f i PINPad.obj
 0001:00000921       ?CreateInstance@CComClassFactory@ATL@@UAGJPAUIUnknown@@ABU_GUID@@PAPAX@Z 10001921 f i PINPad.obj
 0001:0000095f       ?LockServer@CComClassFactory@ATL@@UAGJH@Z 1000195f f i PINPad.obj
 0001:0000097e       ??_GCComClassFactory@ATL@@UAEPAXI@Z 1000197e f i PINPad.obj
 0001:0000097e       ??_ECComClassFactory@ATL@@UAEPAXI@Z 1000197e f i PINPad.obj
 0001:000009a9       ?OnDrawAdvanced@CComControlBase@ATL@@UAEJAAUATL_DRAWINFO@@@Z 100019a9 f i PINPad.obj
 0001:00000a98       ?Next@?$CComEnumImpl@UIEnumConnections@@$1?_GUID_b196b287_bab4_101a_b69c_00aa00341d07@@3U__s_GUID@@BUtagCONNECTDATA@@V?$_Copy@UtagCONNECTDATA@@@ATL@@@ATL@@UAGJKPAUtagCONNECTDATA@@PAK@Z 10001a98 f i PINPad.obj
 0001:00000b6f       ?Skip@?$CComEnumImpl@UIEnumConnections@@$1?_GUID_b196b287_bab4_101a_b69c_00aa00341d07@@3U__s_GUID@@BUtagCONNECTDATA@@V?$_Copy@UtagCONNECTDATA@@@ATL@@@ATL@@UAGJK@Z 10001b6f f i PINPad.obj
 0001:00000b9c       ?Reset@?$CComEnumImpl@UIEnumConnections@@$1?_GUID_b196b287_bab4_101a_b69c_00aa00341d07@@3U__s_GUID@@BUtagCONNECTDATA@@V?$_Copy@UtagCONNECTDATA@@@ATL@@@ATL@@UAGJXZ 10001b9c f i PINPad.obj
 0001:00000b9c       ?Reset@?$CComEnumImpl@UIEnumConnectionPoints@@$1?_GUID_b196b285_bab4_101a_b69c_00aa00341d07@@3U__s_GUID@@BPAUIConnectionPoint@@V?$_CopyInterface@UIConnectionPoint@@@ATL@@@ATL@@UAGJXZ 10001b9c f i PINPad.obj
 0001:00000bae       ?Clone@?$CComEnumImpl@UIEnumConnections@@$1?_GUID_b196b287_bab4_101a_b69c_00aa00341d07@@3U__s_GUID@@BUtagCONNECTDATA@@V?$_Copy@UtagCONNECTDATA@@@ATL@@@ATL@@UAGJPAPAUIEnumConnections@@@Z 10001bae f i PINPad.obj
 0001:00000c8d       ?AddRef@?$CComObject@V?$CComEnum@UIEnumConnectionPoints@@$1?_GUID_b196b285_bab4_101a_b69c_00aa00341d07@@3U__s_GUID@@BPAUIConnectionPoint@@V?$_CopyInterface@UIConnectionPoint@@@ATL@@VCComSingleThreadModel@6@@ATL@@@ATL@@UAGKXZ 10001c8d f i PINPad.obj
 0001:00000c8d       ?AddRef@?$CComObject@V?$CComEnum@UIEnumConnections@@$1?_GUID_b196b287_bab4_101a_b69c_00aa00341d07@@3U__s_GUID@@BUtagCONNECTDATA@@V?$_Copy@UtagCONNECTDATA@@@ATL@@VCComSingleThreadModel@6@@ATL@@@ATL@@UAGKXZ 10001c8d f i PINPad.obj
 0001:00000c9e       ?Release@?$CComObject@V?$CComEnum@UIEnumConnectionPoints@@$1?_GUID_b196b285_bab4_101a_b69c_00aa00341d07@@3U__s_GUID@@BPAUIConnectionPoint@@V?$_CopyInterface@UIConnectionPoint@@@ATL@@VCComSingleThreadModel@6@@ATL@@@ATL@@UAGKXZ 10001c9e f i PINPad.obj
 0001:00000c9e       ?Release@?$CComObject@V?$CComEnum@UIEnumConnections@@$1?_GUID_b196b287_bab4_101a_b69c_00aa00341d07@@3U__s_GUID@@BUtagCONNECTDATA@@V?$_Copy@UtagCONNECTDATA@@@ATL@@VCComSingleThreadModel@6@@ATL@@@ATL@@UAGKXZ 10001c9e f i PINPad.obj
 0001:00000cda       ?QueryInterface@?$CComObject@V?$CComEnum@UIEnumConnections@@$1?_GUID_b196b287_bab4_101a_b69c_00aa00341d07@@3U__s_GUID@@BUtagCONNECTDATA@@V?$_Copy@UtagCONNECTDATA@@@ATL@@VCComSingleThreadModel@6@@ATL@@@ATL@@UAGJABU_GUID@@PAPAX@Z 10001cda f i PINPad.obj
 0001:00000cf4       ??_G?$CComObject@V?$CComEnum@UIEnumConnections@@$1?_GUID_b196b287_bab4_101a_b69c_00aa00341d07@@3U__s_GUID@@BUtagCONNECTDATA@@V?$_Copy@UtagCONNECTDATA@@@ATL@@VCComSingleThreadModel@6@@ATL@@@ATL@@UAEPAXI@Z 10001cf4 f i PINPad.obj
 0001:00000cf4       ??_E?$CComObject@V?$CComEnum@UIEnumConnections@@$1?_GUID_b196b287_bab4_101a_b69c_00aa00341d07@@3U__s_GUID@@BUtagCONNECTDATA@@V?$_Copy@UtagCONNECTDATA@@@ATL@@VCComSingleThreadModel@6@@ATL@@@ATL@@UAEPAXI@Z 10001cf4 f i PINPad.obj
 0001:00000d16       ??_E?$CComObject@VCOPOSPINPad@@@ATL@@W3AEPAXI@Z 10001d16 f i PINPad.obj
 0001:00000d1e       ??_E?$CComObject@VCOPOSPINPad@@@ATL@@WEM@AEPAXI@Z 10001d1e f i PINPad.obj
 0001:00000d26       ?QueryInterface@?$CComObject@VCOPOSPINPad@@@ATL@@WHA@AGJABU_GUID@@PAPAX@Z 10001d26 f i PINPad.obj
 0001:00000d30       ?AddRef@?$CComObject@VCOPOSPINPad@@@ATL@@WHA@AGKXZ 10001d30 f i PINPad.obj
 0001:00000d3a       ?Release@?$CComObject@VCOPOSPINPad@@@ATL@@WHA@AGKXZ 10001d3a f i PINPad.obj
 0001:00000d44       ?QueryInterface@?$CComObject@VCOPOSPINPad@@@ATL@@WHE@AGJABU_GUID@@PAPAX@Z 10001d44 f i PINPad.obj
 0001:00000d4e       ?AddRef@?$CComObject@VCOPOSPINPad@@@ATL@@WHE@AGKXZ 10001d4e f i PINPad.obj
 0001:00000d58       ?Release@?$CComObject@VCOPOSPINPad@@@ATL@@WHE@AGKXZ 10001d58 f i PINPad.obj
 0001:00000d62       ?QueryInterface@?$CComObject@VCOPOSPINPad@@@ATL@@WHI@AGJABU_GUID@@PAPAX@Z 10001d62 f i PINPad.obj
 0001:00000d6c       ?AddRef@?$CComObject@VCOPOSPINPad@@@ATL@@WHI@AGKXZ 10001d6c f i PINPad.obj
 0001:00000d76       ?Release@?$CComObject@VCOPOSPINPad@@@ATL@@WHI@AGKXZ 10001d76 f i PINPad.obj
 0001:00000d80       ?QueryInterface@?$CComObject@VCOPOSPINPad@@@ATL@@WHM@AGJABU_GUID@@PAPAX@Z 10001d80 f i PINPad.obj
 0001:00000d8a       ?AddRef@?$CComObject@VCOPOSPINPad@@@ATL@@WHM@AGKXZ 10001d8a f i PINPad.obj
 0001:00000d94       ?Release@?$CComObject@VCOPOSPINPad@@@ATL@@WHM@AGKXZ 10001d94 f i PINPad.obj
 0001:00000d9e       ?QueryInterface@?$CComObject@VCOPOSPINPad@@@ATL@@WIA@AGJABU_GUID@@PAPAX@Z 10001d9e f i PINPad.obj
 0001:00000dab       ?AddRef@?$CComObject@VCOPOSPINPad@@@ATL@@WIA@AGKXZ 10001dab f i PINPad.obj
 0001:00000db8       ?Release@?$CComObject@VCOPOSPINPad@@@ATL@@WIA@AGKXZ 10001db8 f i PINPad.obj
 0001:00000dc5       ?QueryInterface@?$CComObject@VCOPOSPINPad@@@ATL@@WIE@AGJABU_GUID@@PAPAX@Z 10001dc5 f i PINPad.obj
 0001:00000dd2       ?AddRef@?$CComObject@VCOPOSPINPad@@@ATL@@WIE@AGKXZ 10001dd2 f i PINPad.obj
 0001:00000ddf       ?Release@?$CComObject@VCOPOSPINPad@@@ATL@@WIE@AGKXZ 10001ddf f i PINPad.obj
 0001:00000dec       ?QueryInterface@?$CComObject@VCOPOSPINPad@@@ATL@@WII@AGJABU_GUID@@PAPAX@Z 10001dec f i PINPad.obj
 0001:00000df9       ?AddRef@?$CComObject@VCOPOSPINPad@@@ATL@@WII@AGKXZ 10001df9 f i PINPad.obj
 0001:00000e06       ?Release@?$CComObject@VCOPOSPINPad@@@ATL@@WII@AGKXZ 10001e06 f i PINPad.obj
 0001:00000e13       ?QueryInterface@?$CComObject@VCOPOSPINPad@@@ATL@@WIM@AGJABU_GUID@@PAPAX@Z 10001e13 f i PINPad.obj
 0001:00000e20       ?AddRef@?$CComObject@VCOPOSPINPad@@@ATL@@WIM@AGKXZ 10001e20 f i PINPad.obj
 0001:00000e2d       ?Release@?$CComObject@VCOPOSPINPad@@@ATL@@WIM@AGKXZ 10001e2d f i PINPad.obj
 0001:00000e3a       ?QueryInterface@?$CComObject@VCOPOSPINPad@@@ATL@@WJA@AGJABU_GUID@@PAPAX@Z 10001e3a f i PINPad.obj
 0001:00000e47       ?AddRef@?$CComObject@VCOPOSPINPad@@@ATL@@WJA@AGKXZ 10001e47 f i PINPad.obj
 0001:00000e54       ?Release@?$CComObject@VCOPOSPINPad@@@ATL@@WJA@AGKXZ 10001e54 f i PINPad.obj
 0001:00000e61       ?QueryInterface@?$CComObject@VCOPOSPINPad@@@ATL@@WJE@AGJABU_GUID@@PAPAX@Z 10001e61 f i PINPad.obj
 0001:00000e6e       ?AddRef@?$CComObject@VCOPOSPINPad@@@ATL@@WJE@AGKXZ 10001e6e f i PINPad.obj
 0001:00000e7b       ?Release@?$CComObject@VCOPOSPINPad@@@ATL@@WJE@AGKXZ 10001e7b f i PINPad.obj
 0001:00000e88       ?QueryInterface@?$CComObject@VCOPOSPINPad@@@ATL@@WJI@AGJABU_GUID@@PAPAX@Z 10001e88 f i PINPad.obj
 0001:00000e95       ?AddRef@?$CComObject@VCOPOSPINPad@@@ATL@@WJI@AGKXZ 10001e95 f i PINPad.obj
 0001:00000ea2       ?Release@?$CComObject@VCOPOSPINPad@@@ATL@@WJI@AGKXZ 10001ea2 f i PINPad.obj
 0001:00000eaf       ?QueryInterface@?$CComObject@VCOPOSPINPad@@@ATL@@WJM@AGJABU_GUID@@PAPAX@Z 10001eaf f i PINPad.obj
 0001:00000ebc       ?AddRef@?$CComObject@VCOPOSPINPad@@@ATL@@WJM@AGKXZ 10001ebc f i PINPad.obj
 0001:00000ec9       ?Release@?$CComObject@VCOPOSPINPad@@@ATL@@WJM@AGKXZ 10001ec9 f i PINPad.obj
 0001:00000ed6       ?QueryInterface@?$CComObject@VCOPOSPINPad@@@ATL@@WKA@AGJABU_GUID@@PAPAX@Z 10001ed6 f i PINPad.obj
 0001:00000ee3       ?AddRef@?$CComObject@VCOPOSPINPad@@@ATL@@WKA@AGKXZ 10001ee3 f i PINPad.obj
 0001:00000ef0       ?Release@?$CComObject@VCOPOSPINPad@@@ATL@@WKA@AGKXZ 10001ef0 f i PINPad.obj
 0001:00000efd       ?AddRef@?$CComObject@VCOPOSPINPad@@@ATL@@WKI@AGKXZ 10001efd f i PINPad.obj
 0001:00000f0a       ?Release@?$CComObject@VCOPOSPINPad@@@ATL@@WKI@AGKXZ 10001f0a f i PINPad.obj
 0001:00000f17       ?AddRef@?$CComObject@VCOPOSPINPad@@@ATL@@WLE@AGKXZ 10001f17 f i PINPad.obj
 0001:00000f24       ?Release@?$CComObject@VCOPOSPINPad@@@ATL@@WLE@AGKXZ 10001f24 f i PINPad.obj
 0001:00000f31       ??_E?$CComContainedObject@VCOPOSPINPad@@@ATL@@W3AEPAXI@Z 10001f31 f i PINPad.obj
 0001:00000f39       ??_E?$CComContainedObject@VCOPOSPINPad@@@ATL@@WEM@AEPAXI@Z 10001f39 f i PINPad.obj
 0001:00000f41       ?QueryInterface@?$CComContainedObject@VCOPOSPINPad@@@ATL@@WHA@AGJABU_GUID@@PAPAX@Z 10001f41 f i PINPad.obj
 0001:00000f4b       ?AddRef@?$CComContainedObject@VCOPOSPINPad@@@ATL@@WHA@AGKXZ 10001f4b f i PINPad.obj
 0001:00000f55       ?Release@?$CComContainedObject@VCOPOSPINPad@@@ATL@@WHA@AGKXZ 10001f55 f i PINPad.obj
 0001:00000f5f       ?QueryInterface@?$CComContainedObject@VCOPOSPINPad@@@ATL@@WHE@AGJABU_GUID@@PAPAX@Z 10001f5f f i PINPad.obj
 0001:00000f69       ?AddRef@?$CComContainedObject@VCOPOSPINPad@@@ATL@@WHE@AGKXZ 10001f69 f i PINPad.obj
 0001:00000f73       ?Release@?$CComContainedObject@VCOPOSPINPad@@@ATL@@WHE@AGKXZ 10001f73 f i PINPad.obj
 0001:00000f7d       ?QueryInterface@?$CComContainedObject@VCOPOSPINPad@@@ATL@@WHI@AGJABU_GUID@@PAPAX@Z 10001f7d f i PINPad.obj
 0001:00000f87       ?AddRef@?$CComContainedObject@VCOPOSPINPad@@@ATL@@WHI@AGKXZ 10001f87 f i PINPad.obj
 0001:00000f91       ?Release@?$CComContainedObject@VCOPOSPINPad@@@ATL@@WHI@AGKXZ 10001f91 f i PINPad.obj
 0001:00000f9b       ?QueryInterface@?$CComContainedObject@VCOPOSPINPad@@@ATL@@WHM@AGJABU_GUID@@PAPAX@Z 10001f9b f i PINPad.obj
 0001:00000fa5       ?AddRef@?$CComContainedObject@VCOPOSPINPad@@@ATL@@WHM@AGKXZ 10001fa5 f i PINPad.obj
 0001:00000faf       ?Release@?$CComContainedObject@VCOPOSPINPad@@@ATL@@WHM@AGKXZ 10001faf f i PINPad.obj
 0001:00000fb9       ?QueryInterface@?$CComContainedObject@VCOPOSPINPad@@@ATL@@WIA@AGJABU_GUID@@PAPAX@Z 10001fb9 f i PINPad.obj
 0001:00000fc6       ?AddRef@?$CComContainedObject@VCOPOSPINPad@@@ATL@@WIA@AGKXZ 10001fc6 f i PINPad.obj
 0001:00000fd3       ?Release@?$CComContainedObject@VCOPOSPINPad@@@ATL@@WIA@AGKXZ 10001fd3 f i PINPad.obj
 0001:00000fe0       ?QueryInterface@?$CComContainedObject@VCOPOSPINPad@@@ATL@@WIE@AGJABU_GUID@@PAPAX@Z 10001fe0 f i PINPad.obj
 0001:00000fed       ?AddRef@?$CComContainedObject@VCOPOSPINPad@@@ATL@@WIE@AGKXZ 10001fed f i PINPad.obj
 0001:00000ffa       ?Release@?$CComContainedObject@VCOPOSPINPad@@@ATL@@WIE@AGKXZ 10001ffa f i PINPad.obj
 0001:00001007       ?QueryInterface@?$CComContainedObject@VCOPOSPINPad@@@ATL@@WII@AGJABU_GUID@@PAPAX@Z 10002007 f i PINPad.obj
 0001:00001014       ?AddRef@?$CComContainedObject@VCOPOSPINPad@@@ATL@@WII@AGKXZ 10002014 f i PINPad.obj
 0001:00001021       ?Release@?$CComContainedObject@VCOPOSPINPad@@@ATL@@WII@AGKXZ 10002021 f i PINPad.obj
 0001:0000102e       ?QueryInterface@?$CComContainedObject@VCOPOSPINPad@@@ATL@@WIM@AGJABU_GUID@@PAPAX@Z 1000202e f i PINPad.obj
 0001:0000103b       ?AddRef@?$CComContainedObject@VCOPOSPINPad@@@ATL@@WIM@AGKXZ 1000203b f i PINPad.obj
 0001:00001048       ?Release@?$CComContainedObject@VCOPOSPINPad@@@ATL@@WIM@AGKXZ 10002048 f i PINPad.obj
 0001:00001055       ?QueryInterface@?$CComContainedObject@VCOPOSPINPad@@@ATL@@WJA@AGJABU_GUID@@PAPAX@Z 10002055 f i PINPad.obj
 0001:00001062       ?AddRef@?$CComContainedObject@VCOPOSPINPad@@@ATL@@WJA@AGKXZ 10002062 f i PINPad.obj
 0001:0000106f       ?Release@?$CComContainedObject@VCOPOSPINPad@@@ATL@@WJA@AGKXZ 1000206f f i PINPad.obj
 0001:0000107c       ?QueryInterface@?$CComContainedObject@VCOPOSPINPad@@@ATL@@WJE@AGJABU_GUID@@PAPAX@Z 1000207c f i PINPad.obj
 0001:00001089       ?AddRef@?$CComContainedObject@VCOPOSPINPad@@@ATL@@WJE@AGKXZ 10002089 f i PINPad.obj
 0001:00001096       ?Release@?$CComContainedObject@VCOPOSPINPad@@@ATL@@WJE@AGKXZ 10002096 f i PINPad.obj
 0001:000010a3       ?QueryInterface@?$CComContainedObject@VCOPOSPINPad@@@ATL@@WJI@AGJABU_GUID@@PAPAX@Z 100020a3 f i PINPad.obj
 0001:000010b0       ?AddRef@?$CComContainedObject@VCOPOSPINPad@@@ATL@@WJI@AGKXZ 100020b0 f i PINPad.obj
 0001:000010bd       ?Release@?$CComContainedObject@VCOPOSPINPad@@@ATL@@WJI@AGKXZ 100020bd f i PINPad.obj
 0001:000010ca       ?QueryInterface@?$CComContainedObject@VCOPOSPINPad@@@ATL@@WJM@AGJABU_GUID@@PAPAX@Z 100020ca f i PINPad.obj
 0001:000010d7       ?AddRef@?$CComContainedObject@VCOPOSPINPad@@@ATL@@WJM@AGKXZ 100020d7 f i PINPad.obj
 0001:000010e4       ?Release@?$CComContainedObject@VCOPOSPINPad@@@ATL@@WJM@AGKXZ 100020e4 f i PINPad.obj
 0001:000010f1       ?QueryInterface@?$CComContainedObject@VCOPOSPINPad@@@ATL@@WKA@AGJABU_GUID@@PAPAX@Z 100020f1 f i PINPad.obj
 0001:000010fe       ?AddRef@?$CComContainedObject@VCOPOSPINPad@@@ATL@@WKA@AGKXZ 100020fe f i PINPad.obj
 0001:0000110b       ?Release@?$CComContainedObject@VCOPOSPINPad@@@ATL@@WKA@AGKXZ 1000210b f i PINPad.obj
 0001:00001118       ?AddRef@?$CComContainedObject@VCOPOSPINPad@@@ATL@@WKI@AGKXZ 10002118 f i PINPad.obj
 0001:00001125       ?Release@?$CComContainedObject@VCOPOSPINPad@@@ATL@@WKI@AGKXZ 10002125 f i PINPad.obj
 0001:00001132       ?AddRef@?$CComContainedObject@VCOPOSPINPad@@@ATL@@WLE@AGKXZ 10002132 f i PINPad.obj
 0001:0000113f       ?Release@?$CComContainedObject@VCOPOSPINPad@@@ATL@@WLE@AGKXZ 1000213f f i PINPad.obj
 0001:0000114c       ?Lock@CAtlModule@ATL@@UAEJXZ 1000214c f i PINPad.obj
 0001:00001156       ?Unlock@CAtlModule@ATL@@UAEJXZ 10002156 f i PINPad.obj
 0001:00001160       ?GetLockCount@CAtlModule@ATL@@UAEJXZ 10002160 f i PINPad.obj
 0001:00001164       ?GetGITPtr@CAtlModule@ATL@@UAEJPAPAUIGlobalInterfaceTable@@@Z 10002164 f i PINPad.obj
 0001:000011b0       ?AddCommonRGSReplacements@?$CAtlModuleT@VCComModule@ATL@@@ATL@@UAEJPAUIRegistrarBase@@@Z 100021b0 f i PINPad.obj
 0001:000011ca       ?UpdateRegistryFromResourceD@CComModule@ATL@@UAGJIHPAU_ATL_REGMAP_ENTRY@2@@Z 100021ca f i PINPad.obj
 0001:000011ca       ?UpdateRegistryFromResourceD@CComModule@ATL@@UAGJPB_WHPAU_ATL_REGMAP_ENTRY@2@@Z 100021ca f i PINPad.obj
 0001:000011d2       ?UpdateRegistryFromResource@CComModule@ATL@@UAGJPB_WHPAU_ATL_REGMAP_ENTRY@2@@Z 100021d2 f i PINPad.obj
 0001:000011db       ?UpdateRegistryFromResource@CComModule@ATL@@UAGJIHPAU_ATL_REGMAP_ENTRY@2@@Z 100021db f i PINPad.obj
 0001:000011e4       ??_GCComModule@ATL@@UAEPAXI@Z 100021e4 f i PINPad.obj
 0001:000011e4       ??_ECComModule@ATL@@UAEPAXI@Z 100021e4 f i PINPad.obj
 0001:0000120c       ?GetWindowProc@?$CWindowImplBaseT@VCWindow@ATL@@V?$CWinTraits@$0FGAAAAAA@$0A@@2@@ATL@@UAEP6GJPAUHWND__@@IIJ@ZXZ 1000220c f i PINPad.obj
 0001:00001212       ?StartWindowProc@?$CWindowImplBaseT@VCWindow@ATL@@V?$CWinTraits@$0FGAAAAAA@$0A@@2@@ATL@@SGJPAUHWND__@@IIJ@Z 10002212 f i PINPad.obj
 0001:00001266       ?GetTypeInfoCount@?$IDispatchImpl@UIOPOSPINPad@@$1?IID_IOPOSPINPad@@3U_GUID@@B$1?LIBID_OposPINPad_CCO@@3U3@B$00$0A@VCComTypeInfoHolder@ATL@@@ATL@@UAGJPAI@Z 10002266 f i PINPad.obj
 0001:00001283       ?GetTypeInfo@?$IDispatchImpl@UIOPOSPINPad@@$1?IID_IOPOSPINPad@@3U_GUID@@B$1?LIBID_OposPINPad_CCO@@3U3@B$00$0A@VCComTypeInfoHolder@ATL@@@ATL@@UAGJIKPAPAUITypeInfo@@@Z 10002283 f i PINPad.obj
 0001:000012a7       ?GetIDsOfNames@?$IDispatchImpl@UIOPOSPINPad@@$1?IID_IOPOSPINPad@@3U_GUID@@B$1?LIBID_OposPINPad_CCO@@3U3@B$00$0A@VCComTypeInfoHolder@ATL@@@ATL@@UAGJABU_GUID@@PAPA_WIKPAJ@Z 100022a7 f i PINPad.obj
 0001:000012c7       ?Invoke@?$IDispatchImpl@UIOPOSPINPad@@$1?IID_IOPOSPINPad@@3U_GUID@@B$1?LIBID_OposPINPad_CCO@@3U3@B$00$0A@VCComTypeInfoHolder@ATL@@@ATL@@UAGJJABU_GUID@@KGPAUtagDISPPARAMS@@PAUtagVARIANT@@PAUtagEXCEPINFO@@PAI@Z 100022c7 f i PINPad.obj
 0001:000012d5       ?CreateControlWindow@?$CComControl@VCOPOSPINPad@@V?$CWindowImpl@VCOPOSPINPad@@VCWindow@ATL@@V?$CWinTraits@$0FGAAAAAA@$0A@@3@@ATL@@@ATL@@UAEPAUHWND__@@PAU3@AAUtagRECT@@@Z 100022d5 f i PINPad.obj
 0001:00001304       ?ControlQueryInterface@?$CComControl@VCOPOSPINPad@@V?$CWindowImpl@VCOPOSPINPad@@VCWindow@ATL@@V?$CWinTraits@$0FGAAAAAA@$0A@@3@@ATL@@@ATL@@UAEJABU_GUID@@PAPAX@Z 10002304 f i PINPad.obj
 0001:0000131f       ?GetClassID@?$IPersistStreamInitImpl@VCOPOSPINPad@@@ATL@@UAGJPAU_GUID@@@Z 1000231f f i PINPad.obj
 0001:0000131f       ?GetUserClassID@?$IOleObjectImpl@VCOPOSPINPad@@@ATL@@UAGJPAU_GUID@@@Z 1000231f f i PINPad.obj
 0001:0000131f       ?GetClassID@?$IPersistStorageImpl@VCOPOSPINPad@@@ATL@@UAGJPAU_GUID@@@Z 1000231f f i PINPad.obj
 0001:00001343       ?IsDirty@?$IPersistStreamInitImpl@VCOPOSPINPad@@@ATL@@UAGJXZ 10002343 f i PINPad.obj
 0001:00001362       ?Load@?$IPersistStreamInitImpl@VCOPOSPINPad@@@ATL@@UAGJPAUIStream@@@Z 10002362 f i PINPad.obj
 0001:00001381       ?Save@?$IPersistStreamInitImpl@VCOPOSPINPad@@@ATL@@UAGJPAUIStream@@H@Z 10002381 f i PINPad.obj
 0001:000013a3       ?GetSizeMax@?$IPersistStreamInitImpl@VCOPOSPINPad@@@ATL@@UAGJPAT_ULARGE_INTEGER@@@Z 100023a3 f i PINPad.obj
 0001:00001558       ?InitNew@?$IPersistStreamInitImpl@VCOPOSPINPad@@@ATL@@UAGJXZ 10002558 f i PINPad.obj
 0001:00001575       ?GetControlInfo@?$IOleControlImpl@VCOPOSPINPad@@@ATL@@UAGJPAUtagCONTROLINFO@@@Z 10002575 f i PINPad.obj
 0001:00001575       ?ContextSensitiveHelp@?$IOleInPlaceObjectWindowlessImpl@VCOPOSPINPad@@@ATL@@UAGJH@Z 10002575 f i PINPad.obj
 0001:00001575       ?ContextSensitiveHelp@?$IOleInPlaceActiveObjectImpl@VCOPOSPINPad@@@ATL@@UAGJH@Z 10002575 f i PINPad.obj
 0001:00001575       ?SetColorScheme@?$IOleObjectImpl@VCOPOSPINPad@@@ATL@@UAGJPAUtagLOGPALETTE@@@Z 10002575 f i PINPad.obj
 0001:00001575       ?OnMnemonic@?$IOleControlImpl@VCOPOSPINPad@@@ATL@@UAGJPAUtagMSG@@@Z 10002575 f i PINPad.obj
 0001:00001575       ?Unfreeze@?$IViewObjectExImpl@VCOPOSPINPad@@@ATL@@UAGJK@Z 10002575 f i PINPad.obj
 0001:00001575       ?GetDropTarget@?$IOleInPlaceObjectWindowlessImpl@VCOPOSPINPad@@@ATL@@UAGJPAPAUIDropTarget@@@Z 10002575 f i PINPad.obj
 0001:00001575       ?QueryGetData@?$IDataObjectImpl@VCOPOSPINPad@@@ATL@@UAGJPAUtagFORMATETC@@@Z 10002575 f i PINPad.obj
 0001:00001575       ?SOOutputCompleteDummy@COPOSPINPad@@MAGJJ@Z 10002575 f i PINPad.obj
 0001:0000157d       ?OnAmbientPropertyChange@?$IOleControlImpl@VCOPOSPINPad@@@ATL@@UAGJJ@Z 1000257d f i PINPad.obj
 0001:0000157d       ?SaveCompleted@?$IPersistStorageImpl@VCOPOSPINPad@@@ATL@@UAGJPAUIStorage@@@Z 1000257d f i PINPad.obj
 0001:0000157d       ?OnFrameWindowActivate@?$IOleInPlaceActiveObjectImpl@VCOPOSPINPad@@@ATL@@UAGJH@Z 1000257d f i PINPad.obj
 0001:0000157d       ?EnableModeless@?$IOleInPlaceActiveObjectImpl@VCOPOSPINPad@@@ATL@@UAGJH@Z 1000257d f i PINPad.obj
 0001:00001582       ?SetClientSite@?$IOleObjectImpl@VCOPOSPINPad@@@ATL@@UAGJPAUIOleClientSite@@@Z 10002582 f i PINPad.obj
 0001:0000159f       ?GetClientSite@?$IOleObjectImpl@VCOPOSPINPad@@@ATL@@UAGJPAPAUIOleClientSite@@@Z 1000259f f i PINPad.obj
 0001:000015bc       ?SetHostNames@?$IOleObjectImpl@VCOPOSPINPad@@@ATL@@UAGJPB_W0@Z 100025bc f i PINPad.obj
 0001:000015c1       ?Close@?$IOleObjectImpl@VCOPOSPINPad@@@ATL@@UAGJK@Z 100025c1 f i PINPad.obj
 0001:000015de       ?EnumFormatEtc@?$IDataObjectImpl@VCOPOSPINPad@@@ATL@@UAGJKPAPAUIEnumFORMATETC@@@Z 100025de f i PINPad.obj
 0001:000015de       ?GetDataHere@?$IDataObjectImpl@VCOPOSPINPad@@@ATL@@UAGJPAUtagFORMATETC@@PAUtagSTGMEDIUM@@@Z 100025de f i PINPad.obj
 0001:000015de       ?GetRect@?$IViewObjectExImpl@VCOPOSPINPad@@@ATL@@UAGJKPAU_RECTL@@@Z 100025de f i PINPad.obj
 0001:000015de       ?GetClipboardData@?$IOleObjectImpl@VCOPOSPINPad@@@ATL@@UAGJKPAPAUIDataObject@@@Z 100025de f i PINPad.obj
 0001:000015de       ?SetMoniker@?$IOleObjectImpl@VCOPOSPINPad@@@ATL@@UAGJKPAUIMoniker@@@Z 100025de f i PINPad.obj
 0001:000015de       ?QueryInterface@CRegObject@ATL@@UAGJABU_GUID@@PAPAX@Z 100025de f i PINPad.obj
 0001:000015de       ?GetCanonicalFormatEtc@?$IDataObjectImpl@VCOPOSPINPad@@@ATL@@UAGJPAUtagFORMATETC@@0@Z 100025de f i PINPad.obj
 0001:000015e6       ?SetData@?$IDataObjectImpl@VCOPOSPINPad@@@ATL@@UAGJPAUtagFORMATETC@@PAUtagSTGMEDIUM@@H@Z 100025e6 f i PINPad.obj
 0001:000015e6       ?InitFromData@?$IOleObjectImpl@VCOPOSPINPad@@@ATL@@UAGJPAUIDataObject@@HK@Z 100025e6 f i PINPad.obj
 0001:000015e6       ?GetMoniker@?$IOleObjectImpl@VCOPOSPINPad@@@ATL@@UAGJKKPAPAUIMoniker@@@Z 100025e6 f i PINPad.obj
 0001:000015ee       ?DoVerb@?$IOleObjectImpl@VCOPOSPINPad@@@ATL@@UAGJJPAUtagMSG@@PAUIOleClientSite@@JPAUHWND__@@PBUtagRECT@@@Z 100025ee f i PINPad.obj
 0001:00001706       ?EnumVerbs@?$IOleObjectImpl@VCOPOSPINPad@@@ATL@@UAGJPAPAUIEnumOLEVERB@@@Z 10002706 f i PINPad.obj
 0001:00001728       ?Update@?$IOleObjectImpl@VCOPOSPINPad@@@ATL@@UAGJXZ 10002728 f i PINPad.obj
 0001:00001728       ?IsUpToDate@?$IOleObjectImpl@VCOPOSPINPad@@@ATL@@UAGJXZ 10002728 f i PINPad.obj
 0001:00001728       ?HandsOffStorage@?$IPersistStorageImpl@VCOPOSPINPad@@@ATL@@UAGJXZ 10002728 f i PINPad.obj
 0001:00001728       ?Release@CRegObject@ATL@@UAGKXZ 10002728 f i PINPad.obj
 0001:0000172d       ?GetUserType@?$IOleObjectImpl@VCOPOSPINPad@@@ATL@@UAGJKPAPA_W@Z 1000272d f i PINPad.obj
 0001:00001745       ?SetExtent@?$IOleObjectImpl@VCOPOSPINPad@@@ATL@@UAGJKPAUtagSIZE@@@Z 10002745 f i PINPad.obj
 0001:00001765       ?GetExtent@?$IOleObjectImpl@VCOPOSPINPad@@@ATL@@UAGJKPAUtagSIZE@@@Z 10002765 f i PINPad.obj
 0001:000017a3       ?Advise@?$IOleObjectImpl@VCOPOSPINPad@@@ATL@@UAGJPAUIAdviseSink@@PAK@Z 100027a3 f i PINPad.obj
 0001:000017c3       ?Unadvise@?$IOleObjectImpl@VCOPOSPINPad@@@ATL@@UAGJK@Z 100027c3 f i PINPad.obj
 0001:000017f2       ?EnumAdvise@?$IOleObjectImpl@VCOPOSPINPad@@@ATL@@UAGJPAPAUIEnumSTATDATA@@@Z 100027f2 f i PINPad.obj
 0001:00001832       ?GetMiscStatus@?$IOleObjectImpl@VCOPOSPINPad@@@ATL@@UAGJKPAK@Z 10002832 f i PINPad.obj
 0001:0000184a       ?GetWindow@?$IOleInPlaceActiveObjectImpl@VCOPOSPINPad@@@ATL@@UAGJPAPAUHWND__@@@Z 1000284a f i PINPad.obj
 0001:00001897       ?TranslateAcceleratorW@?$IOleInPlaceActiveObjectImpl@VCOPOSPINPad@@@ATL@@UAGJPAUtagMSG@@@Z 10002897 f i PINPad.obj
 0001:00001935       ?OnDocWindowActivate@?$IOleInPlaceActiveObjectImpl@VCOPOSPINPad@@@ATL@@UAGJH@Z 10002935 f i PINPad.obj
 0001:00001957       ?ResizeBorder@?$IOleInPlaceActiveObjectImpl@VCOPOSPINPad@@@ATL@@UAGJPBUtagRECT@@PAUIOleInPlaceUIWindow@@H@Z 10002957 f i PINPad.obj
 0001:0000195c       ?Draw@?$IViewObjectExImpl@VCOPOSPINPad@@@ATL@@UAGJKJPAXPAUtagDVTARGETDEVICE@@PAUHDC__@@2PBU_RECTL@@3P6GHK@ZK@Z 1000295c f i PINPad.obj
 0001:0000198e       ?GetColorSet@?$IViewObjectExImpl@VCOPOSPINPad@@@ATL@@UAGJKJPAXPAUtagDVTARGETDEVICE@@PAUHDC__@@PAPAUtagLOGPALETTE@@@Z 1000298e f i PINPad.obj
 0001:00001996       ?Freeze@?$IViewObjectExImpl@VCOPOSPINPad@@@ATL@@UAGJKJPAXPAK@Z 10002996 f i PINPad.obj
 0001:0000199e       ?SetAdvise@?$IViewObjectExImpl@VCOPOSPINPad@@@ATL@@UAGJKKPAUIAdviseSink@@@Z 1000299e f i PINPad.obj
 0001:000019bd       ?GetAdvise@?$IViewObjectExImpl@VCOPOSPINPad@@@ATL@@UAGJPAK0PAPAUIAdviseSink@@@Z 100029bd f i PINPad.obj
 0001:000019f2       ?GetExtent@?$IViewObjectExImpl@VCOPOSPINPad@@@ATL@@UAGJKJPAUtagDVTARGETDEVICE@@PAUtagSIZE@@@Z 100029f2 f i PINPad.obj
 0001:00001a23       ?GetViewStatus@?$IViewObjectExImpl@VCOPOSPINPad@@@ATL@@UAGJPAK@Z 10002a23 f i PINPad.obj
 0001:00001a40       ?QueryHitPoint@?$IViewObjectExImpl@VCOPOSPINPad@@@ATL@@UAGJKPBUtagRECT@@UtagPOINT@@JPAK@Z 10002a40 f i PINPad.obj
 0001:00001a81       ?QueryHitRect@?$IViewObjectExImpl@VCOPOSPINPad@@@ATL@@UAGJKPBUtagRECT@@0JPAK@Z 10002a81 f i PINPad.obj
 0001:00001adc       ?GetNaturalExtent@?$IViewObjectExImpl@VCOPOSPINPad@@@ATL@@UAGJKJPAUtagDVTARGETDEVICE@@PAUHDC__@@PAUtagExtentInfo@@PAUtagSIZE@@@Z 10002adc f i PINPad.obj
 0001:00001b27       ?GetWindow@?$IOleInPlaceObjectWindowlessImpl@VCOPOSPINPad@@@ATL@@UAGJPAPAUHWND__@@@Z 10002b27 f i PINPad.obj
 0001:00001b74       ?InPlaceDeactivate@?$IOleInPlaceObjectWindowlessImpl@VCOPOSPINPad@@@ATL@@UAGJXZ 10002b74 f i PINPad.obj
 0001:00001b8e       ?UIDeactivate@?$IOleInPlaceObjectWindowlessImpl@VCOPOSPINPad@@@ATL@@UAGJXZ 10002b8e f i PINPad.obj
 0001:00001ba8       ?SetObjectRects@?$IOleInPlaceObjectWindowlessImpl@VCOPOSPINPad@@@ATL@@UAGJPBUtagRECT@@0@Z 10002ba8 f i PINPad.obj
 0001:00001bc8       ?ReactivateAndUndo@?$IOleInPlaceObjectWindowlessImpl@VCOPOSPINPad@@@ATL@@UAGJXZ 10002bc8 f i PINPad.obj
 0001:00001bd0       ?OnWindowMessage@?$IOleInPlaceObjectWindowlessImpl@VCOPOSPINPad@@@ATL@@UAGJIIJPAJ@Z 10002bd0 f i PINPad.obj
 0001:00001c40       ?EnumConnectionPoints@?$IConnectionPointContainerImpl@VCOPOSPINPad@@@ATL@@UAGJPAPAUIEnumConnectionPoints@@@Z 10002c40 f i PINPad.obj
 0001:00001dba       ?FindConnectionPoint@?$IConnectionPointContainerImpl@VCOPOSPINPad@@@ATL@@UAGJABU_GUID@@PAPAUIConnectionPoint@@@Z 10002dba f i PINPad.obj
 0001:00001e5d       ?IsDirty@?$IPersistStorageImpl@VCOPOSPINPad@@@ATL@@UAGJXZ 10002e5d f i PINPad.obj
 0001:00001e91       ?InitNew@?$IPersistStorageImpl@VCOPOSPINPad@@@ATL@@UAGJPAUIStorage@@@Z 10002e91 f i PINPad.obj
 0001:00001ec5       ?Load@?$IPersistStorageImpl@VCOPOSPINPad@@@ATL@@UAGJPAUIStorage@@@Z 10002ec5 f i PINPad.obj
 0001:00001f31       ?Save@?$IPersistStorageImpl@VCOPOSPINPad@@@ATL@@UAGJPAUIStorage@@H@Z 10002f31 f i PINPad.obj
 0001:00001fa4       ?GetPages@?$ISpecifyPropertyPagesImpl@VCOPOSPINPad@@@ATL@@UAGJPAUtagCAUUID@@@Z 10002fa4 f i PINPad.obj
 0001:00001fbb       ?QuickActivate@?$IQuickActivateImpl@VCOPOSPINPad@@@ATL@@UAGJPAUtagQACONTAINER@@PAUtagQACONTROL@@@Z 10002fbb f i PINPad.obj
 0001:00001fde       ?SetContentExtent@?$IQuickActivateImpl@VCOPOSPINPad@@@ATL@@UAGJPAUtagSIZE@@@Z 10002fde f i PINPad.obj
 0001:0000200a       ?GetContentExtent@?$IQuickActivateImpl@VCOPOSPINPad@@@ATL@@UAGJPAUtagSIZE@@@Z 1000300a f i PINPad.obj
 0001:0000202a       ?GetData@?$IDataObjectImpl@VCOPOSPINPad@@@ATL@@UAGJPAUtagFORMATETC@@PAUtagSTGMEDIUM@@@Z 1000302a f i PINPad.obj
 0001:0000204d       ?DAdvise@?$IDataObjectImpl@VCOPOSPINPad@@@ATL@@UAGJPAUtagFORMATETC@@KPAUIAdviseSink@@PAK@Z 1000304d f i PINPad.obj
 0001:0000208e       ?DUnadvise@?$IDataObjectImpl@VCOPOSPINPad@@@ATL@@UAGJK@Z 1000308e f i PINPad.obj
 0001:000020bc       ?EnumDAdvise@?$IDataObjectImpl@VCOPOSPINPad@@@ATL@@UAGJPAPAUIEnumSTATDATA@@@Z 100030bc f i PINPad.obj
 0001:000020fb       ?GetClassInfoW@?$IProvideClassInfo2Impl@$1?CLSID_OPOSPINPad@@3U_GUID@@B$1?DIID__IOPOSPINPadEvents@@3U2@B$1?LIBID_OposPINPad_CCO@@3U2@B$00$0A@VCComTypeInfoHolder@ATL@@@ATL@@UAGJPAPAUITypeInfo@@@Z 100030fb f i PINPad.obj
 0001:00002111       ?GetGUID@?$IProvideClassInfo2Impl@$1?CLSID_OPOSPINPad@@3U_GUID@@B$1?DIID__IOPOSPINPadEvents@@3U2@B$1?LIBID_OposPINPad_CCO@@3U2@B$00$0A@VCComTypeInfoHolder@ATL@@@ATL@@UAGJKPAU_GUID@@@Z 10003111 f i PINPad.obj
 0001:0000214f       ?FAccessAllowed@?$IObjectSafetyImpl@VCOPOSPINPad@@$02@ATL@@MAEHXZ 1000314f f i PINPad.obj
 0001:0000214f       __get_startup_argv_mode    1000314f f i LIBCMT:argv_mode.obj
 0001:00002153       ?GetInterfaceSafetyOptions@?$IObjectSafetyImpl@VCOPOSPINPad@@$02@ATL@@UAGJABU_GUID@@PAK1@Z 10003153 f i PINPad.obj
 0001:000021c7       ?SetInterfaceSafetyOptions@?$IObjectSafetyImpl@VCOPOSPINPad@@$02@ATL@@UAGJABU_GUID@@KK@Z 100031c7 f i PINPad.obj
 0001:00002241       ?_LocCPQueryInterface@?$IConnectionPointImpl@VCOPOSPINPad@@$1?IID_IPropertyNotifySink@@3U_GUID@@BVCComDynamicUnkArray@ATL@@@ATL@@UAGJABU_GUID@@PAPAX@Z 10003241 f i PINPad.obj
 0001:00002241       ?_LocCPQueryInterface@?$IConnectionPointImpl@VCOPOSPINPad@@$1?DIID__IOPOSPINPadEvents@@3U_GUID@@BVCComDynamicUnkArray@ATL@@@ATL@@UAGJABU_GUID@@PAPAX@Z 10003241 f i PINPad.obj
 0001:0000228e       ?GetConnectionInterface@?$IConnectionPointImpl@VCOPOSPINPad@@$1?IID_IPropertyNotifySink@@3U_GUID@@BVCComDynamicUnkArray@ATL@@@ATL@@UAGJPAU_GUID@@@Z 1000328e f i PINPad.obj
 0001:000022b2       ?GetConnectionPointContainer@?$IConnectionPointImpl@VCOPOSPINPad@@$1?IID_IPropertyNotifySink@@3U_GUID@@BVCComDynamicUnkArray@ATL@@@ATL@@UAGJPAPAUIConnectionPointContainer@@@Z 100032b2 f i PINPad.obj
 0001:000022d5       ?Advise@?$IConnectionPointImpl@VCOPOSPINPad@@$1?IID_IPropertyNotifySink@@3U_GUID@@BVCComDynamicUnkArray@ATL@@@ATL@@UAGJPAUIUnknown@@PAK@Z 100032d5 f i PINPad.obj
 0001:000022d5       ?Advise@?$IConnectionPointImpl@VCOPOSPINPad@@$1?DIID__IOPOSPINPadEvents@@3U_GUID@@BVCComDynamicUnkArray@ATL@@@ATL@@UAGJPAUIUnknown@@PAK@Z 100032d5 f i PINPad.obj
 0001:00002376       ?Unadvise@?$IConnectionPointImpl@VCOPOSPINPad@@$1?IID_IPropertyNotifySink@@3U_GUID@@BVCComDynamicUnkArray@ATL@@@ATL@@UAGJK@Z 10003376 f i PINPad.obj
 0001:00002376       ?Unadvise@?$IConnectionPointImpl@VCOPOSPINPad@@$1?DIID__IOPOSPINPadEvents@@3U_GUID@@BVCComDynamicUnkArray@ATL@@@ATL@@UAGJK@Z 10003376 f i PINPad.obj
 0001:000023b6       ?EnumConnections@?$IConnectionPointImpl@VCOPOSPINPad@@$1?IID_IPropertyNotifySink@@3U_GUID@@BVCComDynamicUnkArray@ATL@@@ATL@@UAGJPAPAUIEnumConnections@@@Z 100033b6 f i PINPad.obj
 0001:000023b6       ?EnumConnections@?$IConnectionPointImpl@VCOPOSPINPad@@$1?DIID__IOPOSPINPadEvents@@3U_GUID@@BVCComDynamicUnkArray@ATL@@@ATL@@UAGJPAPAUIEnumConnections@@@Z 100033b6 f i PINPad.obj
 0001:000024bc       ?AddRef@CRegObject@ATL@@UAGKXZ 100034bc f i PINPad.obj
 0001:000024c2       ?AddReplacement@CRegObject@ATL@@UAGJPB_W0@Z 100034c2 f i PINPad.obj
 0001:000024fb       ?ClearReplacements@CRegObject@ATL@@UAGJXZ 100034fb f i PINPad.obj
 0001:0000250d       ?GetConnectionInterface@?$IConnectionPointImpl@VCOPOSPINPad@@$1?DIID__IOPOSPINPadEvents@@3U_GUID@@BVCComDynamicUnkArray@ATL@@@ATL@@UAGJPAU_GUID@@@Z 1000350d f i PINPad.obj
 0001:00002531       ?GetConnectionPointContainer@?$IConnectionPointImpl@VCOPOSPINPad@@$1?DIID__IOPOSPINPadEvents@@3U_GUID@@BVCComDynamicUnkArray@ATL@@@ATL@@UAGJPAPAUIConnectionPointContainer@@@Z 10003531 f i PINPad.obj
 0001:00002554       ??_GCRegObject@ATL@@UAEPAXI@Z 10003554 f i PINPad.obj
 0001:00002554       ??_ECRegObject@ATL@@UAEPAXI@Z 10003554 f i PINPad.obj
 0001:00002576       ?UpdateRegistry@COPOSPINPad@@SGJH@Z 10003576 f i PINPad.obj
 0001:0000258e       ?ProcessWindowMessage@COPOSPINPad@@UAEHPAUHWND__@@IIJAAJK@Z 1000358e f i PINPad.obj
 0001:000025d7       ?SOData@COPOSPINPad@@MAGJJ@Z 100035d7 f i PINPad.obj
 0001:00002610       ?SODirectIO@COPOSPINPad@@MAGJJPAJPAPA_W@Z 10003610 f i PINPad.obj
 0001:00002659       ?SOError@COPOSPINPad@@MAGJJJJPAJ@Z 10003659 f i PINPad.obj
 0001:000026ae       ?SOStatusUpdate@COPOSPINPad@@MAGJJ@Z 100036ae f i PINPad.obj
 0001:000026e7       ?CreateInstance@?$CComCreator@V?$CComObjectCached@VCComClassFactory@ATL@@@ATL@@@ATL@@SGJPAXABU_GUID@@PAPAX@Z 100036e7 f i PINPad.obj
 0001:0000277a       ?CreateInstance@?$CComCreator2@V?$CComCreator@V?$CComObject@VCOPOSPINPad@@@ATL@@@ATL@@V?$CComCreator@V?$CComAggObject@VCOPOSPINPad@@@ATL@@@2@@ATL@@SGJPAXABU_GUID@@PAPAX@Z 1000377a f i PINPad.obj
 0001:0000279a       ?Next@?$CComEnumImpl@UIEnumConnectionPoints@@$1?_GUID_b196b285_bab4_101a_b69c_00aa00341d07@@3U__s_GUID@@BPAUIConnectionPoint@@V?$_CopyInterface@UIConnectionPoint@@@ATL@@@ATL@@UAGJKPAPAUIConnectionPoint@@PAK@Z 1000379a f i PINPad.obj
 0001:00002871       ?Skip@?$CComEnumImpl@UIEnumConnectionPoints@@$1?_GUID_b196b285_bab4_101a_b69c_00aa00341d07@@3U__s_GUID@@BPAUIConnectionPoint@@V?$_CopyInterface@UIConnectionPoint@@@ATL@@@ATL@@UAGJK@Z 10003871 f i PINPad.obj
 0001:0000289e       ?Clone@?$CComEnumImpl@UIEnumConnectionPoints@@$1?_GUID_b196b285_bab4_101a_b69c_00aa00341d07@@3U__s_GUID@@BPAUIConnectionPoint@@V?$_CopyInterface@UIConnectionPoint@@@ATL@@@ATL@@UAGJPAPAUIEnumConnectionPoints@@@Z 1000389e f i PINPad.obj
 0001:0000297d       ?QueryInterface@?$CComObject@V?$CComEnum@UIEnumConnectionPoints@@$1?_GUID_b196b285_bab4_101a_b69c_00aa00341d07@@3U__s_GUID@@BPAUIConnectionPoint@@V?$_CopyInterface@UIConnectionPoint@@@ATL@@VCComSingleThreadModel@6@@ATL@@@ATL@@UAGJABU_GUID@@PAPAX@Z 1000397d f i PINPad.obj
 0001:00002997       ??_E?$CComObject@V?$CComEnum@UIEnumConnectionPoints@@$1?_GUID_b196b285_bab4_101a_b69c_00aa00341d07@@3U__s_GUID@@BPAUIConnectionPoint@@V?$_CopyInterface@UIConnectionPoint@@@ATL@@VCComSingleThreadModel@6@@ATL@@@ATL@@UAEPAXI@Z 10003997 f i PINPad.obj
 0001:00002997       ??_G?$CComObject@V?$CComEnum@UIEnumConnectionPoints@@$1?_GUID_b196b285_bab4_101a_b69c_00aa00341d07@@3U__s_GUID@@BPAUIConnectionPoint@@V?$_CopyInterface@UIConnectionPoint@@@ATL@@VCComSingleThreadModel@6@@ATL@@@ATL@@UAEPAXI@Z 10003997 f i PINPad.obj
 0001:000029b9       ??$?4UITypeInfo2@@@?$CComPtr@UITypeInfo@@@ATL@@QAEPAUITypeInfo@@ABV?$CComPtr@UITypeInfo2@@@1@@Z 100039b9 f i PINPad.obj
 0001:000029e6       ??$AtlAdd@K@ATL@@YAJPAKKK@Z 100039e6 f i PINPad.obj
 0001:00002a09       ??$AtlAdd@_K@ATL@@YAJPA_K_K1@Z 10003a09 f i PINPad.obj
 0001:00002a41       ??$AtlAddThrow@K@ATL@@YAKKK@Z 10003a41 f i PINPad.obj
 0001:00002a67       ??$AtlModuleRegisterWndClassInfoT@VAtlModuleRegisterWndClassInfoParamW@ATL@@@ATL@@YAGPAU_ATL_BASE_MODULE70@0@PAU_ATL_WIN_MODULE70@0@PAU_ATL_WNDCLASSINFOW@0@PAP6GJPAUHWND__@@IIJ@ZVAtlModuleRegisterWndClassInfoParamW@0@@Z 10003a67 f i PINPad.obj
 0001:00002bb5       ??$AtlMultiply@H@ATL@@YAJPAHHH@Z 10003bb5 f i PINPad.obj
 0001:00002bed       ??$AtlMultiply@K@ATL@@YAJPAKKK@Z 10003bed f i PINPad.obj
 0001:00002bed       ??$AtlMultiply@I@ATL@@YAJPAIII@Z 10003bed f i PINPad.obj
 0001:00002c0f       ??$AtlMultiplyThrow@I@ATL@@YAIII@Z 10003c0f f i PINPad.obj
 0001:00002c35       ??0?$CComAggObject@VCOPOSPINPad@@@ATL@@QAE@PAX@Z 10003c35 f i PINPad.obj
 0001:00002c62       ??0?$CComContainedObject@VCOPOSPINPad@@@ATL@@QAE@PAX@Z 10003c62 f i PINPad.obj
 0001:00002d1b       ??0?$CComObject@V?$CComEnum@UIEnumConnectionPoints@@$1?_GUID_b196b285_bab4_101a_b69c_00aa00341d07@@3U__s_GUID@@BPAUIConnectionPoint@@V?$_CopyInterface@UIConnectionPoint@@@ATL@@VCComSingleThreadModel@6@@ATL@@@ATL@@QAE@PAX@Z 10003d1b f i PINPad.obj
 0001:00002d49       ??0?$CComObject@V?$CComEnum@UIEnumConnections@@$1?_GUID_b196b287_bab4_101a_b69c_00aa00341d07@@3U__s_GUID@@BUtagCONNECTDATA@@V?$_Copy@UtagCONNECTDATA@@@ATL@@VCComSingleThreadModel@6@@ATL@@@ATL@@QAE@PAX@Z 10003d49 f i PINPad.obj
 0001:00002d77       ??0?$CComObject@VCOPOSPINPad@@@ATL@@QAE@PAX@Z 10003d77 f i PINPad.obj
 0001:00002e2e       ??0?$CComQIPtr@UIOleControlSite@@$1?_GUID_b196b289_bab4_101a_b69c_00aa00341d07@@3U__s_GUID@@B@ATL@@QAE@PAUIUnknown@@@Z 10003e2e f i PINPad.obj
 0001:00002e57       ??0CAtlModule@ATL@@QAE@XZ  10003e57 f i PINPad.obj
 0001:00002e98       ??0CParseBuffer@CRegParser@ATL@@QAE@H@Z 10003e98 f i PINPad.obj
 0001:00002ece       ??0_ATL_MSG@ATL@@QAE@PAUHWND__@@IIJH@Z 10003ece f i PINPad.obj
 0001:00002f06       ??1?$CComAggObject@VCOPOSPINPad@@@ATL@@UAE@XZ 10003f06 f i PINPad.obj
 0001:00002f2a       ??1?$CComEnumImpl@UIEnumConnectionPoints@@$1?_GUID_b196b285_bab4_101a_b69c_00aa00341d07@@3U__s_GUID@@BPAUIConnectionPoint@@V?$_CopyInterface@UIConnectionPoint@@@ATL@@@ATL@@UAE@XZ 10003f2a f i PINPad.obj
 0001:00002f6a       ??1?$CComEnumImpl@UIEnumConnections@@$1?_GUID_b196b287_bab4_101a_b69c_00aa00341d07@@3U__s_GUID@@BUtagCONNECTDATA@@V?$_Copy@UtagCONNECTDATA@@@ATL@@@ATL@@UAE@XZ 10003f6a f i PINPad.obj
 0001:00002faa       ??1?$CComObject@V?$CComEnum@UIEnumConnectionPoints@@$1?_GUID_b196b285_bab4_101a_b69c_00aa00341d07@@3U__s_GUID@@BPAUIConnectionPoint@@V?$_CopyInterface@UIConnectionPoint@@@ATL@@VCComSingleThreadModel@6@@ATL@@@ATL@@UAE@XZ 10003faa f i PINPad.obj
 0001:00002fcd       ??1?$CComObject@V?$CComEnum@UIEnumConnections@@$1?_GUID_b196b287_bab4_101a_b69c_00aa00341d07@@3U__s_GUID@@BUtagCONNECTDATA@@V?$_Copy@UtagCONNECTDATA@@@ATL@@VCComSingleThreadModel@6@@ATL@@@ATL@@UAE@XZ 10003fcd f i PINPad.obj
 0001:00002ff0       ??1?$CComObject@VCOPOSPINPad@@@ATL@@UAE@XZ 10003ff0 f i PINPad.obj
 0001:000030ae       ??1?$CComObjectCached@VCComClassFactory@ATL@@@ATL@@UAE@XZ 100040ae f i PINPad.obj
 0001:000030c4       ??1?$CComObjectRootEx@VCComMultiThreadModel@ATL@@@ATL@@QAE@XZ 100040c4 f i PINPad.obj
 0001:000030d9       ??1CRegObject@ATL@@UAE@XZ  100040d9 f i PINPad.obj
 0001:000030f9       ??4?$CComPtr@UIAdviseSink@@@ATL@@QAEPAUIAdviseSink@@PAU2@@Z 100040f9 f i PINPad.obj
 0001:000030f9       ??4?$CComPtr@UIOleClientSite@@@ATL@@QAEPAUIOleClientSite@@PAU2@@Z 100040f9 f i PINPad.obj
 0001:000030f9       ??4?$CComPtr@UIUnknown@@@ATL@@QAEPAUIUnknown@@PAU2@@Z 100040f9 f i PINPad.obj
 0001:0000312d       ??4?$CComQIPtr@UIOleObject@@$1?_GUID_00000112_0000_0000_c000_000000000046@@3U__s_GUID@@B@ATL@@QAEPAUIOleObject@@PAUIUnknown@@@Z 1000412d f i PINPad.obj
 0001:00003152       ??4?$CComQIPtr@UISpecifyPropertyPages@@$1?_GUID_b196b28b_bab4_101a_b69c_00aa00341d07@@3U__s_GUID@@B@ATL@@QAEPAUISpecifyPropertyPages@@PAUIUnknown@@@Z 10004152 f i PINPad.obj
 0001:00003177       ??_E?$CComContainedObject@VCOPOSPINPad@@@ATL@@UAEPAXI@Z 10004177 f i PINPad.obj
 0001:00003177       ??_G?$CComContainedObject@VCOPOSPINPad@@@ATL@@UAEPAXI@Z 10004177 f i PINPad.obj
 0001:0000319c       ??_G?$CComObject@VCOPOSPINPad@@@ATL@@UAEPAXI@Z 1000419c f i PINPad.obj
 0001:0000319c       ??_E?$CComObject@VCOPOSPINPad@@@ATL@@UAEPAXI@Z 1000419c f i PINPad.obj
 0001:000031c1       ?Add@?$CSimpleArray@GV?$CSimpleArrayEqualHelper@G@ATL@@@ATL@@QAEHABG@Z 100041c1 f i PINPad.obj
 0001:00003245       ?Add@?$CSimpleMap@PA_WPA_WVCExpansionVectorEqualHelper@ATL@@@ATL@@QAEHABQA_W0@Z 10004245 f i PINPad.obj
 0001:0000329a       ?Add@CComDynamicUnkArray@ATL@@QAEKPAUIUnknown@@@Z 1000429a f i PINPad.obj
 0001:00003355       ?Add@CExpansionVector@ATL@@QAEHPB_W0@Z 10004355 f i PINPad.obj
 0001:00003459       ?AddString@CParseBuffer@CRegParser@ATL@@QAEHPB_W@Z 10004459 f i PINPad.obj
 0001:0000348e       ?AddValue@CRegParser@ATL@@IAEJAAVCRegKey@2@PB_WPA_W@Z 1000448e f i PINPad.obj
 0001:000037af       ?Allocate@?$CAtlSafeAllocBufferManager@VCCRTAllocator@ATL@@@_ATL_SAFE_ALLOCA_IMPL@ATL@@QAEPAXK@Z 100047af f i PINPad.obj
 0001:000037dc       ?Allocate@?$CTempBuffer@E$0BAA@VCCRTAllocator@ATL@@@ATL@@QAEPAEI@Z 100047dc f i PINPad.obj
 0001:0000380b       ?Allocate@?$CTempBuffer@_W$0BAA@VCCRTAllocator@ATL@@@ATL@@QAEPA_WI@Z 1000480b f i PINPad.obj
 0001:0000383a       ?Allocate@?$CTempBuffer@_W$0EAA@VCCRTAllocator@ATL@@@ATL@@QAEPA_WI@Z 1000483a f i PINPad.obj
 0001:00003869       ?AllocateHeap@?$CTempBuffer@E$0BAA@VCCRTAllocator@ATL@@@ATL@@AAEXI@Z 10004869 f i PINPad.obj
 0001:00003869       ?AllocateHeap@?$CTempBuffer@_W$0BAA@VCCRTAllocator@ATL@@@ATL@@AAEXI@Z 10004869 f i PINPad.obj
 0001:00003869       ?AllocateHeap@?$CTempBuffer@_W$0EAA@VCCRTAllocator@ATL@@@ATL@@AAEXI@Z 10004869 f i PINPad.obj
 0001:0000388e       ?Append@CParseBuffer@CRegParser@ATL@@QAEHPB_WH@Z 1000488e f i PINPad.obj
 0001:0000391c       ?AtlCallTermFunc@ATL@@YGXPAU_ATL_MODULE70@1@@Z 1000491c f i PINPad.obj
 0001:00003960       ?AtlCoTaskMemCAlloc@ATL@@YAPAXKK@Z 10004960 f i PINPad.obj
 0001:0000398d       ?AtlCoTaskMemRecalloc@ATL@@YAPAXPAXKK@Z 1000498d f i PINPad.obj
 0001:000039bd       ?AtlComModuleGetClassObject@ATL@@YGJPAU_ATL_COM_MODULE70@1@ABU_GUID@@1PAPAX@Z 100049bd f i PINPad.obj
 0001:00003ab0       ?AtlComModuleRegisterServer@ATL@@YGJPAU_ATL_COM_MODULE70@1@HPBU_GUID@@@Z 10004ab0 f i PINPad.obj
 0001:00003b38       ?AtlComModuleUnregisterServer@ATL@@YGJPAU_ATL_COM_MODULE70@1@HPBU_GUID@@@Z 10004b38 f i PINPad.obj
 0001:00003bc0       ?AtlComQIPtrAssign2@ATL@@YAXPAPAUIUnknown@@PAU2@ABU_GUID@@@Z 10004bc0 f i PINPad.obj
 0001:00003bef       ?AtlCreateTargetDC@ATL@@YGPAUHDC__@@PAU2@PAUtagDVTARGETDEVICE@@@Z 10004bef f i PINPad.obj
 0001:00003c58       ?AtlCrtErrorCheck@ATL@@YAHH@Z 10004c58 f i PINPad.obj
 0001:00003c93       ?AtlHiMetricToPixel@ATL@@YGXPBUtagSIZE@@PAU2@@Z 10004c93 f i PINPad.obj
 0001:00003d08       ?AtlHresultFromLastError@ATL@@YAJXZ 10004d08 f i PINPad.obj
 0001:00003d1f       ?AtlHresultFromWin32@ATL@@YAJK@Z 10004d1f f i PINPad.obj
 0001:00003d34       ?AtlIPersistStreamInit_Load@ATL@@YGJPAUIStream@@PBUATL_PROPMAP_ENTRY@1@PAXPAUIUnknown@@@Z 10004d34 f i PINPad.obj
 0001:00003f14       ?AtlIPersistStreamInit_Save@ATL@@YGJPAUIStream@@HPBUATL_PROPMAP_ENTRY@1@PAXPAUIUnknown@@@Z 10004f14 f i PINPad.obj
 0001:000040ac       ?AtlInternalOleLoadFromStream@ATL@@YAJPAUIStream@@ABU_GUID@@PAPAXTClassesAllowedInStream@1@K@Z 100050ac f i PINPad.obj
 0001:000041d2       ?AtlInternalQueryInterface@ATL@@YGJPAXPBU_ATL_INTMAP_ENTRY@1@ABU_GUID@@PAPAX@Z 100051d2 f i PINPad.obj
 0001:00004275       ?AtlLoadTypeLib@ATL@@YGJPAUHINSTANCE__@@PB_WPAPA_WPAPAUITypeLib@@@Z 10005275 f i PINPad.obj
 0001:00004453       ?AtlModuleAddTermFunc@ATL@@YGJPAU_ATL_MODULE70@1@P6GXK@ZK@Z 10005453 f i PINPad.obj
 0001:000044b0       ?AtlRegisterClassCategoriesHelper@ATL@@YGJABU_GUID@@PBU_ATL_CATMAP_ENTRY@1@H@Z 100054b0 f i PINPad.obj
 0001:00004790       ?AtlRegisterTypeLib@ATL@@YGJPAUHINSTANCE__@@PB_W@Z 10005790 f i PINPad.obj
 0001:00004918       ?AtlThrowImpl@ATL@@YGXJ@Z  10005918 f i PINPad.obj
 0001:00004936       ?AtlUnRegisterTypeLib@ATL@@YGJPAUHINSTANCE__@@PB_W@Z 10005936 f i PINPad.obj
 0001:000049e1       ?AtlWinModuleAddCreateWndData@ATL@@YGXPAU_ATL_WIN_MODULE70@1@PAU_AtlCreateWndData@1@PAX@Z 100059e1 f i PINPad.obj
 0001:00004a35       ?AtlWinModuleExtractCreateWndData@ATL@@YGPAXPAU_ATL_WIN_MODULE70@1@@Z 10005a35 f i PINPad.obj
 0001:00004a98       ?AtlWinModuleRegisterClassExW@ATL@@YGGPAU_ATL_WIN_MODULE70@1@PBUtagWNDCLASSEXW@@@Z 10005a98 f i PINPad.obj
 0001:00004ad7       ?CanForceRemoveKey@CRegParser@ATL@@IAEHPB_W@Z 10005ad7 f i PINPad.obj
 0001:00004b06       ?ChToByte@CRegParser@ATL@@KAE_W@Z 10005b06 f i PINPad.obj
 0001:00004b39       ?Cleanup@CComTypeInfoHolder@ATL@@SGXK@Z 10005b39 f i PINPad.obj
 0001:00004b6c       ?ClearReplacements@CExpansionVector@ATL@@QAEJXZ 10005b6c f i PINPad.obj
 0001:00004ba9       ?Close@CRegKey@ATL@@QAEJXZ 10005ba9 f i PINPad.obj
 0001:00004bc3       ?CreateInstance@?$CComCreator@V?$CComAggObject@VCOPOSPINPad@@@ATL@@@ATL@@SGJPAXABU_GUID@@PAPAX@Z 10005bc3 f i PINPad.obj
 0001:00004c39       ?CreateInstance@?$CComCreator@V?$CComObject@VCOPOSPINPad@@@ATL@@@ATL@@SGJPAXABU_GUID@@PAPAX@Z 10005c39 f i PINPad.obj
 0001:00004cba       ?CreateInstance@?$CComObject@V?$CComEnum@UIEnumConnectionPoints@@$1?_GUID_b196b285_bab4_101a_b69c_00aa00341d07@@3U__s_GUID@@BPAUIConnectionPoint@@V?$_CopyInterface@UIConnectionPoint@@@ATL@@VCComSingleThreadModel@6@@ATL@@@ATL@@SGJPAPAV12@@Z 10005cba f i PINPad.obj
 0001:00004d01       ?CreateInstance@?$CComObject@V?$CComEnum@UIEnumConnections@@$1?_GUID_b196b287_bab4_101a_b69c_00aa00341d07@@3U__s_GUID@@BUtagCONNECTDATA@@V?$_Copy@UtagCONNECTDATA@@@ATL@@VCComSingleThreadModel@6@@ATL@@@ATL@@SGJPAPAV12@@Z 10005d01 f i PINPad.obj
 0001:00004d48       ?DefaultReflectionHandler@?$CWindowImplRoot@VCWindow@ATL@@@ATL@@SAHPAUHWND__@@IIJAAJ@Z 10005d48 f i PINPad.obj
 0001:00004dbb       ?DeleteSubKey@CRegKey@ATL@@QAEJPB_W@Z 10005dbb f i PINPad.obj
 0001:00004e34       ?DoEvent@COPOSPINPad@@IAEXIIJ@Z 10005e34 f i PINPad.obj
 0001:00004eb4       ?DoVerbHide@?$IOleObjectImpl@VCOPOSPINPad@@@ATL@@QAEJPBUtagRECT@@PAUHWND__@@@Z 10005eb4 f i PINPad.obj
 0001:00004eea       ?DoVerbInPlaceActivate@?$IOleObjectImpl@VCOPOSPINPad@@@ATL@@QAEJPBUtagRECT@@PAUHWND__@@@Z 10005eea f i PINPad.obj
 0001:00004f1d       ?DoVerbPrimary@?$IOleObjectImpl@VCOPOSPINPad@@@ATL@@QAEJPBUtagRECT@@PAUHWND__@@@Z 10005f1d f i PINPad.obj
 0001:00004fa9       ?DoVerbProperties@CComControlBase@ATL@@QAEJPBUtagRECT@@PAUHWND__@@@Z 10005fa9 f i PINPad.obj
 0001:000050d0       ?DoVerbShow@?$IOleObjectImpl@VCOPOSPINPad@@@ATL@@QAEJPBUtagRECT@@PAUHWND__@@@Z 100060d0 f i PINPad.obj
 0001:000050f5       ?DoVerbUIActivate@?$IOleObjectImpl@VCOPOSPINPad@@@ATL@@QAEJPBUtagRECT@@PAUHWND__@@@Z 100060f5 f i PINPad.obj
 0001:00005132       ?DoesVerbActivate@CComControlBase@ATL@@QAEHJ@Z 10006132 f i PINPad.obj
 0001:00005153       ?DoesVerbUIActivate@CComControlBase@ATL@@QAEHJ@Z 10006153 f i PINPad.obj
 0001:00005188       ?EndOfVar@CRegParser@ATL@@IAEHXZ 10006188 f i PINPad.obj
 0001:000051a8       ?EscapeSingleQuote@CAtlModule@ATL@@SAXPA_WIPB_W@Z 100061a8 f i PINPad.obj
 0001:000051f7       ?FindKey@?$CSimpleMap@PA_WPA_WVCExpansionVectorEqualHelper@ATL@@@ATL@@QBEHABQA_W@Z 100061f7 f i PINPad.obj
 0001:0000522e       ?FireTheEvent@?$CProxy_IOPOSEvents@VCOPOSPINPad@@@@IAEXPAVOposVariant@@IAAJPB_WJ@Z 1000622e f i PINPad.obj
 0001:000052c0       ?FireViewChange@CComControlBase@ATL@@QAEJXZ 100062c0 f i PINPad.obj
 0001:00005309       ?Fire_DataEvent@?$CProxy_IOPOSEvents@VCOPOSPINPad@@@@QAEXJ@Z 10006309 f i PINPad.obj
 0001:00005395       ?Fire_DirectIOEvent@?$CProxy_IOPOSEvents@VCOPOSPINPad@@@@QAEXJPAJPAPA_W@Z 10006395 f i PINPad.obj
 0001:0000547b       ?Fire_ErrorEvent@?$CProxy_IOPOSEvents@VCOPOSPINPad@@@@QAEXJJJPAJ@Z 1000647b f i PINPad.obj
 0001:00005562       ?Fire_StatusUpdateEvent@?$CProxy_IOPOSEvents@VCOPOSPINPad@@@@QAEXJ@Z 10006562 f i PINPad.obj
 0001:000055ee       ?FreeHeap@?$CTempBuffer@_W$0BAA@VCCRTAllocator@ATL@@@ATL@@AAEXXZ 100065ee f i PINPad.obj
 0001:000055ee       ?FreeHeap@?$CTempBuffer@E$0BAA@VCCRTAllocator@ATL@@@ATL@@AAEXXZ 100065ee f i PINPad.obj
 0001:000055ee       ?FreeHeap@?$CTempBuffer@_W$0EAA@VCCRTAllocator@ATL@@@ATL@@AAEXXZ 100065ee f i PINPad.obj
 0001:000055f7       ?GetAmbientLocaleID@CComControlBase@ATL@@QAEJAAK@Z 100065f7 f i PINPad.obj
 0001:00005653       ?GetAmbientUserMode@CComControlBase@ATL@@QAEJAAH@Z 10006653 f i PINPad.obj
 0001:000056c3       ?GetAt@CComDynamicUnkArray@ATL@@QAEPAUIUnknown@@H@Z 100066c3 f i PINPad.obj
 0001:000056df       ?GetClassObject@CComModule@ATL@@QAEJABU_GUID@@0PAPAX@Z 100066df f i PINPad.obj
 0001:00005781       ?GetConnMap@COPOSPINPad@@SAPBU_ATL_CONNMAP_ENTRY@ATL@@PAH@Z 10006781 f i PINPad.obj
 0001:000057f1       ?GetCookie@CComDynamicUnkArray@ATL@@QAGKPAPAUIUnknown@@@Z 100067f1 f i PINPad.obj
 0001:00005829       ?GetIDsOfNames@CComTypeInfoHolder@ATL@@QAEJABU_GUID@@PAPA_WIKPAJ@Z 10006829 f i PINPad.obj
 0001:00005937       ?GetKeyAt@?$CSimpleMap@PA_WPA_WVCExpansionVectorEqualHelper@ATL@@@ATL@@QBEAAPA_WH@Z 10006937 f i PINPad.obj
 0001:0000595c       ?GetPagesHelper@?$ISpecifyPropertyPagesImpl@VCOPOSPINPad@@@ATL@@IAEJPAUtagCAUUID@@PBUATL_PROPMAP_ENTRY@2@@Z 1000695c f i PINPad.obj
 0001:00005a83       ?GetProperty@?$CComPtr@UIDispatch@@@ATL@@SAJPAUIDispatch@@JPAUtagVARIANT@@@Z 10006a83 f i PINPad.obj
 0001:00005ad2       ?GetSizeMax@CComVariant@ATL@@QBEJPAT_ULARGE_INTEGER@@@Z 10006ad2 f i PINPad.obj
 0001:00005c8c       ?GetStreamSize@CComBSTR@ATL@@SAKPA_W@Z 10006c8c f i PINPad.obj
 0001:00005ca6       ?GetTI@CComTypeInfoHolder@ATL@@QAEJK@Z 10006ca6 f i PINPad.obj
 0001:00005e8f       ?GetTI@CComTypeInfoHolder@ATL@@QAEJKPAPAUITypeInfo@@@Z 10006e8f f i PINPad.obj
 0001:00005ed1       ?GetUnknown@CComDynamicUnkArray@ATL@@QAGPAUIUnknown@@K@Z 10006ed1 f i PINPad.obj
 0001:00005ef2       ?GetValueAt@?$CSimpleMap@PA_WPA_WVCExpansionVectorEqualHelper@ATL@@@ATL@@QBEAAPA_WH@Z 10006ef2 f i PINPad.obj
 0001:00005f18       ?GetZoomInfo@CComControlBase@ATL@@QAEXAAUATL_DRAWINFO@@@Z 10006f18 f i PINPad.obj
 0001:00005fab       ?HKeyFromString@CRegParser@ATL@@KAPAUHKEY__@@PA_W@Z 10006fab f i PINPad.obj
 0001:00005fd9       ?HasSubKeys@CRegParser@ATL@@IAEHPAUHKEY__@@@Z 10006fd9 f i PINPad.obj
 0001:0000600e       ?IDataObject_GetData@CComControlBase@ATL@@QAEJPAUtagFORMATETC@@PAUtagSTGMEDIUM@@@Z 1000700e f i PINPad.obj
 0001:000061b4       ?IOleInPlaceObject_InPlaceDeactivate@CComControlBase@ATL@@QAEJXZ 100071b4 f i PINPad.obj
 0001:0000623b       ?IOleInPlaceObject_SetObjectRects@CComControlBase@ATL@@QAEJPBUtagRECT@@0@Z 1000723b f i PINPad.obj
 0001:00006308       ?IOleInPlaceObject_UIDeactivate@CComControlBase@ATL@@QAEJXZ 10007308 f i PINPad.obj
 0001:000063ca       ?IOleObject_Advise@CComControlBase@ATL@@QAEJPAUIAdviseSink@@PAK@Z 100073ca f i PINPad.obj
 0001:000063f4       ?IOleObject_Close@CComControlBase@ATL@@QAEJK@Z 100073f4 f i PINPad.obj
 0001:000064d8       ?IOleObject_GetClientSite@CComControlBase@ATL@@QAEJPAPAUIOleClientSite@@@Z 100074d8 f i PINPad.obj
 0001:00006501       ?IOleObject_SetClientSite@CComControlBase@ATL@@QAEJPAUIOleClientSite@@@Z 10007501 f i PINPad.obj
 0001:00006540       ?IOleObject_SetExtent@CComControlBase@ATL@@QAEJKPAUtagSIZE@@@Z 10007540 f i PINPad.obj
 0001:000065f4       ?IPSI_GetIPersistStreamInit@?$IPersistStorageImpl@VCOPOSPINPad@@@ATL@@AAEPAUIPersistStreamInit@@XZ 100075f4 f i PINPad.obj
 0001:00006636       ?IPersistStreamInit_Load@?$IPersistStreamInitImpl@VCOPOSPINPad@@@ATL@@QAEJPAUIStream@@PBUATL_PROPMAP_ENTRY@2@@Z 10007636 f i PINPad.obj
 0001:00006662       ?IPersistStreamInit_Save@?$IPersistStreamInitImpl@VCOPOSPINPad@@@ATL@@QAEJPAUIStream@@HPBUATL_PROPMAP_ENTRY@2@@Z 10007662 f i PINPad.obj
 0001:00006697       ?IQuickActivate_QuickActivate@CComControlBase@ATL@@QAEJPAUtagQACONTAINER@@PAUtagQACONTROL@@@Z 10007697 f i PINPad.obj
 0001:000068d9       ?IViewObject_Draw@CComControlBase@ATL@@QAEJKJPAXPAUtagDVTARGETDEVICE@@PAUHDC__@@2PBU_RECTL@@3@Z 100078d9 f i PINPad.obj
 0001:00006981       ?InPlaceActivate@CComControlBase@ATL@@QAEJJPBUtagRECT@@@Z 10007981 f i PINPad.obj
 0001:00006bf2       ?Init@?$CComEnumImpl@UIEnumConnectionPoints@@$1?_GUID_b196b285_bab4_101a_b69c_00aa00341d07@@3U__s_GUID@@BPAUIConnectionPoint@@V?$_CopyInterface@UIConnectionPoint@@@ATL@@@ATL@@QAEJPAPAUIConnectionPoint@@0PAUIUnknown@@W4CComEnumFlags@2@@Z 10007bf2 f i PINPad.obj
 0001:00006cd1       ?Init@?$CComEnumImpl@UIEnumConnections@@$1?_GUID_b196b287_bab4_101a_b69c_00aa00341d07@@3U__s_GUID@@BUtagCONNECTDATA@@V?$_Copy@UtagCONNECTDATA@@@ATL@@@ATL@@QAEJPAUtagCONNECTDATA@@0PAUIUnknown@@W4CComEnumFlags@2@@Z 10007cd1 f i PINPad.obj
 0001:00006db0       ?Init@CComModule@ATL@@QAEJPAU_ATL_OBJMAP_ENTRY30@2@PAUHINSTANCE__@@PBU_GUID@@@Z 10007db0 f i PINPad.obj
 0001:00006e0f       ?Init@CDynamicStdCallThunk2@ATL@@QAEHKPAX@Z 10007e0f f i PINPad.obj
 0001:00006e3a       ?InlineIsEqualUnknown@ATL@@YGHABU_GUID@@@Z 10007e3a f i PINPad.obj
 0001:00006e62       ?InternalGetSite@CComControlBase@ATL@@QAEJABU_GUID@@PAPAX@Z 10007e62 f i PINPad.obj
 0001:00006e90       ?InternalSetAtIndex@?$CSimpleMap@PA_WPA_WVCExpansionVectorEqualHelper@ATL@@@ATL@@QAEXHABQA_W0@Z 10007e90 f i PINPad.obj
 0001:00006eba       ?Invoke@CComTypeInfoHolder@ATL@@QAEJPAUIDispatch@@JABU_GUID@@KGPAUtagDISPPARAMS@@PAUtagVARIANT@@PAUtagEXCEPINFO@@PAI@Z 10007eba f i PINPad.obj
 0001:00006efd       ?IsEqualObject@?$CComPtrBase@UITypeInfo@@@ATL@@QAE_NPAUIUnknown@@@Z 10007efd f i PINPad.obj
 0001:00006efd       ?IsEqualObject@?$CComPtrBase@UIOleClientSite@@@ATL@@QAE_NPAUIUnknown@@@Z 10007efd f i PINPad.obj
 0001:00006f6a       ?IsSpace@CRegParser@ATL@@IAEH_W@Z 10007f6a f i PINPad.obj
 0001:00006f94       ?LoadNameCache@CComTypeInfoHolder@ATL@@QAEJPAUITypeInfo@@@Z 10007f94 f i PINPad.obj
 0001:000070e2       ?Lookup@?$CSimpleMap@PA_WPA_WVCExpansionVectorEqualHelper@ATL@@@ATL@@QBEPA_WABQA_W@Z 100080e2 f i PINPad.obj
 0001:00007108       ?NextToken@CRegParser@ATL@@IAEJPA_W@Z 10008108 f i PINPad.obj
 0001:00007240       ?OnKillFocus@CComControlBase@ATL@@QAEJIIJAAH@Z 10008240 f i PINPad.obj
 0001:0000729b       ?OnMouseActivate@CComControlBase@ATL@@QAEJIIJAAH@Z 1000829b f i PINPad.obj
 0001:00007309       ?OnPaint@CComControlBase@ATL@@QAEJIIJAAH@Z 10008309 f i PINPad.obj
 0001:000073bb       ?OnSetFocus@CComControlBase@ATL@@QAEJIIJAAH@Z 100083bb f i PINPad.obj
 0001:00007444       ?Open@CRegKey@ATL@@QAEJPAUHKEY__@@PB_WK@Z 10008444 f i PINPad.obj
 0001:00007499       ?PreProcessBuffer@CRegParser@ATL@@QAEJPA_WPAPA_W@Z 10008499 f i PINPad.obj
 0001:00007703       ?ProcessWindowMessage@?$CComControl@VCOPOSPINPad@@V?$CWindowImpl@VCOPOSPINPad@@VCWindow@ATL@@V?$CWinTraits@$0FGAAAAAA@$0A@@3@@ATL@@@ATL@@UAEHPAUHWND__@@IIJAAJK@Z 10008703 f i PINPad.obj
 0001:000077a2       ?PutProperty@?$CComPtr@UIDispatch@@@ATL@@SAJPAUIDispatch@@JPAUtagVARIANT@@@Z 100087a2 f i PINPad.obj
 0001:00007834       ?ReadFromStream@CComBSTR@ATL@@QAEJPAUIStream@@@Z 10008834 f i PINPad.obj
 0001:00007962       ?ReadFromStream@CComVariant@ATL@@QAEJPAUIStream@@GTClassesAllowedInStream@2@K@Z 10008962 f i PINPad.obj
 0001:00007ae8       ?RecurseDeleteKey@CRegKey@ATL@@QAEJPB_W@Z 10008ae8 f i PINPad.obj
 0001:00007baa       ?RegCreateKeyExW@CAtlTransactionManager@ATL@@QAEJPAUHKEY__@@PB_WKPA_WKKQAU_SECURITY_ATTRIBUTES@@PAPAU3@PAK@Z 10008baa f i PINPad.obj
 0001:00007c0d       ?RegDeleteKeyW@CAtlTransactionManager@ATL@@QAEJPAUHKEY__@@PB_W@Z 10008c0d f i PINPad.obj
 0001:00007c5f       ?RegOpenKeyExW@CAtlTransactionManager@ATL@@QAEJPAUHKEY__@@PB_WKKPAPAU3@@Z 10008c5f f i PINPad.obj
 0001:00007cb6       ?Register@_ATL_WNDCLASSINFOW@ATL@@QAEGPAP6GJPAUHWND__@@IIJ@Z@Z 10008cb6 f i PINPad.obj
 0001:00007cd6       ?RegisterBuffer@CRegParser@ATL@@QAEJPA_WH@Z 10008cd6 f i PINPad.obj
 0001:00007e0f       ?RegisterFromResource@CRegObject@ATL@@IAEJPB_W00H@Z 10008e0f f i PINPad.obj
 0001:00007f45       ?RegisterServer@?$CAtlModuleT@VCComModule@ATL@@@ATL@@QAEJHPBU_GUID@@@Z 10008f45 f i PINPad.obj
 0001:00007f73       ?RegisterServer@CComModule@ATL@@QAEJHPBU_GUID@@@Z 10008f73 f i PINPad.obj
 0001:00007fe9       ?RegisterSubkeys@CRegParser@ATL@@IAEJPA_WPAUHKEY__@@HH@Z 10008fe9 f i PINPad.obj
 0001:000085b8       ?Remove@CComDynamicUnkArray@ATL@@QAEHK@Z 100095b8 f i PINPad.obj
 0001:000085e1       ?RemoveAll@?$CSimpleMap@PA_WPA_WVCExpansionVectorEqualHelper@ATL@@@ATL@@QAEXXZ 100095e1 f i PINPad.obj
 0001:0000860d       ?ResourceRegisterSz@CRegObject@ATL@@QAGJPB_W00@Z 1000960d f i PINPad.obj
 0001:0000863a       ?ResourceUnregisterSz@CRegObject@ATL@@QAGJPB_W00@Z 1000963a f i PINPad.obj
 0001:00008667       ?SendOnDataChange@CComControlBase@ATL@@QAEJK@Z 10009667 f i PINPad.obj
 0001:000086b4       ?SetControlFocus@CComControlBase@ATL@@QAEHH@Z 100096b4 f i PINPad.obj
 0001:00008751       ?SetMultiStringValue@CRegKey@ATL@@QAEJPB_W0@Z 10009751 f i PINPad.obj
 0001:000087ad       ?SetStringValue@CRegKey@ATL@@QAEJPB_W0K@Z 100097ad f i PINPad.obj
 0001:000087f6       ?SkipAssignment@CRegParser@ATL@@IAEJPA_W@Z 100097f6 f i PINPad.obj
 0001:0000885b       ?SkipWhiteSpace@CRegParser@ATL@@IAEXXZ 1000985b f i PINPad.obj
 0001:0000887d       ?StrChrW@CRegParser@ATL@@KAPA_WPA_W_W@Z 1000987d f i PINPad.obj
 0001:000088ba       ?Term@CAtlModule@ATL@@QAEXXZ 100098ba f i PINPad.obj
 0001:000088f3       ?Term@CComModule@ATL@@QAEXXZ 100098f3 f i PINPad.obj
 0001:0000894b       ?UnregisterServer@?$CAtlModuleT@VCComModule@ATL@@@ATL@@QAEJHPBU_GUID@@@Z 1000994b f i PINPad.obj
 0001:00008971       ?UnregisterServer@CComModule@ATL@@QAEJHPBU_GUID@@@Z 10009971 f i PINPad.obj
 0001:000089e7       ?UpdateRegistryFromResource@CAtlModule@ATL@@QAGJIHPAU_ATL_REGMAP_ENTRY@2@@Z 100099e7 f i PINPad.obj
 0001:00008bb2       ?UpdateRegistryFromResource@CAtlModule@ATL@@QAGJPB_WHPAU_ATL_REGMAP_ENTRY@2@@Z 10009bb2 f i PINPad.obj
 0001:00008d83       ?VTFromRegType@CRegParser@ATL@@KAHPB_WAAG@Z 10009d83 f i PINPad.obj
 0001:00008df0       ?WindowProc@?$CWindowImplBaseT@VCWindow@ATL@@V?$CWinTraits@$0FGAAAAAA@$0A@@2@@ATL@@SGJPAUHWND__@@IIJ@Z 10009df0 f i PINPad.obj
 0001:00008ee2       ?WriteToStream@CComBSTR@ATL@@QAEJPAUIStream@@@Z 10009ee2 f i PINPad.obj
 0001:00008f39       ?WriteToStream@CComVariant@ATL@@QAEJPAUIStream@@@Z 10009f39 f i PINPad.obj
 0001:000090b3       ?WriteToStream@CComVariant@ATL@@QAEJPAUIStream@@G@Z 1000a0b3 f i PINPad.obj
 0001:0000911c       ?_AtlInitialConstruct@?$CComObjectRootEx@VCComMultiThreadModel@ATL@@@ATL@@QAEJXZ 1000a11c f i PINPad.obj
 0001:00009131       ?_AtlVerifyStackAvailable@_ATL_SAFE_ALLOCA_IMPL@ATL@@YA_NK@Z 1000a131 f i PINPad.obj
 0001:000091af       ?atlCreate@?$CWindowImpl@VCOPOSPINPad@@VCWindow@ATL@@V?$CWinTraits@$0FGAAAAAA@$0A@@3@@ATL@@QAEPAUHWND__@@PAU3@V_U_RECT@2@PB_WKKV_U_MENUorID@2@PAX@Z 1000a1af f i PINPad.obj
 0001:000091f3       ?atlCreate@?$CWindowImplBaseT@VCWindow@ATL@@V?$CWinTraits@$0FGAAAAAA@$0A@@2@@ATL@@QAEPAUHWND__@@PAU3@V_U_RECT@2@PB_WKKV_U_MENUorID@2@GPAX@Z 1000a1f3 f i PINPad.obj
 0001:0000928f       ?atlCreate@CRegKey@ATL@@QAEJPAUHKEY__@@PB_WPA_WKKPAU_SECURITY_ATTRIBUTES@@PAK@Z 1000a28f f i PINPad.obj
 0001:000092fe       ?copy@?$_Copy@UtagCONNECTDATA@@@ATL@@SAJPAUtagCONNECTDATA@@PBU3@@Z 1000a2fe f i PINPad.obj
 0001:00009334       ?copy@?$_CopyInterface@UIConnectionPoint@@@ATL@@SAJPAPAUIConnectionPoint@@PBQAU3@@Z 1000a334 f i PINPad.obj
 0001:00009362       ?memcpy_s@Checked@ATL@@YAXPAXIPBXI@Z 1000a362 f i PINPad.obj
 0001:00009381       ?ocscpy_s@@YA_NPA_WIPB_W@Z 1000a381 f i PINPad.obj
 0001:000093b0       ?ocslen@@YAHPB_W@Z         1000a3b0 f i PINPad.obj
 0001:000093d0       ?wcscpy_s@Checked@ATL@@YAXPA_WIPB_W@Z 1000a3d0 f i PINPad.obj
 0001:000093ec       _DllCanUnloadNow@0         1000a3ec f   PINPad.obj
 0001:000093f8       _DllGetClassObject@12      1000a3f8 f   PINPad.obj
 0001:00009406       _DllMain@12                1000a406 f   PINPad.obj
 0001:00009448       _DllRegisterServer@0       1000a448 f   PINPad.obj
 0001:00009457       _DllUnregisterServer@0     1000a457 f   PINPad.obj
 0001:00009466       _InlineIsEqualGUID         1000a466 f i PINPad.obj
 0001:00009496       ___local_stdio_printf_options 1000a496 f i PINPad.obj
 0001:0000949c       __vswprintf_s_l            1000a49c f i PINPad.obj
 0001:00009549       _swprintf_s                1000a549 f i PINPad.obj
 0001:00009565       ??0?$CComControl@VCOPOSPINPad@@V?$CWindowImpl@VCOPOSPINPad@@VCWindow@ATL@@V?$CWinTraits@$0FGAAAAAA@$0A@@3@@ATL@@@ATL@@QAE@XZ 1000a565 f i PINPadImpl.obj
 0001:0000958c       ??0?$CProxy_IOPOSEvents@VCOPOSPINPad@@@@QAE@XZ 1000a58c f i PINPadImpl.obj
 0001:000095ac       ??0CComControlBase@ATL@@QAE@AAPAUHWND__@@@Z 1000a5ac f i PINPadImpl.obj
 0001:000095f6       ??0COPOSPINPad@@QAE@XZ     1000a5f6 f   PINPadImpl.obj
 0001:0000962c       ??1?$CComControl@VCOPOSPINPad@@V?$CWindowImpl@VCOPOSPINPad@@VCWindow@ATL@@V?$CWinTraits@$0FGAAAAAA@$0A@@3@@ATL@@@ATL@@UAE@XZ 1000a62c f i PINPadImpl.obj
 0001:00009645       ??1?$IConnectionPointImpl@VCOPOSPINPad@@$1?DIID__IOPOSPINPadEvents@@3U_GUID@@BVCComDynamicUnkArray@ATL@@@ATL@@QAE@XZ 1000a645 f i PINPadImpl.obj
 0001:00009645       ??1?$IConnectionPointImpl@VCOPOSPINPad@@$1?IID_IPropertyNotifySink@@3U_GUID@@BVCComDynamicUnkArray@ATL@@@ATL@@QAE@XZ 1000a645 f i PINPadImpl.obj
 0001:00009682       ??1CComControlBase@ATL@@UAE@XZ 1000a682 f i PINPadImpl.obj
 0001:000096e5       ??1COPOSPINPad@@UAE@XZ     1000a6e5 f   PINPadImpl.obj
 0001:0000972d       ??1OposVariantResult@@QAE@XZ 1000a72d f i PINPadImpl.obj
 0001:0000974e       ??1_CW@@QAE@XZ             1000a74e f i PINPadImpl.obj
 0001:00009767       ?BeginEFTTransaction@COPOSPINPad@@UAGJPA_WJPAJ@Z 1000a767 f   PINPadImpl.obj
 0001:000097e3       ?CheckHealth@COPOSPINPad@@UAGJJPAJ@Z 1000a7e3 f   PINPadImpl.obj
 0001:00009832       ?ClaimDevice@COPOSPINPad@@UAGJJPAJ@Z 1000a832 f   PINPadImpl.obj
 0001:000098a7       ?ClearInput@COPOSPINPad@@UAGJPAJ@Z 1000a8a7 f   PINPadImpl.obj
 0001:000098c2       ?ClearInputProperties@COPOSPINPad@@UAGJPAJ@Z 1000a8c2 f   PINPadImpl.obj
 0001:000098dd       ?Close@COPOSPINPad@@UAGJPAJ@Z 1000a8dd f   PINPadImpl.obj
 0001:0000994b       ?CompareFirmwareVersion@COPOSPINPad@@UAGJPA_WPAJ1@Z 1000a94b f   PINPadImpl.obj
 0001:000099cb       ?ComputeMAC@COPOSPINPad@@UAGJPA_WPAPA_WPAJ@Z 1000a9cb f   PINPadImpl.obj
 0001:00009a4b       ?DirectIO@COPOSPINPad@@UAGJJPAJPAPA_W0@Z 1000aa4b f   PINPadImpl.obj
 0001:00009af9       ?DoInvoke@COPOSPINPad@@IAEJJPAVOposVariant@@IHPAJ_N@Z 1000aaf9 f   PINPadImpl.obj
 0001:00009bbb       ?EnablePINEntry@COPOSPINPad@@UAGJPAJ@Z 1000abbb f   PINPadImpl.obj
 0001:00009bd6       ?EndEFTTransaction@COPOSPINPad@@UAGJJPAJ@Z 1000abd6 f   PINPadImpl.obj
 0001:00009c25       ?EventClose@COPOSPINPad@@IAEXXZ 1000ac25 f i PINPadImpl.obj
 0001:00009c58       ?EventInit@COPOSPINPad@@IAEJXZ 1000ac58 f i PINPadImpl.obj
 0001:00009d24       ?EventUninit@COPOSPINPad@@IAEXXZ 1000ad24 f i PINPadImpl.obj
 0001:00009d76       ?EventWindowProc@COPOSPINPad@@IAGJIIJ@Z 1000ad76 f i PINPadImpl.obj
 0001:00009e4a       ?FinalConstruct@COPOSPINPad@@QAEJXZ 1000ae4a f   PINPadImpl.obj
 0001:00009e83       ?FireEventCleanup@COPOSPINPad@@IAEXXZ 1000ae83 f i PINPadImpl.obj
 0001:00009e99       ?FireEventSetup@COPOSPINPad@@IAE_NXZ 1000ae99 f i PINPadImpl.obj
 0001:00009ecd       ?FreezeEvents@COPOSPINPad@@MAGJH@Z 1000aecd f   PINPadImpl.obj
 0001:00009f2d       ?GetOposProp@COPOSPINPad@@IAEJJPAFJ@Z 1000af2d f   PINPadImpl.obj
 0001:00009f50       ?GetOposProp@COPOSPINPad@@IAEJJPAJJ@Z 1000af50 f   PINPadImpl.obj
 0001:0000a00e       ?GetOposProp@COPOSPINPad@@IAEJJPAPA_WJ@Z 1000b00e f   PINPadImpl.obj
 0001:0000a0d9       ?OnDraw@COPOSPINPad@@MAEJAAUATL_DRAWINFO@@@Z 1000b0d9 f   PINPadImpl.obj
 0001:0000a179       ?Open@COPOSPINPad@@UAGJPA_WPAJ@Z 1000b179 f   PINPadImpl.obj
 0001:0000a916       ?ReleaseDevice@COPOSPINPad@@UAGJPAJ@Z 1000b916 f   PINPadImpl.obj
 0001:0000a965       ?ResetStatistics@COPOSPINPad@@UAGJPA_WPAJ@Z 1000b965 f   PINPadImpl.obj
 0001:0000a9bc       ?RetrieveStatistics@COPOSPINPad@@UAGJPAPA_WPAJ@Z 1000b9bc f   PINPadImpl.obj
 0001:0000aa13       ?SOProcessID@COPOSPINPad@@UAGJPAJ@Z 1000ba13 f   PINPadImpl.obj
 0001:0000aa27       ?SetCOFreezeEvents@COPOSPINPad@@IAEXF@Z 1000ba27 f   PINPadImpl.obj
 0001:0000aab2       ?SetOposProp@COPOSPINPad@@IAEJJJJ@Z 1000bab2 f   PINPadImpl.obj
 0001:0000ab90       ?SetOposProp@COPOSPINPad@@IAEJJPA_WJ@Z 1000bb90 f   PINPadImpl.obj
 0001:0000ac7c       ?UpdateFirmware@COPOSPINPad@@UAGJPA_WPAJ@Z 1000bc7c f   PINPadImpl.obj
 0001:0000acd3       ?UpdateKey@COPOSPINPad@@UAGJJPA_WPAJ@Z 1000bcd3 f   PINPadImpl.obj
 0001:0000ad4f       ?UpdateStatistics@COPOSPINPad@@UAGJPA_WPAJ@Z 1000bd4f f   PINPadImpl.obj
 0001:0000ada6       ?VerifyMAC@COPOSPINPad@@UAGJPA_WPAJ@Z 1000bda6 f   PINPadImpl.obj
 0001:0000adfd       ?get_AccountNumber@COPOSPINPad@@UAGJPAPA_W@Z 1000bdfd f   PINPadImpl.obj
 0001:0000ae16       ?get_AdditionalSecurityInformation@COPOSPINPad@@UAGJPAPA_W@Z 1000be16 f   PINPadImpl.obj
 0001:0000ae2f       ?get_Amount@COPOSPINPad@@UAGJPATtagCY@@@Z 1000be2f f   PINPadImpl.obj
 0001:0000aec0       ?get_AvailableLanguagesList@COPOSPINPad@@UAGJPAPA_W@Z 1000bec0 f   PINPadImpl.obj
 0001:0000aed9       ?get_AvailablePromptsList@COPOSPINPad@@UAGJPAPA_W@Z 1000bed9 f   PINPadImpl.obj
 0001:0000aef2       ?get_BinaryConversion@COPOSPINPad@@UAGJPAJ@Z 1000bef2 f   PINPadImpl.obj
 0001:0000af08       ?get_CapCompareFirmwareVersion@COPOSPINPad@@UAGJPAF@Z 1000bf08 f   PINPadImpl.obj
 0001:0000af21       ?get_CapDisplay@COPOSPINPad@@UAGJPAJ@Z 1000bf21 f   PINPadImpl.obj
 0001:0000af3a       ?get_CapKeyboard@COPOSPINPad@@UAGJPAF@Z 1000bf3a f   PINPadImpl.obj
 0001:0000af53       ?get_CapLanguage@COPOSPINPad@@UAGJPAJ@Z 1000bf53 f   PINPadImpl.obj
 0001:0000af6c       ?get_CapMACCalculation@COPOSPINPad@@UAGJPAF@Z 1000bf6c f   PINPadImpl.obj
 0001:0000af85       ?get_CapPowerReporting@COPOSPINPad@@UAGJPAJ@Z 1000bf85 f   PINPadImpl.obj
 0001:0000af9e       ?get_CapStatisticsReporting@COPOSPINPad@@UAGJPAF@Z 1000bf9e f   PINPadImpl.obj
 0001:0000afb7       ?get_CapTone@COPOSPINPad@@UAGJPAF@Z 1000bfb7 f   PINPadImpl.obj
 0001:0000afd0       ?get_CapUpdateFirmware@COPOSPINPad@@UAGJPAF@Z 1000bfd0 f   PINPadImpl.obj
 0001:0000afe9       ?get_CapUpdateStatistics@COPOSPINPad@@UAGJPAF@Z 1000bfe9 f   PINPadImpl.obj
 0001:0000b002       ?get_CheckHealthText@COPOSPINPad@@UAGJPAPA_W@Z 1000c002 f   PINPadImpl.obj
 0001:0000b01b       ?get_Claimed@COPOSPINPad@@UAGJPAF@Z 1000c01b f   PINPadImpl.obj
 0001:0000b031       ?get_ControlObjectDescription@COPOSPINPad@@UAGJPAPA_W@Z 1000c031 f   PINPadImpl.obj
 0001:0000b06e       ?get_ControlObjectVersion@COPOSPINPad@@UAGJPAJ@Z 1000c06e f   PINPadImpl.obj
 0001:0000b081       ?get_DataCount@COPOSPINPad@@UAGJPAJ@Z 1000c081 f   PINPadImpl.obj
 0001:0000b097       ?get_DataEventEnabled@COPOSPINPad@@UAGJPAF@Z 1000c097 f   PINPadImpl.obj
 0001:0000b0ad       ?get_DeviceDescription@COPOSPINPad@@UAGJPAPA_W@Z 1000c0ad f   PINPadImpl.obj
 0001:0000b0c6       ?get_DeviceEnabled@COPOSPINPad@@UAGJPAF@Z 1000c0c6 f   PINPadImpl.obj
 0001:0000b0dc       ?get_DeviceName@COPOSPINPad@@UAGJPAPA_W@Z 1000c0dc f   PINPadImpl.obj
 0001:0000b0f5       ?get_EncryptedPIN@COPOSPINPad@@UAGJPAPA_W@Z 1000c0f5 f   PINPadImpl.obj
 0001:0000b10e       ?get_FreezeEvents@COPOSPINPad@@UAGJPAF@Z 1000c10e f   PINPadImpl.obj
 0001:0000b124       ?get_MaximumPINLength@COPOSPINPad@@UAGJPAJ@Z 1000c124 f   PINPadImpl.obj
 0001:0000b13d       ?get_MerchantID@COPOSPINPad@@UAGJPAPA_W@Z 1000c13d f   PINPadImpl.obj
 0001:0000b156       ?get_MinimumPINLength@COPOSPINPad@@UAGJPAJ@Z 1000c156 f   PINPadImpl.obj
 0001:0000b16f       ?get_OpenResult@COPOSPINPad@@UAGJPAJ@Z 1000c16f f   PINPadImpl.obj
 0001:0000b186       ?get_PINEntryEnabled@COPOSPINPad@@UAGJPAF@Z 1000c186 f   PINPadImpl.obj
 0001:0000b19f       ?get_PowerNotify@COPOSPINPad@@UAGJPAJ@Z 1000c19f f   PINPadImpl.obj
 0001:0000b1b5       ?get_PowerState@COPOSPINPad@@UAGJPAJ@Z 1000c1b5 f   PINPadImpl.obj
 0001:0000b1cb       ?get_Prompt@COPOSPINPad@@UAGJPAJ@Z 1000c1cb f   PINPadImpl.obj
 0001:0000b1e4       ?get_PromptLanguage@COPOSPINPad@@UAGJPAJ@Z 1000c1e4 f   PINPadImpl.obj
 0001:0000b1fd       ?get_ResultCode@COPOSPINPad@@UAGJPAJ@Z 1000c1fd f   PINPadImpl.obj
 0001:0000b23b       ?get_ResultCodeExtended@COPOSPINPad@@UAGJPAJ@Z 1000c23b f   PINPadImpl.obj
 0001:0000b251       ?get_ServiceObjectDescription@COPOSPINPad@@UAGJPAPA_W@Z 1000c251 f   PINPadImpl.obj
 0001:0000b26a       ?get_ServiceObjectVersion@COPOSPINPad@@UAGJPAJ@Z 1000c26a f   PINPadImpl.obj
 0001:0000b280       ?get_State@COPOSPINPad@@UAGJPAJ@Z 1000c280 f   PINPadImpl.obj
 0001:0000b2ac       ?get_TerminalID@COPOSPINPad@@UAGJPAPA_W@Z 1000c2ac f   PINPadImpl.obj
 0001:0000b2c5       ?get_Track1Data@COPOSPINPad@@UAGJPAPA_W@Z 1000c2c5 f   PINPadImpl.obj
 0001:0000b2de       ?get_Track2Data@COPOSPINPad@@UAGJPAPA_W@Z 1000c2de f   PINPadImpl.obj
 0001:0000b2f7       ?get_Track3Data@COPOSPINPad@@UAGJPAPA_W@Z 1000c2f7 f   PINPadImpl.obj
 0001:0000b310       ?get_Track4Data@COPOSPINPad@@UAGJPAPA_W@Z 1000c310 f   PINPadImpl.obj
 0001:0000b329       ?get_TransactionType@COPOSPINPad@@UAGJPAJ@Z 1000c329 f   PINPadImpl.obj
 0001:0000b342       ?put_AccountNumber@COPOSPINPad@@UAGJPA_W@Z 1000c342 f   PINPadImpl.obj
 0001:0000b35b       ?put_Amount@COPOSPINPad@@UAGJTtagCY@@@Z 1000c35b f   PINPadImpl.obj
 0001:0000b3fc       ?put_BinaryConversion@COPOSPINPad@@UAGJJ@Z 1000c3fc f   PINPadImpl.obj
 0001:0000b412       ?put_DataEventEnabled@COPOSPINPad@@UAGJF@Z 1000c412 f   PINPadImpl.obj
 0001:0000b42f       ?put_DeviceEnabled@COPOSPINPad@@UAGJF@Z 1000c42f f   PINPadImpl.obj
 0001:0000b44c       ?put_FreezeEvents@COPOSPINPad@@UAGJF@Z 1000c44c f   PINPadImpl.obj
 0001:0000b498       ?put_MaximumPINLength@COPOSPINPad@@UAGJJ@Z 1000c498 f   PINPadImpl.obj
 0001:0000b4b1       ?put_MerchantID@COPOSPINPad@@UAGJPA_W@Z 1000c4b1 f   PINPadImpl.obj
 0001:0000b4ca       ?put_MinimumPINLength@COPOSPINPad@@UAGJJ@Z 1000c4ca f   PINPadImpl.obj
 0001:0000b4e3       ?put_PowerNotify@COPOSPINPad@@UAGJJ@Z 1000c4e3 f   PINPadImpl.obj
 0001:0000b4f9       ?put_Prompt@COPOSPINPad@@UAGJJ@Z 1000c4f9 f   PINPadImpl.obj
 0001:0000b512       ?put_PromptLanguage@COPOSPINPad@@UAGJJ@Z 1000c512 f   PINPadImpl.obj
 0001:0000b52b       ?put_TerminalID@COPOSPINPad@@UAGJPA_W@Z 1000c52b f   PINPadImpl.obj
 0001:0000b544       ?put_Track1Data@COPOSPINPad@@UAGJPA_W@Z 1000c544 f   PINPadImpl.obj
 0001:0000b55d       ?put_Track2Data@COPOSPINPad@@UAGJPA_W@Z 1000c55d f   PINPadImpl.obj
 0001:0000b576       ?put_Track3Data@COPOSPINPad@@UAGJPA_W@Z 1000c576 f   PINPadImpl.obj
 0001:0000b58f       ?put_Track4Data@COPOSPINPad@@UAGJPA_W@Z 1000c58f f   PINPadImpl.obj
 0001:0000b5a8       ?put_TransactionType@COPOSPINPad@@UAGJJ@Z 1000c5a8 f   PINPadImpl.obj
 0001:0000b5c1       ?s_EventWindowProc@COPOSPINPad@@KGJPAUHWND__@@IIJ@Z 1000c5c1 f i PINPadImpl.obj
 0001:0000b613       ??_U@YAPAXI@Z              1000c613 f   LIBCMT:new_array.obj
 0001:0000b61c       ??3@YAXPAXI@Z              1000c61c f   LIBCMT:delete_scalar_size.obj
 0001:0000b62a       ??_V@YAXPAX@Z              1000c62a f   LIBCMT:delete_array.obj
 0001:0000b62f       ??_V@YAXPAXI@Z             1000c62f f   LIBCMT:delete_array_size.obj
 0001:0000b63d       ??$__crt_fast_encode_pointer@P6GXPAU_RTL_CONDITION_VARIABLE@@@Z@@YAP6GXPAU_RTL_CONDITION_VARIABLE@@@ZQ6GX0@Z@Z 1000c63d f i LIBCMT:thread_safe_statics.obj
 0001:0000b63d       ??$__crt_fast_encode_pointer@PAP6AXXZ@@YAPAP6AXXZQAP6AXXZ@Z 1000c63d f i LIBCMT:utility.obj
 0001:0000b63d       ??$__crt_fast_encode_pointer@P6GHPAU_RTL_CONDITION_VARIABLE@@PAU_RTL_CRITICAL_SECTION@@K@Z@@YAP6GHPAU_RTL_CONDITION_VARIABLE@@PAU_RTL_CRITICAL_SECTION@@K@ZQ6GH01K@Z@Z 1000c63d f i LIBCMT:thread_safe_statics.obj
 0001:0000b63d       ??$__crt_fast_encode_pointer@PAX@@YAPAXQAX@Z 1000c63d f i libvcruntime:winapi_downlevel.obj
 0001:0000b69e       ___scrt_acquire_startup_lock 1000c69e f   LIBCMT:utility.obj
 0001:0000b6d0       ___scrt_dllmain_after_initialize_c 1000c6d0 f   LIBCMT:utility.obj
 0001:0000b6fb       ___scrt_dllmain_before_initialize_c 1000c6fb f   LIBCMT:utility.obj
 0001:0000b709       ___scrt_dllmain_crt_thread_attach 1000c709 f   LIBCMT:utility.obj
 0001:0000b728       ___scrt_dllmain_crt_thread_detach 1000c728 f   LIBCMT:utility.obj
 0001:0000b735       ___scrt_dllmain_exception_filter 1000c735 f   LIBCMT:utility.obj
 0001:0000b769       ___scrt_dllmain_uninitialize_c 1000c769 f   LIBCMT:utility.obj
 0001:0000b78c       ___scrt_dllmain_uninitialize_critical 1000c78c f   LIBCMT:utility.obj
 0001:0000b799       ___scrt_initialize_crt     1000c799 f   LIBCMT:utility.obj
 0001:0000b7d2       ___scrt_initialize_onexit_tables 1000c7d2 f   LIBCMT:utility.obj
 0001:0000b877       ___scrt_is_nonwritable_in_current_image 1000c877 f   LIBCMT:utility.obj
 0001:0000b90b       ___scrt_release_startup_lock 1000c90b f   LIBCMT:utility.obj
 0001:0000b928       ___scrt_uninitialize_crt   1000c928 f   LIBCMT:utility.obj
 0001:0000b950       __onexit                   1000c950 f   LIBCMT:utility.obj
 0001:0000b98b       _atexit                    1000c98b f   LIBCMT:utility.obj
 0001:0000b9a0       ??3@YAXPAX@Z               1000c9a0 f   LIBCMT:delete_scalar.obj
 0001:0000bad7       __Init_thread_footer       1000cad7 f   LIBCMT:thread_safe_statics.obj
 0001:0000bb21       __Init_thread_header       1000cb21 f   LIBCMT:thread_safe_statics.obj
 0001:0000bb73       __Init_thread_notify       1000cb73 f   LIBCMT:thread_safe_statics.obj
 0001:0000bbb5       __Init_thread_wait         1000cbb5 f   LIBCMT:thread_safe_statics.obj
 0001:0000bc15       ___raise_securityfailure   1000cc15 f   LIBCMT:gs_report.obj
 0001:0000bc3d       ___report_gsfailure        1000cc3d f   LIBCMT:gs_report.obj
 0001:0000bd36       ___report_rangecheckfailure 1000cd36 f   LIBCMT:gs_report.obj
 0001:0000bd42       ___report_securityfailure  1000cd42 f   LIBCMT:gs_report.obj
 0001:0000be10       ??2@YAPAXIABUnothrow_t@std@@@Z 1000ce10 f   LIBCMT:new_scalar_nothrow.obj
 0001:0000be60       ??_U@YAPAXIABUnothrow_t@std@@@Z 1000ce60 f   LIBCMT:new_array_nothrow.obj
 0001:0000be69       @__security_check_cookie@4 1000ce69 f   LIBCMT:secchk.obj
 0001:0000be80       __SEH_prolog4_GS           1000ce80 f   LIBCMT:sehprolg4gs.obj
 0001:0000bec9       __SEH_epilog4_GS           1000cec9 f   LIBCMT:sehprolg4gs.obj
 0001:0000bee0       __alloca_probe_16          1000cee0 f   LIBCMT:alloca16.obj
 0001:0000bef6       __alloca_probe_8           1000cef6     LIBCMT:alloca16.obj
 0001:0000bf10       __chkstk                   1000cf10 f   LIBCMT:chkstk.obj
 0001:0000bf10       __alloca_probe             1000cf10 f   LIBCMT:chkstk.obj
 0001:0000c25d       __DllMainCRTStartup@12     1000d25d f   LIBCMT:dll_dllmain.obj
 0001:0000c280       ??2@YAPAXI@Z               1000d280 f   LIBCMT:new_scalar.obj
 0001:0000c2b0       ___isa_available_init      1000d2b0 f   LIBCMT:cpu_disp.obj
 0001:0000c447       ___scrt_is_ucrt_dll_in_use 1000d447 f   LIBCMT:ucrt_detection.obj
 0001:0000c453       ___scrt_fastfail           1000d453 f   LIBCMT:utility_desktop.obj
 0001:0000c56d       __crt_debugger_hook        1000d56d f   LIBCMT:utility_desktop.obj
 0001:0000c580       __SEH_prolog4              1000d580 f   LIBCMT:sehprolg4.obj
 0001:0000c5c6       __SEH_epilog4              1000d5c6 f   LIBCMT:sehprolg4.obj
 0001:0000c5db       @_guard_check_icall_nop@4  1000d5db f i LIBCMT:guard_support.obj
 0001:0000c629       ___security_init_cookie    1000d629 f   LIBCMT:gs_support.obj
 0001:0000c674       ?__scrt_initialize_type_info@@YAXXZ 1000d674 f   LIBCMT:tncleanup.obj
 0001:0000c680       ?__scrt_uninitialize_type_info@@YAXXZ 1000d680 f   LIBCMT:tncleanup.obj
 0001:0000c68c       ___local_stdio_scanf_options 1000d68c f i LIBCMT:default_local_stdio_options.obj
 0001:0000c692       ___scrt_initialize_default_local_stdio_options 1000d692 f   LIBCMT:default_local_stdio_options.obj
 0001:0000c6af       ___scrt_get_dyn_tls_init_callback 1000d6af f   LIBCMT:dyn_tls_init.obj
 0001:0000c6b5       __RTC_Initialize           1000d6b5 f   LIBCMT:initsect.obj
 0001:0000c6e1       __RTC_Terminate            1000d6e1 f   LIBCMT:initsect.obj
 0001:0000c70d       ??0bad_alloc@std@@QAE@ABV01@@Z 1000d70d f i LIBCMT:throw_bad_alloc.obj
 0001:0000c728       ??0bad_alloc@std@@QAE@XZ   1000d728 f i LIBCMT:throw_bad_alloc.obj
 0001:0000c740       ??0bad_array_new_length@std@@QAE@ABV01@@Z 1000d740 f i LIBCMT:throw_bad_alloc.obj
 0001:0000c75b       ??0bad_array_new_length@std@@QAE@XZ 1000d75b f i LIBCMT:throw_bad_alloc.obj
 0001:0000c773       ??0exception@std@@QAE@ABV01@@Z 1000d773 f i LIBCMT:throw_bad_alloc.obj
 0001:0000c79f       ??1bad_exception@std@@UAE@XZ 1000d79f f i libvcruntime:frame.obj
 0001:0000c79f       ??1bad_array_new_length@std@@UAE@XZ 1000d79f f i LIBCMT:throw_bad_alloc.obj
 0001:0000c79f       ??1bad_alloc@std@@UAE@XZ   1000d79f f i LIBCMT:throw_bad_alloc.obj
 0001:0000c7b0       ??_Ebad_exception@std@@UAEPAXI@Z 1000d7b0 f i libvcruntime:frame.obj
 0001:0000c7b0       ??_Ebad_alloc@std@@UAEPAXI@Z 1000d7b0 f i LIBCMT:throw_bad_alloc.obj
 0001:0000c7b0       ??_Gbad_exception@std@@UAEPAXI@Z 1000d7b0 f i libvcruntime:frame.obj
 0001:0000c7b0       ??_Gbad_array_new_length@std@@UAEPAXI@Z 1000d7b0 f i LIBCMT:throw_bad_alloc.obj
 0001:0000c7b0       ??_Gexception@std@@UAEPAXI@Z 1000d7b0 f i LIBCMT:throw_bad_alloc.obj
 0001:0000c7b0       ??_Gbad_alloc@std@@UAEPAXI@Z 1000d7b0 f i LIBCMT:throw_bad_alloc.obj
 0001:0000c7b0       ??_Ebad_array_new_length@std@@UAEPAXI@Z 1000d7b0 f i LIBCMT:throw_bad_alloc.obj
 0001:0000c7b0       ??_Eexception@std@@UAEPAXI@Z 1000d7b0 f i LIBCMT:throw_bad_alloc.obj
 0001:0000c7dd       ?__scrt_throw_std_bad_alloc@@YAXXZ 1000d7dd f   LIBCMT:throw_bad_alloc.obj
 0001:0000c7fa       ?__scrt_throw_std_bad_array_new_length@@YAXXZ 1000d7fa f   LIBCMT:throw_bad_alloc.obj
 0001:0000c817       ?what@exception@std@@UBEPBDXZ 1000d817 f i LIBCMT:throw_bad_alloc.obj
 0001:0000c824       ??_Gtype_info@@UAEPAXI@Z   1000d824 f i LIBCMT:std_type_info_static.obj
 0001:0000c824       ??_Etype_info@@UAEPAXI@Z   1000d824 f i LIBCMT:std_type_info_static.obj
 0001:0000c847       ??0CAtlBaseModule@ATL@@QAE@XZ 1000d847 f   atls:atlbase.obj
 0001:0000c89a       ??0_ATL_BASE_MODULE70@ATL@@QAE@XZ 1000d89a f i atls:atlbase.obj
 0001:0000c8bd       ??1CAtlBaseModule@ATL@@QAE@XZ 1000d8bd f   atls:atlbase.obj
 0001:0000c9aa       ?Init@_stdcallthunk@ATL@@QAEHKPAX@Z 1000d9aa f i atls:atlthunk.obj
 0001:0000c9df       ?__AllocStdCallThunk_cmn@@YAPAXXZ 1000d9df f   atls:atlthunk.obj
 0001:0000caa5       ?__FreeStdCallThunk_cmn@@YAXPAX@Z 1000daa5 f   atls:atlthunk.obj
 0001:0000cb40       _AtlThunk_AllocateData@0   1000db40 f   atls:atlthunk.obj
 0001:0000cba5       _AtlThunk_DataToCode@4     1000dba5 f   atls:atlthunk.obj
 0001:0000cbec       _AtlThunk_FreeData@4       1000dbec f   atls:atlthunk.obj
 0001:0000cc42       _AtlThunk_InitData@12      1000dc42 f   atls:atlthunk.obj
 0001:0000cc91       __get_purecall_handler     1000dc91 f   libvcruntime:purevirt.obj
 0001:0000cca6       __purecall                 1000dca6 f   libvcruntime:purevirt.obj
 0001:0000ccc2       _wcsstr                    1000dcc2 f   libvcruntime:wcsstr.obj
 0001:0000cf80       __except_handler4          1000df80 f   libvcruntime:chandler4.obj
 0001:0000d0d7       _memcmp                    1000e0d7 f   libvcruntime:memcmp.obj
 0001:0000e080       _memcpy                    1000f080 f   libvcruntime:memcpy.obj
 0001:0000e600       _memset                    1000f600 f   libvcruntime:memset.obj
 0001:0000e75a       ___vcrt_initialize         1000f75a f   libvcruntime:initialization.obj
 0001:0000e783       ___vcrt_thread_attach      1000f783 f   libvcruntime:initialization.obj
 0001:0000e78e       ___vcrt_thread_detach      1000f78e f   libvcruntime:initialization.obj
 0001:0000e799       ___vcrt_uninitialize       1000f799 f   libvcruntime:initialization.obj
 0001:0000e7b8       ___vcrt_uninitialize_critical 1000f7b8 f   libvcruntime:initialization.obj
 0001:0000e7c0       ?GetRangeOfTrysToCheck@__FrameHandler3@@SA?AU?$pair@Viterator@TryBlockMap@__FrameHandler3@@V123@@std@@AAVTryBlockMap@1@HH@Z 1000f7c0 f   libvcruntime:trnsctrl.obj
 0001:0000e842       ?_CallCatchBlock2@@YAPAXPAUEHRegistrationNode@@PBU_s_FuncInfo@@PAXHK@Z 1000f842 f   libvcruntime:trnsctrl.obj
 0001:0000e8a0       ?_CallSETranslator@@YAHPAUEHExceptionRecord@@PAUEHRegistrationNode@@PAX2PBU_s_FuncInfo@@H1@Z 1000f8a0 f   libvcruntime:trnsctrl.obj
 0001:0000e97b       ?_JumpToContinuation@@YGXPAXPAUEHRegistrationNode@@@Z 1000f97b f   libvcruntime:trnsctrl.obj
 0001:0000e9ab       ?_UnwindNestedFrames@@YGXPAUEHRegistrationNode@@PAUEHExceptionRecord@@@Z 1000f9ab f   libvcruntime:trnsctrl.obj
 0001:0000e9fe       __CatchGuardHandler        1000f9fe f   libvcruntime:trnsctrl.obj
 0001:0000ea2f       __CreateFrameInfo          1000fa2f f   libvcruntime:trnsctrl.obj
 0001:0000ea53       __FindAndUnlinkFrame       1000fa53 f   libvcruntime:trnsctrl.obj
 0001:0000ea98       __TranslatorGuardHandler   1000fa98 f   libvcruntime:trnsctrl.obj
 0001:0000eb35       ___CxxFrameHandler3        1000fb35 f   libvcruntime:trnsctrl.obj
 0001:0000eb6b       ___std_type_info_compare   1000fb6b f   libvcruntime:std_type_info.obj
 0001:0000eba7       ___std_type_info_destroy_list 1000fba7 f   libvcruntime:std_type_info.obj
 0001:0000ebca       ___std_exception_copy      1000fbca f   libvcruntime:std_exception.obj
 0001:0000ec2d       ___std_exception_destroy   1000fc2d f   libvcruntime:std_exception.obj
 0001:0000ec4c       __CxxThrowException@8      1000fc4c f   libvcruntime:throw.obj
 0001:0000ecc0       _memmove                   1000fcc0 f   libvcruntime:memmove.obj
 0001:0000f234       ___vcrt_initialize_pure_virtual_call_handler 10010234 f   libvcruntime:purevirt_data.obj
 0001:0000f240       __local_unwind4            10010240 f   libvcruntime:exsup4.obj
 0001:0000f318       __seh_longjmp_unwind4@4    10010318 f   libvcruntime:exsup4.obj
 0001:0000f340       @_EH4_CallFilterFunc@8     10010340 f   libvcruntime:exsup4.obj
 0001:0000f358       @_EH4_TransferToHandler@8  10010358 f   libvcruntime:exsup4.obj
 0001:0000f374       @_EH4_GlobalUnwind2@8      10010374 f   libvcruntime:exsup4.obj
 0001:0000f390       @_EH4_LocalUnwind@16       10010390 f   libvcruntime:exsup4.obj
 0001:0000f3a7       ___except_validate_context_record 100103a7 f   libvcruntime:jbcxrval.obj
 0001:0000f3d7       ___except_validate_jump_buffer 100103d7 f   libvcruntime:jbcxrval.obj
 0001:0000f404       ___vcrt_freefls@4          10010404 f   libvcruntime:per_thread_data.obj
 0001:0000f420       ___vcrt_freeptd            10010420 f   libvcruntime:per_thread_data.obj
 0001:0000f456       ___vcrt_getptd             10010456 f   libvcruntime:per_thread_data.obj
 0001:0000f464       ___vcrt_getptd_noexit      10010464 f   libvcruntime:per_thread_data.obj
 0001:0000f4f6       ___vcrt_initialize_ptd     100104f6 f   libvcruntime:per_thread_data.obj
 0001:0000f529       ___vcrt_uninitialize_ptd   10010529 f   libvcruntime:per_thread_data.obj
 0001:0000f544       ___vcrt_initialize_locks   10010544 f   libvcruntime:locks.obj
 0001:0000f580       ___vcrt_uninitialize_locks 10010580 f   libvcruntime:locks.obj
 0001:0000f6e2       ___vcrt_FlsAlloc           100106e2 f   libvcruntime:winapi_downlevel.obj
 0001:0000f71d       ___vcrt_FlsFree            1001071d f   libvcruntime:winapi_downlevel.obj
 0001:0000f758       ___vcrt_FlsGetValue        10010758 f   libvcruntime:winapi_downlevel.obj
 0001:0000f793       ___vcrt_FlsSetValue        10010793 f   libvcruntime:winapi_downlevel.obj
 0001:0000f7d1       ___vcrt_InitializeCriticalSectionEx 100107d1 f   libvcruntime:winapi_downlevel.obj
 0001:0000f818       ___vcrt_initialize_winapi_thunks 10010818 f   libvcruntime:winapi_downlevel.obj
 0001:0000f841       ___vcrt_uninitialize_winapi_thunks 10010841 f   libvcruntime:winapi_downlevel.obj
 0001:0000ff6a       ??$TypeMatchHelper@V__FrameHandler3@@@@YAHPBU_s_HandlerType@@PBU_s_CatchableType@@PBU_s_ThrowInfo@@@Z 10010f6a f i libvcruntime:frame.obj
 0001:0000fff8       ??$__InternalCxxFrameHandler@V__FrameHandler3@@@@YA?AW4_EXCEPTION_DISPOSITION@@PAUEHExceptionRecord@@PAUEHRegistrationNode@@PAU_CONTEXT@@PAXPBU_s_FuncInfo@@H1E@Z 10010ff8 f i libvcruntime:frame.obj
 0001:000100fa       ??0bad_exception@std@@QAE@ABV01@@Z 100110fa f i libvcruntime:frame.obj
 0001:00010115       ??0bad_exception@std@@QAE@XZ 10011115 f i libvcruntime:frame.obj
 0001:0001012d       ??8type_info@@QBE_NABV0@@Z 1001112d f i libvcruntime:frame.obj
 0001:00010394       ?FrameUnwindToEmptyState@__FrameHandler3@@SAXPAUEHRegistrationNode@@PAXPBU_s_FuncInfo@@@Z 10011394 f   libvcruntime:frame.obj
 0001:000103ac       ?FrameUnwindToState@__FrameHandler3@@SAXPAUEHRegistrationNode@@PAXPBU_s_FuncInfo@@H@Z 100113ac f   libvcruntime:frame.obj
 0001:0001052e       ?_CallMemberFunction1@@YGXQAX00@Z 1001152e f i libvcruntime:frame.obj
 0001:0001053e       ?_CallMemberFunction2@@YGXQAX00H@Z 1001153e f i libvcruntime:frame.obj
 0001:00010551       ?getESTypes@__FrameHandler3@@SAPBU_s_ESTypeList@@PBU_s_FuncInfo@@@Z 10011551 f i libvcruntime:frame.obj
 0001:00010560       __CallSettingFrame@12      10011560 f   libvcruntime:lowhelpr.obj
 0001:00010587       __NLG_Return               10011587     libvcruntime:lowhelpr.obj
 0001:000105b0       __global_unwind2           100115b0 f   libvcruntime:exsup.obj
 0001:00010616       __local_unwind2            10011616 f   libvcruntime:exsup.obj
 0001:0001069a       __abnormal_termination     1001169a f   libvcruntime:exsup.obj
 0001:000106c0       __NLG_Notify1              100116c0 f   libvcruntime:exsup.obj
 0001:000106cc       __NLG_Notify               100116cc f   libvcruntime:exsup.obj
 0001:000106e3       __NLG_Dispatch2            100116e3     libvcruntime:exsup.obj
 0001:000106e3       __NLG_Dispatch             100116e3     libvcruntime:exsup.obj
 0001:000106eb       __NLG_Call                 100116eb f   libvcruntime:exsup.obj
 0001:000106ed       __NLG_Return2              100116ed     libvcruntime:exsup.obj
 0001:000106ee       _unexpected                100116ee f   libvcruntime:unexpected.obj
 0001:0001070b       ?GetCurrentState@__FrameHandler3@@SAHPAUEHRegistrationNode@@PAXPBU_s_FuncInfo@@@Z 1001170b f   libvcruntime:ehstate.obj
 0001:00010728       ?SetState@__FrameHandler3@@SAXPAUEHRegistrationNode@@PBU_s_FuncInfo@@H@Z 10011728 f   libvcruntime:ehstate.obj
 0001:00010736       ___DestructExceptionObject 10011736 f   libvcruntime:ehhelpers.obj
 0001:000107d6       ?_CallMemberFunction0@@YGXQAX0@Z 100117d6 f i libvcruntime:ehhelpers.obj
 0001:000107e3       __IsExceptionObjectToBeDestroyed 100117e3 f   libvcruntime:ehhelpers.obj
 0001:00010809       ___AdjustPointer           10011809 f   libvcruntime:ehhelpers.obj
 0001:0001082e       ___FrameUnwindFilter       1001182e f   libvcruntime:ehhelpers.obj
 0001:00010873       _free                      10011873 f   libucrt:free.obj
 0001:00010878       ?initialize@?$dual_state_global@PAU__crt_locale_data@@@__crt_state_management@@QAEXQAU__crt_locale_data@@@Z 10011878 f i libucrt:initialization.obj
 0001:00010878       ?initialize@?$dual_state_global@P6AHI@Z@__crt_state_management@@QAEXQ6AHI@Z@Z 10011878 f i libucrt:new_handler.obj
 0001:00010878       ?initialize@?$dual_state_global@P6AHPAU_exception@@@Z@__crt_state_management@@QAEXQ6AHPAU_exception@@@Z@Z 10011878 f i libucrt:matherr.obj
 0001:00010878       ?initialize@?$dual_state_global@P6AXH@Z@__crt_state_management@@QAEXQ6AXH@Z@Z 10011878 f i libucrt:signal.obj
 0001:00010878       ?initialize@?$dual_state_global@PAPAD@__crt_state_management@@QAEXQAPAD@Z 10011878 f i libucrt:environment_initialization.obj
 0001:00010878       ?initialize@?$dual_state_global@P6AXPB_W00II@Z@__crt_state_management@@QAEXQ6AXPB_W00II@Z@Z 10011878 f i libucrt:invalid_parameter.obj
 0001:000108a9       ___acrt_call_reportfault   100118a9 f   libucrt:invalid_parameter.obj
 0001:000109e4       ___acrt_initialize_invalid_parameter_handler 100119e4 f   libucrt:invalid_parameter.obj
 0001:000109f8       __invalid_parameter        100119f8 f   libucrt:invalid_parameter.obj
 0001:00010a73       __invalid_parameter_noinfo 10011a73 f   libucrt:invalid_parameter.obj
 0001:00010a83       __invoke_watson            10011a83 f   libucrt:invalid_parameter.obj
 0001:00010ab6       ___acrt_errno_from_os_error 10011ab6 f   libucrt:errno.obj
 0001:00010af9       ___acrt_errno_map_os_error 10011af9 f   libucrt:errno.obj
 0001:00010b1c       ___doserrno                10011b1c f   libucrt:errno.obj
 0001:00010b2f       __errno                    10011b2f f   libucrt:errno.obj
 0001:00010b42       _calloc                    10011b42 f   libucrt:calloc.obj
 0001:00010b4d       _malloc                    10011b4d f   libucrt:malloc.obj
 0001:00010b58       __recalloc                 10011b58 f   libucrt:recalloc.obj
 0001:00010b63       __recalloc_base            10011b63 f   libucrt:recalloc.obj
 0001:00010bd0       __resetstkoflw             10011bd0 f   libucrt:resetstk.obj
 0001:00010ca1       _wcscat_s                  10011ca1 f   libucrt:wcscat_s.obj
 0001:00010d16       _wcscpy_s                  10011d16 f   libucrt:wcscpy_s.obj
 0001:00010e47       _wcsncpy_s                 10011e47 f   libucrt:wcsncpy_s.obj
 0001:00011051       ??$count@D@formatting_buffer@__crt_stdio_output@@QBEIXZ 10012051 f i libucrt:output.obj
 0001:00011069       ??$ensure_buffer_is_big_enough@D@formatting_buffer@__crt_stdio_output@@QAE_NI@Z 10012069 f i libucrt:output.obj
 0001:000110ef       ??$is_wide_character_specifier@_W@__crt_stdio_output@@YA_N_K_WW4length_modifier@0@@Z 100120ef f i libucrt:output.obj
 0001:0001113e       ??$scratch_data@D@formatting_buffer@__crt_stdio_output@@QAEPADXZ 1001213e f i libucrt:output.obj
 0001:0001115c       ??$type_case_integer_parse_into_buffer@I@?$output_processor@_WV?$string_output_adapter@_W@__crt_stdio_output@@V?$format_validation_base@_WV?$string_output_adapter@_W@__crt_stdio_output@@@2@@__crt_stdio_output@@AAEXII_N@Z 1001215c f i libucrt:output.obj
 0001:000111d1       ??$type_case_integer_parse_into_buffer@_K@?$output_processor@_WV?$string_output_adapter@_W@__crt_stdio_output@@V?$format_validation_base@_WV?$string_output_adapter@_W@__crt_stdio_output@@@2@@__crt_stdio_output@@AAEX_KI_N@Z 100121d1 f i libucrt:output.obj
 0001:00011259       ??$write_multiple_characters@V?$string_output_adapter@_W@__crt_stdio_output@@D@__crt_stdio_output@@YAXABV?$string_output_adapter@_W@0@DHQAH@Z 10012259 f i libucrt:output.obj
 0001:0001128a       ??0?$common_data@_W@__crt_stdio_output@@IAE@XZ 1001228a f i libucrt:output.obj
 0001:000112d6       ??0?$output_adapter_data@_WV?$string_output_adapter@_W@__crt_stdio_output@@@__crt_stdio_output@@IAE@ABV?$string_output_adapter@_W@1@_KQB_WQAU__crt_locale_pointers@@QAD@Z 100122d6 f i libucrt:output.obj
 0001:00011312       ??0?$output_processor@_WV?$string_output_adapter@_W@__crt_stdio_output@@V?$format_validation_base@_WV?$string_output_adapter@_W@__crt_stdio_output@@@2@@__crt_stdio_output@@QAE@ABV?$string_output_adapter@_W@1@_KQB_WQAU__crt_locale_pointers@@QAD@Z 10012312 f i libucrt:output.obj
 0001:00011347       ??0_LocaleUpdate@@QAE@QAU__crt_locale_pointers@@@Z 10012347 f i libucrt:output.obj
 0001:000113ca       ??1formatting_buffer@__crt_stdio_output@@QAE@XZ 100123ca f i libucrt:output.obj
 0001:000113e4       ??4?$__crt_unique_heap_ptr@DU__crt_internal_free_policy@@@@QAEAAV0@$$QAV0@@Z 100123e4 f i libucrt:output.obj
 0001:00011408       ?crop_zeroes@__crt_stdio_output@@YAXPADQAU__crt_locale_pointers@@@Z 10012408 f i libucrt:output.obj
 0001:0001145f       ?find_next_state@?$output_processor@_WV?$string_output_adapter@_W@__crt_stdio_output@@V?$format_validation_base@_WV?$string_output_adapter@_W@__crt_stdio_output@@@2@@__crt_stdio_output@@ABE?AW4state@2@_WW432@@Z 1001245f f i libucrt:output.obj
 0001:00011496       ?force_decimal_point@__crt_stdio_output@@YAXPADQAU__crt_locale_pointers@@@Z 10012496 f i libucrt:output.obj
 0001:000114f2       ?parse_int_from_format_string@?$output_processor@_WV?$string_output_adapter@_W@__crt_stdio_output@@V?$format_validation_base@_WV?$string_output_adapter@_W@__crt_stdio_output@@@2@@__crt_stdio_output@@AAE_NQAH@Z 100124f2 f i libucrt:output.obj
 0001:00011550       ?process@?$output_processor@_WV?$string_output_adapter@_W@__crt_stdio_output@@V?$format_validation_base@_WV?$string_output_adapter@_W@__crt_stdio_output@@@2@@__crt_stdio_output@@QAEHXZ 10012550 f i libucrt:output.obj
 0001:00011680       ?state_case_flag@?$output_processor@_WV?$string_output_adapter@_W@__crt_stdio_output@@V?$format_validation_base@_WV?$string_output_adapter@_W@__crt_stdio_output@@@2@@__crt_stdio_output@@AAE_NXZ 10012680 f i libucrt:output.obj
 0001:000116bd       ?state_case_normal@?$output_processor@_WV?$string_output_adapter@_W@__crt_stdio_output@@V?$format_validation_base@_WV?$string_output_adapter@_W@__crt_stdio_output@@@2@@__crt_stdio_output@@AAE_NXZ 100126bd f i libucrt:output.obj
 0001:000116dc       ?state_case_normal_common@?$output_processor@_WV?$string_output_adapter@_W@__crt_stdio_output@@V?$format_validation_base@_WV?$string_output_adapter@_W@__crt_stdio_output@@@2@@__crt_stdio_output@@AAE_NXZ 100126dc f i libucrt:output.obj
 0001:000116f7       ?state_case_precision@?$output_processor@_WV?$string_output_adapter@_W@__crt_stdio_output@@V?$format_validation_base@_WV?$string_output_adapter@_W@__crt_stdio_output@@@2@@__crt_stdio_output@@AAE_NXZ 100126f7 f i libucrt:output.obj
 0001:00011720       ?state_case_size@?$output_processor@_WV?$string_output_adapter@_W@__crt_stdio_output@@V?$format_validation_base@_WV?$string_output_adapter@_W@__crt_stdio_output@@@2@@__crt_stdio_output@@AAE_NXZ 10012720 f i libucrt:output.obj
 0001:0001189c       ?state_case_type@?$output_processor@_WV?$string_output_adapter@_W@__crt_stdio_output@@V?$format_validation_base@_WV?$string_output_adapter@_W@__crt_stdio_output@@@2@@__crt_stdio_output@@AAE_NXZ 1001289c f i libucrt:output.obj
 0001:00011af9       ?state_case_width@?$output_processor@_WV?$string_output_adapter@_W@__crt_stdio_output@@V?$format_validation_base@_WV?$string_output_adapter@_W@__crt_stdio_output@@@2@@__crt_stdio_output@@AAE_NXZ 10012af9 f i libucrt:output.obj
 0001:00011b25       ?to_integer_size@__crt_stdio_output@@YAIW4length_modifier@1@@Z 10012b25 f i libucrt:output.obj
 0001:00011b81       ?type_case_Z@?$output_processor@_WV?$string_output_adapter@_W@__crt_stdio_output@@V?$format_validation_base@_WV?$string_output_adapter@_W@__crt_stdio_output@@@2@@__crt_stdio_output@@AAE_NXZ 10012b81 f i libucrt:output.obj
 0001:00011be4       ?type_case_a@?$output_processor@_WV?$string_output_adapter@_W@__crt_stdio_output@@V?$format_validation_base@_WV?$string_output_adapter@_W@__crt_stdio_output@@@2@@__crt_stdio_output@@AAE_NXZ 10012be4 f i libucrt:output.obj
 0001:00011d56       ?type_case_c_tchar@?$output_processor@_WV?$string_output_adapter@_W@__crt_stdio_output@@V?$format_validation_base@_WV?$string_output_adapter@_W@__crt_stdio_output@@@2@@__crt_stdio_output@@AAE_N_W@Z 10012d56 f i libucrt:output.obj
 0001:00011dee       ?type_case_integer@?$output_processor@_WV?$string_output_adapter@_W@__crt_stdio_output@@V?$format_validation_base@_WV?$string_output_adapter@_W@__crt_stdio_output@@@2@@__crt_stdio_output@@AAE_NI_N@Z 10012dee f i libucrt:output.obj
 0001:00011f38       ?type_case_n@?$output_processor@_WV?$string_output_adapter@_W@__crt_stdio_output@@V?$format_validation_base@_WV?$string_output_adapter@_W@__crt_stdio_output@@@2@@__crt_stdio_output@@AAE_NXZ 10012f38 f i libucrt:output.obj
 0001:00011fac       ?type_case_o@?$output_processor@_WV?$string_output_adapter@_W@__crt_stdio_output@@V?$format_validation_base@_WV?$string_output_adapter@_W@__crt_stdio_output@@@2@@__crt_stdio_output@@AAE_NXZ 10012fac f i libucrt:output.obj
 0001:00011fcb       ?type_case_p@?$output_processor@_WV?$string_output_adapter@_W@__crt_stdio_output@@V?$format_validation_base@_WV?$string_output_adapter@_W@__crt_stdio_output@@@2@@__crt_stdio_output@@AAE_NXZ 10012fcb f i libucrt:output.obj
 0001:00011fe3       ?type_case_s@?$output_processor@_WV?$string_output_adapter@_W@__crt_stdio_output@@V?$format_validation_base@_WV?$string_output_adapter@_W@__crt_stdio_output@@@2@@__crt_stdio_output@@AAE_NXZ 10012fe3 f i libucrt:output.obj
 0001:00012057       ?type_case_s_compute_narrow_string_length@?$output_processor@_WV?$string_output_adapter@_W@__crt_stdio_output@@V?$format_validation_base@_WV?$string_output_adapter@_W@__crt_stdio_output@@@2@@__crt_stdio_output@@ABEHH_W@Z 10013057 f i libucrt:output.obj
 0001:00012097       ?validate@?$c_string_character_source@_W@__crt_strtox@@QBE_NXZ 10013097 f i libucrt:atox.obj
 0001:00012097       ?validate@?$string_output_adapter@_W@__crt_stdio_output@@QBE_NXZ 10013097 f i libucrt:output.obj
 0001:000120b2       ?validate_and_update_state_at_end_of_format_string@?$format_validation_base@_WV?$string_output_adapter@_W@__crt_stdio_output@@@__crt_stdio_output@@IBE_NXZ 100130b2 f i libucrt:output.obj
 0001:000120d4       ?write_character@?$string_output_adapter@_W@__crt_stdio_output@@QBE_N_WQAH@Z 100130d4 f i libucrt:output.obj
 0001:00012119       ?write_stored_string_tchar@?$output_processor@_WV?$string_output_adapter@_W@__crt_stdio_output@@V?$format_validation_base@_WV?$string_output_adapter@_W@__crt_stdio_output@@@2@@__crt_stdio_output@@AAE_N_W@Z 10013119 f i libucrt:output.obj
 0001:000121a4       ?write_string@?$string_output_adapter@_W@__crt_stdio_output@@QBEXQB_WHQAH1@Z 100131a4 f i libucrt:output.obj
 0001:0001223e       ___stdio_common_vswprintf_s 1001323e f   libucrt:output.obj
 0001:00012262       __seh_filter_dll           10013262 f   libucrt:exception_filter.obj
 0001:00012282       __seh_filter_exe           10013282 f   libucrt:exception_filter.obj
 0001:00012610       ___acrt_initialize_thread_local_exit_callback 10013610 f   libucrt:exit.obj
 0001:0001261f       __cexit                    1001361f f   libucrt:exit.obj
 0001:0001262e       __exit                     1001362e f   libucrt:exit.obj
 0001:00012644       __is_c_termination_complete 10013644 f   libucrt:exit.obj
 0001:000128e3       ___acrt_allocate_buffer_for_argv 100138e3 f   libucrt:argv_parsing.obj
 0001:00012938       __configure_narrow_argv    10013938 f   libucrt:argv_parsing.obj
 0001:00012a9c       ??$uninitialize@A6AXAAPAPA_W@Z@?$dual_state_global@PAPA_W@__crt_state_management@@QAEXA6AXAAPAPA_W@Z@Z 10013a9c f i libucrt:environment_initialization.obj
 0001:00012a9c       ??$uninitialize@A6AXAAPAPAD@Z@?$dual_state_global@PAPAD@__crt_state_management@@QAEXA6AXAAPAPAD@Z@Z 10013a9c f i libucrt:environment_initialization.obj
 0001:00012b12       ___dcrt_uninitialize_environments_nolock 10013b12 f   libucrt:environment_initialization.obj
 0001:00012b49       __initialize_narrow_environment 10013b49 f   libucrt:environment_initialization.obj
 0001:00012b4e       ??$?RV<lambda_800076c951b434888f4765a74a194fcc>@@AAV<lambda_4e60a939b0d047cfe11ddc22648dfba9>@@V<lambda_6dbb1268764f43b569ce7b67e331d33a>@@@?$__crt_seh_guarded_call@H@@QAEH$$QAV<lambda_800076c951b434888f4765a74a194fcc>@@AAV<lambda_4e60a939b0d047cfe11ddc22648dfba9>@@$$QAV<lambda_6dbb1268764f43b569ce7b67e331d33a>@@@Z 10013b4e f i libucrt:onexit.obj
 0001:00012b9f       ??$?RV<lambda_995298e7d72eb4c2aab26c0585b3abe5>@@AAV<lambda_275893d493268fdec8709772e3fcec0e>@@V<lambda_293819299cbf9a7022e18b56a874bb5c>@@@?$__crt_seh_guarded_call@H@@QAEH$$QAV<lambda_995298e7d72eb4c2aab26c0585b3abe5>@@AAV<lambda_275893d493268fdec8709772e3fcec0e>@@$$QAV<lambda_293819299cbf9a7022e18b56a874bb5c>@@@Z 10013b9f f i libucrt:onexit.obj
 0001:00012bf0       ??$__acrt_lock_and_call@V<lambda_275893d493268fdec8709772e3fcec0e>@@@@YAHW4__acrt_lock_id@@$$QAV<lambda_275893d493268fdec8709772e3fcec0e>@@@Z 10013bf0 f i libucrt:onexit.obj
 0001:00012c18       ??$__acrt_lock_and_call@V<lambda_4e60a939b0d047cfe11ddc22648dfba9>@@@@YAHW4__acrt_lock_id@@$$QAV<lambda_4e60a939b0d047cfe11ddc22648dfba9>@@@Z 10013c18 f i libucrt:onexit.obj
 0001:00012c40       ??$__crt_fast_encode_pointer@P6AHXZ@@YAP6AHXZQ6AHXZ@Z 10013c40 f i libucrt:onexit.obj
 0001:00012ec0       __crt_atexit               10013ec0 f   libucrt:onexit.obj
 0001:00012ed6       __execute_onexit_table     10013ed6 f   libucrt:onexit.obj
 0001:00012ef3       __initialize_onexit_table  10013ef3 f   libucrt:onexit.obj
 0001:00012f30       __register_onexit_function 10013f30 f   libucrt:onexit.obj
 0001:00012f80       ___acrt_uninitialize_command_line 10013f80 f   libucrt:argv_data.obj
 0001:00013048       ___acrt_initialize         10014048 f   libucrt:initialization.obj
 0001:0001305a       ___acrt_thread_attach      1001405a f   libucrt:initialization.obj
 0001:00013065       ___acrt_thread_detach      10014065 f   libucrt:initialization.obj
 0001:0001306d       ___acrt_uninitialize       1001406d f   libucrt:initialization.obj
 0001:0001307f       ___acrt_uninitialize_critical 1001407f f   libucrt:initialization.obj
 0001:00013091       __initterm                 10014091 f   libucrt:initterm.obj
 0001:000130ed       __initterm_e               100140ed f   libucrt:initterm.obj
 0001:00013132       ___acrt_initialize_new_handler 10014132 f   libucrt:new_handler.obj
 0001:00013146       __callnewh                 10014146 f   libucrt:new_handler.obj
 0001:0001318a       __query_new_handler        1001418a f   libucrt:new_handler.obj
 0001:000131dc       _terminate                 100141dc f   libucrt:terminate.obj
 0001:00013218       _abort                     10014218 f   libucrt:abort.obj
 0001:0001325b       _strcpy_s                  1001425b f   libucrt:strcpy_s.obj
 0001:000132b5       _wcsncmp                   100142b5 f   libucrt:wcsncmp.obj
 0001:000132ef       ??$is_overflow_condition@K@__crt_strtox@@YA_NIK@Z 100142ef f i libucrt:atox.obj
 0001:00013322       ??$parse_integer@KV?$c_string_character_source@_W@__crt_strtox@@@__crt_strtox@@YAKQAU__crt_locale_pointers@@V?$c_string_character_source@_W@0@H_N@Z 10014322 f i libucrt:atox.obj
 0001:00013a07       ?unget@?$c_string_character_source@_W@__crt_strtox@@QAEX_W@Z 10014a07 f i libucrt:atox.obj
 0001:00013a33       __chvalidchk_l             10014a33 f i libucrt:atox.obj
 0001:00013a5d       __ischartype_l             10014a5d f i libucrt:atox.obj
 0001:00013a90       _strncmp                   10014a90 f   libucrt:strncmp.obj
 0001:00013b08       __free_base                10014b08 f   libucrt:free_base.obj
 0001:00013b42       ??$?RV<lambda_3518db117f0e7cdb002338c5d3c47b6c>@@AAV<lambda_b2ea41f6bbb362cd97d94c6828d90b61>@@V<lambda_abdedf541bb04549bc734292b4a045d4>@@@?$__crt_seh_guarded_call@X@@QAEX$$QAV<lambda_3518db117f0e7cdb002338c5d3c47b6c>@@AAV<lambda_b2ea41f6bbb362cd97d94c6828d90b61>@@$$QAV<lambda_abdedf541bb04549bc734292b4a045d4>@@@Z 10014b42 f i libucrt:per_thread_data.obj
 0001:00013b92       ??$?RV<lambda_51b6e8b1eb166f2a3faf91f424b38130>@@AAV<lambda_6250bd4b2a391816dd638c3bf72b0bcb>@@V<lambda_0b5a4a3e68152e1d9b943535f5f47bed>@@@?$__crt_seh_guarded_call@X@@QAEX$$QAV<lambda_51b6e8b1eb166f2a3faf91f424b38130>@@AAV<lambda_6250bd4b2a391816dd638c3bf72b0bcb>@@$$QAV<lambda_0b5a4a3e68152e1d9b943535f5f47bed>@@@Z 10014b92 f i libucrt:per_thread_data.obj
 0001:00013bf3       ??$?RV<lambda_5b71d36f03204c0beab531769a5b5694>@@AAV<lambda_be2b3da3f62db62e9dad5dc70221a656>@@V<lambda_8f9ce462984622f9bf76b59e2aaaf805>@@@?$__crt_seh_guarded_call@X@@QAEX$$QAV<lambda_5b71d36f03204c0beab531769a5b5694>@@AAV<lambda_be2b3da3f62db62e9dad5dc70221a656>@@$$QAV<lambda_8f9ce462984622f9bf76b59e2aaaf805>@@@Z 10014bf3 f i libucrt:per_thread_data.obj
 0001:00013c3e       ??$?RV<lambda_9df27f884b057bc3edfc946cb5b7cf47>@@AAV<lambda_e69574bed617af4e071282c136b37893>@@V<lambda_cc0d902bcbbeb830f749456577db4721>@@@?$__crt_seh_guarded_call@X@@QAEX$$QAV<lambda_9df27f884b057bc3edfc946cb5b7cf47>@@AAV<lambda_e69574bed617af4e071282c136b37893>@@$$QAV<lambda_cc0d902bcbbeb830f749456577db4721>@@@Z 10014c3e f i libucrt:per_thread_data.obj
 0001:00013c86       ??$__acrt_lock_and_call@V<lambda_6250bd4b2a391816dd638c3bf72b0bcb>@@@@YAXW4__acrt_lock_id@@$$QAV<lambda_6250bd4b2a391816dd638c3bf72b0bcb>@@@Z 10014c86 f i libucrt:per_thread_data.obj
 0001:00013cae       ??$__acrt_lock_and_call@V<lambda_b2ea41f6bbb362cd97d94c6828d90b61>@@@@YAXW4__acrt_lock_id@@$$QAV<lambda_b2ea41f6bbb362cd97d94c6828d90b61>@@@Z 10014cae f i libucrt:per_thread_data.obj
 0001:00013cd6       ??$__acrt_lock_and_call@V<lambda_be2b3da3f62db62e9dad5dc70221a656>@@@@YAXW4__acrt_lock_id@@$$QAV<lambda_be2b3da3f62db62e9dad5dc70221a656>@@@Z 10014cd6 f i libucrt:per_thread_data.obj
 0001:00013cfe       ??$__acrt_lock_and_call@V<lambda_e69574bed617af4e071282c136b37893>@@@@YAXW4__acrt_lock_id@@$$QAV<lambda_e69574bed617af4e071282c136b37893>@@@Z 10014cfe f i libucrt:per_thread_data.obj
 0001:00013eb4       ___acrt_freeptd            10014eb4 f   libucrt:per_thread_data.obj
 0001:00013ee0       ___acrt_getptd             10014ee0 f   libucrt:per_thread_data.obj
 0001:00013f64       ___acrt_getptd_noexit      10014f64 f   libucrt:per_thread_data.obj
 0001:00013fe9       ___acrt_initialize_ptd     10014fe9 f   libucrt:per_thread_data.obj
 0001:00014015       ___acrt_uninitialize_ptd   10015015 f   libucrt:per_thread_data.obj
 0001:0001402f       __calloc_base              1001502f f   libucrt:calloc_base.obj
 0001:0001408c       __malloc_base              1001508c f   libucrt:malloc_base.obj
 0001:000140da       __msize                    100150da f   libucrt:msize.obj
 0001:0001410d       __realloc_base             1001510d f   libucrt:realloc_base.obj
 0001:0001428d       ___acrt_FlsAlloc@4         1001528d f   libucrt:winapi_thunks.obj
 0001:000142e3       ___acrt_FlsFree@4          100152e3 f   libucrt:winapi_thunks.obj
 0001:00014339       ___acrt_FlsGetValue@4      10015339 f   libucrt:winapi_thunks.obj
 0001:0001438f       ___acrt_FlsSetValue@8      1001538f f   libucrt:winapi_thunks.obj
 0001:000143e8       ___acrt_InitializeCriticalSectionEx@12 100153e8 f   libucrt:winapi_thunks.obj
 0001:0001444a       ___acrt_LCMapStringEx@36   1001544a f   libucrt:winapi_thunks.obj
 0001:000144d2       ___acrt_LocaleNameToLCID@8 100154d2 f   libucrt:winapi_thunks.obj
 0001:0001452e       ___acrt_SetThreadStackGuarantee@4 1001552e f   libucrt:winapi_thunks.obj
 0001:00014580       ___acrt_initialize_winapi_thunks 10015580 f   libucrt:winapi_thunks.obj
 0001:000145a6       ___acrt_is_packaged_app    100155a6 f   libucrt:winapi_thunks.obj
 0001:0001462d       ___acrt_uninitialize_winapi_thunks 1001562d f   libucrt:winapi_thunks.obj
 0001:00014663       __isdigit_l                10015663 f i libucrt:_ctype.obj
 0001:0001469b       _isdigit                   1001569b f i libucrt:_ctype.obj
 0001:0001482f       __tolower_l                1001582f f   libucrt:tolower_toupper.obj
 0001:00014849       _tolower                   10015849 f   libucrt:tolower_toupper.obj
 0001:00014879       ??$make_c_string_character_source@_WPAPA_W@__crt_strtox@@YA?AV?$c_string_character_source@_W@0@QB_WQAPA_W@Z 10015879 f i libucrt:strtox.obj
 0001:00014894       _wcstol                    10015894 f   libucrt:strtox.obj
 0001:000148c0       __mbtowc_l                 100158c0 f   libucrt:mbtowc.obj
 0001:000149ba       _mbtowc                    100159ba f   libucrt:mbtowc.obj
 0001:000149d4       _wcsnlen                   100159d4 f   libucrt:strnlen.obj
 0001:00014b8b       ___acrt_update_locale_info 10015b8b f   libucrt:locale_update.obj
 0001:00014bb8       ___acrt_update_multibyte_info 10015bb8 f   libucrt:locale_update.obj
 0001:00014be5       ?__acrt_fp_classify@@YA?AW4__acrt_fp_class@@ABN@Z 10015be5 f i libucrt:cvt.obj
 0001:00014c51       ?__acrt_fp_is_negative@@YA_NABN@Z 10015c51 f i libucrt:cvt.obj
 0001:000154b0       ___acrt_fp_format          100164b0 f   libucrt:cvt.obj
 0001:000155fa       __fileno                   100165fa f   libucrt:fileno.obj
 0001:00015620       ___acrt_initialize_stdio   10016620 f   libucrt:_file.obj
 0001:000156e8       ___acrt_uninitialize_stdio 100166e8 f   libucrt:_file.obj
 0001:00015734       __lock_file                10016734 f   libucrt:_file.obj
 0001:00015748       __unlock_file              10016748 f   libucrt:_file.obj
 0001:0001575c       __get_printf_count_output  1001675c f   libucrt:printf_count_output.obj
 0001:00015771       ___acrt_set_locale_changed 10016771 f   libucrt:wsetlocale.obj
 0001:0001577c       ___acrt_uninitialize_locale 1001677c f   libucrt:wsetlocale.obj
 0001:0001593a       ___acrt_initialize_lowio   1001693a f   libucrt:ioinit.obj
 0001:00015990       ___acrt_uninitialize_lowio 10016990 f   libucrt:ioinit.obj
 0001:000159bc       ___acrt_initialize_locks   100169bc f   libucrt:locks.obj
 0001:000159fd       ___acrt_lock               100169fd f   libucrt:locks.obj
 0001:00015a14       ___acrt_uninitialize_locks 10016a14 f   libucrt:locks.obj
 0001:00015a45       ___acrt_unlock             10016a45 f   libucrt:locks.obj
 0001:00015e1e       ??1?$argument_list@D@?A0xb0e4b824@@QAE@XZ 10016e1e f i libucrt:argv_wildcards.obj
 0001:00015e43       ?append@?$argument_list@D@?A0xb0e4b824@@QAEHQAD@Z 10016e43 f i libucrt:argv_wildcards.obj
 0001:00015e78       ?expand_if_necessary@?$argument_list@D@?A0xb0e4b824@@AAEHXZ 10016e78 f i libucrt:argv_wildcards.obj
 0001:00015eff       ___acrt_expand_narrow_argv_wildcards 10016eff f   libucrt:argv_wildcards.obj
 0001:00015f0a       ??$?RV<lambda_978dc153c237d78434369da87b74ff60>@@AAV<lambda_ad1ced32f4ac17aa236e5ef05d6b3b7c>@@V<lambda_4a8533e2866a575feecb8298ce776b0d>@@@?$__crt_seh_guarded_call@X@@QAEX$$QAV<lambda_978dc153c237d78434369da87b74ff60>@@AAV<lambda_ad1ced32f4ac17aa236e5ef05d6b3b7c>@@$$QAV<lambda_4a8533e2866a575feecb8298ce776b0d>@@@Z 10016f0a f i libucrt:mbctype.obj
 0001:00015f4d       ??$__acrt_lock_and_call@V<lambda_ad1ced32f4ac17aa236e5ef05d6b3b7c>@@@@YAXW4__acrt_lock_id@@$$QAV<lambda_ad1ced32f4ac17aa236e5ef05d6b3b7c>@@@Z 10016f4d f i libucrt:mbctype.obj
 0001:000163e4       ___acrt_initialize_multibyte 100173e4 f   libucrt:mbctype.obj
 0001:00016402       ___acrt_update_thread_multibyte_data 10017402 f   libucrt:mbctype.obj
 0001:000164a4       __setmbcp_nolock           100174a4 f   libucrt:mbctype.obj
 0001:0001676f       __ismbblead                1001776f f   libucrt:ismbbyte.obj
 0001:00016787       ___acrt_initialize_command_line 10017787 f   libucrt:argv_data.obj
 0001:000167d7       ___dcrt_get_narrow_environment_from_os 100177d7 f   libucrt:get_environment_from_os.obj
 0001:0001685a       ___acrt_initialize_heap    1001785a f   libucrt:heap_handle.obj
 0001:0001686b       ___acrt_uninitialize_heap  1001786b f   libucrt:heap_handle.obj
 0001:00016875       ___acrt_execute_initializers 10017875 f   libucrt:shared_initialization.obj
 0001:000168f8       ___acrt_execute_uninitializers 100178f8 f   libucrt:shared_initialization.obj
 0001:00016945       ??$?RV<lambda_a048d3beccc847880fc8490e18b82769>@@AAV<lambda_ec61778202f4f5fc7e7711acc23c3bca>@@V<lambda_f7496a158712204296dd6628a163878e>@@@?$__crt_seh_guarded_call@P6AXH@Z@@QAEP6AXH@Z$$QAV<lambda_a048d3beccc847880fc8490e18b82769>@@AAV<lambda_ec61778202f4f5fc7e7711acc23c3bca>@@$$QAV<lambda_f7496a158712204296dd6628a163878e>@@@Z 10017945 f i libucrt:signal.obj
 0001:0001699f       ??$__acrt_lock_and_call@V<lambda_ec61778202f4f5fc7e7711acc23c3bca>@@@@YAP6AXH@ZW4__acrt_lock_id@@$$QAV<lambda_ec61778202f4f5fc7e7711acc23c3bca>@@@Z 1001799f f i libucrt:signal.obj
 0001:00016a31       ___acrt_get_sigabrt_handler 10017a31 f   libucrt:signal.obj
 0001:00016a48       ___acrt_initialize_signal_handlers 10017a48 f   libucrt:signal.obj
 0001:00016a83       ___fpecode                 10017a83 f   libucrt:signal.obj
 0001:00016a8c       _raise                     10017a8c f   libucrt:signal.obj
 0001:00016c94       ___acrt_has_user_matherr   10017c94 f   libucrt:matherr.obj
 0001:00016cad       ___acrt_initialize_user_matherr 10017cad f   libucrt:matherr.obj
 0001:00016cc1       ___acrt_invoke_user_matherr 10017cc1 f   libucrt:matherr.obj
 0001:00016d0a       ___pctype_func             10017d0a f   libucrt:ctype.obj
 0001:00016d30       _iswctype                  10017d30 f   libucrt:iswctype.obj
 0001:00016d8f       __isctype_l                10017d8f f   libucrt:isctype.obj
 0001:00016e61       ___acrt_add_locale_ref     10017e61 f   libucrt:locale_refcounting.obj
 0001:00016ede       ___acrt_free_locale        10017ede f   libucrt:locale_refcounting.obj
 0001:00017028       ___acrt_locale_add_lc_time_reference 10018028 f   libucrt:locale_refcounting.obj
 0001:00017051       ___acrt_locale_free_lc_time_if_unreferenced 10018051 f   libucrt:locale_refcounting.obj
 0001:00017081       ___acrt_locale_release_lc_time_reference 10018081 f   libucrt:locale_refcounting.obj
 0001:000170aa       ___acrt_release_locale_ref 100180aa f   libucrt:locale_refcounting.obj
 0001:0001712b       ___acrt_update_thread_locale_data 1001812b f   libucrt:locale_refcounting.obj
 0001:000171a2       __updatetlocinfoEx_nolock  100181a2 f   libucrt:locale_refcounting.obj
 0001:000171f2       __query_new_mode           100181f2 f   libucrt:new_mode.obj
 0001:000172b4       ___acrt_DownlevelLocaleNameToLCID 100182b4 f   libucrt:lcidtoname_downlevel.obj
 0001:000172e0       __isleadbyte_l             100182e0 f i libucrt:_wctype.obj
 0001:00017536       ___acrt_LCMapStringA       10018536 f   libucrt:lcmapstringa.obj
 0001:00017581       __freea_crt                10018581 f i libucrt:lcmapstringa.obj
 0001:000175a1       ___acrt_fp_strflt_to_string 100185a1 f   libucrt:_fptostr.obj
 0001:0001765d       ??0scoped_fp_state_reset@?A0x48fbfdd4@@QAE@XZ 1001865d f i libucrt:cfout.obj
 0001:00017690       ?divide@__crt_strtox@@YA_KAAUbig_integer@1@ABU21@@Z 10018690 f i libucrt:cfout.obj
 0001:00017b3e       ___acrt_fltout             10018b3e f   libucrt:cfout.obj
 0001:00018eda       __fcloseall                10019eda f   libucrt:closeall.obj
 0001:00018f7a       ___acrt_stdio_flush_nolock 10019f7a f   libucrt:fflush.obj
 0001:00018fe0       __fflush_nolock            10019fe0 f   libucrt:fflush.obj
 0001:00019027       __flushall                 1001a027 f   libucrt:fflush.obj
 0001:00019108       ___acrt_stdio_free_buffer_nolock 1001a108 f   libucrt:_freebuf.obj
 0001:00019146       __isatty                   1001a146 f   libucrt:isatty.obj
 0001:0001919c       ___acrt_locale_free_monetary 1001a19c f   libucrt:initmon.obj
 0001:0001929a       ___acrt_locale_free_numeric 1001a29a f   libucrt:initnum.obj
 0001:0001933f       ___acrt_locale_free_time   1001a33f f   libucrt:inittime.obj
 0001:00019423       ___acrt_GetStringTypeA     1001a423 f   libucrt:getstringtypea.obj
 0001:00019540       ___acrt_lowio_create_handle_array 1001a540 f   libucrt:osfinfo.obj
 0001:000195ba       ___acrt_lowio_destroy_handle_array 1001a5ba f   libucrt:osfinfo.obj
 0001:000195ef       ___acrt_lowio_ensure_fh_exists 1001a5ef f   libucrt:osfinfo.obj
 0001:00019687       ___acrt_lowio_lock_fh      1001a687 f   libucrt:osfinfo.obj
 0001:000196aa       ___acrt_lowio_unlock_fh    1001a6aa f   libucrt:osfinfo.obj
 0001:000196cd       __free_osfhnd              1001a6cd f   libucrt:osfinfo.obj
 0001:0001975e       __get_osfhandle            1001a75e f   libucrt:osfinfo.obj
 0001:000198b0       _qsort                     1001a8b0 f   libucrt:qsort.obj
 0001:00019cfb       _strncpy_s                 1001acfb f   libucrt:strncpy_s.obj
 0001:00019d10       _strpbrk                   1001ad10 f   libucrt:strpbrk.obj
 0001:00019d50       __mbsdec                   1001ad50 f   libucrt:mbsdec.obj
 0001:00019d67       __mbsdec_l                 1001ad67 f   libucrt:mbsdec.obj
 0001:00019e03       ___strncnt                 1001ae03 f   libucrt:strncnt.obj
 0001:00019e1f       _fegetenv                  1001ae1f f   libucrt:fegetenv.obj
 0001:00019e3c       _fesetenv                  1001ae3c f   libucrt:fesetenv.obj
 0001:00019e85       _feholdexcept              1001ae85 f   libucrt:feholdexcept.obj
 0001:00019ee0       _log10                     1001aee0 f   libucrt:log10.obj
 0001:00019f20       __CIlog10                  1001af20 f   libucrt:log10.obj
 0001:00019f5b       __CIlog10_default          1001af5b f   libucrt:log10.obj
 0001:00019f6f       __log10_default            1001af6f     libucrt:log10.obj
 0001:0001a030       _ceil                      1001b030 f   libucrt:ceil_pentium4.obj
 0001:0001a070       __ceil_pentium4            1001b070 f   libucrt:ceil_pentium4.obj
 0001:0001a6dd       __write                    1001b6dd f   libucrt:write.obj
 0001:0001a7c8       __write_nolock             1001b7c8 f   libucrt:write.obj
 0001:0001aa52       __lseeki64_nolock          1001ba52 f   libucrt:lseek.obj
 0001:0001aa6d       __fclose_nolock            1001ba6d f   libucrt:fclose.obj
 0001:0001aae3       _fclose                    1001bae3 f   libucrt:fclose.obj
 0001:0001ab63       ??$?RV<lambda_61cee617f5178ae960314fd4d05640a0>@@AAV<lambda_6978c1fb23f02e42e1d9e99668cc68aa>@@V<lambda_9cd88cf8ad10232537feb2133f08c833>@@@?$__crt_seh_guarded_call@H@@QAEH$$QAV<lambda_61cee617f5178ae960314fd4d05640a0>@@AAV<lambda_6978c1fb23f02e42e1d9e99668cc68aa>@@$$QAV<lambda_9cd88cf8ad10232537feb2133f08c833>@@@Z 1001bb63 f i libucrt:commit.obj
 0001:0001abfb       ??$__acrt_lowio_lock_fh_and_call@V<lambda_6978c1fb23f02e42e1d9e99668cc68aa>@@@@YAHH$$QAV<lambda_6978c1fb23f02e42e1d9e99668cc68aa>@@@Z 1001bbfb f i libucrt:commit.obj
 0001:0001ac23       __commit                   1001bc23 f   libucrt:commit.obj
 0001:0001ac92       __query_app_type           1001bc92 f   libucrt:report_runtime_error.obj
 0001:0001af3b       __getfpcontrolword         1001bf3b f   libucrt:_fenvutils.obj
 0001:0001af7e       __getfpstatusword          1001bf7e f   libucrt:_fenvutils.obj
 0001:0001b026       __setfpcontrolword         1001c026 f   libucrt:_fenvutils.obj
 0001:0001b0a6       __setfpstatusword          1001c0a6 f   libucrt:_fenvutils.obj
 0001:0001b126       __clearfp                  1001c126 f   libucrt:ieee87.obj
 0001:0001b204       ___acrt_initialize_sse2    1001c204 f   libucrt:mathfcns.obj
 0001:0001b220       __CIlog10_pentium4         1001c220 f   libucrt:log10_pentium4.obj
 0001:0001b238       __log10_pentium4           1001c238     libucrt:log10_pentium4.obj
 0001:0001b4c1       __fFEXP                    1001c4c1     libucrt:87tran.obj
 0001:0001b518       __rtinfpopse               1001c518     libucrt:87tran.obj
 0001:0001b51a       __rtinfnpopse              1001c51a     libucrt:87tran.obj
 0001:0001b52a       __fFLN                     1001c52a     libucrt:87tran.obj
 0001:0001b5df       __rtinfpop                 1001c5df     libucrt:87tran.obj
 0001:0001b5e1       __rtinfnpop                1001c5e1     libucrt:87tran.obj
 0001:0001b5fe       __ffexpm1                  1001c5fe     libucrt:87tran.obj
 0001:0001b6b0       __trandisp1                1001c6b0 f   libucrt:87disp.obj
 0001:0001b717       __trandisp2                1001c717 f   libucrt:87disp.obj
 0001:0001b7a3       __rttospopde               1001c7a3     libucrt:87disp.obj
 0001:0001b7a8       __rttospop                 1001c7a8     libucrt:87disp.obj
 0001:0001b7aa       __rtnospop                 1001c7aa     libucrt:87disp.obj
 0001:0001b7ac       __rttosnpop                1001c7ac     libucrt:87disp.obj
 0001:0001b7ad       __rtnospopde               1001c7ad     libucrt:87disp.obj
 0001:0001b7b4       __rtzeropop                1001c7b4     libucrt:87disp.obj
 0001:0001b7b6       __rtzeronpop               1001c7b6     libucrt:87disp.obj
 0001:0001b7bb       __rtzerospop               1001c7bb     libucrt:87disp.obj
 0001:0001b7c8       __rtonepop                 1001c7c8     libucrt:87disp.obj
 0001:0001b7ca       __rtonenpop                1001c7ca     libucrt:87disp.obj
 0001:0001b7cf       __tosnan1                  1001c7cf     libucrt:87disp.obj
 0001:0001b7fa       __nosnan2                  1001c7fa     libucrt:87disp.obj
 0001:0001b7fc       __tosnan2                  1001c7fc     libucrt:87disp.obj
 0001:0001b824       __nan2                     1001c824     libucrt:87disp.obj
 0001:0001b863       __rtindfpop                1001c863     libucrt:87disp.obj
 0001:0001b865       __rtindfnpop               1001c865     libucrt:87disp.obj
 0001:0001b876       __rttosnpopde              1001c876     libucrt:87disp.obj
 0001:0001b880       __rtatan2inf               1001c880     libucrt:87disp.obj
 0001:0001b89d       __rtchsifneg               1001c89d     libucrt:87disp.obj
 0001:0001b8b0       __twoToTOS                 1001c8b0 f   libucrt:common.obj
 0001:0001b8c5       __load_CW                  1001c8c5 f   libucrt:common.obj
 0001:0001b8dc       __convertTOStoQNaN         1001c8dc f   libucrt:common.obj
 0001:0001b8f5       __fload_withFB             1001c8f5 f   libucrt:common.obj
 0001:0001b938       __checkTOS_withFB          1001c938 f   libucrt:common.obj
 0001:0001b94e       __fast_exit                1001c94e f   libucrt:common.obj
 0001:0001b95b       __math_exit                1001c95b f   libucrt:common.obj
 0001:0001b985       __check_overflow_exit      1001c985 f   libucrt:common.obj
 0001:0001b999       __check_range_exit         1001c999 f   libucrt:common.obj
 0001:0001ba40       __startTwoArgErrorHandling 1001ca40 f   libucrt:genexcep.obj
 0001:0001ba57       __startOneArgErrorHandling 1001ca57 f   libucrt:genexcep.obj
 0001:0001ba93       ___libm_error_support      1001ca93 f   libucrt:libm_error.obj
 0001:0001bcab       __ceil_default             1001ccab f   libucrt:ceil.obj
 0001:0001bd64       __putwch_nolock            1001cd64 f   libucrt:putwch.obj
 0001:0001bda9       ??$?RV<lambda_123407a5e2ac06da108355a851863b7a>@@AAV<lambda_2fe9b910cf3cbf4a0ab98a02ba45b3ec>@@V<lambda_ae55bdf541ad94d75914d381c370e64d>@@@?$__crt_seh_guarded_call@H@@QAEH$$QAV<lambda_123407a5e2ac06da108355a851863b7a>@@AAV<lambda_2fe9b910cf3cbf4a0ab98a02ba45b3ec>@@$$QAV<lambda_ae55bdf541ad94d75914d381c370e64d>@@@Z 1001cda9 f i libucrt:close.obj
 0001:0001be2b       ??$__acrt_lowio_lock_fh_and_call@V<lambda_2fe9b910cf3cbf4a0ab98a02ba45b3ec>@@@@YAHH$$QAV<lambda_2fe9b910cf3cbf4a0ab98a02ba45b3ec>@@@Z 1001ce2b f i libucrt:close.obj
 0001:0001be53       __close                    1001ce53 f   libucrt:close.obj
 0001:0001bed2       __close_nolock             1001ced2 f   libucrt:close.obj
 0001:0001bf6e       ?__acrt_stdio_free_stream@@YAXV__crt_stdio_stream@@@Z 1001cf6e f   libucrt:stream.obj
 0001:0001bfb0       ___ascii_strnicmp          1001cfb0 f   libucrt:_strnicm.obj
 0001:0001c011       __clrfp                    1001d011 f   libucrt:fpctrl.obj
 0001:0001c024       __ctrlfp                   1001d024 f   libucrt:fpctrl.obj
 0001:0001c050       __set_statfp               1001d050 f   libucrt:fpctrl.obj
 0001:0001c0ab       __statfp                   1001d0ab f   libucrt:fpctrl.obj
 0001:0001c0bd       __d_inttype                1001d0bd f   libucrt:powhlp.obj
 0001:0001c127       __powhlp                   1001d127 f   libucrt:powhlp.obj
 0001:0001c252       __87except                 1001d252 f   libucrt:87except.obj
 0001:0001c35d       __frnd                     1001d35d f   libucrt:frnd.obj
 0001:0001c373       __errcode                  1001d373 f   libucrt:fpexcept.obj
 0001:0001c3a7       __except1                  1001d3a7 f   libucrt:fpexcept.obj
 0001:0001c475       __handle_exc               1001d475 f   libucrt:fpexcept.obj
 0001:0001c655       __raise_exc                1001d655 f   libucrt:fpexcept.obj
 0001:0001c678       __raise_exc_ex             1001d678 f   libucrt:fpexcept.obj
 0001:0001c969       __set_errno_from_matherr   1001d969 f   libucrt:fpexcept.obj
 0001:0001c998       __umatherr                 1001d998 f   libucrt:fpexcept.obj
 0001:0001ca3a       __decomp                   1001da3a f   libucrt:util.obj
 0001:0001cb0e       __set_exp                  1001db0e f   libucrt:util.obj
 0001:0001cb3d       __sptype                   1001db3d f   libucrt:util.obj
 0001:0001cb9b       ___dcrt_lowio_initialize_console_output 1001db9b f   libucrt:initcon.obj
 0001:0001cbba       ___dcrt_terminate_console_output 1001dbba f   libucrt:initcon.obj
 0001:0001cbd1       __fpclass                  1001dbd1 f   libucrt:ieeemisc.obj
 0001:0001cc75       _IsProcessorFeaturePresent@4 1001dc75 f   kernel32:KERNEL32.dll
 0001:0001cc80       __FindPESection            1001dc80 f   LIBCMT:pesect.obj
 0001:0001ccd0       __IsNonwritableInCurrentImage 1001dcd0 f   LIBCMT:pesect.obj
 0001:0001cd90       __ValidateImageBase        1001dd90 f   LIBCMT:pesect.obj
 0001:0001cdc3       __EH_prolog3_catch         1001ddc3 f   LIBCMT:ehprolg3.obj
 0001:0001ce00       __aulldvrm                 1001de00 f   LIBCMT:ulldvrm.obj
 0001:0001cea0       __allmul                   1001dea0 f   LIBCMT:llmul.obj
 0001:0001cee0       __alldvrm                  1001dee0 f   LIBCMT:lldvrm.obj
 0001:0001cfc0       __aullshr                  1001dfc0 f   LIBCMT:ullshr.obj
 0001:0001cfe0       __allshl                   1001dfe0 f   LIBCMT:llshl.obj
 0001:0001d000       __ftol2_sse                1001e000 f   LIBCMT:ftol2.obj
 0001:0001d009       __ftol2_pentium4           1001e009 f   LIBCMT:ftol2.obj
 0001:0001d01c       __ftol2_sse_excpt          1001e01c f   LIBCMT:ftol2.obj
 0001:0001d040       __ftol2                    1001e040 f   LIBCMT:ftol2.obj
 0001:0001d0c0       _strrchr                   1001e0c0 f   libvcruntime:strrchr.obj
 0001:0001d200       _strchr                    1001e200 f   libvcruntime:strchr.obj
 0001:0001d26e       ___from_strstr_to_strchr   1001e26e     libvcruntime:strchr.obj
 0002:00000000       __imp__RegQueryValueExW@24 1001f000     advapi32:ADVAPI32.dll
 0002:00000004       __imp__RegSetValueExW@24   1001f004     advapi32:ADVAPI32.dll
 0002:00000008       __imp__RegQueryInfoKeyW@48 1001f008     advapi32:ADVAPI32.dll
 0002:0000000c       __imp__RegOpenKeyExW@20    1001f00c     advapi32:ADVAPI32.dll
 0002:00000010       __imp__RegEnumKeyExW@32    1001f010     advapi32:ADVAPI32.dll
 0002:00000014       __imp__RegDeleteValueW@8   1001f014     advapi32:ADVAPI32.dll
 0002:00000018       __imp__RegDeleteKeyW@8     1001f018     advapi32:ADVAPI32.dll
 0002:0000001c       __imp__RegCreateKeyExW@36  1001f01c     advapi32:ADVAPI32.dll
 0002:00000020       __imp__RegCloseKey@4       1001f020     advapi32:ADVAPI32.dll
 0002:00000024       \177ADVAPI32_NULL_THUNK_DATA 1001f024     advapi32:ADVAPI32.dll
 0002:00000028       __imp__GetObjectW@12       1001f028     gdi32:GDI32.dll
 0002:0000002c       __imp__SelectObject@8      1001f02c     gdi32:GDI32.dll
 0002:00000030       __imp__DeleteObject@4      1001f030     gdi32:GDI32.dll
 0002:00000034       __imp__CreateCompatibleDC@4 1001f034     gdi32:GDI32.dll
 0002:00000038       __imp__BitBlt@36           1001f038     gdi32:GDI32.dll
 0002:0000003c       __imp__SetWindowOrgEx@16   1001f03c     gdi32:GDI32.dll
 0002:00000040       __imp__SetWindowExtEx@16   1001f040     gdi32:GDI32.dll
 0002:00000044       __imp__SetViewportOrgEx@16 1001f044     gdi32:GDI32.dll
 0002:00000048       __imp__LPtoDP@12           1001f048     gdi32:GDI32.dll
 0002:0000004c       __imp__SetMapMode@8        1001f04c     gdi32:GDI32.dll
 0002:00000050       __imp__SaveDC@4            1001f050     gdi32:GDI32.dll
 0002:00000054       __imp__RestoreDC@8         1001f054     gdi32:GDI32.dll
 0002:00000058       __imp__GetDeviceCaps@8     1001f058     gdi32:GDI32.dll
 0002:0000005c       __imp__DeleteMetaFile@4    1001f05c     gdi32:GDI32.dll
 0002:00000060       __imp__DeleteDC@4          1001f060     gdi32:GDI32.dll
 0002:00000064       __imp__CreateRectRgnIndirect@4 1001f064     gdi32:GDI32.dll
 0002:00000068       __imp__CreateMetaFileW@4   1001f068     gdi32:GDI32.dll
 0002:0000006c       __imp__CreateDCW@16        1001f06c     gdi32:GDI32.dll
 0002:00000070       __imp__CloseMetaFile@4     1001f070     gdi32:GDI32.dll
 0002:00000074       \177GDI32_NULL_THUNK_DATA  1001f074     gdi32:GDI32.dll
 0002:00000078       __imp__CloseHandle@4       1001f078     kernel32:KERNEL32.dll
 0002:0000007c       __imp__SetEvent@4          1001f07c     kernel32:KERNEL32.dll
 0002:00000080       __imp__CreateMutexW@12     1001f080     kernel32:KERNEL32.dll
 0002:00000084       __imp__CreateEventW@16     1001f084     kernel32:KERNEL32.dll
 0002:00000088       __imp__GetCurrentProcessId@0 1001f088     kernel32:KERNEL32.dll
 0002:0000008c       __imp__WriteConsoleW@20    1001f08c     kernel32:KERNEL32.dll
 0002:00000090       __imp__FlushFileBuffers@4  1001f090     kernel32:KERNEL32.dll
 0002:00000094       __imp__SetFilePointerEx@20 1001f094     kernel32:KERNEL32.dll
 0002:00000098       __imp__GetConsoleMode@8    1001f098     kernel32:KERNEL32.dll
 0002:0000009c       __imp__GetConsoleCP@0      1001f09c     kernel32:KERNEL32.dll
 0002:000000a0       __imp__WriteFile@20        1001f0a0     kernel32:KERNEL32.dll
 0002:000000a4       __imp__SetStdHandle@8      1001f0a4     kernel32:KERNEL32.dll
 0002:000000a8       __imp__GetStringTypeW@16   1001f0a8     kernel32:KERNEL32.dll
 0002:000000ac       __imp__FreeEnvironmentStringsW@4 1001f0ac     kernel32:KERNEL32.dll
 0002:000000b0       __imp__GetEnvironmentStringsW@0 1001f0b0     kernel32:KERNEL32.dll
 0002:000000b4       __imp__FindResourceW@12    1001f0b4     kernel32:KERNEL32.dll
 0002:000000b8       __imp__GetCommandLineA@0   1001f0b8     kernel32:KERNEL32.dll
 0002:000000bc       __imp__GetCPInfo@8         1001f0bc     kernel32:KERNEL32.dll
 0002:000000c0       __imp__GetOEMCP@0          1001f0c0     kernel32:KERNEL32.dll
 0002:000000c4       __imp__IsValidCodePage@4   1001f0c4     kernel32:KERNEL32.dll
 0002:000000c8       __imp__FindNextFileA@8     1001f0c8     kernel32:KERNEL32.dll
 0002:000000cc       __imp__FindFirstFileExA@24 1001f0cc     kernel32:KERNEL32.dll
 0002:000000d0       __imp__FindClose@4         1001f0d0     kernel32:KERNEL32.dll
 0002:000000d4       __imp__GetFileType@4       1001f0d4     kernel32:KERNEL32.dll
 0002:000000d8       __imp__GetStdHandle@4      1001f0d8     kernel32:KERNEL32.dll
 0002:000000dc       __imp__GetACP@0            1001f0dc     kernel32:KERNEL32.dll
 0002:000000e0       __imp__LCMapStringW@24     1001f0e0     kernel32:KERNEL32.dll
 0002:000000e4       __imp__HeapReAlloc@16      1001f0e4     kernel32:KERNEL32.dll
 0002:000000e8       __imp__lstrcmpiW@8         1001f0e8     kernel32:KERNEL32.dll
 0002:000000ec       __imp__MulDiv@12           1001f0ec     kernel32:KERNEL32.dll
 0002:000000f0       __imp__GlobalUnlock@4      1001f0f0     kernel32:KERNEL32.dll
 0002:000000f4       __imp__GlobalLock@4        1001f0f4     kernel32:KERNEL32.dll
 0002:000000f8       __imp__GlobalAlloc@8       1001f0f8     kernel32:KERNEL32.dll
 0002:000000fc       __imp__SizeofResource@8    1001f0fc     kernel32:KERNEL32.dll
 0002:00000100       __imp__LoadResource@8      1001f100     kernel32:KERNEL32.dll
 0002:00000104       __imp__LoadLibraryExW@12   1001f104     kernel32:KERNEL32.dll
 0002:00000108       __imp__GetProcAddress@8    1001f108     kernel32:KERNEL32.dll
 0002:0000010c       __imp__GetModuleHandleW@4  1001f10c     kernel32:KERNEL32.dll
 0002:00000110       __imp__GetModuleFileNameW@12 1001f110     kernel32:KERNEL32.dll
 0002:00000114       __imp__FreeLibrary@4       1001f114     kernel32:KERNEL32.dll
 0002:00000118       __imp__DisableThreadLibraryCalls@4 1001f118     kernel32:KERNEL32.dll
 0002:0000011c       __imp__GetCurrentThreadId@0 1001f11c     kernel32:KERNEL32.dll
 0002:00000120       __imp__Sleep@4             1001f120     kernel32:KERNEL32.dll
 0002:00000124       __imp__WaitForSingleObject@8 1001f124     kernel32:KERNEL32.dll
 0002:00000128       __imp__ReleaseMutex@4      1001f128     kernel32:KERNEL32.dll
 0002:0000012c       __imp__ResetEvent@4        1001f12c     kernel32:KERNEL32.dll
 0002:00000130       __imp__EnterCriticalSection@4 1001f130     kernel32:KERNEL32.dll
 0002:00000134       __imp__LeaveCriticalSection@4 1001f134     kernel32:KERNEL32.dll
 0002:00000138       __imp__SetLastError@4      1001f138     kernel32:KERNEL32.dll
 0002:0000013c       __imp__EncodePointer@4     1001f13c     kernel32:KERNEL32.dll
 0002:00000140       __imp__DeleteCriticalSection@4 1001f140     kernel32:KERNEL32.dll
 0002:00000144       __imp__InitializeCriticalSectionEx@12 1001f144     kernel32:KERNEL32.dll
 0002:00000148       __imp__GetLastError@0      1001f148     kernel32:KERNEL32.dll
 0002:0000014c       __imp__RaiseException@16   1001f14c     kernel32:KERNEL32.dll
 0002:00000150       __imp__DecodePointer@4     1001f150     kernel32:KERNEL32.dll
 0002:00000154       __imp__WideCharToMultiByte@32 1001f154     kernel32:KERNEL32.dll
 0002:00000158       __imp__GetCommandLineW@0   1001f158     kernel32:KERNEL32.dll
 0002:0000015c       __imp__MultiByteToWideChar@24 1001f15c     kernel32:KERNEL32.dll
 0002:00000160       __imp__HeapSize@12         1001f160     kernel32:KERNEL32.dll
 0002:00000164       __imp__CreateFileW@28      1001f164     kernel32:KERNEL32.dll
 0002:00000168       __imp__GetModuleFileNameA@12 1001f168     kernel32:KERNEL32.dll
 0002:0000016c       __imp__GetModuleHandleExW@12 1001f16c     kernel32:KERNEL32.dll
 0002:00000170       __imp__ExitProcess@4       1001f170     kernel32:KERNEL32.dll
 0002:00000174       __imp__VirtualQuery@12     1001f174     kernel32:KERNEL32.dll
 0002:00000178       __imp__VirtualProtect@16   1001f178     kernel32:KERNEL32.dll
 0002:0000017c       __imp__GetSystemInfo@4     1001f17c     kernel32:KERNEL32.dll
 0002:00000180       __imp__TlsFree@4           1001f180     kernel32:KERNEL32.dll
 0002:00000184       __imp__TlsSetValue@8       1001f184     kernel32:KERNEL32.dll
 0002:00000188       __imp__TlsGetValue@4       1001f188     kernel32:KERNEL32.dll
 0002:0000018c       __imp__TlsAlloc@0          1001f18c     kernel32:KERNEL32.dll
 0002:00000190       __imp__InterlockedFlushSList@4 1001f190     kernel32:KERNEL32.dll
 0002:00000194       __imp__RtlUnwind@16        1001f194     kernel32:KERNEL32.dll
 0002:00000198       __imp__LoadLibraryExA@12   1001f198     kernel32:KERNEL32.dll
 0002:0000019c       __imp__VirtualFree@12      1001f19c     kernel32:KERNEL32.dll
 0002:000001a0       __imp__VirtualAlloc@16     1001f1a0     kernel32:KERNEL32.dll
 0002:000001a4       __imp__FlushInstructionCache@12 1001f1a4     kernel32:KERNEL32.dll
 0002:000001a8       __imp__InterlockedPushEntrySList@8 1001f1a8     kernel32:KERNEL32.dll
 0002:000001ac       __imp__InterlockedPopEntrySList@4 1001f1ac     kernel32:KERNEL32.dll
 0002:000001b0       __imp__GetProcessHeap@0    1001f1b0     kernel32:KERNEL32.dll
 0002:000001b4       __imp__HeapFree@12         1001f1b4     kernel32:KERNEL32.dll
 0002:000001b8       __imp__HeapAlloc@12        1001f1b8     kernel32:KERNEL32.dll
 0002:000001bc       __imp__OutputDebugStringW@4 1001f1bc     kernel32:KERNEL32.dll
 0002:000001c0       __imp__InitializeSListHead@4 1001f1c0     kernel32:KERNEL32.dll
 0002:000001c4       __imp__GetSystemTimeAsFileTime@4 1001f1c4     kernel32:KERNEL32.dll
 0002:000001c8       __imp__QueryPerformanceCounter@4 1001f1c8     kernel32:KERNEL32.dll
 0002:000001cc       __imp__GetStartupInfoW@4   1001f1cc     kernel32:KERNEL32.dll
 0002:000001d0       __imp__IsDebuggerPresent@0 1001f1d0     kernel32:KERNEL32.dll
 0002:000001d4       __imp__IsProcessorFeaturePresent@4 1001f1d4     kernel32:KERNEL32.dll
 0002:000001d8       __imp__TerminateProcess@8  1001f1d8     kernel32:KERNEL32.dll
 0002:000001dc       __imp__InitializeCriticalSectionAndSpinCount@8 1001f1dc     kernel32:KERNEL32.dll
 0002:000001e0       __imp__WaitForSingleObjectEx@12 1001f1e0     kernel32:KERNEL32.dll
 0002:000001e4       __imp__UnhandledExceptionFilter@4 1001f1e4     kernel32:KERNEL32.dll
 0002:000001e8       __imp__SetUnhandledExceptionFilter@4 1001f1e8     kernel32:KERNEL32.dll
 0002:000001ec       __imp__GetCurrentProcess@0 1001f1ec     kernel32:KERNEL32.dll
 0002:000001f0       \177KERNEL32_NULL_THUNK_DATA 1001f1f0     kernel32:KERNEL32.dll
 0002:000001f4       __imp__OleCreatePropertyFrame@44 1001f1f4     oleaut32:OLEAUT32.dll
 0002:000001f8       __imp__UnRegisterTypeLib@20 1001f1f8     oleaut32:OLEAUT32.dll
 0002:000001fc       __imp__RegisterTypeLib@12  1001f1fc     oleaut32:OLEAUT32.dll
 0002:00000200       __imp__LoadRegTypeLib@20   1001f200     oleaut32:OLEAUT32.dll
 0002:00000204       __imp__LoadTypeLib@8       1001f204     oleaut32:OLEAUT32.dll
 0002:00000208       __imp__VarUI4FromStr@16    1001f208     oleaut32:OLEAUT32.dll
 0002:0000020c       __imp__VariantInit@4       1001f20c     oleaut32:OLEAUT32.dll
 0002:00000210       __imp__SysAllocStringByteLen@8 1001f210     oleaut32:OLEAUT32.dll
 0002:00000214       __imp__SysStringByteLen@4  1001f214     oleaut32:OLEAUT32.dll
 0002:00000218       __imp__VariantChangeType@16 1001f218     oleaut32:OLEAUT32.dll
 0002:0000021c       __imp__VariantClear@4      1001f21c     oleaut32:OLEAUT32.dll
 0002:00000220       __imp__SysStringLen@4      1001f220     oleaut32:OLEAUT32.dll
 0002:00000224       __imp__SysFreeString@4     1001f224     oleaut32:OLEAUT32.dll
 0002:00000228       __imp__SysAllocStringLen@8 1001f228     oleaut32:OLEAUT32.dll
 0002:0000022c       __imp__SysAllocString@4    1001f22c     oleaut32:OLEAUT32.dll
 0002:00000230       \177OLEAUT32_NULL_THUNK_DATA 1001f230     oleaut32:OLEAUT32.dll
 0002:00000234       __imp__UnregisterClassW@8  1001f234     user32:USER32.dll
 0002:00000238       __imp__PostMessageW@16     1001f238     user32:USER32.dll
 0002:0000023c       __imp__DefWindowProcW@16   1001f23c     user32:USER32.dll
 0002:00000240       __imp__CallWindowProcW@20  1001f240     user32:USER32.dll
 0002:00000244       __imp__RegisterClassExW@4  1001f244     user32:USER32.dll
 0002:00000248       __imp__GetClassInfoExW@12  1001f248     user32:USER32.dll
 0002:0000024c       __imp__CreateWindowExW@48  1001f24c     user32:USER32.dll
 0002:00000250       __imp__IsWindow@4          1001f250     user32:USER32.dll
 0002:00000254       __imp__IsChild@8           1001f254     user32:USER32.dll
 0002:00000258       __imp__DestroyWindow@4     1001f258     user32:USER32.dll
 0002:0000025c       __imp__ShowWindow@8        1001f25c     user32:USER32.dll
 0002:00000260       __imp__SetWindowPos@28     1001f260     user32:USER32.dll
 0002:00000264       __imp__CharNextW@4         1001f264     user32:USER32.dll
 0002:00000268       __imp__SetFocus@4          1001f268     user32:USER32.dll
 0002:0000026c       __imp__LoadBitmapW@8       1001f26c     user32:USER32.dll
 0002:00000270       __imp__RegisterClassW@4    1001f270     user32:USER32.dll
 0002:00000274       __imp__PeekMessageW@20     1001f274     user32:USER32.dll
 0002:00000278       __imp__LoadCursorW@8       1001f278     user32:USER32.dll
 0002:0000027c       __imp__GetParent@4         1001f27c     user32:USER32.dll
 0002:00000280       __imp__SetWindowLongW@12   1001f280     user32:USER32.dll
 0002:00000284       __imp__GetWindowLongW@8    1001f284     user32:USER32.dll
 0002:00000288       __imp__PtInRect@12         1001f288     user32:USER32.dll
 0002:0000028c       __imp__EqualRect@8         1001f28c     user32:USER32.dll
 0002:00000290       __imp__OffsetRect@12       1001f290     user32:USER32.dll
 0002:00000294       __imp__UnionRect@12        1001f294     user32:USER32.dll
 0002:00000298       __imp__IntersectRect@12    1001f298     user32:USER32.dll
 0002:0000029c       __imp__GetClientRect@8     1001f29c     user32:USER32.dll
 0002:000002a0       __imp__InvalidateRect@12   1001f2a0     user32:USER32.dll
 0002:000002a4       __imp__SetWindowRgn@12     1001f2a4     user32:USER32.dll
 0002:000002a8       __imp__EndPaint@8          1001f2a8     user32:USER32.dll
 0002:000002ac       __imp__BeginPaint@8        1001f2ac     user32:USER32.dll
 0002:000002b0       __imp__ReleaseDC@8         1001f2b0     user32:USER32.dll
 0002:000002b4       __imp__GetDC@4             1001f2b4     user32:USER32.dll
 0002:000002b8       __imp__GetKeyState@4       1001f2b8     user32:USER32.dll
 0002:000002bc       __imp__GetFocus@0          1001f2bc     user32:USER32.dll
 0002:000002c0       \177USER32_NULL_THUNK_DATA 1001f2c0     user32:USER32.dll
 0002:000002c4       __imp__CoCreateInstance@20 1001f2c4     ole32:ole32.dll
 0002:000002c8       __imp__StringFromGUID2@12  1001f2c8     ole32:ole32.dll
 0002:000002cc       __imp__CoTaskMemRealloc@8  1001f2cc     ole32:ole32.dll
 0002:000002d0       __imp__CoTaskMemFree@4     1001f2d0     ole32:ole32.dll
 0002:000002d4       __imp__CreateDataAdviseHolder@4 1001f2d4     ole32:ole32.dll
 0002:000002d8       __imp__ReadClassStm@8      1001f2d8     ole32:ole32.dll
 0002:000002dc       __imp__WriteClassStm@8     1001f2dc     ole32:ole32.dll
 0002:000002e0       __imp__OleSaveToStream@8   1001f2e0     ole32:ole32.dll
 0002:000002e4       __imp__CreateOleAdviseHolder@4 1001f2e4     ole32:ole32.dll
 0002:000002e8       __imp__OleRegGetUserType@12 1001f2e8     ole32:ole32.dll
 0002:000002ec       __imp__OleRegGetMiscStatus@12 1001f2ec     ole32:ole32.dll
 0002:000002f0       __imp__OleRegEnumVerbs@8   1001f2f0     ole32:ole32.dll
 0002:000002f4       __imp__CLSIDFromProgID@8   1001f2f4     ole32:ole32.dll
 0002:000002f8       __imp__CoTaskMemAlloc@4    1001f2f8     ole32:ole32.dll
 0002:000002fc       \177ole32_NULL_THUNK_DATA  1001f2fc     ole32:ole32.dll
 0002:00000300       ___guard_check_icall_fptr  1001f300     LIBCMT:guard_support.obj
 0002:00000304       ___xc_a                    1001f304     LIBCMT:initializers.obj
 0002:0000031c       ___xc_z                    1001f31c     LIBCMT:initializers.obj
 0002:00000320       ___xi_a                    1001f320     LIBCMT:initializers.obj
 0002:00000328       ___acrt_stdio_initializer  1001f328     libucrt:stdio_initializer.obj
 0002:0000032c       ___acrt_multibyte_initializer 1001f32c     libucrt:multibyte_initializer.obj
 0002:00000330       ___acrt_tran_sse2_initializer 1001f330     libucrt:sse2_initializer.obj
 0002:00000334       ___xi_z                    1001f334     LIBCMT:initializers.obj
 0002:00000338       ___xl_a                    1001f338     LIBCMT:tlssup.obj
 0002:0000033c       ___xl_z                    1001f33c     LIBCMT:tlssup.obj
 0002:00000340       ___xp_a                    1001f340     LIBCMT:initializers.obj
 0002:00000344       ___acrt_locale_terminator  1001f344     libucrt:locale_initializer.obj
 0002:00000348       ___dcrt_console_output_terminator 1001f348     libucrt:console_output_initializer.obj
 0002:0000034c       ___acrt_stdio_terminator   1001f34c     libucrt:stdio_initializer.obj
 0002:00000350       ___xp_z                    1001f350     LIBCMT:initializers.obj
 0002:00000354       ___xt_a                    1001f354     LIBCMT:initializers.obj
 0002:00000358       ___xt_z                    1001f358     LIBCMT:initializers.obj
 0002:00000360       ??_C@_13HADIAKP@?$AAS@     1001f360     OposVariant.obj
 0002:00000364       ??_C@_13LHMFKAAD@?$AAM@    1001f364     OposVariant.obj
 0002:00000368       ??_C@_13MKMNOPIJ@?$AAD@    1001f368     OposVariant.obj
 0002:0000036c       ??_C@_13OPKGLAFF@?$AAB@    1001f36c     OposVariant.obj
 0002:00000370       ??_C@_17LLMMEOJD@?$AAV?$AAa?$AAl@ 1001f370     OposVariant.obj
 0002:00000378       ??_C@_1BI@JFAIJMHL@?$AAF?$AAo?$AAr?$AAc?$AAe?$AAR?$AAe?$AAm?$AAo?$AAv?$AAe@ 1001f378     OposVariant.obj
 0002:00000390       ??_C@_1BC@GCKHIPE@?$AAN?$AAo?$AAR?$AAe?$AAm?$AAo?$AAv?$AAe@ 1001f390     OposVariant.obj
 0002:000003a4       ??_C@_1O@JDLOHAN@?$AAD?$AAe?$AAl?$AAe?$AAt?$AAe@ 1001f3a4     OposVariant.obj
 0002:000003b4       ??_C@_11LOCGONAA@@         1001f3b4     OposVariant.obj
 0002:000003b8       __GUID_b196b284_bab4_101a_b69c_00aa00341d07 1001f3b8     PINPad.obj
 0002:000003c8       __GUID_00000113_0000_0000_c000_000000000046 1001f3c8     PINPad.obj
 0002:000003d8       __GUID_1c2056cc_5ef4_101b_8bc8_00aa003e3b29 1001f3d8     PINPad.obj
 0002:000003e8       __GUID_00000112_0000_0000_c000_000000000046 1001f3e8     PINPad.obj
 0002:000003f8       __GUID_3af24292_0c96_11ce_a0cf_00aa00600ab8 1001f3f8     PINPad.obj
 0002:00000408       __GUID_00000127_0000_0000_c000_000000000046 1001f408     PINPad.obj
 0002:00000418       __GUID_0000010d_0000_0000_c000_000000000046 1001f418     PINPad.obj
 0002:00000428       ??_7?$CComObjectCached@VCComClassFactory@ATL@@@ATL@@6B@ 1001f428     PINPad.obj
 0002:00000440       ??_C@_1M@PPPPCDEP@?$AAA?$AAP?$AAP?$AAI?$AAD@ 1001f440     PINPad.obj
 0002:0000044c       ??_7?$CComContainedObject@VCOPOSPINPad@@@ATL@@6B?$IDispatchImpl@UIOPOSPINPad@@$1?IID_IOPOSPINPad@@3U_GUID@@B$1?LIBID_OposPINPad_CCO@@3U3@B$00$0A@VCComTypeInfoHolder@ATL@@@1@@ 1001f44c     PINPad.obj
 0002:000005d0       ??_7?$CComContainedObject@VCOPOSPINPad@@@ATL@@6BCComControlBase@1@@ 1001f5d0     PINPad.obj
 0002:000005e4       ??_7?$CComContainedObject@VCOPOSPINPad@@@ATL@@6B?$CWindowImpl@VCOPOSPINPad@@VCWindow@ATL@@V?$CWinTraits@$0FGAAAAAA@$0A@@3@@1@@ 1001f5e4     PINPad.obj
 0002:000005f4       ??_7?$CComContainedObject@VCOPOSPINPad@@@ATL@@6B?$IPersistStreamInitImpl@VCOPOSPINPad@@@1@@ 1001f5f4     PINPad.obj
 0002:00000618       ??_7?$CComContainedObject@VCOPOSPINPad@@@ATL@@6B?$IOleControlImpl@VCOPOSPINPad@@@1@@ 1001f618     PINPad.obj
 0002:00000634       ??_7?$CComContainedObject@VCOPOSPINPad@@@ATL@@6B?$IOleObjectImpl@VCOPOSPINPad@@@1@@ 1001f634     PINPad.obj
 0002:00000694       ??_7?$CComContainedObject@VCOPOSPINPad@@@ATL@@6B?$IOleInPlaceActiveObjectImpl@VCOPOSPINPad@@@1@@ 1001f694     PINPad.obj
 0002:000006bc       ??_7?$CComContainedObject@VCOPOSPINPad@@@ATL@@6B?$IViewObjectExImpl@VCOPOSPINPad@@@1@@ 1001f6bc     PINPad.obj
 0002:000006f8       ??_7?$CComContainedObject@VCOPOSPINPad@@@ATL@@6B?$IOleInPlaceObjectWindowlessImpl@VCOPOSPINPad@@@1@@ 1001f6f8     PINPad.obj
 0002:00000724       ??_7?$CComContainedObject@VCOPOSPINPad@@@ATL@@6B?$IConnectionPointContainerImpl@VCOPOSPINPad@@@1@@ 1001f724     PINPad.obj
 0002:00000738       ??_7?$CComContainedObject@VCOPOSPINPad@@@ATL@@6B?$IPersistStorageImpl@VCOPOSPINPad@@@1@@ 1001f738     PINPad.obj
 0002:00000760       ??_7?$CComContainedObject@VCOPOSPINPad@@@ATL@@6B?$ISpecifyPropertyPagesImpl@VCOPOSPINPad@@@1@@ 1001f760     PINPad.obj
 0002:00000770       ??_7?$CComContainedObject@VCOPOSPINPad@@@ATL@@6B?$IQuickActivateImpl@VCOPOSPINPad@@@1@@ 1001f770     PINPad.obj
 0002:00000788       ??_7?$CComContainedObject@VCOPOSPINPad@@@ATL@@6B?$IDataObjectImpl@VCOPOSPINPad@@@1@@ 1001f788     PINPad.obj
 0002:000007b8       ??_7?$CComContainedObject@VCOPOSPINPad@@@ATL@@6B?$IProvideClassInfo2Impl@$1?CLSID_OPOSPINPad@@3U_GUID@@B$1?DIID__IOPOSPINPadEvents@@3U2@B$1?LIBID_OposPINPad_CCO@@3U2@B$00$0A@VCComTypeInfoHolder@ATL@@@1@@ 1001f7b8     PINPad.obj
 0002:000007cc       ??_7?$CComContainedObject@VCOPOSPINPad@@@ATL@@6B?$IObjectSafetyImpl@VCOPOSPINPad@@$02@1@@ 1001f7cc     PINPad.obj
 0002:000007e4       ??_7?$CComContainedObject@VCOPOSPINPad@@@ATL@@6B?$IPropertyNotifySinkCP@VCOPOSPINPad@@VCComDynamicUnkArray@ATL@@@1@@ 1001f7e4     PINPad.obj
 0002:00000804       ??_7?$CComContainedObject@VCOPOSPINPad@@@ATL@@6B?$CProxy_IOPOSEvents@VCOPOSPINPad@@@@@ 1001f804     PINPad.obj
 0002:00000824       ??_7?$CComAggObject@VCOPOSPINPad@@@ATL@@6B@ 1001f824     PINPad.obj
 0002:00000834       ??_7?$CComObject@VCOPOSPINPad@@@ATL@@6B?$IDispatchImpl@UIOPOSPINPad@@$1?IID_IOPOSPINPad@@3U_GUID@@B$1?LIBID_OposPINPad_CCO@@3U3@B$00$0A@VCComTypeInfoHolder@ATL@@@1@@ 1001f834     PINPad.obj
 0002:000009b8       ??_7?$CComObject@VCOPOSPINPad@@@ATL@@6BCComControlBase@1@@ 1001f9b8     PINPad.obj
 0002:000009cc       ??_7?$CComObject@VCOPOSPINPad@@@ATL@@6B?$CWindowImpl@VCOPOSPINPad@@VCWindow@ATL@@V?$CWinTraits@$0FGAAAAAA@$0A@@3@@1@@ 1001f9cc     PINPad.obj
 0002:000009dc       ??_7?$CComObject@VCOPOSPINPad@@@ATL@@6B?$IPersistStreamInitImpl@VCOPOSPINPad@@@1@@ 1001f9dc     PINPad.obj
 0002:00000a00       ??_7?$CComObject@VCOPOSPINPad@@@ATL@@6B?$IOleControlImpl@VCOPOSPINPad@@@1@@ 1001fa00     PINPad.obj
 0002:00000a1c       ??_7?$CComObject@VCOPOSPINPad@@@ATL@@6B?$IOleObjectImpl@VCOPOSPINPad@@@1@@ 1001fa1c     PINPad.obj
 0002:00000a7c       ??_7?$CComObject@VCOPOSPINPad@@@ATL@@6B?$IOleInPlaceActiveObjectImpl@VCOPOSPINPad@@@1@@ 1001fa7c     PINPad.obj
 0002:00000aa4       ??_7?$CComObject@VCOPOSPINPad@@@ATL@@6B?$IViewObjectExImpl@VCOPOSPINPad@@@1@@ 1001faa4     PINPad.obj
 0002:00000ae0       ??_7?$CComObject@VCOPOSPINPad@@@ATL@@6B?$IOleInPlaceObjectWindowlessImpl@VCOPOSPINPad@@@1@@ 1001fae0     PINPad.obj
 0002:00000b0c       ??_7?$CComObject@VCOPOSPINPad@@@ATL@@6B?$IConnectionPointContainerImpl@VCOPOSPINPad@@@1@@ 1001fb0c     PINPad.obj
 0002:00000b20       ??_7?$CComObject@VCOPOSPINPad@@@ATL@@6B?$IPersistStorageImpl@VCOPOSPINPad@@@1@@ 1001fb20     PINPad.obj
 0002:00000b48       ??_7?$CComObject@VCOPOSPINPad@@@ATL@@6B?$ISpecifyPropertyPagesImpl@VCOPOSPINPad@@@1@@ 1001fb48     PINPad.obj
 0002:00000b58       ??_7?$CComObject@VCOPOSPINPad@@@ATL@@6B?$IQuickActivateImpl@VCOPOSPINPad@@@1@@ 1001fb58     PINPad.obj
 0002:00000b70       ??_7?$CComObject@VCOPOSPINPad@@@ATL@@6B?$IDataObjectImpl@VCOPOSPINPad@@@1@@ 1001fb70     PINPad.obj
 0002:00000ba0       ??_7?$CComObject@VCOPOSPINPad@@@ATL@@6B?$IProvideClassInfo2Impl@$1?CLSID_OPOSPINPad@@3U_GUID@@B$1?DIID__IOPOSPINPadEvents@@3U2@B$1?LIBID_OposPINPad_CCO@@3U2@B$00$0A@VCComTypeInfoHolder@ATL@@@1@@ 1001fba0     PINPad.obj
 0002:00000bb4       ??_7?$CComObject@VCOPOSPINPad@@@ATL@@6B?$IObjectSafetyImpl@VCOPOSPINPad@@$02@1@@ 1001fbb4     PINPad.obj
 0002:00000bcc       ??_7?$CComObject@VCOPOSPINPad@@@ATL@@6B?$IPropertyNotifySinkCP@VCOPOSPINPad@@VCComDynamicUnkArray@ATL@@@1@@ 1001fbcc     PINPad.obj
 0002:00000bec       ??_7?$CComObject@VCOPOSPINPad@@@ATL@@6B?$CProxy_IOPOSEvents@VCOPOSPINPad@@@@@ 1001fbec     PINPad.obj
 0002:00000c0c       ??_C@_1O@GBFKGNEO@?$AAA?$AAT?$AAL?$AA?3?$AA?$CF?$AAp@ 1001fc0c     PINPad.obj
 0002:00000c1c       ??_C@_1BA@PICGEGJB@?$AAD?$AAI?$AAS?$AAP?$AAL?$AAA?$AAY@ 1001fc1c     PINPad.obj
 0002:00000c2c       __GUID_9bfbbc02_eff1_101a_84ed_00aa00341d07 1001fc2c     PINPad.obj
 0002:00000c3c       ??_7CComClassFactory@ATL@@6B@ 1001fc3c     PINPad.obj
 0002:00000c54       ?_entries@?1??_GetEntries@CComClassFactory@ATL@@SGPBU_ATL_INTMAP_ENTRY@3@XZ@4QBU43@B 1001fc54     PINPad.obj
 0002:00000c6c       __GUID_00000001_0000_0000_c000_000000000046 1001fc6c     PINPad.obj
 0002:00000c7c       ?_entries@?1??_GetEntries@?$CComEnum@UIEnumConnectionPoints@@$1?_GUID_b196b285_bab4_101a_b69c_00aa00341d07@@3U__s_GUID@@BPAUIConnectionPoint@@V?$_CopyInterface@UIConnectionPoint@@@ATL@@VCComSingleThreadModel@6@@ATL@@SGPBU_ATL_INTMAP_ENTRY@3@XZ@4QBU43@B 1001fc7c     PINPad.obj
 0002:00000c94       __GUID_00020412_0000_0000_c000_000000000046 1001fc94     PINPad.obj
 0002:00000ca4       __GUID_00020401_0000_0000_c000_000000000046 1001fca4     PINPad.obj
 0002:00000cb4       __GUID_55980ba0_35aa_11cf_b671_00aa004cd6d8 1001fcb4     PINPad.obj
 0002:00000cc4       __GUID_b196b28b_bab4_101a_b69c_00aa00341d07 1001fcc4     PINPad.obj
 0002:00000cd4       ??_7?$CComObject@V?$CComEnum@UIEnumConnections@@$1?_GUID_b196b287_bab4_101a_b69c_00aa00341d07@@3U__s_GUID@@BUtagCONNECTDATA@@V?$_Copy@UtagCONNECTDATA@@@ATL@@VCComSingleThreadModel@6@@ATL@@@ATL@@6B@ 1001fcd4     PINPad.obj
 0002:00000cf4       ??_C@_1BK@BIGILECK@?$AAA?$AAd?$AAv?$AAa?$AAp?$AAi?$AA3?$AA2?$AA?4?$AAd?$AAl?$AAl@ 1001fcf4     PINPad.obj
 0002:00000d10       ??_C@_0BI@MNCFCPFK@RegCreateKeyTransactedW@ 1001fd10     PINPad.obj
 0002:00000d28       __GUID_b196b287_bab4_101a_b69c_00aa00341d07 1001fd28     PINPad.obj
 0002:00000d38       __GUID_b196b285_bab4_101a_b69c_00aa00341d07 1001fd38     PINPad.obj
 0002:00000d48       ?_entries@?1??_GetEntries@?$CComEnum@UIEnumConnections@@$1?_GUID_b196b287_bab4_101a_b69c_00aa00341d07@@3U__s_GUID@@BUtagCONNECTDATA@@V?$_Copy@UtagCONNECTDATA@@@ATL@@VCComSingleThreadModel@6@@ATL@@SGPBU_ATL_INTMAP_ENTRY@3@XZ@4QBU43@B 1001fd48     PINPad.obj
 0002:00000d60       __GUID_a6bc3ac0_dbaa_11ce_9de3_00aa004bb851 1001fd60     PINPad.obj
 0002:00000d70       __GUID_0000010c_0000_0000_c000_000000000046 1001fd70     PINPad.obj
 0002:00000d80       __GUID_00000146_0000_0000_c000_000000000046 1001fd80     PINPad.obj
 0002:00000d90       ??_7CComModule@ATL@@6B@    1001fd90     PINPad.obj
 0002:00000db8       _IID_IOPOSPINPad_1_5       1001fdb8     PINPad.obj
 0002:00000dc8       _IID_IOPOSPINPad_1_8       1001fdc8     PINPad.obj
 0002:00000dd8       _IID_IOPOSPINPad_1_9       1001fdd8     PINPad.obj
 0002:00000de8       _IID_IOPOSPINPad_1_10      1001fde8     PINPad.obj
 0002:00000df8       _IID_IOPOSPINPad           1001fdf8     PINPad.obj
 0002:00000e08       _LIBID_OposPINPad_CCO      1001fe08     PINPad.obj
 0002:00000e18       _DIID__IOPOSPINPadEvents   1001fe18     PINPad.obj
 0002:00000e28       _CLSID_OPOSPINPad          1001fe28     PINPad.obj
 0002:00000e38       __GUID_00000000_0000_0000_c000_000000000046 1001fe38     PINPad.obj
 0002:00000e48       __GUID_00020400_0000_0000_c000_000000000046 1001fe48     PINPad.obj
 0002:00000e58       __GUID_00000114_0000_0000_c000_000000000046 1001fe58     PINPad.obj
 0002:00000e68       ??_C@_1M@KANJNLFF@?$AAC?$AAL?$AAS?$AAI?$AAD@ 1001fe68     PINPad.obj
 0002:00000e74       ??_C@_1M@EJNEECMJ@?$AAA?$AAp?$AAp?$AAI?$AAD@ 1001fe74     PINPad.obj
 0002:00000e80       ?rgszNeverDelete@CRegParser@ATL@@1QBQB_WB 1001fe80     PINPad.obj
 0002:00000eb0       ??_7CRegObject@ATL@@6B@    1001feb0     PINPad.obj
 0002:00000ec8       ??_C@_1CK@OEKPKBNA@?$AAC?$AAo?$AAm?$AAp?$AAo?$AAn?$AAe?$AAn?$AAt?$AA?5?$AAC?$AAa?$AAt?$AAe?$AAg@ 1001fec8     PINPad.obj
 0002:00000ef4       ??_C@_1BC@NKMMNMGL@?$AAF?$AAi?$AAl?$AAe?$AAT?$AAy?$AAp?$AAe@ 1001fef4     PINPad.obj
 0002:00000f08       ??_C@_1BE@EKPAFMCP@?$AAI?$AAn?$AAt?$AAe?$AAr?$AAf?$AAa?$AAc?$AAe@ 1001ff08     PINPad.obj
 0002:00000f1c       ??_C@_1BC@MAICEHGI@?$AAH?$AAa?$AAr?$AAd?$AAw?$AAa?$AAr?$AAe@ 1001ff1c     PINPad.obj
 0002:00000f30       ??_C@_19HLLLM@?$AAM?$AAi?$AAm?$AAe@ 1001ff30     PINPad.obj
 0002:00000f3c       ??_C@_17OMAOINJK@?$AAS?$AAA?$AAM@ 1001ff3c     PINPad.obj
 0002:00000f44       ??_C@_1BC@IBECJAAI@?$AAS?$AAE?$AAC?$AAU?$AAR?$AAI?$AAT?$AAY@ 1001ff44     PINPad.obj
 0002:00000f58       ??_C@_1O@GBFINDKL@?$AAS?$AAY?$AAS?$AAT?$AAE?$AAM@ 1001ff58     PINPad.obj
 0002:00000f68       ??_C@_1BC@EAHCMADO@?$AAS?$AAo?$AAf?$AAt?$AAw?$AAa?$AAr?$AAe@ 1001ff68     PINPad.obj
 0002:00000f7c       ??_C@_1BA@JIHHIEDE@?$AAT?$AAy?$AAp?$AAe?$AAL?$AAi?$AAb@ 1001ff7c     PINPad.obj
 0002:00000f90       ?map@?1??HKeyFromString@CRegParser@ATL@@KAPAUHKEY__@@PA_W@Z@4QBUkeymap@?1??123@KAPAU4@0@Z@B 1001ff90     PINPad.obj
 0002:00001000       ??_C@_19NCHLBIN@?$AAH?$AAK?$AAC?$AAR@ 10020000     PINPad.obj
 0002:0000100c       ??_C@_19JAPAIJDE@?$AAH?$AAK?$AAC?$AAU@ 1002000c     PINPad.obj
 0002:00001018       ??_C@_19PEALEEJB@?$AAH?$AAK?$AAL?$AAM@ 10020018     PINPad.obj
 0002:00001024       ??_C@_17PJOJPMPB@?$AAH?$AAK?$AAU@ 10020024     PINPad.obj
 0002:0000102c       ??_C@_19PNBHMJPL@?$AAH?$AAK?$AAP?$AAD@ 1002002c     PINPad.obj
 0002:00001038       ??_C@_19GFFAIJHG@?$AAH?$AAK?$AAD?$AAD@ 10020038     PINPad.obj
 0002:00001044       ??_C@_19OFICIBHH@?$AAH?$AAK?$AAC?$AAC@ 10020044     PINPad.obj
 0002:00001050       ??_C@_1CE@PACHPJFI@?$AAH?$AAK?$AAE?$AAY?$AA_?$AAC?$AAL?$AAA?$AAS?$AAS?$AAE?$AAS?$AA_?$AAR?$AAO@ 10020050     PINPad.obj
 0002:00001074       ??_C@_1CE@HLHNCBPM@?$AAH?$AAK?$AAE?$AAY?$AA_?$AAC?$AAU?$AAR?$AAR?$AAE?$AAN?$AAT?$AA_?$AAU?$AAS@ 10020074     PINPad.obj
 0002:00001098       ??_C@_1CG@GFBEANJL@?$AAH?$AAK?$AAE?$AAY?$AA_?$AAL?$AAO?$AAC?$AAA?$AAL?$AA_?$AAM?$AAA?$AAC?$AAH@ 10020098     PINPad.obj
 0002:000010c0       ??_C@_1BG@BGODANIO@?$AAH?$AAK?$AAE?$AAY?$AA_?$AAU?$AAS?$AAE?$AAR?$AAS@ 100200c0     PINPad.obj
 0002:000010d8       ??_C@_1CM@KHNNAOIC@?$AAH?$AAK?$AAE?$AAY?$AA_?$AAP?$AAE?$AAR?$AAF?$AAO?$AAR?$AAM?$AAA?$AAN?$AAC@ 100200d8     PINPad.obj
 0002:00001104       ??_C@_1BM@HAGMMHIA@?$AAH?$AAK?$AAE?$AAY?$AA_?$AAD?$AAY?$AAN?$AA_?$AAD?$AAA?$AAT?$AAA@ 10020104     PINPad.obj
 0002:00001120       ??_C@_1CI@BBJOACGG@?$AAH?$AAK?$AAE?$AAY?$AA_?$AAC?$AAU?$AAR?$AAR?$AAE?$AAN?$AAT?$AA_?$AAC?$AAO@ 10020120     PINPad.obj
 0002:00001148       ?_entries@?1??_GetEntries@COPOSPINPad@@SGPBU_ATL_INTMAP_ENTRY@ATL@@XZ@4QBU34@B 10020148     PINPad.obj
 0002:0000128c       __GUID_00000109_0000_0000_c000_000000000046 1002028c     PINPad.obj
 0002:0000129c       __GUID_7fd52380_4e07_101b_ae2d_08002b2ec713 1002029c     PINPad.obj
 0002:000012ac       __GUID_cf51ed10_62fe_11cf_bf86_00a0c9034836 100202ac     PINPad.obj
 0002:000012bc       __GUID_0000010a_0000_0000_c000_000000000046 100202bc     PINPad.obj
 0002:000012cc       __GUID_b196b283_bab4_101a_b69c_00aa00341d07 100202cc     PINPad.obj
 0002:000012dc       __GUID_cb5bdc81_93c1_11cf_8f20_00805f2cd064 100202dc     PINPad.obj
 0002:000012f0       ?pPropMap@?1??GetPropertyMap@COPOSPINPad@@SAPBUATL_PROPMAP_ENTRY@ATL@@XZ@4QBU34@B 100202f0     PINPad.obj
 0002:0000135c       ??_C@_17DGDADEHL@?$AA_?$AAc?$AAx@ 1002035c     PINPad.obj
 0002:00001364       ??_C@_17IOIMFDBO@?$AA_?$AAc?$AAy@ 10020364     PINPad.obj
 0002:0000136c       __GUID_922eada0_3424_11cf_b670_00aa004cd6d8 1002036c     PINPad.obj
 0002:0000137c       __GUID_9c2cad80_3424_11cf_b670_00aa004cd6d8 1002037c     PINPad.obj
 0002:0000138c       __GUID_00000119_0000_0000_c000_000000000046 1002038c     PINPad.obj
 0002:0000139c       __GUID_b196b289_bab4_101a_b69c_00aa00341d07 1002039c     PINPad.obj
 0002:000013b0       ??_C@_1EA@NHKLICFA@?$AAH?$AAK?$AAC?$AAU?$AA?$AN?$AA?6?$AA?$HL?$AA?7?$AAS?$AAo?$AAf?$AAt?$AAw?$AAa?$AAr@ 100203b0     PINPad.obj
 0002:000013f0       ??_C@_1BE@LJOLIMEM@?$AA?$AN?$AA?6?$AA?7?$AA?$HN?$AA?$AN?$AA?6?$AA?$HN?$AA?$AN?$AA?6@ 100203f0     PINPad.obj
 0002:00001404       __GUID_b196b286_bab4_101a_b69c_00aa00341d07 10020404     PINPad.obj
 0002:00001414       __GUID_00000117_0000_0000_c000_000000000046 10020414     PINPad.obj
 0002:00001424       ??_C@_1CE@PGFMOFKI@?$AAS?$AAt?$AAa?$AAt?$AAu?$AAs?$AAU?$AAp?$AAd?$AAa?$AAt?$AAe?$AAE?$AAv?$AAe@ 10020424     PINPad.obj
 0002:00001448       ??_C@_1BG@LODEBHDD@?$AAE?$AAr?$AAr?$AAo?$AAr?$AAE?$AAv?$AAe?$AAn?$AAt@ 10020448     PINPad.obj
 0002:00001460       ??_C@_1BM@CBGEBBBJ@?$AAD?$AAi?$AAr?$AAe?$AAc?$AAt?$AAI?$AAO?$AAE?$AAv?$AAe?$AAn?$AAt@ 10020460     PINPad.obj
 0002:0000147c       ??_C@_1BE@IEBMACEM@?$AAD?$AAa?$AAt?$AAa?$AAE?$AAv?$AAe?$AAn?$AAt@ 1002047c     PINPad.obj
 0002:00001490       ??_C@_1O@MNLDABAF@?$AAM?$AAo?$AAd?$AAu?$AAl?$AAe@ 10020490     PINPad.obj
 0002:000014a0       ??_C@_1BG@JBACFMF@?$AAM?$AAo?$AAd?$AAu?$AAl?$AAe?$AA_?$AAR?$AAa?$AAw@ 100204a0     PINPad.obj
 0002:000014b8       ??_C@_1BC@KAILKFFG@?$AAR?$AAE?$AAG?$AAI?$AAS?$AAT?$AAR?$AAY@ 100204b8     PINPad.obj
 0002:000014cc       ??_C@_1BC@ENICKDH@?$AAC?$AAo?$AAn?$AAt?$AAe?$AAn?$AAt?$AAs@ 100204cc     PINPad.obj
 0002:000014e0       ??_7?$CComObject@V?$CComEnum@UIEnumConnectionPoints@@$1?_GUID_b196b285_bab4_101a_b69c_00aa00341d07@@3U__s_GUID@@BPAUIConnectionPoint@@V?$_CopyInterface@UIConnectionPoint@@@ATL@@VCComSingleThreadModel@6@@ATL@@@ATL@@6B@ 100204e0     PINPad.obj
 0002:00001500       __GUID_0000010e_0000_0000_c000_000000000046 10020500     PINPad.obj
 0002:00001510       __GUID_b196b288_bab4_101a_b69c_00aa00341d07 10020510     PINPad.obj
 0002:00001520       ??_C@_0BG@EKFFMJIO@RegOpenKeyTransactedW@ 10020520     PINPad.obj
 0002:00001538       ??_C@_0BI@HAKLOOGP@RegDeleteKeyTransactedW@ 10020538     PINPad.obj
 0002:00001550       ??_C@_0BA@LILAPHGE@RegDeleteKeyExW@ 10020550     PINPad.obj
 0002:00001560       ??_C@_19ILOCMLCJ@?$AA?4?$AAt?$AAl?$AAb@ 10020560     PINPad.obj
 0002:0000156c       __GUID_0002e012_0000_0000_c000_000000000046 1002056c     PINPad.obj
 0002:0000157c       ??_C@_1O@FHBGLCIO@?$AAC?$AAL?$AAS?$AAI?$AAD?$AA?2@ 1002057c     PINPad.obj
 0002:0000158c       ??_C@_1CK@IFBKBFAA@?$AA?2?$AAR?$AAe?$AAq?$AAu?$AAi?$AAr?$AAe?$AAd?$AA?5?$AAC?$AAa?$AAt?$AAe?$AAg@ 1002058c     PINPad.obj
 0002:000015b8       ??_C@_1DA@BIHALFED@?$AA?2?$AAI?$AAm?$AAp?$AAl?$AAe?$AAm?$AAe?$AAn?$AAt?$AAe?$AAd?$AA?5?$AAC?$AAa@ 100205b8     PINPad.obj
 0002:000015e8       ??_C@_1BK@EDKOLFBJ@?$AAO?$AAL?$AAE?$AAA?$AAU?$AAT?$AA3?$AA2?$AA?4?$AAD?$AAL?$AAL@ 100205e8     PINPad.obj
 0002:00001604       ??_C@_0BJ@CNLFOMHB@UnRegisterTypeLibForUser@ 10020604     PINPad.obj
 0002:00001620       ??_C@_0BH@LBOMMKPJ@RegisterTypeLibForUser@ 10020620     PINPad.obj
 0002:00001638       ??_C@_0P@MMNMMLGK@COFreezeEvents@ 10020638     PINPadImpl.obj
 0002:00001648       ??_C@_0BC@OGCGGIMP@GetPropertyNumber@ 10020648     PINPadImpl.obj
 0002:0000165c       ??_C@_0BC@MDCNODNB@SetPropertyNumber@ 1002065c     PINPadImpl.obj
 0002:00001670       ??_C@_0BC@CFCCMIMD@GetPropertyString@ 10020670     PINPadImpl.obj
 0002:00001684       ??_C@_0BC@CJEDNN@SetPropertyString@ 10020684     PINPadImpl.obj
 0002:00001698       ??_C@_0M@LNPKKKDA@OpenService@ 10020698     PINPadImpl.obj
 0002:000016a4       ??_C@_0M@PCMCHHMH@CheckHealth@ 100206a4     PINPadImpl.obj
 0002:000016b0       ??_C@_0M@JGMIDNEK@ClaimDevice@ 100206b0     PINPadImpl.obj
 0002:000016bc       ??_C@_0L@BNEIFEJC@ClearInput@ 100206bc     PINPadImpl.obj
 0002:000016c8       ??_C@_0N@DDFIIBMP@CloseService@ 100206c8     PINPadImpl.obj
 0002:000016d8       ??_C@_08EEIHICPC@DirectIO@ 100206d8     PINPadImpl.obj
 0002:000016e4       ??_C@_0O@BCPMENMJ@ReleaseDevice@ 100206e4     PINPadImpl.obj
 0002:000016f4       ??_C@_09EGHCFIHC@GetAmount@ 100206f4     PINPadImpl.obj
 0002:00001700       ??_C@_09GIDHHJOA@SetAmount@ 10020700     PINPadImpl.obj
 0002:0000170c       ??_C@_0BE@JOBLMMKO@BeginEFTTransaction@ 1002070c     PINPadImpl.obj
 0002:00001720       ??_C@_0L@EGABKKNE@ComputeMAC@ 10020720     PINPadImpl.obj
 0002:0000172c       ??_C@_0P@IIOMFEON@EnablePINEntry@ 1002072c     PINPadImpl.obj
 0002:0000173c       ??_C@_0BC@NAFGEMKG@EndEFTTransaction@ 1002073c     PINPadImpl.obj
 0002:00001750       ??_C@_09PHBOFDOC@UpdateKey@ 10020750     PINPadImpl.obj
 0002:0000175c       ??_C@_09KHMNCPJO@VerifyMAC@ 1002075c     PINPadImpl.obj
 0002:00001768       ??_C@_0BA@GFABKEEE@ResetStatistics@ 10020768     PINPadImpl.obj
 0002:00001778       ??_C@_0BD@DPALHJGC@RetrieveStatistics@ 10020778     PINPadImpl.obj
 0002:0000178c       ??_C@_0BB@KOHIKNFC@UpdateStatistics@ 1002078c     PINPadImpl.obj
 0002:000017a0       ??_C@_0BH@PBKBNMGB@CompareFirmwareVersion@ 100207a0     PINPadImpl.obj
 0002:000017b8       ??_C@_0P@FBPDPIPA@UpdateFirmware@ 100207b8     PINPadImpl.obj
 0002:000017c8       ??_C@_0BF@CMAPCJGM@ClearInputProperties@ 100207c8     PINPadImpl.obj
 0002:000017e0       ??_7?$CProxy_IOPOSEvents@VCOPOSPINPad@@@@6B@ 100207e0     PINPadImpl.obj
 0002:00001800       ??_C@_1BA@IFHENID@?$AA?$FL?$AAE?$AAr?$AAr?$AAo?$AAr?$AA?$FN@ 10020800     PINPadImpl.obj
 0002:00001810       ??_C@_0CJ@KLINAKEC@SOFTWARE?2OLEforRetail?2ServiceOP@ 10020810     PINPadImpl.obj
 0002:0000183c       ??_C@_1M@IAIJHCCH@?$AAC?$AAl?$AAo?$AAs?$AAe@ 1002083c     PINPadImpl.obj
 0002:00001848       ??_C@_1M@PCPKGJAH@?$AAC?$AAl?$AAa?$AAi?$AAm@ 10020848     PINPadImpl.obj
 0002:00001854       ??_C@_1BA@NDFKIOCP@?$AAR?$AAe?$AAl?$AAe?$AAa?$AAs?$AAe@ 10020854     PINPadImpl.obj
 0002:00001864       ??_C@_06NFLHEKM@PINPad@    10020864     PINPadImpl.obj
 0002:0000186c       ??_C@_1BM@IJMNMBPK@?$AAG?$AAe?$AAt?$AAO?$AAp?$AAe?$AAn?$AAR?$AAe?$AAs?$AAu?$AAl?$AAt@ 1002086c     PINPadImpl.obj
 0002:00001888       _IID_IPropertyNotifySink   10020888     uuid:ocidl_i.obj
 0002:00001898       _IID_IDispatch             10020898     uuid:oaidl_i.obj
 0002:000018a8       _GUID_NULL                 100208a8     uuid:cguid_i.obj
 0002:000018b8       _CLSID_StdGlobalInterfaceTable 100208b8     uuid:cguid_i.obj
 0002:000018c8       _CLSID_StdComponentCategoriesMgr 100208c8     uuid:ieguids.obj
 0002:000018d8       _IID_IUnknown              100208d8     uuid:unknwn_i.obj
 0002:000018e8       ??_C@_1EC@JIJBPKFM@?$AAa?$AAp?$AAi?$AA?9?$AAm?$AAs?$AA?9?$AAw?$AAi?$AAn?$AA?9?$AAc?$AAo?$AAr?$AAe@ 100208e8     LIBCMT:thread_safe_statics.obj
 0002:0000192c       ??_C@_1BK@MGMFAEKH@?$AAk?$AAe?$AAr?$AAn?$AAe?$AAl?$AA3?$AA2?$AA?4?$AAd?$AAl?$AAl@ 1002092c     LIBCMT:thread_safe_statics.obj
 0002:00001948       ??_C@_0BM@HLJJNPAH@InitializeConditionVariable@ 10020948     LIBCMT:thread_safe_statics.obj
 0002:00001964       ??_C@_0BJ@JEBJOJFJ@SleepConditionVariableCS@ 10020964     LIBCMT:thread_safe_statics.obj
 0002:00001980       ??_C@_0BJ@PGPPEPCC@WakeAllConditionVariable@ 10020980     LIBCMT:thread_safe_statics.obj
 0002:00001999       ?nothrow@std@@3Unothrow_t@1@B 10020999     LIBCMT:std_nothrow.obj
 0002:000019a4       __pDefaultRawDllMain       100209a4     LIBCMT:dll_dllmain.obj
 0002:000019a4       __pRawDllMain              100209a4     LIBCMT:dll_dllmain.obj
 0002:000019ac       ??_7exception@std@@6B@     100209ac     LIBCMT:throw_bad_alloc.obj
 0002:000019b4       ??_C@_0BC@EOODALEL@Unknown?5exception@ 100209b4     LIBCMT:throw_bad_alloc.obj
 0002:000019cc       ??_7bad_alloc@std@@6B@     100209cc     LIBCMT:throw_bad_alloc.obj
 0002:000019d4       ??_C@_0P@GHFPNOJB@bad?5allocation@ 100209d4     LIBCMT:throw_bad_alloc.obj
 0002:000019e8       ??_7bad_array_new_length@std@@6B@ 100209e8     LIBCMT:throw_bad_alloc.obj
 0002:000019f0       ??_C@_0BF@KINCDENJ@bad?5array?5new?5length@ 100209f0     LIBCMT:throw_bad_alloc.obj
 0002:00001a0c       ??_7type_info@@6B@         10020a0c     LIBCMT:std_type_info_static.obj
 0002:00001a10       _GUID_ATLVer110            10020a10     atls:atlbase.obj
 0002:00001a20       ??_C@_1IC@ONKHOIDK@?$AAE?$AAR?$AAR?$AAO?$AAR?$AA?5?$AA?3?$AA?5?$AAU?$AAn?$AAa?$AAb?$AAl?$AAe?$AA?5@ 10020a20     atls:atlbase.obj
 0002:00001aa4       ??_C@_0N@FJEPLCIH@atlthunk?4dll@ 10020aa4     atls:atlthunk.obj
 0002:00001ab4       ??_C@_0BG@GAKFHCBM@AtlThunk_AllocateData@ 10020ab4     atls:atlthunk.obj
 0002:00001acc       ??_C@_0BC@JKONFIAH@AtlThunk_InitData@ 10020acc     atls:atlthunk.obj
 0002:00001ae0       ??_C@_0BE@IAOEELAK@AtlThunk_DataToCode@ 10020ae0     atls:atlthunk.obj
 0002:00001af4       ??_C@_0BC@GBGKAIPI@AtlThunk_FreeData@ 10020af4     atls:atlthunk.obj
 0002:00001b34       ??_C@_1DM@KHCHBNEB@?$AAa?$AAp?$AAi?$AA?9?$AAm?$AAs?$AA?9?$AAw?$AAi?$AAn?$AA?9?$AAc?$AAo?$AAr?$AAe@ 10020b34     libvcruntime:winapi_downlevel.obj
 0002:00001b70       ??_C@_1DK@LPPGFMPP@?$AAa?$AAp?$AAi?$AA?9?$AAm?$AAs?$AA?9?$AAw?$AAi?$AAn?$AA?9?$AAc?$AAo?$AAr?$AAe@ 10020b70     libvcruntime:winapi_downlevel.obj
 0002:00001bac       ??_C@_1BC@GDMECMAK@?$AAk?$AAe?$AAr?$AAn?$AAe?$AAl?$AA3?$AA2@ 10020bac     libvcruntime:winapi_downlevel.obj
 0002:00001bc0       ??_C@_1BA@PFFKHIOG@?$AAa?$AAp?$AAi?$AA?9?$AAm?$AAs?$AA?9@ 10020bc0     libvcruntime:winapi_downlevel.obj
 0002:00001bd0       ??_C@_1BA@IAIFMGEF@?$AAe?$AAx?$AAt?$AA?9?$AAm?$AAs?$AA?9@ 10020bd0     libvcruntime:winapi_downlevel.obj
 0002:00001be8       ??_C@_08KNHFBNJ@FlsAlloc@  10020be8     libvcruntime:winapi_downlevel.obj
 0002:00001bfc       ??_C@_07PEJMOBNF@FlsFree@  10020bfc     libvcruntime:winapi_downlevel.obj
 0002:00001c0c       ??_C@_0M@GDNOONDI@FlsGetValue@ 10020c0c     libvcruntime:winapi_downlevel.obj
 0002:00001c20       ??_C@_0M@JCPCPOEF@FlsSetValue@ 10020c20     libvcruntime:winapi_downlevel.obj
 0002:00001c34       ??_C@_0BM@HCFOFFN@InitializeCriticalSectionEx@ 10020c34     libvcruntime:winapi_downlevel.obj
 0002:00001c54       ??_7bad_exception@std@@6B@ 10020c54     libvcruntime:frame.obj
 0002:00001c5c       ??_C@_0O@DPKOEFFH@bad?5exception@ 10020c5c     libvcruntime:frame.obj
 0002:00001e0c       ??_C@_08EHJDFFNH@__based?$CI@ 10020e0c     libvcruntime:undname.obj
 0002:00001e18       ??_C@_07KOLFKCDI@__cdecl@  10020e18     libvcruntime:undname.obj
 0002:00001e20       ??_C@_08GHMPAG@__pascal@   10020e20     libvcruntime:undname.obj
 0002:00001e2c       ??_C@_09IFJBGAPI@__stdcall@ 10020e2c     libvcruntime:undname.obj
 0002:00001e38       ??_C@_0L@NPHFGOKO@__thiscall@ 10020e38     libvcruntime:undname.obj
 0002:00001e44       ??_C@_0L@JMKHOMEK@__fastcall@ 10020e44     libvcruntime:undname.obj
 0002:00001e50       ??_C@_0N@BCKKPABJ@__vectorcall@ 10020e50     libvcruntime:undname.obj
 0002:00001e60       ??_C@_09HIJEGCPM@__clrcall@ 10020e60     libvcruntime:undname.obj
 0002:00001e6c       ??_C@_06GHPCKEAG@__eabi@   10020e6c     libvcruntime:undname.obj
 0002:00001e74       ??_C@_09IOPIDJLG@__swift_1@ 10020e74     libvcruntime:undname.obj
 0002:00001e80       ??_C@_09KFNFGKHF@__swift_2@ 10020e80     libvcruntime:undname.obj
 0002:00001e8c       ??_C@_07JOMMBBKO@__ptr64@  10020e8c     libvcruntime:undname.obj
 0002:00001e94       ??_C@_0L@PILCLIHE@__restrict@ 10020e94     libvcruntime:undname.obj
 0002:00001ea0       ??_C@_0M@GFIIJFMG@__unaligned@ 10020ea0     libvcruntime:undname.obj
 0002:00001eac       ??_C@_09DHDLOLLB@restrict?$CI@ 10020eac     libvcruntime:undname.obj
 0002:00001eb6       ??_C@_00CNPNBAHC@@         10020eb6     libvcruntime:undname.obj
 0002:00001eb8       ??_C@_04NIHEBCM@?5new@     10020eb8     libvcruntime:undname.obj
 0002:00001ec0       ??_C@_07FPCDHGMM@?5delete@ 10020ec0     libvcruntime:undname.obj
 0002:00001ec8       ??_C@_01NEMOKFLO@?$DN@     10020ec8     libvcruntime:undname.obj
 0002:00001ecc       ??_C@_02GPIOPFAK@?$DO?$DO@ 10020ecc     libvcruntime:undname.obj
 0002:00001ed0       ??_C@_02FODMEDOG@?$DM?$DM@ 10020ed0     libvcruntime:undname.obj
 0002:00001ed4       ??_C@_01DCLJPIOD@?$CB@     10020ed4     libvcruntime:undname.obj
 0002:00001ed8       ??_C@_02EGOFBIJA@?$DN?$DN@ 10020ed8     libvcruntime:undname.obj
 0002:00001edc       ??_C@_02FDNJECIE@?$CB?$DN@ 10020edc     libvcruntime:undname.obj
 0002:00001ee0       ??_C@_02GPECMEKF@?$FL?$FN@ 10020ee0     libvcruntime:undname.obj
 0002:00001ee4       ??_C@_08LHJFAFGD@operator@ 10020ee4     libvcruntime:undname.obj
 0002:00001ef0       ??_C@_02HBOOOICD@?9?$DO@   10020ef0     libvcruntime:undname.obj
 0002:00001ef4       ??_C@_01NBENCBCI@?$CK@     10020ef4     libvcruntime:undname.obj
 0002:00001ef8       ??_C@_02ECNGHCIF@?$CL?$CL@ 10020ef8     libvcruntime:undname.obj
 0002:00001efc       ??_C@_02BAABKJLB@?9?9@     10020efc     libvcruntime:undname.obj
 0002:00001f00       ??_C@_01JOAMLHOP@?9@       10020f00     libvcruntime:undname.obj
 0002:00001f04       ??_C@_01MIFGBAGJ@?$CL@     10020f04     libvcruntime:undname.obj
 0002:00001f08       ??_C@_01HNPIGOCE@?$CG@     10020f08     libvcruntime:undname.obj
 0002:00001f0c       ??_C@_03MNHNFDLC@?9?$DO?$CK@ 10020f0c     libvcruntime:undname.obj
 0002:00001f10       ??_C@_01KMDKNFGN@?1@       10020f10     libvcruntime:undname.obj
 0002:00001f14       ??_C@_01FGNFDNOH@?$CF@     10020f14     libvcruntime:undname.obj
 0002:00001f18       ??_C@_01MNNFJEPP@?$DM@     10020f18     libvcruntime:undname.obj
 0002:00001f1c       ??_C@_02EHCHHCKH@?$DM?$DN@ 10020f1c     libvcruntime:undname.obj
 0002:00001f20       ??_C@_01PPODPGHN@?$DO@     10020f20     libvcruntime:undname.obj
 0002:00001f24       ??_C@_02EEKDKGMJ@?$DO?$DN@ 10020f24     libvcruntime:undname.obj
 0002:00001f28       ??_C@_01IHBHIGKO@?0@       10020f28     libvcruntime:undname.obj
 0002:00001f2c       ??_C@_02HCKGKOFO@?$CI?$CJ@ 10020f2c     libvcruntime:undname.obj
 0002:00001f30       ??_C@_01PJKLJHI@?$HO@      10020f30     libvcruntime:undname.obj
 0002:00001f34       ??_C@_01JKBOJNNK@?$FO@     10020f34     libvcruntime:undname.obj
 0002:00001f38       ??_C@_01DNKMNLPK@?$HM@     10020f38     libvcruntime:undname.obj
 0002:00001f3c       ??_C@_02PPKAJPJL@?$CG?$CG@ 10020f3c     libvcruntime:undname.obj
 0002:00001f40       ??_C@_02NONPIBCD@?$HM?$HM@ 10020f40     libvcruntime:undname.obj
 0002:00001f44       ??_C@_02FPIMKNGF@?$CK?$DN@ 10020f44     libvcruntime:undname.obj
 0002:00001f48       ??_C@_02FOEOMHFC@?$CL?$DN@ 10020f48     libvcruntime:undname.obj
 0002:00001f4c       ??_C@_02FKMDLLOA@?9?$DN@   10020f4c     libvcruntime:undname.obj
 0002:00001f50       ??_C@_02FJEHGPIO@?1?$DN@   10020f50     libvcruntime:undname.obj
 0002:00001f54       ??_C@_02FENAOKFI@?$CF?$DN@ 10020f54     libvcruntime:undname.obj
 0002:00001f58       ??_C@_03IKFCCPFF@?$DO?$DO?$DN@ 10020f58     libvcruntime:undname.obj
 0002:00001f5c       ??_C@_03CDNPDDLA@?$DM?$DM?$DN@ 10020f5c     libvcruntime:undname.obj
 0002:00001f60       ??_C@_02FGJGFEAB@?$CG?$DN@ 10020f60     libvcruntime:undname.obj
 0002:00001f64       ??_C@_02DHLNPPGH@?$HM?$DN@ 10020f64     libvcruntime:undname.obj
 0002:00001f68       ??_C@_02MHEGNOJ@?$FO?$DN@  10020f68     libvcruntime:undname.obj
 0002:00001f6c       ??_C@_09IFPLHPGF@?$GAvftable?8@ 10020f6c     libvcruntime:undname.obj
 0002:00001f78       ??_C@_09BLBHBJP@?$GAvbtable?8@ 10020f78     libvcruntime:undname.obj
 0002:00001f84       ??_C@_07FEEIOKP@?$GAvcall?8@ 10020f84     libvcruntime:undname.obj
 0002:00001f8c       ??_C@_08LLFFHHDJ@?$GAtypeof?8@ 10020f8c     libvcruntime:undname.obj
 0002:00001f98       ??_C@_0BF@KDPPACIK@?$GAlocal?5static?5guard?8@ 10020f98     libvcruntime:undname.obj
 0002:00001fb0       ??_C@_08OBABFOLI@?$GAstring?8@ 10020fb0     libvcruntime:undname.obj
 0002:00001fbc       ??_C@_0BD@JDLKDPAB@?$GAvbase?5destructor?8@ 10020fbc     libvcruntime:undname.obj
 0002:00001fd0       ??_C@_0BN@DEGPLNFK@?$GAvector?5deleting?5destructor?8@ 10020fd0     libvcruntime:undname.obj
 0002:00001ff0       ??_C@_0BO@OBMKPJIG@?$GAdefault?5constructor?5closure?8@ 10020ff0     libvcruntime:undname.obj
 0002:00002010       ??_C@_0BN@IMDCHIKM@?$GAscalar?5deleting?5destructor?8@ 10021010     libvcruntime:undname.obj
 0002:00002030       ??_C@_0BO@PFGOCPJJ@?$GAvector?5constructor?5iterator?8@ 10021030     libvcruntime:undname.obj
 0002:00002050       ??_C@_0BN@LFPFMEDL@?$GAvector?5destructor?5iterator?8@ 10021050     libvcruntime:undname.obj
 0002:00002070       ??_C@_0CE@IKBNEHA@?$GAvector?5vbase?5constructor?5itera@ 10021070     libvcruntime:undname.obj
 0002:00002094       ??_C@_0BL@NILFHHPC@?$GAvirtual?5displacement?5map?8@ 10021094     libvcruntime:undname.obj
 0002:000020b0       ??_C@_0CB@JONCMFFK@?$GAeh?5vector?5constructor?5iterator@ 100210b0     libvcruntime:undname.obj
 0002:000020d4       ??_C@_0CA@GCEOPDGL@?$GAeh?5vector?5destructor?5iterator?8@ 100210d4     libvcruntime:undname.obj
 0002:000020f4       ??_C@_0CH@OOJPLCPH@?$GAeh?5vector?5vbase?5constructor?5it@ 100210f4     libvcruntime:undname.obj
 0002:0000211c       ??_C@_0BL@LLKPOHJI@?$GAcopy?5constructor?5closure?8@ 1002111c     libvcruntime:undname.obj
 0002:00002138       ??_C@_0BA@KBCDOMBN@?$GAudt?5returning?8@ 10021138     libvcruntime:undname.obj
 0002:00002148       ??_C@_03KLGMFNMG@?$GAEH@   10021148     libvcruntime:undname.obj
 0002:0000214c       ??_C@_05KHLCHHI@?$GARTTI@  1002114c     libvcruntime:undname.obj
 0002:00002154       ??_C@_0BA@KKLDJDLB@?$GAlocal?5vftable?8@ 10021154     libvcruntime:undname.obj
 0002:00002164       ??_C@_0CE@IIHCMGGL@?$GAlocal?5vftable?5constructor?5clos@ 10021164     libvcruntime:undname.obj
 0002:00002188       ??_C@_06FHBGPFGH@?5new?$FL?$FN@ 10021188     libvcruntime:undname.obj
 0002:00002190       ??_C@_09LBNFPBCA@?5delete?$FL?$FN@ 10021190     libvcruntime:undname.obj
 0002:0000219c       ??_C@_0P@HJKNJFNN@?$GAomni?5callsig?8@ 1002119c     libvcruntime:undname.obj
 0002:000021ac       ??_C@_0BL@CNOONJFP@?$GAplacement?5delete?5closure?8@ 100211ac     libvcruntime:undname.obj
 0002:000021c8       ??_C@_0BN@CKNJLHMB@?$GAplacement?5delete?$FL?$FN?5closure?8@ 100211c8     libvcruntime:undname.obj
 0002:000021e8       ??_C@_0CG@CFDHKGGD@?$GAmanaged?5vector?5constructor?5ite@ 100211e8     libvcruntime:undname.obj
 0002:00002210       ??_C@_0CF@IMGKMJNO@?$GAmanaged?5vector?5destructor?5iter@ 10021210     libvcruntime:undname.obj
 0002:00002238       ??_C@_0CG@HLDDJMAG@?$GAeh?5vector?5copy?5constructor?5ite@ 10021238     libvcruntime:undname.obj
 0002:00002260       ??_C@_0CM@FCBBDIGB@?$GAeh?5vector?5vbase?5copy?5construct@ 10021260     libvcruntime:undname.obj
 0002:0000228c       ??_C@_0BL@CLIPGLGB@?$GAdynamic?5initializer?5for?5?8@ 1002128c     libvcruntime:undname.obj
 0002:000022a8       ??_C@_0CB@PDBIFEP@?$GAdynamic?5atexit?5destructor?5for?5@ 100212a8     libvcruntime:undname.obj
 0002:000022cc       ??_C@_0CD@CGAJBKEJ@?$GAvector?5copy?5constructor?5iterat@ 100212cc     libvcruntime:undname.obj
 0002:000022f0       ??_C@_0CJ@GJELGAMM@?$GAvector?5vbase?5copy?5constructor?5@ 100212f0     libvcruntime:undname.obj
 0002:0000231c       ??_C@_0CL@FGIJHLCE@?$GAmanaged?5vector?5copy?5constructo@ 1002131c     libvcruntime:undname.obj
 0002:00002348       ??_C@_0BM@PMGGMLDN@?$GAlocal?5static?5thread?5guard?8@ 10021348     libvcruntime:undname.obj
 0002:00002364       ??_C@_0N@BDNMDMOL@operator?5?$CC?$CC?5@ 10021364     libvcruntime:undname.obj
 0002:00002374       ??_C@_0BC@GGEBGALA@operator?5co_await@ 10021374     libvcruntime:undname.obj
 0002:00002388       ??_C@_0BC@DAFEJGAK@?5Type?5Descriptor?8@ 10021388     libvcruntime:undname.obj
 0002:0000239c       ??_C@_0BM@LDKODKLH@?5Base?5Class?5Descriptor?5at?5?$CI@ 1002139c     libvcruntime:undname.obj
 0002:000023b8       ??_C@_0BD@LGICGFMM@?5Base?5Class?5Array?8@ 100213b8     libvcruntime:undname.obj
 0002:000023cc       ??_C@_0BN@MECKDCOJ@?5Class?5Hierarchy?5Descriptor?8@ 100213cc     libvcruntime:undname.obj
 0002:000023ec       ??_C@_0BK@CFCOFLF@?5Complete?5Object?5Locator?8@ 100213ec     libvcruntime:undname.obj
 0002:00002408       __pDestructExceptionObject 10021408     libvcruntime:ehhelpers.obj
 0002:00002578       _format_validation_lookup_table 10021578     libucrt:output.obj
 0002:000025d4       ??_C@_06OJHGLDPL@?$CInull?$CJ?$AA@ 100215d4     libucrt:output.obj
 0002:000025dc       ??_C@_1O@CEDCILHN@?$AA?$CI?$AAn?$AAu?$AAl?$AAl?$AA?$CJ?$AA?$AA@ 100215dc     libucrt:output.obj
 0002:000025f0       ___acrt_exception_action_table 100215f0     libucrt:exception_filter.obj
 0002:00002680       ___acrt_signal_action_table_count 10021680     libucrt:exception_filter.obj
 0002:00002684       ___acrt_signal_action_first_fpe_index 10021684     libucrt:exception_filter.obj
 0002:00002688       ___acrt_signal_action_fpe_count 10021688     libucrt:exception_filter.obj
 0002:0000268c       ??_C@_1BI@BGOHAHKC@?$AAm?$AAs?$AAc?$AAo?$AAr?$AAe?$AAe?$AA?4?$AAd?$AAl?$AAl?$AA?$AA@ 1002168c     libucrt:exit.obj
 0002:000026a4       ??_C@_0P@MIGLKIOC@CorExitProcess?$AA@ 100216a4     libucrt:exit.obj
 0002:00002780       ??_C@_1EG@CNNIPFIM@?$AAa?$AAp?$AAi?$AA?9?$AAm?$AAs?$AA?9?$AAw?$AAi?$AAn?$AA?9?$AAa?$AAp?$AAp?$AAm?$AAo?$AAd?$AAe?$AAl?$AA?9?$AAr?$AAu?$AAn?$AAt?$AAi?$AAm?$AAe?$AA?9?$AAl?$AA1?$AA?9?$AA1@ 10021780     libucrt:winapi_thunks.obj
 0002:000027c8       ??_C@_1EA@JGEFHKEI@?$AAa?$AAp?$AAi?$AA?9?$AAm?$AAs?$AA?9?$AAw?$AAi?$AAn?$AA?9?$AAc?$AAo?$AAr?$AAe?$AA?9?$AAd?$AAa?$AAt?$AAe?$AAt?$AAi?$AAm?$AAe?$AA?9?$AAl?$AA1?$AA?9?$AA1?$AA?9?$AA1?$AA?$AA@ 100217c8     libucrt:winapi_thunks.obj
 0002:00002808       ??_C@_1DM@KHCHBNEB@?$AAa?$AAp?$AAi?$AA?9?$AAm?$AAs?$AA?9?$AAw?$AAi?$AAn?$AA?9?$AAc?$AAo?$AAr?$AAe?$AA?9?$AAf?$AAi?$AAb?$AAe?$AAr?$AAs?$AA?9?$AAl?$AA1?$AA?9?$AA1?$AA?9?$AA1?$AA?$AA@ 10021808     libucrt:winapi_thunks.obj
 0002:00002844       ??_C@_1DI@GCIAAENM@?$AAa?$AAp?$AAi?$AA?9?$AAm?$AAs?$AA?9?$AAw?$AAi?$AAn?$AA?9?$AAc?$AAo?$AAr?$AAe?$AA?9?$AAf?$AAi?$AAl?$AAe?$AA?9?$AAl?$AA2?$AA?9?$AA1?$AA?9?$AA1?$AA?$AA@ 10021844     libucrt:winapi_thunks.obj
 0002:00002880       ??_C@_1EI@MPIAOHOC@?$AAa?$AAp?$AAi?$AA?9?$AAm?$AAs?$AA?9?$AAw?$AAi?$AAn?$AA?9?$AAc?$AAo?$AAr?$AAe?$AA?9?$AAl?$AAo?$AAc?$AAa?$AAl?$AAi?$AAz?$AAa?$AAt?$AAi?$AAo?$AAn?$AA?9?$AAl?$AA1?$AA?9@ 10021880     libucrt:winapi_thunks.obj
 0002:000028c8       ??_C@_1FK@FPHCKFIE@?$AAa?$AAp?$AAi?$AA?9?$AAm?$AAs?$AA?9?$AAw?$AAi?$AAn?$AA?9?$AAc?$AAo?$AAr?$AAe?$AA?9?$AAl?$AAo?$AAc?$AAa?$AAl?$AAi?$AAz?$AAa?$AAt?$AAi?$AAo?$AAn?$AA?9?$AAo?$AAb?$AAs@ 100218c8     libucrt:winapi_thunks.obj
 0002:00002928       ??_C@_1EM@DILCGIIO@?$AAa?$AAp?$AAi?$AA?9?$AAm?$AAs?$AA?9?$AAw?$AAi?$AAn?$AA?9?$AAc?$AAo?$AAr?$AAe?$AA?9?$AAp?$AAr?$AAo?$AAc?$AAe?$AAs?$AAs?$AAt?$AAh?$AAr?$AAe?$AAa?$AAd?$AAs?$AA?9?$AAl@ 10021928     libucrt:winapi_thunks.obj
 0002:00002974       ??_C@_1DM@LNCGDDPN@?$AAa?$AAp?$AAi?$AA?9?$AAm?$AAs?$AA?9?$AAw?$AAi?$AAn?$AA?9?$AAc?$AAo?$AAr?$AAe?$AA?9?$AAs?$AAt?$AAr?$AAi?$AAn?$AAg?$AA?9?$AAl?$AA1?$AA?9?$AA1?$AA?9?$AA0?$AA?$AA@ 10021974     libucrt:winapi_thunks.obj
 0002:000029b0       ??_C@_1DK@LPPGFMPP@?$AAa?$AAp?$AAi?$AA?9?$AAm?$AAs?$AA?9?$AAw?$AAi?$AAn?$AA?9?$AAc?$AAo?$AAr?$AAe?$AA?9?$AAs?$AAy?$AAn?$AAc?$AAh?$AA?9?$AAl?$AA1?$AA?9?$AA2?$AA?9?$AA0?$AA?$AA@ 100219b0     libucrt:winapi_thunks.obj
 0002:000029ec       ??_C@_1DO@FPAPJEMD@?$AAa?$AAp?$AAi?$AA?9?$AAm?$AAs?$AA?9?$AAw?$AAi?$AAn?$AA?9?$AAc?$AAo?$AAr?$AAe?$AA?9?$AAs?$AAy?$AAs?$AAi?$AAn?$AAf?$AAo?$AA?9?$AAl?$AA1?$AA?9?$AA2?$AA?9?$AA1?$AA?$AA@ 100219ec     libucrt:winapi_thunks.obj
 0002:00002a2c       ??_C@_1DK@NDHNAHIO@?$AAa?$AAp?$AAi?$AA?9?$AAm?$AAs?$AA?9?$AAw?$AAi?$AAn?$AA?9?$AAc?$AAo?$AAr?$AAe?$AA?9?$AAw?$AAi?$AAn?$AAr?$AAt?$AA?9?$AAl?$AA1?$AA?9?$AA1?$AA?9?$AA0?$AA?$AA@ 10021a2c     libucrt:winapi_thunks.obj
 0002:00002a68       ??_C@_1DM@KGHDGBCM@?$AAa?$AAp?$AAi?$AA?9?$AAm?$AAs?$AA?9?$AAw?$AAi?$AAn?$AA?9?$AAc?$AAo?$AAr?$AAe?$AA?9?$AAx?$AAs?$AAt?$AAa?$AAt?$AAe?$AA?9?$AAl?$AA2?$AA?9?$AA1?$AA?9?$AA0?$AA?$AA@ 10021a68     libucrt:winapi_thunks.obj
 0002:00002aa8       ??_C@_1EO@IJIOEFOH@?$AAa?$AAp?$AAi?$AA?9?$AAm?$AAs?$AA?9?$AAw?$AAi?$AAn?$AA?9?$AAr?$AAt?$AAc?$AAo?$AAr?$AAe?$AA?9?$AAn?$AAt?$AAu?$AAs?$AAe?$AAr?$AA?9?$AAw?$AAi?$AAn?$AAd?$AAo?$AAw?$AA?9@ 10021aa8     libucrt:winapi_thunks.obj
 0002:00002af8       ??_C@_1FG@HHGEKANL@?$AAa?$AAp?$AAi?$AA?9?$AAm?$AAs?$AA?9?$AAw?$AAi?$AAn?$AA?9?$AAs?$AAe?$AAc?$AAu?$AAr?$AAi?$AAt?$AAy?$AA?9?$AAs?$AAy?$AAs?$AAt?$AAe?$AAm?$AAf?$AAu?$AAn?$AAc?$AAt?$AAi@ 10021af8     libucrt:winapi_thunks.obj
 0002:00002b50       ??_C@_1FG@NCKKOLKO@?$AAe?$AAx?$AAt?$AA?9?$AAm?$AAs?$AA?9?$AAw?$AAi?$AAn?$AA?9?$AAk?$AAe?$AAr?$AAn?$AAe?$AAl?$AA3?$AA2?$AA?9?$AAp?$AAa?$AAc?$AAk?$AAa?$AAg?$AAe?$AA?9?$AAc?$AAu?$AAr?$AAr@ 10021b50     libucrt:winapi_thunks.obj
 0002:00002ba8       ??_C@_1EG@DBIOJECG@?$AAe?$AAx?$AAt?$AA?9?$AAm?$AAs?$AA?9?$AAw?$AAi?$AAn?$AA?9?$AAn?$AAt?$AAu?$AAs?$AAe?$AAr?$AA?9?$AAd?$AAi?$AAa?$AAl?$AAo?$AAg?$AAb?$AAo?$AAx?$AA?9?$AAl?$AA1?$AA?9?$AA1@ 10021ba8     libucrt:winapi_thunks.obj
 0002:00002bf0       ??_C@_1EO@FIHMJCLF@?$AAe?$AAx?$AAt?$AA?9?$AAm?$AAs?$AA?9?$AAw?$AAi?$AAn?$AA?9?$AAn?$AAt?$AAu?$AAs?$AAe?$AAr?$AA?9?$AAw?$AAi?$AAn?$AAd?$AAo?$AAw?$AAs?$AAt?$AAa?$AAt?$AAi?$AAo?$AAn?$AA?9@ 10021bf0     libucrt:winapi_thunks.obj
 0002:00002c40       ??_C@_1BC@DNHGCMLG@?$AAa?$AAd?$AAv?$AAa?$AAp?$AAi?$AA3?$AA2?$AA?$AA@ 10021c40     libucrt:winapi_thunks.obj
 0002:00002c54       ??_C@_1BC@GDMECMAK@?$AAk?$AAe?$AAr?$AAn?$AAe?$AAl?$AA3?$AA2?$AA?$AA@ 10021c54     libucrt:winapi_thunks.obj
 0002:00002c68       ??_C@_1O@BCCLBEOE@?$AAu?$AAs?$AAe?$AAr?$AA3?$AA2?$AA?$AA@ 10021c68     libucrt:winapi_thunks.obj
 0002:00002c80       ??_C@_08KNHFBNJ@FlsAlloc?$AA@ 10021c80     libucrt:winapi_thunks.obj
 0002:00002c94       ??_C@_07PEJMOBNF@FlsFree?$AA@ 10021c94     libucrt:winapi_thunks.obj
 0002:00002ca4       ??_C@_0M@GDNOONDI@FlsGetValue?$AA@ 10021ca4     libucrt:winapi_thunks.obj
 0002:00002cb8       ??_C@_0M@JCPCPOEF@FlsSetValue?$AA@ 10021cb8     libucrt:winapi_thunks.obj
 0002:00002ccc       ??_C@_0BE@JOGNEJCI@GetCurrentPackageId?$AA@ 10021ccc     libucrt:winapi_thunks.obj
 0002:00002ce8       ??_C@_0BM@HCFOFFN@InitializeCriticalSectionEx?$AA@ 10021ce8     libucrt:winapi_thunks.obj
 0002:00002d0c       ??_C@_0O@KKBNKAPF@LCMapStringEx?$AA@ 10021d0c     libucrt:winapi_thunks.obj
 0002:00002d24       ??_C@_0BB@HBDEELFH@LocaleNameToLCID?$AA@ 10021d24     libucrt:winapi_thunks.obj
 0002:00002d40       ??_C@_0BI@BKLFFAPO@SetThreadStackGuarantee?$AA@ 10021d40     libucrt:winapi_thunks.obj
 0002:00002d58       ??_C@_03OEIAHPBN@INF?$AA@  10021d58     libucrt:cvt.obj
 0002:00002d5c       ??_C@_03OJHLLCGB@inf?$AA@  10021d5c     libucrt:cvt.obj
 0002:00002d60       ??_C@_03LKNCIKJB@NAN?$AA@  10021d60     libucrt:cvt.obj
 0002:00002d64       ??_C@_03LHCJEHON@nan?$AA@  10021d64     libucrt:cvt.obj
 0002:00002d68       ??_C@_09OFJJIMPC@NAN?$CISNAN?$CJ?$AA@ 10021d68     libucrt:cvt.obj
 0002:00002d74       ??_C@_09IPFBKMDL@nan?$CIsnan?$CJ?$AA@ 10021d74     libucrt:cvt.obj
 0002:00002d80       ??_C@_08IKHNHAJ@NAN?$CIIND?$CJ?$AA@ 10021d80     libucrt:cvt.obj
 0002:00002d8c       ??_C@_08OFCDMILK@nan?$CIind?$CJ?$AA@ 10021d8c     libucrt:cvt.obj
 0002:00002d98       ??_C@_05KLBDPFGC@e?$CL000?$AA@ 10021d98     libucrt:cvt.obj
 0002:00002da0       ??_C@_03KOEHGMDN@Sun?$AA@  10021da0     libucrt:nlsdata.obj
 0002:00002da4       ??_C@_03PDAGKDH@Mon?$AA@   10021da4     libucrt:nlsdata.obj
 0002:00002da8       ??_C@_03NAGEINEP@Tue?$AA@  10021da8     libucrt:nlsdata.obj
 0002:00002dac       ??_C@_03MHOMLAJA@Wed?$AA@  10021dac     libucrt:nlsdata.obj
 0002:00002db0       ??_C@_03IOFIKPDN@Thu?$AA@  10021db0     libucrt:nlsdata.obj
 0002:00002db4       ??_C@_03IDIOELNC@Fri?$AA@  10021db4     libucrt:nlsdata.obj
 0002:00002db8       ??_C@_03FEFJNEK@Sat?$AA@   10021db8     libucrt:nlsdata.obj
 0002:00002dbc       ??_C@_06OOPIFAJ@Sunday?$AA@ 10021dbc     libucrt:nlsdata.obj
 0002:00002dc4       ??_C@_06JLEDEDGH@Monday?$AA@ 10021dc4     libucrt:nlsdata.obj
 0002:00002dcc       ??_C@_07BAAGCFCM@Tuesday?$AA@ 10021dcc     libucrt:nlsdata.obj
 0002:00002dd4       ??_C@_09DLIGFAKA@Wednesday?$AA@ 10021dd4     libucrt:nlsdata.obj
 0002:00002de0       ??_C@_08HACCIKIA@Thursday?$AA@ 10021de0     libucrt:nlsdata.obj
 0002:00002dec       ??_C@_06JECMNKMI@Friday?$AA@ 10021dec     libucrt:nlsdata.obj
 0002:00002df4       ??_C@_08INBOOONO@Saturday?$AA@ 10021df4     libucrt:nlsdata.obj
 0002:00002e00       ??_C@_03JIHJHPIE@Jan?$AA@  10021e00     libucrt:nlsdata.obj
 0002:00002e04       ??_C@_03HJBDCHOM@Feb?$AA@  10021e04     libucrt:nlsdata.obj
 0002:00002e08       ??_C@_03ODNJBKGA@Mar?$AA@  10021e08     libucrt:nlsdata.obj
 0002:00002e0c       ??_C@_03LEOLGMJP@Apr?$AA@  10021e0c     libucrt:nlsdata.obj
 0002:00002e10       ??_C@_03CNMDKL@May?$AA@    10021e10     libucrt:nlsdata.obj
 0002:00002e14       ??_C@_03IDFGHECI@Jun?$AA@  10021e14     libucrt:nlsdata.obj
 0002:00002e18       ??_C@_03LBGABGKK@Jul?$AA@  10021e18     libucrt:nlsdata.obj
 0002:00002e1c       ??_C@_03IFJFEIGA@Aug?$AA@  10021e1c     libucrt:nlsdata.obj
 0002:00002e20       ??_C@_03GGCAPAJC@Sep?$AA@  10021e20     libucrt:nlsdata.obj
 0002:00002e24       ??_C@_03BMAOKBAD@Oct?$AA@  10021e24     libucrt:nlsdata.obj
 0002:00002e28       ??_C@_03JPJOFNIA@Nov?$AA@  10021e28     libucrt:nlsdata.obj
 0002:00002e2c       ??_C@_03MKABNOCG@Dec?$AA@  10021e2c     libucrt:nlsdata.obj
 0002:00002e30       ??_C@_07CGJPFGJA@January?$AA@ 10021e30     libucrt:nlsdata.obj
 0002:00002e38       ??_C@_08GNJGEPFN@February?$AA@ 10021e38     libucrt:nlsdata.obj
 0002:00002e44       ??_C@_05HPCKOFNC@March?$AA@ 10021e44     libucrt:nlsdata.obj
 0002:00002e4c       ??_C@_05DMJDNLEJ@April?$AA@ 10021e4c     libucrt:nlsdata.obj
 0002:00002e54       ??_C@_04CNLMGBGM@June?$AA@ 10021e54     libucrt:nlsdata.obj
 0002:00002e5c       ??_C@_04MIEPOIFP@July?$AA@ 10021e5c     libucrt:nlsdata.obj
 0002:00002e64       ??_C@_06LBBHFDDG@August?$AA@ 10021e64     libucrt:nlsdata.obj
 0002:00002e6c       ??_C@_09BHHEALKD@September?$AA@ 10021e6c     libucrt:nlsdata.obj
 0002:00002e78       ??_C@_07JJNFCEND@October?$AA@ 10021e78     libucrt:nlsdata.obj
 0002:00002e80       ??_C@_08HCHEGEOA@November?$AA@ 10021e80     libucrt:nlsdata.obj
 0002:00002e8c       ??_C@_08EDHMEBNP@December?$AA@ 10021e8c     libucrt:nlsdata.obj
 0002:00002e98       ??_C@_02DEDBPAFC@AM?$AA@   10021e98     libucrt:nlsdata.obj
 0002:00002e9c       ??_C@_02CJNFDJBF@PM?$AA@   10021e9c     libucrt:nlsdata.obj
 0002:00002ea0       ??_C@_08BPBNCDIB@MM?1dd?1yy?$AA@ 10021ea0     libucrt:nlsdata.obj
 0002:00002eac       ??_C@_0BE@CKGJFCPC@dddd?0?5MMMM?5dd?0?5yyyy?$AA@ 10021eac     libucrt:nlsdata.obj
 0002:00002ec0       ??_C@_08JCCMCCIL@HH?3mm?3ss?$AA@ 10021ec0     libucrt:nlsdata.obj
 0002:00002ecc       ??_C@_17MBGCMIPB@?$AAS?$AAu?$AAn?$AA?$AA@ 10021ecc     libucrt:nlsdata.obj
 0002:00002ed4       ??_C@_17KBOMKBF@?$AAM?$AAo?$AAn?$AA?$AA@ 10021ed4     libucrt:nlsdata.obj
 0002:00002edc       ??_C@_17BMKGEGOJ@?$AAT?$AAu?$AAe?$AA?$AA@ 10021edc     libucrt:nlsdata.obj
 0002:00002ee4       ??_C@_17CJEDCEPE@?$AAW?$AAe?$AAd?$AA?$AA@ 10021ee4     libucrt:nlsdata.obj
 0002:00002eec       ??_C@_17PDPHAADD@?$AAT?$AAh?$AAu?$AA?$AA@ 10021eec     libucrt:nlsdata.obj
 0002:00002ef4       ??_C@_17HFOLPPLP@?$AAF?$AAr?$AAi?$AA?$AA@ 10021ef4     libucrt:nlsdata.obj
 0002:00002efc       ??_C@_17GGIBDPIH@?$AAS?$AAa?$AAt?$AA?$AA@ 10021efc     libucrt:nlsdata.obj
 0002:00002f04       ??_C@_1O@IHNHDHPB@?$AAS?$AAu?$AAn?$AAd?$AAa?$AAy?$AA?$AA@ 10021f04     libucrt:nlsdata.obj
 0002:00002f14       ??_C@_1O@MMNBFLIA@?$AAM?$AAo?$AAn?$AAd?$AAa?$AAy?$AA?$AA@ 10021f14     libucrt:nlsdata.obj
 0002:00002f24       ??_C@_1BA@ENFBFFEK@?$AAT?$AAu?$AAe?$AAs?$AAd?$AAa?$AAy?$AA?$AA@ 10021f24     libucrt:nlsdata.obj
 0002:00002f34       ??_C@_1BE@EBOGMDOH@?$AAW?$AAe?$AAd?$AAn?$AAe?$AAs?$AAd?$AAa?$AAy?$AA?$AA@ 10021f34     libucrt:nlsdata.obj
 0002:00002f48       ??_C@_1BC@HHMNLIHE@?$AAT?$AAh?$AAu?$AAr?$AAs?$AAd?$AAa?$AAy?$AA?$AA@ 10021f48     libucrt:nlsdata.obj
 0002:00002f5c       ??_C@_1O@PDICJHAG@?$AAF?$AAr?$AAi?$AAd?$AAa?$AAy?$AA?$AA@ 10021f5c     libucrt:nlsdata.obj
 0002:00002f6c       ??_C@_1BC@ENMNNPAJ@?$AAS?$AAa?$AAt?$AAu?$AAr?$AAd?$AAa?$AAy?$AA?$AA@ 10021f6c     libucrt:nlsdata.obj
 0002:00002f80       ??_C@_17DKNBKCHM@?$AAJ?$AAa?$AAn?$AA?$AA@ 10021f80     libucrt:nlsdata.obj
 0002:00002f88       ??_C@_17LMDJEKJN@?$AAF?$AAe?$AAb?$AA?$AA@ 10021f88     libucrt:nlsdata.obj
 0002:00002f90       ??_C@_17CKNLEDEC@?$AAM?$AAa?$AAr?$AA?$AA@ 10021f90     libucrt:nlsdata.obj
 0002:00002f98       ??_C@_17LFPOIHDD@?$AAA?$AAp?$AAr?$AA?$AA@ 10021f98     libucrt:nlsdata.obj
 0002:00002fa0       ??_C@_17PNNKMEED@?$AAM?$AAa?$AAy?$AA?$AA@ 10021fa0     libucrt:nlsdata.obj
 0002:00002fa8       ??_C@_17KCJGOCPB@?$AAJ?$AAu?$AAn?$AA?$AA@ 10021fa8     libucrt:nlsdata.obj
 0002:00002fb0       ??_C@_17IJPCKHK@?$AAJ?$AAu?$AAl?$AA?$AA@ 10021fb0     libucrt:nlsdata.obj
 0002:00002fb8       ??_C@_17ICPELBCN@?$AAA?$AAu?$AAg?$AA?$AA@ 10021fb8     libucrt:nlsdata.obj
 0002:00002fc0       ??_C@_17HCHCOKMG@?$AAS?$AAe?$AAp?$AA?$AA@ 10021fc0     libucrt:nlsdata.obj
 0002:00002fc8       ??_C@_17FNLKOI@?$AAO?$AAc?$AAt?$AA?$AA@ 10021fc8     libucrt:nlsdata.obj
 0002:00002fd0       ??_C@_17BBDMLCIG@?$AAN?$AAo?$AAv?$AA?$AA@ 10021fd0     libucrt:nlsdata.obj
 0002:00002fd8       ??_C@_17EGKACKIF@?$AAD?$AAe?$AAc?$AA?$AA@ 10021fd8     libucrt:nlsdata.obj
 0002:00002fe0       ??_C@_1BA@EFMEIEBA@?$AAJ?$AAa?$AAn?$AAu?$AAa?$AAr?$AAy?$AA?$AA@ 10021fe0     libucrt:nlsdata.obj
 0002:00002ff0       ??_C@_1BC@JGDDFFAM@?$AAF?$AAe?$AAb?$AAr?$AAu?$AAa?$AAr?$AAy?$AA?$AA@ 10021ff0     libucrt:nlsdata.obj
 0002:00003004       ??_C@_1M@IKEENEDF@?$AAM?$AAa?$AAr?$AAc?$AAh?$AA?$AA@ 10022004     libucrt:nlsdata.obj
 0002:00003010       ??_C@_1M@GJNLMHFD@?$AAA?$AAp?$AAr?$AAi?$AAl?$AA?$AA@ 10022010     libucrt:nlsdata.obj
 0002:0000301c       ??_C@_19EPFLPGAP@?$AAJ?$AAu?$AAn?$AAe?$AA?$AA@ 1002201c     libucrt:nlsdata.obj
 0002:00003028       ??_C@_19BIFMLPCD@?$AAJ?$AAu?$AAl?$AAy?$AA?$AA@ 10022028     libucrt:nlsdata.obj
 0002:00003034       ??_C@_1O@PAHLKOAC@?$AAA?$AAu?$AAg?$AAu?$AAs?$AAt?$AA?$AA@ 10022034     libucrt:nlsdata.obj
 0002:00003044       ??_C@_1BE@DKAAMBJL@?$AAS?$AAe?$AAp?$AAt?$AAe?$AAm?$AAb?$AAe?$AAr?$AA?$AA@ 10022044     libucrt:nlsdata.obj
 0002:00003058       ??_C@_1BA@EPANDLNG@?$AAO?$AAc?$AAt?$AAo?$AAb?$AAe?$AAr?$AA?$AA@ 10022058     libucrt:nlsdata.obj
 0002:00003068       ??_C@_1BC@BGLIFPF@?$AAN?$AAo?$AAv?$AAe?$AAm?$AAb?$AAe?$AAr?$AA?$AA@ 10022068     libucrt:nlsdata.obj
 0002:0000307c       ??_C@_1BC@FEMKIFH@?$AAD?$AAe?$AAc?$AAe?$AAm?$AAb?$AAe?$AAr?$AA?$AA@ 1002207c     libucrt:nlsdata.obj
 0002:00003090       ??_C@_15ODEHAHHF@?$AAA?$AAM?$AA?$AA@ 10022090     libucrt:nlsdata.obj
 0002:00003098       ??_C@_15CLMNNGEL@?$AAP?$AAM?$AA?$AA@ 10022098     libucrt:nlsdata.obj
 0002:000030a0       ??_C@_1BC@IEBCMHCM@?$AAM?$AAM?$AA?1?$AAd?$AAd?$AA?1?$AAy?$AAy?$AA?$AA@ 100220a0     libucrt:nlsdata.obj
 0002:000030b4       ??_C@_1CI@KNAKOEBC@?$AAd?$AAd?$AAd?$AAd?$AA?0?$AA?5?$AAM?$AAM?$AAM?$AAM?$AA?5?$AAd?$AAd?$AA?0?$AA?5?$AAy?$AAy?$AAy?$AAy?$AA?$AA@ 100220b4     libucrt:nlsdata.obj
 0002:000030dc       ??_C@_1BC@GDGBMEMK@?$AAH?$AAH?$AA?3?$AAm?$AAm?$AA?3?$AAs?$AAs?$AA?$AA@ 100220dc     libucrt:nlsdata.obj
 0002:000030f0       ??_C@_1M@BMHNFIME@?$AAe?$AAn?$AA?9?$AAU?$AAS?$AA?$AA@ 100220f0     libucrt:nlsdata.obj
 0002:00003100       ___lc_time_c               10022100     libucrt:nlsdata.obj
 0002:00003274       ??_C@_1M@HPNHIDJI@?$AAj?$AAa?$AA?9?$AAJ?$AAP?$AA?$AA@ 10022274     libucrt:mbctype.obj
 0002:00003280       ??_C@_1M@BIBDDEMK@?$AAz?$AAh?$AA?9?$AAC?$AAN?$AA?$AA@ 10022280     libucrt:mbctype.obj
 0002:0000328c       ??_C@_1M@JLOOOEGK@?$AAk?$AAo?$AA?9?$AAK?$AAR?$AA?$AA@ 1002228c     libucrt:mbctype.obj
 0002:00003298       ??_C@_1M@CLNBBOPM@?$AAz?$AAh?$AA?9?$AAT?$AAW?$AA?$AA@ 10022298     libucrt:mbctype.obj
 0002:000032a8       __wctype                   100222a8     libucrt:ctype.obj
 0002:000034b0       ___newctype                100224b0     libucrt:ctype.obj
 0002:000037b0       ___newclmap                100227b0     libucrt:ctype.obj
 0002:00003930       ___newcumap                10022930     libucrt:ctype.obj
 0002:000041d0       ??_C@_15EMKDOKLE@?$AAa?$AAr?$AA?$AA@ 100231d0     libucrt:lcidtoname_downlevel.obj
 0002:000041d8       ??_C@_15KNPADPLH@?$AAb?$AAg?$AA?$AA@ 100231d8     libucrt:lcidtoname_downlevel.obj
 0002:000041e0       ??_C@_15EDMHLDMO@?$AAc?$AAa?$AA?$AA@ 100231e0     libucrt:lcidtoname_downlevel.obj
 0002:000041e8       ??_C@_1O@BPEAJADD@?$AAz?$AAh?$AA?9?$AAC?$AAH?$AAS?$AA?$AA@ 100231e8     libucrt:lcidtoname_downlevel.obj
 0002:000041f8       ??_C@_15LJNHCMNK@?$AAc?$AAs?$AA?$AA@ 100231f8     libucrt:lcidtoname_downlevel.obj
 0002:00004200       ??_C@_15FOMCIDHG@?$AAd?$AAa?$AA?$AA@ 10023200     libucrt:lcidtoname_downlevel.obj
 0002:00004208       ??_C@_15NBKABECB@?$AAd?$AAe?$AA?$AA@ 10023208     libucrt:lcidtoname_downlevel.obj
 0002:00004210       ??_C@_15GHPEIIAO@?$AAe?$AAl?$AA?$AA@ 10023210     libucrt:lcidtoname_downlevel.obj
 0002:00004218       ??_C@_15MNPNEAIF@?$AAe?$AAn?$AA?$AA@ 10023218     libucrt:lcidtoname_downlevel.obj
 0002:00004220       ??_C@_15GPIOMPMH@?$AAe?$AAs?$AA?$AA@ 10023220     libucrt:lcidtoname_downlevel.obj
 0002:00004228       ??_C@_15NGLOAKJC@?$AAf?$AAi?$AA?$AA@ 10023228     libucrt:lcidtoname_downlevel.obj
 0002:00004230       ??_C@_15FBKGNKAM@?$AAf?$AAr?$AA?$AA@ 10023230     libucrt:lcidtoname_downlevel.obj
 0002:00004238       ??_C@_15KGGCNEFK@?$AAh?$AAe?$AA?$AA@ 10023238     libucrt:lcidtoname_downlevel.obj
 0002:00004240       ??_C@_15PGHLIDMF@?$AAh?$AAu?$AA?$AA@ 10023240     libucrt:lcidtoname_downlevel.obj
 0002:00004248       ??_C@_15BIEMAPLM@?$AAi?$AAs?$AA?$AA@ 10023248     libucrt:lcidtoname_downlevel.obj
 0002:00004250       ??_C@_15IFJLDHAF@?$AAi?$AAt?$AA?$AA@ 10023250     libucrt:lcidtoname_downlevel.obj
 0002:00004258       ??_C@_15GEMIOCAG@?$AAj?$AAa?$AA?$AA@ 10023258     libucrt:lcidtoname_downlevel.obj
 0002:00004260       ??_C@_15EPELEGJA@?$AAk?$AAo?$AA?$AA@ 10023260     libucrt:lcidtoname_downlevel.obj
 0002:00004268       ??_C@_15NDDHIMN@?$AAn?$AAl?$AA?$AA@ 10023268     libucrt:lcidtoname_downlevel.obj
 0002:00004270       ??_C@_15BPIGNHCD@?$AAn?$AAo?$AA?$AA@ 10023270     libucrt:lcidtoname_downlevel.obj
 0002:00004278       ??_C@_15DEOPBLCG@?$AAp?$AAl?$AA?$AA@ 10023278     libucrt:lcidtoname_downlevel.obj
 0002:00004280       ??_C@_15KBECGEFG@?$AAp?$AAt?$AA?$AA@ 10023280     libucrt:lcidtoname_downlevel.obj
 0002:00004288       ??_C@_15GLJCBFMD@?$AAr?$AAo?$AA?$AA@ 10023288     libucrt:lcidtoname_downlevel.obj
 0002:00004290       ??_C@_15FEDGKCDI@?$AAr?$AAu?$AA?$AA@ 10023290     libucrt:lcidtoname_downlevel.obj
 0002:00004298       ??_C@_15GLKMLLHM@?$AAh?$AAr?$AA?$AA@ 10023298     libucrt:lcidtoname_downlevel.obj
 0002:000042a0       ??_C@_15CPKMFBDB@?$AAs?$AAk?$AA?$AA@ 100232a0     libucrt:lcidtoname_downlevel.obj
 0002:000042a8       ??_C@_15BAAIOGMK@?$AAs?$AAq?$AA?$AA@ 100232a8     libucrt:lcidtoname_downlevel.obj
 0002:000042b0       ??_C@_15INNPNOHD@?$AAs?$AAv?$AA?$AA@ 100232b0     libucrt:lcidtoname_downlevel.obj
 0002:000042b8       ??_C@_15CABMMOGH@?$AAt?$AAh?$AA?$AA@ 100232b8     libucrt:lcidtoname_downlevel.obj
 0002:000042c0       ??_C@_15BPLIHJJM@?$AAt?$AAr?$AA?$AA@ 100232c0     libucrt:lcidtoname_downlevel.obj
 0002:000042c8       ??_C@_15NEOEKKDJ@?$AAu?$AAr?$AA?$AA@ 100232c8     libucrt:lcidtoname_downlevel.obj
 0002:000042d0       ??_C@_15NFICGAJK@?$AAi?$AAd?$AA?$AA@ 100232d0     libucrt:lcidtoname_downlevel.obj
 0002:000042d8       ??_C@_15PJPFLCCM@?$AAu?$AAk?$AA?$AA@ 100232d8     libucrt:lcidtoname_downlevel.obj
 0002:000042e0       ??_C@_15HPJPHDM@?$AAb?$AAe?$AA?$AA@ 100232e0     libucrt:lcidtoname_downlevel.obj
 0002:000042e8       ??_C@_15LCHLGJII@?$AAs?$AAl?$AA?$AA@ 100232e8     libucrt:lcidtoname_downlevel.obj
 0002:000042f0       ??_C@_15PCFJPHHO@?$AAe?$AAt?$AA?$AA@ 100232f0     libucrt:lcidtoname_downlevel.obj
 0002:000042f8       ??_C@_15HPFPGODN@?$AAl?$AAv?$AA?$AA@ 100232f8     libucrt:lcidtoname_downlevel.obj
 0002:00004300       ??_C@_15NFFGKGLG@?$AAl?$AAt?$AA?$AA@ 10023300     libucrt:lcidtoname_downlevel.obj
 0002:00004308       ??_C@_15BDAKCCHN@?$AAf?$AAa?$AA?$AA@ 10023308     libucrt:lcidtoname_downlevel.obj
 0002:00004310       ??_C@_15NFGIAIAJ@?$AAv?$AAi?$AA?$AA@ 10023310     libucrt:lcidtoname_downlevel.obj
 0002:00004318       ??_C@_15LMKNDMHN@?$AAh?$AAy?$AA?$AA@ 10023318     libucrt:lcidtoname_downlevel.obj
 0002:00004320       ??_C@_15IJBHMCFL@?$AAa?$AAz?$AA?$AA@ 10023320     libucrt:lcidtoname_downlevel.obj
 0002:00004328       ??_C@_15EKOFJABL@?$AAe?$AAu?$AA?$AA@ 10023328     libucrt:lcidtoname_downlevel.obj
 0002:00004330       ??_C@_15BGHADCNK@?$AAm?$AAk?$AA?$AA@ 10023330     libucrt:lcidtoname_downlevel.obj
 0002:00004338       ??_C@_15JDNICKHM@?$AAa?$AAf?$AA?$AA@ 10023338     libucrt:lcidtoname_downlevel.obj
 0002:00004340       ??_C@_15KPJEDBKD@?$AAk?$AAa?$AA?$AA@ 10023340     libucrt:lcidtoname_downlevel.obj
 0002:00004348       ??_C@_15PDNFFFEO@?$AAf?$AAo?$AA?$AA@ 10023348     libucrt:lcidtoname_downlevel.obj
 0002:00004350       ??_C@_15OMLEGLOC@?$AAh?$AAi?$AA?$AA@ 10023350     libucrt:lcidtoname_downlevel.obj
 0002:00004358       ??_C@_15IDNNENKK@?$AAm?$AAs?$AA?$AA@ 10023358     libucrt:lcidtoname_downlevel.obj
 0002:00004360       ??_C@_15MACJNBMH@?$AAk?$AAk?$AA?$AA@ 10023360     libucrt:lcidtoname_downlevel.obj
 0002:00004368       ??_C@_15DKDJEOND@?$AAk?$AAy?$AA?$AA@ 10023368     libucrt:lcidtoname_downlevel.obj
 0002:00004370       ??_C@_15DFGDLJBG@?$AAs?$AAw?$AA?$AA@ 10023370     libucrt:lcidtoname_downlevel.obj
 0002:00004378       ??_C@_15BBFAICNG@?$AAu?$AAz?$AA?$AA@ 10023378     libucrt:lcidtoname_downlevel.obj
 0002:00004380       ??_C@_15DKNDCGEA@?$AAt?$AAt?$AA?$AA@ 10023380     libucrt:lcidtoname_downlevel.obj
 0002:00004388       ??_C@_15MGIFMDPL@?$AAp?$AAa?$AA?$AA@ 10023388     libucrt:lcidtoname_downlevel.obj
 0002:00004390       ??_C@_15HCNDBBA@?$AAg?$AAu?$AA?$AA@ 10023390     libucrt:lcidtoname_downlevel.obj
 0002:00004398       ??_C@_15FNBEIBON@?$AAt?$AAa?$AA?$AA@ 10023398     libucrt:lcidtoname_downlevel.obj
 0002:000043a0       ??_C@_15NCHGBGLK@?$AAt?$AAe?$AA?$AA@ 100233a0     libucrt:lcidtoname_downlevel.obj
 0002:000043a8       ??_C@_15PHPHCBPF@?$AAk?$AAn?$AA?$AA@ 100233a8     libucrt:lcidtoname_downlevel.obj
 0002:000043b0       ??_C@_15DLGBCKMP@?$AAm?$AAr?$AA?$AA@ 100233b0     libucrt:lcidtoname_downlevel.obj
 0002:000043b8       ??_C@_15EABBLBFF@?$AAs?$AAa?$AA?$AA@ 100233b8     libucrt:lcidtoname_downlevel.obj
 0002:000043c0       ??_C@_15CBKOMCOI@?$AAm?$AAn?$AA?$AA@ 100233c0     libucrt:lcidtoname_downlevel.obj
 0002:000043c8       ??_C@_15CKDMCJAF@?$AAg?$AAl?$AA?$AA@ 100233c8     libucrt:lcidtoname_downlevel.obj
 0002:000043d0       ??_C@_17CNJFBPG@?$AAk?$AAo?$AAk?$AA?$AA@ 100233d0     libucrt:lcidtoname_downlevel.obj
 0002:000043d8       ??_C@_17FFBJICPL@?$AAs?$AAy?$AAr?$AA?$AA@ 100233d8     libucrt:lcidtoname_downlevel.obj
 0002:000043e0       ??_C@_17KPNDCPAF@?$AAd?$AAi?$AAv?$AA?$AA@ 100233e0     libucrt:lcidtoname_downlevel.obj
 0002:000043e8       ??_C@_11LOCGONAA@?$AA?$AA@ 100233e8     libucrt:lcidtoname_downlevel.obj
 0002:000043ec       ??_C@_1M@OKAHONE@?$AAa?$AAr?$AA?9?$AAS?$AAA?$AA?$AA@ 100233ec     libucrt:lcidtoname_downlevel.obj
 0002:000043f8       ??_C@_1M@FFFIGIGK@?$AAb?$AAg?$AA?9?$AAB?$AAG?$AA?$AA@ 100233f8     libucrt:lcidtoname_downlevel.obj
 0002:00004404       ??_C@_1M@BJNKEDC@?$AAc?$AAa?$AA?9?$AAE?$AAS?$AA?$AA@ 10023404     libucrt:lcidtoname_downlevel.obj
 0002:00004410       ??_C@_1M@IJJHFJHA@?$AAc?$AAs?$AA?9?$AAC?$AAZ?$AA?$AA@ 10023410     libucrt:lcidtoname_downlevel.obj
 0002:0000441c       ??_C@_1M@CLPEOBGI@?$AAd?$AAa?$AA?9?$AAD?$AAK?$AA?$AA@ 1002341c     libucrt:lcidtoname_downlevel.obj
 0002:00004428       ??_C@_1M@MCMADGCB@?$AAd?$AAe?$AA?9?$AAD?$AAE?$AA?$AA@ 10023428     libucrt:lcidtoname_downlevel.obj
 0002:00004434       ??_C@_1M@OOCKEMAM@?$AAe?$AAl?$AA?9?$AAG?$AAR?$AA?$AA@ 10023434     libucrt:lcidtoname_downlevel.obj
 0002:00004440       ??_C@_1M@DDNJFGID@?$AAf?$AAi?$AA?9?$AAF?$AAI?$AA?$AA@ 10023440     libucrt:lcidtoname_downlevel.obj
 0002:0000444c       ??_C@_1M@GLIPPMAC@?$AAf?$AAr?$AA?9?$AAF?$AAR?$AA?$AA@ 1002344c     libucrt:lcidtoname_downlevel.obj
 0002:00004458       ??_C@_1M@GFMCHPE@?$AAh?$AAe?$AA?9?$AAI?$AAL?$AA?$AA@ 10023458     libucrt:lcidtoname_downlevel.obj
 0002:00004464       ??_C@_1M@MHLPGNKM@?$AAh?$AAu?$AA?9?$AAH?$AAU?$AA?$AA@ 10023464     libucrt:lcidtoname_downlevel.obj
 0002:00004470       ??_C@_1M@LPDDNNPN@?$AAi?$AAs?$AA?9?$AAI?$AAS?$AA?$AA@ 10023470     libucrt:lcidtoname_downlevel.obj
 0002:0000447c       ??_C@_1M@MADIPODN@?$AAi?$AAt?$AA?9?$AAI?$AAT?$AA?$AA@ 1002347c     libucrt:lcidtoname_downlevel.obj
 0002:00004488       ??_C@_1M@IHBJJGG@?$AAn?$AAl?$AA?9?$AAN?$AAL?$AA?$AA@ 10023488     libucrt:lcidtoname_downlevel.obj
 0002:00004494       ??_C@_1M@EANAGDL@?$AAn?$AAb?$AA?9?$AAN?$AAO?$AA?$AA@ 10023494     libucrt:lcidtoname_downlevel.obj
 0002:000044a0       ??_C@_1M@NEIEMEGP@?$AAp?$AAl?$AA?9?$AAP?$AAL?$AA?$AA@ 100234a0     libucrt:lcidtoname_downlevel.obj
 0002:000044ac       ??_C@_1M@BOCFIGEP@?$AAp?$AAt?$AA?9?$AAB?$AAR?$AA?$AA@ 100234ac     libucrt:lcidtoname_downlevel.obj
 0002:000044b8       ??_C@_1M@IMPFOPBG@?$AAr?$AAo?$AA?9?$AAR?$AAO?$AA?$AA@ 100234b8     libucrt:lcidtoname_downlevel.obj
 0002:000044c4       ??_C@_1M@IDNNEJMM@?$AAr?$AAu?$AA?9?$AAR?$AAU?$AA?$AA@ 100234c4     libucrt:lcidtoname_downlevel.obj
 0002:000044d0       ??_C@_1M@LILEEOGM@?$AAh?$AAr?$AA?9?$AAH?$AAR?$AA?$AA@ 100234d0     libucrt:lcidtoname_downlevel.obj
 0002:000044dc       ??_C@_1M@FKIFEHPB@?$AAs?$AAk?$AA?9?$AAS?$AAK?$AA?$AA@ 100234dc     libucrt:lcidtoname_downlevel.obj
 0002:000044e8       ??_C@_1M@LJMAMNPJ@?$AAs?$AAq?$AA?9?$AAA?$AAL?$AA?$AA@ 100234e8     libucrt:lcidtoname_downlevel.obj
 0002:000044f4       ??_C@_1M@GIAKDKJK@?$AAs?$AAv?$AA?9?$AAS?$AAE?$AA?$AA@ 100234f4     libucrt:lcidtoname_downlevel.obj
 0002:00004500       ??_C@_1M@MKJKIKCL@?$AAt?$AAh?$AA?9?$AAT?$AAH?$AA?$AA@ 10023500     libucrt:lcidtoname_downlevel.obj
 0002:0000450c       ??_C@_1M@MFLCCMPB@?$AAt?$AAr?$AA?9?$AAT?$AAR?$AA?$AA@ 1002350c     libucrt:lcidtoname_downlevel.obj
 0002:00004518       ??_C@_1M@OIJHDKJN@?$AAu?$AAr?$AA?9?$AAP?$AAK?$AA?$AA@ 10023518     libucrt:lcidtoname_downlevel.obj
 0002:00004524       ??_C@_1M@LHIPCIEK@?$AAi?$AAd?$AA?9?$AAI?$AAD?$AA?$AA@ 10023524     libucrt:lcidtoname_downlevel.obj
 0002:00004530       ??_C@_1M@MFMOBGI@?$AAu?$AAk?$AA?9?$AAU?$AAA?$AA?$AA@ 10023530     libucrt:lcidtoname_downlevel.obj
 0002:0000453c       ??_C@_1M@OBGLJIPL@?$AAb?$AAe?$AA?9?$AAB?$AAY?$AA?$AA@ 1002353c     libucrt:lcidtoname_downlevel.obj
 0002:00004548       ??_C@_1M@BCFAJEAD@?$AAs?$AAl?$AA?9?$AAS?$AAI?$AA?$AA@ 10023548     libucrt:lcidtoname_downlevel.obj
 0002:00004554       ??_C@_1M@FKFFEDDN@?$AAe?$AAt?$AA?9?$AAE?$AAE?$AA?$AA@ 10023554     libucrt:lcidtoname_downlevel.obj
 0002:00004560       ??_C@_1M@KGKKAACI@?$AAl?$AAv?$AA?9?$AAL?$AAV?$AA?$AA@ 10023560     libucrt:lcidtoname_downlevel.obj
 0002:0000456c       ??_C@_1M@IFGBIJO@?$AAl?$AAt?$AA?9?$AAL?$AAT?$AA?$AA@ 1002356c     libucrt:lcidtoname_downlevel.obj
 0002:00004578       ??_C@_1M@FGEAHEDM@?$AAf?$AAa?$AA?9?$AAI?$AAR?$AA?$AA@ 10023578     libucrt:lcidtoname_downlevel.obj
 0002:00004584       ??_C@_1M@KBMAIBFN@?$AAv?$AAi?$AA?9?$AAV?$AAN?$AA?$AA@ 10023584     libucrt:lcidtoname_downlevel.obj
 0002:00004590       ??_C@_1M@GPCBKDJK@?$AAh?$AAy?$AA?9?$AAA?$AAM?$AA?$AA@ 10023590     libucrt:lcidtoname_downlevel.obj
 0002:0000459c       ??_C@_1BG@BECMDDJB@?$AAa?$AAz?$AA?9?$AAA?$AAZ?$AA?9?$AAL?$AAa?$AAt?$AAn?$AA?$AA@ 1002359c     libucrt:lcidtoname_downlevel.obj
 0002:000045b4       ??_C@_1M@MAOFCAEA@?$AAe?$AAu?$AA?9?$AAE?$AAS?$AA?$AA@ 100235b4     libucrt:lcidtoname_downlevel.obj
 0002:000045c0       ??_C@_1M@IGHABKPI@?$AAm?$AAk?$AA?9?$AAM?$AAK?$AA?$AA@ 100235c0     libucrt:lcidtoname_downlevel.obj
 0002:000045cc       ??_C@_1M@IAIGNEJG@?$AAt?$AAn?$AA?9?$AAZ?$AAA?$AA?$AA@ 100235cc     libucrt:lcidtoname_downlevel.obj
 0002:000045d8       ??_C@_1M@IIJCOJFA@?$AAx?$AAh?$AA?9?$AAZ?$AAA?$AA?$AA@ 100235d8     libucrt:lcidtoname_downlevel.obj
 0002:000045e4       ??_C@_1M@LGPJHNJH@?$AAz?$AAu?$AA?9?$AAZ?$AAA?$AA?$AA@ 100235e4     libucrt:lcidtoname_downlevel.obj
 0002:000045f0       ??_C@_1M@HOKAOIO@?$AAa?$AAf?$AA?9?$AAZ?$AAA?$AA?$AA@ 100235f0     libucrt:lcidtoname_downlevel.obj
 0002:000045fc       ??_C@_1M@DPCLHLIE@?$AAk?$AAa?$AA?9?$AAG?$AAE?$AA?$AA@ 100235fc     libucrt:lcidtoname_downlevel.obj
 0002:00004608       ??_C@_1M@BLKMHJBI@?$AAf?$AAo?$AA?9?$AAF?$AAO?$AA?$AA@ 10023608     libucrt:lcidtoname_downlevel.obj
 0002:00004614       ??_C@_1M@LGGJAPPB@?$AAh?$AAi?$AA?9?$AAI?$AAN?$AA?$AA@ 10023614     libucrt:lcidtoname_downlevel.obj
 0002:00004620       ??_C@_1M@FIKPIHFE@?$AAm?$AAt?$AA?9?$AAM?$AAT?$AA?$AA@ 10023620     libucrt:lcidtoname_downlevel.obj
 0002:0000462c       ??_C@_1M@HEGGPBFA@?$AAs?$AAe?$AA?9?$AAN?$AAO?$AA?$AA@ 1002362c     libucrt:lcidtoname_downlevel.obj
 0002:00004638       ??_C@_1M@EIBJEEPA@?$AAm?$AAs?$AA?9?$AAM?$AAY?$AA?$AA@ 10023638     libucrt:lcidtoname_downlevel.obj
 0002:00004644       ??_C@_1M@FHLBGMPP@?$AAk?$AAk?$AA?9?$AAK?$AAZ?$AA?$AA@ 10023644     libucrt:lcidtoname_downlevel.obj
 0002:00004650       ??_C@_1M@NGJJLCGI@?$AAk?$AAy?$AA?9?$AAK?$AAG?$AA?$AA@ 10023650     libucrt:lcidtoname_downlevel.obj
 0002:0000465c       ??_C@_1M@GIENNBFC@?$AAs?$AAw?$AA?9?$AAK?$AAE?$AA?$AA@ 1002365c     libucrt:lcidtoname_downlevel.obj
 0002:00004668       ??_C@_1BG@NDGMJIMJ@?$AAu?$AAz?$AA?9?$AAU?$AAZ?$AA?9?$AAL?$AAa?$AAt?$AAn?$AA?$AA@ 10023668     libucrt:lcidtoname_downlevel.obj
 0002:00004680       ??_C@_1M@IDCCIHBC@?$AAt?$AAt?$AA?9?$AAR?$AAU?$AA?$AA@ 10023680     libucrt:lcidtoname_downlevel.obj
 0002:0000468c       ??_C@_1M@LOICPMOJ@?$AAb?$AAn?$AA?9?$AAI?$AAN?$AA?$AA@ 1002368c     libucrt:lcidtoname_downlevel.obj
 0002:00004698       ??_C@_1M@KPKKNEAH@?$AAp?$AAa?$AA?9?$AAI?$AAN?$AA?$AA@ 10023698     libucrt:lcidtoname_downlevel.obj
 0002:000046a4       ??_C@_1M@PJGPPBOG@?$AAg?$AAu?$AA?9?$AAI?$AAN?$AA?$AA@ 100236a4     libucrt:lcidtoname_downlevel.obj
 0002:000046b0       ??_C@_1M@KMKMOPHI@?$AAt?$AAa?$AA?9?$AAI?$AAN?$AA?$AA@ 100236b0     libucrt:lcidtoname_downlevel.obj
 0002:000046bc       ??_C@_1M@KFEHEPAC@?$AAt?$AAe?$AA?9?$AAI?$AAN?$AA?$AA@ 100236bc     libucrt:lcidtoname_downlevel.obj
 0002:000046c8       ??_C@_1M@CDCLMGHI@?$AAk?$AAn?$AA?9?$AAI?$AAN?$AA?$AA@ 100236c8     libucrt:lcidtoname_downlevel.obj
 0002:000046d4       ??_C@_1M@MIODLDKF@?$AAm?$AAl?$AA?9?$AAI?$AAN?$AA?$AA@ 100236d4     libucrt:lcidtoname_downlevel.obj
 0002:000046e0       ??_C@_1M@PBIEACPO@?$AAm?$AAr?$AA?9?$AAI?$AAN?$AA?$AA@ 100236e0     libucrt:lcidtoname_downlevel.obj
 0002:000046ec       ??_C@_1M@NIDEAGPH@?$AAs?$AAa?$AA?9?$AAI?$AAN?$AA?$AA@ 100236ec     libucrt:lcidtoname_downlevel.obj
 0002:000046f8       ??_C@_1M@FHIHCBIO@?$AAm?$AAn?$AA?9?$AAM?$AAN?$AA?$AA@ 100236f8     libucrt:lcidtoname_downlevel.obj
 0002:00004704       ??_C@_1M@JAIJPENP@?$AAc?$AAy?$AA?9?$AAG?$AAB?$AA?$AA@ 10023704     libucrt:lcidtoname_downlevel.obj
 0002:00004710       ??_C@_1M@PHGFBEPN@?$AAg?$AAl?$AA?9?$AAE?$AAS?$AA?$AA@ 10023710     libucrt:lcidtoname_downlevel.obj
 0002:0000471c       ??_C@_1O@KPIPDNCP@?$AAk?$AAo?$AAk?$AA?9?$AAI?$AAN?$AA?$AA@ 1002371c     libucrt:lcidtoname_downlevel.obj
 0002:0000472c       ??_C@_1O@KNHJLDJA@?$AAs?$AAy?$AAr?$AA?9?$AAS?$AAY?$AA?$AA@ 1002372c     libucrt:lcidtoname_downlevel.obj
 0002:0000473c       ??_C@_1O@MKEKBLAH@?$AAd?$AAi?$AAv?$AA?9?$AAM?$AAV?$AA?$AA@ 1002373c     libucrt:lcidtoname_downlevel.obj
 0002:0000474c       ??_C@_1O@OHDCKDDF@?$AAq?$AAu?$AAz?$AA?9?$AAB?$AAO?$AA?$AA@ 1002374c     libucrt:lcidtoname_downlevel.obj
 0002:0000475c       ??_C@_1M@LEPJNLFD@?$AAn?$AAs?$AA?9?$AAZ?$AAA?$AA?$AA@ 1002375c     libucrt:lcidtoname_downlevel.obj
 0002:00004768       ??_C@_1M@OMLEIIJB@?$AAm?$AAi?$AA?9?$AAN?$AAZ?$AA?$AA@ 10023768     libucrt:lcidtoname_downlevel.obj
 0002:00004774       ??_C@_1M@PMPEAILG@?$AAa?$AAr?$AA?9?$AAI?$AAQ?$AA?$AA@ 10023774     libucrt:lcidtoname_downlevel.obj
 0002:00004780       ??_C@_1M@CNKPNOEE@?$AAd?$AAe?$AA?9?$AAC?$AAH?$AA?$AA@ 10023780     libucrt:lcidtoname_downlevel.obj
 0002:0000478c       ??_C@_1M@LKMGMLKO@?$AAe?$AAn?$AA?9?$AAG?$AAB?$AA?$AA@ 1002378c     libucrt:lcidtoname_downlevel.obj
 0002:00004798       ??_C@_1M@PGKJFFGL@?$AAe?$AAs?$AA?9?$AAM?$AAX?$AA?$AA@ 10023798     libucrt:lcidtoname_downlevel.obj
 0002:000047a4       ??_C@_1M@DNNANBDC@?$AAf?$AAr?$AA?9?$AAB?$AAE?$AA?$AA@ 100237a4     libucrt:lcidtoname_downlevel.obj
 0002:000047b0       ??_C@_1M@HLGMDFHM@?$AAi?$AAt?$AA?9?$AAC?$AAH?$AA?$AA@ 100237b0     libucrt:lcidtoname_downlevel.obj
 0002:000047bc       ??_C@_1M@CLLBGJH@?$AAn?$AAl?$AA?9?$AAB?$AAE?$AA?$AA@ 100237bc     libucrt:lcidtoname_downlevel.obj
 0002:000047c8       ??_C@_1M@BODBOGLF@?$AAn?$AAn?$AA?9?$AAN?$AAO?$AA?$AA@ 100237c8     libucrt:lcidtoname_downlevel.obj
 0002:000047d4       ??_C@_1M@HFFAHKAD@?$AAp?$AAt?$AA?9?$AAP?$AAT?$AA?$AA@ 100237d4     libucrt:lcidtoname_downlevel.obj
 0002:000047e0       ??_C@_1BG@LNOAKHIE@?$AAs?$AAr?$AA?9?$AAS?$AAP?$AA?9?$AAL?$AAa?$AAt?$AAn?$AA?$AA@ 100237e0     libucrt:lcidtoname_downlevel.obj
 0002:000047f8       ??_C@_1M@HBMHBGAK@?$AAs?$AAv?$AA?9?$AAF?$AAI?$AA?$AA@ 100237f8     libucrt:lcidtoname_downlevel.obj
 0002:00004804       ??_C@_1BG@DGCJGJBE@?$AAa?$AAz?$AA?9?$AAA?$AAZ?$AA?9?$AAC?$AAy?$AAr?$AAl?$AA?$AA@ 10023804     libucrt:lcidtoname_downlevel.obj
 0002:0000481c       ??_C@_1M@KEJDAAHB@?$AAs?$AAe?$AA?9?$AAS?$AAE?$AA?$AA@ 1002381c     libucrt:lcidtoname_downlevel.obj
 0002:00004828       ??_C@_1M@HEIBJJAD@?$AAm?$AAs?$AA?9?$AAB?$AAN?$AA?$AA@ 10023828     libucrt:lcidtoname_downlevel.obj
 0002:00004834       ??_C@_1BG@PBGJMCEM@?$AAu?$AAz?$AA?9?$AAU?$AAZ?$AA?9?$AAC?$AAy?$AAr?$AAl?$AA?$AA@ 10023834     libucrt:lcidtoname_downlevel.obj
 0002:0000484c       ??_C@_1O@LAOBCMDF@?$AAq?$AAu?$AAz?$AA?9?$AAE?$AAC?$AA?$AA@ 1002384c     libucrt:lcidtoname_downlevel.obj
 0002:0000485c       ??_C@_1M@POEEMAIO@?$AAa?$AAr?$AA?9?$AAE?$AAG?$AA?$AA@ 1002385c     libucrt:lcidtoname_downlevel.obj
 0002:00004868       ??_C@_1M@EFAKDEDL@?$AAz?$AAh?$AA?9?$AAH?$AAK?$AA?$AA@ 10023868     libucrt:lcidtoname_downlevel.obj
 0002:00004874       ??_C@_1M@HKKIJHGI@?$AAd?$AAe?$AA?9?$AAA?$AAT?$AA?$AA@ 10023874     libucrt:lcidtoname_downlevel.obj
 0002:00004880       ??_C@_1M@KBFBEHJF@?$AAe?$AAn?$AA?9?$AAA?$AAU?$AA?$AA@ 10023880     libucrt:lcidtoname_downlevel.obj
 0002:0000488c       ??_C@_1M@MNPLFAAH@?$AAe?$AAs?$AA?9?$AAE?$AAS?$AA?$AA@ 1002388c     libucrt:lcidtoname_downlevel.obj
 0002:00004898       ??_C@_1M@HJOOJFMA@?$AAf?$AAr?$AA?9?$AAC?$AAA?$AA?$AA@ 10023898     libucrt:lcidtoname_downlevel.obj
 0002:000048a4       ??_C@_1BG@JPOFPNAB@?$AAs?$AAr?$AA?9?$AAS?$AAP?$AA?9?$AAC?$AAy?$AAr?$AAl?$AA?$AA@ 100238a4     libucrt:lcidtoname_downlevel.obj
 0002:000048bc       ??_C@_1M@LNFOCMOB@?$AAs?$AAe?$AA?9?$AAF?$AAI?$AA?$AA@ 100238bc     libucrt:lcidtoname_downlevel.obj
 0002:000048c8       ??_C@_1O@MGJBOAMB@?$AAq?$AAu?$AAz?$AA?9?$AAP?$AAE?$AA?$AA@ 100238c8     libucrt:lcidtoname_downlevel.obj
 0002:000048d8       ??_C@_1M@GJINLBOK@?$AAa?$AAr?$AA?9?$AAL?$AAY?$AA?$AA@ 100238d8     libucrt:lcidtoname_downlevel.obj
 0002:000048e4       ??_C@_1M@GGMNHJNL@?$AAz?$AAh?$AA?9?$AAS?$AAG?$AA?$AA@ 100238e4     libucrt:lcidtoname_downlevel.obj
 0002:000048f0       ??_C@_1M@HOIKODND@?$AAd?$AAe?$AA?9?$AAL?$AAU?$AA?$AA@ 100238f0     libucrt:lcidtoname_downlevel.obj
 0002:000048fc       ??_C@_1M@DDOCCGFG@?$AAe?$AAn?$AA?9?$AAC?$AAA?$AA?$AA@ 100238fc     libucrt:lcidtoname_downlevel.obj
 0002:00004908       ??_C@_1M@BNOEMJLF@?$AAe?$AAs?$AA?9?$AAG?$AAT?$AA?$AA@ 10023908     libucrt:lcidtoname_downlevel.obj
 0002:00004914       ??_C@_1M@EOGNKEK@?$AAf?$AAr?$AA?9?$AAC?$AAH?$AA?$AA@ 10023914     libucrt:lcidtoname_downlevel.obj
 0002:00004920       ??_C@_1M@FLIDJFHL@?$AAh?$AAr?$AA?9?$AAB?$AAA?$AA?$AA@ 10023920     libucrt:lcidtoname_downlevel.obj
 0002:0000492c       ??_C@_1O@FMCELNAJ@?$AAs?$AAm?$AAj?$AA?9?$AAN?$AAO?$AA?$AA@ 1002392c     libucrt:lcidtoname_downlevel.obj
 0002:0000493c       ??_C@_1M@JHGLJMGJ@?$AAa?$AAr?$AA?9?$AAD?$AAZ?$AA?$AA@ 1002393c     libucrt:lcidtoname_downlevel.obj
 0002:00004948       ??_C@_1M@JKKFDCNP@?$AAz?$AAh?$AA?9?$AAM?$AAO?$AA?$AA@ 10023948     libucrt:lcidtoname_downlevel.obj
 0002:00004954       ??_C@_1M@GEEFALPE@?$AAd?$AAe?$AA?9?$AAL?$AAI?$AA?$AA@ 10023954     libucrt:lcidtoname_downlevel.obj
 0002:00004960       ??_C@_1M@IGEOFBG@?$AAe?$AAn?$AA?9?$AAN?$AAZ?$AA?$AA@ 10023960     libucrt:lcidtoname_downlevel.obj
 0002:0000496c       ??_C@_1M@KDBONEHP@?$AAe?$AAs?$AA?9?$AAC?$AAR?$AA?$AA@ 1002396c     libucrt:lcidtoname_downlevel.obj
 0002:00004978       ??_C@_1M@FHMDOHNN@?$AAf?$AAr?$AA?9?$AAL?$AAU?$AA?$AA@ 10023978     libucrt:lcidtoname_downlevel.obj
 0002:00004984       ??_C@_1BG@NFKKMAFG@?$AAb?$AAs?$AA?9?$AAB?$AAA?$AA?9?$AAL?$AAa?$AAt?$AAn?$AA?$AA@ 10023984     libucrt:lcidtoname_downlevel.obj
 0002:0000499c       ??_C@_1O@IMNBEMCI@?$AAs?$AAm?$AAj?$AA?9?$AAS?$AAE?$AA?$AA@ 1002399c     libucrt:lcidtoname_downlevel.obj
 0002:000049ac       ??_C@_1M@DHHMBNDP@?$AAa?$AAr?$AA?9?$AAM?$AAA?$AA?$AA@ 100239ac     libucrt:lcidtoname_downlevel.obj
 0002:000049b8       ??_C@_1M@BNBLJCGH@?$AAe?$AAn?$AA?9?$AAI?$AAE?$AA?$AA@ 100239b8     libucrt:lcidtoname_downlevel.obj
 0002:000049c4       ??_C@_1M@GEPAFMDL@?$AAe?$AAs?$AA?9?$AAP?$AAA?$AA?$AA@ 100239c4     libucrt:lcidtoname_downlevel.obj
 0002:000049d0       ??_C@_1M@OJONDMDL@?$AAf?$AAr?$AA?9?$AAM?$AAC?$AA?$AA@ 100239d0     libucrt:lcidtoname_downlevel.obj
 0002:000049dc       ??_C@_1BG@OBCNFJB@?$AAs?$AAr?$AA?9?$AAB?$AAA?$AA?9?$AAL?$AAa?$AAt?$AAn?$AA?$AA@ 100239dc     libucrt:lcidtoname_downlevel.obj
 0002:000049f4       ??_C@_1O@KEMEEGPO@?$AAs?$AAm?$AAa?$AA?9?$AAN?$AAO?$AA?$AA@ 100239f4     libucrt:lcidtoname_downlevel.obj
 0002:00004a04       ??_C@_1M@ELMGFODK@?$AAa?$AAr?$AA?9?$AAT?$AAN?$AA?$AA@ 10023a04     libucrt:lcidtoname_downlevel.obj
 0002:00004a10       ??_C@_1M@BHDLHFAF@?$AAe?$AAn?$AA?9?$AAZ?$AAA?$AA?$AA@ 10023a10     libucrt:lcidtoname_downlevel.obj
 0002:00004a1c       ??_C@_1M@BMGIGLIF@?$AAe?$AAs?$AA?9?$AAD?$AAO?$AA?$AA@ 10023a1c     libucrt:lcidtoname_downlevel.obj
 0002:00004a28       ??_C@_1BG@CMBHIPBE@?$AAs?$AAr?$AA?9?$AAB?$AAA?$AA?9?$AAC?$AAy?$AAr?$AAl?$AA?$AA@ 10023a28     libucrt:lcidtoname_downlevel.obj
 0002:00004a40       ??_C@_1O@HEDBLHNP@?$AAs?$AAm?$AAa?$AA?9?$AAS?$AAE?$AA?$AA@ 10023a40     libucrt:lcidtoname_downlevel.obj
 0002:00004a50       ??_C@_1M@DAGCADIM@?$AAa?$AAr?$AA?9?$AAO?$AAM?$AA?$AA@ 10023a50     libucrt:lcidtoname_downlevel.obj
 0002:00004a5c       ??_C@_1M@FODLMICG@?$AAe?$AAn?$AA?9?$AAJ?$AAM?$AA?$AA@ 10023a5c     libucrt:lcidtoname_downlevel.obj
 0002:00004a68       ??_C@_1M@DNMLCIHB@?$AAe?$AAs?$AA?9?$AAV?$AAE?$AA?$AA@ 10023a68     libucrt:lcidtoname_downlevel.obj
 0002:00004a74       ??_C@_1O@EOKHMKJK@?$AAs?$AAm?$AAs?$AA?9?$AAF?$AAI?$AA?$AA@ 10023a74     libucrt:lcidtoname_downlevel.obj
 0002:00004a84       ??_C@_1M@CAFJMKOF@?$AAa?$AAr?$AA?9?$AAY?$AAE?$AA?$AA@ 10023a84     libucrt:lcidtoname_downlevel.obj
 0002:00004a90       ??_C@_1M@CBFHIJLI@?$AAe?$AAn?$AA?9?$AAC?$AAB?$AA?$AA@ 10023a90     libucrt:lcidtoname_downlevel.obj
 0002:00004a9c       ??_C@_1M@BGNFLDN@?$AAe?$AAs?$AA?9?$AAC?$AAO?$AA?$AA@ 10023a9c     libucrt:lcidtoname_downlevel.obj
 0002:00004aa8       ??_C@_1O@JMPHMAMC@?$AAs?$AAm?$AAn?$AA?9?$AAF?$AAI?$AA?$AA@ 10023aa8     libucrt:lcidtoname_downlevel.obj
 0002:00004ab8       ??_C@_1M@JLANABKE@?$AAa?$AAr?$AA?9?$AAS?$AAY?$AA?$AA@ 10023ab8     libucrt:lcidtoname_downlevel.obj
 0002:00004ac4       ??_C@_1M@HPKGCFGN@?$AAe?$AAn?$AA?9?$AAB?$AAZ?$AA?$AA@ 10023ac4     libucrt:lcidtoname_downlevel.obj
 0002:00004ad0       ??_C@_1M@OLJCMLGM@?$AAe?$AAs?$AA?9?$AAP?$AAE?$AA?$AA@ 10023ad0     libucrt:lcidtoname_downlevel.obj
 0002:00004adc       ??_C@_1M@MKKGFKLE@?$AAa?$AAr?$AA?9?$AAJ?$AAO?$AA?$AA@ 10023adc     libucrt:lcidtoname_downlevel.obj
 0002:00004ae8       ??_C@_1M@EKPGLDNI@?$AAe?$AAn?$AA?9?$AAT?$AAT?$AA?$AA@ 10023ae8     libucrt:lcidtoname_downlevel.obj
 0002:00004af4       ??_C@_1M@OONGHFHE@?$AAe?$AAs?$AA?9?$AAA?$AAR?$AA?$AA@ 10023af4     libucrt:lcidtoname_downlevel.obj
 0002:00004b00       ??_C@_1M@OOJFGBHE@?$AAa?$AAr?$AA?9?$AAL?$AAB?$AA?$AA@ 10023b00     libucrt:lcidtoname_downlevel.obj
 0002:00004b0c       ??_C@_1M@GCEJHNEG@?$AAe?$AAn?$AA?9?$AAZ?$AAW?$AA?$AA@ 10023b0c     libucrt:lcidtoname_downlevel.obj
 0002:00004b18       ??_C@_1M@JNOCAHJI@?$AAe?$AAs?$AA?9?$AAE?$AAC?$AA?$AA@ 10023b18     libucrt:lcidtoname_downlevel.obj
 0002:00004b24       ??_C@_1M@JEFHPGGB@?$AAa?$AAr?$AA?9?$AAK?$AAW?$AA?$AA@ 10023b24     libucrt:lcidtoname_downlevel.obj
 0002:00004b30       ??_C@_1M@MLKIBJOJ@?$AAe?$AAn?$AA?9?$AAP?$AAH?$AA?$AA@ 10023b30     libucrt:lcidtoname_downlevel.obj
 0002:00004b3c       ??_C@_1M@BDNIPEND@?$AAe?$AAs?$AA?9?$AAC?$AAL?$AA?$AA@ 10023b3c     libucrt:lcidtoname_downlevel.obj
 0002:00004b48       ??_C@_1M@MPNMEKBD@?$AAa?$AAr?$AA?9?$AAA?$AAE?$AA?$AA@ 10023b48     libucrt:lcidtoname_downlevel.obj
 0002:00004b54       ??_C@_1M@KBJALCPI@?$AAe?$AAs?$AA?9?$AAU?$AAY?$AA?$AA@ 10023b54     libucrt:lcidtoname_downlevel.obj
 0002:00004b60       ??_C@_1M@LLCCOAGA@?$AAa?$AAr?$AA?9?$AAB?$AAH?$AA?$AA@ 10023b60     libucrt:lcidtoname_downlevel.obj
 0002:00004b6c       ??_C@_1M@PBFNCDEL@?$AAe?$AAs?$AA?9?$AAP?$AAY?$AA?$AA@ 10023b6c     libucrt:lcidtoname_downlevel.obj
 0002:00004b78       ??_C@_1M@EDGINPNP@?$AAa?$AAr?$AA?9?$AAQ?$AAA?$AA?$AA@ 10023b78     libucrt:lcidtoname_downlevel.obj
 0002:00004b84       ??_C@_1M@MKDBIIJI@?$AAe?$AAs?$AA?9?$AAB?$AAO?$AA?$AA@ 10023b84     libucrt:lcidtoname_downlevel.obj
 0002:00004b90       ??_C@_1M@CPKKEBLD@?$AAe?$AAs?$AA?9?$AAS?$AAV?$AA?$AA@ 10023b90     libucrt:lcidtoname_downlevel.obj
 0002:00004b9c       ??_C@_1M@NDBGMMJL@?$AAe?$AAs?$AA?9?$AAH?$AAN?$AA?$AA@ 10023b9c     libucrt:lcidtoname_downlevel.obj
 0002:00004ba8       ??_C@_1M@JIJIBHDP@?$AAe?$AAs?$AA?9?$AAN?$AAI?$AA?$AA@ 10023ba8     libucrt:lcidtoname_downlevel.obj
 0002:00004bb4       ??_C@_1M@CGFMKEEK@?$AAe?$AAs?$AA?9?$AAP?$AAR?$AA?$AA@ 10023bb4     libucrt:lcidtoname_downlevel.obj
 0002:00004bc0       ??_C@_1O@ICJHKIIK@?$AAz?$AAh?$AA?9?$AAC?$AAH?$AAT?$AA?$AA@ 10023bc0     libucrt:lcidtoname_downlevel.obj
 0002:00004bd0       ??_C@_15CLNEJCE@?$AAs?$AAr?$AA?$AA@ 10023bd0     libucrt:lcidtoname_downlevel.obj
 0002:000052f8       ??_C@_1M@KAHEKEIG@?$AAa?$AAf?$AA?9?$AAz?$AAa?$AA?$AA@ 100242f8     libucrt:lcidtoname_downlevel.obj
 0002:00005304       ??_C@_1M@GIECOABL@?$AAa?$AAr?$AA?9?$AAa?$AAe?$AA?$AA@ 10024304     libucrt:lcidtoname_downlevel.obj
 0002:00005310       ??_C@_1M@BMLMEKGI@?$AAa?$AAr?$AA?9?$AAb?$AAh?$AA?$AA@ 10024310     libucrt:lcidtoname_downlevel.obj
 0002:0000531c       ??_C@_1M@DAPFDGGB@?$AAa?$AAr?$AA?9?$AAd?$AAz?$AA?$AA@ 1002431c     libucrt:lcidtoname_downlevel.obj
 0002:00005328       ??_C@_1M@FJNKGKIG@?$AAa?$AAr?$AA?9?$AAe?$AAg?$AA?$AA@ 10024328     libucrt:lcidtoname_downlevel.obj
 0002:00005334       ??_C@_1M@FLGKKCLO@?$AAa?$AAr?$AA?9?$AAi?$AAq?$AA?$AA@ 10024334     libucrt:lcidtoname_downlevel.obj
 0002:00005340       ??_C@_1M@GNDIPALM@?$AAa?$AAr?$AA?9?$AAj?$AAo?$AA?$AA@ 10024340     libucrt:lcidtoname_downlevel.obj
 0002:0000534c       ??_C@_1M@DDMJFMGJ@?$AAa?$AAr?$AA?9?$AAk?$AAw?$AA?$AA@ 1002434c     libucrt:lcidtoname_downlevel.obj
 0002:00005358       ??_C@_1M@EJALMLHM@?$AAa?$AAr?$AA?9?$AAl?$AAb?$AA?$AA@ 10024358     libucrt:lcidtoname_downlevel.obj
 0002:00005364       ??_C@_1M@MOBDBLOC@?$AAa?$AAr?$AA?9?$AAl?$AAy?$AA?$AA@ 10024364     libucrt:lcidtoname_downlevel.obj
 0002:00005370       ??_C@_1M@JAOCLHDH@?$AAa?$AAr?$AA?9?$AAm?$AAa?$AA?$AA@ 10024370     libucrt:lcidtoname_downlevel.obj
 0002:0000537c       ??_C@_1M@JHPMKJIE@?$AAa?$AAr?$AA?9?$AAo?$AAm?$AA?$AA@ 1002437c     libucrt:lcidtoname_downlevel.obj
 0002:00005388       ??_C@_1M@OEPGHFNH@?$AAa?$AAr?$AA?9?$AAq?$AAa?$AA?$AA@ 10024388     libucrt:lcidtoname_downlevel.obj
 0002:00005394       ??_C@_1M@KJDONENM@?$AAa?$AAr?$AA?9?$AAs?$AAa?$AA?$AA@ 10024394     libucrt:lcidtoname_downlevel.obj
 0002:000053a0       ??_C@_1M@DMJDKLKM@?$AAa?$AAr?$AA?9?$AAs?$AAy?$AA?$AA@ 100243a0     libucrt:lcidtoname_downlevel.obj
 0002:000053ac       ??_C@_1M@OMFIPEDC@?$AAa?$AAr?$AA?9?$AAt?$AAn?$AA?$AA@ 100243ac     libucrt:lcidtoname_downlevel.obj
 0002:000053b8       ??_C@_1M@IHMHGAON@?$AAa?$AAr?$AA?9?$AAy?$AAe?$AA?$AA@ 100243b8     libucrt:lcidtoname_downlevel.obj
 0002:000053c4       ??_C@_1BG@KDCPGJGB@?$AAa?$AAz?$AA?9?$AAa?$AAz?$AA?9?$AAc?$AAy?$AAr?$AAl?$AA?$AA@ 100243c4     libucrt:lcidtoname_downlevel.obj
 0002:000053dc       ??_C@_1BG@IBCKDDOE@?$AAa?$AAz?$AA?9?$AAa?$AAz?$AA?9?$AAl?$AAa?$AAt?$AAn?$AA?$AA@ 100243dc     libucrt:lcidtoname_downlevel.obj
 0002:000053f4       ??_C@_1M@EGPFDCPD@?$AAb?$AAe?$AA?9?$AAb?$AAy?$AA?$AA@ 100243f4     libucrt:lcidtoname_downlevel.obj
 0002:00005400       ??_C@_1M@PCMGMCGC@?$AAb?$AAg?$AA?9?$AAb?$AAg?$AA?$AA@ 10024400     libucrt:lcidtoname_downlevel.obj
 0002:0000540c       ??_C@_1M@BJBMFGOB@?$AAb?$AAn?$AA?9?$AAi?$AAn?$AA?$AA@ 1002440c     libucrt:lcidtoname_downlevel.obj
 0002:00005418       ??_C@_1BG@EAKMMACD@?$AAb?$AAs?$AA?9?$AAb?$AAa?$AA?9?$AAl?$AAa?$AAt?$AAn?$AA?$AA@ 10024418     libucrt:lcidtoname_downlevel.obj
 0002:00005430       ??_C@_1M@KGADAODK@?$AAc?$AAa?$AA?9?$AAe?$AAs?$AA?$AA@ 10024430     libucrt:lcidtoname_downlevel.obj
 0002:0000543c       ??_C@_1M@COAJPDHI@?$AAc?$AAs?$AA?9?$AAc?$AAz?$AA?$AA@ 1002443c     libucrt:lcidtoname_downlevel.obj
 0002:00005448       ??_C@_1M@DHBHFONH@?$AAc?$AAy?$AA?9?$AAg?$AAb?$AA?$AA@ 10024448     libucrt:lcidtoname_downlevel.obj
 0002:00005454       ??_C@_1M@IMGKELGA@?$AAd?$AAa?$AA?9?$AAd?$AAk?$AA?$AA@ 10024454     libucrt:lcidtoname_downlevel.obj
 0002:00005460       ??_C@_1M@NNDGDNGA@?$AAd?$AAe?$AA?9?$AAa?$AAt?$AA?$AA@ 10024460     libucrt:lcidtoname_downlevel.obj
 0002:0000546c       ??_C@_1M@IKDBHEEM@?$AAd?$AAe?$AA?9?$AAc?$AAh?$AA?$AA@ 1002446c     libucrt:lcidtoname_downlevel.obj
 0002:00005478       ??_C@_1M@GFFOJMCJ@?$AAd?$AAe?$AA?9?$AAd?$AAe?$AA?$AA@ 10024478     libucrt:lcidtoname_downlevel.obj
 0002:00005484       ??_C@_1M@MDNLKBPM@?$AAd?$AAe?$AA?9?$AAl?$AAi?$AA?$AA@ 10024484     libucrt:lcidtoname_downlevel.obj
 0002:00005490       ??_C@_1M@NJBEEJNL@?$AAd?$AAe?$AA?9?$AAl?$AAu?$AA?$AA@ 10024490     libucrt:lcidtoname_downlevel.obj
 0002:0000549c       ??_C@_1O@GNNELBAP@?$AAd?$AAi?$AAv?$AA?9?$AAm?$AAv?$AA?$AA@ 1002449c     libucrt:lcidtoname_downlevel.obj
 0002:000054ac       ??_C@_1M@EJLEOGAE@?$AAe?$AAl?$AA?9?$AAg?$AAr?$AA?$AA@ 100244ac     libucrt:lcidtoname_downlevel.obj
 0002:000054b8       ??_C@_1M@GMPONJN@?$AAe?$AAn?$AA?9?$AAa?$AAu?$AA?$AA@ 100244b8     libucrt:lcidtoname_downlevel.obj
 0002:000054c4       ??_C@_1M@NIDIIPGF@?$AAe?$AAn?$AA?9?$AAb?$AAz?$AA?$AA@ 100244c4     libucrt:lcidtoname_downlevel.obj
 0002:000054d0       ??_C@_1M@JEHMIMFO@?$AAe?$AAn?$AA?9?$AAc?$AAa?$AA?$AA@ 100244d0     libucrt:lcidtoname_downlevel.obj
 0002:000054dc       ??_C@_1M@IGMJCDLA@?$AAe?$AAn?$AA?9?$AAc?$AAb?$AA?$AA@ 100244dc     libucrt:lcidtoname_downlevel.obj
 0002:000054e8       ??_C@_1M@BNFIGBKG@?$AAe?$AAn?$AA?9?$AAg?$AAb?$AA?$AA@ 100244e8     libucrt:lcidtoname_downlevel.obj
 0002:000054f4       ??_C@_1M@LKIFDIGP@?$AAe?$AAn?$AA?9?$AAi?$AAe?$AA?$AA@ 100244f4     libucrt:lcidtoname_downlevel.obj
 0002:00005500       ??_C@_1M@PJKFGCCO@?$AAe?$AAn?$AA?9?$AAj?$AAm?$AA?$AA@ 10024500     libucrt:lcidtoname_downlevel.obj
 0002:0000550c       ??_C@_1M@KPPKEPBO@?$AAe?$AAn?$AA?9?$AAn?$AAz?$AA?$AA@ 1002450c     libucrt:lcidtoname_downlevel.obj
 0002:00005518       ??_C@_1M@GMDGLDOB@?$AAe?$AAn?$AA?9?$AAp?$AAh?$AA?$AA@ 10024518     libucrt:lcidtoname_downlevel.obj
 0002:00005524       ??_C@_1M@ONGIBJNA@?$AAe?$AAn?$AA?9?$AAt?$AAt?$AA?$AA@ 10024524     libucrt:lcidtoname_downlevel.obj
 0002:00005530       ??_C@_1M@LLODPCMM@?$AAe?$AAn?$AA?9?$AAu?$AAs?$AA?$AA@ 10024530     libucrt:lcidtoname_downlevel.obj
 0002:0000553c       ??_C@_1M@LAKFNPAN@?$AAe?$AAn?$AA?9?$AAz?$AAa?$AA?$AA@ 1002453c     libucrt:lcidtoname_downlevel.obj
 0002:00005548       ??_C@_1M@MFNHNHEO@?$AAe?$AAn?$AA?9?$AAz?$AAw?$AA?$AA@ 10024548     libucrt:lcidtoname_downlevel.obj
 0002:00005554       ??_C@_1M@EJEINPHM@?$AAe?$AAs?$AA?9?$AAa?$AAr?$AA?$AA@ 10024554     libucrt:lcidtoname_downlevel.obj
 0002:00005560       ??_C@_1M@GNKPCCJA@?$AAe?$AAs?$AA?9?$AAb?$AAo?$AA?$AA@ 10024560     libucrt:lcidtoname_downlevel.obj
 0002:0000556c       ??_C@_1M@LEEGFONL@?$AAe?$AAs?$AA?9?$AAc?$AAl?$AA?$AA@ 1002456c     libucrt:lcidtoname_downlevel.obj
 0002:00005578       ??_C@_1M@KGPDPBDF@?$AAe?$AAs?$AA?9?$AAc?$AAo?$AA?$AA@ 10024578     libucrt:lcidtoname_downlevel.obj
 0002:00005584       ??_C@_1M@EIAHOHH@?$AAe?$AAs?$AA?9?$AAc?$AAr?$AA?$AA@ 10024584     libucrt:lcidtoname_downlevel.obj
 0002:00005590       ??_C@_1M@LLPGMBIN@?$AAe?$AAs?$AA?9?$AAd?$AAo?$AA?$AA@ 10024590     libucrt:lcidtoname_downlevel.obj
 0002:0000559c       ??_C@_1M@DKHMKNJA@?$AAe?$AAs?$AA?9?$AAe?$AAc?$AA?$AA@ 1002459c     libucrt:lcidtoname_downlevel.obj
 0002:000055a8       ??_C@_1M@GKGFPKAP@?$AAe?$AAs?$AA?9?$AAe?$AAs?$AA?$AA@ 100245a8     libucrt:lcidtoname_downlevel.obj
 0002:000055b4       ??_C@_1M@LKHKGDLN@?$AAe?$AAs?$AA?9?$AAg?$AAt?$AA?$AA@ 100245b4     libucrt:lcidtoname_downlevel.obj
 0002:000055c0       ??_C@_1M@HEIIGGJD@?$AAe?$AAs?$AA?9?$AAh?$AAn?$AA?$AA@ 100245c0     libucrt:lcidtoname_downlevel.obj
 0002:000055cc       ??_C@_1M@FBDHPPGD@?$AAe?$AAs?$AA?9?$AAm?$AAx?$AA?$AA@ 100245cc     libucrt:lcidtoname_downlevel.obj
 0002:000055d8       ??_C@_1M@DPAGLNDH@?$AAe?$AAs?$AA?9?$AAn?$AAi?$AA?$AA@ 100245d8     libucrt:lcidtoname_downlevel.obj
 0002:000055e4       ??_C@_1M@MDGOPGDD@?$AAe?$AAs?$AA?9?$AAp?$AAa?$AA?$AA@ 100245e4     libucrt:lcidtoname_downlevel.obj
 0002:000055f0       ??_C@_1M@EMAMGBGE@?$AAe?$AAs?$AA?9?$AAp?$AAe?$AA?$AA@ 100245f0     libucrt:lcidtoname_downlevel.obj
 0002:000055fc       ??_C@_1M@IBMCAOEC@?$AAe?$AAs?$AA?9?$AAp?$AAr?$AA?$AA@ 100245fc     libucrt:lcidtoname_downlevel.obj
 0002:00005608       ??_C@_1M@FGMDIJED@?$AAe?$AAs?$AA?9?$AAp?$AAy?$AA?$AA@ 10024608     libucrt:lcidtoname_downlevel.obj
 0002:00005614       ??_C@_1M@IIDEOLLL@?$AAe?$AAs?$AA?9?$AAs?$AAv?$AA?$AA@ 10024614     libucrt:lcidtoname_downlevel.obj
 0002:00005620       ??_C@_1M@GAOBIPA@?$AAe?$AAs?$AA?9?$AAu?$AAy?$AA?$AA@ 10024620     libucrt:lcidtoname_downlevel.obj
 0002:0000562c       ??_C@_1M@JKFFICHJ@?$AAe?$AAs?$AA?9?$AAv?$AAe?$AA?$AA@ 1002462c     libucrt:lcidtoname_downlevel.obj
 0002:00005638       ??_C@_1M@PNMLOJDF@?$AAe?$AAt?$AA?9?$AAe?$AAe?$AA?$AA@ 10024638     libucrt:lcidtoname_downlevel.obj
 0002:00005644       ??_C@_1M@GHHLIKEI@?$AAe?$AAu?$AA?9?$AAe?$AAs?$AA?$AA@ 10024644     libucrt:lcidtoname_downlevel.obj
 0002:00005650       ??_C@_1M@PBNONODE@?$AAf?$AAa?$AA?9?$AAi?$AAr?$AA?$AA@ 10024650     libucrt:lcidtoname_downlevel.obj
 0002:0000565c       ??_C@_1M@JEEHPMIL@?$AAf?$AAi?$AA?9?$AAf?$AAi?$AA?$AA@ 1002465c     libucrt:lcidtoname_downlevel.obj
 0002:00005668       ??_C@_1M@LMDCNDBA@?$AAf?$AAo?$AA?9?$AAf?$AAo?$AA?$AA@ 10024668     libucrt:lcidtoname_downlevel.obj
 0002:00005674       ??_C@_1M@JKEOHLDK@?$AAf?$AAr?$AA?9?$AAb?$AAe?$AA?$AA@ 10024674     libucrt:lcidtoname_downlevel.obj
 0002:00005680       ??_C@_1M@NOHADPMI@?$AAf?$AAr?$AA?9?$AAc?$AAa?$AA?$AA@ 10024680     libucrt:lcidtoname_downlevel.obj
 0002:0000568c       ??_C@_1M@KDHIHAEC@?$AAf?$AAr?$AA?9?$AAc?$AAh?$AA?$AA@ 1002468c     libucrt:lcidtoname_downlevel.obj
 0002:00005698       ??_C@_1M@MMBBFGAK@?$AAf?$AAr?$AA?9?$AAf?$AAr?$AA?$AA@ 10024698     libucrt:lcidtoname_downlevel.obj
 0002:000056a4       ??_C@_1M@PAFNENNF@?$AAf?$AAr?$AA?9?$AAl?$AAu?$AA?$AA@ 100246a4     libucrt:lcidtoname_downlevel.obj
 0002:000056b0       ??_C@_1M@EOHDJGDD@?$AAf?$AAr?$AA?9?$AAm?$AAc?$AA?$AA@ 100246b0     libucrt:lcidtoname_downlevel.obj
 0002:000056bc       ??_C@_1M@FAPLLOPF@?$AAg?$AAl?$AA?9?$AAe?$AAs?$AA?$AA@ 100246bc     libucrt:lcidtoname_downlevel.obj
 0002:000056c8       ??_C@_1M@FOPBFLOO@?$AAg?$AAu?$AA?9?$AAi?$AAn?$AA?$AA@ 100246c8     libucrt:lcidtoname_downlevel.obj
 0002:000056d4       ??_C@_1M@KBMCINPM@?$AAh?$AAe?$AA?9?$AAi?$AAl?$AA?$AA@ 100246d4     libucrt:lcidtoname_downlevel.obj
 0002:000056e0       ??_C@_1M@BBPHKFPJ@?$AAh?$AAi?$AA?9?$AAi?$AAn?$AA?$AA@ 100246e0     libucrt:lcidtoname_downlevel.obj
 0002:000056ec       ??_C@_1M@PMBNDPHD@?$AAh?$AAr?$AA?9?$AAb?$AAa?$AA?$AA@ 100246ec     libucrt:lcidtoname_downlevel.obj
 0002:000056f8       ??_C@_1M@BPCKOEGE@?$AAh?$AAr?$AA?9?$AAh?$AAr?$AA?$AA@ 100246f8     libucrt:lcidtoname_downlevel.obj
 0002:00005704       ??_C@_1M@GACBMHKE@?$AAh?$AAu?$AA?9?$AAh?$AAu?$AA?$AA@ 10024704     libucrt:lcidtoname_downlevel.obj
 0002:00005710       ??_C@_1M@MILPAJJC@?$AAh?$AAy?$AA?9?$AAa?$AAm?$AA?$AA@ 10024710     libucrt:lcidtoname_downlevel.obj
 0002:0000571c       ??_C@_1M@BABBICEC@?$AAi?$AAd?$AA?9?$AAi?$AAd?$AA?$AA@ 1002471c     libucrt:lcidtoname_downlevel.obj
 0002:00005728       ??_C@_1M@BIKNHHPF@?$AAi?$AAs?$AA?9?$AAi?$AAs?$AA?$AA@ 10024728     libucrt:lcidtoname_downlevel.obj
 0002:00005734       ??_C@_1M@NMPCJPHE@?$AAi?$AAt?$AA?9?$AAc?$AAh?$AA?$AA@ 10024734     libucrt:lcidtoname_downlevel.obj
 0002:00005740       ??_C@_1M@GHKGFEDF@?$AAi?$AAt?$AA?9?$AAi?$AAt?$AA?$AA@ 10024740     libucrt:lcidtoname_downlevel.obj
 0002:0000574c       ??_C@_1M@NIEJCJJA@?$AAj?$AAa?$AA?9?$AAj?$AAp?$AA?$AA@ 1002474c     libucrt:lcidtoname_downlevel.obj
 0002:00005758       ??_C@_1M@JILFNBIM@?$AAk?$AAa?$AA?9?$AAg?$AAe?$AA?$AA@ 10024758     libucrt:lcidtoname_downlevel.obj
 0002:00005764       ??_C@_1M@PACPMGPH@?$AAk?$AAk?$AA?9?$AAk?$AAz?$AA?$AA@ 10024764     libucrt:lcidtoname_downlevel.obj
 0002:00005770       ??_C@_1M@IELFGMHA@?$AAk?$AAn?$AA?9?$AAi?$AAn?$AA?$AA@ 10024770     libucrt:lcidtoname_downlevel.obj
 0002:0000577c       ??_C@_1O@IBBJHCH@?$AAk?$AAo?$AAk?$AA?9?$AAi?$AAn?$AA?$AA@ 1002477c     libucrt:lcidtoname_downlevel.obj
 0002:0000578c       ??_C@_1M@DMHAEOGC@?$AAk?$AAo?$AA?9?$AAk?$AAr?$AA?$AA@ 1002478c     libucrt:lcidtoname_downlevel.obj
 0002:00005798       ??_C@_1M@HBAHBIGA@?$AAk?$AAy?$AA?9?$AAk?$AAg?$AA?$AA@ 10024798     libucrt:lcidtoname_downlevel.obj
 0002:000057a4       ??_C@_1M@KPMILCJG@?$AAl?$AAt?$AA?9?$AAl?$AAt?$AA?$AA@ 100247a4     libucrt:lcidtoname_downlevel.obj
 0002:000057b0       ??_C@_1M@BDEKKCA@?$AAl?$AAv?$AA?9?$AAl?$AAv?$AA?$AA@ 100247b0     libucrt:lcidtoname_downlevel.obj
 0002:000057bc       ??_C@_1M@ELCKCCJJ@?$AAm?$AAi?$AA?9?$AAn?$AAz?$AA?$AA@ 100247bc     libucrt:lcidtoname_downlevel.obj
 0002:000057c8       ??_C@_1M@CBOOLAPA@?$AAm?$AAk?$AA?9?$AAm?$AAk?$AA?$AA@ 100247c8     libucrt:lcidtoname_downlevel.obj
 0002:000057d4       ??_C@_1M@GPHNBJKN@?$AAm?$AAl?$AA?9?$AAi?$AAn?$AA?$AA@ 100247d4     libucrt:lcidtoname_downlevel.obj
 0002:000057e0       ??_C@_1M@PABJILIG@?$AAm?$AAn?$AA?9?$AAm?$AAn?$AA?$AA@ 100247e0     libucrt:lcidtoname_downlevel.obj
 0002:000057ec       ??_C@_1M@FGBKKIPG@?$AAm?$AAr?$AA?9?$AAi?$AAn?$AA?$AA@ 100247ec     libucrt:lcidtoname_downlevel.obj
 0002:000057f8       ??_C@_1M@NDBPDDAL@?$AAm?$AAs?$AA?9?$AAb?$AAn?$AA?$AA@ 100247f8     libucrt:lcidtoname_downlevel.obj
 0002:00005804       ??_C@_1M@OPIHOOPI@?$AAm?$AAs?$AA?9?$AAm?$AAy?$AA?$AA@ 10024804     libucrt:lcidtoname_downlevel.obj
 0002:00005810       ??_C@_1M@PPDBCNFM@?$AAm?$AAt?$AA?9?$AAm?$AAt?$AA?$AA@ 10024810     libucrt:lcidtoname_downlevel.obj
 0002:0000581c       ??_C@_1M@KDJDKMDD@?$AAn?$AAb?$AA?9?$AAn?$AAo?$AA?$AA@ 1002481c     libucrt:lcidtoname_downlevel.obj
 0002:00005828       ??_C@_1M@KFCFLMJP@?$AAn?$AAl?$AA?9?$AAb?$AAe?$AA?$AA@ 10024828     libucrt:lcidtoname_downlevel.obj
 0002:00005834       ??_C@_1M@KPOPDDGO@?$AAn?$AAl?$AA?9?$AAn?$AAl?$AA?$AA@ 10024834     libucrt:lcidtoname_downlevel.obj
 0002:00005840       ??_C@_1M@LJKPEMLN@?$AAn?$AAn?$AA?9?$AAn?$AAo?$AA?$AA@ 10024840     libucrt:lcidtoname_downlevel.obj
 0002:0000584c       ??_C@_1M@BDGHHBFL@?$AAn?$AAs?$AA?9?$AAz?$AAa?$AA?$AA@ 1002484c     libucrt:lcidtoname_downlevel.obj
 0002:00005858       ??_C@_1M@IDEHOAP@?$AAp?$AAa?$AA?9?$AAi?$AAn?$AA?$AA@ 10024858     libucrt:lcidtoname_downlevel.obj
 0002:00005864       ??_C@_1M@HDBKGOGH@?$AAp?$AAl?$AA?9?$AAp?$AAl?$AA?$AA@ 10024864     libucrt:lcidtoname_downlevel.obj
 0002:00005870       ??_C@_1M@LJLLCMEH@?$AAp?$AAt?$AA?9?$AAb?$AAr?$AA?$AA@ 10024870     libucrt:lcidtoname_downlevel.obj
 0002:0000587c       ??_C@_1M@NCMONAAL@?$AAp?$AAt?$AA?9?$AAp?$AAt?$AA?$AA@ 1002487c     libucrt:lcidtoname_downlevel.obj
 0002:00005888       ??_C@_1O@EAKMAJDN@?$AAq?$AAu?$AAz?$AA?9?$AAb?$AAo?$AA?$AA@ 10024888     libucrt:lcidtoname_downlevel.obj
 0002:00005898       ??_C@_1O@BHHPIGDN@?$AAq?$AAu?$AAz?$AA?9?$AAe?$AAc?$AA?$AA@ 10024898     libucrt:lcidtoname_downlevel.obj
 0002:000058a8       ??_C@_1O@GBAPEKMJ@?$AAq?$AAu?$AAz?$AA?9?$AAp?$AAe?$AA?$AA@ 100248a8     libucrt:lcidtoname_downlevel.obj
 0002:000058b8       ??_C@_1M@CLGLEFBO@?$AAr?$AAo?$AA?9?$AAr?$AAo?$AA?$AA@ 100248b8     libucrt:lcidtoname_downlevel.obj
 0002:000058c4       ??_C@_1M@CEEDODME@?$AAr?$AAu?$AA?9?$AAr?$AAu?$AA?$AA@ 100248c4     libucrt:lcidtoname_downlevel.obj
 0002:000058d0       ??_C@_1M@HPKKKMPP@?$AAs?$AAa?$AA?9?$AAi?$AAn?$AA?$AA@ 100248d0     libucrt:lcidtoname_downlevel.obj
 0002:000058dc       ??_C@_1M@BKMAIGOJ@?$AAs?$AAe?$AA?9?$AAf?$AAi?$AA?$AA@ 100248dc     libucrt:lcidtoname_downlevel.obj
 0002:000058e8       ??_C@_1M@NDPIFLFI@?$AAs?$AAe?$AA?9?$AAn?$AAo?$AA?$AA@ 100248e8     libucrt:lcidtoname_downlevel.obj
 0002:000058f4       ??_C@_1M@DANKKHJ@?$AAs?$AAe?$AA?9?$AAs?$AAe?$AA?$AA@ 100248f4     libucrt:lcidtoname_downlevel.obj
 0002:00005900       ??_C@_1M@PNBLONPJ@?$AAs?$AAk?$AA?9?$AAs?$AAk?$AA?$AA@ 10024900     libucrt:lcidtoname_downlevel.obj
 0002:0000590c       ??_C@_1M@LFMODOAL@?$AAs?$AAl?$AA?9?$AAs?$AAi?$AA?$AA@ 1002490c     libucrt:lcidtoname_downlevel.obj
 0002:00005918       ??_C@_1O@DFKOMPG@?$AAs?$AAm?$AAa?$AA?9?$AAn?$AAo?$AA?$AA@ 10024918     libucrt:lcidtoname_downlevel.obj
 0002:00005928       ??_C@_1O@NDKPBNNH@?$AAs?$AAm?$AAa?$AA?9?$AAs?$AAe?$AA?$AA@ 10024928     libucrt:lcidtoname_downlevel.obj
 0002:00005938       ??_C@_1O@PLLKBHAB@?$AAs?$AAm?$AAj?$AA?9?$AAn?$AAo?$AA?$AA@ 10024938     libucrt:lcidtoname_downlevel.obj
 0002:00005948       ??_C@_1O@CLEPOGCA@?$AAs?$AAm?$AAj?$AA?9?$AAs?$AAe?$AA?$AA@ 10024948     libucrt:lcidtoname_downlevel.obj
 0002:00005958       ??_C@_1O@DLGJGKMK@?$AAs?$AAm?$AAn?$AA?9?$AAf?$AAi?$AA?$AA@ 10024958     libucrt:lcidtoname_downlevel.obj
 0002:00005968       ??_C@_1O@OJDJGAJC@?$AAs?$AAm?$AAs?$AA?9?$AAf?$AAi?$AA?$AA@ 10024968     libucrt:lcidtoname_downlevel.obj
 0002:00005978       ??_C@_1M@BOFOGHPB@?$AAs?$AAq?$AA?9?$AAa?$AAl?$AA?$AA@ 10024978     libucrt:lcidtoname_downlevel.obj
 0002:00005984       ??_C@_1BG@LJBBIPGB@?$AAs?$AAr?$AA?9?$AAb?$AAa?$AA?9?$AAc?$AAy?$AAr?$AAl?$AA?$AA@ 10024984     libucrt:lcidtoname_downlevel.obj
 0002:0000599c       ??_C@_1BG@JLBENFOE@?$AAs?$AAr?$AA?9?$AAb?$AAa?$AA?9?$AAl?$AAa?$AAt?$AAn?$AA?$AA@ 1002499c     libucrt:lcidtoname_downlevel.obj
 0002:000059b4       ??_C@_1BG@KODPNHE@?$AAs?$AAr?$AA?9?$AAs?$AAp?$AA?9?$AAc?$AAy?$AAr?$AAl?$AA?$AA@ 100249b4     libucrt:lcidtoname_downlevel.obj
 0002:000059cc       ??_C@_1BG@CIOGKHPB@?$AAs?$AAr?$AA?9?$AAs?$AAp?$AA?9?$AAl?$AAa?$AAt?$AAn?$AA?$AA@ 100249cc     libucrt:lcidtoname_downlevel.obj
 0002:000059e4       ??_C@_1M@NGFJLMAC@?$AAs?$AAv?$AA?9?$AAf?$AAi?$AA?$AA@ 100249e4     libucrt:lcidtoname_downlevel.obj
 0002:000059f0       ??_C@_1M@MPJEJAJC@?$AAs?$AAv?$AA?9?$AAs?$AAe?$AA?$AA@ 100249f0     libucrt:lcidtoname_downlevel.obj
 0002:000059fc       ??_C@_1M@MPNDHLFK@?$AAs?$AAw?$AA?9?$AAk?$AAe?$AA?$AA@ 100249fc     libucrt:lcidtoname_downlevel.obj
 0002:00005a08       ??_C@_1O@KOHBJJI@?$AAs?$AAy?$AAr?$AA?9?$AAs?$AAy?$AA?$AA@ 10024a08     libucrt:lcidtoname_downlevel.obj
 0002:00005a18       ??_C@_1M@LDCEFHA@?$AAt?$AAa?$AA?9?$AAi?$AAn?$AA?$AA@ 10024a18     libucrt:lcidtoname_downlevel.obj
 0002:00005a24       ??_C@_1M@CNJOFAK@?$AAt?$AAe?$AA?9?$AAi?$AAn?$AA?$AA@ 10024a24     libucrt:lcidtoname_downlevel.obj
 0002:00005a30       ??_C@_1M@GNAECACD@?$AAt?$AAh?$AA?9?$AAt?$AAh?$AA?$AA@ 10024a30     libucrt:lcidtoname_downlevel.obj
 0002:00005a3c       ??_C@_1M@CHBIHOJO@?$AAt?$AAn?$AA?9?$AAz?$AAa?$AA?$AA@ 10024a3c     libucrt:lcidtoname_downlevel.obj
 0002:00005a48       ??_C@_1M@GCCMIGPJ@?$AAt?$AAr?$AA?9?$AAt?$AAr?$AA?$AA@ 10024a48     libucrt:lcidtoname_downlevel.obj
 0002:00005a54       ??_C@_1M@CELMCNBK@?$AAt?$AAt?$AA?9?$AAr?$AAu?$AA?$AA@ 10024a54     libucrt:lcidtoname_downlevel.obj
 0002:00005a60       ??_C@_1M@KLMCELGA@?$AAu?$AAk?$AA?9?$AAu?$AAa?$AA?$AA@ 10024a60     libucrt:lcidtoname_downlevel.obj
 0002:00005a6c       ??_C@_1M@EPAJJAJF@?$AAu?$AAr?$AA?9?$AAp?$AAk?$AA?$AA@ 10024a6c     libucrt:lcidtoname_downlevel.obj
 0002:00005a78       ??_C@_1BG@GEGPMCDJ@?$AAu?$AAz?$AA?9?$AAu?$AAz?$AA?9?$AAc?$AAy?$AAr?$AAl?$AA?$AA@ 10024a78     libucrt:lcidtoname_downlevel.obj
 0002:00005a90       ??_C@_1BG@EGGKJILM@?$AAu?$AAz?$AA?9?$AAu?$AAz?$AA?9?$AAl?$AAa?$AAt?$AAn?$AA?$AA@ 10024a90     libucrt:lcidtoname_downlevel.obj
 0002:00005aa8       ??_C@_1M@GFOCLFF@?$AAv?$AAi?$AA?9?$AAv?$AAn?$AA?$AA@ 10024aa8     libucrt:lcidtoname_downlevel.obj
 0002:00005ab4       ??_C@_1M@CPAMEDFI@?$AAx?$AAh?$AA?9?$AAz?$AAa?$AA?$AA@ 10024ab4     libucrt:lcidtoname_downlevel.obj
 0002:00005ac0       ??_C@_1O@EBKIFIGN@?$AAz?$AAh?$AA?9?$AAc?$AAh?$AAs?$AA?$AA@ 10024ac0     libucrt:lcidtoname_downlevel.obj
 0002:00005ad0       ??_C@_1O@NMHPGANE@?$AAz?$AAh?$AA?9?$AAc?$AAh?$AAt?$AA?$AA@ 10024ad0     libucrt:lcidtoname_downlevel.obj
 0002:00005ae0       ??_C@_1M@LPINJOMC@?$AAz?$AAh?$AA?9?$AAc?$AAn?$AA?$AA@ 10024ae0     libucrt:lcidtoname_downlevel.obj
 0002:00005aec       ??_C@_1M@OCJEJODD@?$AAz?$AAh?$AA?9?$AAh?$AAk?$AA?$AA@ 10024aec     libucrt:lcidtoname_downlevel.obj
 0002:00005af8       ??_C@_1M@DNDLJINH@?$AAz?$AAh?$AA?9?$AAm?$AAo?$AA?$AA@ 10024af8     libucrt:lcidtoname_downlevel.obj
 0002:00005b04       ??_C@_1M@MBFDNDND@?$AAz?$AAh?$AA?9?$AAs?$AAg?$AA?$AA@ 10024b04     libucrt:lcidtoname_downlevel.obj
 0002:00005b10       ??_C@_1M@IMEPLEPE@?$AAz?$AAh?$AA?9?$AAt?$AAw?$AA?$AA@ 10024b10     libucrt:lcidtoname_downlevel.obj
 0002:00005b1c       ??_C@_1M@BBGHNHJP@?$AAz?$AAu?$AA?9?$AAz?$AAa?$AA?$AA@ 10024b1c     libucrt:lcidtoname_downlevel.obj
 0002:00005b28       ?large_power_data@?1??multiply_by_power_of_ten@__crt_strtox@@YA_NAAUbig_integer@2@I@Z@4QBIB 10024b28     libucrt:cfout.obj
 0002:00006430       ?large_power_indices@?1??multiply_by_power_of_ten@__crt_strtox@@YA_NAAUbig_integer@2@I@Z@4QBUunpack_index@?1??12@YA_N0I@Z@B 10025430     libucrt:cfout.obj
 0002:000064c8       ?small_powers_of_ten@?6??multiply_by_power_of_ten@__crt_strtox@@YA_NAAUbig_integer@2@I@Z@4QBIB 100254c8     libucrt:cfout.obj
 0002:000064ec       ??_C@_01GBGANLPD@0?$AA@    100254ec     libucrt:cfout.obj
 0002:000064f0       ??_C@_05DNEBIAHO@1?$CDINF?$AA@ 100254f0     libucrt:cfout.obj
 0002:000064f8       ??_C@_06IMKFLFPG@1?$CDQNAN?$AA@ 100254f8     libucrt:cfout.obj
 0002:00006500       ??_C@_06PGGFOGJG@1?$CDSNAN?$AA@ 10025500     libucrt:cfout.obj
 0002:00006508       ??_C@_05PHHOCPM@1?$CDIND?$AA@ 10025508     libucrt:cfout.obj
 0002:00006670       __infinity                 10025670     libucrt:87tran.obj
 0002:0000667a       __minfinity                1002567a     libucrt:87tran.obj
 0002:00006684       __logemax                  10025684     libucrt:87tran.obj
 0002:000066aa       __OP_EXPjmptab             100256aa     libucrt:87tran.obj
 0002:000066d0       __indefinite               100256d0     libucrt:87disp.obj
 0002:000066da       __piby2                    100256da     libucrt:87disp.obj
 0002:000066e4       __piby4                    100256e4     libucrt:87disp.obj
 0002:00006718       __DEFAULT_CW_in_mem        10025718     libucrt:common.obj
 0002:0000671a       __pi_by_2_to_61            1002571a     libucrt:common.obj
 0002:00006754       ??_C@_03MGHMBJCF@log?$AA@  10025754     libucrt:libm_error.obj
 0002:00006758       ??_C@_05HGHHAHAP@log10?$AA@ 10025758     libucrt:libm_error.obj
 0002:00006760       ??_C@_03KHJOGHMM@exp?$AA@  10025760     libucrt:libm_error.obj
 0002:00006764       ??_C@_03JGHBODFD@pow?$AA@  10025764     libucrt:libm_error.obj
 0002:00006768       ??_C@_04FIHNOPOL@asin?$AA@ 10025768     libucrt:libm_error.obj
 0002:00006770       ??_C@_04PDIFKINK@acos?$AA@ 10025770     libucrt:libm_error.obj
 0002:00006778       ??_C@_04EIAKFFMI@sqrt?$AA@ 10025778     libucrt:libm_error.obj
 0002:00006780       __real@3ff0000000000000    10025780     libucrt:libm_error.obj
 0002:000067a0       ___acrt_log10_table_t      100257a0     libucrt:log10_tables.obj
 0002:00006bb0       ___acrt_log10_table_cb     10025bb0     libucrt:log10_tables.obj
 0002:00006fc0       __real@3fe0000000000000    10025fc0     libucrt:powhlp.obj
 0002:00006fc8       ??_C@_04FJHINJAO@tanh?$AA@ 10025fc8     libucrt:fpexcept.obj
 0002:00006fd0       ??_C@_04MLLJIGOK@atan?$AA@ 10025fd0     libucrt:fpexcept.obj
 0002:00006fd8       ??_C@_05KNGEOGJB@atan2?$AA@ 10025fd8     libucrt:fpexcept.obj
 0002:00006fe0       ??_C@_03BLEJJJBH@sin?$AA@  10025fe0     libucrt:fpexcept.obj
 0002:00006fe4       ??_C@_03LALBNOCG@cos?$AA@  10025fe4     libucrt:fpexcept.obj
 0002:00006fe8       ??_C@_03IIINPABG@tan?$AA@  10025fe8     libucrt:fpexcept.obj
 0002:00006fec       ??_C@_04GFPJNGEK@ceil?$AA@ 10025fec     libucrt:fpexcept.obj
 0002:00006ff4       ??_C@_05PBJFFIGL@floor?$AA@ 10025ff4     libucrt:fpexcept.obj
 0002:00006ffc       ??_C@_04ODHECPBC@fabs?$AA@ 10025ffc     libucrt:fpexcept.obj
 0002:00007004       ??_C@_04EHEDPDJG@modf?$AA@ 10026004     libucrt:fpexcept.obj
 0002:0000700c       ??_C@_05CEJMAHNP@ldexp?$AA@ 1002600c     libucrt:fpexcept.obj
 0002:00007014       ??_C@_05KBKMEMPO@_cabs?$AA@ 10026014     libucrt:fpexcept.obj
 0002:0000701c       ??_C@_06MEIMCGCF@_hypot?$AA@ 1002601c     libucrt:fpexcept.obj
 0002:00007024       ??_C@_04KEPJIHGP@fmod?$AA@ 10026024     libucrt:fpexcept.obj
 0002:0000702c       ??_C@_05GKKHEGJL@frexp?$AA@ 1002602c     libucrt:fpexcept.obj
 0002:00007034       ??_C@_03MJLDFKDL@_y0?$AA@  10026034     libucrt:fpexcept.obj
 0002:00007038       ??_C@_03NAKIGLHK@_y1?$AA@  10026038     libucrt:fpexcept.obj
 0002:0000703c       ??_C@_03ONILCKOB@_yn?$AA@  1002603c     libucrt:fpexcept.obj
 0002:00007040       ??_C@_05JGDBENOH@_logb?$AA@ 10026040     libucrt:fpexcept.obj
 0002:00007048       ??_C@_0L@KDOEJCKC@_nextafter?$AA@ 10026048     libucrt:fpexcept.obj
 0002:00007140       ??_C@_04COOMCNPB@sinh?$AA@ 10026140     libucrt:fpexcept.obj
 0002:00007148       ??_C@_04HPJJNFIM@cosh?$AA@ 10026148     libucrt:fpexcept.obj
 0002:00007150       __d_inf                    10026150     libucrt:util.obj
 0002:00007158       __d_max                    10026158     libucrt:util.obj
 0002:00007160       __d_mzero                  10026160     libucrt:util.obj
 0002:00007168       ??_C@_1BA@BALFACEM@?$AAC?$AAO?$AAN?$AAO?$AAU?$AAT?$AA$?$AA?$AA@ 10026168     libucrt:initcon.obj
 0002:000071d8       __load_config_used         100261d8     LIBCMT:loadcfg.obj
 0002:00007278       __tls_used                 10026278     LIBCMT:tlssup.obj
 0002:00007290       ??_R4exception@std@@6B@    10026290     LIBCMT:throw_bad_alloc.obj
 0002:000072a4       ??_R3exception@std@@8      100262a4     LIBCMT:throw_bad_alloc.obj
 0002:000072b4       ??_R2exception@std@@8      100262b4     LIBCMT:throw_bad_alloc.obj
 0002:000072bc       ??_R1A@?0A@EA@exception@std@@8 100262bc     LIBCMT:throw_bad_alloc.obj
 0002:000072d8       ??_R4bad_alloc@std@@6B@    100262d8     LIBCMT:throw_bad_alloc.obj
 0002:000072ec       ??_R3bad_alloc@std@@8      100262ec     LIBCMT:throw_bad_alloc.obj
 0002:000072fc       ??_R2bad_alloc@std@@8      100262fc     LIBCMT:throw_bad_alloc.obj
 0002:00007308       ??_R1A@?0A@EA@bad_alloc@std@@8 10026308     LIBCMT:throw_bad_alloc.obj
 0002:00007324       ??_R4bad_array_new_length@std@@6B@ 10026324     LIBCMT:throw_bad_alloc.obj
 0002:00007338       ??_R3bad_array_new_length@std@@8 10026338     LIBCMT:throw_bad_alloc.obj
 0002:00007348       ??_R2bad_array_new_length@std@@8 10026348     LIBCMT:throw_bad_alloc.obj
 0002:00007358       ??_R1A@?0A@EA@bad_array_new_length@std@@8 10026358     LIBCMT:throw_bad_alloc.obj
 0002:00007374       ??_R4type_info@@6B@        10026374     LIBCMT:std_type_info_static.obj
 0002:00007388       ??_R3type_info@@8          10026388     LIBCMT:std_type_info_static.obj
 0002:00007398       ??_R2type_info@@8          10026398     LIBCMT:std_type_info_static.obj
 0002:000073a0       ??_R1A@?0A@EA@type_info@@8 100263a0     LIBCMT:std_type_info_static.obj
 0002:000073bc       ??_R4bad_exception@std@@6B@ 100263bc     libvcruntime:frame.obj
 0002:000073d0       ??_R3bad_exception@std@@8  100263d0     libvcruntime:frame.obj
 0002:000073e0       ??_R2bad_exception@std@@8  100263e0     libvcruntime:frame.obj
 0002:000073ec       ??_R1A@?0A@EA@bad_exception@std@@8 100263ec     libvcruntime:frame.obj
 0002:00007410       ___safe_se_handler_table   10026410     <linker-defined>
 0002:0000780c       ___rtc_iaa                 1002680c     LIBCMT:initsect.obj
 0002:00007810       ___rtc_izz                 10026810     LIBCMT:initsect.obj
 0002:00007814       ___rtc_taa                 10026814     LIBCMT:initsect.obj
 0002:00007818       ___rtc_tzz                 10026818     LIBCMT:initsect.obj
 0002:0000781c       __tls_start                1002681c     LIBCMT:tlssup.obj
 0002:00007820       __Init_thread_epoch        10026820     LIBCMT:thread_safe_statics.obj
 0002:00007824       __tls_end                  10026824     LIBCMT:tlssup.obj
 0002:0000793c       __TI2?AVbad_alloc@std@@    1002693c     LIBCMT:throw_bad_alloc.obj
 0002:0000794c       __CTA2?AVbad_alloc@std@@   1002694c     LIBCMT:throw_bad_alloc.obj
 0002:00007958       __CT??_R0?AVbad_alloc@std@@@8??0bad_alloc@std@@QAE@ABV01@@Z12 10026958     LIBCMT:throw_bad_alloc.obj
 0002:00007974       __CT??_R0?AVexception@std@@@8??0exception@std@@QAE@ABV01@@Z12 10026974     LIBCMT:throw_bad_alloc.obj
 0002:00007990       __TI3?AVbad_array_new_length@std@@ 10026990     LIBCMT:throw_bad_alloc.obj
 0002:000079a0       __CTA3?AVbad_array_new_length@std@@ 100269a0     LIBCMT:throw_bad_alloc.obj
 0002:000079b0       __CT??_R0?AVbad_array_new_length@std@@@8??0bad_array_new_length@std@@QAE@ABV01@@Z12 100269b0     LIBCMT:throw_bad_alloc.obj
 0002:00007ab4       __TI2?AVbad_exception@std@@ 10026ab4     libvcruntime:frame.obj
 0002:00007ac4       __CTA2?AVbad_exception@std@@ 10026ac4     libvcruntime:frame.obj
 0002:00007ad0       __CT??_R0?AVbad_exception@std@@@8??0bad_exception@std@@QAE@ABV01@@Z12 10026ad0     libvcruntime:frame.obj
 0002:00007e1c       ___pobjMapEntryFirst       10026e1c     OposVariant.obj
 0002:00007e20       ___pobjMapEntryLast        10026e20     OposVariant.obj
 0002:00007ed8       __IMPORT_DESCRIPTOR_KERNEL32 10026ed8     kernel32:KERNEL32.dll
 0002:00007eec       __IMPORT_DESCRIPTOR_USER32 10026eec     user32:USER32.dll
 0002:00007f00       __IMPORT_DESCRIPTOR_GDI32  10026f00     gdi32:GDI32.dll
 0002:00007f14       __IMPORT_DESCRIPTOR_ADVAPI32 10026f14     advapi32:ADVAPI32.dll
 0002:00007f28       __IMPORT_DESCRIPTOR_ole32  10026f28     ole32:ole32.dll
 0002:00007f3c       __IMPORT_DESCRIPTOR_OLEAUT32 10026f3c     oleaut32:OLEAUT32.dll
 0002:00007f50       __NULL_IMPORT_DESCRIPTOR   10026f50     kernel32:KERNEL32.dll
 0003:00000000       ?wc@?1??GetWndClassInfo@?$CWindowImpl@VCOPOSPINPad@@VCWindow@ATL@@V?$CWinTraits@$0FGAAAAAA@$0A@@3@@ATL@@SAAAU_ATL_WNDCLASSINFOW@3@XZ@4U43@A 10028000     PINPad.obj
 0003:0000008c       ?s_Claim@?7??GetIDsOfNames@CComTypeInfoHolder@ATL@@QAEJABU_GUID@@PAPA_WIKPAJ@Z@4PA_WA 1002808c     PINPad.obj
 0003:000000a4       ?s_Release@?7??GetIDsOfNames@CComTypeInfoHolder@ATL@@QAEJABU_GUID@@PAPA_WIKPAJ@Z@4PA_WA 100280a4     PINPad.obj
 0003:000000c0       ?rcDefault@CWindow@ATL@@2UtagRECT@@A 100280c0     PINPad.obj
 0003:000000d0       ?_tih@?$IDispatchImpl@UIOPOSPINPad@@$1?IID_IOPOSPINPad@@3U_GUID@@B$1?LIBID_OposPINPad_CCO@@3U3@B$00$0A@VCComTypeInfoHolder@ATL@@@ATL@@1VCComTypeInfoHolder@2@A 100280d0     PINPad.obj
 0003:000000ec       ?_tih@?$IProvideClassInfo2Impl@$1?CLSID_OPOSPINPad@@3U_GUID@@B$1?DIID__IOPOSPINPadEvents@@3U2@B$1?LIBID_OposPINPad_CCO@@3U2@B$00$0A@VCComTypeInfoHolder@ATL@@@ATL@@1VCComTypeInfoHolder@2@A 100280ec     PINPad.obj
 0003:00000108       ?vszContents@?6??Save@?$IPersistStorageImpl@VCOPOSPINPad@@@ATL@@UAGJPAUIStorage@@H@Z@4PB_WB 10028108     PINPad.obj
 0003:00000158       ?g_WindowName@@3PA_WA      10028158     PINPadImpl.obj
 0003:00000174       ?g_ControlDescription@@3PADA 10028174     PINPadImpl.obj
 0003:000001a8       ?g_ControlVersion@@3JA     100281a8     PINPadImpl.obj
 0003:0000023c       ___scrt_native_dllmain_reason 1002823c     LIBCMT:utility.obj
 0003:00000240       __Init_global_epoch        10028240     LIBCMT:thread_safe_statics.obj
 0003:00000250       ___security_cookie_complement 10028250     LIBCMT:gs_cookie.obj
 0003:00000254       ___security_cookie         10028254     LIBCMT:gs_cookie.obj
 0003:00000258       ___isa_enabled             10028258     LIBCMT:cpu_disp.obj
 0003:00000270       __NLG_Destination          10028270     libvcruntime:exsup.obj
 0003:00000288       ___abort_behavior          10028288     libucrt:abort.obj
 0003:00000298       __iob                      10028298     libucrt:_file.obj
 0003:00000340       ___acrt_initial_locale_data 10028340     libucrt:nlsdata.obj
 0003:000003f8       ___acrt_initial_locale_pointers 100283f8     libucrt:nlsdata.obj
 0003:00000400       ___acrt_wide_c_locale_string 10028400     libucrt:nlsdata.obj
 0003:000004f8       __mbctype                  100284f8     libucrt:mbctype.obj
 0003:00000600       __mbcasemap                10028600     libucrt:mbctype.obj
 0003:00000700       ___acrt_initial_multibyte_data 10028700     libucrt:mbctype.obj
 0003:00000920       ___acrt_current_multibyte_data 10028920     libucrt:mbctype.obj
 0003:00000924       __pwctype                  10028924     libucrt:ctype.obj
 0003:00000928       ___globallocalestatus      10028928     libucrt:glstatus.obj
 0003:0000092c       ___acrt_lconv_static_decimal 1002892c     libucrt:localeconv.obj
 0003:00000930       ___acrt_lconv_static_W_decimal 10028930     libucrt:localeconv.obj
 0003:00000938       ___acrt_lconv_c            10028938     libucrt:localeconv.obj
 0003:00000990       ___dcrt_lowio_console_output_handle 10028990     libucrt:initcon.obj
 0003:000009a0       __fltused                  100289a0     LIBCMT:fltused.obj
 0003:000009b0       ??_R0?AVbad_alloc@std@@@8  100289b0     LIBCMT:throw_bad_alloc.obj
 0003:000009cc       ??_R0?AVexception@std@@@8  100289cc     LIBCMT:throw_bad_alloc.obj
 0003:000009e8       ??_R0?AVbad_array_new_length@std@@@8 100289e8     LIBCMT:throw_bad_alloc.obj
 0003:00000a10       ??_R0?AVtype_info@@@8      10028a10     LIBCMT:std_type_info_static.obj
 0003:00000a28       ??_R0?AVbad_exception@std@@@8 10028a28     libvcruntime:frame.obj
 0003:00000a48       ?m_bInitFailed@CAtlBaseModule@ATL@@2_NA 10028a48     OposVariant.obj
 0003:00000a4c       ?_pPerfRegFunc@ATL@@3P6AJPAUHINSTANCE__@@@ZA 10028a4c     OposVariant.obj
 0003:00000a50       ?_pPerfUnRegFunc@ATL@@3P6AJXZA 10028a50     OposVariant.obj
 0003:00000a54       ?_AtlRegisterPerUser@ATL@@3_NA 10028a54     OposVariant.obj
 0003:00000a58       ?_pAtlModule@ATL@@3PAVCAtlModule@1@A 10028a58     OposVariant.obj
 0003:00000a5c       ?_pModule@ATL@@3PAVCComModule@1@A 10028a5c     OposVariant.obj
 0003:00000a60       ?_AtlComModule@ATL@@3VCAtlComModule@1@A 10028a60     OposVariant.obj
 0003:00000a88       ?_AtlWinModule@ATL@@3VCAtlWinModule@1@A 10028a88     OposVariant.obj
 0003:00000ab4       ?m_libid@CAtlModule@ATL@@2U_GUID@@A 10028ab4     PINPad.obj
 0003:00000ac4       ?_entries@?1??GetConnMap@COPOSPINPad@@SAPBU_ATL_CONNMAP_ENTRY@ATL@@PAH@Z@4QBU34@B 10028ac4     PINPad.obj
 0003:00000ad0       ?$TSS0@?1??GetConnMap@COPOSPINPad@@SAPBU_ATL_CONNMAP_ENTRY@ATL@@PAH@Z@4HA 10028ad0     PINPad.obj
 0003:00000ad8       ?_OptionsStorage@?1??__local_stdio_printf_options@@9@4_KA 10028ad8     PINPad.obj
 0003:00000ae0       ?pfnRegDeleteKeyEx@?1??DeleteSubKey@CRegKey@ATL@@QAEJPB_W@Z@4P6GJPAUHKEY__@@0KK@ZA 10028ae0     PINPad.obj
 0003:00000ae4       ?bInitialized@?1??DeleteSubKey@CRegKey@ATL@@QAEJPB_W@Z@4_NA 10028ae4     PINPad.obj
 0003:00000ae8       ?_Module@@3VCComModule@ATL@@A 10028ae8     PINPad.obj
 0003:00000b18       ?pConnMap@?$IConnectionPointContainerImpl@VCOPOSPINPad@@@ATL@@0PBU_ATL_CONNMAP_ENTRY@2@B 10028b18     PINPad.obj
 0003:00000b1c       ?s_nInstances@COPOSPINPad@@1HA 10028b1c     PINPadImpl.obj
 0003:00000b20       ___scrt_current_native_startup_state 10028b20     LIBCMT:utility.obj
 0003:00000b24       ___scrt_native_startup_lock 10028b24     LIBCMT:utility.obj
 0003:00000e8c       __tls_index                10028e8c     LIBCMT:tlssup.obj
 0003:00000e94       ___isa_available           10028e94     LIBCMT:cpu_disp.obj
 0003:00000e98       ___favor                   10028e98     LIBCMT:cpu_disp.obj
 0003:00000e9c       ___scrt_debugger_hook_flag 10028e9c     LIBCMT:utility_desktop.obj
 0003:00000ea0       ?__type_info_root_node@@3U__type_info_node@@A 10028ea0     LIBCMT:tncleanup.obj
 0003:00000ea8       ?_OptionsStorage@?1??__local_stdio_scanf_options@@9@4_KA 10028ea8     LIBCMT:default_local_stdio_options.obj
 0003:00000eb0       ?_AtlBaseModule@ATL@@3VCAtlBaseModule@1@A 10028eb0     atls:atlbase.obj
 0003:00000ee8       ?__AtlThunkPool@@3PAT_SLIST_HEADER@@A 10028ee8     atls:atlthunk.obj
 0003:00000f00       ___@@_PchSym_@00@UztvmgUPdlipUDUhUrmgvinvwrzgvUexgllohUzgohOmzgrevkilqPBACIAJCBDBUlyqiUcIGUhgwzucOlyq@4B2008FD98C1DD4 10028f00     atls:stdafx.obj
 0003:00000f04       ___pPurecall               10028f04     libvcruntime:purevirt_data.obj
 0003:00000f6c       ?pArgList@UnDecorator@@0PAVReplicator@@A 10028f6c     libvcruntime:undname.obj
 0003:00000f70       ?pZNameList@UnDecorator@@0PAVReplicator@@A 10028f70     libvcruntime:undname.obj
 0003:00000f74       ?pTemplateArgList@UnDecorator@@0PAVReplicator@@A 10028f74     libvcruntime:undname.obj
 0003:00000f78       ?gName@UnDecorator@@0PBDB  10028f78     libvcruntime:undname.obj
 0003:00000f7c       ?name@UnDecorator@@0PBDB   10028f7c     libvcruntime:undname.obj
 0003:00000f80       ?disableFlags@UnDecorator@@0KA 10028f80     libvcruntime:undname.obj
 0003:00000f84       ?fExplicitTemplateParams@UnDecorator@@0_NA 10028f84     libvcruntime:undname.obj
 0003:00000f85       ?fGetTemplateArgumentList@UnDecorator@@0_NA 10028f85     libvcruntime:undname.obj
 0003:00000f88       ?m_pGetParameter@UnDecorator@@0P6APADJ@ZA 10028f88     libvcruntime:undname.obj
 0003:00000f8c       ?m_CHPENameOffset@UnDecorator@@0KA 10028f8c     libvcruntime:undname.obj
 0003:00000f90       ?m_recursionLevel@UnDecorator@@0KA 10028f90     libvcruntime:undname.obj
 0003:00000fa8       ?__WinRTOutOfMemoryExceptionCallback@@3P6GPAXXZA 10028fa8     libvcruntime:ehhelpers.obj
 0003:000010c8       __environ_table            100290c8     libucrt:environment_initialization.obj
 0003:000010cc       __wenviron_table           100290cc     libucrt:environment_initialization.obj
 0003:000010d0       ___dcrt_initial_wide_environment 100290d0     libucrt:environment_initialization.obj
 0003:000010d4       ___dcrt_initial_narrow_environment 100290d4     libucrt:environment_initialization.obj
 0003:000010d8       ___acrt_atexit_table       100290d8     libucrt:onexit.obj
 0003:000010e4       ___acrt_at_quick_exit_table 100290e4     libucrt:onexit.obj
 0003:000011cc       __nstream                  100291cc     libucrt:_file.obj
 0003:000011d0       ___piob                    100291d0     libucrt:_file.obj
 0003:000011d8       ___acrt_stdout_buffer      100291d8     libucrt:_sftbuf.obj
 0003:000011dc       ___acrt_stderr_buffer      100291dc     libucrt:_sftbuf.obj
 0003:000011e0       ___acrt_locale_changed_data 100291e0     libucrt:wsetlocale.obj
 0003:000011e4       ___acrt_current_locale_data 100291e4     libucrt:nlsdata.obj
 0003:000011e8       ___pioinfo                 100291e8     libucrt:ioinit.obj
 0003:000013e8       __nhandle                  100293e8     libucrt:ioinit.obj
 0003:0000152c       ___mblocalename            1002952c     libucrt:mbctype.obj
 0003:00001530       ___mbcodepage              10029530     libucrt:mbctype.obj
 0003:00001534       ___ismbcodepage            10029534     libucrt:mbctype.obj
 0003:00001538       ___mbulinfo                10029538     libucrt:mbctype.obj
 0003:0000154c       ___argc                    1002954c     libucrt:argv_data.obj
 0003:00001550       ___argv                    10029550     libucrt:argv_data.obj
 0003:00001554       ___wargv                   10029554     libucrt:argv_data.obj
 0003:00001558       __acmdln                   10029558     libucrt:argv_data.obj
 0003:0000155c       __wcmdln                   1002955c     libucrt:argv_data.obj
 0003:00001560       __pgmptr                   10029560     libucrt:argv_data.obj
 0003:00001564       ___acrt_heap               10029564     libucrt:heap_handle.obj
 0003:00001580       ___acrt_lconv_static_null  10029580     libucrt:localeconv.obj
 0003:00001584       ___acrt_lconv_static_W_null 10029584     libucrt:localeconv.obj
 0003:0000158c       ___fastflag                1002958c     libucrt:fp_flags.obj
 0003:00001594       ___dyn_tls_init_callback   10029594     <common>
 0003:00001598       ___scrt_ucrt_dll_is_in_use 10029598     <common>
 0003:0000159c       __pmatherr                 1002959c     <common>
 0003:000015a0       ___use_sse2_mathfcns       100295a0     <common>

 entry point at        0001:0000c25d

 Static symbols

 0000:fffcf000       .debug$S                   10000000     gdi32:GDI32.dll
 0000:fffcf000       .debug$S                   10000000     gdi32:GDI32.dll
 0000:fffcf000       .debug$S                   10000000     gdi32:GDI32.dll
 0000:fffcf000       .debug$S                   10000000     gdi32:GDI32.dll
 0000:fffcf000       .debug$S                   10000000     gdi32:GDI32.dll
 0000:fffcf000       .debug$S                   10000000     gdi32:GDI32.dll
 0000:fffcf000       .debug$S                   10000000     gdi32:GDI32.dll
 0000:fffcf000       .debug$S                   10000000     gdi32:GDI32.dll
 0000:fffcf000       .debug$S                   10000000     gdi32:GDI32.dll
 0000:fffcf000       .debug$S                   10000000     gdi32:GDI32.dll
 0000:fffcf000       .debug$S                   10000000     gdi32:GDI32.dll
 0000:fffcf000       .debug$S                   10000000     gdi32:GDI32.dll
 0000:fffcf000       .debug$S                   10000000     gdi32:GDI32.dll
 0000:fffcf000       .debug$S                   10000000     gdi32:GDI32.dll
 0000:fffcf000       .debug$S                   10000000     gdi32:GDI32.dll
 0000:fffcf000       .debug$S                   10000000     OPOSPINPad.exp
 0000:fffcf000       .debug$S                   10000000     gdi32:GDI32.dll
 0000:fffcf000       .debug$S                   10000000     advapi32:ADVAPI32.dll
 0000:fffcf000       .debug$S                   10000000     advapi32:ADVAPI32.dll
 0000:fffcf000       .debug$S                   10000000     advapi32:ADVAPI32.dll
 0000:fffcf000       .debug$S                   10000000     advapi32:ADVAPI32.dll
 0000:fffcf000       .debug$S                   10000000     advapi32:ADVAPI32.dll
 0000:fffcf000       .debug$S                   10000000     advapi32:ADVAPI32.dll
 0000:fffcf000       .debug$S                   10000000     advapi32:ADVAPI32.dll
 0000:fffcf000       .debug$S                   10000000     advapi32:ADVAPI32.dll
 0000:fffcf000       .debug$S                   10000000     advapi32:ADVAPI32.dll
 0000:fffcf000       .debug$S                   10000000     kernel32:KERNEL32.dll
 0000:fffcf000       .debug$S                   10000000     kernel32:KERNEL32.dll
 0000:fffcf000       .debug$S                   10000000     kernel32:KERNEL32.dll
 0000:fffcf000       .debug$S                   10000000     kernel32:KERNEL32.dll
 0000:fffcf000       .debug$S                   10000000     kernel32:KERNEL32.dll
 0000:fffcf000       .debug$S                   10000000     kernel32:KERNEL32.dll
 0000:fffcf000       .debug$S                   10000000     kernel32:KERNEL32.dll
 0000:fffcf000       .debug$S                   10000000     kernel32:KERNEL32.dll
 0000:fffcf000       .debug$S                   10000000     kernel32:KERNEL32.dll
 0000:fffcf000       .debug$S                   10000000     kernel32:KERNEL32.dll
 0000:fffcf000       .debug$S                   10000000     kernel32:KERNEL32.dll
 0000:fffcf000       .debug$S                   10000000     kernel32:KERNEL32.dll
 0000:fffcf000       .debug$S                   10000000     kernel32:KERNEL32.dll
 0000:fffcf000       .debug$S                   10000000     kernel32:KERNEL32.dll
 0000:fffcf000       .debug$S                   10000000     kernel32:KERNEL32.dll
 0000:fffcf000       .debug$S                   10000000     kernel32:KERNEL32.dll
 0000:fffcf000       .debug$S                   10000000     kernel32:KERNEL32.dll
 0000:fffcf000       .debug$S                   10000000     kernel32:KERNEL32.dll
 0000:fffcf000       .debug$S                   10000000     kernel32:KERNEL32.dll
 0000:fffcf000       .debug$S                   10000000     kernel32:KERNEL32.dll
 0000:fffcf000       .debug$S                   10000000     kernel32:KERNEL32.dll
 0000:fffcf000       .debug$S                   10000000     kernel32:KERNEL32.dll
 0000:fffcf000       .debug$S                   10000000     kernel32:KERNEL32.dll
 0000:fffcf000       .debug$S                   10000000     kernel32:KERNEL32.dll
 0000:fffcf000       .debug$S                   10000000     kernel32:KERNEL32.dll
 0000:fffcf000       .debug$S                   10000000     kernel32:KERNEL32.dll
 0000:fffcf000       .debug$S                   10000000     kernel32:KERNEL32.dll
 0000:fffcf000       .debug$S                   10000000     kernel32:KERNEL32.dll
 0000:fffcf000       .debug$S                   10000000     kernel32:KERNEL32.dll
 0000:fffcf000       .debug$S                   10000000     kernel32:KERNEL32.dll
 0000:fffcf000       .debug$S                   10000000     kernel32:KERNEL32.dll
 0000:fffcf000       .debug$S                   10000000     kernel32:KERNEL32.dll
 0000:fffcf000       .debug$S                   10000000     kernel32:KERNEL32.dll
 0000:fffcf000       .debug$S                   10000000     kernel32:KERNEL32.dll
 0000:fffcf000       .debug$S                   10000000     kernel32:KERNEL32.dll
 0000:fffcf000       .debug$S                   10000000     kernel32:KERNEL32.dll
 0000:fffcf000       .debug$S                   10000000     kernel32:KERNEL32.dll
 0000:fffcf000       .debug$S                   10000000     kernel32:KERNEL32.dll
 0000:fffcf000       .debug$S                   10000000     kernel32:KERNEL32.dll
 0000:fffcf000       .debug$S                   10000000     kernel32:KERNEL32.dll
 0000:fffcf000       .debug$S                   10000000     kernel32:KERNEL32.dll
 0000:fffcf000       .debug$S                   10000000     kernel32:KERNEL32.dll
 0000:fffcf000       .debug$S                   10000000     kernel32:KERNEL32.dll
 0000:fffcf000       .debug$S                   10000000     kernel32:KERNEL32.dll
 0000:fffcf000       .debug$S                   10000000     kernel32:KERNEL32.dll
 0000:fffcf000       .debug$S                   10000000     kernel32:KERNEL32.dll
 0000:fffcf000       .debug$S                   10000000     kernel32:KERNEL32.dll
 0000:fffcf000       .debug$S                   10000000     kernel32:KERNEL32.dll
 0000:fffcf000       .debug$S                   10000000     kernel32:KERNEL32.dll
 0000:fffcf000       .debug$S                   10000000     kernel32:KERNEL32.dll
 0000:fffcf000       .debug$S                   10000000     kernel32:KERNEL32.dll
 0000:fffcf000       .debug$S                   10000000     kernel32:KERNEL32.dll
 0000:fffcf000       .debug$S                   10000000     kernel32:KERNEL32.dll
 0000:fffcf000       .debug$S                   10000000     kernel32:KERNEL32.dll
 0000:fffcf000       .debug$S                   10000000     kernel32:KERNEL32.dll
 0000:fffcf000       .debug$S                   10000000     kernel32:KERNEL32.dll
 0000:fffcf000       .debug$S                   10000000     kernel32:KERNEL32.dll
 0000:fffcf000       .debug$S                   10000000     kernel32:KERNEL32.dll
 0000:fffcf000       .debug$S                   10000000     kernel32:KERNEL32.dll
 0000:fffcf000       .debug$S                   10000000     kernel32:KERNEL32.dll
 0000:fffcf000       .debug$S                   10000000     kernel32:KERNEL32.dll
 0000:fffcf000       .debug$S                   10000000     kernel32:KERNEL32.dll
 0000:fffcf000       .debug$S                   10000000     kernel32:KERNEL32.dll
 0000:fffcf000       .debug$S                   10000000     kernel32:KERNEL32.dll
 0000:fffcf000       .debug$S                   10000000     kernel32:KERNEL32.dll
 0000:fffcf000       .debug$S                   10000000     kernel32:KERNEL32.dll
 0000:fffcf000       .debug$S                   10000000     kernel32:KERNEL32.dll
 0000:fffcf000       .debug$S                   10000000     kernel32:KERNEL32.dll
 0000:fffcf000       .debug$S                   10000000     kernel32:KERNEL32.dll
 0000:fffcf000       .debug$S                   10000000     kernel32:KERNEL32.dll
 0000:fffcf000       .debug$S                   10000000     kernel32:KERNEL32.dll
 0000:fffcf000       .debug$S                   10000000     kernel32:KERNEL32.dll
 0000:fffcf000       .debug$S                   10000000     kernel32:KERNEL32.dll
 0000:fffcf000       .debug$S                   10000000     kernel32:KERNEL32.dll
 0000:fffcf000       .debug$S                   10000000     gdi32:GDI32.dll
 0000:fffcf000       .debug$S                   10000000     ole32:ole32.dll
 0000:fffcf000       .debug$S                   10000000     ole32:ole32.dll
 0000:fffcf000       .debug$S                   10000000     ole32:ole32.dll
 0000:fffcf000       .debug$S                   10000000     ole32:ole32.dll
 0000:fffcf000       .debug$S                   10000000     ole32:ole32.dll
 0000:fffcf000       .debug$S                   10000000     ole32:ole32.dll
 0000:fffcf000       .debug$S                   10000000     ole32:ole32.dll
 0000:fffcf000       .debug$S                   10000000     ole32:ole32.dll
 0000:fffcf000       .debug$S                   10000000     ole32:ole32.dll
 0000:fffcf000       .debug$S                   10000000     ole32:ole32.dll
 0000:fffcf000       .debug$S                   10000000     ole32:ole32.dll
 0000:fffcf000       .debug$S                   10000000     ole32:ole32.dll
 0000:fffcf000       .debug$S                   10000000     ole32:ole32.dll
 0000:fffcf000       .debug$S                   10000000     ole32:ole32.dll
 0000:fffcf000       .debug$S                   10000000     gdi32:GDI32.dll
 0000:fffcf000       .debug$S                   10000000     oleaut32:OLEAUT32.dll
 0000:fffcf000       .debug$S                   10000000     oleaut32:OLEAUT32.dll
 0000:fffcf000       .debug$S                   10000000     oleaut32:OLEAUT32.dll
 0000:fffcf000       .debug$S                   10000000     oleaut32:OLEAUT32.dll
 0000:fffcf000       .debug$S                   10000000     oleaut32:OLEAUT32.dll
 0000:fffcf000       .debug$S                   10000000     oleaut32:OLEAUT32.dll
 0000:fffcf000       .debug$S                   10000000     oleaut32:OLEAUT32.dll
 0000:fffcf000       .debug$S                   10000000     oleaut32:OLEAUT32.dll
 0000:fffcf000       .debug$S                   10000000     oleaut32:OLEAUT32.dll
 0000:fffcf000       .debug$S                   10000000     oleaut32:OLEAUT32.dll
 0000:fffcf000       .debug$S                   10000000     oleaut32:OLEAUT32.dll
 0000:fffcf000       .debug$S                   10000000     oleaut32:OLEAUT32.dll
 0000:fffcf000       .debug$S                   10000000     oleaut32:OLEAUT32.dll
 0000:fffcf000       .debug$S                   10000000     oleaut32:OLEAUT32.dll
 0000:fffcf000       .debug$S                   10000000     oleaut32:OLEAUT32.dll
 0000:fffcf000       .debug$S                   10000000     oleaut32:OLEAUT32.dll
 0000:fffcf000       .debug$S                   10000000     gdi32:GDI32.dll
 0000:fffcf000       .debug$S                   10000000     user32:USER32.dll
 0000:fffcf000       .debug$S                   10000000     user32:USER32.dll
 0000:fffcf000       .debug$S                   10000000     user32:USER32.dll
 0000:fffcf000       .debug$S                   10000000     user32:USER32.dll
 0000:fffcf000       .debug$S                   10000000     user32:USER32.dll
 0000:fffcf000       .debug$S                   10000000     user32:USER32.dll
 0000:fffcf000       .debug$S                   10000000     user32:USER32.dll
 0000:fffcf000       .debug$S                   10000000     user32:USER32.dll
 0000:fffcf000       .debug$S                   10000000     user32:USER32.dll
 0000:fffcf000       .debug$S                   10000000     user32:USER32.dll
 0000:fffcf000       .debug$S                   10000000     kernel32:KERNEL32.dll
 0000:fffcf000       .debug$S                   10000000     kernel32:KERNEL32.dll
 0000:fffcf000       .debug$S                   10000000     user32:USER32.dll
 0000:fffcf000       .debug$S                   10000000     kernel32:KERNEL32.dll
 0000:fffcf000       .debug$S                   10000000     user32:USER32.dll
 0000:fffcf000       .debug$S                   10000000     user32:USER32.dll
 0000:fffcf000       .debug$S                   10000000     user32:USER32.dll
 0000:fffcf000       .debug$S                   10000000     user32:USER32.dll
 0000:fffcf000       .debug$S                   10000000     user32:USER32.dll
 0000:fffcf000       .debug$S                   10000000     user32:USER32.dll
 0000:fffcf000       .debug$S                   10000000     user32:USER32.dll
 0000:fffcf000       .debug$S                   10000000     user32:USER32.dll
 0000:fffcf000       .debug$S                   10000000     user32:USER32.dll
 0000:fffcf000       .debug$S                   10000000     user32:USER32.dll
 0000:fffcf000       .debug$S                   10000000     user32:USER32.dll
 0000:fffcf000       .debug$S                   10000000     user32:USER32.dll
 0000:fffcf000       .debug$S                   10000000     user32:USER32.dll
 0000:fffcf000       .debug$S                   10000000     user32:USER32.dll
 0000:fffcf000       .debug$S                   10000000     user32:USER32.dll
 0000:fffcf000       .debug$S                   10000000     user32:USER32.dll
 0000:fffcf000       .debug$S                   10000000     user32:USER32.dll
 0000:fffcf000       .debug$S                   10000000     user32:USER32.dll
 0000:fffcf000       .debug$S                   10000000     user32:USER32.dll
 0000:fffcf000       .debug$S                   10000000     kernel32:KERNEL32.dll
 0000:fffcf000       .debug$S                   10000000     user32:USER32.dll
 0000:fffcf000       .debug$S                   10000000     kernel32:KERNEL32.dll
 0000:fffcf000       .debug$S                   10000000     user32:USER32.dll
 0000:fffcf000       .debug$S                   10000000     kernel32:KERNEL32.dll
 0000:fffcf000       .debug$S                   10000000     user32:USER32.dll
 0000:fffcf000       .debug$S                   10000000     user32:USER32.dll
 0000:fffcf000       .debug$S                   10000000     user32:USER32.dll
 0000:fffcf000       .debug$S                   10000000     kernel32:KERNEL32.dll
 0000:fffcf000       .debug$S                   10000000     kernel32:KERNEL32.dll
 0000:fffcf000       .debug$S                   10000000     kernel32:KERNEL32.dll
 0000:fffcf000       .debug$S                   10000000     kernel32:KERNEL32.dll
 0000:fffcf000       .debug$S                   10000000     kernel32:KERNEL32.dll
 0000:fffcf000       .debug$S                   10000000     kernel32:KERNEL32.dll
 0000:fffcf000       .debug$S                   10000000     kernel32:KERNEL32.dll
 0000:fffcf000       .debug$S                   10000000     kernel32:KERNEL32.dll
 0000:fffcf000       .debug$S                   10000000     kernel32:KERNEL32.dll
 0000:fffcf000       .debug$S                   10000000     kernel32:KERNEL32.dll
 0000:fffcf000       .debug$S                   10000000     kernel32:KERNEL32.dll
 0000:fffcf000       .debug$S                   10000000     kernel32:KERNEL32.dll
 0000:fffcf000       .debug$S                   10000000     kernel32:KERNEL32.dll
 0000:fffcf000       .debug$S                   10000000     kernel32:KERNEL32.dll
 0000:fffcf000       .debug$S                   10000000     kernel32:KERNEL32.dll
 0000:fffcf000       .debug$S                   10000000     kernel32:KERNEL32.dll
 0000:fffcf000       .debug$S                   10000000     kernel32:KERNEL32.dll
 0000:fffcf000       .debug$S                   10000000     kernel32:KERNEL32.dll
 0000:fffcf000       .debug$S                   10000000     kernel32:KERNEL32.dll
 0000:fffcf000       .debug$S                   10000000     kernel32:KERNEL32.dll
 0000:fffcf000       .debug$S                   10000000     kernel32:KERNEL32.dll
 0000:fffcf000       .debug$S                   10000000     kernel32:KERNEL32.dll
 0000:fffcf000       .debug$S                   10000000     kernel32:KERNEL32.dll
 0000:fffcf000       .debug$S                   10000000     kernel32:KERNEL32.dll
 0000:fffcf000       .debug$S                   10000000     kernel32:KERNEL32.dll
 0000:fffcf000       .debug$S                   10000000     kernel32:KERNEL32.dll
 0000:fffcf000       .debug$S                   10000000     kernel32:KERNEL32.dll
 0000:fffcf000       .debug$S                   10000000     kernel32:KERNEL32.dll
 0000:fffcf000       .debug$S                   10000000     kernel32:KERNEL32.dll
 0001:00000000       ??__E_AtlComModule@ATL@@YAXXZ 10001000 f   OposVariant.obj
 0001:00000016       ??__E_AtlWinModule@ATL@@YAXXZ 10001016 f   OposVariant.obj
 0001:0000002c       ??__E?pConnMap@?$IConnectionPointContainerImpl@VCOPOSPINPad@@@ATL@@0PBU_ATL_CONNMAP_ENTRY@2@B@@YAXXZ 1000102c f   PINPad.obj
 0001:0000003a       ??__E_Module@@YAXXZ        1000103a f   PINPad.obj
 0001:00000064       ??__E_AtlBaseModule@ATL@@YAXXZ 10001064 f   atls:atlbase.obj
 0001:000016e6       $LN37                      100026e6     PINPad.obj
 0001:00005c5e       $LN53                      10006c5e     PINPad.obj
 0001:00005c76       $LN49                      10006c76     PINPad.obj
 0001:00007aba       $LN45                      10008aba     PINPad.obj
 0001:00007ad2       $LN36                      10008ad2     PINPad.obj
 0001:00009085       $LN87                      1000a085     PINPad.obj
 0001:0000909d       $LN81                      1000a09d     PINPad.obj
 0001:000094ca       _memcpy_s                  1000a4ca f   PINPad.obj
 0001:0000b65a       ?find_pe_section@@YAPAU_IMAGE_SECTION_HEADER@@QAEI@Z 1000c65a f   LIBCMT:utility.obj
 0001:0000b9a5       ?__scrt_initialize_thread_safe_statics@@YAHXZ 1000c9a5 f   LIBCMT:thread_safe_statics.obj
 0001:0000b9cc       ?__scrt_initialize_thread_safe_statics_platform_specific@@YAXXZ 1000c9cc f   LIBCMT:thread_safe_statics.obj
 0001:0000babb       ?__scrt_uninitialize_thread_safe_statics@@YAXXZ 1000cabb f   LIBCMT:thread_safe_statics.obj
 0001:0000be48       __catch$??2@YAPAXIABUnothrow_t@std@@@Z$0 1000ce48 f   LIBCMT:new_scalar_nothrow.obj
 0001:0000be80       $$000000                   1000ce80     LIBCMT:sehprolg4gs.obj
 0001:0000bee0       $$000000                   1000cee0     LIBCMT:alloca16.obj
 0001:0000bf10       $$000000                   1000cf10     LIBCMT:chkstk.obj
 0001:0000bf3d       ?dllmain_crt_dispatch@@YGHQAUHINSTANCE__@@KQAX@Z 1000cf3d f   LIBCMT:dll_dllmain.obj
 0001:0000bf90       ?dllmain_crt_process_attach@@YAHQAUHINSTANCE__@@QAX@Z 1000cf90 f   LIBCMT:dll_dllmain.obj
 0001:0000c09a       ?dllmain_crt_process_detach@@YAH_N@Z 1000d09a f   LIBCMT:dll_dllmain.obj
 0001:0000c12c       ?dllmain_dispatch@@YAHQAUHINSTANCE__@@KQAX@Z 1000d12c f   LIBCMT:dll_dllmain.obj
 0001:0000c232       ?dllmain_raw@@YGHQAUHINSTANCE__@@KQAX@Z 1000d232 f   LIBCMT:dll_dllmain.obj
 0001:0000c580       $$000000                   1000d580     LIBCMT:sehprolg4.obj
 0001:0000c5dc       ___get_entropy             1000d5dc f   LIBCMT:gs_support.obj
 0001:0000c8d3       ??$GetProcAddressAll@P6GXPAUAtlThunkData_t@@PAXI@Z@@YAP6GXPAUAtlThunkData_t@@PAXI@ZPAP6GX01I@Z@Z 1000d8d3 f   atls:atlthunk.obj
 0001:0000c8d3       ??$GetProcAddressAll@P6GP6GJPAUHWND__@@IIJ@ZPAUAtlThunkData_t@@@Z@@YAP6GP6GJPAUHWND__@@IIJ@ZPAUAtlThunkData_t@@@ZPAP6GP6GJ0IIJ@Z1@Z@Z 1000d8d3 f   atls:atlthunk.obj
 0001:0000c8d3       ??$GetProcAddressAll@P6GXPAUAtlThunkData_t@@@Z@@YAP6GXPAUAtlThunkData_t@@@ZPAP6GX0@Z@Z 1000d8d3 f   atls:atlthunk.obj
 0001:0000c8d3       ??$GetProcAddressAll@P6GPAUAtlThunkData_t@@XZ@@YAP6GPAUAtlThunkData_t@@XZPAP6GPAU0@XZ@Z 1000d8d3 f   atls:atlthunk.obj
 0001:0000c983       ?GetProcAddressSingle@@YA_NPAUHINSTANCE__@@PBDPAPAX@Z 1000d983 f   atls:atlthunk.obj
 0001:0000cad5       ?__InitializeThunkPool@@YAHXZ 1000dad5 f   atls:atlthunk.obj
 0001:0000cf40       _ValidateLocalCookies      1000df40 f   libvcruntime:chandler4.obj
 0001:0000dffb       $LN1285                    1000effb     libvcruntime:memcmp.obj
 0001:0000e080       $$000000                   1000f080     libvcruntime:memcpy.obj
 0001:0000e2e4       TrailingUpVec              1000f2e4     libvcruntime:memcpy.obj
 0001:0000e390       TrailingDownVec            1000f390     libvcruntime:memcpy.obj
 0001:0000e600       $$000000                   1000f600     libvcruntime:memset.obj
 0001:0000ecc0       $$000000                   1000fcc0     libvcruntime:memmove.obj
 0001:0000ef24       TrailingUpVec              1000ff24     libvcruntime:memmove.obj
 0001:0000efd0       TrailingDownVec            1000ffd0     libvcruntime:memmove.obj
 0001:0000f240       $$000000                   10010240     libvcruntime:exsup4.obj
 0001:0000f2d0       __unwind_handler4          100102d0 f   libvcruntime:exsup4.obj
 0001:0000f5af       ?try_get_first_available_module@@YAPAUHINSTANCE__@@QBW4module_id@?A0x5d2a34d3@@0@Z 100105af f   libvcruntime:winapi_downlevel.obj
 0001:0000f673       ?try_get_function@@YAPAXW4function_id@?A0x5d2a34d3@@QBDQBW4module_id@2@2@Z 10010673 f   libvcruntime:winapi_downlevel.obj
 0001:0000f873       ??$BuildCatchObjectHelperInternal@V__FrameHandler3@@@@YAHPAUEHExceptionRecord@@PAXPBU_s_HandlerType@@PBU_s_CatchableType@@@Z 10010873 f   libvcruntime:frame.obj
 0001:0000f9b2       ??$BuildCatchObjectInternal@V__FrameHandler3@@@@YAXPAUEHExceptionRecord@@PAXPBU_s_HandlerType@@PBU_s_CatchableType@@@Z 100109b2 f   libvcruntime:frame.obj
 0001:0000fa4b       ??$CatchIt@V__FrameHandler3@@@@YAXPAUEHExceptionRecord@@PAUEHRegistrationNode@@PAU_CONTEXT@@PAXPBU_s_FuncInfo@@PBU_s_HandlerType@@PBU_s_CatchableType@@PBU_s_TryBlockMapEntry@@H1E@Z 10010a4b f   libvcruntime:frame.obj
 0001:0000facb       ??$FindHandler@V__FrameHandler3@@@@YAXPAUEHExceptionRecord@@PAUEHRegistrationNode@@PAU_CONTEXT@@PAXPBU_s_FuncInfo@@EH1@Z 10010acb f   libvcruntime:frame.obj
 0001:0000fe59       ??$FindHandlerForForeignException@V__FrameHandler3@@@@YAXPAUEHExceptionRecord@@PAUEHRegistrationNode@@PAU_CONTEXT@@PAXPBU_s_FuncInfo@@HH1@Z 10010e59 f   libvcruntime:frame.obj
 0001:0001014c       ?CallCatchBlock@@YAPAXPAUEHExceptionRecord@@PAUEHRegistrationNode@@PAU_CONTEXT@@PBU_s_FuncInfo@@PAXHK@Z 1001114c f   libvcruntime:frame.obj
 0001:00010310       ?CallUnexpected@@YAXPBU_s_ESTypeList@@@Z 10011310 f   libvcruntime:frame.obj
 0001:00010330       __catch$?CallUnexpected@@YAXPBU_s_ESTypeList@@@Z$0 10011330 f   libvcruntime:frame.obj
 0001:0001034a       ?ExFilterRethrow@@YAHPAU_EXCEPTION_POINTERS@@@Z 1001134a f   libvcruntime:frame.obj
 0001:00010494       ?IsInExceptionSpec@@YAEPAUEHExceptionRecord@@PBU_s_ESTypeList@@@Z 10011494 f   libvcruntime:frame.obj
 0001:00010560       $$000000                   10011560     libvcruntime:lowhelpr.obj
 0001:000105b0       $$000000                   100115b0     libvcruntime:exsup.obj
 0001:000105d1       __unwind_handler           100115d1 f   libvcruntime:exsup.obj
 0001:00010d7a       ??$common_tcsncpy_s@_W@@YAHQA_WIQB_WI@Z 10011d7a f   libucrt:wcsncpy_s.obj
 0001:00010e52       ??$common_vsprintf@Vformat_validation_base@__crt_stdio_output@@_W@@YAH_KQA_WIQB_WQAU__crt_locale_pointers@@QAD@Z 10011e52 f   libucrt:output.obj
 0001:00010fd7       ??$common_vsprintf_s@_W@@YAH_KQA_WIQB_WQAU__crt_locale_pointers@@QAD@Z 10011fd7 f   libucrt:output.obj
 0001:00011660       $LN52                      10012660     libucrt:output.obj
 0001:00011b51       $LN19                      10012b51     libucrt:output.obj
 0001:000123f5       ?atexit_exception_filter@@YAHK@Z 100133f5 f   libucrt:exit.obj
 0001:00012408       ?common_exit@@YAXHW4_crt_exit_cleanup_mode@@W4_crt_exit_return_mode@@@Z 10013408 f   libucrt:exit.obj
 0001:00012521       ?exit_or_terminate_process@@YAXI@Z 10013521 f   libucrt:exit.obj
 0001:00012562       ?is_managed_app@@YA_NXZ    10013562 f   libucrt:exit.obj
 0001:000125a6       ?try_cor_exit_process@@YAXI@Z 100135a6 f   libucrt:exit.obj
 0001:0001264a       ??$common_configure_argv@D@@YAHW4_crt_argv_mode@@@Z 1001364a f   libucrt:argv_parsing.obj
 0001:0001276e       ??$parse_command_line@D@@YAXPADPAPAD0PAI2@Z 1001376e f   libucrt:argv_parsing.obj
 0001:00012943       ??$common_initialize_environment_nolock@D@@YAHXZ 10013943 f   libucrt:environment_initialization.obj
 0001:0001299c       ??$create_environment@D@@YAQAPADQAD@Z 1001399c f   libucrt:environment_initialization.obj
 0001:00012a6d       ??$free_environment@_W@@YAXQAPA_W@Z 10013a6d f   libucrt:environment_initialization.obj
 0001:00012a6d       ??$free_environment@D@@YAXQAPAD@Z 10013a6d f   libucrt:environment_initialization.obj
 0001:00012adc       ??$uninitialize_environment_internal@D@@YAXAAPAPAD@Z 10013adc f   libucrt:environment_initialization.obj
 0001:00012af7       ??$uninitialize_environment_internal@_W@@YAXAAPAPA_W@Z 10013af7 f   libucrt:environment_initialization.obj
 0001:00012c5f       ??R<lambda_275893d493268fdec8709772e3fcec0e>@@QBEHXZ 10013c5f f   libucrt:onexit.obj
 0001:00012d7f       ??R<lambda_4e60a939b0d047cfe11ddc22648dfba9>@@QBEHXZ 10013d7f f   libucrt:onexit.obj
 0001:00012f54       _initialize_global_variables 10013f54 f   libucrt:initialization.obj
 0001:00012f66       _initialize_c              10013f66 f   libucrt:initialization.obj
 0001:00012f80       _initialize_global_state_isolation 10013f80 f   libucrt:initialization.obj
 0001:00012f80       _uninitialize_global_state_isolation 10013f80 f   libucrt:initialization.obj
 0001:00012f80       _report_memory_leaks       10013f80 f   libucrt:initialization.obj
 0001:00012f80       _uninitialize_c            10013f80 f   libucrt:initialization.obj
 0001:00012f80       _initialize_environment    10013f80 f   libucrt:initialization.obj
 0001:00012f83       _uninitialize_environment  10013f83 f   libucrt:initialization.obj
 0001:00012f8b       _initialize_pointers       10013f8b f   libucrt:initialization.obj
 0001:00012fc8       _uninitialize_vcruntime    10013fc8 f   libucrt:initialization.obj
 0001:00012fd1       _uninitialize_allocated_memory 10013fd1 f   libucrt:initialization.obj
 0001:00013a90       $$000000                   10014a90     libucrt:strncmp.obj
 0001:00013d26       ?construct_ptd@@YAXQAU__acrt_ptd@@QAPAU__crt_locale_data@@@Z 10014d26 f   libucrt:per_thread_data.obj
 0001:00013d9f       ?destroy_fls@@YGXPAX@Z     10014d9f f   libucrt:per_thread_data.obj
 0001:00013dc0       ?destroy_ptd@@YAXQAU__acrt_ptd@@@Z 10014dc0 f   libucrt:per_thread_data.obj
 0001:00013e69       ?replace_current_thread_locale_nolock@@YAXQAU__acrt_ptd@@QAU__crt_locale_data@@@Z 10014e69 f   libucrt:per_thread_data.obj
 0001:00014176       ?try_get_function@@YAPAXW4function_id@?A0x352e5c4b@@QBDQBW4module_id@2@2@Z 10015176 f   libucrt:winapi_thunks.obj
 0001:00014212       ?try_get_module@@YAPAUHINSTANCE__@@W4module_id@?A0x352e5c4b@@@Z 10015212 f   libucrt:winapi_thunks.obj
 0001:000146c8       ??$common_tox_l@$1?internal_isupper_l@@YA_NHQAU__crt_locale_pointers@@@Z$1?internal_map_lower@@YAHH0@Z@@YAHHKQAU__crt_locale_pointers@@@Z 100156c8 f   libucrt:tolower_toupper.obj
 0001:00014812       ?internal_isupper_l@@YA_NHQAU__crt_locale_pointers@@@Z 10015812 f   libucrt:tolower_toupper.obj
 0001:00014c6f       ?fp_format_a@@YAHQBNPADIQADIH_NIQAU__crt_locale_pointers@@@Z 10015c6f f   libucrt:cvt.obj
 0001:00014f72       ?fp_format_e@@YAHQBNQADI1IH_NIQAU__crt_locale_pointers@@@Z 10015f72 f   libucrt:cvt.obj
 0001:0001500d       ?fp_format_e_internal@@YAHQADIH_NIQAU_strflt@@1QAU__crt_locale_pointers@@@Z 1001600d f   libucrt:cvt.obj
 0001:00015158       ?fp_format_f@@YAHQBNQADI1IHQAU__crt_locale_pointers@@@Z 10016158 f   libucrt:cvt.obj
 0001:000151e5       ?fp_format_f_internal@@YAHQADIHQAU_strflt@@_NQAU__crt_locale_pointers@@@Z 100161e5 f   libucrt:cvt.obj
 0001:000152bc       ?fp_format_g@@YAHQBNQADI1IH_NIQAU__crt_locale_pointers@@@Z 100162bc f   libucrt:cvt.obj
 0001:00015384       ?fp_format_nan_or_infinity@@YAHW4__acrt_fp_class@@_NPADI1@Z 10016384 f   libucrt:cvt.obj
 0001:0001547c       ?shift_bytes@@YAXQADI0H@Z  1001647c f   libucrt:cvt.obj
 0001:000157ce       ?initialize_inherited_file_handles_nolock@@YAXXZ 100167ce f   libucrt:ioinit.obj
 0001:00015884       ?initialize_stdio_handles_nolock@@YAXXZ 10016884 f   libucrt:ioinit.obj
 0001:00015a5c       ?<helper_func_cdecl>@<lambda_62bb7ecb46d0a77b591a051c43eb5ad1>@@CAHPBX0@Z 10016a5c f   libucrt:argv_wildcards.obj
 0001:00015a74       ??$common_expand_argv_wildcards@D@@YAHQAPADQAPAPAD@Z 10016a74 f   libucrt:argv_wildcards.obj
 0001:00015c04       ??$copy_and_add_argument_to_buffer@D@@YAHQBD0IAAV?$argument_list@D@?A0xb0e4b824@@@Z 10016c04 f   libucrt:argv_wildcards.obj
 0001:00015c9a       ??$expand_argument_wildcards@D@@YAHQAD0AAV?$argument_list@D@?A0xb0e4b824@@@Z 10016c9a f   libucrt:argv_wildcards.obj
 0001:00015f75       ??R<lambda_ad1ced32f4ac17aa236e5ef05d6b3b7c>@@QBEXXZ 10016f75 f   libucrt:mbctype.obj
 0001:00016039       ?CPtoLocaleName@@YAPB_WH@Z 10017039 f   libucrt:mbctype.obj
 0001:00016077       ?getSystemCP@@YAHH@Z       10017077 f   libucrt:mbctype.obj
 0001:000160ea       ?setSBCS@@YAXPAU__crt_multibyte_data@@@Z 100170ea f   libucrt:mbctype.obj
 0001:0001614f       ?setSBUpLow@@YAXPAU__crt_multibyte_data@@@Z 1001714f f   libucrt:mbctype.obj
 0001:000162e3       ?setmbcp_internal@@YAHH_N@Z 100172e3 f   libucrt:mbctype.obj
 0001:00016695       _memcpy_s                  10017695 f   libucrt:mbctype.obj
 0001:00016695       _memcpy_s                  10017695 f   libucrt:cfout.obj
 0001:00016716       ?x_ismbbtype_l@@YAHPAU__crt_locale_pointers@@IHH@Z 10017716 f   libucrt:ismbbyte.obj
 0001:000167a0       ?find_end_of_double_null_terminated_sequence@@YAPB_WQB_W@Z 100177a0 f   libucrt:get_environment_from_os.obj
 0001:000169c7       ?get_global_action_nolock@@YAPAP6AXH@ZH@Z 100179c7 f   libucrt:signal.obj
 0001:00016a09       ?siglookup@@YAPAU__crt_signal_action_t@@HQAU1@@Z 10017a09 f   libucrt:signal.obj
 0001:000171f8       ?GetTableIndexFromLocaleName@@YAHPB_W@Z 100181f8 f   libucrt:lcidtoname_downlevel.obj
 0001:00017319       ?__acrt_LCMapStringA_stat@@YAHPAU__crt_locale_pointers@@PB_WKPBDHPADHHH@Z 10018319 f   libucrt:lcmapstringa.obj
 0001:00019030       _common_flush_all          1001a030 f   libucrt:fflush.obj
 0001:00019303       ?free_crt_array_internal@@YAXQAPBXI@Z 1001a303 f   libucrt:inittime.obj
 0001:000197d0       ?shortsort@@YAXPAD0IP6AHPBX1@Z@Z 1001a7d0 f   libucrt:qsort.obj
 0001:00019870       ?swap@@YAXPAD0I@Z          1001a870 f   libucrt:qsort.obj
 0001:00019c4a       ??$common_tcsncpy_s@D@@YAHQADIQBDI@Z 1001ac4a f   libucrt:strncpy_s.obj
 0001:00019d10       $$000000                   1001ad10     libucrt:strpbrk.obj
 0001:00019df4       ?initialize_multibyte@@YAHXZ 1001adf4 f   libucrt:multibyte_initializer.obj
 0001:00019ee0       $$000000                   1001aee0     libucrt:log10.obj
 0001:0001a030       $$000000                   1001b030     libucrt:ceil_pentium4.obj
 0001:0001a14d       ?write_double_translated_ansi_nolock@@YA?AUwrite_result@?A0x47fa6670@@HQBDI@Z 1001b14d f   libucrt:write.obj
 0001:0001a300       ?write_double_translated_unicode_nolock@@YA?AUwrite_result@?A0x47fa6670@@QBDI@Z 1001b300 f   libucrt:write.obj
 0001:0001a36d       ?write_requires_double_translation_nolock@@YA_NH@Z 1001b36d f   libucrt:write.obj
 0001:0001a3e3       ?write_text_ansi_nolock@@YA?AUwrite_result@?A0x47fa6670@@HQBDI@Z 1001b3e3 f   libucrt:write.obj
 0001:0001a4c2       ?write_text_utf16le_nolock@@YA?AUwrite_result@?A0x47fa6670@@HQBDI@Z 1001b4c2 f   libucrt:write.obj
 0001:0001a5b0       ?write_text_utf8_nolock@@YA?AUwrite_result@?A0x47fa6670@@HQBDI@Z 1001b5b0 f   libucrt:write.obj
 0001:0001a9d4       ??$common_lseek_nolock@_J@@YA_JH_JH@Z 1001b9d4 f   libucrt:lseek.obj
 0001:0001ac98       ___get_abstract_control_sse2 1001bc98 f   libucrt:_fenvutils.obj
 0001:0001ad15       ___get_abstract_control_x87 1001bd15 f   libucrt:_fenvutils.obj
 0001:0001ad88       ___get_machine_control     1001bd88 f   libucrt:_fenvutils.obj
 0001:0001adf9       ___get_machine_control_sse2 1001bdf9 f   libucrt:_fenvutils.obj
 0001:0001ae79       ___get_machine_status_sse2 1001be79 f   libucrt:_fenvutils.obj
 0001:0001aeda       ___get_machine_status_x87  1001beda f   libucrt:_fenvutils.obj
 0001:0001b220       $$000000                   1001c220     libucrt:log10_pentium4.obj
 0001:0001b4b0       $$000000                   1001c4b0     libucrt:87tran.obj
 0001:0001b6b0       $$000000                   1001c6b0     libucrt:87disp.obj
 0001:0001b8b0       $$000000                   1001c8b0     libucrt:common.obj
 0001:0001ba40       $$000000                   1001ca40     libucrt:genexcep.obj
 0001:0001bfb0       $$000000                   1001cfb0     libucrt:_strnicm.obj
 0001:0001ce00       $$000000                   1001de00     LIBCMT:ulldvrm.obj
 0001:0001cea0       $$000000                   1001dea0     LIBCMT:llmul.obj
 0001:0001cee0       $$000000                   1001dee0     LIBCMT:lldvrm.obj
 0001:0001cfc0       $$000000                   1001dfc0     LIBCMT:ullshr.obj
 0001:0001cfe0       $$000000                   1001dfe0     LIBCMT:llshl.obj
 0001:0001d000       $$000000                   1001e000     LIBCMT:ftol2.obj
 0001:0001d0c0       $$000000                   1001e0c0     libvcruntime:strrchr.obj
 0001:0001d200       $$000000                   1001e200     libvcruntime:strchr.obj
 0001:0001d32b       __ehhandler$?__scrt_initialize_thread_safe_statics_platform_specific@@YAXXZ 1001e32b f   LIBCMT:thread_safe_statics.obj
 0001:0001d346       __ehhandler$??2@YAPAXIABUnothrow_t@std@@@Z 1001e346 f   LIBCMT:new_scalar_nothrow.obj
 0001:0001d361       __ehhandler$?CallUnexpected@@YAXPBU_s_ESTypeList@@@Z 1001e361 f   libvcruntime:frame.obj
 0001:0001d37c       ??__F_AtlComModule@ATL@@YAXXZ 1001e37c f   OposVariant.obj
 0001:0001d386       ??__F_AtlWinModule@ATL@@YAXXZ 1001e386 f   OposVariant.obj
 0001:0001d3a0       ??__F_Module@@YAXXZ        1001e3a0 f   PINPad.obj
 0001:0001d3b4       ??__F_AtlBaseModule@ATL@@YAXXZ 1001e3b4 f   atls:atlbase.obj
 0002:00000308       ?_AtlBaseModule$initializer$@ATL@@3P6AXXZA 1001f308     atls:atlbase.obj
 0002:0000030c       ?_AtlComModule$initializer$@ATL@@3P6AXXZA 1001f30c     OposVariant.obj
 0002:00000310       ?_AtlWinModule$initializer$@ATL@@3P6AXXZA 1001f310     OposVariant.obj
 0002:00000314       ?_Module$initializer$@@3P6AXXZA 1001f314     PINPad.obj
 0002:00000318       ??pConnMap$initializer$@?$IConnectionPointContainerImpl@VCOPOSPINPad@@@ATL@@0P6AXXZA@@3P6AXXZA 1001f318     PINPad.obj
 0002:00000324       ?__scrt_initialize_tss_var@@3P6AHXZA 1001f324     LIBCMT:thread_safe_statics.obj
 0002:0000199c       _GS_ExceptionPointers      1002099c     LIBCMT:gs_report.obj
 0002:00001b08       ?ExceptionTemplate@?1??_CxxThrowException@@9@8@4UEHExceptionRecord@@B 10020b08     libvcruntime:throw.obj
 0002:00001b28       ?module_names@?A0x5d2a34d3@@3QBQB_WB 10020b28     libvcruntime:winapi_downlevel.obj
 0002:00001be0       ?candidate_modules@?1??try_get_FlsAlloc@@YAP6GKP6GXPAX@Z@ZXZ@4QBW4module_id@?A0x5d2a34d3@@B 10020be0     libvcruntime:winapi_downlevel.obj
 0002:00001bf4       ?candidate_modules@?1??try_get_FlsFree@@YAP6GHK@ZXZ@4QBW4module_id@?A0x5d2a34d3@@B 10020bf4     libvcruntime:winapi_downlevel.obj
 0002:00001c04       ?candidate_modules@?1??try_get_FlsGetValue@@YAP6GPAXK@ZXZ@4QBW4module_id@?A0x5d2a34d3@@B 10020c04     libvcruntime:winapi_downlevel.obj
 0002:00001c18       ?candidate_modules@?1??try_get_FlsSetValue@@YAP6GHKPAX@ZXZ@4QBW4module_id@?A0x5d2a34d3@@B 10020c18     libvcruntime:winapi_downlevel.obj
 0002:00001c2c       ?candidate_modules@?1??try_get_InitializeCriticalSectionEx@@YAP6GHPAU_RTL_CRITICAL_SECTION@@KK@ZXZ@4QBW4module_id@?A0x5d2a34d3@@B 10020c2c     libvcruntime:winapi_downlevel.obj
 0002:00001c70       ?tokenTable@@3QBQBDB       10020c70     libvcruntime:undname.obj
 0002:00001cb0       ?nameTable@@3QBQBDB        10020cb0     libvcruntime:undname.obj
 0002:00001df8       ?rttiTable@@3QBQBDB        10020df8     libvcruntime:undname.obj
 0002:00002410       _errtable                  10021410     libucrt:errno.obj
 0002:000026b8       ___acrt_initializers       100216b8     libucrt:initialization.obj
 0002:00002730       _module_names              10021730     libucrt:winapi_thunks.obj
 0002:00002c78       ?candidate_modules@?1??try_get_FlsAlloc@@YAP6GKP6GXPAX@Z@ZXZ@4QBW4module_id@?A0x352e5c4b@@B 10021c78     libucrt:winapi_thunks.obj
 0002:00002c8c       ?candidate_modules@?1??try_get_FlsFree@@YAP6GHK@ZXZ@4QBW4module_id@?A0x352e5c4b@@B 10021c8c     libucrt:winapi_thunks.obj
 0002:00002c9c       ?candidate_modules@?1??try_get_FlsGetValue@@YAP6GPAXK@ZXZ@4QBW4module_id@?A0x352e5c4b@@B 10021c9c     libucrt:winapi_thunks.obj
 0002:00002cb0       ?candidate_modules@?1??try_get_FlsSetValue@@YAP6GHKPAX@ZXZ@4QBW4module_id@?A0x352e5c4b@@B 10021cb0     libucrt:winapi_thunks.obj
 0002:00002cc4       ?candidate_modules@?1??try_get_GetCurrentPackageId@@YAP6GJPAIPAE@ZXZ@4QBW4module_id@?A0x352e5c4b@@B 10021cc4     libucrt:winapi_thunks.obj
 0002:00002ce0       ?candidate_modules@?1??try_get_InitializeCriticalSectionEx@@YAP6GHPAU_RTL_CRITICAL_SECTION@@KK@ZXZ@4QBW4module_id@?A0x352e5c4b@@B 10021ce0     libucrt:winapi_thunks.obj
 0002:00002d04       ?candidate_modules@?1??try_get_LCMapStringEx@@YAP6GHPB_WK0HPA_WHPAU_nlsversioninfo@@PAXJ@ZXZ@4QBW4module_id@?A0x352e5c4b@@B 10021d04     libucrt:winapi_thunks.obj
 0002:00002d1c       ?candidate_modules@?1??try_get_LocaleNameToLCID@@YAP6GKPB_WK@ZXZ@4QBW4module_id@?A0x352e5c4b@@B 10021d1c     libucrt:winapi_thunks.obj
 0002:00002d38       ?candidate_modules@?1??try_get_SetThreadStackGuarantee@@YAP6GHPAK@ZXZ@4QBW4module_id@?A0x352e5c4b@@B 10021d38     libucrt:winapi_thunks.obj
 0002:00003264       __mb_locale_names          10022264     libucrt:mbctype.obj
 0002:00003ab0       _LcidToLocaleNameTable     10022ab0     libucrt:lcidtoname_downlevel.obj
 0002:00004bd8       _LocaleNameToIndexTable    10023bd8     libucrt:lcidtoname_downlevel.obj
 0002:00006510       LOG_name                   10025510     libucrt:log10.obj
 0002:00006520       _One                       10025520     libucrt:ceil_pentium4.obj
 0002:00006530       _Bns                       10025530     libucrt:ceil_pentium4.obj
 0002:00006540       _Zero                      10025540     libucrt:ceil_pentium4.obj
 0002:00006550       _S                         10025550     libucrt:ceil_pentium4.obj
 0002:00006560       _NegZero                   10025560     libucrt:ceil_pentium4.obj
 0002:00006570       emask                      10025570     libucrt:log10_pentium4.obj
 0002:00006580       CC                         10025580     libucrt:log10_pentium4.obj
 0002:00006590       Magic                      10025590     libucrt:log10_pentium4.obj
 0002:000065a0       hi_mask                    100255a0     libucrt:log10_pentium4.obj
 0002:000065b0       LOG10_2                    100255b0     libucrt:log10_pentium4.obj
 0002:000065c0       place_L                    100255c0     libucrt:log10_pentium4.obj
 0002:000065e0       One                        100255e0     libucrt:log10_pentium4.obj
 0002:000065f0       Zero                       100255f0     libucrt:log10_pentium4.obj
 0002:00006600       Two52                      10025600     libucrt:log10_pentium4.obj
 0002:00006610       Infs                       10025610     libucrt:log10_pentium4.obj
 0002:00006620       NaN                        10025620     libucrt:log10_pentium4.obj
 0002:00006630       coeff                      10025630     libucrt:log10_pentium4.obj
 0002:0000668e       _log2max                   1002568e     libucrt:87tran.obj
 0002:00006698       _smallarg                  10025698     libucrt:87tran.obj
 0002:000066a2       _half                      100256a2     libucrt:87tran.obj
 0002:000066ee       One                        100256ee     libucrt:87disp.obj
 0002:000066f6       Three                      100256f6     libucrt:87disp.obj
 0002:000066fe       XAMtoTagTab                100256fe     libucrt:87disp.obj
 0002:00006710       One                        10025710     libucrt:common.obj
 0002:00006724       DblMax                     10025724     libucrt:common.obj
 0002:0000672c       DblMin                     1002572c     libucrt:common.obj
 0002:00006734       IeeeAdjO                   10025734     libucrt:common.obj
 0002:0000673c       IeeeAdjU                   1002573c     libucrt:common.obj
 0002:00006744       _infinity                  10025744     libucrt:common.obj
 0002:0000674c       _zero                      1002574c     libucrt:common.obj
 0002:00006788       _over                      10025788     libucrt:fpctrl.obj
 0002:00006794       _under                     10025794     libucrt:fpctrl.obj
 0002:00007058       ?_names@?1??_get_fname@@9@9 10026058     libucrt:fpexcept.obj
 0002:00007828       __sehtable$?_AtlVerifyStackAvailable@_ATL_SAFE_ALLOCA_IMPL@ATL@@YA_NK@Z 10026828     PINPad.obj
 0002:00007848       __sehtable$___scrt_is_nonwritable_in_current_image 10026848     LIBCMT:utility.obj
 0002:00007864       __ehfuncinfo$?__scrt_initialize_thread_safe_statics_platform_specific@@YAXXZ 10026864     LIBCMT:thread_safe_statics.obj
 0002:00007888       __catchsym$??2@YAPAXIABUnothrow_t@std@@@Z$2 10026888     LIBCMT:new_scalar_nothrow.obj
 0002:00007898       __unwindtable$??2@YAPAXIABUnothrow_t@std@@@Z 10026898     LIBCMT:new_scalar_nothrow.obj
 0002:000078a8       __tryblocktable$??2@YAPAXIABUnothrow_t@std@@@Z 100268a8     LIBCMT:new_scalar_nothrow.obj
 0002:000078bc       __ehfuncinfo$??2@YAPAXIABUnothrow_t@std@@@Z 100268bc     LIBCMT:new_scalar_nothrow.obj
 0002:000078e0       __sehtable$?dllmain_crt_process_attach@@YAHQAUHINSTANCE__@@QAX@Z 100268e0     LIBCMT:dll_dllmain.obj
 0002:00007900       __sehtable$?dllmain_crt_process_detach@@YAH_N@Z 10026900     LIBCMT:dll_dllmain.obj
 0002:00007920       __sehtable$?dllmain_dispatch@@YAHQAUHINSTANCE__@@KQAX@Z 10026920     LIBCMT:dll_dllmain.obj
 0002:000079d0       __sehtable$?FrameUnwindToState@__FrameHandler3@@SAXPAUEHRegistrationNode@@PAXPBU_s_FuncInfo@@H@Z 100269d0     libvcruntime:frame.obj
 0002:000079f8       __sehtable$?CallCatchBlock@@YAPAXPAUEHExceptionRecord@@PAUEHRegistrationNode@@PAU_CONTEXT@@PBU_s_FuncInfo@@PAXHK@Z 100269f8     libvcruntime:frame.obj
 0002:00007a20       __catchsym$?CallUnexpected@@YAXPBU_s_ESTypeList@@@Z$2 10026a20     libvcruntime:frame.obj
 0002:00007a30       __unwindtable$?CallUnexpected@@YAXPBU_s_ESTypeList@@@Z 10026a30     libvcruntime:frame.obj
 0002:00007a40       __tryblocktable$?CallUnexpected@@YAXPBU_s_ESTypeList@@@Z 10026a40     libvcruntime:frame.obj
 0002:00007a54       __ehfuncinfo$?CallUnexpected@@YAXPBU_s_ESTypeList@@@Z 10026a54     libvcruntime:frame.obj
 0002:00007a78       __sehtable$??$BuildCatchObjectHelperInternal@V__FrameHandler3@@@@YAHPAUEHExceptionRecord@@PAXPBU_s_HandlerType@@PBU_s_CatchableType@@@Z 10026a78     libvcruntime:frame.obj
 0002:00007a98       __sehtable$??$BuildCatchObjectInternal@V__FrameHandler3@@@@YAXPAUEHExceptionRecord@@PAXPBU_s_HandlerType@@PBU_s_CatchableType@@@Z 10026a98     libvcruntime:frame.obj
 0002:00007af0       __sehtable$___DestructExceptionObject 10026af0     libvcruntime:ehhelpers.obj
 0002:00007b10       __sehtable$?common_exit@@YAXHW4_crt_exit_cleanup_mode@@W4_crt_exit_return_mode@@@Z 10026b10     libucrt:exit.obj
 0002:00007b38       __sehtable$??$?RV<lambda_800076c951b434888f4765a74a194fcc>@@AAV<lambda_4e60a939b0d047cfe11ddc22648dfba9>@@V<lambda_6dbb1268764f43b569ce7b67e331d33a>@@@?$__crt_seh_guarded_call@H@@QAEH$$QAV<lambda_800076c951b434888f4765a74a194fcc>@@AAV<lambda_4e60a939b0d047cfe11ddc22648dfba9>@@$$QAV<lambda_6dbb1268764f43b569ce7b67e331d33a>@@@Z 10026b38     libucrt:onexit.obj
 0002:00007b58       __sehtable$??$?RV<lambda_995298e7d72eb4c2aab26c0585b3abe5>@@AAV<lambda_275893d493268fdec8709772e3fcec0e>@@V<lambda_293819299cbf9a7022e18b56a874bb5c>@@@?$__crt_seh_guarded_call@H@@QAEH$$QAV<lambda_995298e7d72eb4c2aab26c0585b3abe5>@@AAV<lambda_275893d493268fdec8709772e3fcec0e>@@$$QAV<lambda_293819299cbf9a7022e18b56a874bb5c>@@@Z 10026b58     libucrt:onexit.obj
 0002:00007b78       __sehtable$__query_new_handler 10026b78     libucrt:new_handler.obj
 0002:00007b98       __sehtable$_terminate      10026b98     libucrt:terminate.obj
 0002:00007bb8       __sehtable$??$?RV<lambda_9df27f884b057bc3edfc946cb5b7cf47>@@AAV<lambda_e69574bed617af4e071282c136b37893>@@V<lambda_cc0d902bcbbeb830f749456577db4721>@@@?$__crt_seh_guarded_call@X@@QAEX$$QAV<lambda_9df27f884b057bc3edfc946cb5b7cf47>@@AAV<lambda_e69574bed617af4e071282c136b37893>@@$$QAV<lambda_cc0d902bcbbeb830f749456577db4721>@@@Z 10026bb8     libucrt:per_thread_data.obj
 0002:00007bd8       __sehtable$??$?RV<lambda_3518db117f0e7cdb002338c5d3c47b6c>@@AAV<lambda_b2ea41f6bbb362cd97d94c6828d90b61>@@V<lambda_abdedf541bb04549bc734292b4a045d4>@@@?$__crt_seh_guarded_call@X@@QAEX$$QAV<lambda_3518db117f0e7cdb002338c5d3c47b6c>@@AAV<lambda_b2ea41f6bbb362cd97d94c6828d90b61>@@$$QAV<lambda_abdedf541bb04549bc734292b4a045d4>@@@Z 10026bd8     libucrt:per_thread_data.obj
 0002:00007bf8       __sehtable$??$?RV<lambda_51b6e8b1eb166f2a3faf91f424b38130>@@AAV<lambda_6250bd4b2a391816dd638c3bf72b0bcb>@@V<lambda_0b5a4a3e68152e1d9b943535f5f47bed>@@@?$__crt_seh_guarded_call@X@@QAEX$$QAV<lambda_51b6e8b1eb166f2a3faf91f424b38130>@@AAV<lambda_6250bd4b2a391816dd638c3bf72b0bcb>@@$$QAV<lambda_0b5a4a3e68152e1d9b943535f5f47bed>@@@Z 10026bf8     libucrt:per_thread_data.obj
 0002:00007c18       __sehtable$??$?RV<lambda_5b71d36f03204c0beab531769a5b5694>@@AAV<lambda_be2b3da3f62db62e9dad5dc70221a656>@@V<lambda_8f9ce462984622f9bf76b59e2aaaf805>@@@?$__crt_seh_guarded_call@X@@QAEX$$QAV<lambda_5b71d36f03204c0beab531769a5b5694>@@AAV<lambda_be2b3da3f62db62e9dad5dc70221a656>@@$$QAV<lambda_8f9ce462984622f9bf76b59e2aaaf805>@@@Z 10026c18     libucrt:per_thread_data.obj
 0002:00007c38       __sehtable$___acrt_uninitialize_locale 10026c38     libucrt:wsetlocale.obj
 0002:00007c58       __sehtable$___acrt_initialize_lowio 10026c58     libucrt:ioinit.obj
 0002:00007c78       __sehtable$___acrt_update_thread_multibyte_data 10026c78     libucrt:mbctype.obj
 0002:00007c98       __sehtable$??$?RV<lambda_978dc153c237d78434369da87b74ff60>@@AAV<lambda_ad1ced32f4ac17aa236e5ef05d6b3b7c>@@V<lambda_4a8533e2866a575feecb8298ce776b0d>@@@?$__crt_seh_guarded_call@X@@QAEX$$QAV<lambda_978dc153c237d78434369da87b74ff60>@@AAV<lambda_ad1ced32f4ac17aa236e5ef05d6b3b7c>@@$$QAV<lambda_4a8533e2866a575feecb8298ce776b0d>@@@Z 10026c98     libucrt:mbctype.obj
 0002:00007cb8       __sehtable$_raise          10026cb8     libucrt:signal.obj
 0002:00007cd8       __sehtable$??$?RV<lambda_a048d3beccc847880fc8490e18b82769>@@AAV<lambda_ec61778202f4f5fc7e7711acc23c3bca>@@V<lambda_f7496a158712204296dd6628a163878e>@@@?$__crt_seh_guarded_call@P6AXH@Z@@QAEP6AXH@Z$$QAV<lambda_a048d3beccc847880fc8490e18b82769>@@AAV<lambda_ec61778202f4f5fc7e7711acc23c3bca>@@$$QAV<lambda_f7496a158712204296dd6628a163878e>@@@Z 10026cd8     libucrt:signal.obj
 0002:00007cf8       __sehtable$___acrt_update_thread_locale_data 10026cf8     libucrt:locale_refcounting.obj
 0002:00007d18       __sehtable$__fcloseall     10026d18     libucrt:closeall.obj
 0002:00007d38       __sehtable$_common_flush_all 10026d38     libucrt:fflush.obj
 0002:00007d60       __sehtable$___acrt_lowio_ensure_fh_exists 10026d60     libucrt:osfinfo.obj
 0002:00007d80       __sehtable$__write         10026d80     libucrt:write.obj
 0002:00007da0       __sehtable$_fclose         10026da0     libucrt:fclose.obj
 0002:00007dc0       __sehtable$??$?RV<lambda_61cee617f5178ae960314fd4d05640a0>@@AAV<lambda_6978c1fb23f02e42e1d9e99668cc68aa>@@V<lambda_9cd88cf8ad10232537feb2133f08c833>@@@?$__crt_seh_guarded_call@H@@QAEH$$QAV<lambda_61cee617f5178ae960314fd4d05640a0>@@AAV<lambda_6978c1fb23f02e42e1d9e99668cc68aa>@@$$QAV<lambda_9cd88cf8ad10232537feb2133f08c833>@@@Z 10026dc0     libucrt:commit.obj
 0002:00007de0       __sehtable$??$?RV<lambda_123407a5e2ac06da108355a851863b7a>@@AAV<lambda_2fe9b910cf3cbf4a0ab98a02ba45b3ec>@@V<lambda_ae55bdf541ad94d75914d381c370e64d>@@@?$__crt_seh_guarded_call@H@@QAEH$$QAV<lambda_123407a5e2ac06da108355a851863b7a>@@AAV<lambda_2fe9b910cf3cbf4a0ab98a02ba45b3ec>@@$$QAV<lambda_ae55bdf541ad94d75914d381c370e64d>@@@Z 10026de0     libucrt:close.obj
 0002:00007e00       __sehtable$__IsNonwritableInCurrentImage 10026e00     LIBCMT:pesect.obj
 0002:00007e30       .edata                     10026e30     OPOSPINPad.exp
 0002:00007e58       rgpv                       10026e58     OPOSPINPad.exp
 0002:00007e68       rgszName                   10026e68     OPOSPINPad.exp
 0002:00007e78       rgwOrd                     10026e78     OPOSPINPad.exp
 0002:00007e80       szName                     10026e80     OPOSPINPad.exp
 0002:00007e8f       $N00001                    10026e8f     OPOSPINPad.exp
 0002:00007e9f       $N00002                    10026e9f     OPOSPINPad.exp
 0002:00007eb1       $N00003                    10026eb1     OPOSPINPad.exp
 0002:00007ec3       $N00004                    10026ec3     OPOSPINPad.exp
 0002:000084d6       .idata$6                   100274d6     kernel32:KERNEL32.dll
 0002:000086ea       .idata$6                   100276ea     user32:USER32.dll
 0002:0000881e       .idata$6                   1002781e     gdi32:GDI32.dll
 0002:000088c4       .idata$6                   100278c4     advapi32:ADVAPI32.dll
 0002:000089e0       .idata$6                   100279e0     ole32:ole32.dll
 0002:000089ea       .idata$6                   100279ea     oleaut32:OLEAUT32.dll
 0003:00000110       ?ObjectMap@@3PAU_ATL_OBJMAP_ENTRY30@ATL@@A 10028110     PINPad.obj
 0003:000001b0       ?s_SOMethodNames@@3PAPADA  100281b0     PINPadImpl.obj
 0003:0000021c       ?s_RequiredMethodsPerRelease@@3PAHA 1002821c     PINPadImpl.obj
 0003:00000260       ?__vcrt_flsindex@@3KA      10028260     libvcruntime:per_thread_data.obj
 0003:00000280       _errno_no_memory           10028280     libucrt:errno.obj
 0003:00000284       _doserrno_no_memory        10028284     libucrt:errno.obj
 0003:00000290       ___acrt_flsindex           10028290     libucrt:per_thread_data.obj
 0003:00000404       ___rgctypeflag             10028404     libucrt:mbctype.obj
 0003:00000408       ___rgcode_page_info        10028408     libucrt:mbctype.obj
 0003:00000b28       ?is_initialized_as_dll@@3_NA 10028b28     LIBCMT:utility.obj
 0003:00000b29       ?module_local_atexit_table_initialized@@3_NA 10028b29     LIBCMT:utility.obj
 0003:00000b2c       ?module_local_atexit_table@@3U_onexit_table_t@@A 10028b2c     LIBCMT:utility.obj
 0003:00000b38       ?module_local_at_quick_exit_table@@3U_onexit_table_t@@A 10028b38     LIBCMT:utility.obj
 0003:00000b44       ?_Tss_mutex@@3U_RTL_CRITICAL_SECTION@@A 10028b44     LIBCMT:thread_safe_statics.obj
 0003:00000b5c       ?_Tss_cv@@3U_RTL_CONDITION_VARIABLE@@A 10028b5c     LIBCMT:thread_safe_statics.obj
 0003:00000b60       ?_Tss_event@@3PAXA         10028b60     LIBCMT:thread_safe_statics.obj
 0003:00000b64       ?encoded_sleep_condition_variable_cs@@3P6GHPAU_RTL_CONDITION_VARIABLE@@PAU_RTL_CRITICAL_SECTION@@K@ZA 10028b64     LIBCMT:thread_safe_statics.obj
 0003:00000b68       ?encoded_wake_all_condition_variable@@3P6GXPAU_RTL_CONDITION_VARIABLE@@@ZA 10028b68     LIBCMT:thread_safe_statics.obj
 0003:00000b70       _GS_ExceptionRecord        10028b70     LIBCMT:gs_report.obj
 0003:00000bc0       _GS_ContextRecord          10028bc0     LIBCMT:gs_report.obj
 0003:00000e90       ?__proc_attached@@3HA      10028e90     LIBCMT:dll_dllmain.obj
 0003:00000eec       ?AllocateData@@3P6GPAUAtlThunkData_t@@XZA 10028eec     atls:atlthunk.obj
 0003:00000ef0       ?InitData@@3P6GXPAUAtlThunkData_t@@PAXI@ZA 10028ef0     atls:atlthunk.obj
 0003:00000ef4       ?DataToCode@@3P6GP6GJPAUHWND__@@IIJ@ZPAUAtlThunkData_t@@@ZA 10028ef4     atls:atlthunk.obj
 0003:00000ef8       ?FreeData@@3P6GXPAUAtlThunkData_t@@@ZA 10028ef8     atls:atlthunk.obj
 0003:00000efc       ?Initialized@@3_NA         10028efc     atls:atlthunk.obj
 0003:00000f08       ?__vcrt_startup_thread_ptd@@3U__vcrt_ptd@@A 10028f08     libvcruntime:per_thread_data.obj
 0003:00000f30       ___vcrt_lock_table         10028f30     libvcruntime:locks.obj
 0003:00000f48       ___vcrt_locks_initialized  10028f48     libvcruntime:locks.obj
 0003:00000f4c       ?module_handles@@3PAPAUHINSTANCE__@@A 10028f4c     libvcruntime:winapi_downlevel.obj
 0003:00000f58       ?encoded_function_pointers@@3PAPAXA 10028f58     libvcruntime:winapi_downlevel.obj
 0003:00000f94       ?heap@@3V_HeapManager@@A   10028f94     libvcruntime:undname.obj
 0003:00000fac       ___acrt_invalid_parameter_handler 10028fac     libucrt:invalid_parameter.obj
 0003:00000fb0       _c_termination_complete    10028fb0     libucrt:exit.obj
 0003:00000fb4       _thread_local_exit_callback_func 10028fb4     libucrt:exit.obj
 0003:00000fb8       ?c_exit_complete@?5??common_exit@@YAXHW4_crt_exit_cleanup_mode@@W4_crt_exit_return_mode@@@Z@4_NA 10028fb8     libucrt:exit.obj
 0003:00000fc0       ?program_name@?5???$common_configure_argv@D@@YAHW4_crt_argv_mode@@@Z@4PADA 10028fc0     libucrt:argv_parsing.obj
 0003:000010f0       ___acrt_new_handler        100290f0     libucrt:new_handler.obj
 0003:000010f8       _module_handles            100290f8     libucrt:winapi_thunks.obj
 0003:00001148       _encoded_function_pointers 10029148     libucrt:winapi_thunks.obj
 0003:000011c8       ?state_cache@?1??__acrt_is_packaged_app@@9@4JA 100291c8     libucrt:winapi_thunks.obj
 0003:000011d4       _enable_percent_n          100291d4     libucrt:printf_count_output.obj
 0003:000013f0       ___acrt_lock_table         100293f0     libucrt:locks.obj
 0003:00001528       ___acrt_locks_initialized  10029528     libucrt:locks.obj
 0003:00001544       _fSystemSet                10029544     libucrt:mbctype.obj
 0003:00001548       ?initialized@?1??__acrt_initialize_multibyte@@9@4_NA 10029548     libucrt:mbctype.obj
 0003:00001568       _ctrlc_action              10029568     libucrt:signal.obj
 0003:0000156c       _ctrlbreak_action          1002956c     libucrt:signal.obj
 0003:00001570       _abort_action              10029570     libucrt:signal.obj
 0003:00001574       _term_action               10029574     libucrt:signal.obj
 0003:00001578       _user_matherr              10029578     libucrt:matherr.obj
 0003:0000157c       ___acrt_global_new_mode    1002957c     libucrt:new_mode.obj
 0003:00001588       ___acrt_app_type           10029588     libucrt:report_runtime_error.obj
 0003:00001590       __pmatherr_set             10029590     libucrt:libm_error.obj
 0004:00000220       $R000000                   1002a220     PINPad.res
 0004:00000b78       $R000958                   1002ab78     PINPad.res
 0004:00000c60       $R000A40                   1002ac60     PINPad.res
 0004:00000ec8       $R000CA8                   1002aec8     PINPad.res
 0004:000013d0       $R0011B0                   1002b3d0     PINPad.res
 0004:00004ba0       $R004980                   1002eba0     PINPad.res
 0004:00004bd0       $R0049B0                   1002ebd0     PINPad.res
