 OPOSVideoCapture

 Timestamp is 61a75a48 (Wed Dec  1 20:19:36 2021)

 Preferred load address is 10000000

 Start         Length     Name                   Class
 0001:00000000 00000080H .text$di                CODE
 0001:00000080 0001f1c8H .text$mn                CODE
 0001:0001f248 000000d8H .text$x                 CODE
 0001:0001f320 00000042H .text$yd                CODE
 0002:00000000 000002fcH .idata$5                DATA
 0002:000002fc 00000008H .00cfg                  DATA
 0002:00000304 00000004H .CRT$XCA                DATA
 0002:00000308 00000004H .CRT$XCL                DATA
 0002:0000030c 00000010H .CRT$XCU                DATA
 0002:0000031c 00000004H .CRT$XCZ                DATA
 0002:00000320 00000004H .CRT$XIA                DATA
 0002:00000324 00000010H .CRT$XIC                DATA
 0002:00000334 00000004H .CRT$XIZ                DATA
 0002:00000338 00000004H .CRT$XLA                DATA
 0002:0000033c 00000004H .CRT$XLZ                DATA
 0002:00000340 00000004H .CRT$XPA                DATA
 0002:00000344 00000008H .CRT$XPX                DATA
 0002:0000034c 00000004H .CRT$XPXA               DATA
 0002:00000350 00000004H .CRT$XPZ                DATA
 0002:00000354 00000004H .CRT$XTA                DATA
 0002:00000358 00000008H .CRT$XTZ                DATA
 0002:0000035c 00000000H .gfids$y                DATA
 0002:00000360 00006fa0H .rdata                  DATA
 0002:00007300 00000000H .rdata$CastGuardVftablesA DATA
 0002:00007300 00000000H .rdata$CastGuardVftablesC DATA
 0002:00007300 00000018H .rdata$T                DATA
 0002:00007318 00000178H .rdata$r                DATA
 0002:00007490 0000002cH .rdata$sxdata           DATA
 0002:000074bc 00000030H .rdata$voltmd           DATA
 0002:000074ec 0000040cH .rdata$zzzdbg           DATA
 0002:000078f8 00000004H .rtc$IAA                DATA
 0002:000078fc 00000004H .rtc$IZZ                DATA
 0002:00007900 00000004H .rtc$TAA                DATA
 0002:00007904 00000004H .rtc$TZZ                DATA
 0002:00007908 00000004H .tls                    DATA
 0002:0000790c 00000004H .tls$                   DATA
 0002:00007910 00000008H .tls$ZZZ                DATA
 0002:00007918 000006dcH .xdata$x                DATA
 0002:00007ff4 00000004H ATL$__a                 DATA
 0002:00007ff8 00000008H ATL$__z                 DATA
 0002:00008000 000000b0H .edata                  DATA
 0002:000080b0 00000078H .idata$2                DATA
 0002:00008128 00000014H .idata$3                DATA
 0002:0000813c 000002fcH .idata$4                DATA
 0002:00008438 00000bceH .idata$6                DATA
 0003:00000000 00000a80H .data                   DATA
 0003:00000a80 00000080H .data$r                 DATA
 0003:00000b00 00000018H .data$rs                DATA
 0003:00000b18 00000b80H .bss                    DATA
 0004:00000000 00000220H .rsrc$01                DATA
 0004:00000220 000057e8H .rsrc$02                DATA

  Address         Publics by Value              Rva+Base       Lib:Object

 0000:00000000       ___guard_fids_count        00000000     <absolute>
 0000:00000000       ___guard_eh_cont_table     00000000     <absolute>
 0000:00000000       ___guard_longjmp_table     00000000     <absolute>
 0000:00000000       ___arm64x_extra_rfe_table  00000000     <absolute>
 0000:00000000       ___arm64x_redirection_metadata 00000000     <absolute>
 0000:00000000       ___guard_iat_count         00000000     <absolute>
 0000:00000000       ___guard_eh_cont_count     00000000     <absolute>
 0000:00000000       __except_list              00000000     <absolute>
 0000:00000000       ___x64_code_ranges_to_entry_points_count 00000000     <absolute>
 0000:00000000       ___hybrid_code_map_count   00000000     <absolute>
 0000:00000000       ___x64_code_ranges_to_entry_points 00000000     <absolute>
 0000:00000000       ___guard_iat_table         00000000     <absolute>
 0000:00000000       ___arm64x_native_entrypoint 00000000     <absolute>
 0000:00000000       ___hybrid_code_map         00000000     <absolute>
 0000:00000000       ___arm64x_extra_rfe_table_size 00000000     <absolute>
 0000:00000000       ___guard_longjmp_count     00000000     <absolute>
 0000:00000000       ___guard_check_icall_a64n_fptr 00000000     <absolute>
 0000:00000000       ___arm64x_redirection_metadata_count 00000000     <absolute>
 0000:00000000       ___hybrid_auxiliary_iat    00000000     <absolute>
 0000:00000000       ___dynamic_value_reloc_table 00000000     <absolute>
 0000:00000000       ___AbsoluteZero            00000000     <absolute>
 0000:00000000       ___enclave_config          00000000     <absolute>
 0000:00000000       ___guard_fids_table        00000000     <absolute>
 0000:00000000       ___hybrid_auxiliary_iat_copy 00000000     <absolute>
 0000:0000000b       ___safe_se_handler_count   0000000b     <absolute>
 0000:0000002c       __tls_array                0000002c     <absolute>
 0000:00000100       ___guard_flags             00000100     <absolute>
 0000:00000000       ___ImageBase               10000000     <linker-defined>
 0001:00000080       ?DupWide@_CW@@AAEXXZ       10001080 f   CWString.obj
 0001:0000009c       ?cw_dup@@YGXPBDAAHAAPA_W1@Z 1000109c f   CWString.obj
 0001:00000124       ?cw_memcpy@@YGHPA_WPBDH@Z  10001124 f   CWString.obj
 0001:00000150       ?cw_strcpy@@YAHPA_WPBD@Z   10001150 f   CWString.obj
 0001:00000163       ?cw_strlen@@YAHPBD@Z       10001163 f   CWString.obj
 0001:0000017c       ??0CAtlComModule@ATL@@QAE@XZ 1000117c f i OposVariant.obj
 0001:000001c1       ??0CAtlWinModule@ATL@@QAE@XZ 100011c1 f i OposVariant.obj
 0001:000001f8       ??0OposDispParms@@QAE@PAVOposVariant@@H@Z 100011f8 f   OposVariant.obj
 0001:00000269       ??1OposDispParms@@QAE@XZ   10001269 f   OposVariant.obj
 0001:00000277       ??A?$CSimpleArray@GV?$CSimpleArrayEqualHelper@G@ATL@@@ATL@@QAEAAGH@Z 10001277 f i OposVariant.obj
 0001:0000029c       ??_Estringdispid@CComTypeInfoHolder@ATL@@QAEPAXI@Z 1000129c f i OposVariant.obj
 0001:00000308       ?AtlWinModuleInit@ATL@@YGJPAU_ATL_WIN_MODULE70@1@@Z 10001308 f i OposVariant.obj
 0001:0000032e       ?AtlWinModuleTerm@ATL@@YGJPAU_ATL_WIN_MODULE70@1@PAUHINSTANCE__@@@Z 1000132e f i OposVariant.obj
 0001:00000391       ?ChangeBSTR@OposVariant@@QAEXPAPA_WAAJ@Z 10001391 f   OposVariant.obj
 0001:000003d2       ?ChangeLONG@OposVariant@@QAEXPAJAAJ@Z 100013d2 f   OposVariant.obj
 0001:00000413       ?GetLONG@OposVariant@@QAEJXZ 10001413 f   OposVariant.obj
 0001:0000042e       ?Init@CComCriticalSection@ATL@@QAEJXZ 1000142e f i OposVariant.obj
 0001:00000456       ?RemoveAll@?$CSimpleArray@PAUHINSTANCE__@@V?$CSimpleArrayEqualHelper@PAUHINSTANCE__@@@ATL@@@ATL@@QAEXXZ 10001456 f i atls:atlbase.obj
 0001:00000456       ?RemoveAll@?$CSimpleArray@GV?$CSimpleArrayEqualHelper@G@ATL@@@ATL@@QAEXXZ 10001456 f i OposVariant.obj
 0001:00000473       ?SetBSTR@OposVariant@@QAEXPA_WAAJ@Z 10001473 f   OposVariant.obj
 0001:000004a7       ?SetBSTR_Copy@OposVariant@@QAEXPA_WAAJ@Z 100014a7 f   OposVariant.obj
 0001:000004f7       ?SetBSTR_InOutPtr@OposVariant@@QAE_NPAPA_WAAJ@Z 100014f7 f   OposVariant.obj
 0001:0000052e       ?SetDispatch_Ptr@OposVariant@@QAEXPAUIDispatch@@AAJ@Z 1000152e f   OposVariant.obj
 0001:00000569       ?SetLONG@OposVariant@@QAEXJ@Z 10001569 f   OposVariant.obj
 0001:0000058b       ?SetLONG_Ptr@OposVariant@@QAEXPAJAAJ@Z 1000158b f   OposVariant.obj
 0001:000005be       ?SetString@OposVariant@@QAEXPB_WAAJ@Z 100015be f   OposVariant.obj
 0001:00000604       ?SetVARIANT_BOOL@OposVariant@@QAEXF@Z 10001604 f   OposVariant.obj
 0001:0000062e       ?Term@CAtlComModule@ATL@@QAEXXZ 1000162e f i OposVariant.obj
 0001:00000678       ?_AtlRaiseException@ATL@@YAXKK@Z 10001678 f i OposVariant.obj
 0001:0000068d       ?OnDrawAdvanced@CComControlBase@ATL@@UAEJAAUATL_DRAWINFO@@@Z 1000168d f i VideoCapture.obj
 0001:00000780       ?OnFinalMessage@?$CWindowImplBaseT@VCWindow@ATL@@V?$CWinTraits@$0FGAAAAAA@$0A@@2@@ATL@@UAEXPAUHWND__@@@Z 10001780 f i VideoCapture.obj
 0001:00000780       ?ObjectMain@CComObjectRootBase@ATL@@SGX_N@Z 10001780 f i VideoCapture.obj
 0001:00000783       ?GetCategoryMap@CComObjectRootBase@ATL@@SAPBU_ATL_CATMAP_ENTRY@2@XZ 10001783 f i VideoCapture.obj
 0001:00000783       ?GetObjectDescription@?$CComCoClass@VCOPOSVideoCapture@@$1?CLSID_OPOSVideoCapture@@3U_GUID@@B@ATL@@SGPB_WXZ 10001783 f i VideoCapture.obj
 0001:00000786       ?Next@?$CComEnumImpl@UIEnumConnections@@$1?_GUID_b196b287_bab4_101a_b69c_00aa00341d07@@3U__s_GUID@@BUtagCONNECTDATA@@V?$_Copy@UtagCONNECTDATA@@@ATL@@@ATL@@UAGJKPAUtagCONNECTDATA@@PAK@Z 10001786 f i VideoCapture.obj
 0001:00000855       ?Skip@?$CComEnumImpl@UIEnumConnections@@$1?_GUID_b196b287_bab4_101a_b69c_00aa00341d07@@3U__s_GUID@@BUtagCONNECTDATA@@V?$_Copy@UtagCONNECTDATA@@@ATL@@@ATL@@UAGJK@Z 10001855 f i VideoCapture.obj
 0001:00000882       ?Reset@?$CComEnumImpl@UIEnumConnectionPoints@@$1?_GUID_b196b285_bab4_101a_b69c_00aa00341d07@@3U__s_GUID@@BPAUIConnectionPoint@@V?$_CopyInterface@UIConnectionPoint@@@ATL@@@ATL@@UAGJXZ 10001882 f i VideoCapture.obj
 0001:00000882       ?Reset@?$CComEnumImpl@UIEnumConnections@@$1?_GUID_b196b287_bab4_101a_b69c_00aa00341d07@@3U__s_GUID@@BUtagCONNECTDATA@@V?$_Copy@UtagCONNECTDATA@@@ATL@@@ATL@@UAGJXZ 10001882 f i VideoCapture.obj
 0001:00000894       ?Clone@?$CComEnumImpl@UIEnumConnections@@$1?_GUID_b196b287_bab4_101a_b69c_00aa00341d07@@3U__s_GUID@@BUtagCONNECTDATA@@V?$_Copy@UtagCONNECTDATA@@@ATL@@@ATL@@UAGJPAPAUIEnumConnections@@@Z 10001894 f i VideoCapture.obj
 0001:00000975       ?AddRef@?$CComObject@V?$CComEnum@UIEnumConnectionPoints@@$1?_GUID_b196b285_bab4_101a_b69c_00aa00341d07@@3U__s_GUID@@BPAUIConnectionPoint@@V?$_CopyInterface@UIConnectionPoint@@@ATL@@VCComSingleThreadModel@6@@ATL@@@ATL@@UAGKXZ 10001975 f i VideoCapture.obj
 0001:00000975       ?AddRef@?$CComObject@V?$CComEnum@UIEnumConnections@@$1?_GUID_b196b287_bab4_101a_b69c_00aa00341d07@@3U__s_GUID@@BUtagCONNECTDATA@@V?$_Copy@UtagCONNECTDATA@@@ATL@@VCComSingleThreadModel@6@@ATL@@@ATL@@UAGKXZ 10001975 f i VideoCapture.obj
 0001:00000986       ?Release@?$CComObject@V?$CComEnum@UIEnumConnectionPoints@@$1?_GUID_b196b285_bab4_101a_b69c_00aa00341d07@@3U__s_GUID@@BPAUIConnectionPoint@@V?$_CopyInterface@UIConnectionPoint@@@ATL@@VCComSingleThreadModel@6@@ATL@@@ATL@@UAGKXZ 10001986 f i VideoCapture.obj
 0001:00000986       ?Release@?$CComObject@V?$CComEnum@UIEnumConnections@@$1?_GUID_b196b287_bab4_101a_b69c_00aa00341d07@@3U__s_GUID@@BUtagCONNECTDATA@@V?$_Copy@UtagCONNECTDATA@@@ATL@@VCComSingleThreadModel@6@@ATL@@@ATL@@UAGKXZ 10001986 f i VideoCapture.obj
 0001:000009c2       ?QueryInterface@?$CComObject@V?$CComEnum@UIEnumConnections@@$1?_GUID_b196b287_bab4_101a_b69c_00aa00341d07@@3U__s_GUID@@BUtagCONNECTDATA@@V?$_Copy@UtagCONNECTDATA@@@ATL@@VCComSingleThreadModel@6@@ATL@@@ATL@@UAGJABU_GUID@@PAPAX@Z 100019c2 f i VideoCapture.obj
 0001:000009dc       ??_E?$CComObject@V?$CComEnum@UIEnumConnections@@$1?_GUID_b196b287_bab4_101a_b69c_00aa00341d07@@3U__s_GUID@@BUtagCONNECTDATA@@V?$_Copy@UtagCONNECTDATA@@@ATL@@VCComSingleThreadModel@6@@ATL@@@ATL@@UAEPAXI@Z 100019dc f i VideoCapture.obj
 0001:000009dc       ??_G?$CComObject@V?$CComEnum@UIEnumConnections@@$1?_GUID_b196b287_bab4_101a_b69c_00aa00341d07@@3U__s_GUID@@BUtagCONNECTDATA@@V?$_Copy@UtagCONNECTDATA@@@ATL@@VCComSingleThreadModel@6@@ATL@@@ATL@@UAEPAXI@Z 100019dc f i VideoCapture.obj
 0001:000009fe       ?CreateInstance@CComClassFactory@ATL@@UAGJPAUIUnknown@@ABU_GUID@@PAPAX@Z 100019fe f i VideoCapture.obj
 0001:00000a3c       ?LockServer@CComClassFactory@ATL@@UAGJH@Z 10001a3c f i VideoCapture.obj
 0001:00000a5b       ??_GCComClassFactory@ATL@@UAEPAXI@Z 10001a5b f i VideoCapture.obj
 0001:00000a5b       ??_ECComClassFactory@ATL@@UAEPAXI@Z 10001a5b f i VideoCapture.obj
 0001:00000a86       ??_E?$CComObject@VCOPOSVideoCapture@@@ATL@@W3AEPAXI@Z 10001a86 f i VideoCapture.obj
 0001:00000a8e       ??_E?$CComObject@VCOPOSVideoCapture@@@ATL@@WEM@AEPAXI@Z 10001a8e f i VideoCapture.obj
 0001:00000a96       ?QueryInterface@?$CComObject@VCOPOSVideoCapture@@@ATL@@WHA@AGJABU_GUID@@PAPAX@Z 10001a96 f i VideoCapture.obj
 0001:00000aa0       ?AddRef@?$CComObject@VCOPOSVideoCapture@@@ATL@@WHA@AGKXZ 10001aa0 f i VideoCapture.obj
 0001:00000aaa       ?Release@?$CComObject@VCOPOSVideoCapture@@@ATL@@WHA@AGKXZ 10001aaa f i VideoCapture.obj
 0001:00000ab4       ?QueryInterface@?$CComObject@VCOPOSVideoCapture@@@ATL@@WHE@AGJABU_GUID@@PAPAX@Z 10001ab4 f i VideoCapture.obj
 0001:00000abe       ?AddRef@?$CComObject@VCOPOSVideoCapture@@@ATL@@WHE@AGKXZ 10001abe f i VideoCapture.obj
 0001:00000ac8       ?Release@?$CComObject@VCOPOSVideoCapture@@@ATL@@WHE@AGKXZ 10001ac8 f i VideoCapture.obj
 0001:00000ad2       ?QueryInterface@?$CComObject@VCOPOSVideoCapture@@@ATL@@WHI@AGJABU_GUID@@PAPAX@Z 10001ad2 f i VideoCapture.obj
 0001:00000adc       ?AddRef@?$CComObject@VCOPOSVideoCapture@@@ATL@@WHI@AGKXZ 10001adc f i VideoCapture.obj
 0001:00000ae6       ?Release@?$CComObject@VCOPOSVideoCapture@@@ATL@@WHI@AGKXZ 10001ae6 f i VideoCapture.obj
 0001:00000af0       ?QueryInterface@?$CComObject@VCOPOSVideoCapture@@@ATL@@WHM@AGJABU_GUID@@PAPAX@Z 10001af0 f i VideoCapture.obj
 0001:00000afa       ?AddRef@?$CComObject@VCOPOSVideoCapture@@@ATL@@WHM@AGKXZ 10001afa f i VideoCapture.obj
 0001:00000b04       ?Release@?$CComObject@VCOPOSVideoCapture@@@ATL@@WHM@AGKXZ 10001b04 f i VideoCapture.obj
 0001:00000b0e       ?QueryInterface@?$CComObject@VCOPOSVideoCapture@@@ATL@@WIA@AGJABU_GUID@@PAPAX@Z 10001b0e f i VideoCapture.obj
 0001:00000b1b       ?AddRef@?$CComObject@VCOPOSVideoCapture@@@ATL@@WIA@AGKXZ 10001b1b f i VideoCapture.obj
 0001:00000b28       ?Release@?$CComObject@VCOPOSVideoCapture@@@ATL@@WIA@AGKXZ 10001b28 f i VideoCapture.obj
 0001:00000b35       ?QueryInterface@?$CComObject@VCOPOSVideoCapture@@@ATL@@WIE@AGJABU_GUID@@PAPAX@Z 10001b35 f i VideoCapture.obj
 0001:00000b42       ?AddRef@?$CComObject@VCOPOSVideoCapture@@@ATL@@WIE@AGKXZ 10001b42 f i VideoCapture.obj
 0001:00000b4f       ?Release@?$CComObject@VCOPOSVideoCapture@@@ATL@@WIE@AGKXZ 10001b4f f i VideoCapture.obj
 0001:00000b5c       ?QueryInterface@?$CComObject@VCOPOSVideoCapture@@@ATL@@WII@AGJABU_GUID@@PAPAX@Z 10001b5c f i VideoCapture.obj
 0001:00000b69       ?AddRef@?$CComObject@VCOPOSVideoCapture@@@ATL@@WII@AGKXZ 10001b69 f i VideoCapture.obj
 0001:00000b76       ?Release@?$CComObject@VCOPOSVideoCapture@@@ATL@@WII@AGKXZ 10001b76 f i VideoCapture.obj
 0001:00000b83       ?QueryInterface@?$CComObject@VCOPOSVideoCapture@@@ATL@@WIM@AGJABU_GUID@@PAPAX@Z 10001b83 f i VideoCapture.obj
 0001:00000b90       ?AddRef@?$CComObject@VCOPOSVideoCapture@@@ATL@@WIM@AGKXZ 10001b90 f i VideoCapture.obj
 0001:00000b9d       ?Release@?$CComObject@VCOPOSVideoCapture@@@ATL@@WIM@AGKXZ 10001b9d f i VideoCapture.obj
 0001:00000baa       ?QueryInterface@?$CComObject@VCOPOSVideoCapture@@@ATL@@WJA@AGJABU_GUID@@PAPAX@Z 10001baa f i VideoCapture.obj
 0001:00000bb7       ?AddRef@?$CComObject@VCOPOSVideoCapture@@@ATL@@WJA@AGKXZ 10001bb7 f i VideoCapture.obj
 0001:00000bc4       ?Release@?$CComObject@VCOPOSVideoCapture@@@ATL@@WJA@AGKXZ 10001bc4 f i VideoCapture.obj
 0001:00000bd1       ?QueryInterface@?$CComObject@VCOPOSVideoCapture@@@ATL@@WJE@AGJABU_GUID@@PAPAX@Z 10001bd1 f i VideoCapture.obj
 0001:00000bde       ?AddRef@?$CComObject@VCOPOSVideoCapture@@@ATL@@WJE@AGKXZ 10001bde f i VideoCapture.obj
 0001:00000beb       ?Release@?$CComObject@VCOPOSVideoCapture@@@ATL@@WJE@AGKXZ 10001beb f i VideoCapture.obj
 0001:00000bf8       ?QueryInterface@?$CComObject@VCOPOSVideoCapture@@@ATL@@WJI@AGJABU_GUID@@PAPAX@Z 10001bf8 f i VideoCapture.obj
 0001:00000c05       ?AddRef@?$CComObject@VCOPOSVideoCapture@@@ATL@@WJI@AGKXZ 10001c05 f i VideoCapture.obj
 0001:00000c12       ?Release@?$CComObject@VCOPOSVideoCapture@@@ATL@@WJI@AGKXZ 10001c12 f i VideoCapture.obj
 0001:00000c1f       ?QueryInterface@?$CComObject@VCOPOSVideoCapture@@@ATL@@WJM@AGJABU_GUID@@PAPAX@Z 10001c1f f i VideoCapture.obj
 0001:00000c2c       ?AddRef@?$CComObject@VCOPOSVideoCapture@@@ATL@@WJM@AGKXZ 10001c2c f i VideoCapture.obj
 0001:00000c39       ?Release@?$CComObject@VCOPOSVideoCapture@@@ATL@@WJM@AGKXZ 10001c39 f i VideoCapture.obj
 0001:00000c46       ?QueryInterface@?$CComObject@VCOPOSVideoCapture@@@ATL@@WKA@AGJABU_GUID@@PAPAX@Z 10001c46 f i VideoCapture.obj
 0001:00000c53       ?AddRef@?$CComObject@VCOPOSVideoCapture@@@ATL@@WKA@AGKXZ 10001c53 f i VideoCapture.obj
 0001:00000c60       ?Release@?$CComObject@VCOPOSVideoCapture@@@ATL@@WKA@AGKXZ 10001c60 f i VideoCapture.obj
 0001:00000c6d       ?AddRef@?$CComObject@VCOPOSVideoCapture@@@ATL@@WKI@AGKXZ 10001c6d f i VideoCapture.obj
 0001:00000c7a       ?Release@?$CComObject@VCOPOSVideoCapture@@@ATL@@WKI@AGKXZ 10001c7a f i VideoCapture.obj
 0001:00000c87       ?AddRef@?$CComObject@VCOPOSVideoCapture@@@ATL@@WLE@AGKXZ 10001c87 f i VideoCapture.obj
 0001:00000c94       ?Release@?$CComObject@VCOPOSVideoCapture@@@ATL@@WLE@AGKXZ 10001c94 f i VideoCapture.obj
 0001:00000ca1       ??_E?$CComContainedObject@VCOPOSVideoCapture@@@ATL@@W3AEPAXI@Z 10001ca1 f i VideoCapture.obj
 0001:00000ca9       ??_E?$CComContainedObject@VCOPOSVideoCapture@@@ATL@@WEM@AEPAXI@Z 10001ca9 f i VideoCapture.obj
 0001:00000cb1       ?QueryInterface@?$CComContainedObject@VCOPOSVideoCapture@@@ATL@@WHA@AGJABU_GUID@@PAPAX@Z 10001cb1 f i VideoCapture.obj
 0001:00000cbb       ?AddRef@?$CComContainedObject@VCOPOSVideoCapture@@@ATL@@WHA@AGKXZ 10001cbb f i VideoCapture.obj
 0001:00000cc5       ?Release@?$CComContainedObject@VCOPOSVideoCapture@@@ATL@@WHA@AGKXZ 10001cc5 f i VideoCapture.obj
 0001:00000ccf       ?QueryInterface@?$CComContainedObject@VCOPOSVideoCapture@@@ATL@@WHE@AGJABU_GUID@@PAPAX@Z 10001ccf f i VideoCapture.obj
 0001:00000cd9       ?AddRef@?$CComContainedObject@VCOPOSVideoCapture@@@ATL@@WHE@AGKXZ 10001cd9 f i VideoCapture.obj
 0001:00000ce3       ?Release@?$CComContainedObject@VCOPOSVideoCapture@@@ATL@@WHE@AGKXZ 10001ce3 f i VideoCapture.obj
 0001:00000ced       ?QueryInterface@?$CComContainedObject@VCOPOSVideoCapture@@@ATL@@WHI@AGJABU_GUID@@PAPAX@Z 10001ced f i VideoCapture.obj
 0001:00000cf7       ?AddRef@?$CComContainedObject@VCOPOSVideoCapture@@@ATL@@WHI@AGKXZ 10001cf7 f i VideoCapture.obj
 0001:00000d01       ?Release@?$CComContainedObject@VCOPOSVideoCapture@@@ATL@@WHI@AGKXZ 10001d01 f i VideoCapture.obj
 0001:00000d0b       ?QueryInterface@?$CComContainedObject@VCOPOSVideoCapture@@@ATL@@WHM@AGJABU_GUID@@PAPAX@Z 10001d0b f i VideoCapture.obj
 0001:00000d15       ?AddRef@?$CComContainedObject@VCOPOSVideoCapture@@@ATL@@WHM@AGKXZ 10001d15 f i VideoCapture.obj
 0001:00000d1f       ?Release@?$CComContainedObject@VCOPOSVideoCapture@@@ATL@@WHM@AGKXZ 10001d1f f i VideoCapture.obj
 0001:00000d29       ?QueryInterface@?$CComContainedObject@VCOPOSVideoCapture@@@ATL@@WIA@AGJABU_GUID@@PAPAX@Z 10001d29 f i VideoCapture.obj
 0001:00000d36       ?AddRef@?$CComContainedObject@VCOPOSVideoCapture@@@ATL@@WIA@AGKXZ 10001d36 f i VideoCapture.obj
 0001:00000d43       ?Release@?$CComContainedObject@VCOPOSVideoCapture@@@ATL@@WIA@AGKXZ 10001d43 f i VideoCapture.obj
 0001:00000d50       ?QueryInterface@?$CComContainedObject@VCOPOSVideoCapture@@@ATL@@WIE@AGJABU_GUID@@PAPAX@Z 10001d50 f i VideoCapture.obj
 0001:00000d5d       ?AddRef@?$CComContainedObject@VCOPOSVideoCapture@@@ATL@@WIE@AGKXZ 10001d5d f i VideoCapture.obj
 0001:00000d6a       ?Release@?$CComContainedObject@VCOPOSVideoCapture@@@ATL@@WIE@AGKXZ 10001d6a f i VideoCapture.obj
 0001:00000d77       ?QueryInterface@?$CComContainedObject@VCOPOSVideoCapture@@@ATL@@WII@AGJABU_GUID@@PAPAX@Z 10001d77 f i VideoCapture.obj
 0001:00000d84       ?AddRef@?$CComContainedObject@VCOPOSVideoCapture@@@ATL@@WII@AGKXZ 10001d84 f i VideoCapture.obj
 0001:00000d91       ?Release@?$CComContainedObject@VCOPOSVideoCapture@@@ATL@@WII@AGKXZ 10001d91 f i VideoCapture.obj
 0001:00000d9e       ?QueryInterface@?$CComContainedObject@VCOPOSVideoCapture@@@ATL@@WIM@AGJABU_GUID@@PAPAX@Z 10001d9e f i VideoCapture.obj
 0001:00000dab       ?AddRef@?$CComContainedObject@VCOPOSVideoCapture@@@ATL@@WIM@AGKXZ 10001dab f i VideoCapture.obj
 0001:00000db8       ?Release@?$CComContainedObject@VCOPOSVideoCapture@@@ATL@@WIM@AGKXZ 10001db8 f i VideoCapture.obj
 0001:00000dc5       ?QueryInterface@?$CComContainedObject@VCOPOSVideoCapture@@@ATL@@WJA@AGJABU_GUID@@PAPAX@Z 10001dc5 f i VideoCapture.obj
 0001:00000dd2       ?AddRef@?$CComContainedObject@VCOPOSVideoCapture@@@ATL@@WJA@AGKXZ 10001dd2 f i VideoCapture.obj
 0001:00000ddf       ?Release@?$CComContainedObject@VCOPOSVideoCapture@@@ATL@@WJA@AGKXZ 10001ddf f i VideoCapture.obj
 0001:00000dec       ?QueryInterface@?$CComContainedObject@VCOPOSVideoCapture@@@ATL@@WJE@AGJABU_GUID@@PAPAX@Z 10001dec f i VideoCapture.obj
 0001:00000df9       ?AddRef@?$CComContainedObject@VCOPOSVideoCapture@@@ATL@@WJE@AGKXZ 10001df9 f i VideoCapture.obj
 0001:00000e06       ?Release@?$CComContainedObject@VCOPOSVideoCapture@@@ATL@@WJE@AGKXZ 10001e06 f i VideoCapture.obj
 0001:00000e13       ?QueryInterface@?$CComContainedObject@VCOPOSVideoCapture@@@ATL@@WJI@AGJABU_GUID@@PAPAX@Z 10001e13 f i VideoCapture.obj
 0001:00000e20       ?AddRef@?$CComContainedObject@VCOPOSVideoCapture@@@ATL@@WJI@AGKXZ 10001e20 f i VideoCapture.obj
 0001:00000e2d       ?Release@?$CComContainedObject@VCOPOSVideoCapture@@@ATL@@WJI@AGKXZ 10001e2d f i VideoCapture.obj
 0001:00000e3a       ?QueryInterface@?$CComContainedObject@VCOPOSVideoCapture@@@ATL@@WJM@AGJABU_GUID@@PAPAX@Z 10001e3a f i VideoCapture.obj
 0001:00000e47       ?AddRef@?$CComContainedObject@VCOPOSVideoCapture@@@ATL@@WJM@AGKXZ 10001e47 f i VideoCapture.obj
 0001:00000e54       ?Release@?$CComContainedObject@VCOPOSVideoCapture@@@ATL@@WJM@AGKXZ 10001e54 f i VideoCapture.obj
 0001:00000e61       ?QueryInterface@?$CComContainedObject@VCOPOSVideoCapture@@@ATL@@WKA@AGJABU_GUID@@PAPAX@Z 10001e61 f i VideoCapture.obj
 0001:00000e6e       ?AddRef@?$CComContainedObject@VCOPOSVideoCapture@@@ATL@@WKA@AGKXZ 10001e6e f i VideoCapture.obj
 0001:00000e7b       ?Release@?$CComContainedObject@VCOPOSVideoCapture@@@ATL@@WKA@AGKXZ 10001e7b f i VideoCapture.obj
 0001:00000e88       ?AddRef@?$CComContainedObject@VCOPOSVideoCapture@@@ATL@@WKI@AGKXZ 10001e88 f i VideoCapture.obj
 0001:00000e95       ?Release@?$CComContainedObject@VCOPOSVideoCapture@@@ATL@@WKI@AGKXZ 10001e95 f i VideoCapture.obj
 0001:00000ea2       ?AddRef@?$CComContainedObject@VCOPOSVideoCapture@@@ATL@@WLE@AGKXZ 10001ea2 f i VideoCapture.obj
 0001:00000eaf       ?Release@?$CComContainedObject@VCOPOSVideoCapture@@@ATL@@WLE@AGKXZ 10001eaf f i VideoCapture.obj
 0001:00000ebc       ?GetWindowProc@?$CWindowImplBaseT@VCWindow@ATL@@V?$CWinTraits@$0FGAAAAAA@$0A@@2@@ATL@@UAEP6GJPAUHWND__@@IIJ@ZXZ 10001ebc f i VideoCapture.obj
 0001:00000ec2       ?StartWindowProc@?$CWindowImplBaseT@VCWindow@ATL@@V?$CWinTraits@$0FGAAAAAA@$0A@@2@@ATL@@SGJPAUHWND__@@IIJ@Z 10001ec2 f i VideoCapture.obj
 0001:00000f16       ?GetTypeInfoCount@?$IDispatchImpl@UIOPOSVideoCapture@@$1?IID_IOPOSVideoCapture@@3U_GUID@@B$1?LIBID_OposVideoCapture_CCO@@3U3@B$00$0A@VCComTypeInfoHolder@ATL@@@ATL@@UAGJPAI@Z 10001f16 f i VideoCapture.obj
 0001:00000f33       ?GetTypeInfo@?$IDispatchImpl@UIOPOSVideoCapture@@$1?IID_IOPOSVideoCapture@@3U_GUID@@B$1?LIBID_OposVideoCapture_CCO@@3U3@B$00$0A@VCComTypeInfoHolder@ATL@@@ATL@@UAGJIKPAPAUITypeInfo@@@Z 10001f33 f i VideoCapture.obj
 0001:00000f57       ?GetIDsOfNames@?$IDispatchImpl@UIOPOSVideoCapture@@$1?IID_IOPOSVideoCapture@@3U_GUID@@B$1?LIBID_OposVideoCapture_CCO@@3U3@B$00$0A@VCComTypeInfoHolder@ATL@@@ATL@@UAGJABU_GUID@@PAPA_WIKPAJ@Z 10001f57 f i VideoCapture.obj
 0001:00000f77       ?Invoke@?$IDispatchImpl@UIOPOSVideoCapture@@$1?IID_IOPOSVideoCapture@@3U_GUID@@B$1?LIBID_OposVideoCapture_CCO@@3U3@B$00$0A@VCComTypeInfoHolder@ATL@@@ATL@@UAGJJABU_GUID@@KGPAUtagDISPPARAMS@@PAUtagVARIANT@@PAUtagEXCEPINFO@@PAI@Z 10001f77 f i VideoCapture.obj
 0001:00000f85       ?CreateControlWindow@?$CComControl@VCOPOSVideoCapture@@V?$CWindowImpl@VCOPOSVideoCapture@@VCWindow@ATL@@V?$CWinTraits@$0FGAAAAAA@$0A@@3@@ATL@@@ATL@@UAEPAUHWND__@@PAU3@AAUtagRECT@@@Z 10001f85 f i VideoCapture.obj
 0001:00000fb4       ?ControlQueryInterface@?$CComControl@VCOPOSVideoCapture@@V?$CWindowImpl@VCOPOSVideoCapture@@VCWindow@ATL@@V?$CWinTraits@$0FGAAAAAA@$0A@@3@@ATL@@@ATL@@UAEJABU_GUID@@PAPAX@Z 10001fb4 f i VideoCapture.obj
 0001:00000fcf       ?GetClassID@?$IPersistStorageImpl@VCOPOSVideoCapture@@@ATL@@UAGJPAU_GUID@@@Z 10001fcf f i VideoCapture.obj
 0001:00000fcf       ?GetUserClassID@?$IOleObjectImpl@VCOPOSVideoCapture@@@ATL@@UAGJPAU_GUID@@@Z 10001fcf f i VideoCapture.obj
 0001:00000fcf       ?GetClassID@?$IPersistStreamInitImpl@VCOPOSVideoCapture@@@ATL@@UAGJPAU_GUID@@@Z 10001fcf f i VideoCapture.obj
 0001:00000ff3       ?IsDirty@?$IPersistStreamInitImpl@VCOPOSVideoCapture@@@ATL@@UAGJXZ 10001ff3 f i VideoCapture.obj
 0001:00001012       ?Load@?$IPersistStreamInitImpl@VCOPOSVideoCapture@@@ATL@@UAGJPAUIStream@@@Z 10002012 f i VideoCapture.obj
 0001:00001031       ?Save@?$IPersistStreamInitImpl@VCOPOSVideoCapture@@@ATL@@UAGJPAUIStream@@H@Z 10002031 f i VideoCapture.obj
 0001:00001053       ?GetSizeMax@?$IPersistStreamInitImpl@VCOPOSVideoCapture@@@ATL@@UAGJPAT_ULARGE_INTEGER@@@Z 10002053 f i VideoCapture.obj
 0001:00001232       ?InitNew@?$IPersistStreamInitImpl@VCOPOSVideoCapture@@@ATL@@UAGJXZ 10002232 f i VideoCapture.obj
 0001:0000124f       ?SOOutputCompleteDummy@COPOSVideoCapture@@MAGJJ@Z 1000224f f i VideoCapture.obj
 0001:0000124f       ?QueryGetData@?$IDataObjectImpl@VCOPOSVideoCapture@@@ATL@@UAGJPAUtagFORMATETC@@@Z 1000224f f i VideoCapture.obj
 0001:0000124f       ?GetControlInfo@?$IOleControlImpl@VCOPOSVideoCapture@@@ATL@@UAGJPAUtagCONTROLINFO@@@Z 1000224f f i VideoCapture.obj
 0001:0000124f       ?OnMnemonic@?$IOleControlImpl@VCOPOSVideoCapture@@@ATL@@UAGJPAUtagMSG@@@Z 1000224f f i VideoCapture.obj
 0001:0000124f       ?GetDropTarget@?$IOleInPlaceObjectWindowlessImpl@VCOPOSVideoCapture@@@ATL@@UAGJPAPAUIDropTarget@@@Z 1000224f f i VideoCapture.obj
 0001:0000124f       ?SetColorScheme@?$IOleObjectImpl@VCOPOSVideoCapture@@@ATL@@UAGJPAUtagLOGPALETTE@@@Z 1000224f f i VideoCapture.obj
 0001:0000124f       ?ContextSensitiveHelp@?$IOleInPlaceActiveObjectImpl@VCOPOSVideoCapture@@@ATL@@UAGJH@Z 1000224f f i VideoCapture.obj
 0001:0000124f       ?Unfreeze@?$IViewObjectExImpl@VCOPOSVideoCapture@@@ATL@@UAGJK@Z 1000224f f i VideoCapture.obj
 0001:0000124f       ?ContextSensitiveHelp@?$IOleInPlaceObjectWindowlessImpl@VCOPOSVideoCapture@@@ATL@@UAGJH@Z 1000224f f i VideoCapture.obj
 0001:0000124f       ?SODataDummy@COPOSVideoCapture@@MAGJJ@Z 1000224f f i VideoCapture.obj
 0001:00001257       ?EnableModeless@?$IOleInPlaceActiveObjectImpl@VCOPOSVideoCapture@@@ATL@@UAGJH@Z 10002257 f i VideoCapture.obj
 0001:00001257       ?OnFrameWindowActivate@?$IOleInPlaceActiveObjectImpl@VCOPOSVideoCapture@@@ATL@@UAGJH@Z 10002257 f i VideoCapture.obj
 0001:00001257       ?SaveCompleted@?$IPersistStorageImpl@VCOPOSVideoCapture@@@ATL@@UAGJPAUIStorage@@@Z 10002257 f i VideoCapture.obj
 0001:00001257       ?OnAmbientPropertyChange@?$IOleControlImpl@VCOPOSVideoCapture@@@ATL@@UAGJJ@Z 10002257 f i VideoCapture.obj
 0001:0000125c       ?SetClientSite@?$IOleObjectImpl@VCOPOSVideoCapture@@@ATL@@UAGJPAUIOleClientSite@@@Z 1000225c f i VideoCapture.obj
 0001:00001279       ?GetClientSite@?$IOleObjectImpl@VCOPOSVideoCapture@@@ATL@@UAGJPAPAUIOleClientSite@@@Z 10002279 f i VideoCapture.obj
 0001:00001296       ?SetHostNames@?$IOleObjectImpl@VCOPOSVideoCapture@@@ATL@@UAGJPB_W0@Z 10002296 f i VideoCapture.obj
 0001:0000129b       ?Close@?$IOleObjectImpl@VCOPOSVideoCapture@@@ATL@@UAGJK@Z 1000229b f i VideoCapture.obj
 0001:000012b8       ?QueryInterface@CRegObject@ATL@@UAGJABU_GUID@@PAPAX@Z 100022b8 f i VideoCapture.obj
 0001:000012b8       ?GetCanonicalFormatEtc@?$IDataObjectImpl@VCOPOSVideoCapture@@@ATL@@UAGJPAUtagFORMATETC@@0@Z 100022b8 f i VideoCapture.obj
 0001:000012b8       ?GetDataHere@?$IDataObjectImpl@VCOPOSVideoCapture@@@ATL@@UAGJPAUtagFORMATETC@@PAUtagSTGMEDIUM@@@Z 100022b8 f i VideoCapture.obj
 0001:000012b8       ?EnumFormatEtc@?$IDataObjectImpl@VCOPOSVideoCapture@@@ATL@@UAGJKPAPAUIEnumFORMATETC@@@Z 100022b8 f i VideoCapture.obj
 0001:000012b8       ?GetClipboardData@?$IOleObjectImpl@VCOPOSVideoCapture@@@ATL@@UAGJKPAPAUIDataObject@@@Z 100022b8 f i VideoCapture.obj
 0001:000012b8       ?GetRect@?$IViewObjectExImpl@VCOPOSVideoCapture@@@ATL@@UAGJKPAU_RECTL@@@Z 100022b8 f i VideoCapture.obj
 0001:000012b8       ?SetMoniker@?$IOleObjectImpl@VCOPOSVideoCapture@@@ATL@@UAGJKPAUIMoniker@@@Z 100022b8 f i VideoCapture.obj
 0001:000012c0       ?GetMoniker@?$IOleObjectImpl@VCOPOSVideoCapture@@@ATL@@UAGJKKPAPAUIMoniker@@@Z 100022c0 f i VideoCapture.obj
 0001:000012c0       ?SetData@?$IDataObjectImpl@VCOPOSVideoCapture@@@ATL@@UAGJPAUtagFORMATETC@@PAUtagSTGMEDIUM@@H@Z 100022c0 f i VideoCapture.obj
 0001:000012c0       ?InitFromData@?$IOleObjectImpl@VCOPOSVideoCapture@@@ATL@@UAGJPAUIDataObject@@HK@Z 100022c0 f i VideoCapture.obj
 0001:000012c8       ?DoVerb@?$IOleObjectImpl@VCOPOSVideoCapture@@@ATL@@UAGJJPAUtagMSG@@PAUIOleClientSite@@JPAUHWND__@@PBUtagRECT@@@Z 100022c8 f i VideoCapture.obj
 0001:000013bc       ?EnumVerbs@?$IOleObjectImpl@VCOPOSVideoCapture@@@ATL@@UAGJPAPAUIEnumOLEVERB@@@Z 100023bc f i VideoCapture.obj
 0001:000013de       ?Release@CRegObject@ATL@@UAGKXZ 100023de f i VideoCapture.obj
 0001:000013de       ?HandsOffStorage@?$IPersistStorageImpl@VCOPOSVideoCapture@@@ATL@@UAGJXZ 100023de f i VideoCapture.obj
 0001:000013de       ?Update@?$IOleObjectImpl@VCOPOSVideoCapture@@@ATL@@UAGJXZ 100023de f i VideoCapture.obj
 0001:000013de       ?IsUpToDate@?$IOleObjectImpl@VCOPOSVideoCapture@@@ATL@@UAGJXZ 100023de f i VideoCapture.obj
 0001:000013e3       ?GetUserType@?$IOleObjectImpl@VCOPOSVideoCapture@@@ATL@@UAGJKPAPA_W@Z 100023e3 f i VideoCapture.obj
 0001:000013fb       ?SetExtent@?$IOleObjectImpl@VCOPOSVideoCapture@@@ATL@@UAGJKPAUtagSIZE@@@Z 100023fb f i VideoCapture.obj
 0001:0000141b       ?GetExtent@?$IOleObjectImpl@VCOPOSVideoCapture@@@ATL@@UAGJKPAUtagSIZE@@@Z 1000241b f i VideoCapture.obj
 0001:00001459       ?Advise@?$IOleObjectImpl@VCOPOSVideoCapture@@@ATL@@UAGJPAUIAdviseSink@@PAK@Z 10002459 f i VideoCapture.obj
 0001:00001479       ?Unadvise@?$IOleObjectImpl@VCOPOSVideoCapture@@@ATL@@UAGJK@Z 10002479 f i VideoCapture.obj
 0001:000014a8       ?EnumAdvise@?$IOleObjectImpl@VCOPOSVideoCapture@@@ATL@@UAGJPAPAUIEnumSTATDATA@@@Z 100024a8 f i VideoCapture.obj
 0001:000014e8       ?GetMiscStatus@?$IOleObjectImpl@VCOPOSVideoCapture@@@ATL@@UAGJKPAK@Z 100024e8 f i VideoCapture.obj
 0001:00001500       ?GetWindow@?$IOleInPlaceActiveObjectImpl@VCOPOSVideoCapture@@@ATL@@UAGJPAPAUHWND__@@@Z 10002500 f i VideoCapture.obj
 0001:0000154d       ?TranslateAcceleratorW@?$IOleInPlaceActiveObjectImpl@VCOPOSVideoCapture@@@ATL@@UAGJPAUtagMSG@@@Z 1000254d f i VideoCapture.obj
 0001:000015fb       ?OnDocWindowActivate@?$IOleInPlaceActiveObjectImpl@VCOPOSVideoCapture@@@ATL@@UAGJH@Z 100025fb f i VideoCapture.obj
 0001:0000161d       ?ResizeBorder@?$IOleInPlaceActiveObjectImpl@VCOPOSVideoCapture@@@ATL@@UAGJPBUtagRECT@@PAUIOleInPlaceUIWindow@@H@Z 1000261d f i VideoCapture.obj
 0001:00001622       ?Draw@?$IViewObjectExImpl@VCOPOSVideoCapture@@@ATL@@UAGJKJPAXPAUtagDVTARGETDEVICE@@PAUHDC__@@2PBU_RECTL@@3P6GHK@ZK@Z 10002622 f i VideoCapture.obj
 0001:00001654       ?GetColorSet@?$IViewObjectExImpl@VCOPOSVideoCapture@@@ATL@@UAGJKJPAXPAUtagDVTARGETDEVICE@@PAUHDC__@@PAPAUtagLOGPALETTE@@@Z 10002654 f i VideoCapture.obj
 0001:0000165c       ?Freeze@?$IViewObjectExImpl@VCOPOSVideoCapture@@@ATL@@UAGJKJPAXPAK@Z 1000265c f i VideoCapture.obj
 0001:00001664       ?SetAdvise@?$IViewObjectExImpl@VCOPOSVideoCapture@@@ATL@@UAGJKKPAUIAdviseSink@@@Z 10002664 f i VideoCapture.obj
 0001:00001683       ?GetAdvise@?$IViewObjectExImpl@VCOPOSVideoCapture@@@ATL@@UAGJPAK0PAPAUIAdviseSink@@@Z 10002683 f i VideoCapture.obj
 0001:000016b8       ?GetExtent@?$IViewObjectExImpl@VCOPOSVideoCapture@@@ATL@@UAGJKJPAUtagDVTARGETDEVICE@@PAUtagSIZE@@@Z 100026b8 f i VideoCapture.obj
 0001:000016e9       ?GetViewStatus@?$IViewObjectExImpl@VCOPOSVideoCapture@@@ATL@@UAGJPAK@Z 100026e9 f i VideoCapture.obj
 0001:00001706       ?QueryHitPoint@?$IViewObjectExImpl@VCOPOSVideoCapture@@@ATL@@UAGJKPBUtagRECT@@UtagPOINT@@JPAK@Z 10002706 f i VideoCapture.obj
 0001:00001747       ?QueryHitRect@?$IViewObjectExImpl@VCOPOSVideoCapture@@@ATL@@UAGJKPBUtagRECT@@0JPAK@Z 10002747 f i VideoCapture.obj
 0001:000017a2       ?GetNaturalExtent@?$IViewObjectExImpl@VCOPOSVideoCapture@@@ATL@@UAGJKJPAUtagDVTARGETDEVICE@@PAUHDC__@@PAUtagExtentInfo@@PAUtagSIZE@@@Z 100027a2 f i VideoCapture.obj
 0001:000017ed       ?GetWindow@?$IOleInPlaceObjectWindowlessImpl@VCOPOSVideoCapture@@@ATL@@UAGJPAPAUHWND__@@@Z 100027ed f i VideoCapture.obj
 0001:0000183a       ?InPlaceDeactivate@?$IOleInPlaceObjectWindowlessImpl@VCOPOSVideoCapture@@@ATL@@UAGJXZ 1000283a f i VideoCapture.obj
 0001:00001854       ?UIDeactivate@?$IOleInPlaceObjectWindowlessImpl@VCOPOSVideoCapture@@@ATL@@UAGJXZ 10002854 f i VideoCapture.obj
 0001:0000186e       ?SetObjectRects@?$IOleInPlaceObjectWindowlessImpl@VCOPOSVideoCapture@@@ATL@@UAGJPBUtagRECT@@0@Z 1000286e f i VideoCapture.obj
 0001:0000188e       ?ReactivateAndUndo@?$IOleInPlaceObjectWindowlessImpl@VCOPOSVideoCapture@@@ATL@@UAGJXZ 1000288e f i VideoCapture.obj
 0001:00001896       ?OnWindowMessage@?$IOleInPlaceObjectWindowlessImpl@VCOPOSVideoCapture@@@ATL@@UAGJIIJPAJ@Z 10002896 f i VideoCapture.obj
 0001:00001906       ?EnumConnectionPoints@?$IConnectionPointContainerImpl@VCOPOSVideoCapture@@@ATL@@UAGJPAPAUIEnumConnectionPoints@@@Z 10002906 f i VideoCapture.obj
 0001:00001a96       ?FindConnectionPoint@?$IConnectionPointContainerImpl@VCOPOSVideoCapture@@@ATL@@UAGJABU_GUID@@PAPAUIConnectionPoint@@@Z 10002a96 f i VideoCapture.obj
 0001:00001b39       ?IsDirty@?$IPersistStorageImpl@VCOPOSVideoCapture@@@ATL@@UAGJXZ 10002b39 f i VideoCapture.obj
 0001:00001b69       ?InitNew@?$IPersistStorageImpl@VCOPOSVideoCapture@@@ATL@@UAGJPAUIStorage@@@Z 10002b69 f i VideoCapture.obj
 0001:00001b99       ?Load@?$IPersistStorageImpl@VCOPOSVideoCapture@@@ATL@@UAGJPAUIStorage@@@Z 10002b99 f i VideoCapture.obj
 0001:00001c05       ?Save@?$IPersistStorageImpl@VCOPOSVideoCapture@@@ATL@@UAGJPAUIStorage@@H@Z 10002c05 f i VideoCapture.obj
 0001:00001c78       ?GetPages@?$ISpecifyPropertyPagesImpl@VCOPOSVideoCapture@@@ATL@@UAGJPAUtagCAUUID@@@Z 10002c78 f i VideoCapture.obj
 0001:00001c8f       ?QuickActivate@?$IQuickActivateImpl@VCOPOSVideoCapture@@@ATL@@UAGJPAUtagQACONTAINER@@PAUtagQACONTROL@@@Z 10002c8f f i VideoCapture.obj
 0001:00001cb2       ?SetContentExtent@?$IQuickActivateImpl@VCOPOSVideoCapture@@@ATL@@UAGJPAUtagSIZE@@@Z 10002cb2 f i VideoCapture.obj
 0001:00001cde       ?GetContentExtent@?$IQuickActivateImpl@VCOPOSVideoCapture@@@ATL@@UAGJPAUtagSIZE@@@Z 10002cde f i VideoCapture.obj
 0001:00001d1a       ?Lock@CAtlModule@ATL@@UAEJXZ 10002d1a f i VideoCapture.obj
 0001:00001d24       ?Unlock@CAtlModule@ATL@@UAEJXZ 10002d24 f i VideoCapture.obj
 0001:00001d2e       ?GetLockCount@CAtlModule@ATL@@UAEJXZ 10002d2e f i VideoCapture.obj
 0001:00001d32       ?GetGITPtr@CAtlModule@ATL@@UAEJPAPAUIGlobalInterfaceTable@@@Z 10002d32 f i VideoCapture.obj
 0001:00001d7e       ?GetData@?$IDataObjectImpl@VCOPOSVideoCapture@@@ATL@@UAGJPAUtagFORMATETC@@PAUtagSTGMEDIUM@@@Z 10002d7e f i VideoCapture.obj
 0001:00001da1       ?DAdvise@?$IDataObjectImpl@VCOPOSVideoCapture@@@ATL@@UAGJPAUtagFORMATETC@@KPAUIAdviseSink@@PAK@Z 10002da1 f i VideoCapture.obj
 0001:00001de2       ?DUnadvise@?$IDataObjectImpl@VCOPOSVideoCapture@@@ATL@@UAGJK@Z 10002de2 f i VideoCapture.obj
 0001:00001e10       ?EnumDAdvise@?$IDataObjectImpl@VCOPOSVideoCapture@@@ATL@@UAGJPAPAUIEnumSTATDATA@@@Z 10002e10 f i VideoCapture.obj
 0001:00001e4f       ?GetClassInfoW@?$IProvideClassInfo2Impl@$1?CLSID_OPOSVideoCapture@@3U_GUID@@B$1?DIID__IOPOSVideoCaptureEvents@@3U2@B$1?LIBID_OposVideoCapture_CCO@@3U2@B$00$0A@VCComTypeInfoHolder@ATL@@@ATL@@UAGJPAPAUITypeInfo@@@Z 10002e4f f i VideoCapture.obj
 0001:00001e65       ?GetGUID@?$IProvideClassInfo2Impl@$1?CLSID_OPOSVideoCapture@@3U_GUID@@B$1?DIID__IOPOSVideoCaptureEvents@@3U2@B$1?LIBID_OposVideoCapture_CCO@@3U2@B$00$0A@VCComTypeInfoHolder@ATL@@@ATL@@UAGJKPAU_GUID@@@Z 10002e65 f i VideoCapture.obj
 0001:00001ea3       __get_startup_argv_mode    10002ea3 f i LIBCMT:argv_mode.obj
 0001:00001ea3       ?FAccessAllowed@?$IObjectSafetyImpl@VCOPOSVideoCapture@@$02@ATL@@MAEHXZ 10002ea3 f i VideoCapture.obj
 0001:00001ea7       ?GetInterfaceSafetyOptions@?$IObjectSafetyImpl@VCOPOSVideoCapture@@$02@ATL@@UAGJABU_GUID@@PAK1@Z 10002ea7 f i VideoCapture.obj
 0001:00001f1a       ?SetInterfaceSafetyOptions@?$IObjectSafetyImpl@VCOPOSVideoCapture@@$02@ATL@@UAGJABU_GUID@@KK@Z 10002f1a f i VideoCapture.obj
 0001:00001f94       ?_LocCPQueryInterface@?$IConnectionPointImpl@VCOPOSVideoCapture@@$1?DIID__IOPOSVideoCaptureEvents@@3U_GUID@@BVCComDynamicUnkArray@ATL@@@ATL@@UAGJABU_GUID@@PAPAX@Z 10002f94 f i VideoCapture.obj
 0001:00001f94       ?_LocCPQueryInterface@?$IConnectionPointImpl@VCOPOSVideoCapture@@$1?IID_IPropertyNotifySink@@3U_GUID@@BVCComDynamicUnkArray@ATL@@@ATL@@UAGJABU_GUID@@PAPAX@Z 10002f94 f i VideoCapture.obj
 0001:00001fe1       ?GetConnectionInterface@?$IConnectionPointImpl@VCOPOSVideoCapture@@$1?IID_IPropertyNotifySink@@3U_GUID@@BVCComDynamicUnkArray@ATL@@@ATL@@UAGJPAU_GUID@@@Z 10002fe1 f i VideoCapture.obj
 0001:00002005       ?GetConnectionPointContainer@?$IConnectionPointImpl@VCOPOSVideoCapture@@$1?IID_IPropertyNotifySink@@3U_GUID@@BVCComDynamicUnkArray@ATL@@@ATL@@UAGJPAPAUIConnectionPointContainer@@@Z 10003005 f i VideoCapture.obj
 0001:00002028       ?Advise@?$IConnectionPointImpl@VCOPOSVideoCapture@@$1?IID_IPropertyNotifySink@@3U_GUID@@BVCComDynamicUnkArray@ATL@@@ATL@@UAGJPAUIUnknown@@PAK@Z 10003028 f i VideoCapture.obj
 0001:00002028       ?Advise@?$IConnectionPointImpl@VCOPOSVideoCapture@@$1?DIID__IOPOSVideoCaptureEvents@@3U_GUID@@BVCComDynamicUnkArray@ATL@@@ATL@@UAGJPAUIUnknown@@PAK@Z 10003028 f i VideoCapture.obj
 0001:000020c8       ?Unadvise@?$IConnectionPointImpl@VCOPOSVideoCapture@@$1?DIID__IOPOSVideoCaptureEvents@@3U_GUID@@BVCComDynamicUnkArray@ATL@@@ATL@@UAGJK@Z 100030c8 f i VideoCapture.obj
 0001:000020c8       ?Unadvise@?$IConnectionPointImpl@VCOPOSVideoCapture@@$1?IID_IPropertyNotifySink@@3U_GUID@@BVCComDynamicUnkArray@ATL@@@ATL@@UAGJK@Z 100030c8 f i VideoCapture.obj
 0001:00002108       ?EnumConnections@?$IConnectionPointImpl@VCOPOSVideoCapture@@$1?DIID__IOPOSVideoCaptureEvents@@3U_GUID@@BVCComDynamicUnkArray@ATL@@@ATL@@UAGJPAPAUIEnumConnections@@@Z 10003108 f i VideoCapture.obj
 0001:00002108       ?EnumConnections@?$IConnectionPointImpl@VCOPOSVideoCapture@@$1?IID_IPropertyNotifySink@@3U_GUID@@BVCComDynamicUnkArray@ATL@@@ATL@@UAGJPAPAUIEnumConnections@@@Z 10003108 f i VideoCapture.obj
 0001:0000220b       ?GetConnectionInterface@?$IConnectionPointImpl@VCOPOSVideoCapture@@$1?DIID__IOPOSVideoCaptureEvents@@3U_GUID@@BVCComDynamicUnkArray@ATL@@@ATL@@UAGJPAU_GUID@@@Z 1000320b f i VideoCapture.obj
 0001:0000222f       ?AddCommonRGSReplacements@?$CAtlModuleT@VCComModule@ATL@@@ATL@@UAEJPAUIRegistrarBase@@@Z 1000322f f i VideoCapture.obj
 0001:00002249       ?GetConnectionPointContainer@?$IConnectionPointImpl@VCOPOSVideoCapture@@$1?DIID__IOPOSVideoCaptureEvents@@3U_GUID@@BVCComDynamicUnkArray@ATL@@@ATL@@UAGJPAPAUIConnectionPointContainer@@@Z 10003249 f i VideoCapture.obj
 0001:0000226c       ?UpdateRegistryFromResourceD@CComModule@ATL@@UAGJIHPAU_ATL_REGMAP_ENTRY@2@@Z 1000326c f i VideoCapture.obj
 0001:0000226c       ?UpdateRegistryFromResourceD@CComModule@ATL@@UAGJPB_WHPAU_ATL_REGMAP_ENTRY@2@@Z 1000326c f i VideoCapture.obj
 0001:00002274       ?UpdateRegistryFromResource@CComModule@ATL@@UAGJPB_WHPAU_ATL_REGMAP_ENTRY@2@@Z 10003274 f i VideoCapture.obj
 0001:0000227d       ?UpdateRegistryFromResource@CComModule@ATL@@UAGJIHPAU_ATL_REGMAP_ENTRY@2@@Z 1000327d f i VideoCapture.obj
 0001:00002286       ?UpdateRegistry@COPOSVideoCapture@@SGJH@Z 10003286 f i VideoCapture.obj
 0001:0000229e       ?ProcessWindowMessage@COPOSVideoCapture@@UAEHPAUHWND__@@IIJAAJK@Z 1000329e f i VideoCapture.obj
 0001:000022eb       ?SODirectIO@COPOSVideoCapture@@MAGJJPAJPAPA_W@Z 100032eb f i VideoCapture.obj
 0001:00002334       ??_GCComModule@ATL@@UAEPAXI@Z 10003334 f i VideoCapture.obj
 0001:00002334       ??_ECComModule@ATL@@UAEPAXI@Z 10003334 f i VideoCapture.obj
 0001:0000235c       ?SOError@COPOSVideoCapture@@MAGJJJJPAJ@Z 1000335c f i VideoCapture.obj
 0001:000023b1       ?SOStatusUpdate@COPOSVideoCapture@@MAGJJ@Z 100033b1 f i VideoCapture.obj
 0001:000023ea       ?CreateInstance@?$CComCreator@V?$CComObjectCached@VCComClassFactory@ATL@@@ATL@@@ATL@@SGJPAXABU_GUID@@PAPAX@Z 100033ea f i VideoCapture.obj
 0001:0000248b       ?CreateInstance@?$CComCreator2@V?$CComCreator@V?$CComObject@VCOPOSVideoCapture@@@ATL@@@ATL@@V?$CComCreator@V?$CComAggObject@VCOPOSVideoCapture@@@ATL@@@2@@ATL@@SGJPAXABU_GUID@@PAPAX@Z 1000348b f i VideoCapture.obj
 0001:000024ab       ?AddRef@?$CComObjectCached@VCComClassFactory@ATL@@@ATL@@UAGKXZ 100034ab f i VideoCapture.obj
 0001:000024d2       ?Release@?$CComObjectCached@VCComClassFactory@ATL@@@ATL@@UAGKXZ 100034d2 f i VideoCapture.obj
 0001:00002508       ?QueryInterface@?$CComObjectCached@VCComClassFactory@ATL@@@ATL@@UAGJABU_GUID@@PAPAX@Z 10003508 f i VideoCapture.obj
 0001:00002522       ??_E?$CComObjectCached@VCComClassFactory@ATL@@@ATL@@UAEPAXI@Z 10003522 f i VideoCapture.obj
 0001:00002522       ??_G?$CComObjectCached@VCComClassFactory@ATL@@@ATL@@UAEPAXI@Z 10003522 f i VideoCapture.obj
 0001:00002544       ?Next@?$CComEnumImpl@UIEnumConnectionPoints@@$1?_GUID_b196b285_bab4_101a_b69c_00aa00341d07@@3U__s_GUID@@BPAUIConnectionPoint@@V?$_CopyInterface@UIConnectionPoint@@@ATL@@@ATL@@UAGJKPAPAUIConnectionPoint@@PAK@Z 10003544 f i VideoCapture.obj
 0001:00002613       ?Skip@?$CComEnumImpl@UIEnumConnectionPoints@@$1?_GUID_b196b285_bab4_101a_b69c_00aa00341d07@@3U__s_GUID@@BPAUIConnectionPoint@@V?$_CopyInterface@UIConnectionPoint@@@ATL@@@ATL@@UAGJK@Z 10003613 f i VideoCapture.obj
 0001:00002640       ?Clone@?$CComEnumImpl@UIEnumConnectionPoints@@$1?_GUID_b196b285_bab4_101a_b69c_00aa00341d07@@3U__s_GUID@@BPAUIConnectionPoint@@V?$_CopyInterface@UIConnectionPoint@@@ATL@@@ATL@@UAGJPAPAUIEnumConnectionPoints@@@Z 10003640 f i VideoCapture.obj
 0001:00002721       ?QueryInterface@?$CComObject@V?$CComEnum@UIEnumConnectionPoints@@$1?_GUID_b196b285_bab4_101a_b69c_00aa00341d07@@3U__s_GUID@@BPAUIConnectionPoint@@V?$_CopyInterface@UIConnectionPoint@@@ATL@@VCComSingleThreadModel@6@@ATL@@@ATL@@UAGJABU_GUID@@PAPAX@Z 10003721 f i VideoCapture.obj
 0001:0000273b       ??_E?$CComObject@V?$CComEnum@UIEnumConnectionPoints@@$1?_GUID_b196b285_bab4_101a_b69c_00aa00341d07@@3U__s_GUID@@BPAUIConnectionPoint@@V?$_CopyInterface@UIConnectionPoint@@@ATL@@VCComSingleThreadModel@6@@ATL@@@ATL@@UAEPAXI@Z 1000373b f i VideoCapture.obj
 0001:0000273b       ??_G?$CComObject@V?$CComEnum@UIEnumConnectionPoints@@$1?_GUID_b196b285_bab4_101a_b69c_00aa00341d07@@3U__s_GUID@@BPAUIConnectionPoint@@V?$_CopyInterface@UIConnectionPoint@@@ATL@@VCComSingleThreadModel@6@@ATL@@@ATL@@UAEPAXI@Z 1000373b f i VideoCapture.obj
 0001:0000275d       ?AddRef@CRegObject@ATL@@UAGKXZ 1000375d f i VideoCapture.obj
 0001:00002763       ?AddReplacement@CRegObject@ATL@@UAGJPB_W0@Z 10003763 f i VideoCapture.obj
 0001:0000279c       ?ClearReplacements@CRegObject@ATL@@UAGJXZ 1000379c f i VideoCapture.obj
 0001:000027ae       ??_GCRegObject@ATL@@UAEPAXI@Z 100037ae f i VideoCapture.obj
 0001:000027ae       ??_ECRegObject@ATL@@UAEPAXI@Z 100037ae f i VideoCapture.obj
 0001:000027d0       ?AddRef@?$CComAggObject@VCOPOSVideoCapture@@@ATL@@UAGKXZ 100037d0 f i VideoCapture.obj
 0001:000027e1       ?Release@?$CComAggObject@VCOPOSVideoCapture@@@ATL@@UAGKXZ 100037e1 f i VideoCapture.obj
 0001:0000281d       ?QueryInterface@?$CComAggObject@VCOPOSVideoCapture@@@ATL@@UAGJABU_GUID@@PAPAX@Z 1000381d f i VideoCapture.obj
 0001:0000286c       ?AddRef@?$CComContainedObject@VCOPOSVideoCapture@@@ATL@@UAGKXZ 1000386c f i VideoCapture.obj
 0001:00002882       ?Release@?$CComContainedObject@VCOPOSVideoCapture@@@ATL@@UAGKXZ 10003882 f i VideoCapture.obj
 0001:00002898       ?QueryInterface@?$CComContainedObject@VCOPOSVideoCapture@@@ATL@@UAGJABU_GUID@@PAPAX@Z 10003898 f i VideoCapture.obj
 0001:000028b3       ??_E?$CComAggObject@VCOPOSVideoCapture@@@ATL@@UAEPAXI@Z 100038b3 f i VideoCapture.obj
 0001:000028b3       ??_G?$CComAggObject@VCOPOSVideoCapture@@@ATL@@UAEPAXI@Z 100038b3 f i VideoCapture.obj
 0001:000028d8       ?AddRef@?$CComObject@VCOPOSVideoCapture@@@ATL@@UAGKXZ 100038d8 f i VideoCapture.obj
 0001:000028ef       ?Release@?$CComObject@VCOPOSVideoCapture@@@ATL@@UAGKXZ 100038ef f i VideoCapture.obj
 0001:00002931       ?QueryInterface@?$CComObject@VCOPOSVideoCapture@@@ATL@@UAGJABU_GUID@@PAPAX@Z 10003931 f i VideoCapture.obj
 0001:0000294b       ??$?4UITypeInfo2@@@?$CComPtr@UITypeInfo@@@ATL@@QAEPAUITypeInfo@@ABV?$CComPtr@UITypeInfo2@@@1@@Z 1000394b f i VideoCapture.obj
 0001:00002978       ??$AtlAdd@K@ATL@@YAJPAKKK@Z 10003978 f i VideoCapture.obj
 0001:0000299b       ??$AtlAdd@_K@ATL@@YAJPA_K_K1@Z 1000399b f i VideoCapture.obj
 0001:000029d3       ??$AtlAddThrow@K@ATL@@YAKKK@Z 100039d3 f i VideoCapture.obj
 0001:000029f9       ??$AtlModuleRegisterWndClassInfoT@VAtlModuleRegisterWndClassInfoParamW@ATL@@@ATL@@YAGPAU_ATL_BASE_MODULE70@0@PAU_ATL_WIN_MODULE70@0@PAU_ATL_WNDCLASSINFOW@0@PAP6GJPAUHWND__@@IIJ@ZVAtlModuleRegisterWndClassInfoParamW@0@@Z 100039f9 f i VideoCapture.obj
 0001:00002b46       ??$AtlMultiply@H@ATL@@YAJPAHHH@Z 10003b46 f i VideoCapture.obj
 0001:00002b7e       ??$AtlMultiply@I@ATL@@YAJPAIII@Z 10003b7e f i VideoCapture.obj
 0001:00002b7e       ??$AtlMultiply@K@ATL@@YAJPAKKK@Z 10003b7e f i VideoCapture.obj
 0001:00002ba0       ??$AtlMultiplyThrow@I@ATL@@YAIII@Z 10003ba0 f i VideoCapture.obj
 0001:00002bc6       ??0?$CComAggObject@VCOPOSVideoCapture@@@ATL@@QAE@PAX@Z 10003bc6 f i VideoCapture.obj
 0001:00002bf3       ??0?$CComContainedObject@VCOPOSVideoCapture@@@ATL@@QAE@PAX@Z 10003bf3 f i VideoCapture.obj
 0001:00002cac       ??0?$CComObject@V?$CComEnum@UIEnumConnectionPoints@@$1?_GUID_b196b285_bab4_101a_b69c_00aa00341d07@@3U__s_GUID@@BPAUIConnectionPoint@@V?$_CopyInterface@UIConnectionPoint@@@ATL@@VCComSingleThreadModel@6@@ATL@@@ATL@@QAE@PAX@Z 10003cac f i VideoCapture.obj
 0001:00002cda       ??0?$CComObject@V?$CComEnum@UIEnumConnections@@$1?_GUID_b196b287_bab4_101a_b69c_00aa00341d07@@3U__s_GUID@@BUtagCONNECTDATA@@V?$_Copy@UtagCONNECTDATA@@@ATL@@VCComSingleThreadModel@6@@ATL@@@ATL@@QAE@PAX@Z 10003cda f i VideoCapture.obj
 0001:00002d08       ??0?$CComObject@VCOPOSVideoCapture@@@ATL@@QAE@PAX@Z 10003d08 f i VideoCapture.obj
 0001:00002dbf       ??0?$CComQIPtr@UIOleControlSite@@$1?_GUID_b196b289_bab4_101a_b69c_00aa00341d07@@3U__s_GUID@@B@ATL@@QAE@PAUIUnknown@@@Z 10003dbf f i VideoCapture.obj
 0001:00002de8       ??0CAtlModule@ATL@@QAE@XZ  10003de8 f i VideoCapture.obj
 0001:00002e29       ??0CParseBuffer@CRegParser@ATL@@QAE@H@Z 10003e29 f i VideoCapture.obj
 0001:00002e5f       ??0_ATL_MSG@ATL@@QAE@PAUHWND__@@IIJH@Z 10003e5f f i VideoCapture.obj
 0001:00002e97       ??1?$CComAggObject@VCOPOSVideoCapture@@@ATL@@UAE@XZ 10003e97 f i VideoCapture.obj
 0001:00002ebb       ??1?$CComEnumImpl@UIEnumConnectionPoints@@$1?_GUID_b196b285_bab4_101a_b69c_00aa00341d07@@3U__s_GUID@@BPAUIConnectionPoint@@V?$_CopyInterface@UIConnectionPoint@@@ATL@@@ATL@@UAE@XZ 10003ebb f i VideoCapture.obj
 0001:00002ef7       ??1?$CComEnumImpl@UIEnumConnections@@$1?_GUID_b196b287_bab4_101a_b69c_00aa00341d07@@3U__s_GUID@@BUtagCONNECTDATA@@V?$_Copy@UtagCONNECTDATA@@@ATL@@@ATL@@UAE@XZ 10003ef7 f i VideoCapture.obj
 0001:00002f33       ??1?$CComObject@V?$CComEnum@UIEnumConnectionPoints@@$1?_GUID_b196b285_bab4_101a_b69c_00aa00341d07@@3U__s_GUID@@BPAUIConnectionPoint@@V?$_CopyInterface@UIConnectionPoint@@@ATL@@VCComSingleThreadModel@6@@ATL@@@ATL@@UAE@XZ 10003f33 f i VideoCapture.obj
 0001:00002f56       ??1?$CComObject@V?$CComEnum@UIEnumConnections@@$1?_GUID_b196b287_bab4_101a_b69c_00aa00341d07@@3U__s_GUID@@BUtagCONNECTDATA@@V?$_Copy@UtagCONNECTDATA@@@ATL@@VCComSingleThreadModel@6@@ATL@@@ATL@@UAE@XZ 10003f56 f i VideoCapture.obj
 0001:00002f79       ??1?$CComObject@VCOPOSVideoCapture@@@ATL@@UAE@XZ 10003f79 f i VideoCapture.obj
 0001:00003037       ??1?$CComObjectCached@VCComClassFactory@ATL@@@ATL@@UAE@XZ 10004037 f i VideoCapture.obj
 0001:0000304d       ??1?$CComObjectRootEx@VCComMultiThreadModel@ATL@@@ATL@@QAE@XZ 1000404d f i VideoCapture.obj
 0001:00003062       ??1CRegObject@ATL@@UAE@XZ  10004062 f i VideoCapture.obj
 0001:00003082       ??4?$CComPtr@UIUnknown@@@ATL@@QAEPAUIUnknown@@PAU2@@Z 10004082 f i VideoCapture.obj
 0001:00003082       ??4?$CComPtr@UIAdviseSink@@@ATL@@QAEPAUIAdviseSink@@PAU2@@Z 10004082 f i VideoCapture.obj
 0001:00003082       ??4?$CComPtr@UIOleClientSite@@@ATL@@QAEPAUIOleClientSite@@PAU2@@Z 10004082 f i VideoCapture.obj
 0001:000030b0       ??_G?$CComContainedObject@VCOPOSVideoCapture@@@ATL@@UAEPAXI@Z 100040b0 f i VideoCapture.obj
 0001:000030b0       ??_E?$CComContainedObject@VCOPOSVideoCapture@@@ATL@@UAEPAXI@Z 100040b0 f i VideoCapture.obj
 0001:000030d5       ??_E?$CComObject@VCOPOSVideoCapture@@@ATL@@UAEPAXI@Z 100040d5 f i VideoCapture.obj
 0001:000030d5       ??_G?$CComObject@VCOPOSVideoCapture@@@ATL@@UAEPAXI@Z 100040d5 f i VideoCapture.obj
 0001:000030fa       ?Add@?$CSimpleArray@GV?$CSimpleArrayEqualHelper@G@ATL@@@ATL@@QAEHABG@Z 100040fa f i VideoCapture.obj
 0001:00003174       ?Add@?$CSimpleMap@PA_WPA_WVCExpansionVectorEqualHelper@ATL@@@ATL@@QAEHABQA_W0@Z 10004174 f i VideoCapture.obj
 0001:000031c9       ?Add@CComDynamicUnkArray@ATL@@QAEKPAUIUnknown@@@Z 100041c9 f i VideoCapture.obj
 0001:0000327a       ?Add@CExpansionVector@ATL@@QAEHPB_W0@Z 1000427a f i VideoCapture.obj
 0001:00003383       ?AddString@CParseBuffer@CRegParser@ATL@@QAEHPB_W@Z 10004383 f i VideoCapture.obj
 0001:000033b8       ?AddTermFunc@CAtlModule@ATL@@QAEJP6GXK@ZK@Z 100043b8 f i VideoCapture.obj
 0001:00003424       ?AddValue@CRegParser@ATL@@IAEJAAVCRegKey@2@PB_WPA_W@Z 10004424 f i VideoCapture.obj
 0001:0000373e       ?Allocate@?$CAtlSafeAllocBufferManager@VCCRTAllocator@ATL@@@_ATL_SAFE_ALLOCA_IMPL@ATL@@QAEPAXK@Z 1000473e f i VideoCapture.obj
 0001:0000376b       ?Allocate@?$CTempBuffer@E$0BAA@VCCRTAllocator@ATL@@@ATL@@QAEPAEI@Z 1000476b f i VideoCapture.obj
 0001:0000379a       ?Allocate@?$CTempBuffer@_W$0BAA@VCCRTAllocator@ATL@@@ATL@@QAEPA_WI@Z 1000479a f i VideoCapture.obj
 0001:000037c9       ?Allocate@?$CTempBuffer@_W$0EAA@VCCRTAllocator@ATL@@@ATL@@QAEPA_WI@Z 100047c9 f i VideoCapture.obj
 0001:000037f8       ?AllocateHeap@?$CTempBuffer@_W$0BAA@VCCRTAllocator@ATL@@@ATL@@AAEXI@Z 100047f8 f i VideoCapture.obj
 0001:000037f8       ?AllocateHeap@?$CTempBuffer@_W$0EAA@VCCRTAllocator@ATL@@@ATL@@AAEXI@Z 100047f8 f i VideoCapture.obj
 0001:000037f8       ?AllocateHeap@?$CTempBuffer@E$0BAA@VCCRTAllocator@ATL@@@ATL@@AAEXI@Z 100047f8 f i VideoCapture.obj
 0001:0000381d       ?Append@CParseBuffer@CRegParser@ATL@@QAEHPB_WH@Z 1000481d f i VideoCapture.obj
 0001:000038a9       ?AtlCoTaskMemCAlloc@ATL@@YAPAXKK@Z 100048a9 f i VideoCapture.obj
 0001:000038d6       ?AtlCoTaskMemRecalloc@ATL@@YAPAXPAXKK@Z 100048d6 f i VideoCapture.obj
 0001:00003906       ?AtlComModuleGetClassObject@ATL@@YGJPAU_ATL_COM_MODULE70@1@ABU_GUID@@1PAPAX@Z 10004906 f i VideoCapture.obj
 0001:000039fb       ?AtlComModuleRegisterServer@ATL@@YGJPAU_ATL_COM_MODULE70@1@HPBU_GUID@@@Z 100049fb f i VideoCapture.obj
 0001:00003a83       ?AtlComModuleUnregisterServer@ATL@@YGJPAU_ATL_COM_MODULE70@1@HPBU_GUID@@@Z 10004a83 f i VideoCapture.obj
 0001:00003b0b       ?AtlComQIPtrAssign2@ATL@@YAXPAPAUIUnknown@@PAU2@ABU_GUID@@@Z 10004b0b f i VideoCapture.obj
 0001:00003b3a       ?AtlCreateTargetDC@ATL@@YGPAUHDC__@@PAU2@PAUtagDVTARGETDEVICE@@@Z 10004b3a f i VideoCapture.obj
 0001:00003ba3       ?AtlCrtErrorCheck@ATL@@YAHH@Z 10004ba3 f i VideoCapture.obj
 0001:00003bde       ?AtlHiMetricToPixel@ATL@@YGXPBUtagSIZE@@PAU2@@Z 10004bde f i VideoCapture.obj
 0001:00003c53       ?AtlHresultFromLastError@ATL@@YAJXZ 10004c53 f i VideoCapture.obj
 0001:00003c6a       ?AtlHresultFromWin32@ATL@@YAJK@Z 10004c6a f i VideoCapture.obj
 0001:00003c7f       ?AtlInternalOleLoadFromStream@ATL@@YAJPAUIStream@@ABU_GUID@@PAPAXTClassesAllowedInStream@1@K@Z 10004c7f f i VideoCapture.obj
 0001:00003da8       ?AtlInternalQueryInterface@ATL@@YGJPAXPBU_ATL_INTMAP_ENTRY@1@ABU_GUID@@PAPAX@Z 10004da8 f i VideoCapture.obj
 0001:00003e4b       ?AtlLoadTypeLib@ATL@@YGJPAUHINSTANCE__@@PB_WPAPA_WPAPAUITypeLib@@@Z 10004e4b f i VideoCapture.obj
 0001:00004029       ?AtlRegisterClassCategoriesHelper@ATL@@YGJABU_GUID@@PBU_ATL_CATMAP_ENTRY@1@H@Z 10005029 f i VideoCapture.obj
 0001:00004325       ?AtlRegisterTypeLib@ATL@@YGJPAUHINSTANCE__@@PB_W@Z 10005325 f i VideoCapture.obj
 0001:000044ad       ?AtlThrowImpl@ATL@@YGXJ@Z  100054ad f i VideoCapture.obj
 0001:000044cb       ?AtlUnRegisterTypeLib@ATL@@YGJPAUHINSTANCE__@@PB_W@Z 100054cb f i VideoCapture.obj
 0001:00004576       ?AtlWinModuleAddCreateWndData@ATL@@YGXPAU_ATL_WIN_MODULE70@1@PAU_AtlCreateWndData@1@PAX@Z 10005576 f i VideoCapture.obj
 0001:000045ca       ?AtlWinModuleExtractCreateWndData@ATL@@YGPAXPAU_ATL_WIN_MODULE70@1@@Z 100055ca f i VideoCapture.obj
 0001:0000462e       ?AtlWinModuleRegisterClassExW@ATL@@YGGPAU_ATL_WIN_MODULE70@1@PBUtagWNDCLASSEXW@@@Z 1000562e f i VideoCapture.obj
 0001:0000466d       ?CanForceRemoveKey@CRegParser@ATL@@IAEHPB_W@Z 1000566d f i VideoCapture.obj
 0001:0000469c       ?ChToByte@CRegParser@ATL@@KAE_W@Z 1000569c f i VideoCapture.obj
 0001:00004724       ?Cleanup@CComTypeInfoHolder@ATL@@SGXK@Z 10005724 f i VideoCapture.obj
 0001:00004757       ?ClearReplacements@CExpansionVector@ATL@@QAEJXZ 10005757 f i VideoCapture.obj
 0001:00004794       ?Close@CRegKey@ATL@@QAEJXZ 10005794 f i VideoCapture.obj
 0001:000047ae       ?CreateInstance@?$CComCreator@V?$CComAggObject@VCOPOSVideoCapture@@@ATL@@@ATL@@SGJPAXABU_GUID@@PAPAX@Z 100057ae f i VideoCapture.obj
 0001:00004823       ?CreateInstance@?$CComCreator@V?$CComObject@VCOPOSVideoCapture@@@ATL@@@ATL@@SGJPAXABU_GUID@@PAPAX@Z 10005823 f i VideoCapture.obj
 0001:000048ac       ?CreateInstance@?$CComObject@V?$CComEnum@UIEnumConnectionPoints@@$1?_GUID_b196b285_bab4_101a_b69c_00aa00341d07@@3U__s_GUID@@BPAUIConnectionPoint@@V?$_CopyInterface@UIConnectionPoint@@@ATL@@VCComSingleThreadModel@6@@ATL@@@ATL@@SGJPAPAV12@@Z 100058ac f i VideoCapture.obj
 0001:000048f6       ?CreateInstance@?$CComObject@V?$CComEnum@UIEnumConnections@@$1?_GUID_b196b287_bab4_101a_b69c_00aa00341d07@@3U__s_GUID@@BUtagCONNECTDATA@@V?$_Copy@UtagCONNECTDATA@@@ATL@@VCComSingleThreadModel@6@@ATL@@@ATL@@SGJPAPAV12@@Z 100058f6 f i VideoCapture.obj
 0001:00004940       ?DefaultReflectionHandler@?$CWindowImplRoot@VCWindow@ATL@@@ATL@@SAHPAUHWND__@@IIJAAJ@Z 10005940 f i VideoCapture.obj
 0001:000049e0       ?DeleteSubKey@CRegKey@ATL@@QAEJPB_W@Z 100059e0 f i VideoCapture.obj
 0001:00004a59       ?DoEvent@COPOSVideoCapture@@IAEXIIJ@Z 10005a59 f i VideoCapture.obj
 0001:00004ad9       ?DoVerbHide@?$IOleObjectImpl@VCOPOSVideoCapture@@@ATL@@QAEJPBUtagRECT@@PAUHWND__@@@Z 10005ad9 f i VideoCapture.obj
 0001:00004b0f       ?DoVerbInPlaceActivate@?$IOleObjectImpl@VCOPOSVideoCapture@@@ATL@@QAEJPBUtagRECT@@PAUHWND__@@@Z 10005b0f f i VideoCapture.obj
 0001:00004b42       ?DoVerbPrimary@?$IOleObjectImpl@VCOPOSVideoCapture@@@ATL@@QAEJPBUtagRECT@@PAUHWND__@@@Z 10005b42 f i VideoCapture.obj
 0001:00004bce       ?DoVerbProperties@CComControlBase@ATL@@QAEJPBUtagRECT@@PAUHWND__@@@Z 10005bce f i VideoCapture.obj
 0001:00004d4d       ?DoVerbUIActivate@?$IOleObjectImpl@VCOPOSVideoCapture@@@ATL@@QAEJPBUtagRECT@@PAUHWND__@@@Z 10005d4d f i VideoCapture.obj
 0001:00004d8a       ?DoesVerbActivate@CComControlBase@ATL@@QAEHJ@Z 10005d8a f i VideoCapture.obj
 0001:00004dae       ?DoesVerbUIActivate@CComControlBase@ATL@@QAEHJ@Z 10005dae f i VideoCapture.obj
 0001:00004de3       ?EndOfVar@CRegParser@ATL@@IAEHXZ 10005de3 f i VideoCapture.obj
 0001:00004e03       ?EscapeSingleQuote@CAtlModule@ATL@@SAXPA_WIPB_W@Z 10005e03 f i VideoCapture.obj
 0001:00004e52       ?FindKey@?$CSimpleMap@PA_WPA_WVCExpansionVectorEqualHelper@ATL@@@ATL@@QBEHABQA_W@Z 10005e52 f i VideoCapture.obj
 0001:00004e89       ?FireTheEvent@?$CProxy_IOPOSEvents@VCOPOSVideoCapture@@@@IAEXPAVOposVariant@@IAAJPB_WJ@Z 10005e89 f i VideoCapture.obj
 0001:00004f1b       ?FireViewChange@CComControlBase@ATL@@QAEJXZ 10005f1b f i VideoCapture.obj
 0001:00004f64       ?Fire_DirectIOEvent@?$CProxy_IOPOSEvents@VCOPOSVideoCapture@@@@QAEXJPAJPAPA_W@Z 10005f64 f i VideoCapture.obj
 0001:00005050       ?Fire_ErrorEvent@?$CProxy_IOPOSEvents@VCOPOSVideoCapture@@@@QAEXJJJPAJ@Z 10006050 f i VideoCapture.obj
 0001:00005141       ?Fire_StatusUpdateEvent@?$CProxy_IOPOSEvents@VCOPOSVideoCapture@@@@QAEXJ@Z 10006141 f i VideoCapture.obj
 0001:000051d7       ?FreeHeap@?$CTempBuffer@_W$0EAA@VCCRTAllocator@ATL@@@ATL@@AAEXXZ 100061d7 f i VideoCapture.obj
 0001:000051d7       ?FreeHeap@?$CTempBuffer@_W$0BAA@VCCRTAllocator@ATL@@@ATL@@AAEXXZ 100061d7 f i VideoCapture.obj
 0001:000051d7       ?FreeHeap@?$CTempBuffer@E$0BAA@VCCRTAllocator@ATL@@@ATL@@AAEXXZ 100061d7 f i VideoCapture.obj
 0001:000051e0       ?GetAmbientLocaleID@CComControlBase@ATL@@QAEJAAK@Z 100061e0 f i VideoCapture.obj
 0001:0000523c       ?GetAmbientUserMode@CComControlBase@ATL@@QAEJAAH@Z 1000623c f i VideoCapture.obj
 0001:000052ac       ?GetAt@CComDynamicUnkArray@ATL@@QAEPAUIUnknown@@H@Z 100062ac f i VideoCapture.obj
 0001:000052c8       ?GetClassObject@CComModule@ATL@@QAEJABU_GUID@@0PAPAX@Z 100062c8 f i VideoCapture.obj
 0001:0000536a       ?GetConnMap@COPOSVideoCapture@@SAPBU_ATL_CONNMAP_ENTRY@ATL@@PAH@Z 1000636a f i VideoCapture.obj
 0001:000053da       ?GetCookie@CComDynamicUnkArray@ATL@@QAGKPAPAUIUnknown@@@Z 100063da f i VideoCapture.obj
 0001:00005412       ?GetIDsOfNames@CComTypeInfoHolder@ATL@@QAEJABU_GUID@@PAPA_WIKPAJ@Z 10006412 f i VideoCapture.obj
 0001:00005532       ?GetKeyAt@?$CSimpleMap@PA_WPA_WVCExpansionVectorEqualHelper@ATL@@@ATL@@QBEAAPA_WH@Z 10006532 f i VideoCapture.obj
 0001:00005557       ?GetPagesHelper@?$ISpecifyPropertyPagesImpl@VCOPOSVideoCapture@@@ATL@@IAEJPAUtagCAUUID@@PBUATL_PROPMAP_ENTRY@2@@Z 10006557 f i VideoCapture.obj
 0001:0000567e       ?GetProperty@?$CComPtr@UIDispatch@@@ATL@@SAJPAUIDispatch@@JPAUtagVARIANT@@@Z 1000667e f i VideoCapture.obj
 0001:000056cd       ?GetSizeMax@CComVariant@ATL@@QBEJPAT_ULARGE_INTEGER@@@Z 100066cd f i VideoCapture.obj
 0001:0000588f       ?GetTI@CComTypeInfoHolder@ATL@@QAEJK@Z 1000688f f i VideoCapture.obj
 0001:00005a6f       ?GetTI@CComTypeInfoHolder@ATL@@QAEJKPAPAUITypeInfo@@@Z 10006a6f f i VideoCapture.obj
 0001:00005aad       ?GetUnknown@CComDynamicUnkArray@ATL@@QAGPAUIUnknown@@K@Z 10006aad f i VideoCapture.obj
 0001:00005ace       ?GetValueAt@?$CSimpleMap@PA_WPA_WVCExpansionVectorEqualHelper@ATL@@@ATL@@QBEAAPA_WH@Z 10006ace f i VideoCapture.obj
 0001:00005af4       ?GetZoomInfo@CComControlBase@ATL@@QAEXAAUATL_DRAWINFO@@@Z 10006af4 f i VideoCapture.obj
 0001:00005b87       ?HKeyFromString@CRegParser@ATL@@KAPAUHKEY__@@PA_W@Z 10006b87 f i VideoCapture.obj
 0001:00005bb5       ?HasSubKeys@CRegParser@ATL@@IAEHPAUHKEY__@@@Z 10006bb5 f i VideoCapture.obj
 0001:00005bea       ?IDataObject_GetData@CComControlBase@ATL@@QAEJPAUtagFORMATETC@@PAUtagSTGMEDIUM@@@Z 10006bea f i VideoCapture.obj
 0001:00005d8c       ?IOleInPlaceObject_InPlaceDeactivate@CComControlBase@ATL@@QAEJXZ 10006d8c f i VideoCapture.obj
 0001:00005e13       ?IOleInPlaceObject_SetObjectRects@CComControlBase@ATL@@QAEJPBUtagRECT@@0@Z 10006e13 f i VideoCapture.obj
 0001:00005ee0       ?IOleInPlaceObject_UIDeactivate@CComControlBase@ATL@@QAEJXZ 10006ee0 f i VideoCapture.obj
 0001:00005fa2       ?IOleObject_Advise@CComControlBase@ATL@@QAEJPAUIAdviseSink@@PAK@Z 10006fa2 f i VideoCapture.obj
 0001:00005fcc       ?IOleObject_Close@CComControlBase@ATL@@QAEJK@Z 10006fcc f i VideoCapture.obj
 0001:000060b0       ?IOleObject_GetClientSite@CComControlBase@ATL@@QAEJPAPAUIOleClientSite@@@Z 100070b0 f i VideoCapture.obj
 0001:000060d9       ?IOleObject_SetClientSite@CComControlBase@ATL@@QAEJPAUIOleClientSite@@@Z 100070d9 f i VideoCapture.obj
 0001:00006118       ?IOleObject_SetExtent@CComControlBase@ATL@@QAEJKPAUtagSIZE@@@Z 10007118 f i VideoCapture.obj
 0001:000061ca       ?IPSI_GetIPersistStreamInit@?$IPersistStorageImpl@VCOPOSVideoCapture@@@ATL@@AAEPAUIPersistStreamInit@@XZ 100071ca f i VideoCapture.obj
 0001:00006272       ?IPersistStreamInit_Load@?$IPersistStreamInitImpl@VCOPOSVideoCapture@@@ATL@@QAEJPAUIStream@@PBUATL_PROPMAP_ENTRY@2@@Z 10007272 f i VideoCapture.obj
 0001:000064e8       ?IPersistStreamInit_Save@?$IPersistStreamInitImpl@VCOPOSVideoCapture@@@ATL@@QAEJPAUIStream@@HPBUATL_PROPMAP_ENTRY@2@@Z 100074e8 f i VideoCapture.obj
 0001:000066d7       ?IQuickActivate_QuickActivate@CComControlBase@ATL@@QAEJPAUtagQACONTAINER@@PAUtagQACONTROL@@@Z 100076d7 f i VideoCapture.obj
 0001:00006919       ?IViewObject_Draw@CComControlBase@ATL@@QAEJKJPAXPAUtagDVTARGETDEVICE@@PAUHDC__@@2PBU_RECTL@@3@Z 10007919 f i VideoCapture.obj
 0001:000069c1       ?InPlaceActivate@CComControlBase@ATL@@QAEJJPBUtagRECT@@@Z 100079c1 f i VideoCapture.obj
 0001:00006c33       ?Init@?$CComEnumImpl@UIEnumConnectionPoints@@$1?_GUID_b196b285_bab4_101a_b69c_00aa00341d07@@3U__s_GUID@@BPAUIConnectionPoint@@V?$_CopyInterface@UIConnectionPoint@@@ATL@@@ATL@@QAEJPAPAUIConnectionPoint@@0PAUIUnknown@@W4CComEnumFlags@2@@Z 10007c33 f i VideoCapture.obj
 0001:00006d0f       ?Init@?$CComEnumImpl@UIEnumConnections@@$1?_GUID_b196b287_bab4_101a_b69c_00aa00341d07@@3U__s_GUID@@BUtagCONNECTDATA@@V?$_Copy@UtagCONNECTDATA@@@ATL@@@ATL@@QAEJPAUtagCONNECTDATA@@0PAUIUnknown@@W4CComEnumFlags@2@@Z 10007d0f f i VideoCapture.obj
 0001:00006deb       ?Init@CComModule@ATL@@QAEJPAU_ATL_OBJMAP_ENTRY30@2@PAUHINSTANCE__@@PBU_GUID@@@Z 10007deb f i VideoCapture.obj
 0001:00006e4a       ?Init@CDynamicStdCallThunk2@ATL@@QAEHKPAX@Z 10007e4a f i VideoCapture.obj
 0001:00006e75       ?InlineIsEqualUnknown@ATL@@YGHABU_GUID@@@Z 10007e75 f i VideoCapture.obj
 0001:00006e9d       ?InternalSetAtIndex@?$CSimpleMap@PA_WPA_WVCExpansionVectorEqualHelper@ATL@@@ATL@@QAEXHABQA_W0@Z 10007e9d f i VideoCapture.obj
 0001:00006ec7       ?Invoke@CComTypeInfoHolder@ATL@@QAEJPAUIDispatch@@JABU_GUID@@KGPAUtagDISPPARAMS@@PAUtagVARIANT@@PAUtagEXCEPINFO@@PAI@Z 10007ec7 f i VideoCapture.obj
 0001:00006f08       ?IsEqualObject@?$CComPtrBase@UIOleClientSite@@@ATL@@QAE_NPAUIUnknown@@@Z 10007f08 f i VideoCapture.obj
 0001:00006f08       ?IsEqualObject@?$CComPtrBase@UITypeInfo@@@ATL@@QAE_NPAUIUnknown@@@Z 10007f08 f i VideoCapture.obj
 0001:00006f74       ?IsSpace@CRegParser@ATL@@IAEH_W@Z 10007f74 f i VideoCapture.obj
 0001:00006f9a       ?LoadNameCache@CComTypeInfoHolder@ATL@@QAEJPAUITypeInfo@@@Z 10007f9a f i VideoCapture.obj
 0001:000070cf       ?Lookup@?$CSimpleMap@PA_WPA_WVCExpansionVectorEqualHelper@ATL@@@ATL@@QBEPA_WABQA_W@Z 100080cf f i VideoCapture.obj
 0001:000070f5       ?NextToken@CRegParser@ATL@@IAEJPA_W@Z 100080f5 f i VideoCapture.obj
 0001:00007224       ?OnKillFocus@CComControlBase@ATL@@QAEJIIJAAH@Z 10008224 f i VideoCapture.obj
 0001:0000727f       ?OnMouseActivate@CComControlBase@ATL@@QAEJIIJAAH@Z 1000827f f i VideoCapture.obj
 0001:000072ed       ?OnPaint@CComControlBase@ATL@@QAEJIIJAAH@Z 100082ed f i VideoCapture.obj
 0001:000073a4       ?OnSetFocus@CComControlBase@ATL@@QAEJIIJAAH@Z 100083a4 f i VideoCapture.obj
 0001:0000742f       ?Open@CRegKey@ATL@@QAEJPAUHKEY__@@PB_WK@Z 1000842f f i VideoCapture.obj
 0001:00007484       ?PreProcessBuffer@CRegParser@ATL@@QAEJPA_WPAPA_W@Z 10008484 f i VideoCapture.obj
 0001:000076f4       ?ProcessWindowMessage@?$CComControl@VCOPOSVideoCapture@@V?$CWindowImpl@VCOPOSVideoCapture@@VCWindow@ATL@@V?$CWinTraits@$0FGAAAAAA@$0A@@3@@ATL@@@ATL@@UAEHPAUHWND__@@IIJAAJK@Z 100086f4 f i VideoCapture.obj
 0001:0000779c       ?ReadFromStream@CComBSTR@ATL@@QAEJPAUIStream@@@Z 1000879c f i VideoCapture.obj
 0001:000078bf       ?ReadFromStream@CComVariant@ATL@@QAEJPAUIStream@@GTClassesAllowedInStream@2@K@Z 100088bf f i VideoCapture.obj
 0001:00007a49       ?RecurseDeleteKey@CRegKey@ATL@@QAEJPB_W@Z 10008a49 f i VideoCapture.obj
 0001:00007b37       ?RegCreateKeyExW@CAtlTransactionManager@ATL@@QAEJPAUHKEY__@@PB_WKPA_WKKQAU_SECURITY_ATTRIBUTES@@PAPAU3@PAK@Z 10008b37 f i VideoCapture.obj
 0001:00007b9a       ?RegDeleteKeyW@CAtlTransactionManager@ATL@@QAEJPAUHKEY__@@PB_W@Z 10008b9a f i VideoCapture.obj
 0001:00007bec       ?RegOpenKeyExW@CAtlTransactionManager@ATL@@QAEJPAUHKEY__@@PB_WKKPAPAU3@@Z 10008bec f i VideoCapture.obj
 0001:00007c43       ?Register@_ATL_WNDCLASSINFOW@ATL@@QAEGPAP6GJPAUHWND__@@IIJ@Z@Z 10008c43 f i VideoCapture.obj
 0001:00007c63       ?RegisterBuffer@CRegParser@ATL@@QAEJPA_WH@Z 10008c63 f i VideoCapture.obj
 0001:00007daa       ?RegisterFromResource@CRegObject@ATL@@IAEJPB_W00H@Z 10008daa f i VideoCapture.obj
 0001:00007ee0       ?RegisterServer@?$CAtlModuleT@VCComModule@ATL@@@ATL@@QAEJHPBU_GUID@@@Z 10008ee0 f i VideoCapture.obj
 0001:00007f0e       ?RegisterServer@CComModule@ATL@@QAEJHPBU_GUID@@@Z 10008f0e f i VideoCapture.obj
 0001:00007f7f       ?RegisterSubkeys@CRegParser@ATL@@IAEJPA_WPAUHKEY__@@HH@Z 10008f7f f i VideoCapture.obj
 0001:000085db       ?Remove@CComDynamicUnkArray@ATL@@QAEHK@Z 100095db f i VideoCapture.obj
 0001:00008604       ?RemoveAll@?$CSimpleMap@PA_WPA_WVCExpansionVectorEqualHelper@ATL@@@ATL@@QAEXXZ 10009604 f i VideoCapture.obj
 0001:00008630       ?ResourceRegisterSz@CRegObject@ATL@@QAGJPB_W00@Z 10009630 f i VideoCapture.obj
 0001:0000865d       ?ResourceUnregisterSz@CRegObject@ATL@@QAGJPB_W00@Z 1000965d f i VideoCapture.obj
 0001:0000868a       ?SendOnDataChange@CComControlBase@ATL@@QAEJK@Z 1000968a f i VideoCapture.obj
 0001:000086d7       ?SetControlFocus@CComControlBase@ATL@@QAEHH@Z 100096d7 f i VideoCapture.obj
 0001:00008772       ?SetMultiStringValue@CRegKey@ATL@@QAEJPB_W0@Z 10009772 f i VideoCapture.obj
 0001:000087ce       ?SetStringValue@CRegKey@ATL@@QAEJPB_W0K@Z 100097ce f i VideoCapture.obj
 0001:00008817       ?SkipAssignment@CRegParser@ATL@@IAEJPA_W@Z 10009817 f i VideoCapture.obj
 0001:00008883       ?SkipWhiteSpace@CRegParser@ATL@@IAEXXZ 10009883 f i VideoCapture.obj
 0001:000088ac       ?StrChrW@CRegParser@ATL@@KAPA_WPA_W_W@Z 100098ac f i VideoCapture.obj
 0001:000088e9       ?Term@CAtlModule@ATL@@QAEXXZ 100098e9 f i VideoCapture.obj
 0001:00008966       ?Term@CComModule@ATL@@QAEXXZ 10009966 f i VideoCapture.obj
 0001:000089be       ?UnregisterServer@?$CAtlModuleT@VCComModule@ATL@@@ATL@@QAEJHPBU_GUID@@@Z 100099be f i VideoCapture.obj
 0001:000089e4       ?UnregisterServer@CComModule@ATL@@QAEJHPBU_GUID@@@Z 100099e4 f i VideoCapture.obj
 0001:00008a55       ?UpdateRegistryFromResource@CAtlModule@ATL@@QAGJIHPAU_ATL_REGMAP_ENTRY@2@@Z 10009a55 f i VideoCapture.obj
 0001:00008c20       ?UpdateRegistryFromResource@CAtlModule@ATL@@QAGJPB_WHPAU_ATL_REGMAP_ENTRY@2@@Z 10009c20 f i VideoCapture.obj
 0001:00008df1       ?VTFromRegType@CRegParser@ATL@@KAHPB_WAAG@Z 10009df1 f i VideoCapture.obj
 0001:00008e5e       ?WindowProc@?$CWindowImplBaseT@VCWindow@ATL@@V?$CWinTraits@$0FGAAAAAA@$0A@@2@@ATL@@SGJPAUHWND__@@IIJ@Z 10009e5e f i VideoCapture.obj
 0001:00008f4c       ?WriteToStream@CComBSTR@ATL@@QAEJPAUIStream@@@Z 10009f4c f i VideoCapture.obj
 0001:00008fae       ?WriteToStream@CComVariant@ATL@@QAEJPAUIStream@@@Z 10009fae f i VideoCapture.obj
 0001:00009128       ?WriteToStream@CComVariant@ATL@@QAEJPAUIStream@@G@Z 1000a128 f i VideoCapture.obj
 0001:00009191       ?_AtlInitialConstruct@?$CComObjectRootEx@VCComMultiThreadModel@ATL@@@ATL@@QAEJXZ 1000a191 f i VideoCapture.obj
 0001:000091a6       ?_AtlVerifyStackAvailable@_ATL_SAFE_ALLOCA_IMPL@ATL@@YA_NK@Z 1000a1a6 f i VideoCapture.obj
 0001:00009224       ?atlCreate@?$CWindowImpl@VCOPOSVideoCapture@@VCWindow@ATL@@V?$CWinTraits@$0FGAAAAAA@$0A@@3@@ATL@@QAEPAUHWND__@@PAU3@V_U_RECT@2@PB_WKKV_U_MENUorID@2@PAX@Z 1000a224 f i VideoCapture.obj
 0001:0000926f       ?atlCreate@?$CWindowImplBaseT@VCWindow@ATL@@V?$CWinTraits@$0FGAAAAAA@$0A@@2@@ATL@@QAEPAUHWND__@@PAU3@V_U_RECT@2@PB_WKKV_U_MENUorID@2@GPAX@Z 1000a26f f i VideoCapture.obj
 0001:0000930b       ?copy@?$_Copy@UtagCONNECTDATA@@@ATL@@SAJPAUtagCONNECTDATA@@PBU3@@Z 1000a30b f i VideoCapture.obj
 0001:00009341       ?copy@?$_CopyInterface@UIConnectionPoint@@@ATL@@SAJPAPAUIConnectionPoint@@PBQAU3@@Z 1000a341 f i VideoCapture.obj
 0001:0000936f       ?memcpy_s@Checked@ATL@@YAXPAXIPBXI@Z 1000a36f f i VideoCapture.obj
 0001:0000938e       ?ocscpy_s@@YA_NPA_WIPB_W@Z 1000a38e f i VideoCapture.obj
 0001:000093d8       ?wcscpy_s@Checked@ATL@@YAXPA_WIPB_W@Z 1000a3d8 f i VideoCapture.obj
 0001:000093f4       _DllCanUnloadNow@0         1000a3f4 f   VideoCapture.obj
 0001:00009400       _DllGetClassObject@12      1000a400 f   VideoCapture.obj
 0001:0000940e       _DllMain@12                1000a40e f   VideoCapture.obj
 0001:00009450       _DllRegisterServer@0       1000a450 f   VideoCapture.obj
 0001:0000945f       _DllUnregisterServer@0     1000a45f f   VideoCapture.obj
 0001:0000946e       _InlineIsEqualGUID         1000a46e f i VideoCapture.obj
 0001:0000949e       ___local_stdio_printf_options 1000a49e f i VideoCapture.obj
 0001:000094a4       __vswprintf_s_l            1000a4a4 f i VideoCapture.obj
 0001:00009551       _swprintf_s                1000a551 f i VideoCapture.obj
 0001:0000956d       ??0?$CComControl@VCOPOSVideoCapture@@V?$CWindowImpl@VCOPOSVideoCapture@@VCWindow@ATL@@V?$CWinTraits@$0FGAAAAAA@$0A@@3@@ATL@@@ATL@@QAE@XZ 1000a56d f i VideoCaptureImpl.obj
 0001:00009594       ??0?$CProxy_IOPOSEvents@VCOPOSVideoCapture@@@@QAE@XZ 1000a594 f i VideoCaptureImpl.obj
 0001:000095b7       ??0CComControlBase@ATL@@QAE@AAPAUHWND__@@@Z 1000a5b7 f i VideoCaptureImpl.obj
 0001:00009607       ??0COPOSVideoCapture@@QAE@XZ 1000a607 f   VideoCaptureImpl.obj
 0001:0000963d       ??1?$CComControl@VCOPOSVideoCapture@@V?$CWindowImpl@VCOPOSVideoCapture@@VCWindow@ATL@@V?$CWinTraits@$0FGAAAAAA@$0A@@3@@ATL@@@ATL@@UAE@XZ 1000a63d f i VideoCaptureImpl.obj
 0001:00009656       ??1?$IConnectionPointImpl@VCOPOSVideoCapture@@$1?DIID__IOPOSVideoCaptureEvents@@3U_GUID@@BVCComDynamicUnkArray@ATL@@@ATL@@QAE@XZ 1000a656 f i VideoCaptureImpl.obj
 0001:00009656       ??1?$IConnectionPointImpl@VCOPOSVideoCapture@@$1?IID_IPropertyNotifySink@@3U_GUID@@BVCComDynamicUnkArray@ATL@@@ATL@@QAE@XZ 1000a656 f i VideoCaptureImpl.obj
 0001:00009693       ??1CComControlBase@ATL@@UAE@XZ 1000a693 f i VideoCaptureImpl.obj
 0001:000096f6       ??1COPOSVideoCapture@@UAE@XZ 1000a6f6 f   VideoCaptureImpl.obj
 0001:0000973e       ?CheckHealth@COPOSVideoCapture@@UAGJJPAJ@Z 1000a73e f   VideoCaptureImpl.obj
 0001:0000978d       ?ClaimDevice@COPOSVideoCapture@@UAGJJPAJ@Z 1000a78d f   VideoCaptureImpl.obj
 0001:00009802       ?ClearInput@COPOSVideoCapture@@UAGJPAJ@Z 1000a802 f   VideoCaptureImpl.obj
 0001:0000981d       ?Close@COPOSVideoCapture@@UAGJPAJ@Z 1000a81d f   VideoCaptureImpl.obj
 0001:0000988b       ?CompareFirmwareVersion@COPOSVideoCapture@@UAGJPA_WPAJ1@Z 1000a88b f   VideoCaptureImpl.obj
 0001:0000990b       ?DirectIO@COPOSVideoCapture@@UAGJJPAJPAPA_W0@Z 1000a90b f   VideoCaptureImpl.obj
 0001:000099b9       ?DoInvoke@COPOSVideoCapture@@IAEJJPAVOposVariant@@IHPAJ_N@Z 1000a9b9 f   VideoCaptureImpl.obj
 0001:00009a95       ?EventClose@COPOSVideoCapture@@IAEXXZ 1000aa95 f i VideoCaptureImpl.obj
 0001:00009ac8       ?EventInit@COPOSVideoCapture@@IAEJXZ 1000aac8 f i VideoCaptureImpl.obj
 0001:00009b9c       ?EventUninit@COPOSVideoCapture@@IAEXXZ 1000ab9c f i VideoCaptureImpl.obj
 0001:00009bee       ?EventWindowProc@COPOSVideoCapture@@IAGJIIJ@Z 1000abee f i VideoCaptureImpl.obj
 0001:00009c9b       ?FinalConstruct@COPOSVideoCapture@@QAEJXZ 1000ac9b f   VideoCaptureImpl.obj
 0001:00009cd4       ?FireEventCleanup@COPOSVideoCapture@@IAEXXZ 1000acd4 f i VideoCaptureImpl.obj
 0001:00009cea       ?FireEventSetup@COPOSVideoCapture@@IAE_NXZ 1000acea f i VideoCaptureImpl.obj
 0001:00009d1e       ?FreezeEvents@COPOSVideoCapture@@MAGJH@Z 1000ad1e f   VideoCaptureImpl.obj
 0001:00009d77       ?GetOposProp@COPOSVideoCapture@@IAEJJPAFJ@Z 1000ad77 f   VideoCaptureImpl.obj
 0001:00009d9a       ?GetOposProp@COPOSVideoCapture@@IAEJJPAJJ@Z 1000ad9a f   VideoCaptureImpl.obj
 0001:00009e69       ?GetOposProp@COPOSVideoCapture@@IAEJJPAPA_WJ@Z 1000ae69 f   VideoCaptureImpl.obj
 0001:00009f45       ?OnDraw@COPOSVideoCapture@@MAEJAAUATL_DRAWINFO@@@Z 1000af45 f   VideoCaptureImpl.obj
 0001:00009fe5       ?Open@COPOSVideoCapture@@UAGJPA_WPAJ@Z 1000afe5 f   VideoCaptureImpl.obj
 0001:0000a820       ?ReleaseDevice@COPOSVideoCapture@@UAGJPAJ@Z 1000b820 f   VideoCaptureImpl.obj
 0001:0000a86f       ?ResetStatistics@COPOSVideoCapture@@UAGJPA_WPAJ@Z 1000b86f f   VideoCaptureImpl.obj
 0001:0000a8c6       ?RetrieveStatistics@COPOSVideoCapture@@UAGJPAPA_WPAJ@Z 1000b8c6 f   VideoCaptureImpl.obj
 0001:0000a91d       ?SOProcessID@COPOSVideoCapture@@UAGJPAJ@Z 1000b91d f   VideoCaptureImpl.obj
 0001:0000a931       ?SetCOFreezeEvents@COPOSVideoCapture@@IAEXF@Z 1000b931 f   VideoCaptureImpl.obj
 0001:0000a9d1       ?SetOposProp@COPOSVideoCapture@@IAEJJJJ@Z 1000b9d1 f   VideoCaptureImpl.obj
 0001:0000aac8       ?SetOposProp@COPOSVideoCapture@@IAEJJPA_WJ@Z 1000bac8 f   VideoCaptureImpl.obj
 0001:0000abc9       ?StartVideo@COPOSVideoCapture@@UAGJPA_WFJPAJ@Z 1000bbc9 f   VideoCaptureImpl.obj
 0001:0000ac6d       ?StopVideo@COPOSVideoCapture@@UAGJPAJ@Z 1000bc6d f   VideoCaptureImpl.obj
 0001:0000ac88       ?TakePhoto@COPOSVideoCapture@@UAGJPA_WFJPAJ@Z 1000bc88 f   VideoCaptureImpl.obj
 0001:0000ad2f       ?UpdateFirmware@COPOSVideoCapture@@UAGJPA_WPAJ@Z 1000bd2f f   VideoCaptureImpl.obj
 0001:0000ad86       ?UpdateStatistics@COPOSVideoCapture@@UAGJPA_WPAJ@Z 1000bd86 f   VideoCaptureImpl.obj
 0001:0000addd       ?get_AutoExposure@COPOSVideoCapture@@UAGJPAF@Z 1000bddd f   VideoCaptureImpl.obj
 0001:0000adf6       ?get_AutoFocus@COPOSVideoCapture@@UAGJPAF@Z 1000bdf6 f   VideoCaptureImpl.obj
 0001:0000ae0f       ?get_AutoGain@COPOSVideoCapture@@UAGJPAF@Z 1000be0f f   VideoCaptureImpl.obj
 0001:0000ae28       ?get_AutoWhiteBalance@COPOSVideoCapture@@UAGJPAF@Z 1000be28 f   VideoCaptureImpl.obj
 0001:0000ae41       ?get_BinaryConversion@COPOSVideoCapture@@UAGJPAJ@Z 1000be41 f   VideoCaptureImpl.obj
 0001:0000ae57       ?get_Brightness@COPOSVideoCapture@@UAGJPAJ@Z 1000be57 f   VideoCaptureImpl.obj
 0001:0000ae70       ?get_CapAssociatedHardTotalsDevice@COPOSVideoCapture@@UAGJPAPA_W@Z 1000be70 f   VideoCaptureImpl.obj
 0001:0000ae89       ?get_CapAutoExposure@COPOSVideoCapture@@UAGJPAF@Z 1000be89 f   VideoCaptureImpl.obj
 0001:0000aea2       ?get_CapAutoFocus@COPOSVideoCapture@@UAGJPAF@Z 1000bea2 f   VideoCaptureImpl.obj
 0001:0000aebb       ?get_CapAutoGain@COPOSVideoCapture@@UAGJPAF@Z 1000bebb f   VideoCaptureImpl.obj
 0001:0000aed4       ?get_CapAutoWhiteBalance@COPOSVideoCapture@@UAGJPAF@Z 1000bed4 f   VideoCaptureImpl.obj
 0001:0000aeed       ?get_CapBrightness@COPOSVideoCapture@@UAGJPAF@Z 1000beed f   VideoCaptureImpl.obj
 0001:0000af06       ?get_CapCompareFirmwareVersion@COPOSVideoCapture@@UAGJPAF@Z 1000bf06 f   VideoCaptureImpl.obj
 0001:0000af1f       ?get_CapContrast@COPOSVideoCapture@@UAGJPAF@Z 1000bf1f f   VideoCaptureImpl.obj
 0001:0000af38       ?get_CapExposure@COPOSVideoCapture@@UAGJPAF@Z 1000bf38 f   VideoCaptureImpl.obj
 0001:0000af51       ?get_CapGain@COPOSVideoCapture@@UAGJPAF@Z 1000bf51 f   VideoCaptureImpl.obj
 0001:0000af6a       ?get_CapHorizontalFlip@COPOSVideoCapture@@UAGJPAF@Z 1000bf6a f   VideoCaptureImpl.obj
 0001:0000af83       ?get_CapHue@COPOSVideoCapture@@UAGJPAF@Z 1000bf83 f   VideoCaptureImpl.obj
 0001:0000af9c       ?get_CapPhoto@COPOSVideoCapture@@UAGJPAF@Z 1000bf9c f   VideoCaptureImpl.obj
 0001:0000afb5       ?get_CapPhotoColorSpace@COPOSVideoCapture@@UAGJPAF@Z 1000bfb5 f   VideoCaptureImpl.obj
 0001:0000afce       ?get_CapPhotoFrameRate@COPOSVideoCapture@@UAGJPAF@Z 1000bfce f   VideoCaptureImpl.obj
 0001:0000afe7       ?get_CapPhotoResolution@COPOSVideoCapture@@UAGJPAF@Z 1000bfe7 f   VideoCaptureImpl.obj
 0001:0000b000       ?get_CapPhotoType@COPOSVideoCapture@@UAGJPAF@Z 1000c000 f   VideoCaptureImpl.obj
 0001:0000b019       ?get_CapPowerReporting@COPOSVideoCapture@@UAGJPAJ@Z 1000c019 f   VideoCaptureImpl.obj
 0001:0000b032       ?get_CapSaturation@COPOSVideoCapture@@UAGJPAF@Z 1000c032 f   VideoCaptureImpl.obj
 0001:0000b04b       ?get_CapStatisticsReporting@COPOSVideoCapture@@UAGJPAF@Z 1000c04b f   VideoCaptureImpl.obj
 0001:0000b064       ?get_CapStorage@COPOSVideoCapture@@UAGJPAJ@Z 1000c064 f   VideoCaptureImpl.obj
 0001:0000b07d       ?get_CapUpdateFirmware@COPOSVideoCapture@@UAGJPAF@Z 1000c07d f   VideoCaptureImpl.obj
 0001:0000b096       ?get_CapUpdateStatistics@COPOSVideoCapture@@UAGJPAF@Z 1000c096 f   VideoCaptureImpl.obj
 0001:0000b0af       ?get_CapVerticalFlip@COPOSVideoCapture@@UAGJPAF@Z 1000c0af f   VideoCaptureImpl.obj
 0001:0000b0c8       ?get_CapVideo@COPOSVideoCapture@@UAGJPAF@Z 1000c0c8 f   VideoCaptureImpl.obj
 0001:0000b0e1       ?get_CapVideoColorSpace@COPOSVideoCapture@@UAGJPAF@Z 1000c0e1 f   VideoCaptureImpl.obj
 0001:0000b0fa       ?get_CapVideoFrameRate@COPOSVideoCapture@@UAGJPAF@Z 1000c0fa f   VideoCaptureImpl.obj
 0001:0000b113       ?get_CapVideoResolution@COPOSVideoCapture@@UAGJPAF@Z 1000c113 f   VideoCaptureImpl.obj
 0001:0000b12c       ?get_CapVideoType@COPOSVideoCapture@@UAGJPAF@Z 1000c12c f   VideoCaptureImpl.obj
 0001:0000b145       ?get_CheckHealthText@COPOSVideoCapture@@UAGJPAPA_W@Z 1000c145 f   VideoCaptureImpl.obj
 0001:0000b15e       ?get_Claimed@COPOSVideoCapture@@UAGJPAF@Z 1000c15e f   VideoCaptureImpl.obj
 0001:0000b174       ?get_Contrast@COPOSVideoCapture@@UAGJPAJ@Z 1000c174 f   VideoCaptureImpl.obj
 0001:0000b18d       ?get_ControlObjectDescription@COPOSVideoCapture@@UAGJPAPA_W@Z 1000c18d f   VideoCaptureImpl.obj
 0001:0000b1db       ?get_ControlObjectVersion@COPOSVideoCapture@@UAGJPAJ@Z 1000c1db f   VideoCaptureImpl.obj
 0001:0000b1ee       ?get_DeviceDescription@COPOSVideoCapture@@UAGJPAPA_W@Z 1000c1ee f   VideoCaptureImpl.obj
 0001:0000b207       ?get_DeviceEnabled@COPOSVideoCapture@@UAGJPAF@Z 1000c207 f   VideoCaptureImpl.obj
 0001:0000b21d       ?get_DeviceName@COPOSVideoCapture@@UAGJPAPA_W@Z 1000c21d f   VideoCaptureImpl.obj
 0001:0000b236       ?get_Exposure@COPOSVideoCapture@@UAGJPAJ@Z 1000c236 f   VideoCaptureImpl.obj
 0001:0000b24f       ?get_FreezeEvents@COPOSVideoCapture@@UAGJPAF@Z 1000c24f f   VideoCaptureImpl.obj
 0001:0000b265       ?get_Gain@COPOSVideoCapture@@UAGJPAJ@Z 1000c265 f   VideoCaptureImpl.obj
 0001:0000b27e       ?get_HorizontalFlip@COPOSVideoCapture@@UAGJPAF@Z 1000c27e f   VideoCaptureImpl.obj
 0001:0000b297       ?get_Hue@COPOSVideoCapture@@UAGJPAJ@Z 1000c297 f   VideoCaptureImpl.obj
 0001:0000b2b0       ?get_OpenResult@COPOSVideoCapture@@UAGJPAJ@Z 1000c2b0 f   VideoCaptureImpl.obj
 0001:0000b2c7       ?get_PhotoColorSpace@COPOSVideoCapture@@UAGJPAPA_W@Z 1000c2c7 f   VideoCaptureImpl.obj
 0001:0000b2e0       ?get_PhotoColorSpaceList@COPOSVideoCapture@@UAGJPAPA_W@Z 1000c2e0 f   VideoCaptureImpl.obj
 0001:0000b2f9       ?get_PhotoFrameRate@COPOSVideoCapture@@UAGJPAJ@Z 1000c2f9 f   VideoCaptureImpl.obj
 0001:0000b312       ?get_PhotoMaxFrameRate@COPOSVideoCapture@@UAGJPAJ@Z 1000c312 f   VideoCaptureImpl.obj
 0001:0000b32b       ?get_PhotoResolution@COPOSVideoCapture@@UAGJPAPA_W@Z 1000c32b f   VideoCaptureImpl.obj
 0001:0000b344       ?get_PhotoResolutionList@COPOSVideoCapture@@UAGJPAPA_W@Z 1000c344 f   VideoCaptureImpl.obj
 0001:0000b35d       ?get_PhotoType@COPOSVideoCapture@@UAGJPAPA_W@Z 1000c35d f   VideoCaptureImpl.obj
 0001:0000b376       ?get_PhotoTypeList@COPOSVideoCapture@@UAGJPAPA_W@Z 1000c376 f   VideoCaptureImpl.obj
 0001:0000b38f       ?get_PowerNotify@COPOSVideoCapture@@UAGJPAJ@Z 1000c38f f   VideoCaptureImpl.obj
 0001:0000b3a5       ?get_PowerState@COPOSVideoCapture@@UAGJPAJ@Z 1000c3a5 f   VideoCaptureImpl.obj
 0001:0000b3bb       ?get_RemainingRecordingTimeInSec@COPOSVideoCapture@@UAGJPAJ@Z 1000c3bb f   VideoCaptureImpl.obj
 0001:0000b3d4       ?get_ResultCode@COPOSVideoCapture@@UAGJPAJ@Z 1000c3d4 f   VideoCaptureImpl.obj
 0001:0000b412       ?get_ResultCodeExtended@COPOSVideoCapture@@UAGJPAJ@Z 1000c412 f   VideoCaptureImpl.obj
 0001:0000b428       ?get_Saturation@COPOSVideoCapture@@UAGJPAJ@Z 1000c428 f   VideoCaptureImpl.obj
 0001:0000b441       ?get_ServiceObjectDescription@COPOSVideoCapture@@UAGJPAPA_W@Z 1000c441 f   VideoCaptureImpl.obj
 0001:0000b45a       ?get_ServiceObjectVersion@COPOSVideoCapture@@UAGJPAJ@Z 1000c45a f   VideoCaptureImpl.obj
 0001:0000b470       ?get_State@COPOSVideoCapture@@UAGJPAJ@Z 1000c470 f   VideoCaptureImpl.obj
 0001:0000b49c       ?get_Storage@COPOSVideoCapture@@UAGJPAJ@Z 1000c49c f   VideoCaptureImpl.obj
 0001:0000b4b5       ?get_VerticalFlip@COPOSVideoCapture@@UAGJPAF@Z 1000c4b5 f   VideoCaptureImpl.obj
 0001:0000b4ce       ?get_VideoCaptureMode@COPOSVideoCapture@@UAGJPAJ@Z 1000c4ce f   VideoCaptureImpl.obj
 0001:0000b4e7       ?get_VideoColorSpace@COPOSVideoCapture@@UAGJPAPA_W@Z 1000c4e7 f   VideoCaptureImpl.obj
 0001:0000b500       ?get_VideoColorSpaceList@COPOSVideoCapture@@UAGJPAPA_W@Z 1000c500 f   VideoCaptureImpl.obj
 0001:0000b519       ?get_VideoFrameRate@COPOSVideoCapture@@UAGJPAJ@Z 1000c519 f   VideoCaptureImpl.obj
 0001:0000b532       ?get_VideoMaxFrameRate@COPOSVideoCapture@@UAGJPAJ@Z 1000c532 f   VideoCaptureImpl.obj
 0001:0000b54b       ?get_VideoResolution@COPOSVideoCapture@@UAGJPAPA_W@Z 1000c54b f   VideoCaptureImpl.obj
 0001:0000b564       ?get_VideoResolutionList@COPOSVideoCapture@@UAGJPAPA_W@Z 1000c564 f   VideoCaptureImpl.obj
 0001:0000b57d       ?get_VideoType@COPOSVideoCapture@@UAGJPAPA_W@Z 1000c57d f   VideoCaptureImpl.obj
 0001:0000b596       ?get_VideoTypeList@COPOSVideoCapture@@UAGJPAPA_W@Z 1000c596 f   VideoCaptureImpl.obj
 0001:0000b5af       ?put_AutoExposure@COPOSVideoCapture@@UAGJF@Z 1000c5af f   VideoCaptureImpl.obj
 0001:0000b5cf       ?put_AutoFocus@COPOSVideoCapture@@UAGJF@Z 1000c5cf f   VideoCaptureImpl.obj
 0001:0000b5ef       ?put_AutoGain@COPOSVideoCapture@@UAGJF@Z 1000c5ef f   VideoCaptureImpl.obj
 0001:0000b60f       ?put_AutoWhiteBalance@COPOSVideoCapture@@UAGJF@Z 1000c60f f   VideoCaptureImpl.obj
 0001:0000b62f       ?put_BinaryConversion@COPOSVideoCapture@@UAGJJ@Z 1000c62f f   VideoCaptureImpl.obj
 0001:0000b645       ?put_Brightness@COPOSVideoCapture@@UAGJJ@Z 1000c645 f   VideoCaptureImpl.obj
 0001:0000b65e       ?put_Contrast@COPOSVideoCapture@@UAGJJ@Z 1000c65e f   VideoCaptureImpl.obj
 0001:0000b677       ?put_DeviceEnabled@COPOSVideoCapture@@UAGJF@Z 1000c677 f   VideoCaptureImpl.obj
 0001:0000b694       ?put_Exposure@COPOSVideoCapture@@UAGJJ@Z 1000c694 f   VideoCaptureImpl.obj
 0001:0000b6ad       ?put_FreezeEvents@COPOSVideoCapture@@UAGJF@Z 1000c6ad f   VideoCaptureImpl.obj
 0001:0000b6f9       ?put_Gain@COPOSVideoCapture@@UAGJJ@Z 1000c6f9 f   VideoCaptureImpl.obj
 0001:0000b712       ?put_HorizontalFlip@COPOSVideoCapture@@UAGJF@Z 1000c712 f   VideoCaptureImpl.obj
 0001:0000b732       ?put_Hue@COPOSVideoCapture@@UAGJJ@Z 1000c732 f   VideoCaptureImpl.obj
 0001:0000b74b       ?put_PhotoColorSpace@COPOSVideoCapture@@UAGJPA_W@Z 1000c74b f   VideoCaptureImpl.obj
 0001:0000b764       ?put_PhotoFrameRate@COPOSVideoCapture@@UAGJJ@Z 1000c764 f   VideoCaptureImpl.obj
 0001:0000b77d       ?put_PhotoResolution@COPOSVideoCapture@@UAGJPA_W@Z 1000c77d f   VideoCaptureImpl.obj
 0001:0000b796       ?put_PhotoType@COPOSVideoCapture@@UAGJPA_W@Z 1000c796 f   VideoCaptureImpl.obj
 0001:0000b7af       ?put_PowerNotify@COPOSVideoCapture@@UAGJJ@Z 1000c7af f   VideoCaptureImpl.obj
 0001:0000b7c5       ?put_Saturation@COPOSVideoCapture@@UAGJJ@Z 1000c7c5 f   VideoCaptureImpl.obj
 0001:0000b7de       ?put_Storage@COPOSVideoCapture@@UAGJJ@Z 1000c7de f   VideoCaptureImpl.obj
 0001:0000b7f7       ?put_VerticalFlip@COPOSVideoCapture@@UAGJF@Z 1000c7f7 f   VideoCaptureImpl.obj
 0001:0000b817       ?put_VideoCaptureMode@COPOSVideoCapture@@UAGJJ@Z 1000c817 f   VideoCaptureImpl.obj
 0001:0000b830       ?put_VideoColorSpace@COPOSVideoCapture@@UAGJPA_W@Z 1000c830 f   VideoCaptureImpl.obj
 0001:0000b849       ?put_VideoFrameRate@COPOSVideoCapture@@UAGJJ@Z 1000c849 f   VideoCaptureImpl.obj
 0001:0000b862       ?put_VideoResolution@COPOSVideoCapture@@UAGJPA_W@Z 1000c862 f   VideoCaptureImpl.obj
 0001:0000b87b       ?put_VideoType@COPOSVideoCapture@@UAGJPA_W@Z 1000c87b f   VideoCaptureImpl.obj
 0001:0000b894       ?s_EventWindowProc@COPOSVideoCapture@@KGJPAUHWND__@@IIJ@Z 1000c894 f i VideoCaptureImpl.obj
 0001:0000b8e6       ??_U@YAPAXI@Z              1000c8e6 f   LIBCMT:new_array.obj
 0001:0000b8ef       ??3@YAXPAXI@Z              1000c8ef f   LIBCMT:delete_scalar_size.obj
 0001:0000b8fd       ??_V@YAXPAX@Z              1000c8fd f   LIBCMT:delete_array.obj
 0001:0000b902       ??_V@YAXPAXI@Z             1000c902 f   LIBCMT:delete_array_size.obj
 0001:0000b954       ___scrt_acquire_startup_lock 1000c954 f   LIBCMT:utility.obj
 0001:0000b986       ___scrt_dllmain_after_initialize_c 1000c986 f   LIBCMT:utility.obj
 0001:0000b9b1       ___scrt_dllmain_before_initialize_c 1000c9b1 f   LIBCMT:utility.obj
 0001:0000b9bf       ___scrt_dllmain_crt_thread_attach 1000c9bf f   LIBCMT:utility.obj
 0001:0000b9de       ___scrt_dllmain_crt_thread_detach 1000c9de f   LIBCMT:utility.obj
 0001:0000b9eb       ___scrt_dllmain_exception_filter 1000c9eb f   LIBCMT:utility.obj
 0001:0000ba1f       ___scrt_dllmain_uninitialize_c 1000ca1f f   LIBCMT:utility.obj
 0001:0000ba42       ___scrt_dllmain_uninitialize_critical 1000ca42 f   LIBCMT:utility.obj
 0001:0000ba4f       ___scrt_initialize_crt     1000ca4f f   LIBCMT:utility.obj
 0001:0000ba88       ___scrt_initialize_onexit_tables 1000ca88 f   LIBCMT:utility.obj
 0001:0000bb0f       ___scrt_is_nonwritable_in_current_image 1000cb0f f   LIBCMT:utility.obj
 0001:0000bba3       ___scrt_release_startup_lock 1000cba3 f   LIBCMT:utility.obj
 0001:0000bbc0       ___scrt_uninitialize_crt   1000cbc0 f   LIBCMT:utility.obj
 0001:0000bbe8       __onexit                   1000cbe8 f   LIBCMT:utility.obj
 0001:0000bc15       _atexit                    1000cc15 f   LIBCMT:utility.obj
 0001:0000bc2a       ??3@YAXPAX@Z               1000cc2a f   LIBCMT:delete_scalar.obj
 0001:0000bcf4       __Init_thread_footer       1000ccf4 f   LIBCMT:thread_safe_statics.obj
 0001:0000bd3e       __Init_thread_header       1000cd3e f   LIBCMT:thread_safe_statics.obj
 0001:0000bd90       __Init_thread_notify       1000cd90 f   LIBCMT:thread_safe_statics.obj
 0001:0000bdc6       __Init_thread_wait         1000cdc6 f   LIBCMT:thread_safe_statics.obj
 0001:0000be14       ___raise_securityfailure   1000ce14 f   LIBCMT:gs_report.obj
 0001:0000be3c       ___report_gsfailure        1000ce3c f   LIBCMT:gs_report.obj
 0001:0000bf36       ___report_rangecheckfailure 1000cf36 f   LIBCMT:gs_report.obj
 0001:0000bf42       ___report_securityfailure  1000cf42 f   LIBCMT:gs_report.obj
 0001:0000c011       ??2@YAPAXIABUnothrow_t@std@@@Z 1000d011 f   LIBCMT:new_scalar_nothrow.obj
 0001:0000c066       ??_U@YAPAXIABUnothrow_t@std@@@Z 1000d066 f   LIBCMT:new_array_nothrow.obj
 0001:0000c06f       @__security_check_cookie@4 1000d06f f   LIBCMT:secchk.obj
 0001:0000c080       __SEH_prolog4_GS           1000d080 f   LIBCMT:sehprolg4gs.obj
 0001:0000c0d0       __alloca_probe_16          1000d0d0 f   LIBCMT:alloca16.obj
 0001:0000c0e6       __alloca_probe_8           1000d0e6     LIBCMT:alloca16.obj
 0001:0000c100       __alloca_probe             1000d100 f   LIBCMT:chkstk.obj
 0001:0000c100       __chkstk                   1000d100 f   LIBCMT:chkstk.obj
 0001:0000c46b       __DllMainCRTStartup@12     1000d46b f   LIBCMT:dll_dllmain.obj
 0001:0000c48e       ??2@YAPAXI@Z               1000d48e f   LIBCMT:new_scalar.obj
 0001:0000c4be       ___isa_available_init      1000d4be f   LIBCMT:cpu_disp.obj
 0001:0000c692       ___scrt_is_ucrt_dll_in_use 1000d692 f   LIBCMT:ucrt_detection.obj
 0001:0000c69e       ___scrt_fastfail           1000d69e f   LIBCMT:utility_desktop.obj
 0001:0000c7b9       __crt_debugger_hook        1000d7b9 f   LIBCMT:utility_desktop.obj
 0001:0000c7d0       __SEH_prolog4              1000d7d0 f   LIBCMT:sehprolg4.obj
 0001:0000c815       @_guard_check_icall_nop@4  1000d815 f i LIBCMT:guard_support.obj
 0001:0000c865       ___security_init_cookie    1000d865 f   LIBCMT:gs_support.obj
 0001:0000c8b0       ?__scrt_initialize_type_info@@YAXXZ 1000d8b0 f   LIBCMT:tncleanup.obj
 0001:0000c8bc       ?__scrt_uninitialize_type_info@@YAXXZ 1000d8bc f   LIBCMT:tncleanup.obj
 0001:0000c8c8       ___local_stdio_scanf_options 1000d8c8 f i LIBCMT:default_local_stdio_options.obj
 0001:0000c8ce       ___scrt_initialize_default_local_stdio_options 1000d8ce f   LIBCMT:default_local_stdio_options.obj
 0001:0000c8eb       ___scrt_get_dyn_tls_init_callback 1000d8eb f   LIBCMT:dyn_tls_init.obj
 0001:0000c8f1       __RTC_Initialize           1000d8f1 f   LIBCMT:initsect.obj
 0001:0000c91d       __RTC_Terminate            1000d91d f   LIBCMT:initsect.obj
 0001:0000c949       ??0bad_alloc@std@@QAE@ABV01@@Z 1000d949 f i LIBCMT:throw_bad_alloc.obj
 0001:0000c964       ??0bad_alloc@std@@QAE@XZ   1000d964 f i LIBCMT:throw_bad_alloc.obj
 0001:0000c97c       ??0bad_array_new_length@std@@QAE@ABV01@@Z 1000d97c f i LIBCMT:throw_bad_alloc.obj
 0001:0000c997       ??0bad_array_new_length@std@@QAE@XZ 1000d997 f i LIBCMT:throw_bad_alloc.obj
 0001:0000c9af       ??0exception@std@@QAE@ABV01@@Z 1000d9af f i LIBCMT:throw_bad_alloc.obj
 0001:0000c9db       ??1bad_array_new_length@std@@UAE@XZ 1000d9db f i LIBCMT:throw_bad_alloc.obj
 0001:0000c9db       ??1bad_exception@std@@UAE@XZ 1000d9db f i libvcruntime:frame.obj
 0001:0000c9db       ??1bad_alloc@std@@UAE@XZ   1000d9db f i LIBCMT:throw_bad_alloc.obj
 0001:0000c9ec       ??_Gexception@std@@UAEPAXI@Z 1000d9ec f i LIBCMT:throw_bad_alloc.obj
 0001:0000c9ec       ??_Ebad_array_new_length@std@@UAEPAXI@Z 1000d9ec f i LIBCMT:throw_bad_alloc.obj
 0001:0000c9ec       ??_Ebad_exception@std@@UAEPAXI@Z 1000d9ec f i libvcruntime:frame.obj
 0001:0000c9ec       ??_Ebad_alloc@std@@UAEPAXI@Z 1000d9ec f i LIBCMT:throw_bad_alloc.obj
 0001:0000c9ec       ??_Gbad_exception@std@@UAEPAXI@Z 1000d9ec f i libvcruntime:frame.obj
 0001:0000c9ec       ??_Gbad_array_new_length@std@@UAEPAXI@Z 1000d9ec f i LIBCMT:throw_bad_alloc.obj
 0001:0000c9ec       ??_Gbad_alloc@std@@UAEPAXI@Z 1000d9ec f i LIBCMT:throw_bad_alloc.obj
 0001:0000c9ec       ??_Eexception@std@@UAEPAXI@Z 1000d9ec f i LIBCMT:throw_bad_alloc.obj
 0001:0000ca19       ?__scrt_throw_std_bad_alloc@@YAXXZ 1000da19 f   LIBCMT:throw_bad_alloc.obj
 0001:0000ca36       ?__scrt_throw_std_bad_array_new_length@@YAXXZ 1000da36 f   LIBCMT:throw_bad_alloc.obj
 0001:0000ca53       ?what@exception@std@@UBEPBDXZ 1000da53 f i LIBCMT:throw_bad_alloc.obj
 0001:0000ca60       ??_Gtype_info@@UAEPAXI@Z   1000da60 f i LIBCMT:std_type_info_static.obj
 0001:0000ca60       ??_Etype_info@@UAEPAXI@Z   1000da60 f i LIBCMT:std_type_info_static.obj
 0001:0000ca83       ??0CAtlBaseModule@ATL@@QAE@XZ 1000da83 f   atls:atlbase.obj
 0001:0000cad6       ??0_ATL_BASE_MODULE70@ATL@@QAE@XZ 1000dad6 f i atls:atlbase.obj
 0001:0000caf9       ??1CAtlBaseModule@ATL@@QAE@XZ 1000daf9 f   atls:atlbase.obj
 0001:0000cbe6       ?Init@_stdcallthunk@ATL@@QAEHKPAX@Z 1000dbe6 f i atls:atlthunk.obj
 0001:0000cc1b       ?__AllocStdCallThunk_cmn@@YAPAXXZ 1000dc1b f   atls:atlthunk.obj
 0001:0000cce1       ?__FreeStdCallThunk_cmn@@YAXPAX@Z 1000dce1 f   atls:atlthunk.obj
 0001:0000cd7d       _AtlThunk_AllocateData@0   1000dd7d f   atls:atlthunk.obj
 0001:0000cde2       _AtlThunk_DataToCode@4     1000dde2 f   atls:atlthunk.obj
 0001:0000ce29       _AtlThunk_FreeData@4       1000de29 f   atls:atlthunk.obj
 0001:0000ce7f       _AtlThunk_InitData@12      1000de7f f   atls:atlthunk.obj
 0001:0000cece       __get_purecall_handler     1000dece f   libvcruntime:purevirt.obj
 0001:0000ced5       __purecall                 1000ded5 f   libvcruntime:purevirt.obj
 0001:0000cef1       _wcsstr                    1000def1 f   libvcruntime:wcsstr.obj
 0001:0000d1b0       __except_handler4          1000e1b0 f   libvcruntime:chandler4.obj
 0001:0000d30e       _memcmp                    1000e30e f   libvcruntime:memcmp.obj
 0001:0000e990       _memcpy                    1000f990 f   libvcruntime:memcpy.obj
 0001:0000e990       _memmove                   1000f990 f   libvcruntime:memmove.obj
 0001:0000ef10       _memset                    1000ff10 f   libvcruntime:memset.obj
 0001:0000f06a       ___vcrt_initialize         1001006a f   libvcruntime:initialization.obj
 0001:0000f089       ___vcrt_thread_attach      10010089 f   libvcruntime:initialization.obj
 0001:0000f094       ___vcrt_thread_detach      10010094 f   libvcruntime:initialization.obj
 0001:0000f09f       ___vcrt_uninitialize       1001009f f   libvcruntime:initialization.obj
 0001:0000f0b6       ___vcrt_uninitialize_critical 100100b6 f   libvcruntime:initialization.obj
 0001:0000f0be       ?GetRangeOfTrysToCheck@__FrameHandler3@@SA?AU?$pair@Viterator@TryBlockMap@__FrameHandler3@@V123@@std@@AAVTryBlockMap@1@HPAXPBU_s_FuncInfo@@H@Z 100100be f   libvcruntime:trnsctrl.obj
 0001:0000f12e       ?_CallCatchBlock2@@YAPAXPAUEHRegistrationNode@@PBU_s_FuncInfo@@PAXHK@Z 1001012e f   libvcruntime:trnsctrl.obj
 0001:0000f18b       ?_CallSETranslator@@YAHPAUEHExceptionRecord@@PAUEHRegistrationNode@@PAX2PBU_s_FuncInfo@@H1@Z 1001018b f   libvcruntime:trnsctrl.obj
 0001:0000f281       ?_JumpToContinuation@@YGXPAXPAUEHRegistrationNode@@@Z 10010281 f   libvcruntime:trnsctrl.obj
 0001:0000f2b1       ?_UnwindNestedFrames@@YGXPAUEHRegistrationNode@@PAUEHExceptionRecord@@@Z 100102b1 f   libvcruntime:trnsctrl.obj
 0001:0000f304       __CatchGuardHandler        10010304 f   libvcruntime:trnsctrl.obj
 0001:0000f335       __CreateFrameInfo          10010335 f   libvcruntime:trnsctrl.obj
 0001:0000f359       __FindAndUnlinkFrame       10010359 f   libvcruntime:trnsctrl.obj
 0001:0000f3a1       __TranslatorGuardHandler   100103a1 f   libvcruntime:trnsctrl.obj
 0001:0000f43e       ___CxxFrameHandler3        1001043e f   libvcruntime:trnsctrl.obj
 0001:0000f474       ___DestructExceptionObject 10010474 f   libvcruntime:ehhelpers.obj
 0001:0000f515       ?_CallMemberFunction0@@YGXQAX0@Z 10010515 f i libvcruntime:ehhelpers.obj
 0001:0000f57a       __IsExceptionObjectToBeDestroyed 1001057a f   libvcruntime:ehhelpers.obj
 0001:0000f5a0       ___AdjustPointer           100105a0 f   libvcruntime:ehhelpers.obj
 0001:0000f5c5       ___FrameUnwindFilter       100105c5 f   libvcruntime:ehhelpers.obj
 0001:0000f61b       ___std_terminate           1001061b f   libvcruntime:ehhelpers.obj
 0001:0000f620       ___std_type_info_compare   10010620 f   libvcruntime:std_type_info.obj
 0001:0000f65c       ___std_type_info_destroy_list 1001065c f   libvcruntime:std_type_info.obj
 0001:0000f67f       ___std_exception_copy      1001067f f   libvcruntime:std_exception.obj
 0001:0000f6e2       ___std_exception_destroy   100106e2 f   libvcruntime:std_exception.obj
 0001:0000f701       __CxxThrowException@8      10010701 f   libvcruntime:throw.obj
 0001:0000f770       __local_unwind4            10010770 f   libvcruntime:exsup4.obj
 0001:0000f860       @_EH4_CallFilterFunc@8     10010860 f   libvcruntime:exsup4.obj
 0001:0000f880       @_EH4_TransferToHandler@8  10010880 f   libvcruntime:exsup4.obj
 0001:0000f8a0       @_EH4_GlobalUnwind2@8      100108a0 f   libvcruntime:exsup4.obj
 0001:0000f8c0       @_EH4_LocalUnwind@16       100108c0 f   libvcruntime:exsup4.obj
 0001:0000f8d7       ___except_validate_context_record 100108d7 f   libvcruntime:jbcxrval.obj
 0001:0000f907       ___vcrt_freefls@4          10010907 f   libvcruntime:per_thread_data.obj
 0001:0000f923       ___vcrt_freeptd            10010923 f   libvcruntime:per_thread_data.obj
 0001:0000f959       ___vcrt_getptd             10010959 f   libvcruntime:per_thread_data.obj
 0001:0000f967       ___vcrt_getptd_noexit      10010967 f   libvcruntime:per_thread_data.obj
 0001:0000f9f9       ___vcrt_initialize_ptd     100109f9 f   libvcruntime:per_thread_data.obj
 0001:0000fa2c       ___vcrt_uninitialize_ptd   10010a2c f   libvcruntime:per_thread_data.obj
 0001:0000fa47       ___vcrt_initialize_locks   10010a47 f   libvcruntime:locks.obj
 0001:0000fa83       ___vcrt_uninitialize_locks 10010a83 f   libvcruntime:locks.obj
 0001:000101e4       ??$TypeMatchHelper@V__FrameHandler3@@@@YAHPBU_s_HandlerType@@PBU_s_CatchableType@@PBU_s_ThrowInfo@@@Z 100111e4 f i libvcruntime:frame.obj
 0001:00010272       ??$__InternalCxxFrameHandler@V__FrameHandler3@@@@YA?AW4_EXCEPTION_DISPOSITION@@PAUEHExceptionRecord@@PAUEHRegistrationNode@@PAU_CONTEXT@@PAXPBU_s_FuncInfo@@H1E@Z 10011272 f i libvcruntime:frame.obj
 0001:00010374       ??0bad_exception@std@@QAE@ABV01@@Z 10011374 f i libvcruntime:frame.obj
 0001:0001038f       ??0bad_exception@std@@QAE@XZ 1001138f f i libvcruntime:frame.obj
 0001:000103a7       ??8type_info@@QBE_NABV0@@Z 100113a7 f i libvcruntime:frame.obj
 0001:0001061e       ?FrameUnwindToEmptyState@__FrameHandler3@@SAXPAUEHRegistrationNode@@PAXPBU_s_FuncInfo@@@Z 1001161e f   libvcruntime:frame.obj
 0001:00010636       ?FrameUnwindToState@__FrameHandler3@@SAXPAUEHRegistrationNode@@PAXPBU_s_FuncInfo@@H@Z 10011636 f   libvcruntime:frame.obj
 0001:000107b8       ?_CallMemberFunction1@@YGXQAX00@Z 100117b8 f i libvcruntime:frame.obj
 0001:000107c8       ?_CallMemberFunction2@@YGXQAX00H@Z 100117c8 f i libvcruntime:frame.obj
 0001:000107db       ?getESTypes@__FrameHandler3@@SAPBU_s_ESTypeList@@PBU_s_FuncInfo@@@Z 100117db f i libvcruntime:frame.obj
 0001:000107f0       __CallSettingFrame@12      100117f0 f   libvcruntime:lowhelpr.obj
 0001:00010817       __NLG_Return               10011817     libvcruntime:lowhelpr.obj
 0001:00010840       __NLG_Notify1              10011840 f   libvcruntime:exsup.obj
 0001:00010850       __NLG_Notify               10011850 f   libvcruntime:exsup.obj
 0001:00010867       __NLG_Dispatch             10011867     libvcruntime:exsup.obj
 0001:00010867       __NLG_Dispatch2            10011867     libvcruntime:exsup.obj
 0001:00010870       __NLG_Call                 10011870 f   libvcruntime:exsup.obj
 0001:00010872       __NLG_Return2              10011872     libvcruntime:exsup.obj
 0001:00010958       ___vcrt_FlsAlloc           10011958 f   libvcruntime:winapi_downlevel.obj
 0001:00010993       ___vcrt_FlsFree            10011993 f   libvcruntime:winapi_downlevel.obj
 0001:000109ce       ___vcrt_FlsGetValue        100119ce f   libvcruntime:winapi_downlevel.obj
 0001:00010a09       ___vcrt_FlsSetValue        10011a09 f   libvcruntime:winapi_downlevel.obj
 0001:00010a47       ___vcrt_InitializeCriticalSectionEx 10011a47 f   libvcruntime:winapi_downlevel.obj
 0001:00010a8e       _unexpected                10011a8e f   libvcruntime:unexpected.obj
 0001:00010aab       ?GetCurrentState@__FrameHandler3@@SAHPAUEHRegistrationNode@@PAXPBU_s_FuncInfo@@@Z 10011aab f   libvcruntime:ehstate.obj
 0001:00010ac8       ?SetState@__FrameHandler3@@SAXPAUEHRegistrationNode@@PBU_s_FuncInfo@@H@Z 10011ac8 f   libvcruntime:ehstate.obj
 0001:00010ad6       _free                      10011ad6 f   libucrt:free.obj
 0001:00010af1       ??0__crt_cached_ptd_host@@QAE@QAU__crt_locale_pointers@@@Z 10011af1 f i libucrt:invalid_parameter.obj
 0001:00010b39       ??1__crt_cached_ptd_host@@QAE@XZ 10011b39 f i libucrt:invalid_parameter.obj
 0001:00010b75       ?check_synchronize_global_state_index@__crt_cached_ptd_host@@AAEIXZ 10011b75 f i libucrt:invalid_parameter.obj
 0001:00010b9e       ?force_synchronize_per_thread_data@__crt_cached_ptd_host@@AAEPAU__acrt_ptd@@XZ 10011b9e f i libucrt:invalid_parameter.obj
 0001:00010be4       ?get_raw_ptd@__crt_cached_ptd_host@@QAEPAU__acrt_ptd@@XZ 10011be4 f i libucrt:invalid_parameter.obj
 0001:00010c01       ___acrt_call_reportfault   10011c01 f   libucrt:invalid_parameter.obj
 0001:00010d3a       ___acrt_initialize_invalid_parameter_handler 10011d3a f   libucrt:invalid_parameter.obj
 0001:00010d49       __invalid_parameter        10011d49 f   libucrt:invalid_parameter.obj
 0001:00010d80       __invalid_parameter_internal 10011d80 f   libucrt:invalid_parameter.obj
 0001:00010dfd       __invalid_parameter_noinfo 10011dfd f   libucrt:invalid_parameter.obj
 0001:00010e0d       __invoke_watson            10011e0d f   libucrt:invalid_parameter.obj
 0001:00010e41       ___acrt_errno_from_os_error 10011e41 f   libucrt:errno.obj
 0001:00010e84       ___acrt_errno_map_os_error 10011e84 f   libucrt:errno.obj
 0001:00010ea7       ___acrt_errno_map_os_error_ptd 10011ea7 f   libucrt:errno.obj
 0001:00010ecb       ___doserrno                10011ecb f   libucrt:errno.obj
 0001:00010ede       __errno                    10011ede f   libucrt:errno.obj
 0001:00010ef1       _calloc                    10011ef1 f   libucrt:calloc.obj
 0001:00010efc       _malloc                    10011efc f   libucrt:malloc.obj
 0001:00010f07       __recalloc                 10011f07 f   libucrt:recalloc.obj
 0001:00010f12       __recalloc_base            10011f12 f   libucrt:recalloc.obj
 0001:00010f7f       __resetstkoflw             10011f7f f   libucrt:resetstk.obj
 0001:000110bc       _wcscat_s                  100120bc f   libucrt:wcscat_s.obj
 0001:000110c7       _wcscpy_s                  100120c7 f   libucrt:wcscpy_s.obj
 0001:000111f9       _wcsncpy_s                 100121f9 f   libucrt:wcsncpy_s.obj
 0001:00011421       ??$count@D@formatting_buffer@__crt_stdio_output@@QBEIXZ 10012421 f i libucrt:output.obj
 0001:00011439       ??$count@_W@formatting_buffer@__crt_stdio_output@@QBEIXZ 10012439 f i libucrt:output.obj
 0001:00011452       ??$ensure_buffer_is_big_enough@D@formatting_buffer@__crt_stdio_output@@QAE_NIAAV__crt_cached_ptd_host@@@Z 10012452 f i libucrt:output.obj
 0001:000114d3       ??$ensure_buffer_is_big_enough@_W@formatting_buffer@__crt_stdio_output@@QAE_NIAAV__crt_cached_ptd_host@@@Z 100124d3 f i libucrt:output.obj
 0001:00011555       ??$is_overflow_condition@K@__crt_strtox@@YA_NIK@Z 10012555 f i libucrt:output.obj
 0001:00011586       ??$is_wide_character_specifier@_W@__crt_stdio_output@@YA_N_K_WW4length_modifier@0@@Z 10012586 f i libucrt:output.obj
 0001:000115d4       ??$parse_integer@KV?$c_string_character_source@_W@__crt_strtox@@$0A@@__crt_strtox@@YAKAAV__crt_cached_ptd_host@@V?$c_string_character_source@_W@0@H_N@Z 100125d4 f i libucrt:output.obj
 0001:00011ba3       ??$scratch_data@D@formatting_buffer@__crt_stdio_output@@QAEPADXZ 10012ba3 f i libucrt:output.obj
 0001:00011bc1       ??$type_case_integer@$07@?$output_processor@_WV?$string_output_adapter@_W@__crt_stdio_output@@V?$format_validation_base@_WV?$string_output_adapter@_W@__crt_stdio_output@@@2@@__crt_stdio_output@@AAE_N_N@Z 10012bc1 f i libucrt:output.obj
 0001:00011d43       ??$type_case_integer@$09@?$output_processor@_WV?$string_output_adapter@_W@__crt_stdio_output@@V?$format_validation_base@_WV?$string_output_adapter@_W@__crt_stdio_output@@@2@@__crt_stdio_output@@AAE_N_N@Z 10012d43 f i libucrt:output.obj
 0001:00011ec5       ??$type_case_integer@$0BA@@?$output_processor@_WV?$string_output_adapter@_W@__crt_stdio_output@@V?$format_validation_base@_WV?$string_output_adapter@_W@__crt_stdio_output@@@2@@__crt_stdio_output@@AAE_N_N@Z 10012ec5 f i libucrt:output.obj
 0001:00012047       ??$type_case_integer_parse_into_buffer@I$07@?$output_processor@_WV?$string_output_adapter@_W@__crt_stdio_output@@V?$format_validation_base@_WV?$string_output_adapter@_W@__crt_stdio_output@@@2@@__crt_stdio_output@@AAEXI_N@Z 10013047 f i libucrt:output.obj
 0001:000120b4       ??$type_case_integer_parse_into_buffer@I$09@?$output_processor@_WV?$string_output_adapter@_W@__crt_stdio_output@@V?$format_validation_base@_WV?$string_output_adapter@_W@__crt_stdio_output@@@2@@__crt_stdio_output@@AAEXI_N@Z 100130b4 f i libucrt:output.obj
 0001:00012143       ??$type_case_integer_parse_into_buffer@I$0BA@@?$output_processor@_WV?$string_output_adapter@_W@__crt_stdio_output@@V?$format_validation_base@_WV?$string_output_adapter@_W@__crt_stdio_output@@@2@@__crt_stdio_output@@AAEXI_N@Z 10013143 f i libucrt:output.obj
 0001:000121d0       ??$type_case_integer_parse_into_buffer@_K$07@?$output_processor@_WV?$string_output_adapter@_W@__crt_stdio_output@@V?$format_validation_base@_WV?$string_output_adapter@_W@__crt_stdio_output@@@2@@__crt_stdio_output@@AAEX_K_N@Z 100131d0 f i libucrt:output.obj
 0001:00012259       ??$type_case_integer_parse_into_buffer@_K$09@?$output_processor@_WV?$string_output_adapter@_W@__crt_stdio_output@@V?$format_validation_base@_WV?$string_output_adapter@_W@__crt_stdio_output@@@2@@__crt_stdio_output@@AAEX_K_N@Z 10013259 f i libucrt:output.obj
 0001:00012308       ??$type_case_integer_parse_into_buffer@_K$0BA@@?$output_processor@_WV?$string_output_adapter@_W@__crt_stdio_output@@V?$format_validation_base@_WV?$string_output_adapter@_W@__crt_stdio_output@@@2@@__crt_stdio_output@@AAEX_K_N@Z 10013308 f i libucrt:output.obj
 0001:000123a3       ??0?$output_adapter_data@_WV?$string_output_adapter@_W@__crt_stdio_output@@@__crt_stdio_output@@IAE@ABV?$string_output_adapter@_W@1@_KQB_WAAV__crt_cached_ptd_host@@QAD@Z 100133a3 f i libucrt:output.obj
 0001:0001240f       ??1formatting_buffer@__crt_stdio_output@@QAE@XZ 1001340f f i libucrt:output.obj
 0001:00012429       ??4?$__crt_unique_heap_ptr@DU__crt_internal_free_policy@@@@QAEAAV0@$$QAV0@@Z 10013429 f i libucrt:output.obj
 0001:0001244d       ?crop_zeroes@__crt_stdio_output@@YAXPADQAU__crt_locale_pointers@@@Z 1001344d f i libucrt:output.obj
 0001:000124ad       ?find_next_state@?$output_processor@_WV?$string_output_adapter@_W@__crt_stdio_output@@V?$format_validation_base@_WV?$string_output_adapter@_W@__crt_stdio_output@@@2@@__crt_stdio_output@@ABE?AW4state@2@_WW432@@Z 100134ad f i libucrt:output.obj
 0001:000124e9       ?force_decimal_point@__crt_stdio_output@@YAXPADQAU__crt_locale_pointers@@@Z 100134e9 f i libucrt:output.obj
 0001:00012545       ?parse_int_from_format_string@?$output_processor@_WV?$string_output_adapter@_W@__crt_stdio_output@@V?$format_validation_base@_WV?$string_output_adapter@_W@__crt_stdio_output@@@2@@__crt_stdio_output@@AAE_NQAH@Z 10013545 f i libucrt:output.obj
 0001:000125bf       ?process@?$output_processor@_WV?$string_output_adapter@_W@__crt_stdio_output@@V?$format_validation_base@_WV?$string_output_adapter@_W@__crt_stdio_output@@@2@@__crt_stdio_output@@QAEHXZ 100135bf f i libucrt:output.obj
 0001:0001280f       ?state_case_size@?$output_processor@_WV?$string_output_adapter@_W@__crt_stdio_output@@V?$format_validation_base@_WV?$string_output_adapter@_W@__crt_stdio_output@@@2@@__crt_stdio_output@@AAE_NXZ 1001380f f i libucrt:output.obj
 0001:0001299d       ?state_case_type@?$output_processor@_WV?$string_output_adapter@_W@__crt_stdio_output@@V?$format_validation_base@_WV?$string_output_adapter@_W@__crt_stdio_output@@@2@@__crt_stdio_output@@AAE_NXZ 1001399d f i libucrt:output.obj
 0001:00012dbe       ?to_integer_size@__crt_stdio_output@@YAIW4length_modifier@1@@Z 10013dbe f i libucrt:output.obj
 0001:00012e12       ?type_case_Z@?$output_processor@_WV?$string_output_adapter@_W@__crt_stdio_output@@V?$format_validation_base@_WV?$string_output_adapter@_W@__crt_stdio_output@@@2@@__crt_stdio_output@@AAE_NXZ 10013e12 f i libucrt:output.obj
 0001:00012e6c       ?type_case_a@?$output_processor@_WV?$string_output_adapter@_W@__crt_stdio_output@@V?$format_validation_base@_WV?$string_output_adapter@_W@__crt_stdio_output@@@2@@__crt_stdio_output@@AAE_NXZ 10013e6c f i libucrt:output.obj
 0001:0001300c       ?type_case_c_tchar@?$output_processor@_WV?$string_output_adapter@_W@__crt_stdio_output@@V?$format_validation_base@_WV?$string_output_adapter@_W@__crt_stdio_output@@@2@@__crt_stdio_output@@AAE_N_W@Z 1001400c f i libucrt:output.obj
 0001:000130b3       ?type_case_n@?$output_processor@_WV?$string_output_adapter@_W@__crt_stdio_output@@V?$format_validation_base@_WV?$string_output_adapter@_W@__crt_stdio_output@@@2@@__crt_stdio_output@@AAE_NXZ 100140b3 f i libucrt:output.obj
 0001:00013137       ?type_case_o@?$output_processor@_WV?$string_output_adapter@_W@__crt_stdio_output@@V?$format_validation_base@_WV?$string_output_adapter@_W@__crt_stdio_output@@@2@@__crt_stdio_output@@AAE_NXZ 10014137 f i libucrt:output.obj
 0001:00013154       ?type_case_p@?$output_processor@_WV?$string_output_adapter@_W@__crt_stdio_output@@V?$format_validation_base@_WV?$string_output_adapter@_W@__crt_stdio_output@@@2@@__crt_stdio_output@@AAE_NXZ 10014154 f i libucrt:output.obj
 0001:0001316a       ?type_case_s@?$output_processor@_WV?$string_output_adapter@_W@__crt_stdio_output@@V?$format_validation_base@_WV?$string_output_adapter@_W@__crt_stdio_output@@@2@@__crt_stdio_output@@AAE_NXZ 1001416a f i libucrt:output.obj
 0001:000131dd       ?type_case_s_compute_narrow_string_length@?$output_processor@_WV?$string_output_adapter@_W@__crt_stdio_output@@V?$format_validation_base@_WV?$string_output_adapter@_W@__crt_stdio_output@@@2@@__crt_stdio_output@@AAEHH_W@Z 100141dd f i libucrt:output.obj
 0001:00013232       ?unget@?$c_string_character_source@_W@__crt_strtox@@QAEX_W@Z 10014232 f i libucrt:output.obj
 0001:00013260       ?update_locale_slow@__crt_cached_ptd_host@@AAEXXZ 10014260 f i libucrt:output.obj
 0001:000132bb       ?validate@?$c_string_character_source@_W@__crt_strtox@@QBE_NXZ 100142bb f i libucrt:output.obj
 0001:000132d6       ?validate@?$string_output_adapter@_W@__crt_stdio_output@@QBE_NAAV__crt_cached_ptd_host@@@Z 100142d6 f i libucrt:output.obj
 0001:00013307       ?write_string@?$string_output_adapter@_W@__crt_stdio_output@@QBEXQB_WHQAHAAV__crt_cached_ptd_host@@@Z 10014307 f i libucrt:output.obj
 0001:00013378       ___acrt_locale_get_ctype_array_value 10014378 f i libucrt:output.obj
 0001:0001339a       ___stdio_common_vswprintf_s 1001439a f   libucrt:output.obj
 0001:000133db       __seh_filter_dll           100143db f   libucrt:exception_filter.obj
 0001:000133fb       __seh_filter_exe           100143fb f   libucrt:exception_filter.obj
 0001:00013828       ___acrt_initialize_thread_local_exit_callback 10014828 f   libucrt:exit.obj
 0001:00013837       __cexit                    10014837 f   libucrt:exit.obj
 0001:00013846       __exit                     10014846 f   libucrt:exit.obj
 0001:0001385c       __is_c_termination_complete 1001485c f   libucrt:exit.obj
 0001:00013b14       ___acrt_allocate_buffer_for_argv 10014b14 f   libucrt:argv_parsing.obj
 0001:00013b63       __configure_narrow_argv    10014b63 f   libucrt:argv_parsing.obj
 0001:00013d0f       ___dcrt_uninitialize_environments_nolock 10014d0f f   libucrt:environment_initialization.obj
 0001:00013d60       __initialize_narrow_environment 10014d60 f   libucrt:environment_initialization.obj
 0001:00013e1b       ??$__crt_fast_encode_pointer@PAX@@YAPAXQAX@Z 10014e1b f i libucrt:initialization.obj
 0001:00013e1b       ??$__crt_fast_encode_pointer@PAP6AXXZ@@YAPAP6AXXZQAP6AXXZ@Z 10014e1b f i libucrt:onexit.obj
 0001:00013e1b       ??$__crt_fast_encode_pointer@P6AHXZ@@YAP6AHXZQ6AHXZ@Z 10014e1b f i libucrt:onexit.obj
 0001:00014016       __crt_atexit               10015016 f   libucrt:onexit.obj
 0001:0001402c       __execute_onexit_table     1001502c f   libucrt:onexit.obj
 0001:0001406a       __initialize_onexit_table  1001506a f   libucrt:onexit.obj
 0001:00014093       __register_onexit_function 10015093 f   libucrt:onexit.obj
 0001:00014116       ___acrt_uninitialize_command_line 10015116 f   libucrt:argv_data.obj
 0001:000141c4       ___acrt_initialize         100151c4 f   libucrt:initialization.obj
 0001:000141d6       ___acrt_thread_attach      100151d6 f   libucrt:initialization.obj
 0001:000141e1       ___acrt_thread_detach      100151e1 f   libucrt:initialization.obj
 0001:000141e9       ___acrt_uninitialize       100151e9 f   libucrt:initialization.obj
 0001:00014219       ___acrt_uninitialize_critical 10015219 f   libucrt:initialization.obj
 0001:0001422b       __initterm                 1001522b f   libucrt:initterm.obj
 0001:00014256       __initterm_e               10015256 f   libucrt:initterm.obj
 0001:00014284       ___acrt_initialize_new_handler 10015284 f   libucrt:new_handler.obj
 0001:00014293       __callnewh                 10015293 f   libucrt:new_handler.obj
 0001:000142c0       __query_new_handler        100152c0 f   libucrt:new_handler.obj
 0001:0001431c       _terminate                 1001531c f   libucrt:terminate.obj
 0001:00014358       _abort                     10015358 f   libucrt:abort.obj
 0001:0001439c       _strcpy_s                  1001539c f   libucrt:strcpy_s.obj
 0001:00014400       _strncmp                   10015400 f   libucrt:strncmp.obj
 0001:00014478       _wcsncmp                   10015478 f   libucrt:wcsncmp.obj
 0001:000144b2       __free_base                100154b2 f   libucrt:free_base.obj
 0001:0001482a       ___acrt_freeptd            1001582a f   libucrt:per_thread_data.obj
 0001:00014856       ___acrt_getptd             10015856 f   libucrt:per_thread_data.obj
 0001:00014911       ___acrt_getptd_head        10015911 f   libucrt:per_thread_data.obj
 0001:000149a7       ___acrt_getptd_noexit      100159a7 f   libucrt:per_thread_data.obj
 0001:00014a58       ___acrt_getptd_noexit_explicit 10015a58 f   libucrt:per_thread_data.obj
 0001:00014afb       ___acrt_initialize_ptd     10015afb f   libucrt:per_thread_data.obj
 0001:00014b27       ___acrt_uninitialize_ptd   10015b27 f   libucrt:per_thread_data.obj
 0001:00014baf       ___acrt_set_locale_changed 10015baf f   libucrt:wsetlocale.obj
 0001:00014bba       ___acrt_uninitialize_locale 10015bba f   libucrt:wsetlocale.obj
 0001:00014be1       __calloc_base              10015be1 f   libucrt:calloc_base.obj
 0001:00014c3e       __malloc_base              10015c3e f   libucrt:malloc_base.obj
 0001:00014c8c       __msize_base               10015c8c f   libucrt:msize.obj
 0001:00014cbf       __realloc_base             10015cbf f   libucrt:realloc_base.obj
 0001:00014ec4       ___acrt_AppPolicyGetProcessTerminationMethodInternal@4 10015ec4 f   libucrt:winapi_thunks.obj
 0001:00014f04       ___acrt_AreFileApisANSI@0  10015f04 f   libucrt:winapi_thunks.obj
 0001:00014f23       ___acrt_FlsAlloc@4         10015f23 f   libucrt:winapi_thunks.obj
 0001:00014f62       ___acrt_FlsFree@4          10015f62 f   libucrt:winapi_thunks.obj
 0001:00014fa1       ___acrt_FlsGetValue@4      10015fa1 f   libucrt:winapi_thunks.obj
 0001:00014fe0       ___acrt_FlsSetValue@8      10015fe0 f   libucrt:winapi_thunks.obj
 0001:00015022       ___acrt_InitializeCriticalSectionEx@12 10016022 f   libucrt:winapi_thunks.obj
 0001:0001506d       ___acrt_LCMapStringEx@36   1001606d f   libucrt:winapi_thunks.obj
 0001:000150ca       ___acrt_LocaleNameToLCID@8 100160ca f   libucrt:winapi_thunks.obj
 0001:000150fb       ___acrt_SetThreadStackGuarantee@4 100160fb f   libucrt:winapi_thunks.obj
 0001:00015136       ___acrt_initialize_winapi_thunks 10016136 f   libucrt:winapi_thunks.obj
 0001:0001514a       ___acrt_uninitialize_winapi_thunks 1001614a f   libucrt:winapi_thunks.obj
 0001:00015180       _wcsnlen                   10016180 f   libucrt:strnlen.obj
 0001:00015330       ___acrt_update_locale_info 10016330 f   libucrt:locale_update.obj
 0001:0001535d       ___acrt_update_locale_info_explicit 1001635d f   libucrt:locale_update.obj
 0001:0001538e       ___acrt_update_multibyte_info 1001638e f   libucrt:locale_update.obj
 0001:000153bb       ___acrt_update_multibyte_info_explicit 100163bb f   libucrt:locale_update.obj
 0001:000153ec       ?__acrt_fp_classify@@YA?AW4__acrt_fp_class@@ABN@Z 100163ec f i libucrt:cvt.obj
 0001:00015db5       ___acrt_fp_format          10016db5 f   libucrt:cvt.obj
 0001:00015f36       __mbtowc_internal          10016f36 f   libucrt:mbtowc.obj
 0001:00016069       __fileno                   10017069 f   libucrt:fileno.obj
 0001:00016090       ___acrt_initialize_stdio   10017090 f   libucrt:_file.obj
 0001:00016158       ___acrt_uninitialize_stdio 10017158 f   libucrt:_file.obj
 0001:000161a4       __lock_file                100171a4 f   libucrt:_file.obj
 0001:000161b8       __unlock_file              100171b8 f   libucrt:_file.obj
 0001:000161cc       __get_printf_count_output  100171cc f   libucrt:printf_count_output.obj
 0001:00016347       ___acrt_initialize_lowio   10017347 f   libucrt:ioinit.obj
 0001:000163a7       ___acrt_uninitialize_lowio 100173a7 f   libucrt:ioinit.obj
 0001:000163d3       ___acrt_initialize_locks   100173d3 f   libucrt:locks.obj
 0001:00016414       ___acrt_lock               10017414 f   libucrt:locks.obj
 0001:0001642b       ___acrt_uninitialize_locks 1001742b f   libucrt:locks.obj
 0001:0001645c       ___acrt_unlock             1001745c f   libucrt:locks.obj
 0001:00016473       ___acrt_get_process_end_policy 10017473 f   libucrt:win_policies.obj
 0001:000164bc       ??$__acrt_convert_wcs_mbs_cp@D_WV<lambda_62f6974d9771e494a5ea317cc32e971c>@@U__crt_win32_buffer_internal_dynamic_resizing@@@@YAHQBDAAV?$__crt_win32_buffer@_WU__crt_win32_buffer_internal_dynamic_resizing@@@@ABV<lambda_62f6974d9771e494a5ea317cc32e971c>@@I@Z 100174bc f i libucrt:argv_wildcards.obj
 0001:0001656e       ??$__acrt_convert_wcs_mbs_cp@_WDV<lambda_28bda7af82a03b66c1cb3803a755f95d>@@U__crt_win32_buffer_internal_dynamic_resizing@@@@YAHQB_WAAV?$__crt_win32_buffer@DU__crt_win32_buffer_internal_dynamic_resizing@@@@ABV<lambda_28bda7af82a03b66c1cb3803a755f95d>@@I@Z 1001756e f i libucrt:argv_wildcards.obj
 0001:00016634       ??$__acrt_mbs_to_wcs_cp@U__crt_win32_buffer_internal_dynamic_resizing@@@@YAHQBDAAV?$__crt_win32_buffer@_WU__crt_win32_buffer_internal_dynamic_resizing@@@@I@Z 10017634 f i libucrt:argv_wildcards.obj
 0001:00016b04       ??0_LocaleUpdate@@QAE@QAU__crt_locale_pointers@@@Z 10017b04 f i libucrt:argv_wildcards.obj
 0001:00016baf       ??R<lambda_28bda7af82a03b66c1cb3803a755f95d>@@QBEHIQB_WQADI@Z 10017baf f i libucrt:argv_wildcards.obj
 0001:00016baf       ??R<lambda_0fec1a7b3f42a53036604e18c2d5e07e>@@QBEHIQB_WQADI@Z 10017baf f i libucrt:getmodulefilenamea.obj
 0001:00016bd3       ?__acrt_get_utf8_acp_compatibility_codepage@@YAIXZ 10017bd3 f i libucrt:argv_wildcards.obj
 0001:00016c12       ?_deallocate@?$__crt_win32_buffer@_WU__crt_win32_buffer_internal_dynamic_resizing@@@@AAEXXZ 10017c12 f i libucrt:argv_wildcards.obj
 0001:00016c12       ?_deallocate@?$__crt_win32_buffer@DU__crt_win32_buffer_internal_dynamic_resizing@@@@AAEXXZ 10017c12 f i libucrt:argv_wildcards.obj
 0001:00016c2c       ?allocate@?$__crt_win32_buffer@DU__crt_win32_buffer_internal_dynamic_resizing@@@@QAEHI@Z 10017c2c f i libucrt:argv_wildcards.obj
 0001:00016c68       ?allocate@?$__crt_win32_buffer@_WU__crt_win32_buffer_internal_dynamic_resizing@@@@QAEHI@Z 10017c68 f i libucrt:argv_wildcards.obj
 0001:00016ca7       ?allocate@__crt_win32_buffer_internal_dynamic_resizing@@SAHQAPAXIABV__crt_win32_buffer_empty_debug_info@@@Z 10017ca7 f i libucrt:argv_wildcards.obj
 0001:00016d4d       ___acrt_expand_narrow_argv_wildcards 10017d4d f   libucrt:argv_wildcards.obj
 0001:00016d58       ??$__acrt_convert_wcs_mbs_cp@_WDV<lambda_0fec1a7b3f42a53036604e18c2d5e07e>@@U__crt_win32_buffer_no_resizing@@@@YAHQB_WAAV?$__crt_win32_buffer@DU__crt_win32_buffer_no_resizing@@@@ABV<lambda_0fec1a7b3f42a53036604e18c2d5e07e>@@I@Z 10017d58 f i libucrt:getmodulefilenamea.obj
 0001:00016e1a       ?allocate@?$__crt_win32_buffer@DU__crt_win32_buffer_no_resizing@@@@QAEHI@Z 10017e1a f i libucrt:getmodulefilenamea.obj
 0001:00016e41       ?set_to_nullptr@?$__crt_win32_buffer@DU__crt_win32_buffer_no_resizing@@@@QAEXXZ 10017e41 f i libucrt:getmodulefilenamea.obj
 0001:00016e55       ___acrt_GetModuleFileNameA 10017e55 f   libucrt:getmodulefilenamea.obj
 0001:00017479       ___acrt_initialize_multibyte 10018479 f   libucrt:mbctype.obj
 0001:000174c1       ___acrt_update_thread_multibyte_data 100184c1 f   libucrt:mbctype.obj
 0001:000174d4       __setmbcp_nolock           100184d4 f   libucrt:mbctype.obj
 0001:000177ad       __ismbblead                100187ad f   libucrt:ismbbyte.obj
 0001:000177c5       ___acrt_initialize_command_line 100187c5 f   libucrt:argv_data.obj
 0001:000177de       ___acrt_MultiByteToWideChar 100187de f   libucrt:multibytetowidechar.obj
 0001:0001785a       ___acrt_WideCharToMultiByte 1001885a f   libucrt:widechartomultibyte.obj
 0001:00017948       ___dcrt_get_narrow_environment_from_os 10018948 f   libucrt:get_environment_from_os.obj
 0001:000179e8       ___acrt_initialize_heap    100189e8 f   libucrt:heap_handle.obj
 0001:000179f9       ___acrt_uninitialize_heap  100189f9 f   libucrt:heap_handle.obj
 0001:00017a03       ___acrt_execute_initializers 10018a03 f   libucrt:shared_initialization.obj
 0001:00017a6b       ___acrt_execute_uninitializers 10018a6b f   libucrt:shared_initialization.obj
 0001:00017b6a       ___acrt_get_sigabrt_handler 10018b6a f   libucrt:signal.obj
 0001:00017b91       ___acrt_initialize_signal_handlers 10018b91 f   libucrt:signal.obj
 0001:00017baf       _raise                     10018baf f   libucrt:signal.obj
 0001:00017da2       ___acrt_has_user_matherr   10018da2 f   libucrt:matherr.obj
 0001:00017dba       ___acrt_initialize_user_matherr 10018dba f   libucrt:matherr.obj
 0001:00017dc9       ___acrt_invoke_user_matherr 10018dc9 f   libucrt:matherr.obj
 0001:00017fd8       ___acrt_stdio_flush_nolock 10018fd8 f   libucrt:fflush.obj
 0001:00018041       __fflush_nolock            10019041 f   libucrt:fflush.obj
 0001:000180a6       __flushall                 100190a6 f   libucrt:fflush.obj
 0001:000180af       ___acrt_add_locale_ref     100190af f   libucrt:locale_refcounting.obj
 0001:0001812c       ___acrt_free_locale        1001912c f   libucrt:locale_refcounting.obj
 0001:00018274       ___acrt_locale_add_lc_time_reference 10019274 f   libucrt:locale_refcounting.obj
 0001:0001829d       ___acrt_locale_free_lc_time_if_unreferenced 1001929d f   libucrt:locale_refcounting.obj
 0001:000182ce       ___acrt_locale_release_lc_time_reference 100192ce f   libucrt:locale_refcounting.obj
 0001:000182f7       ___acrt_release_locale_ref 100192f7 f   libucrt:locale_refcounting.obj
 0001:00018378       ___acrt_update_thread_locale_data 10019378 f   libucrt:locale_refcounting.obj
 0001:000183f9       __updatetlocinfoEx_nolock  100193f9 f   libucrt:locale_refcounting.obj
 0001:00018449       ___acrt_locale_free_monetary 10019449 f   libucrt:initmon.obj
 0001:00018547       ___acrt_locale_free_numeric 10019547 f   libucrt:initnum.obj
 0001:000185d5       ___acrt_locale_free_time   100195d5 f   libucrt:inittime.obj
 0001:000186b9       ___acrt_GetStringTypeA     100196b9 f   libucrt:getstringtypea.obj
 0001:000187c2       __freea_crt                100197c2 f i libucrt:getstringtypea.obj
 0001:000187e2       __query_new_mode           100197e2 f   libucrt:new_mode.obj
 0001:00018839       ___acrt_DownlevelLocaleNameToLCID 10019839 f   libucrt:lcidtoname_downlevel.obj
 0001:000188e3       ___acrt_fp_strflt_to_string 100198e3 f   libucrt:_fptostr.obj
 0001:000189e0       ?divide@__crt_strtox@@YA_KAAUbig_integer@1@ABU21@@Z 100199e0 f i libucrt:cfout.obj
 0001:00018e68       ___acrt_fltout             10019e68 f   libucrt:cfout.obj
 0001:0001a3a1       _fegetround                1001b3a1 f   libucrt:fegetround.obj
 0001:0001a3da       ?__mbrtowc_utf8@__crt_mbstring@@YAIPA_WPBDIPAU_Mbstatet@@AAV__crt_cached_ptd_host@@@Z 1001b3da f   libucrt:mbrtowc.obj
 0001:0001a41d       ?__mbsrtowcs_utf8@__crt_mbstring@@YAIPA_WPAPBDIPAU_Mbstatet@@AAV__crt_cached_ptd_host@@@Z 1001b41d f   libucrt:mbrtowc.obj
 0001:0001a525       __fcloseall                1001b525 f   libucrt:closeall.obj
 0001:0001a5d0       ___acrt_stdio_free_buffer_nolock 1001b5d0 f   libucrt:_freebuf.obj
 0001:0001a610       __isatty                   1001b610 f   libucrt:isatty.obj
 0001:0001a666       ___acrt_lowio_create_handle_array 1001b666 f   libucrt:osfinfo.obj
 0001:0001a6e1       ___acrt_lowio_destroy_handle_array 1001b6e1 f   libucrt:osfinfo.obj
 0001:0001a716       ___acrt_lowio_ensure_fh_exists 1001b716 f   libucrt:osfinfo.obj
 0001:0001a7b4       ___acrt_lowio_lock_fh      1001b7b4 f   libucrt:osfinfo.obj
 0001:0001a7d7       ___acrt_lowio_unlock_fh    1001b7d7 f   libucrt:osfinfo.obj
 0001:0001a7fa       __free_osfhnd              1001b7fa f   libucrt:osfinfo.obj
 0001:0001a88b       __get_osfhandle            1001b88b f   libucrt:osfinfo.obj
 0001:0001a900       _qsort                     1001b900 f   libucrt:qsort.obj
 0001:0001aea5       _strncpy_s                 1001bea5 f   libucrt:strncpy_s.obj
 0001:0001aeb0       _strpbrk                   1001beb0 f   libucrt:strpbrk.obj
 0001:0001aef0       __mbsdec                   1001bef0 f   libucrt:mbsdec.obj
 0001:0001af07       __mbsdec_l                 1001bf07 f   libucrt:mbsdec.obj
 0001:0001b182       ___acrt_LCMapStringA       1001c182 f   libucrt:lcmapstringa.obj
 0001:0001b27c       __commit                   1001c27c f   libucrt:commit.obj
 0001:0001baa7       __write_internal           1001caa7 f   libucrt:write.obj
 0001:0001bbaf       __write_nolock             1001cbaf f   libucrt:write.obj
 0001:0001bdaf       ___ascii_wcsnicmp          1001cdaf f   libucrt:wcsnicmp.obj
 0001:0001bdfe       __controlfp_s              1001cdfe f   libucrt:contrlfp.obj
 0001:0001be5d       _fegetenv                  1001ce5d f   libucrt:fegetenv.obj
 0001:0001be7a       _fesetenv                  1001ce7a f   libucrt:fesetenv.obj
 0001:0001bec5       _feholdexcept              1001cec5 f   libucrt:feholdexcept.obj
 0001:0001bf20       __CIlog10                  1001cf20 f   libucrt:log10_impl.obj
 0001:0001bf5b       __CIlog10_default          1001cf5b f   libucrt:log10_impl.obj
 0001:0001bf6f       __log10_default            1001cf6f     libucrt:log10_impl.obj
 0001:0001c030       _ceil                      1001d030 f   libucrt:ceil_pentium4.obj
 0001:0001c070       __ceil_pentium4            1001d070 f   libucrt:ceil_pentium4.obj
 0001:0001c416       ___acrt_fenv_get_common_round_control 1001d416 f   libucrt:_fenvutils.obj
 0001:0001c438       ___acrt_fenv_get_control   1001d438 f   libucrt:_fenvutils.obj
 0001:0001c4b8       ___acrt_fenv_get_status    1001d4b8 f   libucrt:_fenvutils.obj
 0001:0001c562       ___acrt_fenv_set_control   1001d562 f   libucrt:_fenvutils.obj
 0001:0001c5dd       ___acrt_fenv_set_status    1001d5dd f   libucrt:_fenvutils.obj
 0001:0001c6d7       ?reset_and_return@__crt_mbstring@@YAIIPAU_Mbstatet@@@Z 1001d6d7 f   libucrt:common_utf8.obj
 0001:0001c6eb       ?return_illegal_sequence@__crt_mbstring@@YAIPAU_Mbstatet@@AAV__crt_cached_ptd_host@@@Z 1001d6eb f   libucrt:common_utf8.obj
 0001:0001c70d       ?__mbrtoc32_utf8@__crt_mbstring@@YAIPA_UPBDIPAU_Mbstatet@@AAV__crt_cached_ptd_host@@@Z 1001d70d f   libucrt:mbrtoc32.obj
 0001:0001c9f0       _fclose                    1001d9f0 f   libucrt:fclose.obj
 0001:0001caa3       __lseeki64_nolock_internal 1001daa3 f   libucrt:lseek.obj
 0001:0001cac1       __query_app_type           1001dac1 f   libucrt:report_runtime_error.obj
 0001:0001cac7       ___strncnt                 1001dac7 f   libucrt:strncnt.obj
 0001:0001cae3       __putwch_nolock            1001dae3 f   libucrt:putwch.obj
 0001:0001cbbc       __clearfp                  1001dbbc f   libucrt:ieee87.obj
 0001:0001cc9a       __control87                1001dc9a f   libucrt:ieee87.obj
 0001:0001d039       ___acrt_initialize_sse2    1001e039 f   libucrt:mathfcns.obj
 0001:0001d050       __CIlog10_pentium4         1001e050 f   libucrt:log10_pentium4.obj
 0001:0001d068       __log10_pentium4           1001e068     libucrt:log10_pentium4.obj
 0001:0001d300       __fFEXP                    1001e300 f   libucrt:87tran.obj
 0001:0001d357       __rtinfpopse               1001e357     libucrt:87tran.obj
 0001:0001d359       __rtinfnpopse              1001e359     libucrt:87tran.obj
 0001:0001d369       __fFLN                     1001e369     libucrt:87tran.obj
 0001:0001d41e       __rtinfpop                 1001e41e     libucrt:87tran.obj
 0001:0001d420       __rtinfnpop                1001e420     libucrt:87tran.obj
 0001:0001d430       __rtforexpinf              1001e430 f   libucrt:87tran.obj
 0001:0001d43d       __ffexpm1                  1001e43d     libucrt:87tran.obj
 0001:0001d4f0       __trandisp1                1001e4f0 f   libucrt:87disp.obj
 0001:0001d565       __trandisp2                1001e565 f   libucrt:87disp.obj
 0001:0001d5ff       __rttospopde               1001e5ff     libucrt:87disp.obj
 0001:0001d604       __rttospop                 1001e604     libucrt:87disp.obj
 0001:0001d610       __rtnospop                 1001e610 f   libucrt:87disp.obj
 0001:0001d620       __rttosnpop                1001e620 f   libucrt:87disp.obj
 0001:0001d621       __rtnospopde               1001e621     libucrt:87disp.obj
 0001:0001d628       __rtzeropop                1001e628     libucrt:87disp.obj
 0001:0001d62a       __rtzeronpop               1001e62a     libucrt:87disp.obj
 0001:0001d630       __rtzerospop               1001e630 f   libucrt:87disp.obj
 0001:0001d63d       __rtonepop                 1001e63d     libucrt:87disp.obj
 0001:0001d640       __rtonenpop                1001e640 f   libucrt:87disp.obj
 0001:0001d650       __tosnan1                  1001e650 f   libucrt:87disp.obj
 0001:0001d680       __nosnan2                  1001e680 f   libucrt:87disp.obj
 0001:0001d690       __tosnan2                  1001e690 f   libucrt:87disp.obj
 0001:0001d6c0       __nan2                     1001e6c0 f   libucrt:87disp.obj
 0001:0001d700       __rtindfpop                1001e700 f   libucrt:87disp.obj
 0001:0001d702       __rtindfnpop               1001e702     libucrt:87disp.obj
 0001:0001d713       __rttosnpopde              1001e713     libucrt:87disp.obj
 0001:0001d720       __rtatan2inf               1001e720 f   libucrt:87disp.obj
 0001:0001d73d       __rtchsifneg               1001e73d     libucrt:87disp.obj
 0001:0001d750       __twoToTOS                 1001e750 f   libucrt:common.obj
 0001:0001d765       __load_CW                  1001e765 f   libucrt:common.obj
 0001:0001d77c       __convertTOStoQNaN         1001e77c f   libucrt:common.obj
 0001:0001d795       __fload_withFB             1001e795 f   libucrt:common.obj
 0001:0001d7d8       __checkTOS_withFB          1001e7d8 f   libucrt:common.obj
 0001:0001d7ee       __fast_exit                1001e7ee f   libucrt:common.obj
 0001:0001d7fb       __math_exit                1001e7fb f   libucrt:common.obj
 0001:0001d825       __check_overflow_exit      1001e825 f   libucrt:common.obj
 0001:0001d839       __check_range_exit         1001e839 f   libucrt:common.obj
 0001:0001d8e0       __startTwoArgErrorHandling 1001e8e0 f   libucrt:genexcep.obj
 0001:0001d8f7       __startOneArgErrorHandling 1001e8f7 f   libucrt:genexcep.obj
 0001:0001d933       ___libm_error_support      1001e933 f   libucrt:libm_error.obj
 0001:0001db27       __ceil_default             1001eb27 f   libucrt:ceil.obj
 0001:0001dc6d       __close_internal           1001ec6d f   libucrt:close.obj
 0001:0001dd10       __close_nolock_internal    1001ed10 f   libucrt:close.obj
 0001:0001ddb0       ?__acrt_stdio_free_stream@@YAXV__crt_stdio_stream@@@Z 1001edb0 f   libucrt:stream.obj
 0001:0001ddf0       ___ascii_strnicmp          1001edf0 f   libucrt:_strnicm.obj
 0001:0001de70       ___dcrt_lowio_ensure_console_output_initialized 1001ee70 f   libucrt:initcon.obj
 0001:0001de8f       ___dcrt_terminate_console_output 1001ee8f f   libucrt:initcon.obj
 0001:0001dea6       ___dcrt_write_console      1001eea6 f   libucrt:initcon.obj
 0001:0001defb       ___set_fpsr_sse2           1001eefb f   libucrt:fpctrl.obj
 0001:0001df7b       __clrfp                    1001ef7b f   libucrt:fpctrl.obj
 0001:0001df8c       __ctrlfp                   1001ef8c f   libucrt:fpctrl.obj
 0001:0001dfb6       __set_statfp               1001efb6 f   libucrt:fpctrl.obj
 0001:0001e00f       __statfp                   1001f00f f   libucrt:fpctrl.obj
 0001:0001e01f       __d_inttype                1001f01f f   libucrt:powhlp.obj
 0001:0001e087       __powhlp                   1001f087 f   libucrt:powhlp.obj
 0001:0001e1b2       __87except                 1001f1b2 f   libucrt:87except.obj
 0001:0001e2bc       __frnd                     1001f2bc f   libucrt:frnd.obj
 0001:0001e2d0       __errcode                  1001f2d0 f   libucrt:fpexcept.obj
 0001:0001e304       __except1                  1001f304 f   libucrt:fpexcept.obj
 0001:0001e3d2       __handle_exc               1001f3d2 f   libucrt:fpexcept.obj
 0001:0001e64b       __raise_exc                1001f64b f   libucrt:fpexcept.obj
 0001:0001e66e       __raise_exc_ex             1001f66e f   libucrt:fpexcept.obj
 0001:0001e964       __set_errno_from_matherr   1001f964 f   libucrt:fpexcept.obj
 0001:0001e993       __umatherr                 1001f993 f   libucrt:fpexcept.obj
 0001:0001ea33       __decomp                   1001fa33 f   libucrt:util.obj
 0001:0001eb05       __set_exp                  1001fb05 f   libucrt:util.obj
 0001:0001eb32       __sptype                   1001fb32 f   libucrt:util.obj
 0001:0001eb90       __fpclass                  1001fb90 f   libucrt:ieeemisc.obj
 0001:0001ec40       __FindPESection            1001fc40 f   LIBCMT:pesect.obj
 0001:0001ec90       __IsNonwritableInCurrentImage 1001fc90 f   LIBCMT:pesect.obj
 0001:0001ed50       __ValidateImageBase        1001fd50 f   LIBCMT:pesect.obj
 0001:0001ed81       __EH_epilog3               1001fd81 f   LIBCMT:ehprolg3.obj
 0001:0001ed95       __EH_prolog3               1001fd95 f   LIBCMT:ehprolg3.obj
 0001:0001edc8       __EH_prolog3_catch         1001fdc8 f   LIBCMT:ehprolg3.obj
 0001:0001ee00       __aulldvrm                 1001fe00 f   LIBCMT:ulldvrm.obj
 0001:0001eea0       __allmul                   1001fea0 f   LIBCMT:llmul.obj
 0001:0001eee0       __alldvrm                  1001fee0 f   LIBCMT:lldvrm.obj
 0001:0001efc0       __allshl                   1001ffc0 f   LIBCMT:llshl.obj
 0001:0001efe0       __aullshr                  1001ffe0 f   LIBCMT:ullshr.obj
 0001:0001f000       __ftol2_sse                10020000 f   LIBCMT:ftol2.obj
 0001:0001f010       __ftoi2                    10020010 f   LIBCMT:ftol2.obj
 0001:0001f090       _strrchr                   10020090 f   libvcruntime:strrchr.obj
 0001:0001f1d0       __filter_x86_sse2_floating_point_exception 100201d0 f   LIBCMT:x86_exception_filter.obj
 0001:0001f1d0       __filter_x86_sse2_floating_point_exception_default 100201d0 f   LIBCMT:x86_exception_filter.obj
 0002:00000000       __imp__RegQueryValueExW@24 10021000     advapi32:ADVAPI32.dll
 0002:00000004       __imp__RegSetValueExW@24   10021004     advapi32:ADVAPI32.dll
 0002:00000008       __imp__RegQueryInfoKeyW@48 10021008     advapi32:ADVAPI32.dll
 0002:0000000c       __imp__RegOpenKeyExW@20    1002100c     advapi32:ADVAPI32.dll
 0002:00000010       __imp__RegEnumKeyExW@32    10021010     advapi32:ADVAPI32.dll
 0002:00000014       __imp__RegDeleteValueW@8   10021014     advapi32:ADVAPI32.dll
 0002:00000018       __imp__RegDeleteKeyW@8     10021018     advapi32:ADVAPI32.dll
 0002:0000001c       __imp__RegCreateKeyExW@36  1002101c     advapi32:ADVAPI32.dll
 0002:00000020       __imp__RegCloseKey@4       10021020     advapi32:ADVAPI32.dll
 0002:00000024       \177ADVAPI32_NULL_THUNK_DATA 10021024     advapi32:ADVAPI32.dll
 0002:00000028       __imp__GetObjectW@12       10021028     gdi32:GDI32.dll
 0002:0000002c       __imp__SelectObject@8      1002102c     gdi32:GDI32.dll
 0002:00000030       __imp__DeleteObject@4      10021030     gdi32:GDI32.dll
 0002:00000034       __imp__CreateCompatibleDC@4 10021034     gdi32:GDI32.dll
 0002:00000038       __imp__BitBlt@36           10021038     gdi32:GDI32.dll
 0002:0000003c       __imp__SetWindowOrgEx@16   1002103c     gdi32:GDI32.dll
 0002:00000040       __imp__SetWindowExtEx@16   10021040     gdi32:GDI32.dll
 0002:00000044       __imp__SetViewportOrgEx@16 10021044     gdi32:GDI32.dll
 0002:00000048       __imp__LPtoDP@12           10021048     gdi32:GDI32.dll
 0002:0000004c       __imp__SetMapMode@8        1002104c     gdi32:GDI32.dll
 0002:00000050       __imp__SaveDC@4            10021050     gdi32:GDI32.dll
 0002:00000054       __imp__RestoreDC@8         10021054     gdi32:GDI32.dll
 0002:00000058       __imp__GetDeviceCaps@8     10021058     gdi32:GDI32.dll
 0002:0000005c       __imp__DeleteMetaFile@4    1002105c     gdi32:GDI32.dll
 0002:00000060       __imp__DeleteDC@4          10021060     gdi32:GDI32.dll
 0002:00000064       __imp__CreateRectRgnIndirect@4 10021064     gdi32:GDI32.dll
 0002:00000068       __imp__CreateMetaFileW@4   10021068     gdi32:GDI32.dll
 0002:0000006c       __imp__CreateDCW@16        1002106c     gdi32:GDI32.dll
 0002:00000070       __imp__CloseMetaFile@4     10021070     gdi32:GDI32.dll
 0002:00000074       \177GDI32_NULL_THUNK_DATA  10021074     gdi32:GDI32.dll
 0002:00000078       __imp__CloseHandle@4       10021078     kernel32:KERNEL32.dll
 0002:0000007c       __imp__SetEvent@4          1002107c     kernel32:KERNEL32.dll
 0002:00000080       __imp__CreateMutexW@12     10021080     kernel32:KERNEL32.dll
 0002:00000084       __imp__CreateEventW@16     10021084     kernel32:KERNEL32.dll
 0002:00000088       __imp__GetCurrentProcessId@0 10021088     kernel32:KERNEL32.dll
 0002:0000008c       __imp__CreateFileW@28      1002108c     kernel32:KERNEL32.dll
 0002:00000090       __imp__GetConsoleMode@8    10021090     kernel32:KERNEL32.dll
 0002:00000094       __imp__GetConsoleOutputCP@0 10021094     kernel32:KERNEL32.dll
 0002:00000098       __imp__WriteFile@20        10021098     kernel32:KERNEL32.dll
 0002:0000009c       __imp__FlushFileBuffers@4  1002109c     kernel32:KERNEL32.dll
 0002:000000a0       __imp__SetStdHandle@8      100210a0     kernel32:KERNEL32.dll
 0002:000000a4       __imp__SetFilePointerEx@20 100210a4     kernel32:KERNEL32.dll
 0002:000000a8       __imp__GetStringTypeW@16   100210a8     kernel32:KERNEL32.dll
 0002:000000ac       __imp__FreeEnvironmentStringsW@4 100210ac     kernel32:KERNEL32.dll
 0002:000000b0       __imp__GetEnvironmentStringsW@0 100210b0     kernel32:KERNEL32.dll
 0002:000000b4       __imp__lstrcmpiW@8         100210b4     kernel32:KERNEL32.dll
 0002:000000b8       __imp__GetCommandLineA@0   100210b8     kernel32:KERNEL32.dll
 0002:000000bc       __imp__GetCPInfo@8         100210bc     kernel32:KERNEL32.dll
 0002:000000c0       __imp__GetOEMCP@0          100210c0     kernel32:KERNEL32.dll
 0002:000000c4       __imp__GetACP@0            100210c4     kernel32:KERNEL32.dll
 0002:000000c8       __imp__IsValidCodePage@4   100210c8     kernel32:KERNEL32.dll
 0002:000000cc       __imp__FindNextFileW@8     100210cc     kernel32:KERNEL32.dll
 0002:000000d0       __imp__FindFirstFileExW@24 100210d0     kernel32:KERNEL32.dll
 0002:000000d4       __imp__FindClose@4         100210d4     kernel32:KERNEL32.dll
 0002:000000d8       __imp__GetFileType@4       100210d8     kernel32:KERNEL32.dll
 0002:000000dc       __imp__GetStdHandle@4      100210dc     kernel32:KERNEL32.dll
 0002:000000e0       __imp__LCMapStringW@24     100210e0     kernel32:KERNEL32.dll
 0002:000000e4       __imp__HeapReAlloc@16      100210e4     kernel32:KERNEL32.dll
 0002:000000e8       __imp__HeapSize@12         100210e8     kernel32:KERNEL32.dll
 0002:000000ec       __imp__MulDiv@12           100210ec     kernel32:KERNEL32.dll
 0002:000000f0       __imp__GlobalLock@4        100210f0     kernel32:KERNEL32.dll
 0002:000000f4       __imp__GlobalUnlock@4      100210f4     kernel32:KERNEL32.dll
 0002:000000f8       __imp__GlobalAlloc@8       100210f8     kernel32:KERNEL32.dll
 0002:000000fc       __imp__FindResourceW@12    100210fc     kernel32:KERNEL32.dll
 0002:00000100       __imp__SizeofResource@8    10021100     kernel32:KERNEL32.dll
 0002:00000104       __imp__LoadResource@8      10021104     kernel32:KERNEL32.dll
 0002:00000108       __imp__LoadLibraryExW@12   10021108     kernel32:KERNEL32.dll
 0002:0000010c       __imp__GetProcAddress@8    1002110c     kernel32:KERNEL32.dll
 0002:00000110       __imp__GetModuleHandleW@4  10021110     kernel32:KERNEL32.dll
 0002:00000114       __imp__GetModuleFileNameW@12 10021114     kernel32:KERNEL32.dll
 0002:00000118       __imp__FreeLibrary@4       10021118     kernel32:KERNEL32.dll
 0002:0000011c       __imp__DisableThreadLibraryCalls@4 1002111c     kernel32:KERNEL32.dll
 0002:00000120       __imp__GetCurrentThreadId@0 10021120     kernel32:KERNEL32.dll
 0002:00000124       __imp__Sleep@4             10021124     kernel32:KERNEL32.dll
 0002:00000128       __imp__WaitForSingleObject@8 10021128     kernel32:KERNEL32.dll
 0002:0000012c       __imp__ReleaseMutex@4      1002112c     kernel32:KERNEL32.dll
 0002:00000130       __imp__ResetEvent@4        10021130     kernel32:KERNEL32.dll
 0002:00000134       __imp__EnterCriticalSection@4 10021134     kernel32:KERNEL32.dll
 0002:00000138       __imp__LeaveCriticalSection@4 10021138     kernel32:KERNEL32.dll
 0002:0000013c       __imp__SetLastError@4      1002113c     kernel32:KERNEL32.dll
 0002:00000140       __imp__EncodePointer@4     10021140     kernel32:KERNEL32.dll
 0002:00000144       __imp__DeleteCriticalSection@4 10021144     kernel32:KERNEL32.dll
 0002:00000148       __imp__InitializeCriticalSectionEx@12 10021148     kernel32:KERNEL32.dll
 0002:0000014c       __imp__GetLastError@0      1002114c     kernel32:KERNEL32.dll
 0002:00000150       __imp__RaiseException@16   10021150     kernel32:KERNEL32.dll
 0002:00000154       __imp__DecodePointer@4     10021154     kernel32:KERNEL32.dll
 0002:00000158       __imp__WideCharToMultiByte@32 10021158     kernel32:KERNEL32.dll
 0002:0000015c       __imp__GetCommandLineW@0   1002115c     kernel32:KERNEL32.dll
 0002:00000160       __imp__MultiByteToWideChar@24 10021160     kernel32:KERNEL32.dll
 0002:00000164       __imp__WriteConsoleW@20    10021164     kernel32:KERNEL32.dll
 0002:00000168       __imp__GetModuleHandleExW@12 10021168     kernel32:KERNEL32.dll
 0002:0000016c       __imp__ExitProcess@4       1002116c     kernel32:KERNEL32.dll
 0002:00000170       __imp__VirtualQuery@12     10021170     kernel32:KERNEL32.dll
 0002:00000174       __imp__VirtualProtect@16   10021174     kernel32:KERNEL32.dll
 0002:00000178       __imp__GetSystemInfo@4     10021178     kernel32:KERNEL32.dll
 0002:0000017c       __imp__TlsFree@4           1002117c     kernel32:KERNEL32.dll
 0002:00000180       __imp__TlsSetValue@8       10021180     kernel32:KERNEL32.dll
 0002:00000184       __imp__TlsGetValue@4       10021184     kernel32:KERNEL32.dll
 0002:00000188       __imp__TlsAlloc@0          10021188     kernel32:KERNEL32.dll
 0002:0000018c       __imp__InterlockedFlushSList@4 1002118c     kernel32:KERNEL32.dll
 0002:00000190       __imp__RtlUnwind@16        10021190     kernel32:KERNEL32.dll
 0002:00000194       __imp__LoadLibraryExA@12   10021194     kernel32:KERNEL32.dll
 0002:00000198       __imp__VirtualFree@12      10021198     kernel32:KERNEL32.dll
 0002:0000019c       __imp__VirtualAlloc@16     1002119c     kernel32:KERNEL32.dll
 0002:000001a0       __imp__FlushInstructionCache@12 100211a0     kernel32:KERNEL32.dll
 0002:000001a4       __imp__InterlockedPushEntrySList@8 100211a4     kernel32:KERNEL32.dll
 0002:000001a8       __imp__InterlockedPopEntrySList@4 100211a8     kernel32:KERNEL32.dll
 0002:000001ac       __imp__GetProcessHeap@0    100211ac     kernel32:KERNEL32.dll
 0002:000001b0       __imp__HeapFree@12         100211b0     kernel32:KERNEL32.dll
 0002:000001b4       __imp__HeapAlloc@12        100211b4     kernel32:KERNEL32.dll
 0002:000001b8       __imp__OutputDebugStringW@4 100211b8     kernel32:KERNEL32.dll
 0002:000001bc       __imp__InitializeSListHead@4 100211bc     kernel32:KERNEL32.dll
 0002:000001c0       __imp__GetSystemTimeAsFileTime@4 100211c0     kernel32:KERNEL32.dll
 0002:000001c4       __imp__QueryPerformanceCounter@4 100211c4     kernel32:KERNEL32.dll
 0002:000001c8       __imp__GetStartupInfoW@4   100211c8     kernel32:KERNEL32.dll
 0002:000001cc       __imp__IsDebuggerPresent@0 100211cc     kernel32:KERNEL32.dll
 0002:000001d0       __imp__IsProcessorFeaturePresent@4 100211d0     kernel32:KERNEL32.dll
 0002:000001d4       __imp__TerminateProcess@8  100211d4     kernel32:KERNEL32.dll
 0002:000001d8       __imp__GetCurrentProcess@0 100211d8     kernel32:KERNEL32.dll
 0002:000001dc       __imp__SetUnhandledExceptionFilter@4 100211dc     kernel32:KERNEL32.dll
 0002:000001e0       __imp__UnhandledExceptionFilter@4 100211e0     kernel32:KERNEL32.dll
 0002:000001e4       __imp__InitializeCriticalSectionAndSpinCount@8 100211e4     kernel32:KERNEL32.dll
 0002:000001e8       __imp__WaitForSingleObjectEx@12 100211e8     kernel32:KERNEL32.dll
 0002:000001ec       \177KERNEL32_NULL_THUNK_DATA 100211ec     kernel32:KERNEL32.dll
 0002:000001f0       __imp__OleCreatePropertyFrame@44 100211f0     oleaut32:OLEAUT32.dll
 0002:000001f4       __imp__UnRegisterTypeLib@20 100211f4     oleaut32:OLEAUT32.dll
 0002:000001f8       __imp__RegisterTypeLib@12  100211f8     oleaut32:OLEAUT32.dll
 0002:000001fc       __imp__LoadRegTypeLib@20   100211fc     oleaut32:OLEAUT32.dll
 0002:00000200       __imp__LoadTypeLib@8       10021200     oleaut32:OLEAUT32.dll
 0002:00000204       __imp__VarUI4FromStr@16    10021204     oleaut32:OLEAUT32.dll
 0002:00000208       __imp__VariantInit@4       10021208     oleaut32:OLEAUT32.dll
 0002:0000020c       __imp__SysAllocStringByteLen@8 1002120c     oleaut32:OLEAUT32.dll
 0002:00000210       __imp__SysStringByteLen@4  10021210     oleaut32:OLEAUT32.dll
 0002:00000214       __imp__VariantChangeType@16 10021214     oleaut32:OLEAUT32.dll
 0002:00000218       __imp__VariantClear@4      10021218     oleaut32:OLEAUT32.dll
 0002:0000021c       __imp__SysStringLen@4      1002121c     oleaut32:OLEAUT32.dll
 0002:00000220       __imp__SysFreeString@4     10021220     oleaut32:OLEAUT32.dll
 0002:00000224       __imp__SysAllocStringLen@8 10021224     oleaut32:OLEAUT32.dll
 0002:00000228       __imp__SysAllocString@4    10021228     oleaut32:OLEAUT32.dll
 0002:0000022c       \177OLEAUT32_NULL_THUNK_DATA 1002122c     oleaut32:OLEAUT32.dll
 0002:00000230       __imp__UnregisterClassW@8  10021230     user32:USER32.dll
 0002:00000234       __imp__PostMessageW@16     10021234     user32:USER32.dll
 0002:00000238       __imp__DefWindowProcW@16   10021238     user32:USER32.dll
 0002:0000023c       __imp__CallWindowProcW@20  1002123c     user32:USER32.dll
 0002:00000240       __imp__RegisterClassExW@4  10021240     user32:USER32.dll
 0002:00000244       __imp__GetClassInfoExW@12  10021244     user32:USER32.dll
 0002:00000248       __imp__CreateWindowExW@48  10021248     user32:USER32.dll
 0002:0000024c       __imp__IsWindow@4          1002124c     user32:USER32.dll
 0002:00000250       __imp__IsChild@8           10021250     user32:USER32.dll
 0002:00000254       __imp__DestroyWindow@4     10021254     user32:USER32.dll
 0002:00000258       __imp__ShowWindow@8        10021258     user32:USER32.dll
 0002:0000025c       __imp__SetWindowPos@28     1002125c     user32:USER32.dll
 0002:00000260       __imp__CharNextW@4         10021260     user32:USER32.dll
 0002:00000264       __imp__SetFocus@4          10021264     user32:USER32.dll
 0002:00000268       __imp__LoadBitmapW@8       10021268     user32:USER32.dll
 0002:0000026c       __imp__RegisterClassW@4    1002126c     user32:USER32.dll
 0002:00000270       __imp__PeekMessageW@20     10021270     user32:USER32.dll
 0002:00000274       __imp__LoadCursorW@8       10021274     user32:USER32.dll
 0002:00000278       __imp__GetParent@4         10021278     user32:USER32.dll
 0002:0000027c       __imp__SetWindowLongW@12   1002127c     user32:USER32.dll
 0002:00000280       __imp__GetWindowLongW@8    10021280     user32:USER32.dll
 0002:00000284       __imp__PtInRect@12         10021284     user32:USER32.dll
 0002:00000288       __imp__EqualRect@8         10021288     user32:USER32.dll
 0002:0000028c       __imp__OffsetRect@12       1002128c     user32:USER32.dll
 0002:00000290       __imp__UnionRect@12        10021290     user32:USER32.dll
 0002:00000294       __imp__IntersectRect@12    10021294     user32:USER32.dll
 0002:00000298       __imp__GetClientRect@8     10021298     user32:USER32.dll
 0002:0000029c       __imp__InvalidateRect@12   1002129c     user32:USER32.dll
 0002:000002a0       __imp__SetWindowRgn@12     100212a0     user32:USER32.dll
 0002:000002a4       __imp__EndPaint@8          100212a4     user32:USER32.dll
 0002:000002a8       __imp__BeginPaint@8        100212a8     user32:USER32.dll
 0002:000002ac       __imp__ReleaseDC@8         100212ac     user32:USER32.dll
 0002:000002b0       __imp__GetDC@4             100212b0     user32:USER32.dll
 0002:000002b4       __imp__GetKeyState@4       100212b4     user32:USER32.dll
 0002:000002b8       __imp__GetFocus@0          100212b8     user32:USER32.dll
 0002:000002bc       \177USER32_NULL_THUNK_DATA 100212bc     user32:USER32.dll
 0002:000002c0       __imp__StringFromGUID2@12  100212c0     ole32:ole32.dll
 0002:000002c4       __imp__CoTaskMemAlloc@4    100212c4     ole32:ole32.dll
 0002:000002c8       __imp__CoTaskMemRealloc@8  100212c8     ole32:ole32.dll
 0002:000002cc       __imp__CoTaskMemFree@4     100212cc     ole32:ole32.dll
 0002:000002d0       __imp__ReadClassStm@8      100212d0     ole32:ole32.dll
 0002:000002d4       __imp__WriteClassStm@8     100212d4     ole32:ole32.dll
 0002:000002d8       __imp__CreateDataAdviseHolder@4 100212d8     ole32:ole32.dll
 0002:000002dc       __imp__OleSaveToStream@8   100212dc     ole32:ole32.dll
 0002:000002e0       __imp__CreateOleAdviseHolder@4 100212e0     ole32:ole32.dll
 0002:000002e4       __imp__OleRegGetUserType@12 100212e4     ole32:ole32.dll
 0002:000002e8       __imp__OleRegGetMiscStatus@12 100212e8     ole32:ole32.dll
 0002:000002ec       __imp__OleRegEnumVerbs@8   100212ec     ole32:ole32.dll
 0002:000002f0       __imp__CLSIDFromProgID@8   100212f0     ole32:ole32.dll
 0002:000002f4       __imp__CoCreateInstance@20 100212f4     ole32:ole32.dll
 0002:000002f8       \177ole32_NULL_THUNK_DATA  100212f8     ole32:ole32.dll
 0002:000002fc       ___guard_check_icall_fptr  100212fc     LIBCMT:guard_support.obj
 0002:00000300       ___castguard_check_failure_os_handled_fptr 10021300     LIBCMT:guard_support.obj
 0002:00000304       ___xc_a                    10021304     LIBCMT:initializers.obj
 0002:0000031c       ___xc_z                    1002131c     LIBCMT:initializers.obj
 0002:00000320       ___xi_a                    10021320     LIBCMT:initializers.obj
 0002:00000328       ___acrt_stdio_initializer  10021328     libucrt:stdio_initializer.obj
 0002:0000032c       ___acrt_multibyte_initializer 1002132c     libucrt:multibyte_initializer.obj
 0002:00000330       ___acrt_tran_sse2_initializer 10021330     libucrt:sse2_initializer.obj
 0002:00000334       ___xi_z                    10021334     LIBCMT:initializers.obj
 0002:00000338       ___xl_a                    10021338     LIBCMT:tlssup.obj
 0002:0000033c       ___xl_z                    1002133c     LIBCMT:tlssup.obj
 0002:00000340       ___xp_a                    10021340     LIBCMT:initializers.obj
 0002:00000344       ___acrt_locale_terminator  10021344     libucrt:locale_initializer.obj
 0002:00000348       ___dcrt_console_output_terminator 10021348     libucrt:console_output_initializer.obj
 0002:0000034c       ___acrt_stdio_terminator   1002134c     libucrt:stdio_initializer.obj
 0002:00000350       ___xp_z                    10021350     LIBCMT:initializers.obj
 0002:00000354       ___xt_a                    10021354     LIBCMT:initializers.obj
 0002:00000358       ___xt_z                    10021358     LIBCMT:initializers.obj
 0002:00000360       ??_C@_13HADIAKP@?$AAS@     10021360     OposVariant.obj
 0002:00000364       ??_C@_13LHMFKAAD@?$AAM@    10021364     OposVariant.obj
 0002:00000368       ??_C@_13MKMNOPIJ@?$AAD@    10021368     OposVariant.obj
 0002:0000036c       ??_C@_13OPKGLAFF@?$AAB@    1002136c     OposVariant.obj
 0002:00000370       ??_C@_17LLMMEOJD@?$AAV?$AAa?$AAl@ 10021370     OposVariant.obj
 0002:00000378       ??_C@_1BI@JFAIJMHL@?$AAF?$AAo?$AAr?$AAc?$AAe?$AAR?$AAe?$AAm?$AAo?$AAv?$AAe@ 10021378     OposVariant.obj
 0002:00000390       ??_C@_1BC@GCKHIPE@?$AAN?$AAo?$AAR?$AAe?$AAm?$AAo?$AAv?$AAe@ 10021390     OposVariant.obj
 0002:000003a4       ??_C@_1O@JDLOHAN@?$AAD?$AAe?$AAl?$AAe?$AAt?$AAe@ 100213a4     OposVariant.obj
 0002:000003b4       ??_C@_11LOCGONAA@@         100213b4     OposVariant.obj
 0002:000003b8       ?_entries@?1??_GetEntries@?$CComEnum@UIEnumConnectionPoints@@$1?_GUID_b196b285_bab4_101a_b69c_00aa00341d07@@3U__s_GUID@@BPAUIConnectionPoint@@V?$_CopyInterface@UIConnectionPoint@@@ATL@@VCComSingleThreadModel@6@@ATL@@SGPBU_ATL_INTMAP_ENTRY@3@XZ@4QBU43@B 100213b8     VideoCapture.obj
 0002:000003d0       __GUID_00020412_0000_0000_c000_000000000046 100213d0     VideoCapture.obj
 0002:000003e0       __GUID_00020401_0000_0000_c000_000000000046 100213e0     VideoCapture.obj
 0002:000003f0       __GUID_55980ba0_35aa_11cf_b671_00aa004cd6d8 100213f0     VideoCapture.obj
 0002:00000400       __GUID_b196b28b_bab4_101a_b69c_00aa00341d07 10021400     VideoCapture.obj
 0002:00000410       ??_7?$CComObject@V?$CComEnum@UIEnumConnections@@$1?_GUID_b196b287_bab4_101a_b69c_00aa00341d07@@3U__s_GUID@@BUtagCONNECTDATA@@V?$_Copy@UtagCONNECTDATA@@@ATL@@VCComSingleThreadModel@6@@ATL@@@ATL@@6B@ 10021410     VideoCapture.obj
 0002:00000430       ??_7CComClassFactory@ATL@@6B@ 10021430     VideoCapture.obj
 0002:00000448       ?_entries@?1??_GetEntries@CComClassFactory@ATL@@SGPBU_ATL_INTMAP_ENTRY@3@XZ@4QBU43@B 10021448     VideoCapture.obj
 0002:00000460       __GUID_00000001_0000_0000_c000_000000000046 10021460     VideoCapture.obj
 0002:00000470       ?_entries@?1??_GetEntries@?$CComEnum@UIEnumConnections@@$1?_GUID_b196b287_bab4_101a_b69c_00aa00341d07@@3U__s_GUID@@BUtagCONNECTDATA@@V?$_Copy@UtagCONNECTDATA@@@ATL@@VCComSingleThreadModel@6@@ATL@@SGPBU_ATL_INTMAP_ENTRY@3@XZ@4QBU43@B 10021470     VideoCapture.obj
 0002:00000488       _IID_IOPOSVideoCapture_1_16 10021488     VideoCapture.obj
 0002:00000498       ??_C@_1BK@BIGILECK@?$AAA?$AAd?$AAv?$AAa?$AAp?$AAi?$AA3?$AA2?$AA?4?$AAd?$AAl?$AAl@ 10021498     VideoCapture.obj
 0002:000004b4       ??_C@_0BI@MNCFCPFK@RegCreateKeyTransactedW@ 100214b4     VideoCapture.obj
 0002:000004cc       __GUID_b196b287_bab4_101a_b69c_00aa00341d07 100214cc     VideoCapture.obj
 0002:000004dc       __GUID_b196b285_bab4_101a_b69c_00aa00341d07 100214dc     VideoCapture.obj
 0002:000004ec       _IID_IOPOSVideoCapture     100214ec     VideoCapture.obj
 0002:000004fc       _LIBID_OposVideoCapture_CCO 100214fc     VideoCapture.obj
 0002:0000050c       _DIID__IOPOSVideoCaptureEvents 1002150c     VideoCapture.obj
 0002:0000051c       _CLSID_OPOSVideoCapture    1002151c     VideoCapture.obj
 0002:0000052c       __GUID_00000114_0000_0000_c000_000000000046 1002152c     VideoCapture.obj
 0002:0000053c       __GUID_a6bc3ac0_dbaa_11ce_9de3_00aa004bb851 1002153c     VideoCapture.obj
 0002:0000054c       __GUID_0000010c_0000_0000_c000_000000000046 1002154c     VideoCapture.obj
 0002:0000055c       __GUID_00000146_0000_0000_c000_000000000046 1002155c     VideoCapture.obj
 0002:0000056c       ??_7CComModule@ATL@@6B@    1002156c     VideoCapture.obj
 0002:00000594       __GUID_00000000_0000_0000_c000_000000000046 10021594     VideoCapture.obj
 0002:000005a4       __GUID_00020400_0000_0000_c000_000000000046 100215a4     VideoCapture.obj
 0002:000005b8       ?_entries@?1??_GetEntries@COPOSVideoCapture@@SGPBU_ATL_INTMAP_ENTRY@ATL@@XZ@4QBU34@B 100215b8     VideoCapture.obj
 0002:000006d8       __GUID_922eada0_3424_11cf_b670_00aa004cd6d8 100216d8     VideoCapture.obj
 0002:000006e8       __GUID_9c2cad80_3424_11cf_b670_00aa004cd6d8 100216e8     VideoCapture.obj
 0002:000006f8       __GUID_00000119_0000_0000_c000_000000000046 100216f8     VideoCapture.obj
 0002:00000708       __GUID_b196b289_bab4_101a_b69c_00aa00341d07 10021708     VideoCapture.obj
 0002:00000718       __GUID_cf51ed10_62fe_11cf_bf86_00a0c9034836 10021718     VideoCapture.obj
 0002:00000728       __GUID_0000010a_0000_0000_c000_000000000046 10021728     VideoCapture.obj
 0002:00000738       __GUID_b196b283_bab4_101a_b69c_00aa00341d07 10021738     VideoCapture.obj
 0002:00000748       __GUID_cb5bdc81_93c1_11cf_8f20_00805f2cd064 10021748     VideoCapture.obj
 0002:00000758       ?pPropMap@?1??GetPropertyMap@COPOSVideoCapture@@SAPBUATL_PROPMAP_ENTRY@ATL@@XZ@4QBU34@B 10021758     VideoCapture.obj
 0002:000007c4       ??_C@_17DGDADEHL@?$AA_?$AAc?$AAx@ 100217c4     VideoCapture.obj
 0002:000007cc       ??_C@_17IOIMFDBO@?$AA_?$AAc?$AAy@ 100217cc     VideoCapture.obj
 0002:000007d4       __GUID_00000117_0000_0000_c000_000000000046 100217d4     VideoCapture.obj
 0002:000007e4       ??_7?$CComObjectCached@VCComClassFactory@ATL@@@ATL@@6B@ 100217e4     VideoCapture.obj
 0002:000007fc       ??_C@_1CE@PGFMOFKI@?$AAS?$AAt?$AAa?$AAt?$AAu?$AAs?$AAU?$AAp?$AAd?$AAa?$AAt?$AAe?$AAE?$AAv?$AAe@ 100217fc     VideoCapture.obj
 0002:00000820       ??_C@_1BG@LODEBHDD@?$AAE?$AAr?$AAr?$AAo?$AAr?$AAE?$AAv?$AAe?$AAn?$AAt@ 10021820     VideoCapture.obj
 0002:00000838       ??_C@_1BM@CBGEBBBJ@?$AAD?$AAi?$AAr?$AAe?$AAc?$AAt?$AAI?$AAO?$AAE?$AAv?$AAe?$AAn?$AAt@ 10021838     VideoCapture.obj
 0002:00000854       __GUID_b196b286_bab4_101a_b69c_00aa00341d07 10021854     VideoCapture.obj
 0002:00000864       ??_C@_1M@KANJNLFF@?$AAC?$AAL?$AAS?$AAI?$AAD@ 10021864     VideoCapture.obj
 0002:00000870       ??_C@_1M@EJNEECMJ@?$AAA?$AAp?$AAp?$AAI?$AAD@ 10021870     VideoCapture.obj
 0002:0000087c       ??_C@_1BC@ENICKDH@?$AAC?$AAo?$AAn?$AAt?$AAe?$AAn?$AAt?$AAs@ 1002187c     VideoCapture.obj
 0002:00000890       ??_7?$CComObject@V?$CComEnum@UIEnumConnectionPoints@@$1?_GUID_b196b285_bab4_101a_b69c_00aa00341d07@@3U__s_GUID@@BPAUIConnectionPoint@@V?$_CopyInterface@UIConnectionPoint@@@ATL@@VCComSingleThreadModel@6@@ATL@@@ATL@@6B@ 10021890     VideoCapture.obj
 0002:000008b0       ?rgszNeverDelete@CRegParser@ATL@@1QBQB_WB 100218b0     VideoCapture.obj
 0002:000008e0       ??_7CRegObject@ATL@@6B@    100218e0     VideoCapture.obj
 0002:000008f8       __GUID_0000010e_0000_0000_c000_000000000046 100218f8     VideoCapture.obj
 0002:00000908       __GUID_b196b288_bab4_101a_b69c_00aa00341d07 10021908     VideoCapture.obj
 0002:00000918       ??_C@_1CK@OEKPKBNA@?$AAC?$AAo?$AAm?$AAp?$AAo?$AAn?$AAe?$AAn?$AAt?$AA?5?$AAC?$AAa?$AAt?$AAe?$AAg@ 10021918     VideoCapture.obj
 0002:00000944       ??_C@_1BC@NKMMNMGL@?$AAF?$AAi?$AAl?$AAe?$AAT?$AAy?$AAp?$AAe@ 10021944     VideoCapture.obj
 0002:00000958       ??_C@_1BE@EKPAFMCP@?$AAI?$AAn?$AAt?$AAe?$AAr?$AAf?$AAa?$AAc?$AAe@ 10021958     VideoCapture.obj
 0002:0000096c       ??_C@_1BC@MAICEHGI@?$AAH?$AAa?$AAr?$AAd?$AAw?$AAa?$AAr?$AAe@ 1002196c     VideoCapture.obj
 0002:00000980       ??_C@_19HLLLM@?$AAM?$AAi?$AAm?$AAe@ 10021980     VideoCapture.obj
 0002:0000098c       ??_C@_17OMAOINJK@?$AAS?$AAA?$AAM@ 1002198c     VideoCapture.obj
 0002:00000994       ??_C@_1BC@IBECJAAI@?$AAS?$AAE?$AAC?$AAU?$AAR?$AAI?$AAT?$AAY@ 10021994     VideoCapture.obj
 0002:000009a8       ??_C@_1O@GBFINDKL@?$AAS?$AAY?$AAS?$AAT?$AAE?$AAM@ 100219a8     VideoCapture.obj
 0002:000009b8       ??_C@_1BC@EAHCMADO@?$AAS?$AAo?$AAf?$AAt?$AAw?$AAa?$AAr?$AAe@ 100219b8     VideoCapture.obj
 0002:000009cc       ??_C@_1BA@JIHHIEDE@?$AAT?$AAy?$AAp?$AAe?$AAL?$AAi?$AAb@ 100219cc     VideoCapture.obj
 0002:000009e0       ?map@?1??HKeyFromString@CRegParser@ATL@@KAPAUHKEY__@@PA_W@Z@4QBUkeymap@?1??123@KAPAU4@0@Z@B 100219e0     VideoCapture.obj
 0002:00000a50       ??_C@_19NCHLBIN@?$AAH?$AAK?$AAC?$AAR@ 10021a50     VideoCapture.obj
 0002:00000a5c       ??_C@_19JAPAIJDE@?$AAH?$AAK?$AAC?$AAU@ 10021a5c     VideoCapture.obj
 0002:00000a68       ??_C@_19PEALEEJB@?$AAH?$AAK?$AAL?$AAM@ 10021a68     VideoCapture.obj
 0002:00000a74       ??_C@_17PJOJPMPB@?$AAH?$AAK?$AAU@ 10021a74     VideoCapture.obj
 0002:00000a7c       ??_C@_19PNBHMJPL@?$AAH?$AAK?$AAP?$AAD@ 10021a7c     VideoCapture.obj
 0002:00000a88       ??_C@_19GFFAIJHG@?$AAH?$AAK?$AAD?$AAD@ 10021a88     VideoCapture.obj
 0002:00000a94       ??_C@_19OFICIBHH@?$AAH?$AAK?$AAC?$AAC@ 10021a94     VideoCapture.obj
 0002:00000aa0       ??_C@_1CE@PACHPJFI@?$AAH?$AAK?$AAE?$AAY?$AA_?$AAC?$AAL?$AAA?$AAS?$AAS?$AAE?$AAS?$AA_?$AAR?$AAO@ 10021aa0     VideoCapture.obj
 0002:00000ac4       ??_C@_1CE@HLHNCBPM@?$AAH?$AAK?$AAE?$AAY?$AA_?$AAC?$AAU?$AAR?$AAR?$AAE?$AAN?$AAT?$AA_?$AAU?$AAS@ 10021ac4     VideoCapture.obj
 0002:00000ae8       ??_C@_1CG@GFBEANJL@?$AAH?$AAK?$AAE?$AAY?$AA_?$AAL?$AAO?$AAC?$AAA?$AAL?$AA_?$AAM?$AAA?$AAC?$AAH@ 10021ae8     VideoCapture.obj
 0002:00000b10       ??_C@_1BG@BGODANIO@?$AAH?$AAK?$AAE?$AAY?$AA_?$AAU?$AAS?$AAE?$AAR?$AAS@ 10021b10     VideoCapture.obj
 0002:00000b28       ??_C@_1CM@KHNNAOIC@?$AAH?$AAK?$AAE?$AAY?$AA_?$AAP?$AAE?$AAR?$AAF?$AAO?$AAR?$AAM?$AAA?$AAN?$AAC@ 10021b28     VideoCapture.obj
 0002:00000b54       ??_C@_1BM@HAGMMHIA@?$AAH?$AAK?$AAE?$AAY?$AA_?$AAD?$AAY?$AAN?$AA_?$AAD?$AAA?$AAT?$AAA@ 10021b54     VideoCapture.obj
 0002:00000b70       ??_C@_1CI@BBJOACGG@?$AAH?$AAK?$AAE?$AAY?$AA_?$AAC?$AAU?$AAR?$AAR?$AAE?$AAN?$AAT?$AA_?$AAC?$AAO@ 10021b70     VideoCapture.obj
 0002:00000b98       __GUID_00000113_0000_0000_c000_000000000046 10021b98     VideoCapture.obj
 0002:00000ba8       __GUID_00000109_0000_0000_c000_000000000046 10021ba8     VideoCapture.obj
 0002:00000bb8       __GUID_7fd52380_4e07_101b_ae2d_08002b2ec713 10021bb8     VideoCapture.obj
 0002:00000bc8       __GUID_1c2056cc_5ef4_101b_8bc8_00aa003e3b29 10021bc8     VideoCapture.obj
 0002:00000bd8       ??_C@_1EA@NHKLICFA@?$AAH?$AAK?$AAC?$AAU?$AA?$AN?$AA?6?$AA?$HL?$AA?7?$AAS?$AAo?$AAf?$AAt?$AAw?$AAa?$AAr@ 10021bd8     VideoCapture.obj
 0002:00000c18       ??_C@_1BE@LJOLIMEM@?$AA?$AN?$AA?6?$AA?7?$AA?$HN?$AA?$AN?$AA?6?$AA?$HN?$AA?$AN?$AA?6@ 10021c18     VideoCapture.obj
 0002:00000c2c       __GUID_00000112_0000_0000_c000_000000000046 10021c2c     VideoCapture.obj
 0002:00000c3c       ??_C@_1O@MNLDABAF@?$AAM?$AAo?$AAd?$AAu?$AAl?$AAe@ 10021c3c     VideoCapture.obj
 0002:00000c4c       ??_C@_1BG@JBACFMF@?$AAM?$AAo?$AAd?$AAu?$AAl?$AAe?$AA_?$AAR?$AAa?$AAw@ 10021c4c     VideoCapture.obj
 0002:00000c64       ??_C@_1BC@KAILKFFG@?$AAR?$AAE?$AAG?$AAI?$AAS?$AAT?$AAR?$AAY@ 10021c64     VideoCapture.obj
 0002:00000c78       __GUID_3af24292_0c96_11ce_a0cf_00aa00600ab8 10021c78     VideoCapture.obj
 0002:00000c88       __GUID_00000127_0000_0000_c000_000000000046 10021c88     VideoCapture.obj
 0002:00000c98       __GUID_0000010d_0000_0000_c000_000000000046 10021c98     VideoCapture.obj
 0002:00000ca8       ??_C@_1M@PPPPCDEP@?$AAA?$AAP?$AAP?$AAI?$AAD@ 10021ca8     VideoCapture.obj
 0002:00000cb4       ??_7?$CComContainedObject@VCOPOSVideoCapture@@@ATL@@6B?$IDispatchImpl@UIOPOSVideoCapture@@$1?IID_IOPOSVideoCapture@@3U_GUID@@B$1?LIBID_OposVideoCapture_CCO@@3U3@B$00$0A@VCComTypeInfoHolder@ATL@@@1@@ 10021cb4     VideoCapture.obj
 0002:00000ec0       ??_7?$CComContainedObject@VCOPOSVideoCapture@@@ATL@@6BCComControlBase@1@@ 10021ec0     VideoCapture.obj
 0002:00000ed4       ??_7?$CComContainedObject@VCOPOSVideoCapture@@@ATL@@6B?$CWindowImpl@VCOPOSVideoCapture@@VCWindow@ATL@@V?$CWinTraits@$0FGAAAAAA@$0A@@3@@1@@ 10021ed4     VideoCapture.obj
 0002:00000ee4       ??_7?$CComContainedObject@VCOPOSVideoCapture@@@ATL@@6B?$IPersistStreamInitImpl@VCOPOSVideoCapture@@@1@@ 10021ee4     VideoCapture.obj
 0002:00000f08       ??_7?$CComContainedObject@VCOPOSVideoCapture@@@ATL@@6B?$IOleControlImpl@VCOPOSVideoCapture@@@1@@ 10021f08     VideoCapture.obj
 0002:00000f24       ??_7?$CComContainedObject@VCOPOSVideoCapture@@@ATL@@6B?$IOleObjectImpl@VCOPOSVideoCapture@@@1@@ 10021f24     VideoCapture.obj
 0002:00000f84       ??_7?$CComContainedObject@VCOPOSVideoCapture@@@ATL@@6B?$IOleInPlaceActiveObjectImpl@VCOPOSVideoCapture@@@1@@ 10021f84     VideoCapture.obj
 0002:00000fac       ??_7?$CComContainedObject@VCOPOSVideoCapture@@@ATL@@6B?$IViewObjectExImpl@VCOPOSVideoCapture@@@1@@ 10021fac     VideoCapture.obj
 0002:00000fe8       ??_7?$CComContainedObject@VCOPOSVideoCapture@@@ATL@@6B?$IOleInPlaceObjectWindowlessImpl@VCOPOSVideoCapture@@@1@@ 10021fe8     VideoCapture.obj
 0002:00001014       ??_7?$CComContainedObject@VCOPOSVideoCapture@@@ATL@@6B?$IConnectionPointContainerImpl@VCOPOSVideoCapture@@@1@@ 10022014     VideoCapture.obj
 0002:00001028       ??_7?$CComContainedObject@VCOPOSVideoCapture@@@ATL@@6B?$IPersistStorageImpl@VCOPOSVideoCapture@@@1@@ 10022028     VideoCapture.obj
 0002:00001050       ??_7?$CComContainedObject@VCOPOSVideoCapture@@@ATL@@6B?$ISpecifyPropertyPagesImpl@VCOPOSVideoCapture@@@1@@ 10022050     VideoCapture.obj
 0002:00001060       ??_7?$CComContainedObject@VCOPOSVideoCapture@@@ATL@@6B?$IQuickActivateImpl@VCOPOSVideoCapture@@@1@@ 10022060     VideoCapture.obj
 0002:00001078       ??_7?$CComContainedObject@VCOPOSVideoCapture@@@ATL@@6B?$IDataObjectImpl@VCOPOSVideoCapture@@@1@@ 10022078     VideoCapture.obj
 0002:000010a8       ??_7?$CComContainedObject@VCOPOSVideoCapture@@@ATL@@6B?$IProvideClassInfo2Impl@$1?CLSID_OPOSVideoCapture@@3U_GUID@@B$1?DIID__IOPOSVideoCaptureEvents@@3U2@B$1?LIBID_OposVideoCapture_CCO@@3U2@B$00$0A@VCComTypeInfoHolder@ATL@@@1@@ 100220a8     VideoCapture.obj
 0002:000010bc       ??_7?$CComContainedObject@VCOPOSVideoCapture@@@ATL@@6B?$IObjectSafetyImpl@VCOPOSVideoCapture@@$02@1@@ 100220bc     VideoCapture.obj
 0002:000010d4       ??_7?$CComContainedObject@VCOPOSVideoCapture@@@ATL@@6B?$IPropertyNotifySinkCP@VCOPOSVideoCapture@@VCComDynamicUnkArray@ATL@@@1@@ 100220d4     VideoCapture.obj
 0002:000010f4       ??_7?$CComContainedObject@VCOPOSVideoCapture@@@ATL@@6B?$CProxy_IOPOSEvents@VCOPOSVideoCapture@@@@@ 100220f4     VideoCapture.obj
 0002:00001114       ??_7?$CComAggObject@VCOPOSVideoCapture@@@ATL@@6B@ 10022114     VideoCapture.obj
 0002:00001124       ??_7?$CComObject@VCOPOSVideoCapture@@@ATL@@6B?$IDispatchImpl@UIOPOSVideoCapture@@$1?IID_IOPOSVideoCapture@@3U_GUID@@B$1?LIBID_OposVideoCapture_CCO@@3U3@B$00$0A@VCComTypeInfoHolder@ATL@@@1@@ 10022124     VideoCapture.obj
 0002:00001330       ??_7?$CComObject@VCOPOSVideoCapture@@@ATL@@6BCComControlBase@1@@ 10022330     VideoCapture.obj
 0002:00001344       ??_7?$CComObject@VCOPOSVideoCapture@@@ATL@@6B?$CWindowImpl@VCOPOSVideoCapture@@VCWindow@ATL@@V?$CWinTraits@$0FGAAAAAA@$0A@@3@@1@@ 10022344     VideoCapture.obj
 0002:00001354       ??_7?$CComObject@VCOPOSVideoCapture@@@ATL@@6B?$IPersistStreamInitImpl@VCOPOSVideoCapture@@@1@@ 10022354     VideoCapture.obj
 0002:00001378       ??_7?$CComObject@VCOPOSVideoCapture@@@ATL@@6B?$IOleControlImpl@VCOPOSVideoCapture@@@1@@ 10022378     VideoCapture.obj
 0002:00001394       ??_7?$CComObject@VCOPOSVideoCapture@@@ATL@@6B?$IOleObjectImpl@VCOPOSVideoCapture@@@1@@ 10022394     VideoCapture.obj
 0002:000013f4       ??_7?$CComObject@VCOPOSVideoCapture@@@ATL@@6B?$IOleInPlaceActiveObjectImpl@VCOPOSVideoCapture@@@1@@ 100223f4     VideoCapture.obj
 0002:0000141c       ??_7?$CComObject@VCOPOSVideoCapture@@@ATL@@6B?$IViewObjectExImpl@VCOPOSVideoCapture@@@1@@ 1002241c     VideoCapture.obj
 0002:00001458       ??_7?$CComObject@VCOPOSVideoCapture@@@ATL@@6B?$IOleInPlaceObjectWindowlessImpl@VCOPOSVideoCapture@@@1@@ 10022458     VideoCapture.obj
 0002:00001484       ??_7?$CComObject@VCOPOSVideoCapture@@@ATL@@6B?$IConnectionPointContainerImpl@VCOPOSVideoCapture@@@1@@ 10022484     VideoCapture.obj
 0002:00001498       ??_7?$CComObject@VCOPOSVideoCapture@@@ATL@@6B?$IPersistStorageImpl@VCOPOSVideoCapture@@@1@@ 10022498     VideoCapture.obj
 0002:000014c0       ??_7?$CComObject@VCOPOSVideoCapture@@@ATL@@6B?$ISpecifyPropertyPagesImpl@VCOPOSVideoCapture@@@1@@ 100224c0     VideoCapture.obj
 0002:000014d0       ??_7?$CComObject@VCOPOSVideoCapture@@@ATL@@6B?$IQuickActivateImpl@VCOPOSVideoCapture@@@1@@ 100224d0     VideoCapture.obj
 0002:000014e8       ??_7?$CComObject@VCOPOSVideoCapture@@@ATL@@6B?$IDataObjectImpl@VCOPOSVideoCapture@@@1@@ 100224e8     VideoCapture.obj
 0002:00001518       ??_7?$CComObject@VCOPOSVideoCapture@@@ATL@@6B?$IProvideClassInfo2Impl@$1?CLSID_OPOSVideoCapture@@3U_GUID@@B$1?DIID__IOPOSVideoCaptureEvents@@3U2@B$1?LIBID_OposVideoCapture_CCO@@3U2@B$00$0A@VCComTypeInfoHolder@ATL@@@1@@ 10022518     VideoCapture.obj
 0002:0000152c       ??_7?$CComObject@VCOPOSVideoCapture@@@ATL@@6B?$IObjectSafetyImpl@VCOPOSVideoCapture@@$02@1@@ 1002252c     VideoCapture.obj
 0002:00001544       ??_7?$CComObject@VCOPOSVideoCapture@@@ATL@@6B?$IPropertyNotifySinkCP@VCOPOSVideoCapture@@VCComDynamicUnkArray@ATL@@@1@@ 10022544     VideoCapture.obj
 0002:00001564       ??_7?$CComObject@VCOPOSVideoCapture@@@ATL@@6B?$CProxy_IOPOSEvents@VCOPOSVideoCapture@@@@@ 10022564     VideoCapture.obj
 0002:00001584       ??_C@_1O@GBFKGNEO@?$AAA?$AAT?$AAL?$AA?3?$AA?$CF?$AAp@ 10022584     VideoCapture.obj
 0002:00001594       __GUID_b196b284_bab4_101a_b69c_00aa00341d07 10022594     VideoCapture.obj
 0002:000015a4       ??_C@_1BA@PICGEGJB@?$AAD?$AAI?$AAS?$AAP?$AAL?$AAA?$AAY@ 100225a4     VideoCapture.obj
 0002:000015b4       __GUID_9bfbbc02_eff1_101a_84ed_00aa00341d07 100225b4     VideoCapture.obj
 0002:000015c4       ??_C@_0BG@EKFFMJIO@RegOpenKeyTransactedW@ 100225c4     VideoCapture.obj
 0002:000015dc       ??_C@_0BI@HAKLOOGP@RegDeleteKeyTransactedW@ 100225dc     VideoCapture.obj
 0002:000015f4       ??_C@_0BA@LILAPHGE@RegDeleteKeyExW@ 100225f4     VideoCapture.obj
 0002:00001604       ??_C@_19ILOCMLCJ@?$AA?4?$AAt?$AAl?$AAb@ 10022604     VideoCapture.obj
 0002:00001610       __GUID_0002e012_0000_0000_c000_000000000046 10022610     VideoCapture.obj
 0002:00001620       ??_C@_1O@FHBGLCIO@?$AAC?$AAL?$AAS?$AAI?$AAD?$AA?2@ 10022620     VideoCapture.obj
 0002:00001630       ??_C@_1CK@IFBKBFAA@?$AA?2?$AAR?$AAe?$AAq?$AAu?$AAi?$AAr?$AAe?$AAd?$AA?5?$AAC?$AAa?$AAt?$AAe?$AAg@ 10022630     VideoCapture.obj
 0002:0000165c       ??_C@_1DA@BIHALFED@?$AA?2?$AAI?$AAm?$AAp?$AAl?$AAe?$AAm?$AAe?$AAn?$AAt?$AAe?$AAd?$AA?5?$AAC?$AAa@ 1002265c     VideoCapture.obj
 0002:0000168c       ??_C@_1BK@EDKOLFBJ@?$AAO?$AAL?$AAE?$AAA?$AAU?$AAT?$AA3?$AA2?$AA?4?$AAD?$AAL?$AAL@ 1002268c     VideoCapture.obj
 0002:000016a8       ??_C@_0BJ@CNLFOMHB@UnRegisterTypeLibForUser@ 100226a8     VideoCapture.obj
 0002:000016c4       ??_C@_0BH@LBOMMKPJ@RegisterTypeLibForUser@ 100226c4     VideoCapture.obj
 0002:000016dc       ??_C@_0P@MMNMMLGK@COFreezeEvents@ 100226dc     VideoCaptureImpl.obj
 0002:000016ec       ??_C@_0BC@OGCGGIMP@GetPropertyNumber@ 100226ec     VideoCaptureImpl.obj
 0002:00001700       ??_C@_0BC@MDCNODNB@SetPropertyNumber@ 10022700     VideoCaptureImpl.obj
 0002:00001714       ??_C@_0BC@CFCCMIMD@GetPropertyString@ 10022714     VideoCaptureImpl.obj
 0002:00001728       ??_C@_0BC@CJEDNN@SetPropertyString@ 10022728     VideoCaptureImpl.obj
 0002:0000173c       ??_C@_0M@LNPKKKDA@OpenService@ 1002273c     VideoCaptureImpl.obj
 0002:00001748       ??_C@_0M@PCMCHHMH@CheckHealth@ 10022748     VideoCaptureImpl.obj
 0002:00001754       ??_C@_0M@JGMIDNEK@ClaimDevice@ 10022754     VideoCaptureImpl.obj
 0002:00001760       ??_C@_0L@BNEIFEJC@ClearInput@ 10022760     VideoCaptureImpl.obj
 0002:0000176c       ??_C@_0N@DDFIIBMP@CloseService@ 1002276c     VideoCaptureImpl.obj
 0002:0000177c       ??_C@_08EEIHICPC@DirectIO@ 1002277c     VideoCaptureImpl.obj
 0002:00001788       ??_C@_0O@BCPMENMJ@ReleaseDevice@ 10022788     VideoCaptureImpl.obj
 0002:00001798       ??_C@_0BA@GFABKEEE@ResetStatistics@ 10022798     VideoCaptureImpl.obj
 0002:000017a8       ??_C@_0BD@DPALHJGC@RetrieveStatistics@ 100227a8     VideoCaptureImpl.obj
 0002:000017bc       ??_C@_0BB@KOHIKNFC@UpdateStatistics@ 100227bc     VideoCaptureImpl.obj
 0002:000017d0       ??_C@_0BH@PBKBNMGB@CompareFirmwareVersion@ 100227d0     VideoCaptureImpl.obj
 0002:000017e8       ??_C@_0P@FBPDPIPA@UpdateFirmware@ 100227e8     VideoCaptureImpl.obj
 0002:000017f8       ??_C@_0BE@BHCOAPAN@StartVideoRecording@ 100227f8     VideoCaptureImpl.obj
 0002:0000180c       ??_C@_0BD@MPFJKNFO@StopVideoRecording@ 1002280c     VideoCaptureImpl.obj
 0002:00001820       ??_C@_0P@OEMMIMJE@TakePhotograph@ 10022820     VideoCaptureImpl.obj
 0002:00001830       ??_7?$CProxy_IOPOSEvents@VCOPOSVideoCapture@@@@6B@ 10022830     VideoCaptureImpl.obj
 0002:00001850       ??_C@_1BA@IFHENID@?$AA?$FL?$AAE?$AAr?$AAr?$AAo?$AAr?$AA?$FN@ 10022850     VideoCaptureImpl.obj
 0002:00001860       ??_C@_0CP@JCNNDKJL@SOFTWARE?2OLEforRetail?2ServiceOP@ 10022860     VideoCaptureImpl.obj
 0002:00001890       ??_C@_1M@IAIJHCCH@?$AAC?$AAl?$AAo?$AAs?$AAe@ 10022890     VideoCaptureImpl.obj
 0002:0000189c       ??_C@_1M@PCPKGJAH@?$AAC?$AAl?$AAa?$AAi?$AAm@ 1002289c     VideoCaptureImpl.obj
 0002:000018a8       ??_C@_1BA@NDFKIOCP@?$AAR?$AAe?$AAl?$AAe?$AAa?$AAs?$AAe@ 100228a8     VideoCaptureImpl.obj
 0002:000018b8       ??_C@_0N@CGLLNJFA@VideoCapture@ 100228b8     VideoCaptureImpl.obj
 0002:000018c8       ??_C@_1BM@IJMNMBPK@?$AAG?$AAe?$AAt?$AAO?$AAp?$AAe?$AAn?$AAR?$AAe?$AAs?$AAu?$AAl?$AAt@ 100228c8     VideoCaptureImpl.obj
 0002:000018e4       _IID_IDispatch             100228e4     uuid:oaidl_i.obj
 0002:000018f4       _IID_IPropertyNotifySink   100228f4     uuid:ocidl_i.obj
 0002:00001904       _GUID_NULL                 10022904     uuid:cguid_i.obj
 0002:00001914       _CLSID_StdGlobalInterfaceTable 10022914     uuid:cguid_i.obj
 0002:00001924       _CLSID_StdComponentCategoriesMgr 10022924     uuid:ieguids.obj
 0002:00001934       _IID_IUnknown              10022934     uuid:unknwn_i.obj
 0002:00001948       ??_C@_1EC@JIJBPKFM@?$AAa?$AAp?$AAi?$AA?9?$AAm?$AAs?$AA?9?$AAw?$AAi?$AAn?$AA?9?$AAc?$AAo?$AAr?$AAe@ 10022948     LIBCMT:thread_safe_statics.obj
 0002:0000198c       ??_C@_1BK@MGMFAEKH@?$AAk?$AAe?$AAr?$AAn?$AAe?$AAl?$AA3?$AA2?$AA?4?$AAd?$AAl?$AAl@ 1002298c     LIBCMT:thread_safe_statics.obj
 0002:000019a8       ??_C@_0BJ@JEBJOJFJ@SleepConditionVariableCS@ 100229a8     LIBCMT:thread_safe_statics.obj
 0002:000019c4       ??_C@_0BJ@PGPPEPCC@WakeAllConditionVariable@ 100229c4     LIBCMT:thread_safe_statics.obj
 0002:000019dd       ?nothrow@std@@3Unothrow_t@1@B 100229dd     LIBCMT:std_nothrow.obj
 0002:000019e8       __pRawDllMain              100229e8     LIBCMT:dll_dllmain.obj
 0002:000019e8       __pDefaultRawDllMain       100229e8     LIBCMT:dll_dllmain.obj
 0002:000019f0       ??_7exception@std@@6B@     100229f0     LIBCMT:throw_bad_alloc.obj
 0002:000019f8       ??_C@_0BC@EOODALEL@Unknown?5exception@ 100229f8     LIBCMT:throw_bad_alloc.obj
 0002:00001a10       ??_7bad_alloc@std@@6B@     10022a10     LIBCMT:throw_bad_alloc.obj
 0002:00001a18       ??_C@_0P@GHFPNOJB@bad?5allocation@ 10022a18     LIBCMT:throw_bad_alloc.obj
 0002:00001a2c       ??_7bad_array_new_length@std@@6B@ 10022a2c     LIBCMT:throw_bad_alloc.obj
 0002:00001a34       ??_C@_0BF@KINCDENJ@bad?5array?5new?5length@ 10022a34     LIBCMT:throw_bad_alloc.obj
 0002:00001a50       ??_7type_info@@6B@         10022a50     LIBCMT:std_type_info_static.obj
 0002:00001a54       _GUID_ATLVer110            10022a54     atls:atlbase.obj
 0002:00001a68       ??_C@_1IC@ONKHOIDK@?$AAE?$AAR?$AAR?$AAO?$AAR?$AA?5?$AA?3?$AA?5?$AAU?$AAn?$AAa?$AAb?$AAl?$AAe?$AA?5@ 10022a68     atls:atlbase.obj
 0002:00001aec       ??_C@_0N@FJEPLCIH@atlthunk?4dll@ 10022aec     atls:atlthunk.obj
 0002:00001afc       ??_C@_0BG@GAKFHCBM@AtlThunk_AllocateData@ 10022afc     atls:atlthunk.obj
 0002:00001b14       ??_C@_0BC@JKONFIAH@AtlThunk_InitData@ 10022b14     atls:atlthunk.obj
 0002:00001b28       ??_C@_0BE@IAOEELAK@AtlThunk_DataToCode@ 10022b28     atls:atlthunk.obj
 0002:00001b3c       ??_C@_0BC@GBGKAIPI@AtlThunk_FreeData@ 10022b3c     atls:atlthunk.obj
 0002:00001b50       __pDestructExceptionObject 10022b50     libvcruntime:ehhelpers.obj
 0002:00001b58       ??_7bad_exception@std@@6B@ 10022b58     libvcruntime:frame.obj
 0002:00001b60       ??_C@_0O@DPKOEFFH@bad?5exception@ 10022b60     libvcruntime:frame.obj
 0002:00001ef8       ??_C@_08EHJDFFNH@__based?$CI@ 10022ef8     libvcruntime:undname.obj
 0002:00001f04       ??_C@_07KOLFKCDI@__cdecl@  10022f04     libvcruntime:undname.obj
 0002:00001f0c       ??_C@_08GHMPAG@__pascal@   10022f0c     libvcruntime:undname.obj
 0002:00001f18       ??_C@_09IFJBGAPI@__stdcall@ 10022f18     libvcruntime:undname.obj
 0002:00001f24       ??_C@_0L@NPHFGOKO@__thiscall@ 10022f24     libvcruntime:undname.obj
 0002:00001f30       ??_C@_0L@JMKHOMEK@__fastcall@ 10022f30     libvcruntime:undname.obj
 0002:00001f3c       ??_C@_0N@BCKKPABJ@__vectorcall@ 10022f3c     libvcruntime:undname.obj
 0002:00001f4c       ??_C@_09HIJEGCPM@__clrcall@ 10022f4c     libvcruntime:undname.obj
 0002:00001f58       ??_C@_06GHPCKEAG@__eabi@   10022f58     libvcruntime:undname.obj
 0002:00001f60       ??_C@_09IOPIDJLG@__swift_1@ 10022f60     libvcruntime:undname.obj
 0002:00001f6c       ??_C@_09KFNFGKHF@__swift_2@ 10022f6c     libvcruntime:undname.obj
 0002:00001f78       ??_C@_09LMMOFLDE@__swift_3@ 10022f78     libvcruntime:undname.obj
 0002:00001f84       ??_C@_07JOMMBBKO@__ptr64@  10022f84     libvcruntime:undname.obj
 0002:00001f8c       ??_C@_0L@PILCLIHE@__restrict@ 10022f8c     libvcruntime:undname.obj
 0002:00001f98       ??_C@_0M@GFIIJFMG@__unaligned@ 10022f98     libvcruntime:undname.obj
 0002:00001fa4       ??_C@_09DHDLOLLB@restrict?$CI@ 10022fa4     libvcruntime:undname.obj
 0002:00001fae       ??_C@_00CNPNBAHC@@         10022fae     libvcruntime:undname.obj
 0002:00001fb0       ??_C@_04NIHEBCM@?5new@     10022fb0     libvcruntime:undname.obj
 0002:00001fb8       ??_C@_07FPCDHGMM@?5delete@ 10022fb8     libvcruntime:undname.obj
 0002:00001fc0       ??_C@_01NEMOKFLO@?$DN@     10022fc0     libvcruntime:undname.obj
 0002:00001fc4       ??_C@_02GPIOPFAK@?$DO?$DO@ 10022fc4     libvcruntime:undname.obj
 0002:00001fc8       ??_C@_02FODMEDOG@?$DM?$DM@ 10022fc8     libvcruntime:undname.obj
 0002:00001fcc       ??_C@_01DCLJPIOD@?$CB@     10022fcc     libvcruntime:undname.obj
 0002:00001fd0       ??_C@_02EGOFBIJA@?$DN?$DN@ 10022fd0     libvcruntime:undname.obj
 0002:00001fd4       ??_C@_02FDNJECIE@?$CB?$DN@ 10022fd4     libvcruntime:undname.obj
 0002:00001fd8       ??_C@_02GPECMEKF@?$FL?$FN@ 10022fd8     libvcruntime:undname.obj
 0002:00001fdc       ??_C@_08LHJFAFGD@operator@ 10022fdc     libvcruntime:undname.obj
 0002:00001fe8       ??_C@_02HBOOOICD@?9?$DO@   10022fe8     libvcruntime:undname.obj
 0002:00001fec       ??_C@_01NBENCBCI@?$CK@     10022fec     libvcruntime:undname.obj
 0002:00001ff0       ??_C@_02ECNGHCIF@?$CL?$CL@ 10022ff0     libvcruntime:undname.obj
 0002:00001ff4       ??_C@_02BAABKJLB@?9?9@     10022ff4     libvcruntime:undname.obj
 0002:00001ff8       ??_C@_01JOAMLHOP@?9@       10022ff8     libvcruntime:undname.obj
 0002:00001ffc       ??_C@_01MIFGBAGJ@?$CL@     10022ffc     libvcruntime:undname.obj
 0002:00002000       ??_C@_01HNPIGOCE@?$CG@     10023000     libvcruntime:undname.obj
 0002:00002004       ??_C@_03MNHNFDLC@?9?$DO?$CK@ 10023004     libvcruntime:undname.obj
 0002:00002008       ??_C@_01KMDKNFGN@?1@       10023008     libvcruntime:undname.obj
 0002:0000200c       ??_C@_01FGNFDNOH@?$CF@     1002300c     libvcruntime:undname.obj
 0002:00002010       ??_C@_01MNNFJEPP@?$DM@     10023010     libvcruntime:undname.obj
 0002:00002014       ??_C@_02EHCHHCKH@?$DM?$DN@ 10023014     libvcruntime:undname.obj
 0002:00002018       ??_C@_01PPODPGHN@?$DO@     10023018     libvcruntime:undname.obj
 0002:0000201c       ??_C@_02EEKDKGMJ@?$DO?$DN@ 1002301c     libvcruntime:undname.obj
 0002:00002020       ??_C@_01IHBHIGKO@?0@       10023020     libvcruntime:undname.obj
 0002:00002024       ??_C@_02HCKGKOFO@?$CI?$CJ@ 10023024     libvcruntime:undname.obj
 0002:00002028       ??_C@_01PJKLJHI@?$HO@      10023028     libvcruntime:undname.obj
 0002:0000202c       ??_C@_01JKBOJNNK@?$FO@     1002302c     libvcruntime:undname.obj
 0002:00002030       ??_C@_01DNKMNLPK@?$HM@     10023030     libvcruntime:undname.obj
 0002:00002034       ??_C@_02PPKAJPJL@?$CG?$CG@ 10023034     libvcruntime:undname.obj
 0002:00002038       ??_C@_02NONPIBCD@?$HM?$HM@ 10023038     libvcruntime:undname.obj
 0002:0000203c       ??_C@_02FPIMKNGF@?$CK?$DN@ 1002303c     libvcruntime:undname.obj
 0002:00002040       ??_C@_02FOEOMHFC@?$CL?$DN@ 10023040     libvcruntime:undname.obj
 0002:00002044       ??_C@_02FKMDLLOA@?9?$DN@   10023044     libvcruntime:undname.obj
 0002:00002048       ??_C@_02FJEHGPIO@?1?$DN@   10023048     libvcruntime:undname.obj
 0002:0000204c       ??_C@_02FENAOKFI@?$CF?$DN@ 1002304c     libvcruntime:undname.obj
 0002:00002050       ??_C@_03IKFCCPFF@?$DO?$DO?$DN@ 10023050     libvcruntime:undname.obj
 0002:00002054       ??_C@_03CDNPDDLA@?$DM?$DM?$DN@ 10023054     libvcruntime:undname.obj
 0002:00002058       ??_C@_02FGJGFEAB@?$CG?$DN@ 10023058     libvcruntime:undname.obj
 0002:0000205c       ??_C@_02DHLNPPGH@?$HM?$DN@ 1002305c     libvcruntime:undname.obj
 0002:00002060       ??_C@_02MHEGNOJ@?$FO?$DN@  10023060     libvcruntime:undname.obj
 0002:00002064       ??_C@_09IFPLHPGF@?$GAvftable?8@ 10023064     libvcruntime:undname.obj
 0002:00002070       ??_C@_09BLBHBJP@?$GAvbtable?8@ 10023070     libvcruntime:undname.obj
 0002:0000207c       ??_C@_07FEEIOKP@?$GAvcall?8@ 1002307c     libvcruntime:undname.obj
 0002:00002084       ??_C@_08LLFFHHDJ@?$GAtypeof?8@ 10023084     libvcruntime:undname.obj
 0002:00002090       ??_C@_0BF@KDPPACIK@?$GAlocal?5static?5guard?8@ 10023090     libvcruntime:undname.obj
 0002:000020a8       ??_C@_08OBABFOLI@?$GAstring?8@ 100230a8     libvcruntime:undname.obj
 0002:000020b4       ??_C@_0BD@JDLKDPAB@?$GAvbase?5destructor?8@ 100230b4     libvcruntime:undname.obj
 0002:000020c8       ??_C@_0BN@DEGPLNFK@?$GAvector?5deleting?5destructor?8@ 100230c8     libvcruntime:undname.obj
 0002:000020e8       ??_C@_0BO@OBMKPJIG@?$GAdefault?5constructor?5closure?8@ 100230e8     libvcruntime:undname.obj
 0002:00002108       ??_C@_0BN@IMDCHIKM@?$GAscalar?5deleting?5destructor?8@ 10023108     libvcruntime:undname.obj
 0002:00002128       ??_C@_0BO@PFGOCPJJ@?$GAvector?5constructor?5iterator?8@ 10023128     libvcruntime:undname.obj
 0002:00002148       ??_C@_0BN@LFPFMEDL@?$GAvector?5destructor?5iterator?8@ 10023148     libvcruntime:undname.obj
 0002:00002168       ??_C@_0CE@IKBNEHA@?$GAvector?5vbase?5constructor?5itera@ 10023168     libvcruntime:undname.obj
 0002:0000218c       ??_C@_0BL@NILFHHPC@?$GAvirtual?5displacement?5map?8@ 1002318c     libvcruntime:undname.obj
 0002:000021a8       ??_C@_0CB@JONCMFFK@?$GAeh?5vector?5constructor?5iterator@ 100231a8     libvcruntime:undname.obj
 0002:000021cc       ??_C@_0CA@GCEOPDGL@?$GAeh?5vector?5destructor?5iterator?8@ 100231cc     libvcruntime:undname.obj
 0002:000021ec       ??_C@_0CH@OOJPLCPH@?$GAeh?5vector?5vbase?5constructor?5it@ 100231ec     libvcruntime:undname.obj
 0002:00002214       ??_C@_0BL@LLKPOHJI@?$GAcopy?5constructor?5closure?8@ 10023214     libvcruntime:undname.obj
 0002:00002230       ??_C@_0BA@KBCDOMBN@?$GAudt?5returning?8@ 10023230     libvcruntime:undname.obj
 0002:00002240       ??_C@_03KLGMFNMG@?$GAEH@   10023240     libvcruntime:undname.obj
 0002:00002244       ??_C@_05KHLCHHI@?$GARTTI@  10023244     libvcruntime:undname.obj
 0002:0000224c       ??_C@_0BA@KKLDJDLB@?$GAlocal?5vftable?8@ 1002324c     libvcruntime:undname.obj
 0002:0000225c       ??_C@_0CE@IIHCMGGL@?$GAlocal?5vftable?5constructor?5clos@ 1002325c     libvcruntime:undname.obj
 0002:00002280       ??_C@_06FHBGPFGH@?5new?$FL?$FN@ 10023280     libvcruntime:undname.obj
 0002:00002288       ??_C@_09LBNFPBCA@?5delete?$FL?$FN@ 10023288     libvcruntime:undname.obj
 0002:00002294       ??_C@_0P@HJKNJFNN@?$GAomni?5callsig?8@ 10023294     libvcruntime:undname.obj
 0002:000022a4       ??_C@_0BL@CNOONJFP@?$GAplacement?5delete?5closure?8@ 100232a4     libvcruntime:undname.obj
 0002:000022c0       ??_C@_0BN@CKNJLHMB@?$GAplacement?5delete?$FL?$FN?5closure?8@ 100232c0     libvcruntime:undname.obj
 0002:000022e0       ??_C@_0CG@CFDHKGGD@?$GAmanaged?5vector?5constructor?5ite@ 100232e0     libvcruntime:undname.obj
 0002:00002308       ??_C@_0CF@IMGKMJNO@?$GAmanaged?5vector?5destructor?5iter@ 10023308     libvcruntime:undname.obj
 0002:00002330       ??_C@_0CG@HLDDJMAG@?$GAeh?5vector?5copy?5constructor?5ite@ 10023330     libvcruntime:undname.obj
 0002:00002358       ??_C@_0CM@FCBBDIGB@?$GAeh?5vector?5vbase?5copy?5construct@ 10023358     libvcruntime:undname.obj
 0002:00002384       ??_C@_0BL@CLIPGLGB@?$GAdynamic?5initializer?5for?5?8@ 10023384     libvcruntime:undname.obj
 0002:000023a0       ??_C@_0CB@PDBIFEP@?$GAdynamic?5atexit?5destructor?5for?5@ 100233a0     libvcruntime:undname.obj
 0002:000023c4       ??_C@_0CD@CGAJBKEJ@?$GAvector?5copy?5constructor?5iterat@ 100233c4     libvcruntime:undname.obj
 0002:000023e8       ??_C@_0CJ@GJELGAMM@?$GAvector?5vbase?5copy?5constructor?5@ 100233e8     libvcruntime:undname.obj
 0002:00002414       ??_C@_0CL@FGIJHLCE@?$GAmanaged?5vector?5copy?5constructo@ 10023414     libvcruntime:undname.obj
 0002:00002440       ??_C@_0BM@PMGGMLDN@?$GAlocal?5static?5thread?5guard?8@ 10023440     libvcruntime:undname.obj
 0002:0000245c       ??_C@_0N@BDNMDMOL@operator?5?$CC?$CC?5@ 1002345c     libvcruntime:undname.obj
 0002:0000246c       ??_C@_0BC@GGEBGALA@operator?5co_await@ 1002346c     libvcruntime:undname.obj
 0002:00002480       ??_C@_0M@GAAIMMOH@operator?$DM?$DN?$DO@ 10023480     libvcruntime:undname.obj
 0002:0000248c       ??_C@_0BC@DAFEJGAK@?5Type?5Descriptor?8@ 1002348c     libvcruntime:undname.obj
 0002:000024a0       ??_C@_0BM@LDKODKLH@?5Base?5Class?5Descriptor?5at?5?$CI@ 100234a0     libvcruntime:undname.obj
 0002:000024bc       ??_C@_0BD@LGICGFMM@?5Base?5Class?5Array?8@ 100234bc     libvcruntime:undname.obj
 0002:000024d0       ??_C@_0BN@MECKDCOJ@?5Class?5Hierarchy?5Descriptor?8@ 100234d0     libvcruntime:undname.obj
 0002:000024f0       ??_C@_0BK@CFCOFLF@?5Complete?5Object?5Locator?8@ 100234f0     libvcruntime:undname.obj
 0002:0000250c       ??_C@_0BG@JNJLAMPM@?$GAanonymous?5namespace?8@ 1002350c     libvcruntime:undname.obj
 0002:00002530       ??_C@_1DM@KHCHBNEB@?$AAa?$AAp?$AAi?$AA?9?$AAm?$AAs?$AA?9?$AAw?$AAi?$AAn?$AA?9?$AAc?$AAo?$AAr?$AAe@ 10023530     libvcruntime:winapi_downlevel.obj
 0002:0000256c       ??_C@_1DK@LPPGFMPP@?$AAa?$AAp?$AAi?$AA?9?$AAm?$AAs?$AA?9?$AAw?$AAi?$AAn?$AA?9?$AAc?$AAo?$AAr?$AAe@ 1002356c     libvcruntime:winapi_downlevel.obj
 0002:000025a8       ??_C@_1BC@GDMECMAK@?$AAk?$AAe?$AAr?$AAn?$AAe?$AAl?$AA3?$AA2@ 100235a8     libvcruntime:winapi_downlevel.obj
 0002:000025bc       ??_C@_1BA@PFFKHIOG@?$AAa?$AAp?$AAi?$AA?9?$AAm?$AAs?$AA?9@ 100235bc     libvcruntime:winapi_downlevel.obj
 0002:000025d4       ??_C@_08KNHFBNJ@FlsAlloc@  100235d4     libvcruntime:winapi_downlevel.obj
 0002:000025e8       ??_C@_07PEJMOBNF@FlsFree@  100235e8     libvcruntime:winapi_downlevel.obj
 0002:000025f8       ??_C@_0M@GDNOONDI@FlsGetValue@ 100235f8     libvcruntime:winapi_downlevel.obj
 0002:0000260c       ??_C@_0M@JCPCPOEF@FlsSetValue@ 1002360c     libvcruntime:winapi_downlevel.obj
 0002:00002620       ??_C@_0BM@HCFOFFN@InitializeCriticalSectionEx@ 10023620     libvcruntime:winapi_downlevel.obj
 0002:000027a8       ?format_validation_lookup_table_spectre@__crt_stdio_output@@3V?$spectre_mitigated_lookup_table@Ustate_transition_pair@__crt_stdio_output@@$0IA@@1@B 100237a8     libucrt:output.obj
 0002:000028a8       ??_C@_1O@CEDCILHN@?$AA?$CI?$AAn?$AAu?$AAl?$AAl?$AA?$CJ@ 100238a8     libucrt:output.obj
 0002:000028b8       ??_C@_06OJHGLDPL@?$CInull?$CJ@ 100238b8     libucrt:output.obj
 0002:000028c0       ___acrt_exception_action_table 100238c0     libucrt:exception_filter.obj
 0002:00002950       ___acrt_signal_action_table_count 10023950     libucrt:exception_filter.obj
 0002:00002954       ___acrt_signal_action_first_fpe_index 10023954     libucrt:exception_filter.obj
 0002:00002958       ___acrt_signal_action_fpe_count 10023958     libucrt:exception_filter.obj
 0002:0000295c       ??_C@_1BI@BGOHAHKC@?$AAm?$AAs?$AAc?$AAo?$AAr?$AAe?$AAe?$AA?4?$AAd?$AAl?$AAl@ 1002395c     libucrt:exit.obj
 0002:00002974       ??_C@_0P@MIGLKIOC@CorExitProcess@ 10023974     libucrt:exit.obj
 0002:00002a08       ___lc_time_c               10023a08     libucrt:nlsdata.obj
 0002:00002b6c       ??_C@_03KOEHGMDN@Sun@      10023b6c     libucrt:nlsdata.obj
 0002:00002b70       ??_C@_03PDAGKDH@Mon@       10023b70     libucrt:nlsdata.obj
 0002:00002b74       ??_C@_03NAGEINEP@Tue@      10023b74     libucrt:nlsdata.obj
 0002:00002b78       ??_C@_03MHOMLAJA@Wed@      10023b78     libucrt:nlsdata.obj
 0002:00002b7c       ??_C@_03IOFIKPDN@Thu@      10023b7c     libucrt:nlsdata.obj
 0002:00002b80       ??_C@_03IDIOELNC@Fri@      10023b80     libucrt:nlsdata.obj
 0002:00002b84       ??_C@_03FEFJNEK@Sat@       10023b84     libucrt:nlsdata.obj
 0002:00002b88       ??_C@_06OOPIFAJ@Sunday@    10023b88     libucrt:nlsdata.obj
 0002:00002b90       ??_C@_06JLEDEDGH@Monday@   10023b90     libucrt:nlsdata.obj
 0002:00002b98       ??_C@_07BAAGCFCM@Tuesday@  10023b98     libucrt:nlsdata.obj
 0002:00002ba0       ??_C@_09DLIGFAKA@Wednesday@ 10023ba0     libucrt:nlsdata.obj
 0002:00002bac       ??_C@_08HACCIKIA@Thursday@ 10023bac     libucrt:nlsdata.obj
 0002:00002bb8       ??_C@_06JECMNKMI@Friday@   10023bb8     libucrt:nlsdata.obj
 0002:00002bc0       ??_C@_08INBOOONO@Saturday@ 10023bc0     libucrt:nlsdata.obj
 0002:00002bcc       ??_C@_03JIHJHPIE@Jan@      10023bcc     libucrt:nlsdata.obj
 0002:00002bd0       ??_C@_03HJBDCHOM@Feb@      10023bd0     libucrt:nlsdata.obj
 0002:00002bd4       ??_C@_03ODNJBKGA@Mar@      10023bd4     libucrt:nlsdata.obj
 0002:00002bd8       ??_C@_03LEOLGMJP@Apr@      10023bd8     libucrt:nlsdata.obj
 0002:00002bdc       ??_C@_03CNMDKL@May@        10023bdc     libucrt:nlsdata.obj
 0002:00002be0       ??_C@_03IDFGHECI@Jun@      10023be0     libucrt:nlsdata.obj
 0002:00002be4       ??_C@_03LBGABGKK@Jul@      10023be4     libucrt:nlsdata.obj
 0002:00002be8       ??_C@_03IFJFEIGA@Aug@      10023be8     libucrt:nlsdata.obj
 0002:00002bec       ??_C@_03GGCAPAJC@Sep@      10023bec     libucrt:nlsdata.obj
 0002:00002bf0       ??_C@_03BMAOKBAD@Oct@      10023bf0     libucrt:nlsdata.obj
 0002:00002bf4       ??_C@_03JPJOFNIA@Nov@      10023bf4     libucrt:nlsdata.obj
 0002:00002bf8       ??_C@_03MKABNOCG@Dec@      10023bf8     libucrt:nlsdata.obj
 0002:00002bfc       ??_C@_07CGJPFGJA@January@  10023bfc     libucrt:nlsdata.obj
 0002:00002c04       ??_C@_08GNJGEPFN@February@ 10023c04     libucrt:nlsdata.obj
 0002:00002c10       ??_C@_05HPCKOFNC@March@    10023c10     libucrt:nlsdata.obj
 0002:00002c18       ??_C@_05DMJDNLEJ@April@    10023c18     libucrt:nlsdata.obj
 0002:00002c20       ??_C@_04CNLMGBGM@June@     10023c20     libucrt:nlsdata.obj
 0002:00002c28       ??_C@_04MIEPOIFP@July@     10023c28     libucrt:nlsdata.obj
 0002:00002c30       ??_C@_06LBBHFDDG@August@   10023c30     libucrt:nlsdata.obj
 0002:00002c38       ??_C@_09BHHEALKD@September@ 10023c38     libucrt:nlsdata.obj
 0002:00002c44       ??_C@_07JJNFCEND@October@  10023c44     libucrt:nlsdata.obj
 0002:00002c4c       ??_C@_08HCHEGEOA@November@ 10023c4c     libucrt:nlsdata.obj
 0002:00002c58       ??_C@_08EDHMEBNP@December@ 10023c58     libucrt:nlsdata.obj
 0002:00002c64       ??_C@_02DEDBPAFC@AM@       10023c64     libucrt:nlsdata.obj
 0002:00002c68       ??_C@_02CJNFDJBF@PM@       10023c68     libucrt:nlsdata.obj
 0002:00002c6c       ??_C@_08BPBNCDIB@MM?1dd?1yy@ 10023c6c     libucrt:nlsdata.obj
 0002:00002c78       ??_C@_0BE@CKGJFCPC@dddd?0?5MMMM?5dd?0?5yyyy@ 10023c78     libucrt:nlsdata.obj
 0002:00002c8c       ??_C@_08JCCMCCIL@HH?3mm?3ss@ 10023c8c     libucrt:nlsdata.obj
 0002:00002c98       ??_C@_17MBGCMIPB@?$AAS?$AAu?$AAn@ 10023c98     libucrt:nlsdata.obj
 0002:00002ca0       ??_C@_17KBOMKBF@?$AAM?$AAo?$AAn@ 10023ca0     libucrt:nlsdata.obj
 0002:00002ca8       ??_C@_17BMKGEGOJ@?$AAT?$AAu?$AAe@ 10023ca8     libucrt:nlsdata.obj
 0002:00002cb0       ??_C@_17CJEDCEPE@?$AAW?$AAe?$AAd@ 10023cb0     libucrt:nlsdata.obj
 0002:00002cb8       ??_C@_17PDPHAADD@?$AAT?$AAh?$AAu@ 10023cb8     libucrt:nlsdata.obj
 0002:00002cc0       ??_C@_17HFOLPPLP@?$AAF?$AAr?$AAi@ 10023cc0     libucrt:nlsdata.obj
 0002:00002cc8       ??_C@_17GGIBDPIH@?$AAS?$AAa?$AAt@ 10023cc8     libucrt:nlsdata.obj
 0002:00002cd0       ??_C@_1O@IHNHDHPB@?$AAS?$AAu?$AAn?$AAd?$AAa?$AAy@ 10023cd0     libucrt:nlsdata.obj
 0002:00002ce0       ??_C@_1O@MMNBFLIA@?$AAM?$AAo?$AAn?$AAd?$AAa?$AAy@ 10023ce0     libucrt:nlsdata.obj
 0002:00002cf0       ??_C@_1BA@ENFBFFEK@?$AAT?$AAu?$AAe?$AAs?$AAd?$AAa?$AAy@ 10023cf0     libucrt:nlsdata.obj
 0002:00002d00       ??_C@_1BE@EBOGMDOH@?$AAW?$AAe?$AAd?$AAn?$AAe?$AAs?$AAd?$AAa?$AAy@ 10023d00     libucrt:nlsdata.obj
 0002:00002d14       ??_C@_1BC@HHMNLIHE@?$AAT?$AAh?$AAu?$AAr?$AAs?$AAd?$AAa?$AAy@ 10023d14     libucrt:nlsdata.obj
 0002:00002d28       ??_C@_1O@PDICJHAG@?$AAF?$AAr?$AAi?$AAd?$AAa?$AAy@ 10023d28     libucrt:nlsdata.obj
 0002:00002d38       ??_C@_1BC@ENMNNPAJ@?$AAS?$AAa?$AAt?$AAu?$AAr?$AAd?$AAa?$AAy@ 10023d38     libucrt:nlsdata.obj
 0002:00002d4c       ??_C@_17DKNBKCHM@?$AAJ?$AAa?$AAn@ 10023d4c     libucrt:nlsdata.obj
 0002:00002d54       ??_C@_17LMDJEKJN@?$AAF?$AAe?$AAb@ 10023d54     libucrt:nlsdata.obj
 0002:00002d5c       ??_C@_17CKNLEDEC@?$AAM?$AAa?$AAr@ 10023d5c     libucrt:nlsdata.obj
 0002:00002d64       ??_C@_17LFPOIHDD@?$AAA?$AAp?$AAr@ 10023d64     libucrt:nlsdata.obj
 0002:00002d6c       ??_C@_17PNNKMEED@?$AAM?$AAa?$AAy@ 10023d6c     libucrt:nlsdata.obj
 0002:00002d74       ??_C@_17KCJGOCPB@?$AAJ?$AAu?$AAn@ 10023d74     libucrt:nlsdata.obj
 0002:00002d7c       ??_C@_17IJPCKHK@?$AAJ?$AAu?$AAl@ 10023d7c     libucrt:nlsdata.obj
 0002:00002d84       ??_C@_17ICPELBCN@?$AAA?$AAu?$AAg@ 10023d84     libucrt:nlsdata.obj
 0002:00002d8c       ??_C@_17HCHCOKMG@?$AAS?$AAe?$AAp@ 10023d8c     libucrt:nlsdata.obj
 0002:00002d94       ??_C@_17FNLKOI@?$AAO?$AAc?$AAt@ 10023d94     libucrt:nlsdata.obj
 0002:00002d9c       ??_C@_17BBDMLCIG@?$AAN?$AAo?$AAv@ 10023d9c     libucrt:nlsdata.obj
 0002:00002da4       ??_C@_17EGKACKIF@?$AAD?$AAe?$AAc@ 10023da4     libucrt:nlsdata.obj
 0002:00002dac       ??_C@_1BA@EFMEIEBA@?$AAJ?$AAa?$AAn?$AAu?$AAa?$AAr?$AAy@ 10023dac     libucrt:nlsdata.obj
 0002:00002dbc       ??_C@_1BC@JGDDFFAM@?$AAF?$AAe?$AAb?$AAr?$AAu?$AAa?$AAr?$AAy@ 10023dbc     libucrt:nlsdata.obj
 0002:00002dd0       ??_C@_1M@IKEENEDF@?$AAM?$AAa?$AAr?$AAc?$AAh@ 10023dd0     libucrt:nlsdata.obj
 0002:00002ddc       ??_C@_1M@GJNLMHFD@?$AAA?$AAp?$AAr?$AAi?$AAl@ 10023ddc     libucrt:nlsdata.obj
 0002:00002de8       ??_C@_19EPFLPGAP@?$AAJ?$AAu?$AAn?$AAe@ 10023de8     libucrt:nlsdata.obj
 0002:00002df4       ??_C@_19BIFMLPCD@?$AAJ?$AAu?$AAl?$AAy@ 10023df4     libucrt:nlsdata.obj
 0002:00002e00       ??_C@_1O@PAHLKOAC@?$AAA?$AAu?$AAg?$AAu?$AAs?$AAt@ 10023e00     libucrt:nlsdata.obj
 0002:00002e10       ??_C@_1BE@DKAAMBJL@?$AAS?$AAe?$AAp?$AAt?$AAe?$AAm?$AAb?$AAe?$AAr@ 10023e10     libucrt:nlsdata.obj
 0002:00002e24       ??_C@_1BA@EPANDLNG@?$AAO?$AAc?$AAt?$AAo?$AAb?$AAe?$AAr@ 10023e24     libucrt:nlsdata.obj
 0002:00002e34       ??_C@_1BC@BGLIFPF@?$AAN?$AAo?$AAv?$AAe?$AAm?$AAb?$AAe?$AAr@ 10023e34     libucrt:nlsdata.obj
 0002:00002e48       ??_C@_1BC@FEMKIFH@?$AAD?$AAe?$AAc?$AAe?$AAm?$AAb?$AAe?$AAr@ 10023e48     libucrt:nlsdata.obj
 0002:00002e5c       ??_C@_15ODEHAHHF@?$AAA?$AAM@ 10023e5c     libucrt:nlsdata.obj
 0002:00002e64       ??_C@_15CLMNNGEL@?$AAP?$AAM@ 10023e64     libucrt:nlsdata.obj
 0002:00002e6c       ??_C@_1BC@IEBCMHCM@?$AAM?$AAM?$AA?1?$AAd?$AAd?$AA?1?$AAy?$AAy@ 10023e6c     libucrt:nlsdata.obj
 0002:00002e80       ??_C@_1CI@KNAKOEBC@?$AAd?$AAd?$AAd?$AAd?$AA?0?$AA?5?$AAM?$AAM?$AAM?$AAM?$AA?5?$AAd?$AAd?$AA?0?$AA?5@ 10023e80     libucrt:nlsdata.obj
 0002:00002ea8       ??_C@_1BC@GDGBMEMK@?$AAH?$AAH?$AA?3?$AAm?$AAm?$AA?3?$AAs?$AAs@ 10023ea8     libucrt:nlsdata.obj
 0002:00002ebc       ??_C@_1M@BMHNFIME@?$AAe?$AAn?$AA?9?$AAU?$AAS@ 10023ebc     libucrt:nlsdata.obj
 0002:00002f18       ??_C@_1EA@JGEFHKEI@?$AAa?$AAp?$AAi?$AA?9?$AAm?$AAs?$AA?9?$AAw?$AAi?$AAn?$AA?9?$AAc?$AAo?$AAr?$AAe@ 10023f18     libucrt:winapi_thunks.obj
 0002:00002f58       ??_C@_1DI@IJCEHOCB@?$AAa?$AAp?$AAi?$AA?9?$AAm?$AAs?$AA?9?$AAw?$AAi?$AAn?$AA?9?$AAc?$AAo?$AAr?$AAe@ 10023f58     libucrt:winapi_thunks.obj
 0002:00002f90       ??_C@_1EI@MPIAOHOC@?$AAa?$AAp?$AAi?$AA?9?$AAm?$AAs?$AA?9?$AAw?$AAi?$AAn?$AA?9?$AAc?$AAo?$AAr?$AAe@ 10023f90     libucrt:winapi_thunks.obj
 0002:00002fd8       ??_C@_1FK@FPHCKFIE@?$AAa?$AAp?$AAi?$AA?9?$AAm?$AAs?$AA?9?$AAw?$AAi?$AAn?$AA?9?$AAc?$AAo?$AAr?$AAe@ 10023fd8     libucrt:winapi_thunks.obj
 0002:00003038       ??_C@_1EM@DILCGIIO@?$AAa?$AAp?$AAi?$AA?9?$AAm?$AAs?$AA?9?$AAw?$AAi?$AAn?$AA?9?$AAc?$AAo?$AAr?$AAe@ 10024038     libucrt:winapi_thunks.obj
 0002:00003084       ??_C@_1DM@LNCGDDPN@?$AAa?$AAp?$AAi?$AA?9?$AAm?$AAs?$AA?9?$AAw?$AAi?$AAn?$AA?9?$AAc?$AAo?$AAr?$AAe@ 10024084     libucrt:winapi_thunks.obj
 0002:000030c0       ??_C@_1DO@FPAPJEMD@?$AAa?$AAp?$AAi?$AA?9?$AAm?$AAs?$AA?9?$AAw?$AAi?$AAn?$AA?9?$AAc?$AAo?$AAr?$AAe@ 100240c0     libucrt:winapi_thunks.obj
 0002:00003100       ??_C@_1DK@NDHNAHIO@?$AAa?$AAp?$AAi?$AA?9?$AAm?$AAs?$AA?9?$AAw?$AAi?$AAn?$AA?9?$AAc?$AAo?$AAr?$AAe@ 10024100     libucrt:winapi_thunks.obj
 0002:0000313c       ??_C@_1DM@KGHDGBCM@?$AAa?$AAp?$AAi?$AA?9?$AAm?$AAs?$AA?9?$AAw?$AAi?$AAn?$AA?9?$AAc?$AAo?$AAr?$AAe@ 1002413c     libucrt:winapi_thunks.obj
 0002:00003178       ??_C@_1EO@IJIOEFOH@?$AAa?$AAp?$AAi?$AA?9?$AAm?$AAs?$AA?9?$AAw?$AAi?$AAn?$AA?9?$AAr?$AAt?$AAc?$AAo@ 10024178     libucrt:winapi_thunks.obj
 0002:000031c8       ??_C@_1FG@HHGEKANL@?$AAa?$AAp?$AAi?$AA?9?$AAm?$AAs?$AA?9?$AAw?$AAi?$AAn?$AA?9?$AAs?$AAe?$AAc?$AAu@ 100241c8     libucrt:winapi_thunks.obj
 0002:00003220       ??_C@_1EG@DBIOJECG@?$AAe?$AAx?$AAt?$AA?9?$AAm?$AAs?$AA?9?$AAw?$AAi?$AAn?$AA?9?$AAn?$AAt?$AAu?$AAs@ 10024220     libucrt:winapi_thunks.obj
 0002:00003268       ??_C@_1EO@FIHMJCLF@?$AAe?$AAx?$AAt?$AA?9?$AAm?$AAs?$AA?9?$AAw?$AAi?$AAn?$AA?9?$AAn?$AAt?$AAu?$AAs@ 10024268     libucrt:winapi_thunks.obj
 0002:000032b8       ??_C@_1BC@DNHGCMLG@?$AAa?$AAd?$AAv?$AAa?$AAp?$AAi?$AA3?$AA2@ 100242b8     libucrt:winapi_thunks.obj
 0002:000032cc       ??_C@_1M@OAIMIKLP@?$AAn?$AAt?$AAd?$AAl?$AAl@ 100242cc     libucrt:winapi_thunks.obj
 0002:000032d8       ??_C@_1EG@DPGNFKGC@?$AAa?$AAp?$AAi?$AA?9?$AAm?$AAs?$AA?9?$AAw?$AAi?$AAn?$AA?9?$AAa?$AAp?$AAp?$AAm@ 100242d8     libucrt:winapi_thunks.obj
 0002:00003320       ??_C@_1O@BCCLBEOE@?$AAu?$AAs?$AAe?$AAr?$AA3?$AA2@ 10024320     libucrt:winapi_thunks.obj
 0002:00003330       ??_C@_1DM@BPJLHKCE@?$AAa?$AAp?$AAi?$AA?9?$AAm?$AAs?$AA?9?$AAw?$AAi?$AAn?$AA?9?$AAc?$AAo?$AAr?$AAe@ 10024330     libucrt:winapi_thunks.obj
 0002:0000336c       ??_C@_1BA@IAIFMGEF@?$AAe?$AAx?$AAt?$AA?9?$AAm?$AAs?$AA?9@ 1002436c     libucrt:winapi_thunks.obj
 0002:00003380       ??_C@_0BA@FHFNEAED@AreFileApisANSI@ 10024380     libucrt:winapi_thunks.obj
 0002:000033a0       ??_C@_0O@KKBNKAPF@LCMapStringEx@ 100243a0     libucrt:winapi_thunks.obj
 0002:000033b8       ??_C@_0BB@HBDEELFH@LocaleNameToLCID@ 100243b8     libucrt:winapi_thunks.obj
 0002:000033d0       ??_C@_0CF@OJOFEIGO@AppPolicyGetProcessTerminationM@ 100243d0     libucrt:winapi_thunks.obj
 0002:00003400       ??_C@_0BI@BKLFFAPO@SetThreadStackGuarantee@ 10024400     libucrt:winapi_thunks.obj
 0002:00003478       ??_C@_03OEIAHPBN@INF@      10024478     libucrt:cvt.obj
 0002:0000347c       ??_C@_03OJHLLCGB@inf@      1002447c     libucrt:cvt.obj
 0002:00003480       ??_C@_03LKNCIKJB@NAN@      10024480     libucrt:cvt.obj
 0002:00003484       ??_C@_03LHCJEHON@nan@      10024484     libucrt:cvt.obj
 0002:00003488       ??_C@_09OFJJIMPC@NAN?$CISNAN?$CJ@ 10024488     libucrt:cvt.obj
 0002:00003494       ??_C@_09IPFBKMDL@nan?$CIsnan?$CJ@ 10024494     libucrt:cvt.obj
 0002:000034a0       ??_C@_08IKHNHAJ@NAN?$CIIND?$CJ@ 100244a0     libucrt:cvt.obj
 0002:000034ac       ??_C@_08OFCDMILK@nan?$CIind?$CJ@ 100244ac     libucrt:cvt.obj
 0002:000034b8       ??_C@_05KLBDPFGC@e?$CL000@ 100244b8     libucrt:cvt.obj
 0002:000034d0       ??_C@_1M@HPNHIDJI@?$AAj?$AAa?$AA?9?$AAJ?$AAP@ 100244d0     libucrt:mbctype.obj
 0002:000034dc       ??_C@_1M@BIBDDEMK@?$AAz?$AAh?$AA?9?$AAC?$AAN@ 100244dc     libucrt:mbctype.obj
 0002:000034e8       ??_C@_1M@JLOOOEGK@?$AAk?$AAo?$AA?9?$AAK?$AAR@ 100244e8     libucrt:mbctype.obj
 0002:000034f4       ??_C@_1M@CLNBBOPM@?$AAz?$AAh?$AA?9?$AAT?$AAW@ 100244f4     libucrt:mbctype.obj
 0002:00003500       ___newctype                10024500     libucrt:ctype.obj
 0002:00003800       ___newclmap                10024800     libucrt:ctype.obj
 0002:00003980       ___newcumap                10024980     libucrt:ctype.obj
 0002:00003b00       ??_C@_15PJPFLCCM@?$AAu?$AAk@ 10024b00     libucrt:get_qualified_locale.obj
 0002:00004228       ??_C@_15EMKDOKLE@?$AAa?$AAr@ 10025228     libucrt:lcidtoname_downlevel.obj
 0002:00004230       ??_C@_15KNPADPLH@?$AAb?$AAg@ 10025230     libucrt:lcidtoname_downlevel.obj
 0002:00004238       ??_C@_15EDMHLDMO@?$AAc?$AAa@ 10025238     libucrt:lcidtoname_downlevel.obj
 0002:00004240       ??_C@_1O@BPEAJADD@?$AAz?$AAh?$AA?9?$AAC?$AAH?$AAS@ 10025240     libucrt:lcidtoname_downlevel.obj
 0002:00004250       ??_C@_15LJNHCMNK@?$AAc?$AAs@ 10025250     libucrt:lcidtoname_downlevel.obj
 0002:00004258       ??_C@_15FOMCIDHG@?$AAd?$AAa@ 10025258     libucrt:lcidtoname_downlevel.obj
 0002:00004260       ??_C@_15NBKABECB@?$AAd?$AAe@ 10025260     libucrt:lcidtoname_downlevel.obj
 0002:00004268       ??_C@_15GHPEIIAO@?$AAe?$AAl@ 10025268     libucrt:lcidtoname_downlevel.obj
 0002:00004270       ??_C@_15MNPNEAIF@?$AAe?$AAn@ 10025270     libucrt:lcidtoname_downlevel.obj
 0002:00004278       ??_C@_15GPIOMPMH@?$AAe?$AAs@ 10025278     libucrt:lcidtoname_downlevel.obj
 0002:00004280       ??_C@_15NGLOAKJC@?$AAf?$AAi@ 10025280     libucrt:lcidtoname_downlevel.obj
 0002:00004288       ??_C@_15FBKGNKAM@?$AAf?$AAr@ 10025288     libucrt:lcidtoname_downlevel.obj
 0002:00004290       ??_C@_15KGGCNEFK@?$AAh?$AAe@ 10025290     libucrt:lcidtoname_downlevel.obj
 0002:00004298       ??_C@_15PGHLIDMF@?$AAh?$AAu@ 10025298     libucrt:lcidtoname_downlevel.obj
 0002:000042a0       ??_C@_15BIEMAPLM@?$AAi?$AAs@ 100252a0     libucrt:lcidtoname_downlevel.obj
 0002:000042a8       ??_C@_15IFJLDHAF@?$AAi?$AAt@ 100252a8     libucrt:lcidtoname_downlevel.obj
 0002:000042b0       ??_C@_15GEMIOCAG@?$AAj?$AAa@ 100252b0     libucrt:lcidtoname_downlevel.obj
 0002:000042b8       ??_C@_15EPELEGJA@?$AAk?$AAo@ 100252b8     libucrt:lcidtoname_downlevel.obj
 0002:000042c0       ??_C@_15NDDHIMN@?$AAn?$AAl@ 100252c0     libucrt:lcidtoname_downlevel.obj
 0002:000042c8       ??_C@_15BPIGNHCD@?$AAn?$AAo@ 100252c8     libucrt:lcidtoname_downlevel.obj
 0002:000042d0       ??_C@_15DEOPBLCG@?$AAp?$AAl@ 100252d0     libucrt:lcidtoname_downlevel.obj
 0002:000042d8       ??_C@_15KBECGEFG@?$AAp?$AAt@ 100252d8     libucrt:lcidtoname_downlevel.obj
 0002:000042e0       ??_C@_15GLJCBFMD@?$AAr?$AAo@ 100252e0     libucrt:lcidtoname_downlevel.obj
 0002:000042e8       ??_C@_15FEDGKCDI@?$AAr?$AAu@ 100252e8     libucrt:lcidtoname_downlevel.obj
 0002:000042f0       ??_C@_15GLKMLLHM@?$AAh?$AAr@ 100252f0     libucrt:lcidtoname_downlevel.obj
 0002:000042f8       ??_C@_15CPKMFBDB@?$AAs?$AAk@ 100252f8     libucrt:lcidtoname_downlevel.obj
 0002:00004300       ??_C@_15BAAIOGMK@?$AAs?$AAq@ 10025300     libucrt:lcidtoname_downlevel.obj
 0002:00004308       ??_C@_15INNPNOHD@?$AAs?$AAv@ 10025308     libucrt:lcidtoname_downlevel.obj
 0002:00004310       ??_C@_15CABMMOGH@?$AAt?$AAh@ 10025310     libucrt:lcidtoname_downlevel.obj
 0002:00004318       ??_C@_15BPLIHJJM@?$AAt?$AAr@ 10025318     libucrt:lcidtoname_downlevel.obj
 0002:00004320       ??_C@_15NEOEKKDJ@?$AAu?$AAr@ 10025320     libucrt:lcidtoname_downlevel.obj
 0002:00004328       ??_C@_15NFICGAJK@?$AAi?$AAd@ 10025328     libucrt:lcidtoname_downlevel.obj
 0002:00004330       ??_C@_15HPJPHDM@?$AAb?$AAe@ 10025330     libucrt:lcidtoname_downlevel.obj
 0002:00004338       ??_C@_15LCHLGJII@?$AAs?$AAl@ 10025338     libucrt:lcidtoname_downlevel.obj
 0002:00004340       ??_C@_15PCFJPHHO@?$AAe?$AAt@ 10025340     libucrt:lcidtoname_downlevel.obj
 0002:00004348       ??_C@_15HPFPGODN@?$AAl?$AAv@ 10025348     libucrt:lcidtoname_downlevel.obj
 0002:00004350       ??_C@_15NFFGKGLG@?$AAl?$AAt@ 10025350     libucrt:lcidtoname_downlevel.obj
 0002:00004358       ??_C@_15BDAKCCHN@?$AAf?$AAa@ 10025358     libucrt:lcidtoname_downlevel.obj
 0002:00004360       ??_C@_15NFGIAIAJ@?$AAv?$AAi@ 10025360     libucrt:lcidtoname_downlevel.obj
 0002:00004368       ??_C@_15LMKNDMHN@?$AAh?$AAy@ 10025368     libucrt:lcidtoname_downlevel.obj
 0002:00004370       ??_C@_15IJBHMCFL@?$AAa?$AAz@ 10025370     libucrt:lcidtoname_downlevel.obj
 0002:00004378       ??_C@_15EKOFJABL@?$AAe?$AAu@ 10025378     libucrt:lcidtoname_downlevel.obj
 0002:00004380       ??_C@_15BGHADCNK@?$AAm?$AAk@ 10025380     libucrt:lcidtoname_downlevel.obj
 0002:00004388       ??_C@_15JDNICKHM@?$AAa?$AAf@ 10025388     libucrt:lcidtoname_downlevel.obj
 0002:00004390       ??_C@_15KPJEDBKD@?$AAk?$AAa@ 10025390     libucrt:lcidtoname_downlevel.obj
 0002:00004398       ??_C@_15PDNFFFEO@?$AAf?$AAo@ 10025398     libucrt:lcidtoname_downlevel.obj
 0002:000043a0       ??_C@_15OMLEGLOC@?$AAh?$AAi@ 100253a0     libucrt:lcidtoname_downlevel.obj
 0002:000043a8       ??_C@_15IDNNENKK@?$AAm?$AAs@ 100253a8     libucrt:lcidtoname_downlevel.obj
 0002:000043b0       ??_C@_15MACJNBMH@?$AAk?$AAk@ 100253b0     libucrt:lcidtoname_downlevel.obj
 0002:000043b8       ??_C@_15DKDJEOND@?$AAk?$AAy@ 100253b8     libucrt:lcidtoname_downlevel.obj
 0002:000043c0       ??_C@_15DFGDLJBG@?$AAs?$AAw@ 100253c0     libucrt:lcidtoname_downlevel.obj
 0002:000043c8       ??_C@_15BBFAICNG@?$AAu?$AAz@ 100253c8     libucrt:lcidtoname_downlevel.obj
 0002:000043d0       ??_C@_15DKNDCGEA@?$AAt?$AAt@ 100253d0     libucrt:lcidtoname_downlevel.obj
 0002:000043d8       ??_C@_15MGIFMDPL@?$AAp?$AAa@ 100253d8     libucrt:lcidtoname_downlevel.obj
 0002:000043e0       ??_C@_15HCNDBBA@?$AAg?$AAu@ 100253e0     libucrt:lcidtoname_downlevel.obj
 0002:000043e8       ??_C@_15FNBEIBON@?$AAt?$AAa@ 100253e8     libucrt:lcidtoname_downlevel.obj
 0002:000043f0       ??_C@_15NCHGBGLK@?$AAt?$AAe@ 100253f0     libucrt:lcidtoname_downlevel.obj
 0002:000043f8       ??_C@_15PHPHCBPF@?$AAk?$AAn@ 100253f8     libucrt:lcidtoname_downlevel.obj
 0002:00004400       ??_C@_15DLGBCKMP@?$AAm?$AAr@ 10025400     libucrt:lcidtoname_downlevel.obj
 0002:00004408       ??_C@_15EABBLBFF@?$AAs?$AAa@ 10025408     libucrt:lcidtoname_downlevel.obj
 0002:00004410       ??_C@_15CBKOMCOI@?$AAm?$AAn@ 10025410     libucrt:lcidtoname_downlevel.obj
 0002:00004418       ??_C@_15CKDMCJAF@?$AAg?$AAl@ 10025418     libucrt:lcidtoname_downlevel.obj
 0002:00004420       ??_C@_17CNJFBPG@?$AAk?$AAo?$AAk@ 10025420     libucrt:lcidtoname_downlevel.obj
 0002:00004428       ??_C@_17FFBJICPL@?$AAs?$AAy?$AAr@ 10025428     libucrt:lcidtoname_downlevel.obj
 0002:00004430       ??_C@_17KPNDCPAF@?$AAd?$AAi?$AAv@ 10025430     libucrt:lcidtoname_downlevel.obj
 0002:00004438       ??_C@_1M@OKAHONE@?$AAa?$AAr?$AA?9?$AAS?$AAA@ 10025438     libucrt:lcidtoname_downlevel.obj
 0002:00004444       ??_C@_1M@FFFIGIGK@?$AAb?$AAg?$AA?9?$AAB?$AAG@ 10025444     libucrt:lcidtoname_downlevel.obj
 0002:00004450       ??_C@_1M@BJNKEDC@?$AAc?$AAa?$AA?9?$AAE?$AAS@ 10025450     libucrt:lcidtoname_downlevel.obj
 0002:0000445c       ??_C@_1M@IJJHFJHA@?$AAc?$AAs?$AA?9?$AAC?$AAZ@ 1002545c     libucrt:lcidtoname_downlevel.obj
 0002:00004468       ??_C@_1M@CLPEOBGI@?$AAd?$AAa?$AA?9?$AAD?$AAK@ 10025468     libucrt:lcidtoname_downlevel.obj
 0002:00004474       ??_C@_1M@MCMADGCB@?$AAd?$AAe?$AA?9?$AAD?$AAE@ 10025474     libucrt:lcidtoname_downlevel.obj
 0002:00004480       ??_C@_1M@OOCKEMAM@?$AAe?$AAl?$AA?9?$AAG?$AAR@ 10025480     libucrt:lcidtoname_downlevel.obj
 0002:0000448c       ??_C@_1M@DDNJFGID@?$AAf?$AAi?$AA?9?$AAF?$AAI@ 1002548c     libucrt:lcidtoname_downlevel.obj
 0002:00004498       ??_C@_1M@GLIPPMAC@?$AAf?$AAr?$AA?9?$AAF?$AAR@ 10025498     libucrt:lcidtoname_downlevel.obj
 0002:000044a4       ??_C@_1M@GFMCHPE@?$AAh?$AAe?$AA?9?$AAI?$AAL@ 100254a4     libucrt:lcidtoname_downlevel.obj
 0002:000044b0       ??_C@_1M@MHLPGNKM@?$AAh?$AAu?$AA?9?$AAH?$AAU@ 100254b0     libucrt:lcidtoname_downlevel.obj
 0002:000044bc       ??_C@_1M@LPDDNNPN@?$AAi?$AAs?$AA?9?$AAI?$AAS@ 100254bc     libucrt:lcidtoname_downlevel.obj
 0002:000044c8       ??_C@_1M@MADIPODN@?$AAi?$AAt?$AA?9?$AAI?$AAT@ 100254c8     libucrt:lcidtoname_downlevel.obj
 0002:000044d4       ??_C@_1M@IHBJJGG@?$AAn?$AAl?$AA?9?$AAN?$AAL@ 100254d4     libucrt:lcidtoname_downlevel.obj
 0002:000044e0       ??_C@_1M@EANAGDL@?$AAn?$AAb?$AA?9?$AAN?$AAO@ 100254e0     libucrt:lcidtoname_downlevel.obj
 0002:000044ec       ??_C@_1M@NEIEMEGP@?$AAp?$AAl?$AA?9?$AAP?$AAL@ 100254ec     libucrt:lcidtoname_downlevel.obj
 0002:000044f8       ??_C@_1M@BOCFIGEP@?$AAp?$AAt?$AA?9?$AAB?$AAR@ 100254f8     libucrt:lcidtoname_downlevel.obj
 0002:00004504       ??_C@_1M@IMPFOPBG@?$AAr?$AAo?$AA?9?$AAR?$AAO@ 10025504     libucrt:lcidtoname_downlevel.obj
 0002:00004510       ??_C@_1M@IDNNEJMM@?$AAr?$AAu?$AA?9?$AAR?$AAU@ 10025510     libucrt:lcidtoname_downlevel.obj
 0002:0000451c       ??_C@_1M@LILEEOGM@?$AAh?$AAr?$AA?9?$AAH?$AAR@ 1002551c     libucrt:lcidtoname_downlevel.obj
 0002:00004528       ??_C@_1M@FKIFEHPB@?$AAs?$AAk?$AA?9?$AAS?$AAK@ 10025528     libucrt:lcidtoname_downlevel.obj
 0002:00004534       ??_C@_1M@LJMAMNPJ@?$AAs?$AAq?$AA?9?$AAA?$AAL@ 10025534     libucrt:lcidtoname_downlevel.obj
 0002:00004540       ??_C@_1M@GIAKDKJK@?$AAs?$AAv?$AA?9?$AAS?$AAE@ 10025540     libucrt:lcidtoname_downlevel.obj
 0002:0000454c       ??_C@_1M@MKJKIKCL@?$AAt?$AAh?$AA?9?$AAT?$AAH@ 1002554c     libucrt:lcidtoname_downlevel.obj
 0002:00004558       ??_C@_1M@MFLCCMPB@?$AAt?$AAr?$AA?9?$AAT?$AAR@ 10025558     libucrt:lcidtoname_downlevel.obj
 0002:00004564       ??_C@_1M@OIJHDKJN@?$AAu?$AAr?$AA?9?$AAP?$AAK@ 10025564     libucrt:lcidtoname_downlevel.obj
 0002:00004570       ??_C@_1M@LHIPCIEK@?$AAi?$AAd?$AA?9?$AAI?$AAD@ 10025570     libucrt:lcidtoname_downlevel.obj
 0002:0000457c       ??_C@_1M@MFMOBGI@?$AAu?$AAk?$AA?9?$AAU?$AAA@ 1002557c     libucrt:lcidtoname_downlevel.obj
 0002:00004588       ??_C@_1M@OBGLJIPL@?$AAb?$AAe?$AA?9?$AAB?$AAY@ 10025588     libucrt:lcidtoname_downlevel.obj
 0002:00004594       ??_C@_1M@BCFAJEAD@?$AAs?$AAl?$AA?9?$AAS?$AAI@ 10025594     libucrt:lcidtoname_downlevel.obj
 0002:000045a0       ??_C@_1M@FKFFEDDN@?$AAe?$AAt?$AA?9?$AAE?$AAE@ 100255a0     libucrt:lcidtoname_downlevel.obj
 0002:000045ac       ??_C@_1M@KGKKAACI@?$AAl?$AAv?$AA?9?$AAL?$AAV@ 100255ac     libucrt:lcidtoname_downlevel.obj
 0002:000045b8       ??_C@_1M@IFGBIJO@?$AAl?$AAt?$AA?9?$AAL?$AAT@ 100255b8     libucrt:lcidtoname_downlevel.obj
 0002:000045c4       ??_C@_1M@FGEAHEDM@?$AAf?$AAa?$AA?9?$AAI?$AAR@ 100255c4     libucrt:lcidtoname_downlevel.obj
 0002:000045d0       ??_C@_1M@KBMAIBFN@?$AAv?$AAi?$AA?9?$AAV?$AAN@ 100255d0     libucrt:lcidtoname_downlevel.obj
 0002:000045dc       ??_C@_1M@GPCBKDJK@?$AAh?$AAy?$AA?9?$AAA?$AAM@ 100255dc     libucrt:lcidtoname_downlevel.obj
 0002:000045e8       ??_C@_1BG@BECMDDJB@?$AAa?$AAz?$AA?9?$AAA?$AAZ?$AA?9?$AAL?$AAa?$AAt?$AAn@ 100255e8     libucrt:lcidtoname_downlevel.obj
 0002:00004600       ??_C@_1M@MAOFCAEA@?$AAe?$AAu?$AA?9?$AAE?$AAS@ 10025600     libucrt:lcidtoname_downlevel.obj
 0002:0000460c       ??_C@_1M@IGHABKPI@?$AAm?$AAk?$AA?9?$AAM?$AAK@ 1002560c     libucrt:lcidtoname_downlevel.obj
 0002:00004618       ??_C@_1M@IAIGNEJG@?$AAt?$AAn?$AA?9?$AAZ?$AAA@ 10025618     libucrt:lcidtoname_downlevel.obj
 0002:00004624       ??_C@_1M@IIJCOJFA@?$AAx?$AAh?$AA?9?$AAZ?$AAA@ 10025624     libucrt:lcidtoname_downlevel.obj
 0002:00004630       ??_C@_1M@LGPJHNJH@?$AAz?$AAu?$AA?9?$AAZ?$AAA@ 10025630     libucrt:lcidtoname_downlevel.obj
 0002:0000463c       ??_C@_1M@HOKAOIO@?$AAa?$AAf?$AA?9?$AAZ?$AAA@ 1002563c     libucrt:lcidtoname_downlevel.obj
 0002:00004648       ??_C@_1M@DPCLHLIE@?$AAk?$AAa?$AA?9?$AAG?$AAE@ 10025648     libucrt:lcidtoname_downlevel.obj
 0002:00004654       ??_C@_1M@BLKMHJBI@?$AAf?$AAo?$AA?9?$AAF?$AAO@ 10025654     libucrt:lcidtoname_downlevel.obj
 0002:00004660       ??_C@_1M@LGGJAPPB@?$AAh?$AAi?$AA?9?$AAI?$AAN@ 10025660     libucrt:lcidtoname_downlevel.obj
 0002:0000466c       ??_C@_1M@FIKPIHFE@?$AAm?$AAt?$AA?9?$AAM?$AAT@ 1002566c     libucrt:lcidtoname_downlevel.obj
 0002:00004678       ??_C@_1M@HEGGPBFA@?$AAs?$AAe?$AA?9?$AAN?$AAO@ 10025678     libucrt:lcidtoname_downlevel.obj
 0002:00004684       ??_C@_1M@EIBJEEPA@?$AAm?$AAs?$AA?9?$AAM?$AAY@ 10025684     libucrt:lcidtoname_downlevel.obj
 0002:00004690       ??_C@_1M@FHLBGMPP@?$AAk?$AAk?$AA?9?$AAK?$AAZ@ 10025690     libucrt:lcidtoname_downlevel.obj
 0002:0000469c       ??_C@_1M@NGJJLCGI@?$AAk?$AAy?$AA?9?$AAK?$AAG@ 1002569c     libucrt:lcidtoname_downlevel.obj
 0002:000046a8       ??_C@_1M@GIENNBFC@?$AAs?$AAw?$AA?9?$AAK?$AAE@ 100256a8     libucrt:lcidtoname_downlevel.obj
 0002:000046b4       ??_C@_1BG@NDGMJIMJ@?$AAu?$AAz?$AA?9?$AAU?$AAZ?$AA?9?$AAL?$AAa?$AAt?$AAn@ 100256b4     libucrt:lcidtoname_downlevel.obj
 0002:000046cc       ??_C@_1M@IDCCIHBC@?$AAt?$AAt?$AA?9?$AAR?$AAU@ 100256cc     libucrt:lcidtoname_downlevel.obj
 0002:000046d8       ??_C@_1M@LOICPMOJ@?$AAb?$AAn?$AA?9?$AAI?$AAN@ 100256d8     libucrt:lcidtoname_downlevel.obj
 0002:000046e4       ??_C@_1M@KPKKNEAH@?$AAp?$AAa?$AA?9?$AAI?$AAN@ 100256e4     libucrt:lcidtoname_downlevel.obj
 0002:000046f0       ??_C@_1M@PJGPPBOG@?$AAg?$AAu?$AA?9?$AAI?$AAN@ 100256f0     libucrt:lcidtoname_downlevel.obj
 0002:000046fc       ??_C@_1M@KMKMOPHI@?$AAt?$AAa?$AA?9?$AAI?$AAN@ 100256fc     libucrt:lcidtoname_downlevel.obj
 0002:00004708       ??_C@_1M@KFEHEPAC@?$AAt?$AAe?$AA?9?$AAI?$AAN@ 10025708     libucrt:lcidtoname_downlevel.obj
 0002:00004714       ??_C@_1M@CDCLMGHI@?$AAk?$AAn?$AA?9?$AAI?$AAN@ 10025714     libucrt:lcidtoname_downlevel.obj
 0002:00004720       ??_C@_1M@MIODLDKF@?$AAm?$AAl?$AA?9?$AAI?$AAN@ 10025720     libucrt:lcidtoname_downlevel.obj
 0002:0000472c       ??_C@_1M@PBIEACPO@?$AAm?$AAr?$AA?9?$AAI?$AAN@ 1002572c     libucrt:lcidtoname_downlevel.obj
 0002:00004738       ??_C@_1M@NIDEAGPH@?$AAs?$AAa?$AA?9?$AAI?$AAN@ 10025738     libucrt:lcidtoname_downlevel.obj
 0002:00004744       ??_C@_1M@FHIHCBIO@?$AAm?$AAn?$AA?9?$AAM?$AAN@ 10025744     libucrt:lcidtoname_downlevel.obj
 0002:00004750       ??_C@_1M@JAIJPENP@?$AAc?$AAy?$AA?9?$AAG?$AAB@ 10025750     libucrt:lcidtoname_downlevel.obj
 0002:0000475c       ??_C@_1M@PHGFBEPN@?$AAg?$AAl?$AA?9?$AAE?$AAS@ 1002575c     libucrt:lcidtoname_downlevel.obj
 0002:00004768       ??_C@_1O@KPIPDNCP@?$AAk?$AAo?$AAk?$AA?9?$AAI?$AAN@ 10025768     libucrt:lcidtoname_downlevel.obj
 0002:00004778       ??_C@_1O@KNHJLDJA@?$AAs?$AAy?$AAr?$AA?9?$AAS?$AAY@ 10025778     libucrt:lcidtoname_downlevel.obj
 0002:00004788       ??_C@_1O@MKEKBLAH@?$AAd?$AAi?$AAv?$AA?9?$AAM?$AAV@ 10025788     libucrt:lcidtoname_downlevel.obj
 0002:00004798       ??_C@_1O@OHDCKDDF@?$AAq?$AAu?$AAz?$AA?9?$AAB?$AAO@ 10025798     libucrt:lcidtoname_downlevel.obj
 0002:000047a8       ??_C@_1M@LEPJNLFD@?$AAn?$AAs?$AA?9?$AAZ?$AAA@ 100257a8     libucrt:lcidtoname_downlevel.obj
 0002:000047b4       ??_C@_1M@OMLEIIJB@?$AAm?$AAi?$AA?9?$AAN?$AAZ@ 100257b4     libucrt:lcidtoname_downlevel.obj
 0002:000047c0       ??_C@_1M@PMPEAILG@?$AAa?$AAr?$AA?9?$AAI?$AAQ@ 100257c0     libucrt:lcidtoname_downlevel.obj
 0002:000047cc       ??_C@_1M@CNKPNOEE@?$AAd?$AAe?$AA?9?$AAC?$AAH@ 100257cc     libucrt:lcidtoname_downlevel.obj
 0002:000047d8       ??_C@_1M@LKMGMLKO@?$AAe?$AAn?$AA?9?$AAG?$AAB@ 100257d8     libucrt:lcidtoname_downlevel.obj
 0002:000047e4       ??_C@_1M@PGKJFFGL@?$AAe?$AAs?$AA?9?$AAM?$AAX@ 100257e4     libucrt:lcidtoname_downlevel.obj
 0002:000047f0       ??_C@_1M@DNNANBDC@?$AAf?$AAr?$AA?9?$AAB?$AAE@ 100257f0     libucrt:lcidtoname_downlevel.obj
 0002:000047fc       ??_C@_1M@HLGMDFHM@?$AAi?$AAt?$AA?9?$AAC?$AAH@ 100257fc     libucrt:lcidtoname_downlevel.obj
 0002:00004808       ??_C@_1M@CLLBGJH@?$AAn?$AAl?$AA?9?$AAB?$AAE@ 10025808     libucrt:lcidtoname_downlevel.obj
 0002:00004814       ??_C@_1M@BODBOGLF@?$AAn?$AAn?$AA?9?$AAN?$AAO@ 10025814     libucrt:lcidtoname_downlevel.obj
 0002:00004820       ??_C@_1M@HFFAHKAD@?$AAp?$AAt?$AA?9?$AAP?$AAT@ 10025820     libucrt:lcidtoname_downlevel.obj
 0002:0000482c       ??_C@_1BG@LNOAKHIE@?$AAs?$AAr?$AA?9?$AAS?$AAP?$AA?9?$AAL?$AAa?$AAt?$AAn@ 1002582c     libucrt:lcidtoname_downlevel.obj
 0002:00004844       ??_C@_1M@HBMHBGAK@?$AAs?$AAv?$AA?9?$AAF?$AAI@ 10025844     libucrt:lcidtoname_downlevel.obj
 0002:00004850       ??_C@_1BG@DGCJGJBE@?$AAa?$AAz?$AA?9?$AAA?$AAZ?$AA?9?$AAC?$AAy?$AAr?$AAl@ 10025850     libucrt:lcidtoname_downlevel.obj
 0002:00004868       ??_C@_1M@KEJDAAHB@?$AAs?$AAe?$AA?9?$AAS?$AAE@ 10025868     libucrt:lcidtoname_downlevel.obj
 0002:00004874       ??_C@_1M@HEIBJJAD@?$AAm?$AAs?$AA?9?$AAB?$AAN@ 10025874     libucrt:lcidtoname_downlevel.obj
 0002:00004880       ??_C@_1BG@PBGJMCEM@?$AAu?$AAz?$AA?9?$AAU?$AAZ?$AA?9?$AAC?$AAy?$AAr?$AAl@ 10025880     libucrt:lcidtoname_downlevel.obj
 0002:00004898       ??_C@_1O@LAOBCMDF@?$AAq?$AAu?$AAz?$AA?9?$AAE?$AAC@ 10025898     libucrt:lcidtoname_downlevel.obj
 0002:000048a8       ??_C@_1M@POEEMAIO@?$AAa?$AAr?$AA?9?$AAE?$AAG@ 100258a8     libucrt:lcidtoname_downlevel.obj
 0002:000048b4       ??_C@_1M@EFAKDEDL@?$AAz?$AAh?$AA?9?$AAH?$AAK@ 100258b4     libucrt:lcidtoname_downlevel.obj
 0002:000048c0       ??_C@_1M@HKKIJHGI@?$AAd?$AAe?$AA?9?$AAA?$AAT@ 100258c0     libucrt:lcidtoname_downlevel.obj
 0002:000048cc       ??_C@_1M@KBFBEHJF@?$AAe?$AAn?$AA?9?$AAA?$AAU@ 100258cc     libucrt:lcidtoname_downlevel.obj
 0002:000048d8       ??_C@_1M@MNPLFAAH@?$AAe?$AAs?$AA?9?$AAE?$AAS@ 100258d8     libucrt:lcidtoname_downlevel.obj
 0002:000048e4       ??_C@_1M@HJOOJFMA@?$AAf?$AAr?$AA?9?$AAC?$AAA@ 100258e4     libucrt:lcidtoname_downlevel.obj
 0002:000048f0       ??_C@_1BG@JPOFPNAB@?$AAs?$AAr?$AA?9?$AAS?$AAP?$AA?9?$AAC?$AAy?$AAr?$AAl@ 100258f0     libucrt:lcidtoname_downlevel.obj
 0002:00004908       ??_C@_1M@LNFOCMOB@?$AAs?$AAe?$AA?9?$AAF?$AAI@ 10025908     libucrt:lcidtoname_downlevel.obj
 0002:00004914       ??_C@_1O@MGJBOAMB@?$AAq?$AAu?$AAz?$AA?9?$AAP?$AAE@ 10025914     libucrt:lcidtoname_downlevel.obj
 0002:00004924       ??_C@_1M@GJINLBOK@?$AAa?$AAr?$AA?9?$AAL?$AAY@ 10025924     libucrt:lcidtoname_downlevel.obj
 0002:00004930       ??_C@_1M@GGMNHJNL@?$AAz?$AAh?$AA?9?$AAS?$AAG@ 10025930     libucrt:lcidtoname_downlevel.obj
 0002:0000493c       ??_C@_1M@HOIKODND@?$AAd?$AAe?$AA?9?$AAL?$AAU@ 1002593c     libucrt:lcidtoname_downlevel.obj
 0002:00004948       ??_C@_1M@DDOCCGFG@?$AAe?$AAn?$AA?9?$AAC?$AAA@ 10025948     libucrt:lcidtoname_downlevel.obj
 0002:00004954       ??_C@_1M@BNOEMJLF@?$AAe?$AAs?$AA?9?$AAG?$AAT@ 10025954     libucrt:lcidtoname_downlevel.obj
 0002:00004960       ??_C@_1M@EOGNKEK@?$AAf?$AAr?$AA?9?$AAC?$AAH@ 10025960     libucrt:lcidtoname_downlevel.obj
 0002:0000496c       ??_C@_1M@FLIDJFHL@?$AAh?$AAr?$AA?9?$AAB?$AAA@ 1002596c     libucrt:lcidtoname_downlevel.obj
 0002:00004978       ??_C@_1O@FMCELNAJ@?$AAs?$AAm?$AAj?$AA?9?$AAN?$AAO@ 10025978     libucrt:lcidtoname_downlevel.obj
 0002:00004988       ??_C@_1M@JHGLJMGJ@?$AAa?$AAr?$AA?9?$AAD?$AAZ@ 10025988     libucrt:lcidtoname_downlevel.obj
 0002:00004994       ??_C@_1M@JKKFDCNP@?$AAz?$AAh?$AA?9?$AAM?$AAO@ 10025994     libucrt:lcidtoname_downlevel.obj
 0002:000049a0       ??_C@_1M@GEEFALPE@?$AAd?$AAe?$AA?9?$AAL?$AAI@ 100259a0     libucrt:lcidtoname_downlevel.obj
 0002:000049ac       ??_C@_1M@IGEOFBG@?$AAe?$AAn?$AA?9?$AAN?$AAZ@ 100259ac     libucrt:lcidtoname_downlevel.obj
 0002:000049b8       ??_C@_1M@KDBONEHP@?$AAe?$AAs?$AA?9?$AAC?$AAR@ 100259b8     libucrt:lcidtoname_downlevel.obj
 0002:000049c4       ??_C@_1M@FHMDOHNN@?$AAf?$AAr?$AA?9?$AAL?$AAU@ 100259c4     libucrt:lcidtoname_downlevel.obj
 0002:000049d0       ??_C@_1BG@NFKKMAFG@?$AAb?$AAs?$AA?9?$AAB?$AAA?$AA?9?$AAL?$AAa?$AAt?$AAn@ 100259d0     libucrt:lcidtoname_downlevel.obj
 0002:000049e8       ??_C@_1O@IMNBEMCI@?$AAs?$AAm?$AAj?$AA?9?$AAS?$AAE@ 100259e8     libucrt:lcidtoname_downlevel.obj
 0002:000049f8       ??_C@_1M@DHHMBNDP@?$AAa?$AAr?$AA?9?$AAM?$AAA@ 100259f8     libucrt:lcidtoname_downlevel.obj
 0002:00004a04       ??_C@_1M@BNBLJCGH@?$AAe?$AAn?$AA?9?$AAI?$AAE@ 10025a04     libucrt:lcidtoname_downlevel.obj
 0002:00004a10       ??_C@_1M@GEPAFMDL@?$AAe?$AAs?$AA?9?$AAP?$AAA@ 10025a10     libucrt:lcidtoname_downlevel.obj
 0002:00004a1c       ??_C@_1M@OJONDMDL@?$AAf?$AAr?$AA?9?$AAM?$AAC@ 10025a1c     libucrt:lcidtoname_downlevel.obj
 0002:00004a28       ??_C@_1BG@OBCNFJB@?$AAs?$AAr?$AA?9?$AAB?$AAA?$AA?9?$AAL?$AAa?$AAt?$AAn@ 10025a28     libucrt:lcidtoname_downlevel.obj
 0002:00004a40       ??_C@_1O@KEMEEGPO@?$AAs?$AAm?$AAa?$AA?9?$AAN?$AAO@ 10025a40     libucrt:lcidtoname_downlevel.obj
 0002:00004a50       ??_C@_1M@ELMGFODK@?$AAa?$AAr?$AA?9?$AAT?$AAN@ 10025a50     libucrt:lcidtoname_downlevel.obj
 0002:00004a5c       ??_C@_1M@BHDLHFAF@?$AAe?$AAn?$AA?9?$AAZ?$AAA@ 10025a5c     libucrt:lcidtoname_downlevel.obj
 0002:00004a68       ??_C@_1M@BMGIGLIF@?$AAe?$AAs?$AA?9?$AAD?$AAO@ 10025a68     libucrt:lcidtoname_downlevel.obj
 0002:00004a74       ??_C@_1BG@CMBHIPBE@?$AAs?$AAr?$AA?9?$AAB?$AAA?$AA?9?$AAC?$AAy?$AAr?$AAl@ 10025a74     libucrt:lcidtoname_downlevel.obj
 0002:00004a8c       ??_C@_1O@HEDBLHNP@?$AAs?$AAm?$AAa?$AA?9?$AAS?$AAE@ 10025a8c     libucrt:lcidtoname_downlevel.obj
 0002:00004a9c       ??_C@_1M@DAGCADIM@?$AAa?$AAr?$AA?9?$AAO?$AAM@ 10025a9c     libucrt:lcidtoname_downlevel.obj
 0002:00004aa8       ??_C@_1M@FODLMICG@?$AAe?$AAn?$AA?9?$AAJ?$AAM@ 10025aa8     libucrt:lcidtoname_downlevel.obj
 0002:00004ab4       ??_C@_1M@DNMLCIHB@?$AAe?$AAs?$AA?9?$AAV?$AAE@ 10025ab4     libucrt:lcidtoname_downlevel.obj
 0002:00004ac0       ??_C@_1O@EOKHMKJK@?$AAs?$AAm?$AAs?$AA?9?$AAF?$AAI@ 10025ac0     libucrt:lcidtoname_downlevel.obj
 0002:00004ad0       ??_C@_1M@CAFJMKOF@?$AAa?$AAr?$AA?9?$AAY?$AAE@ 10025ad0     libucrt:lcidtoname_downlevel.obj
 0002:00004adc       ??_C@_1M@CBFHIJLI@?$AAe?$AAn?$AA?9?$AAC?$AAB@ 10025adc     libucrt:lcidtoname_downlevel.obj
 0002:00004ae8       ??_C@_1M@BGNFLDN@?$AAe?$AAs?$AA?9?$AAC?$AAO@ 10025ae8     libucrt:lcidtoname_downlevel.obj
 0002:00004af4       ??_C@_1O@JMPHMAMC@?$AAs?$AAm?$AAn?$AA?9?$AAF?$AAI@ 10025af4     libucrt:lcidtoname_downlevel.obj
 0002:00004b04       ??_C@_1M@JLANABKE@?$AAa?$AAr?$AA?9?$AAS?$AAY@ 10025b04     libucrt:lcidtoname_downlevel.obj
 0002:00004b10       ??_C@_1M@HPKGCFGN@?$AAe?$AAn?$AA?9?$AAB?$AAZ@ 10025b10     libucrt:lcidtoname_downlevel.obj
 0002:00004b1c       ??_C@_1M@OLJCMLGM@?$AAe?$AAs?$AA?9?$AAP?$AAE@ 10025b1c     libucrt:lcidtoname_downlevel.obj
 0002:00004b28       ??_C@_1M@MKKGFKLE@?$AAa?$AAr?$AA?9?$AAJ?$AAO@ 10025b28     libucrt:lcidtoname_downlevel.obj
 0002:00004b34       ??_C@_1M@EKPGLDNI@?$AAe?$AAn?$AA?9?$AAT?$AAT@ 10025b34     libucrt:lcidtoname_downlevel.obj
 0002:00004b40       ??_C@_1M@OONGHFHE@?$AAe?$AAs?$AA?9?$AAA?$AAR@ 10025b40     libucrt:lcidtoname_downlevel.obj
 0002:00004b4c       ??_C@_1M@OOJFGBHE@?$AAa?$AAr?$AA?9?$AAL?$AAB@ 10025b4c     libucrt:lcidtoname_downlevel.obj
 0002:00004b58       ??_C@_1M@GCEJHNEG@?$AAe?$AAn?$AA?9?$AAZ?$AAW@ 10025b58     libucrt:lcidtoname_downlevel.obj
 0002:00004b64       ??_C@_1M@JNOCAHJI@?$AAe?$AAs?$AA?9?$AAE?$AAC@ 10025b64     libucrt:lcidtoname_downlevel.obj
 0002:00004b70       ??_C@_1M@JEFHPGGB@?$AAa?$AAr?$AA?9?$AAK?$AAW@ 10025b70     libucrt:lcidtoname_downlevel.obj
 0002:00004b7c       ??_C@_1M@MLKIBJOJ@?$AAe?$AAn?$AA?9?$AAP?$AAH@ 10025b7c     libucrt:lcidtoname_downlevel.obj
 0002:00004b88       ??_C@_1M@BDNIPEND@?$AAe?$AAs?$AA?9?$AAC?$AAL@ 10025b88     libucrt:lcidtoname_downlevel.obj
 0002:00004b94       ??_C@_1M@MPNMEKBD@?$AAa?$AAr?$AA?9?$AAA?$AAE@ 10025b94     libucrt:lcidtoname_downlevel.obj
 0002:00004ba0       ??_C@_1M@KBJALCPI@?$AAe?$AAs?$AA?9?$AAU?$AAY@ 10025ba0     libucrt:lcidtoname_downlevel.obj
 0002:00004bac       ??_C@_1M@LLCCOAGA@?$AAa?$AAr?$AA?9?$AAB?$AAH@ 10025bac     libucrt:lcidtoname_downlevel.obj
 0002:00004bb8       ??_C@_1M@PBFNCDEL@?$AAe?$AAs?$AA?9?$AAP?$AAY@ 10025bb8     libucrt:lcidtoname_downlevel.obj
 0002:00004bc4       ??_C@_1M@EDGINPNP@?$AAa?$AAr?$AA?9?$AAQ?$AAA@ 10025bc4     libucrt:lcidtoname_downlevel.obj
 0002:00004bd0       ??_C@_1M@MKDBIIJI@?$AAe?$AAs?$AA?9?$AAB?$AAO@ 10025bd0     libucrt:lcidtoname_downlevel.obj
 0002:00004bdc       ??_C@_1M@CPKKEBLD@?$AAe?$AAs?$AA?9?$AAS?$AAV@ 10025bdc     libucrt:lcidtoname_downlevel.obj
 0002:00004be8       ??_C@_1M@NDBGMMJL@?$AAe?$AAs?$AA?9?$AAH?$AAN@ 10025be8     libucrt:lcidtoname_downlevel.obj
 0002:00004bf4       ??_C@_1M@JIJIBHDP@?$AAe?$AAs?$AA?9?$AAN?$AAI@ 10025bf4     libucrt:lcidtoname_downlevel.obj
 0002:00004c00       ??_C@_1M@CGFMKEEK@?$AAe?$AAs?$AA?9?$AAP?$AAR@ 10025c00     libucrt:lcidtoname_downlevel.obj
 0002:00004c0c       ??_C@_1O@ICJHKIIK@?$AAz?$AAh?$AA?9?$AAC?$AAH?$AAT@ 10025c0c     libucrt:lcidtoname_downlevel.obj
 0002:00004c1c       ??_C@_15CLNEJCE@?$AAs?$AAr@ 10025c1c     libucrt:lcidtoname_downlevel.obj
 0002:00005348       ??_C@_1M@KAHEKEIG@?$AAa?$AAf?$AA?9?$AAz?$AAa@ 10026348     libucrt:lcidtoname_downlevel.obj
 0002:00005354       ??_C@_1M@GIECOABL@?$AAa?$AAr?$AA?9?$AAa?$AAe@ 10026354     libucrt:lcidtoname_downlevel.obj
 0002:00005360       ??_C@_1M@BMLMEKGI@?$AAa?$AAr?$AA?9?$AAb?$AAh@ 10026360     libucrt:lcidtoname_downlevel.obj
 0002:0000536c       ??_C@_1M@DAPFDGGB@?$AAa?$AAr?$AA?9?$AAd?$AAz@ 1002636c     libucrt:lcidtoname_downlevel.obj
 0002:00005378       ??_C@_1M@FJNKGKIG@?$AAa?$AAr?$AA?9?$AAe?$AAg@ 10026378     libucrt:lcidtoname_downlevel.obj
 0002:00005384       ??_C@_1M@FLGKKCLO@?$AAa?$AAr?$AA?9?$AAi?$AAq@ 10026384     libucrt:lcidtoname_downlevel.obj
 0002:00005390       ??_C@_1M@GNDIPALM@?$AAa?$AAr?$AA?9?$AAj?$AAo@ 10026390     libucrt:lcidtoname_downlevel.obj
 0002:0000539c       ??_C@_1M@DDMJFMGJ@?$AAa?$AAr?$AA?9?$AAk?$AAw@ 1002639c     libucrt:lcidtoname_downlevel.obj
 0002:000053a8       ??_C@_1M@EJALMLHM@?$AAa?$AAr?$AA?9?$AAl?$AAb@ 100263a8     libucrt:lcidtoname_downlevel.obj
 0002:000053b4       ??_C@_1M@MOBDBLOC@?$AAa?$AAr?$AA?9?$AAl?$AAy@ 100263b4     libucrt:lcidtoname_downlevel.obj
 0002:000053c0       ??_C@_1M@JAOCLHDH@?$AAa?$AAr?$AA?9?$AAm?$AAa@ 100263c0     libucrt:lcidtoname_downlevel.obj
 0002:000053cc       ??_C@_1M@JHPMKJIE@?$AAa?$AAr?$AA?9?$AAo?$AAm@ 100263cc     libucrt:lcidtoname_downlevel.obj
 0002:000053d8       ??_C@_1M@OEPGHFNH@?$AAa?$AAr?$AA?9?$AAq?$AAa@ 100263d8     libucrt:lcidtoname_downlevel.obj
 0002:000053e4       ??_C@_1M@KJDONENM@?$AAa?$AAr?$AA?9?$AAs?$AAa@ 100263e4     libucrt:lcidtoname_downlevel.obj
 0002:000053f0       ??_C@_1M@DMJDKLKM@?$AAa?$AAr?$AA?9?$AAs?$AAy@ 100263f0     libucrt:lcidtoname_downlevel.obj
 0002:000053fc       ??_C@_1M@OMFIPEDC@?$AAa?$AAr?$AA?9?$AAt?$AAn@ 100263fc     libucrt:lcidtoname_downlevel.obj
 0002:00005408       ??_C@_1M@IHMHGAON@?$AAa?$AAr?$AA?9?$AAy?$AAe@ 10026408     libucrt:lcidtoname_downlevel.obj
 0002:00005414       ??_C@_1BG@KDCPGJGB@?$AAa?$AAz?$AA?9?$AAa?$AAz?$AA?9?$AAc?$AAy?$AAr?$AAl@ 10026414     libucrt:lcidtoname_downlevel.obj
 0002:0000542c       ??_C@_1BG@IBCKDDOE@?$AAa?$AAz?$AA?9?$AAa?$AAz?$AA?9?$AAl?$AAa?$AAt?$AAn@ 1002642c     libucrt:lcidtoname_downlevel.obj
 0002:00005444       ??_C@_1M@EGPFDCPD@?$AAb?$AAe?$AA?9?$AAb?$AAy@ 10026444     libucrt:lcidtoname_downlevel.obj
 0002:00005450       ??_C@_1M@PCMGMCGC@?$AAb?$AAg?$AA?9?$AAb?$AAg@ 10026450     libucrt:lcidtoname_downlevel.obj
 0002:0000545c       ??_C@_1M@BJBMFGOB@?$AAb?$AAn?$AA?9?$AAi?$AAn@ 1002645c     libucrt:lcidtoname_downlevel.obj
 0002:00005468       ??_C@_1BG@EAKMMACD@?$AAb?$AAs?$AA?9?$AAb?$AAa?$AA?9?$AAl?$AAa?$AAt?$AAn@ 10026468     libucrt:lcidtoname_downlevel.obj
 0002:00005480       ??_C@_1M@KGADAODK@?$AAc?$AAa?$AA?9?$AAe?$AAs@ 10026480     libucrt:lcidtoname_downlevel.obj
 0002:0000548c       ??_C@_1M@COAJPDHI@?$AAc?$AAs?$AA?9?$AAc?$AAz@ 1002648c     libucrt:lcidtoname_downlevel.obj
 0002:00005498       ??_C@_1M@DHBHFONH@?$AAc?$AAy?$AA?9?$AAg?$AAb@ 10026498     libucrt:lcidtoname_downlevel.obj
 0002:000054a4       ??_C@_1M@IMGKELGA@?$AAd?$AAa?$AA?9?$AAd?$AAk@ 100264a4     libucrt:lcidtoname_downlevel.obj
 0002:000054b0       ??_C@_1M@NNDGDNGA@?$AAd?$AAe?$AA?9?$AAa?$AAt@ 100264b0     libucrt:lcidtoname_downlevel.obj
 0002:000054bc       ??_C@_1M@IKDBHEEM@?$AAd?$AAe?$AA?9?$AAc?$AAh@ 100264bc     libucrt:lcidtoname_downlevel.obj
 0002:000054c8       ??_C@_1M@GFFOJMCJ@?$AAd?$AAe?$AA?9?$AAd?$AAe@ 100264c8     libucrt:lcidtoname_downlevel.obj
 0002:000054d4       ??_C@_1M@MDNLKBPM@?$AAd?$AAe?$AA?9?$AAl?$AAi@ 100264d4     libucrt:lcidtoname_downlevel.obj
 0002:000054e0       ??_C@_1M@NJBEEJNL@?$AAd?$AAe?$AA?9?$AAl?$AAu@ 100264e0     libucrt:lcidtoname_downlevel.obj
 0002:000054ec       ??_C@_1O@GNNELBAP@?$AAd?$AAi?$AAv?$AA?9?$AAm?$AAv@ 100264ec     libucrt:lcidtoname_downlevel.obj
 0002:000054fc       ??_C@_1M@EJLEOGAE@?$AAe?$AAl?$AA?9?$AAg?$AAr@ 100264fc     libucrt:lcidtoname_downlevel.obj
 0002:00005508       ??_C@_1M@GMPONJN@?$AAe?$AAn?$AA?9?$AAa?$AAu@ 10026508     libucrt:lcidtoname_downlevel.obj
 0002:00005514       ??_C@_1M@NIDIIPGF@?$AAe?$AAn?$AA?9?$AAb?$AAz@ 10026514     libucrt:lcidtoname_downlevel.obj
 0002:00005520       ??_C@_1M@JEHMIMFO@?$AAe?$AAn?$AA?9?$AAc?$AAa@ 10026520     libucrt:lcidtoname_downlevel.obj
 0002:0000552c       ??_C@_1M@IGMJCDLA@?$AAe?$AAn?$AA?9?$AAc?$AAb@ 1002652c     libucrt:lcidtoname_downlevel.obj
 0002:00005538       ??_C@_1M@BNFIGBKG@?$AAe?$AAn?$AA?9?$AAg?$AAb@ 10026538     libucrt:lcidtoname_downlevel.obj
 0002:00005544       ??_C@_1M@LKIFDIGP@?$AAe?$AAn?$AA?9?$AAi?$AAe@ 10026544     libucrt:lcidtoname_downlevel.obj
 0002:00005550       ??_C@_1M@PJKFGCCO@?$AAe?$AAn?$AA?9?$AAj?$AAm@ 10026550     libucrt:lcidtoname_downlevel.obj
 0002:0000555c       ??_C@_1M@KPPKEPBO@?$AAe?$AAn?$AA?9?$AAn?$AAz@ 1002655c     libucrt:lcidtoname_downlevel.obj
 0002:00005568       ??_C@_1M@GMDGLDOB@?$AAe?$AAn?$AA?9?$AAp?$AAh@ 10026568     libucrt:lcidtoname_downlevel.obj
 0002:00005574       ??_C@_1M@ONGIBJNA@?$AAe?$AAn?$AA?9?$AAt?$AAt@ 10026574     libucrt:lcidtoname_downlevel.obj
 0002:00005580       ??_C@_1M@LLODPCMM@?$AAe?$AAn?$AA?9?$AAu?$AAs@ 10026580     libucrt:lcidtoname_downlevel.obj
 0002:0000558c       ??_C@_1M@LAKFNPAN@?$AAe?$AAn?$AA?9?$AAz?$AAa@ 1002658c     libucrt:lcidtoname_downlevel.obj
 0002:00005598       ??_C@_1M@MFNHNHEO@?$AAe?$AAn?$AA?9?$AAz?$AAw@ 10026598     libucrt:lcidtoname_downlevel.obj
 0002:000055a4       ??_C@_1M@EJEINPHM@?$AAe?$AAs?$AA?9?$AAa?$AAr@ 100265a4     libucrt:lcidtoname_downlevel.obj
 0002:000055b0       ??_C@_1M@GNKPCCJA@?$AAe?$AAs?$AA?9?$AAb?$AAo@ 100265b0     libucrt:lcidtoname_downlevel.obj
 0002:000055bc       ??_C@_1M@LEEGFONL@?$AAe?$AAs?$AA?9?$AAc?$AAl@ 100265bc     libucrt:lcidtoname_downlevel.obj
 0002:000055c8       ??_C@_1M@KGPDPBDF@?$AAe?$AAs?$AA?9?$AAc?$AAo@ 100265c8     libucrt:lcidtoname_downlevel.obj
 0002:000055d4       ??_C@_1M@EIAHOHH@?$AAe?$AAs?$AA?9?$AAc?$AAr@ 100265d4     libucrt:lcidtoname_downlevel.obj
 0002:000055e0       ??_C@_1M@LLPGMBIN@?$AAe?$AAs?$AA?9?$AAd?$AAo@ 100265e0     libucrt:lcidtoname_downlevel.obj
 0002:000055ec       ??_C@_1M@DKHMKNJA@?$AAe?$AAs?$AA?9?$AAe?$AAc@ 100265ec     libucrt:lcidtoname_downlevel.obj
 0002:000055f8       ??_C@_1M@GKGFPKAP@?$AAe?$AAs?$AA?9?$AAe?$AAs@ 100265f8     libucrt:lcidtoname_downlevel.obj
 0002:00005604       ??_C@_1M@LKHKGDLN@?$AAe?$AAs?$AA?9?$AAg?$AAt@ 10026604     libucrt:lcidtoname_downlevel.obj
 0002:00005610       ??_C@_1M@HEIIGGJD@?$AAe?$AAs?$AA?9?$AAh?$AAn@ 10026610     libucrt:lcidtoname_downlevel.obj
 0002:0000561c       ??_C@_1M@FBDHPPGD@?$AAe?$AAs?$AA?9?$AAm?$AAx@ 1002661c     libucrt:lcidtoname_downlevel.obj
 0002:00005628       ??_C@_1M@DPAGLNDH@?$AAe?$AAs?$AA?9?$AAn?$AAi@ 10026628     libucrt:lcidtoname_downlevel.obj
 0002:00005634       ??_C@_1M@MDGOPGDD@?$AAe?$AAs?$AA?9?$AAp?$AAa@ 10026634     libucrt:lcidtoname_downlevel.obj
 0002:00005640       ??_C@_1M@EMAMGBGE@?$AAe?$AAs?$AA?9?$AAp?$AAe@ 10026640     libucrt:lcidtoname_downlevel.obj
 0002:0000564c       ??_C@_1M@IBMCAOEC@?$AAe?$AAs?$AA?9?$AAp?$AAr@ 1002664c     libucrt:lcidtoname_downlevel.obj
 0002:00005658       ??_C@_1M@FGMDIJED@?$AAe?$AAs?$AA?9?$AAp?$AAy@ 10026658     libucrt:lcidtoname_downlevel.obj
 0002:00005664       ??_C@_1M@IIDEOLLL@?$AAe?$AAs?$AA?9?$AAs?$AAv@ 10026664     libucrt:lcidtoname_downlevel.obj
 0002:00005670       ??_C@_1M@GAOBIPA@?$AAe?$AAs?$AA?9?$AAu?$AAy@ 10026670     libucrt:lcidtoname_downlevel.obj
 0002:0000567c       ??_C@_1M@JKFFICHJ@?$AAe?$AAs?$AA?9?$AAv?$AAe@ 1002667c     libucrt:lcidtoname_downlevel.obj
 0002:00005688       ??_C@_1M@PNMLOJDF@?$AAe?$AAt?$AA?9?$AAe?$AAe@ 10026688     libucrt:lcidtoname_downlevel.obj
 0002:00005694       ??_C@_1M@GHHLIKEI@?$AAe?$AAu?$AA?9?$AAe?$AAs@ 10026694     libucrt:lcidtoname_downlevel.obj
 0002:000056a0       ??_C@_1M@PBNONODE@?$AAf?$AAa?$AA?9?$AAi?$AAr@ 100266a0     libucrt:lcidtoname_downlevel.obj
 0002:000056ac       ??_C@_1M@JEEHPMIL@?$AAf?$AAi?$AA?9?$AAf?$AAi@ 100266ac     libucrt:lcidtoname_downlevel.obj
 0002:000056b8       ??_C@_1M@LMDCNDBA@?$AAf?$AAo?$AA?9?$AAf?$AAo@ 100266b8     libucrt:lcidtoname_downlevel.obj
 0002:000056c4       ??_C@_1M@JKEOHLDK@?$AAf?$AAr?$AA?9?$AAb?$AAe@ 100266c4     libucrt:lcidtoname_downlevel.obj
 0002:000056d0       ??_C@_1M@NOHADPMI@?$AAf?$AAr?$AA?9?$AAc?$AAa@ 100266d0     libucrt:lcidtoname_downlevel.obj
 0002:000056dc       ??_C@_1M@KDHIHAEC@?$AAf?$AAr?$AA?9?$AAc?$AAh@ 100266dc     libucrt:lcidtoname_downlevel.obj
 0002:000056e8       ??_C@_1M@MMBBFGAK@?$AAf?$AAr?$AA?9?$AAf?$AAr@ 100266e8     libucrt:lcidtoname_downlevel.obj
 0002:000056f4       ??_C@_1M@PAFNENNF@?$AAf?$AAr?$AA?9?$AAl?$AAu@ 100266f4     libucrt:lcidtoname_downlevel.obj
 0002:00005700       ??_C@_1M@EOHDJGDD@?$AAf?$AAr?$AA?9?$AAm?$AAc@ 10026700     libucrt:lcidtoname_downlevel.obj
 0002:0000570c       ??_C@_1M@FAPLLOPF@?$AAg?$AAl?$AA?9?$AAe?$AAs@ 1002670c     libucrt:lcidtoname_downlevel.obj
 0002:00005718       ??_C@_1M@FOPBFLOO@?$AAg?$AAu?$AA?9?$AAi?$AAn@ 10026718     libucrt:lcidtoname_downlevel.obj
 0002:00005724       ??_C@_1M@KBMCINPM@?$AAh?$AAe?$AA?9?$AAi?$AAl@ 10026724     libucrt:lcidtoname_downlevel.obj
 0002:00005730       ??_C@_1M@BBPHKFPJ@?$AAh?$AAi?$AA?9?$AAi?$AAn@ 10026730     libucrt:lcidtoname_downlevel.obj
 0002:0000573c       ??_C@_1M@PMBNDPHD@?$AAh?$AAr?$AA?9?$AAb?$AAa@ 1002673c     libucrt:lcidtoname_downlevel.obj
 0002:00005748       ??_C@_1M@BPCKOEGE@?$AAh?$AAr?$AA?9?$AAh?$AAr@ 10026748     libucrt:lcidtoname_downlevel.obj
 0002:00005754       ??_C@_1M@GACBMHKE@?$AAh?$AAu?$AA?9?$AAh?$AAu@ 10026754     libucrt:lcidtoname_downlevel.obj
 0002:00005760       ??_C@_1M@MILPAJJC@?$AAh?$AAy?$AA?9?$AAa?$AAm@ 10026760     libucrt:lcidtoname_downlevel.obj
 0002:0000576c       ??_C@_1M@BABBICEC@?$AAi?$AAd?$AA?9?$AAi?$AAd@ 1002676c     libucrt:lcidtoname_downlevel.obj
 0002:00005778       ??_C@_1M@BIKNHHPF@?$AAi?$AAs?$AA?9?$AAi?$AAs@ 10026778     libucrt:lcidtoname_downlevel.obj
 0002:00005784       ??_C@_1M@NMPCJPHE@?$AAi?$AAt?$AA?9?$AAc?$AAh@ 10026784     libucrt:lcidtoname_downlevel.obj
 0002:00005790       ??_C@_1M@GHKGFEDF@?$AAi?$AAt?$AA?9?$AAi?$AAt@ 10026790     libucrt:lcidtoname_downlevel.obj
 0002:0000579c       ??_C@_1M@NIEJCJJA@?$AAj?$AAa?$AA?9?$AAj?$AAp@ 1002679c     libucrt:lcidtoname_downlevel.obj
 0002:000057a8       ??_C@_1M@JILFNBIM@?$AAk?$AAa?$AA?9?$AAg?$AAe@ 100267a8     libucrt:lcidtoname_downlevel.obj
 0002:000057b4       ??_C@_1M@PACPMGPH@?$AAk?$AAk?$AA?9?$AAk?$AAz@ 100267b4     libucrt:lcidtoname_downlevel.obj
 0002:000057c0       ??_C@_1M@IELFGMHA@?$AAk?$AAn?$AA?9?$AAi?$AAn@ 100267c0     libucrt:lcidtoname_downlevel.obj
 0002:000057cc       ??_C@_1O@IBBJHCH@?$AAk?$AAo?$AAk?$AA?9?$AAi?$AAn@ 100267cc     libucrt:lcidtoname_downlevel.obj
 0002:000057dc       ??_C@_1M@DMHAEOGC@?$AAk?$AAo?$AA?9?$AAk?$AAr@ 100267dc     libucrt:lcidtoname_downlevel.obj
 0002:000057e8       ??_C@_1M@HBAHBIGA@?$AAk?$AAy?$AA?9?$AAk?$AAg@ 100267e8     libucrt:lcidtoname_downlevel.obj
 0002:000057f4       ??_C@_1M@KPMILCJG@?$AAl?$AAt?$AA?9?$AAl?$AAt@ 100267f4     libucrt:lcidtoname_downlevel.obj
 0002:00005800       ??_C@_1M@BDEKKCA@?$AAl?$AAv?$AA?9?$AAl?$AAv@ 10026800     libucrt:lcidtoname_downlevel.obj
 0002:0000580c       ??_C@_1M@ELCKCCJJ@?$AAm?$AAi?$AA?9?$AAn?$AAz@ 1002680c     libucrt:lcidtoname_downlevel.obj
 0002:00005818       ??_C@_1M@CBOOLAPA@?$AAm?$AAk?$AA?9?$AAm?$AAk@ 10026818     libucrt:lcidtoname_downlevel.obj
 0002:00005824       ??_C@_1M@GPHNBJKN@?$AAm?$AAl?$AA?9?$AAi?$AAn@ 10026824     libucrt:lcidtoname_downlevel.obj
 0002:00005830       ??_C@_1M@PABJILIG@?$AAm?$AAn?$AA?9?$AAm?$AAn@ 10026830     libucrt:lcidtoname_downlevel.obj
 0002:0000583c       ??_C@_1M@FGBKKIPG@?$AAm?$AAr?$AA?9?$AAi?$AAn@ 1002683c     libucrt:lcidtoname_downlevel.obj
 0002:00005848       ??_C@_1M@NDBPDDAL@?$AAm?$AAs?$AA?9?$AAb?$AAn@ 10026848     libucrt:lcidtoname_downlevel.obj
 0002:00005854       ??_C@_1M@OPIHOOPI@?$AAm?$AAs?$AA?9?$AAm?$AAy@ 10026854     libucrt:lcidtoname_downlevel.obj
 0002:00005860       ??_C@_1M@PPDBCNFM@?$AAm?$AAt?$AA?9?$AAm?$AAt@ 10026860     libucrt:lcidtoname_downlevel.obj
 0002:0000586c       ??_C@_1M@KDJDKMDD@?$AAn?$AAb?$AA?9?$AAn?$AAo@ 1002686c     libucrt:lcidtoname_downlevel.obj
 0002:00005878       ??_C@_1M@KFCFLMJP@?$AAn?$AAl?$AA?9?$AAb?$AAe@ 10026878     libucrt:lcidtoname_downlevel.obj
 0002:00005884       ??_C@_1M@KPOPDDGO@?$AAn?$AAl?$AA?9?$AAn?$AAl@ 10026884     libucrt:lcidtoname_downlevel.obj
 0002:00005890       ??_C@_1M@LJKPEMLN@?$AAn?$AAn?$AA?9?$AAn?$AAo@ 10026890     libucrt:lcidtoname_downlevel.obj
 0002:0000589c       ??_C@_1M@BDGHHBFL@?$AAn?$AAs?$AA?9?$AAz?$AAa@ 1002689c     libucrt:lcidtoname_downlevel.obj
 0002:000058a8       ??_C@_1M@IDEHOAP@?$AAp?$AAa?$AA?9?$AAi?$AAn@ 100268a8     libucrt:lcidtoname_downlevel.obj
 0002:000058b4       ??_C@_1M@HDBKGOGH@?$AAp?$AAl?$AA?9?$AAp?$AAl@ 100268b4     libucrt:lcidtoname_downlevel.obj
 0002:000058c0       ??_C@_1M@LJLLCMEH@?$AAp?$AAt?$AA?9?$AAb?$AAr@ 100268c0     libucrt:lcidtoname_downlevel.obj
 0002:000058cc       ??_C@_1M@NCMONAAL@?$AAp?$AAt?$AA?9?$AAp?$AAt@ 100268cc     libucrt:lcidtoname_downlevel.obj
 0002:000058d8       ??_C@_1O@EAKMAJDN@?$AAq?$AAu?$AAz?$AA?9?$AAb?$AAo@ 100268d8     libucrt:lcidtoname_downlevel.obj
 0002:000058e8       ??_C@_1O@BHHPIGDN@?$AAq?$AAu?$AAz?$AA?9?$AAe?$AAc@ 100268e8     libucrt:lcidtoname_downlevel.obj
 0002:000058f8       ??_C@_1O@GBAPEKMJ@?$AAq?$AAu?$AAz?$AA?9?$AAp?$AAe@ 100268f8     libucrt:lcidtoname_downlevel.obj
 0002:00005908       ??_C@_1M@CLGLEFBO@?$AAr?$AAo?$AA?9?$AAr?$AAo@ 10026908     libucrt:lcidtoname_downlevel.obj
 0002:00005914       ??_C@_1M@CEEDODME@?$AAr?$AAu?$AA?9?$AAr?$AAu@ 10026914     libucrt:lcidtoname_downlevel.obj
 0002:00005920       ??_C@_1M@HPKKKMPP@?$AAs?$AAa?$AA?9?$AAi?$AAn@ 10026920     libucrt:lcidtoname_downlevel.obj
 0002:0000592c       ??_C@_1M@BKMAIGOJ@?$AAs?$AAe?$AA?9?$AAf?$AAi@ 1002692c     libucrt:lcidtoname_downlevel.obj
 0002:00005938       ??_C@_1M@NDPIFLFI@?$AAs?$AAe?$AA?9?$AAn?$AAo@ 10026938     libucrt:lcidtoname_downlevel.obj
 0002:00005944       ??_C@_1M@DANKKHJ@?$AAs?$AAe?$AA?9?$AAs?$AAe@ 10026944     libucrt:lcidtoname_downlevel.obj
 0002:00005950       ??_C@_1M@PNBLONPJ@?$AAs?$AAk?$AA?9?$AAs?$AAk@ 10026950     libucrt:lcidtoname_downlevel.obj
 0002:0000595c       ??_C@_1M@LFMODOAL@?$AAs?$AAl?$AA?9?$AAs?$AAi@ 1002695c     libucrt:lcidtoname_downlevel.obj
 0002:00005968       ??_C@_1O@DFKOMPG@?$AAs?$AAm?$AAa?$AA?9?$AAn?$AAo@ 10026968     libucrt:lcidtoname_downlevel.obj
 0002:00005978       ??_C@_1O@NDKPBNNH@?$AAs?$AAm?$AAa?$AA?9?$AAs?$AAe@ 10026978     libucrt:lcidtoname_downlevel.obj
 0002:00005988       ??_C@_1O@PLLKBHAB@?$AAs?$AAm?$AAj?$AA?9?$AAn?$AAo@ 10026988     libucrt:lcidtoname_downlevel.obj
 0002:00005998       ??_C@_1O@CLEPOGCA@?$AAs?$AAm?$AAj?$AA?9?$AAs?$AAe@ 10026998     libucrt:lcidtoname_downlevel.obj
 0002:000059a8       ??_C@_1O@DLGJGKMK@?$AAs?$AAm?$AAn?$AA?9?$AAf?$AAi@ 100269a8     libucrt:lcidtoname_downlevel.obj
 0002:000059b8       ??_C@_1O@OJDJGAJC@?$AAs?$AAm?$AAs?$AA?9?$AAf?$AAi@ 100269b8     libucrt:lcidtoname_downlevel.obj
 0002:000059c8       ??_C@_1M@BOFOGHPB@?$AAs?$AAq?$AA?9?$AAa?$AAl@ 100269c8     libucrt:lcidtoname_downlevel.obj
 0002:000059d4       ??_C@_1BG@LJBBIPGB@?$AAs?$AAr?$AA?9?$AAb?$AAa?$AA?9?$AAc?$AAy?$AAr?$AAl@ 100269d4     libucrt:lcidtoname_downlevel.obj
 0002:000059ec       ??_C@_1BG@JLBENFOE@?$AAs?$AAr?$AA?9?$AAb?$AAa?$AA?9?$AAl?$AAa?$AAt?$AAn@ 100269ec     libucrt:lcidtoname_downlevel.obj
 0002:00005a04       ??_C@_1BG@KODPNHE@?$AAs?$AAr?$AA?9?$AAs?$AAp?$AA?9?$AAc?$AAy?$AAr?$AAl@ 10026a04     libucrt:lcidtoname_downlevel.obj
 0002:00005a1c       ??_C@_1BG@CIOGKHPB@?$AAs?$AAr?$AA?9?$AAs?$AAp?$AA?9?$AAl?$AAa?$AAt?$AAn@ 10026a1c     libucrt:lcidtoname_downlevel.obj
 0002:00005a34       ??_C@_1M@NGFJLMAC@?$AAs?$AAv?$AA?9?$AAf?$AAi@ 10026a34     libucrt:lcidtoname_downlevel.obj
 0002:00005a40       ??_C@_1M@MPJEJAJC@?$AAs?$AAv?$AA?9?$AAs?$AAe@ 10026a40     libucrt:lcidtoname_downlevel.obj
 0002:00005a4c       ??_C@_1M@MPNDHLFK@?$AAs?$AAw?$AA?9?$AAk?$AAe@ 10026a4c     libucrt:lcidtoname_downlevel.obj
 0002:00005a58       ??_C@_1O@KOHBJJI@?$AAs?$AAy?$AAr?$AA?9?$AAs?$AAy@ 10026a58     libucrt:lcidtoname_downlevel.obj
 0002:00005a68       ??_C@_1M@LDCEFHA@?$AAt?$AAa?$AA?9?$AAi?$AAn@ 10026a68     libucrt:lcidtoname_downlevel.obj
 0002:00005a74       ??_C@_1M@CNJOFAK@?$AAt?$AAe?$AA?9?$AAi?$AAn@ 10026a74     libucrt:lcidtoname_downlevel.obj
 0002:00005a80       ??_C@_1M@GNAECACD@?$AAt?$AAh?$AA?9?$AAt?$AAh@ 10026a80     libucrt:lcidtoname_downlevel.obj
 0002:00005a8c       ??_C@_1M@CHBIHOJO@?$AAt?$AAn?$AA?9?$AAz?$AAa@ 10026a8c     libucrt:lcidtoname_downlevel.obj
 0002:00005a98       ??_C@_1M@GCCMIGPJ@?$AAt?$AAr?$AA?9?$AAt?$AAr@ 10026a98     libucrt:lcidtoname_downlevel.obj
 0002:00005aa4       ??_C@_1M@CELMCNBK@?$AAt?$AAt?$AA?9?$AAr?$AAu@ 10026aa4     libucrt:lcidtoname_downlevel.obj
 0002:00005ab0       ??_C@_1M@KLMCELGA@?$AAu?$AAk?$AA?9?$AAu?$AAa@ 10026ab0     libucrt:lcidtoname_downlevel.obj
 0002:00005abc       ??_C@_1M@EPAJJAJF@?$AAu?$AAr?$AA?9?$AAp?$AAk@ 10026abc     libucrt:lcidtoname_downlevel.obj
 0002:00005ac8       ??_C@_1BG@GEGPMCDJ@?$AAu?$AAz?$AA?9?$AAu?$AAz?$AA?9?$AAc?$AAy?$AAr?$AAl@ 10026ac8     libucrt:lcidtoname_downlevel.obj
 0002:00005ae0       ??_C@_1BG@EGGKJILM@?$AAu?$AAz?$AA?9?$AAu?$AAz?$AA?9?$AAl?$AAa?$AAt?$AAn@ 10026ae0     libucrt:lcidtoname_downlevel.obj
 0002:00005af8       ??_C@_1M@GFOCLFF@?$AAv?$AAi?$AA?9?$AAv?$AAn@ 10026af8     libucrt:lcidtoname_downlevel.obj
 0002:00005b04       ??_C@_1M@CPAMEDFI@?$AAx?$AAh?$AA?9?$AAz?$AAa@ 10026b04     libucrt:lcidtoname_downlevel.obj
 0002:00005b10       ??_C@_1O@EBKIFIGN@?$AAz?$AAh?$AA?9?$AAc?$AAh?$AAs@ 10026b10     libucrt:lcidtoname_downlevel.obj
 0002:00005b20       ??_C@_1O@NMHPGANE@?$AAz?$AAh?$AA?9?$AAc?$AAh?$AAt@ 10026b20     libucrt:lcidtoname_downlevel.obj
 0002:00005b30       ??_C@_1M@LPINJOMC@?$AAz?$AAh?$AA?9?$AAc?$AAn@ 10026b30     libucrt:lcidtoname_downlevel.obj
 0002:00005b3c       ??_C@_1M@OCJEJODD@?$AAz?$AAh?$AA?9?$AAh?$AAk@ 10026b3c     libucrt:lcidtoname_downlevel.obj
 0002:00005b48       ??_C@_1M@DNDLJINH@?$AAz?$AAh?$AA?9?$AAm?$AAo@ 10026b48     libucrt:lcidtoname_downlevel.obj
 0002:00005b54       ??_C@_1M@MBFDNDND@?$AAz?$AAh?$AA?9?$AAs?$AAg@ 10026b54     libucrt:lcidtoname_downlevel.obj
 0002:00005b60       ??_C@_1M@IMEPLEPE@?$AAz?$AAh?$AA?9?$AAt?$AAw@ 10026b60     libucrt:lcidtoname_downlevel.obj
 0002:00005b6c       ??_C@_1M@BBGHNHJP@?$AAz?$AAu?$AA?9?$AAz?$AAa@ 10026b6c     libucrt:lcidtoname_downlevel.obj
 0002:00005b78       ?large_power_data@?1??multiply_by_power_of_ten@__crt_strtox@@YA_NAAUbig_integer@2@I@Z@4QBIB 10026b78     libucrt:cfout.obj
 0002:00006480       ?large_power_indices@?1??multiply_by_power_of_ten@__crt_strtox@@YA_NAAUbig_integer@2@I@Z@4QBUunpack_index@?1??12@YA_N0I@Z@B 10027480     libucrt:cfout.obj
 0002:00006518       ?small_powers_of_ten@?1??multiply_by_power_of_ten@__crt_strtox@@YA_NAAUbig_integer@2@I@Z@4QBIB 10027518     libucrt:cfout.obj
 0002:0000653c       ??_C@_01GBGANLPD@0@        1002753c     libucrt:cfout.obj
 0002:00006540       ??_C@_05DNEBIAHO@1?$CDINF@ 10027540     libucrt:cfout.obj
 0002:00006548       ??_C@_06IMKFLFPG@1?$CDQNAN@ 10027548     libucrt:cfout.obj
 0002:00006550       ??_C@_06PGGFOGJG@1?$CDSNAN@ 10027550     libucrt:cfout.obj
 0002:00006558       ??_C@_05PHHOCPM@1?$CDIND@  10027558     libucrt:cfout.obj
 0002:000066c0       __infinity                 100276c0     libucrt:87tran.obj
 0002:000066ca       __minfinity                100276ca     libucrt:87tran.obj
 0002:000066d4       __logemax                  100276d4     libucrt:87tran.obj
 0002:000066fa       __OP_EXPjmptab             100276fa     libucrt:87tran.obj
 0002:00006720       __indefinite               10027720     libucrt:87disp.obj
 0002:0000672a       __piby2                    1002772a     libucrt:87disp.obj
 0002:00006734       __piby4                    10027734     libucrt:87disp.obj
 0002:00006768       __DEFAULT_CW_in_mem        10027768     libucrt:common.obj
 0002:0000676a       __pi_by_2_to_61            1002776a     libucrt:common.obj
 0002:000067a4       ??_C@_03MGHMBJCF@log@      100277a4     libucrt:libm_error.obj
 0002:000067a8       ??_C@_05HGHHAHAP@log10@    100277a8     libucrt:libm_error.obj
 0002:000067b0       ??_C@_03KHJOGHMM@exp@      100277b0     libucrt:libm_error.obj
 0002:000067b4       ??_C@_03JGHBODFD@pow@      100277b4     libucrt:libm_error.obj
 0002:000067b8       ??_C@_04FIHNOPOL@asin@     100277b8     libucrt:libm_error.obj
 0002:000067c0       ??_C@_04PDIFKINK@acos@     100277c0     libucrt:libm_error.obj
 0002:000067c8       ??_C@_04EIAKFFMI@sqrt@     100277c8     libucrt:libm_error.obj
 0002:000067d0       __real@3ff0000000000000    100277d0     libucrt:libm_error.obj
 0002:000067d8       ??_C@_1BA@BALFACEM@?$AAC?$AAO?$AAN?$AAO?$AAU?$AAT?$AA$@ 100277d8     libucrt:initcon.obj
 0002:00006800       ___acrt_log10_table_t      10027800     libucrt:log10_tables.obj
 0002:00006c10       ___acrt_log10_table_cb     10027c10     libucrt:log10_tables.obj
 0002:00007020       __real@3fe0000000000000    10028020     libucrt:powhlp.obj
 0002:00007110       ??_C@_04COOMCNPB@sinh@     10028110     libucrt:fpexcept.obj
 0002:00007118       ??_C@_04HPJJNFIM@cosh@     10028118     libucrt:fpexcept.obj
 0002:00007120       ??_C@_04FJHINJAO@tanh@     10028120     libucrt:fpexcept.obj
 0002:00007128       ??_C@_04MLLJIGOK@atan@     10028128     libucrt:fpexcept.obj
 0002:00007130       ??_C@_05KNGEOGJB@atan2@    10028130     libucrt:fpexcept.obj
 0002:00007138       ??_C@_03BLEJJJBH@sin@      10028138     libucrt:fpexcept.obj
 0002:0000713c       ??_C@_03LALBNOCG@cos@      1002813c     libucrt:fpexcept.obj
 0002:00007140       ??_C@_03IIINPABG@tan@      10028140     libucrt:fpexcept.obj
 0002:00007144       ??_C@_04GFPJNGEK@ceil@     10028144     libucrt:fpexcept.obj
 0002:0000714c       ??_C@_05PBJFFIGL@floor@    1002814c     libucrt:fpexcept.obj
 0002:00007154       ??_C@_04ODHECPBC@fabs@     10028154     libucrt:fpexcept.obj
 0002:0000715c       ??_C@_04EHEDPDJG@modf@     1002815c     libucrt:fpexcept.obj
 0002:00007164       ??_C@_05CEJMAHNP@ldexp@    10028164     libucrt:fpexcept.obj
 0002:0000716c       ??_C@_05KBKMEMPO@_cabs@    1002816c     libucrt:fpexcept.obj
 0002:00007174       ??_C@_06MEIMCGCF@_hypot@   10028174     libucrt:fpexcept.obj
 0002:0000717c       ??_C@_04KEPJIHGP@fmod@     1002817c     libucrt:fpexcept.obj
 0002:00007184       ??_C@_05GKKHEGJL@frexp@    10028184     libucrt:fpexcept.obj
 0002:0000718c       ??_C@_03MJLDFKDL@_y0@      1002818c     libucrt:fpexcept.obj
 0002:00007190       ??_C@_03NAKIGLHK@_y1@      10028190     libucrt:fpexcept.obj
 0002:00007194       ??_C@_03ONILCKOB@_yn@      10028194     libucrt:fpexcept.obj
 0002:00007198       ??_C@_05JGDBENOH@_logb@    10028198     libucrt:fpexcept.obj
 0002:000071a0       ??_C@_0L@KDOEJCKC@_nextafter@ 100281a0     libucrt:fpexcept.obj
 0002:000071b0       __d_inf                    100281b0     libucrt:util.obj
 0002:000071b8       __d_max                    100281b8     libucrt:util.obj
 0002:000071c0       __d_mzero                  100281c0     libucrt:util.obj
 0002:00007230       __load_config_used         10028230     LIBCMT:loadcfg.obj
 0002:00007300       __tls_used                 10028300     LIBCMT:tlssup.obj
 0002:00007318       ??_R4exception@std@@6B@    10028318     LIBCMT:throw_bad_alloc.obj
 0002:0000732c       ??_R3exception@std@@8      1002832c     LIBCMT:throw_bad_alloc.obj
 0002:0000733c       ??_R2exception@std@@8      1002833c     LIBCMT:throw_bad_alloc.obj
 0002:00007344       ??_R1A@?0A@EA@exception@std@@8 10028344     LIBCMT:throw_bad_alloc.obj
 0002:00007360       ??_R4bad_alloc@std@@6B@    10028360     LIBCMT:throw_bad_alloc.obj
 0002:00007374       ??_R3bad_alloc@std@@8      10028374     LIBCMT:throw_bad_alloc.obj
 0002:00007384       ??_R2bad_alloc@std@@8      10028384     LIBCMT:throw_bad_alloc.obj
 0002:00007390       ??_R1A@?0A@EA@bad_alloc@std@@8 10028390     LIBCMT:throw_bad_alloc.obj
 0002:000073ac       ??_R4bad_array_new_length@std@@6B@ 100283ac     LIBCMT:throw_bad_alloc.obj
 0002:000073c0       ??_R3bad_array_new_length@std@@8 100283c0     LIBCMT:throw_bad_alloc.obj
 0002:000073d0       ??_R2bad_array_new_length@std@@8 100283d0     LIBCMT:throw_bad_alloc.obj
 0002:000073e0       ??_R1A@?0A@EA@bad_array_new_length@std@@8 100283e0     LIBCMT:throw_bad_alloc.obj
 0002:000073fc       ??_R4type_info@@6B@        100283fc     LIBCMT:std_type_info_static.obj
 0002:00007410       ??_R3type_info@@8          10028410     LIBCMT:std_type_info_static.obj
 0002:00007420       ??_R2type_info@@8          10028420     LIBCMT:std_type_info_static.obj
 0002:00007428       ??_R1A@?0A@EA@type_info@@8 10028428     LIBCMT:std_type_info_static.obj
 0002:00007444       ??_R4bad_exception@std@@6B@ 10028444     libvcruntime:frame.obj
 0002:00007458       ??_R3bad_exception@std@@8  10028458     libvcruntime:frame.obj
 0002:00007468       ??_R2bad_exception@std@@8  10028468     libvcruntime:frame.obj
 0002:00007474       ??_R1A@?0A@EA@bad_exception@std@@8 10028474     libvcruntime:frame.obj
 0002:00007490       ___safe_se_handler_table   10028490     <linker-defined>
 0002:000074bc       ___volatile_metadata       100284bc     <linker-defined>
 0002:000078f8       ___rtc_iaa                 100288f8     LIBCMT:initsect.obj
 0002:000078fc       ___rtc_izz                 100288fc     LIBCMT:initsect.obj
 0002:00007900       ___rtc_taa                 10028900     LIBCMT:initsect.obj
 0002:00007904       ___rtc_tzz                 10028904     LIBCMT:initsect.obj
 0002:00007908       __tls_start                10028908     LIBCMT:tlssup.obj
 0002:0000790c       __Init_thread_epoch        1002890c     LIBCMT:thread_safe_statics.obj
 0002:00007910       __tls_end                  10028910     LIBCMT:tlssup.obj
 0002:00007a14       __TI2?AVbad_alloc@std@@    10028a14     LIBCMT:throw_bad_alloc.obj
 0002:00007a24       __CTA2?AVbad_alloc@std@@   10028a24     LIBCMT:throw_bad_alloc.obj
 0002:00007a30       __CT??_R0?AVbad_alloc@std@@@8??0bad_alloc@std@@QAE@ABV01@@Z12 10028a30     LIBCMT:throw_bad_alloc.obj
 0002:00007a4c       __CT??_R0?AVexception@std@@@8??0exception@std@@QAE@ABV01@@Z12 10028a4c     LIBCMT:throw_bad_alloc.obj
 0002:00007a68       __TI3?AVbad_array_new_length@std@@ 10028a68     LIBCMT:throw_bad_alloc.obj
 0002:00007a78       __CTA3?AVbad_array_new_length@std@@ 10028a78     LIBCMT:throw_bad_alloc.obj
 0002:00007a88       __CT??_R0?AVbad_array_new_length@std@@@8??0bad_array_new_length@std@@QAE@ABV01@@Z12 10028a88     LIBCMT:throw_bad_alloc.obj
 0002:00007bac       __TI2?AVbad_exception@std@@ 10028bac     libvcruntime:frame.obj
 0002:00007bbc       __CTA2?AVbad_exception@std@@ 10028bbc     libvcruntime:frame.obj
 0002:00007bc8       __CT??_R0?AVbad_exception@std@@@8??0bad_exception@std@@QAE@ABV01@@Z12 10028bc8     libvcruntime:frame.obj
 0002:00007ff4       ___pobjMapEntryFirst       10028ff4     OposVariant.obj
 0002:00007ff8       ___pobjMapEntryLast        10028ff8     OposVariant.obj
 0002:000080b0       __IMPORT_DESCRIPTOR_KERNEL32 100290b0     kernel32:KERNEL32.dll
 0002:000080c4       __IMPORT_DESCRIPTOR_USER32 100290c4     user32:USER32.dll
 0002:000080d8       __IMPORT_DESCRIPTOR_GDI32  100290d8     gdi32:GDI32.dll
 0002:000080ec       __IMPORT_DESCRIPTOR_ADVAPI32 100290ec     advapi32:ADVAPI32.dll
 0002:00008100       __IMPORT_DESCRIPTOR_ole32  10029100     ole32:ole32.dll
 0002:00008114       __IMPORT_DESCRIPTOR_OLEAUT32 10029114     oleaut32:OLEAUT32.dll
 0002:00008128       __NULL_IMPORT_DESCRIPTOR   10029128     kernel32:KERNEL32.dll
 0003:00000000       ?rcDefault@CWindow@ATL@@2UtagRECT@@A 1002b000     VideoCapture.obj
 0003:00000010       ?s_Claim@?7??GetIDsOfNames@CComTypeInfoHolder@ATL@@QAEJABU_GUID@@PAPA_WIKPAJ@Z@4PA_WA 1002b010     VideoCapture.obj
 0003:00000028       ?s_Release@?7??GetIDsOfNames@CComTypeInfoHolder@ATL@@QAEJABU_GUID@@PAPA_WIKPAJ@Z@4PA_WA 1002b028     VideoCapture.obj
 0003:00000044       ?_tih@?$IDispatchImpl@UIOPOSVideoCapture@@$1?IID_IOPOSVideoCapture@@3U_GUID@@B$1?LIBID_OposVideoCapture_CCO@@3U3@B$00$0A@VCComTypeInfoHolder@ATL@@@ATL@@1VCComTypeInfoHolder@2@A 1002b044     VideoCapture.obj
 0003:00000060       ?_tih@?$IProvideClassInfo2Impl@$1?CLSID_OPOSVideoCapture@@3U_GUID@@B$1?DIID__IOPOSVideoCaptureEvents@@3U2@B$1?LIBID_OposVideoCapture_CCO@@3U2@B$00$0A@VCComTypeInfoHolder@ATL@@@ATL@@1VCComTypeInfoHolder@2@A 1002b060     VideoCapture.obj
 0003:0000007c       ?vszContents@?6??Save@?$IPersistStorageImpl@VCOPOSVideoCapture@@@ATL@@UAGJPAUIStorage@@H@Z@4PB_WB 1002b07c     VideoCapture.obj
 0003:00000080       ?wc@?1??GetWndClassInfo@?$CWindowImpl@VCOPOSVideoCapture@@VCWindow@ATL@@V?$CWinTraits@$0FGAAAAAA@$0A@@3@@ATL@@SAAAU_ATL_WNDCLASSINFOW@3@XZ@4U43@A 1002b080     VideoCapture.obj
 0003:00000158       ?g_WindowName@@3PA_WA      1002b158     VideoCaptureImpl.obj
 0003:00000180       ?g_ControlDescription@@3PADA 1002b180     VideoCaptureImpl.obj
 0003:000001b4       ?g_ControlVersion@@3JA     1002b1b4     VideoCaptureImpl.obj
 0003:00000210       ___scrt_native_dllmain_reason 1002b210     LIBCMT:utility.obj
 0003:00000214       __Init_global_epoch        1002b214     LIBCMT:thread_safe_statics.obj
 0003:00000220       ___security_cookie_complement 1002b220     LIBCMT:gs_cookie.obj
 0003:00000224       ___security_cookie         1002b224     LIBCMT:gs_cookie.obj
 0003:00000228       ___isa_enabled             1002b228     LIBCMT:cpu_disp.obj
 0003:00000240       __NLG_Destination          1002b240     libvcruntime:exsup.obj
 0003:00000258       ___abort_behavior          1002b258     libucrt:abort.obj
 0003:00000268       ___acrt_initial_locale_data 1002b268     libucrt:nlsdata.obj
 0003:00000320       ___acrt_initial_locale_pointers 1002b320     libucrt:nlsdata.obj
 0003:00000328       ___acrt_wide_c_locale_string 1002b328     libucrt:nlsdata.obj
 0003:00000330       __iob                      1002b330     libucrt:_file.obj
 0003:000003d8       ___acrt_initial_multibyte_data 1002b3d8     libucrt:mbctype.obj
 0003:000008f8       ___acrt_lconv_c            1002b8f8     libucrt:localeconv.obj
 0003:00000948       ___acrt_lconv_static_decimal 1002b948     libucrt:localeconv.obj
 0003:0000094c       ___acrt_lconv_static_W_decimal 1002b94c     libucrt:localeconv.obj
 0003:00000950       ___globallocalestatus      1002b950     libucrt:glstatus.obj
 0003:00000960       __lookuptrailbytes         1002b960     libucrt:read.obj
 0003:00000a70       __fltused                  1002ba70     LIBCMT:fltused.obj
 0003:00000a80       ??_R0?AVbad_alloc@std@@@8  1002ba80     LIBCMT:throw_bad_alloc.obj
 0003:00000a9c       ??_R0?AVexception@std@@@8  1002ba9c     LIBCMT:throw_bad_alloc.obj
 0003:00000ab8       ??_R0?AVbad_array_new_length@std@@@8 1002bab8     LIBCMT:throw_bad_alloc.obj
 0003:00000ae0       ??_R0?AVbad_exception@std@@@8 1002bae0     libvcruntime:frame.obj
 0003:00000b00       ??_R0?AVtype_info@@@8      1002bb00     LIBCMT:std_type_info_static.obj
 0003:00000b18       ?m_bInitFailed@CAtlBaseModule@ATL@@2_NA 1002bb18     OposVariant.obj
 0003:00000b1c       ?_pPerfRegFunc@ATL@@3P6AJPAUHINSTANCE__@@@ZA 1002bb1c     OposVariant.obj
 0003:00000b20       ?_pPerfUnRegFunc@ATL@@3P6AJXZA 1002bb20     OposVariant.obj
 0003:00000b24       ?_AtlRegisterPerUser@ATL@@3_NA 1002bb24     OposVariant.obj
 0003:00000b28       ?_pAtlModule@ATL@@3PAVCAtlModule@1@A 1002bb28     OposVariant.obj
 0003:00000b2c       ?_pModule@ATL@@3PAVCComModule@1@A 1002bb2c     OposVariant.obj
 0003:00000b30       ?_AtlComModule@ATL@@3VCAtlComModule@1@A 1002bb30     OposVariant.obj
 0003:00000b58       ?_AtlWinModule@ATL@@3VCAtlWinModule@1@A 1002bb58     OposVariant.obj
 0003:00000b84       ?m_libid@CAtlModule@ATL@@2U_GUID@@A 1002bb84     VideoCapture.obj
 0003:00000b94       ?_entries@?1??GetConnMap@COPOSVideoCapture@@SAPBU_ATL_CONNMAP_ENTRY@ATL@@PAH@Z@4QBU34@B 1002bb94     VideoCapture.obj
 0003:00000ba0       ?$TSS0@?1??GetConnMap@COPOSVideoCapture@@SAPBU_ATL_CONNMAP_ENTRY@ATL@@PAH@Z@4HA 1002bba0     VideoCapture.obj
 0003:00000ba8       ?_OptionsStorage@?1??__local_stdio_printf_options@@9@4_KA 1002bba8     VideoCapture.obj
 0003:00000bb0       ?pfnRegDeleteKeyEx@?1??DeleteSubKey@CRegKey@ATL@@QAEJPB_W@Z@4P6GJPAUHKEY__@@0KK@ZA 1002bbb0     VideoCapture.obj
 0003:00000bb4       ?bInitialized@?1??DeleteSubKey@CRegKey@ATL@@QAEJPB_W@Z@4_NA 1002bbb4     VideoCapture.obj
 0003:00000bb8       ?_Module@@3VCComModule@ATL@@A 1002bbb8     VideoCapture.obj
 0003:00000be8       ?pConnMap@?$IConnectionPointContainerImpl@VCOPOSVideoCapture@@@ATL@@0PBU_ATL_CONNMAP_ENTRY@2@B 1002bbe8     VideoCapture.obj
 0003:00000bec       ?s_nInstances@COPOSVideoCapture@@1HA 1002bbec     VideoCaptureImpl.obj
 0003:00000bf0       ___scrt_current_native_startup_state 1002bbf0     LIBCMT:utility.obj
 0003:00000bf4       ___scrt_native_startup_lock 1002bbf4     LIBCMT:utility.obj
 0003:00000f5c       __tls_index                1002bf5c     LIBCMT:tlssup.obj
 0003:00000f64       ___isa_available           1002bf64     LIBCMT:cpu_disp.obj
 0003:00000f68       ___favor                   1002bf68     LIBCMT:cpu_disp.obj
 0003:00000f6c       ___scrt_debugger_hook_flag 1002bf6c     LIBCMT:utility_desktop.obj
 0003:00000f70       ?__type_info_root_node@@3U__type_info_node@@A 1002bf70     LIBCMT:tncleanup.obj
 0003:00000f78       ?_OptionsStorage@?1??__local_stdio_scanf_options@@9@4_KA 1002bf78     LIBCMT:default_local_stdio_options.obj
 0003:00000f80       ?_AtlBaseModule@ATL@@3VCAtlBaseModule@1@A 1002bf80     atls:atlbase.obj
 0003:00000fb8       ?__AtlThunkPool@@3PAT_SLIST_HEADER@@A 1002bfb8     atls:atlthunk.obj
 0003:00000fd0       ___@@_PchSym_@00@UzABUPdlipUBAUhUrmgvinvwrzgvUexgllohUzgohOmzgrevkilqPBACIAJCBDBUlyqiUcIGUhgwzucOlyq@4B2008FD98C1DD4 1002bfd0     atls:stdafx.obj
 0003:00000fd4       ?__WinRTOutOfMemoryExceptionCallback@@3P6GPAXXZA 1002bfd4     libvcruntime:ehhelpers.obj
 0003:00000fd8       ___pPurecall               1002bfd8     libvcruntime:purevirt_data.obj
 0003:00001020       ?m_pGetParameter@UnDecorator@@0P6APADJ@ZA 1002c020     libvcruntime:undname.obj
 0003:00001024       ?m_CHPENameOffset@UnDecorator@@0KA 1002c024     libvcruntime:undname.obj
 0003:00001028       ?m_recursionLevel@UnDecorator@@0KA 1002c028     libvcruntime:undname.obj
 0003:0000102c       ?pArgList@UnDecorator@@0PAVReplicator@@A 1002c02c     libvcruntime:undname.obj
 0003:00001030       ?pZNameList@UnDecorator@@0PAVReplicator@@A 1002c030     libvcruntime:undname.obj
 0003:00001034       ?pTemplateArgList@UnDecorator@@0PAVReplicator@@A 1002c034     libvcruntime:undname.obj
 0003:00001038       ?gName@UnDecorator@@0PBDB  1002c038     libvcruntime:undname.obj
 0003:0000103c       ?name@UnDecorator@@0PBDB   1002c03c     libvcruntime:undname.obj
 0003:00001040       ?disableFlags@UnDecorator@@0KA 1002c040     libvcruntime:undname.obj
 0003:00001044       ?fExplicitTemplateParams@UnDecorator@@0_NA 1002c044     libvcruntime:undname.obj
 0003:00001045       ?fGetTemplateArgumentList@UnDecorator@@0_NA 1002c045     libvcruntime:undname.obj
 0003:00001088       ?c_exit_complete@?1???R<lambda_6e4b09c48022b2350581041d5f6b0c4c>@@QBE@XZ@4_NA 1002c088     libucrt:exit.obj
 0003:00001198       __environ_table            1002c198     libucrt:environment_initialization.obj
 0003:0000119c       __wenviron_table           1002c19c     libucrt:environment_initialization.obj
 0003:000011a0       ___dcrt_initial_wide_environment 1002c1a0     libucrt:environment_initialization.obj
 0003:000011a4       ___dcrt_initial_narrow_environment 1002c1a4     libucrt:environment_initialization.obj
 0003:000011a8       ___acrt_atexit_table       1002c1a8     libucrt:onexit.obj
 0003:000011b4       ___acrt_at_quick_exit_table 1002c1b4     libucrt:onexit.obj
 0003:000011c4       ___acrt_locale_changed_data 1002c1c4     libucrt:wsetlocale.obj
 0003:000011c8       ___acrt_current_locale_data 1002c1c8     libucrt:nlsdata.obj
 0003:000012b0       __nstream                  1002c2b0     libucrt:_file.obj
 0003:000012b4       ___piob                    1002c2b4     libucrt:_file.obj
 0003:000012bc       ___acrt_stdout_buffer      1002c2bc     libucrt:_sftbuf.obj
 0003:000012c0       ___acrt_stderr_buffer      1002c2c0     libucrt:_sftbuf.obj
 0003:000012c8       ___pioinfo                 1002c2c8     libucrt:ioinit.obj
 0003:000014c8       __nhandle                  1002c4c8     libucrt:ioinit.obj
 0003:00001624       __mbctype                  1002c624     libucrt:mbctype.obj
 0003:00001628       __mbcasemap                1002c628     libucrt:mbctype.obj
 0003:0000162c       ___acrt_current_multibyte_data 1002c62c     libucrt:mbctype.obj
 0003:00001638       __pgmptr                   1002c638     libucrt:argv_data.obj
 0003:0000163c       ___argc                    1002c63c     libucrt:argv_data.obj
 0003:00001640       ___argv                    1002c640     libucrt:argv_data.obj
 0003:00001644       ___wargv                   1002c644     libucrt:argv_data.obj
 0003:00001648       __acmdln                   1002c648     libucrt:argv_data.obj
 0003:0000164c       __wcmdln                   1002c64c     libucrt:argv_data.obj
 0003:00001650       ___acrt_heap               1002c650     libucrt:heap_handle.obj
 0003:00001668       ___acrt_lconv_static_null  1002c668     libucrt:localeconv.obj
 0003:0000166c       ___acrt_lconv_static_W_null 1002c66c     libucrt:localeconv.obj
 0003:00001680       ___fastflag                1002c680     libucrt:fp_flags.obj
 0003:00001688       ___dyn_tls_init_callback   1002c688     <common>
 0003:0000168c       ___scrt_ucrt_dll_is_in_use 1002c68c     <common>
 0003:00001690       __pmatherr                 1002c690     <common>
 0003:00001694       ___use_sse2_mathfcns       1002c694     <common>

 entry point at        0001:0000c46b

 Static symbols

 0000:fffcb000       .debug$S                   10000000     OPOSVideoCapture.exp
 0000:fffcb000       .debug$S                   10000000     advapi32:ADVAPI32.dll
 0000:fffcb000       .debug$S                   10000000     advapi32:ADVAPI32.dll
 0000:fffcb000       .debug$S                   10000000     advapi32:ADVAPI32.dll
 0000:fffcb000       .debug$S                   10000000     advapi32:ADVAPI32.dll
 0000:fffcb000       .debug$S                   10000000     advapi32:ADVAPI32.dll
 0000:fffcb000       .debug$S                   10000000     advapi32:ADVAPI32.dll
 0000:fffcb000       .debug$S                   10000000     advapi32:ADVAPI32.dll
 0000:fffcb000       .debug$S                   10000000     advapi32:ADVAPI32.dll
 0000:fffcb000       .debug$S                   10000000     advapi32:ADVAPI32.dll
 0000:fffcb000       .debug$S                   10000000     gdi32:GDI32.dll
 0000:fffcb000       .debug$S                   10000000     gdi32:GDI32.dll
 0000:fffcb000       .debug$S                   10000000     gdi32:GDI32.dll
 0000:fffcb000       .debug$S                   10000000     gdi32:GDI32.dll
 0000:fffcb000       .debug$S                   10000000     gdi32:GDI32.dll
 0000:fffcb000       .debug$S                   10000000     gdi32:GDI32.dll
 0000:fffcb000       .debug$S                   10000000     gdi32:GDI32.dll
 0000:fffcb000       .debug$S                   10000000     gdi32:GDI32.dll
 0000:fffcb000       .debug$S                   10000000     gdi32:GDI32.dll
 0000:fffcb000       .debug$S                   10000000     gdi32:GDI32.dll
 0000:fffcb000       .debug$S                   10000000     gdi32:GDI32.dll
 0000:fffcb000       .debug$S                   10000000     gdi32:GDI32.dll
 0000:fffcb000       .debug$S                   10000000     gdi32:GDI32.dll
 0000:fffcb000       .debug$S                   10000000     gdi32:GDI32.dll
 0000:fffcb000       .debug$S                   10000000     gdi32:GDI32.dll
 0000:fffcb000       .debug$S                   10000000     gdi32:GDI32.dll
 0000:fffcb000       .debug$S                   10000000     gdi32:GDI32.dll
 0000:fffcb000       .debug$S                   10000000     gdi32:GDI32.dll
 0000:fffcb000       .debug$S                   10000000     gdi32:GDI32.dll
 0000:fffcb000       .debug$S                   10000000     kernel32:KERNEL32.dll
 0000:fffcb000       .debug$S                   10000000     kernel32:KERNEL32.dll
 0000:fffcb000       .debug$S                   10000000     kernel32:KERNEL32.dll
 0000:fffcb000       .debug$S                   10000000     kernel32:KERNEL32.dll
 0000:fffcb000       .debug$S                   10000000     kernel32:KERNEL32.dll
 0000:fffcb000       .debug$S                   10000000     kernel32:KERNEL32.dll
 0000:fffcb000       .debug$S                   10000000     kernel32:KERNEL32.dll
 0000:fffcb000       .debug$S                   10000000     kernel32:KERNEL32.dll
 0000:fffcb000       .debug$S                   10000000     kernel32:KERNEL32.dll
 0000:fffcb000       .debug$S                   10000000     kernel32:KERNEL32.dll
 0000:fffcb000       .debug$S                   10000000     kernel32:KERNEL32.dll
 0000:fffcb000       .debug$S                   10000000     kernel32:KERNEL32.dll
 0000:fffcb000       .debug$S                   10000000     kernel32:KERNEL32.dll
 0000:fffcb000       .debug$S                   10000000     kernel32:KERNEL32.dll
 0000:fffcb000       .debug$S                   10000000     kernel32:KERNEL32.dll
 0000:fffcb000       .debug$S                   10000000     kernel32:KERNEL32.dll
 0000:fffcb000       .debug$S                   10000000     kernel32:KERNEL32.dll
 0000:fffcb000       .debug$S                   10000000     kernel32:KERNEL32.dll
 0000:fffcb000       .debug$S                   10000000     kernel32:KERNEL32.dll
 0000:fffcb000       .debug$S                   10000000     kernel32:KERNEL32.dll
 0000:fffcb000       .debug$S                   10000000     kernel32:KERNEL32.dll
 0000:fffcb000       .debug$S                   10000000     kernel32:KERNEL32.dll
 0000:fffcb000       .debug$S                   10000000     kernel32:KERNEL32.dll
 0000:fffcb000       .debug$S                   10000000     kernel32:KERNEL32.dll
 0000:fffcb000       .debug$S                   10000000     kernel32:KERNEL32.dll
 0000:fffcb000       .debug$S                   10000000     kernel32:KERNEL32.dll
 0000:fffcb000       .debug$S                   10000000     kernel32:KERNEL32.dll
 0000:fffcb000       .debug$S                   10000000     kernel32:KERNEL32.dll
 0000:fffcb000       .debug$S                   10000000     kernel32:KERNEL32.dll
 0000:fffcb000       .debug$S                   10000000     kernel32:KERNEL32.dll
 0000:fffcb000       .debug$S                   10000000     kernel32:KERNEL32.dll
 0000:fffcb000       .debug$S                   10000000     kernel32:KERNEL32.dll
 0000:fffcb000       .debug$S                   10000000     kernel32:KERNEL32.dll
 0000:fffcb000       .debug$S                   10000000     kernel32:KERNEL32.dll
 0000:fffcb000       .debug$S                   10000000     kernel32:KERNEL32.dll
 0000:fffcb000       .debug$S                   10000000     kernel32:KERNEL32.dll
 0000:fffcb000       .debug$S                   10000000     kernel32:KERNEL32.dll
 0000:fffcb000       .debug$S                   10000000     kernel32:KERNEL32.dll
 0000:fffcb000       .debug$S                   10000000     kernel32:KERNEL32.dll
 0000:fffcb000       .debug$S                   10000000     kernel32:KERNEL32.dll
 0000:fffcb000       .debug$S                   10000000     kernel32:KERNEL32.dll
 0000:fffcb000       .debug$S                   10000000     kernel32:KERNEL32.dll
 0000:fffcb000       .debug$S                   10000000     kernel32:KERNEL32.dll
 0000:fffcb000       .debug$S                   10000000     kernel32:KERNEL32.dll
 0000:fffcb000       .debug$S                   10000000     kernel32:KERNEL32.dll
 0000:fffcb000       .debug$S                   10000000     kernel32:KERNEL32.dll
 0000:fffcb000       .debug$S                   10000000     kernel32:KERNEL32.dll
 0000:fffcb000       .debug$S                   10000000     kernel32:KERNEL32.dll
 0000:fffcb000       .debug$S                   10000000     kernel32:KERNEL32.dll
 0000:fffcb000       .debug$S                   10000000     kernel32:KERNEL32.dll
 0000:fffcb000       .debug$S                   10000000     kernel32:KERNEL32.dll
 0000:fffcb000       .debug$S                   10000000     kernel32:KERNEL32.dll
 0000:fffcb000       .debug$S                   10000000     kernel32:KERNEL32.dll
 0000:fffcb000       .debug$S                   10000000     kernel32:KERNEL32.dll
 0000:fffcb000       .debug$S                   10000000     kernel32:KERNEL32.dll
 0000:fffcb000       .debug$S                   10000000     kernel32:KERNEL32.dll
 0000:fffcb000       .debug$S                   10000000     kernel32:KERNEL32.dll
 0000:fffcb000       .debug$S                   10000000     kernel32:KERNEL32.dll
 0000:fffcb000       .debug$S                   10000000     kernel32:KERNEL32.dll
 0000:fffcb000       .debug$S                   10000000     kernel32:KERNEL32.dll
 0000:fffcb000       .debug$S                   10000000     kernel32:KERNEL32.dll
 0000:fffcb000       .debug$S                   10000000     kernel32:KERNEL32.dll
 0000:fffcb000       .debug$S                   10000000     kernel32:KERNEL32.dll
 0000:fffcb000       .debug$S                   10000000     kernel32:KERNEL32.dll
 0000:fffcb000       .debug$S                   10000000     kernel32:KERNEL32.dll
 0000:fffcb000       .debug$S                   10000000     kernel32:KERNEL32.dll
 0000:fffcb000       .debug$S                   10000000     kernel32:KERNEL32.dll
 0000:fffcb000       .debug$S                   10000000     kernel32:KERNEL32.dll
 0000:fffcb000       .debug$S                   10000000     kernel32:KERNEL32.dll
 0000:fffcb000       .debug$S                   10000000     kernel32:KERNEL32.dll
 0000:fffcb000       .debug$S                   10000000     kernel32:KERNEL32.dll
 0000:fffcb000       .debug$S                   10000000     kernel32:KERNEL32.dll
 0000:fffcb000       .debug$S                   10000000     kernel32:KERNEL32.dll
 0000:fffcb000       .debug$S                   10000000     kernel32:KERNEL32.dll
 0000:fffcb000       .debug$S                   10000000     kernel32:KERNEL32.dll
 0000:fffcb000       .debug$S                   10000000     kernel32:KERNEL32.dll
 0000:fffcb000       .debug$S                   10000000     kernel32:KERNEL32.dll
 0000:fffcb000       .debug$S                   10000000     kernel32:KERNEL32.dll
 0000:fffcb000       .debug$S                   10000000     kernel32:KERNEL32.dll
 0000:fffcb000       .debug$S                   10000000     kernel32:KERNEL32.dll
 0000:fffcb000       .debug$S                   10000000     kernel32:KERNEL32.dll
 0000:fffcb000       .debug$S                   10000000     kernel32:KERNEL32.dll
 0000:fffcb000       .debug$S                   10000000     kernel32:KERNEL32.dll
 0000:fffcb000       .debug$S                   10000000     kernel32:KERNEL32.dll
 0000:fffcb000       .debug$S                   10000000     kernel32:KERNEL32.dll
 0000:fffcb000       .debug$S                   10000000     kernel32:KERNEL32.dll
 0000:fffcb000       .debug$S                   10000000     kernel32:KERNEL32.dll
 0000:fffcb000       .debug$S                   10000000     kernel32:KERNEL32.dll
 0000:fffcb000       .debug$S                   10000000     kernel32:KERNEL32.dll
 0000:fffcb000       .debug$S                   10000000     kernel32:KERNEL32.dll
 0000:fffcb000       .debug$S                   10000000     kernel32:KERNEL32.dll
 0000:fffcb000       .debug$S                   10000000     kernel32:KERNEL32.dll
 0000:fffcb000       .debug$S                   10000000     kernel32:KERNEL32.dll
 0000:fffcb000       .debug$S                   10000000     kernel32:KERNEL32.dll
 0000:fffcb000       .debug$S                   10000000     kernel32:KERNEL32.dll
 0000:fffcb000       .debug$S                   10000000     kernel32:KERNEL32.dll
 0000:fffcb000       .debug$S                   10000000     kernel32:KERNEL32.dll
 0000:fffcb000       .debug$S                   10000000     kernel32:KERNEL32.dll
 0000:fffcb000       .debug$S                   10000000     kernel32:KERNEL32.dll
 0000:fffcb000       .debug$S                   10000000     kernel32:KERNEL32.dll
 0000:fffcb000       .debug$S                   10000000     kernel32:KERNEL32.dll
 0000:fffcb000       .debug$S                   10000000     kernel32:KERNEL32.dll
 0000:fffcb000       .debug$S                   10000000     kernel32:KERNEL32.dll
 0000:fffcb000       .debug$S                   10000000     kernel32:KERNEL32.dll
 0000:fffcb000       .debug$S                   10000000     kernel32:KERNEL32.dll
 0000:fffcb000       .debug$S                   10000000     kernel32:KERNEL32.dll
 0000:fffcb000       .debug$S                   10000000     ole32:ole32.dll
 0000:fffcb000       .debug$S                   10000000     ole32:ole32.dll
 0000:fffcb000       .debug$S                   10000000     ole32:ole32.dll
 0000:fffcb000       .debug$S                   10000000     ole32:ole32.dll
 0000:fffcb000       .debug$S                   10000000     ole32:ole32.dll
 0000:fffcb000       .debug$S                   10000000     ole32:ole32.dll
 0000:fffcb000       .debug$S                   10000000     ole32:ole32.dll
 0000:fffcb000       .debug$S                   10000000     ole32:ole32.dll
 0000:fffcb000       .debug$S                   10000000     ole32:ole32.dll
 0000:fffcb000       .debug$S                   10000000     ole32:ole32.dll
 0000:fffcb000       .debug$S                   10000000     ole32:ole32.dll
 0000:fffcb000       .debug$S                   10000000     ole32:ole32.dll
 0000:fffcb000       .debug$S                   10000000     ole32:ole32.dll
 0000:fffcb000       .debug$S                   10000000     ole32:ole32.dll
 0000:fffcb000       .debug$S                   10000000     oleaut32:OLEAUT32.dll
 0000:fffcb000       .debug$S                   10000000     oleaut32:OLEAUT32.dll
 0000:fffcb000       .debug$S                   10000000     oleaut32:OLEAUT32.dll
 0000:fffcb000       .debug$S                   10000000     oleaut32:OLEAUT32.dll
 0000:fffcb000       .debug$S                   10000000     oleaut32:OLEAUT32.dll
 0000:fffcb000       .debug$S                   10000000     oleaut32:OLEAUT32.dll
 0000:fffcb000       .debug$S                   10000000     oleaut32:OLEAUT32.dll
 0000:fffcb000       .debug$S                   10000000     oleaut32:OLEAUT32.dll
 0000:fffcb000       .debug$S                   10000000     oleaut32:OLEAUT32.dll
 0000:fffcb000       .debug$S                   10000000     oleaut32:OLEAUT32.dll
 0000:fffcb000       .debug$S                   10000000     oleaut32:OLEAUT32.dll
 0000:fffcb000       .debug$S                   10000000     oleaut32:OLEAUT32.dll
 0000:fffcb000       .debug$S                   10000000     oleaut32:OLEAUT32.dll
 0000:fffcb000       .debug$S                   10000000     oleaut32:OLEAUT32.dll
 0000:fffcb000       .debug$S                   10000000     oleaut32:OLEAUT32.dll
 0000:fffcb000       .debug$S                   10000000     oleaut32:OLEAUT32.dll
 0000:fffcb000       .debug$S                   10000000     user32:USER32.dll
 0000:fffcb000       .debug$S                   10000000     user32:USER32.dll
 0000:fffcb000       .debug$S                   10000000     user32:USER32.dll
 0000:fffcb000       .debug$S                   10000000     user32:USER32.dll
 0000:fffcb000       .debug$S                   10000000     user32:USER32.dll
 0000:fffcb000       .debug$S                   10000000     user32:USER32.dll
 0000:fffcb000       .debug$S                   10000000     user32:USER32.dll
 0000:fffcb000       .debug$S                   10000000     user32:USER32.dll
 0000:fffcb000       .debug$S                   10000000     user32:USER32.dll
 0000:fffcb000       .debug$S                   10000000     user32:USER32.dll
 0000:fffcb000       .debug$S                   10000000     user32:USER32.dll
 0000:fffcb000       .debug$S                   10000000     user32:USER32.dll
 0000:fffcb000       .debug$S                   10000000     user32:USER32.dll
 0000:fffcb000       .debug$S                   10000000     user32:USER32.dll
 0000:fffcb000       .debug$S                   10000000     user32:USER32.dll
 0000:fffcb000       .debug$S                   10000000     user32:USER32.dll
 0000:fffcb000       .debug$S                   10000000     user32:USER32.dll
 0000:fffcb000       .debug$S                   10000000     user32:USER32.dll
 0000:fffcb000       .debug$S                   10000000     user32:USER32.dll
 0000:fffcb000       .debug$S                   10000000     user32:USER32.dll
 0000:fffcb000       .debug$S                   10000000     user32:USER32.dll
 0000:fffcb000       .debug$S                   10000000     user32:USER32.dll
 0000:fffcb000       .debug$S                   10000000     user32:USER32.dll
 0000:fffcb000       .debug$S                   10000000     user32:USER32.dll
 0000:fffcb000       .debug$S                   10000000     user32:USER32.dll
 0000:fffcb000       .debug$S                   10000000     user32:USER32.dll
 0000:fffcb000       .debug$S                   10000000     user32:USER32.dll
 0000:fffcb000       .debug$S                   10000000     user32:USER32.dll
 0000:fffcb000       .debug$S                   10000000     user32:USER32.dll
 0000:fffcb000       .debug$S                   10000000     user32:USER32.dll
 0000:fffcb000       .debug$S                   10000000     user32:USER32.dll
 0000:fffcb000       .debug$S                   10000000     user32:USER32.dll
 0000:fffcb000       .debug$S                   10000000     user32:USER32.dll
 0000:fffcb000       .debug$S                   10000000     user32:USER32.dll
 0000:fffcb000       .debug$S                   10000000     user32:USER32.dll
 0001:00000000       ??__E_AtlComModule@ATL@@YAXXZ 10001000 f   OposVariant.obj
 0001:00000016       ??__E_AtlWinModule@ATL@@YAXXZ 10001016 f   OposVariant.obj
 0001:0000002c       ??__E?pConnMap@?$IConnectionPointContainerImpl@VCOPOSVideoCapture@@@ATL@@0PBU_ATL_CONNMAP_ENTRY@2@B@@YAXXZ 1000102c f   VideoCapture.obj
 0001:0000003a       ??__E_Module@@YAXXZ        1000103a f   VideoCapture.obj
 0001:00000064       ??__E_AtlBaseModule@ATL@@YAXXZ 10001064 f   atls:atlbase.obj
 0001:0000139c       $LN24                      1000239c     VideoCapture.obj
 0001:00004718       $LN31                      10005718     VideoCapture.obj
 0001:0000471c       $LN30                      1000571c     VideoCapture.obj
 0001:00005861       $LN60                      10006861     VideoCapture.obj
 0001:00005879       $LN59                      10006879     VideoCapture.obj
 0001:00007a1b       $LN50                      10008a1b     VideoCapture.obj
 0001:00007a33       $LN49                      10008a33     VideoCapture.obj
 0001:000090fa       $LN88                      1000a0fa     VideoCapture.obj
 0001:00009112       $LN87                      1000a112     VideoCapture.obj
 0001:000094d2       _memcpy_s                  1000a4d2 f   VideoCapture.obj
 0001:0000b910       ?find_pe_section@@YAPAU_IMAGE_SECTION_HEADER@@QAEI@Z 1000c910 f   LIBCMT:utility.obj
 0001:0000bc2f       ?__scrt_initialize_thread_safe_statics@@YAHXZ 1000cc2f f   LIBCMT:thread_safe_statics.obj
 0001:0000bc56       ?__scrt_initialize_thread_safe_statics_platform_specific@@YAXXZ 1000cc56 f   LIBCMT:thread_safe_statics.obj
 0001:0000bcd8       ?__scrt_uninitialize_thread_safe_statics@@YAXXZ 1000ccd8 f   LIBCMT:thread_safe_statics.obj
 0001:0000c049       __catch$??2@YAPAXIABUnothrow_t@std@@@Z$0 1000d049 f   LIBCMT:new_scalar_nothrow.obj
 0001:0000c080       $$000000                   1000d080     LIBCMT:sehprolg4gs.obj
 0001:0000c0d0       $$000000                   1000d0d0     LIBCMT:alloca16.obj
 0001:0000c0e6       alloca_8                   1000d0e6     LIBCMT:alloca16.obj
 0001:0000c100       $$000000                   1000d100     LIBCMT:chkstk.obj
 0001:0000c114       cs10                       1000d114     LIBCMT:chkstk.obj
 0001:0000c122       cs20                       1000d122     LIBCMT:chkstk.obj
 0001:0000c12b       ?dllmain_crt_dispatch@@YGHQAUHINSTANCE__@@KQAX@Z 1000d12b f   LIBCMT:dll_dllmain.obj
 0001:0000c17e       ?dllmain_crt_process_attach@@YAHQAUHINSTANCE__@@QAX@Z 1000d17e f   LIBCMT:dll_dllmain.obj
 0001:0000c285       ?dllmain_crt_process_detach@@YAH_N@Z 1000d285 f   LIBCMT:dll_dllmain.obj
 0001:0000c335       ?dllmain_dispatch@@YAHQAUHINSTANCE__@@KQAX@Z 1000d335 f   LIBCMT:dll_dllmain.obj
 0001:0000c440       ?dllmain_raw@@YGHQAUHINSTANCE__@@KQAX@Z 1000d440 f   LIBCMT:dll_dllmain.obj
 0001:0000c7d0       $$000000                   1000d7d0     LIBCMT:sehprolg4.obj
 0001:0000c818       ___get_entropy             1000d818 f   LIBCMT:gs_support.obj
 0001:0000cb0f       ??$GetProcAddressAll@P6GP6GJPAUHWND__@@IIJ@ZPAUAtlThunkData_t@@@Z@@YAP6GP6GJPAUHWND__@@IIJ@ZPAUAtlThunkData_t@@@ZPAP6GP6GJ0IIJ@Z1@Z@Z 1000db0f f   atls:atlthunk.obj
 0001:0000cb0f       ??$GetProcAddressAll@P6GPAUAtlThunkData_t@@XZ@@YAP6GPAUAtlThunkData_t@@XZPAP6GPAU0@XZ@Z 1000db0f f   atls:atlthunk.obj
 0001:0000cb0f       ??$GetProcAddressAll@P6GXPAUAtlThunkData_t@@@Z@@YAP6GXPAUAtlThunkData_t@@@ZPAP6GX0@Z@Z 1000db0f f   atls:atlthunk.obj
 0001:0000cb0f       ??$GetProcAddressAll@P6GXPAUAtlThunkData_t@@PAXI@Z@@YAP6GXPAUAtlThunkData_t@@PAXI@ZPAP6GX01I@Z@Z 1000db0f f   atls:atlthunk.obj
 0001:0000cbbf       ?GetProcAddressSingle@@YA_NPAUHINSTANCE__@@PBDPAPAX@Z 1000dbbf f   atls:atlthunk.obj
 0001:0000cd11       ?__InitializeThunkPool@@YAHXZ 1000dd11 f   atls:atlthunk.obj
 0001:0000d170       _ValidateLocalCookies      1000e170 f   libvcruntime:chandler4.obj
 0001:0000e90a       $LN1250                    1000f90a     libvcruntime:memcmp.obj
 0001:0000e990       $$000000                   1000f990     libvcruntime:memcpy.obj
 0001:0000e990       $$000000                   1000f990     libvcruntime:memmove.obj
 0001:0000e9b0       CopyUp                     1000f9b0     libvcruntime:memcpy.obj
 0001:0000e9b0       CopyUp                     1000f9b0     libvcruntime:memmove.obj
 0001:0000e9d4       CopyUpLargeMov             1000f9d4     libvcruntime:memcpy.obj
 0001:0000e9d4       CopyUpLargeMov             1000f9d4     libvcruntime:memmove.obj
 0001:0000e9e7       CopyUpSSE2Check            1000f9e7     libvcruntime:memcpy.obj
 0001:0000e9e7       CopyUpSSE2Check            1000f9e7     libvcruntime:memmove.obj
 0001:0000ea00       AtomChk                    1000fa00     libvcruntime:memcpy.obj
 0001:0000ea00       AtomChk                    1000fa00     libvcruntime:memmove.obj
 0001:0000ea26       PalignHead4                1000fa26     libvcruntime:memcpy.obj
 0001:0000ea26       PalignHead4                1000fa26     libvcruntime:memmove.obj
 0001:0000ea39       PalignHead8                1000fa39     libvcruntime:memcpy.obj
 0001:0000ea39       PalignHead8                1000fa39     libvcruntime:memmove.obj
 0001:0000ea50       PalignLoop                 1000fa50     libvcruntime:memcpy.obj
 0001:0000ea50       PalignLoop                 1000fa50     libvcruntime:memmove.obj
 0001:0000ea62       MovPalign12                1000fa62     libvcruntime:memcpy.obj
 0001:0000ea62       MovPalign12                1000fa62     libvcruntime:memmove.obj
 0001:0000ea6c       PalignLoop12               1000fa6c     libvcruntime:memcpy.obj
 0001:0000ea6c       PalignLoop12               1000fa6c     libvcruntime:memmove.obj
 0001:0000eabd       MovPalign8                 1000fabd     libvcruntime:memcpy.obj
 0001:0000eabd       MovPalign8                 1000fabd     libvcruntime:memmove.obj
 0001:0000eac8       PalignLoop8                1000fac8     libvcruntime:memcpy.obj
 0001:0000eac8       PalignLoop8                1000fac8     libvcruntime:memmove.obj
 0001:0000eb16       MovPalign4                 1000fb16     libvcruntime:memcpy.obj
 0001:0000eb16       MovPalign4                 1000fb16     libvcruntime:memmove.obj
 0001:0000eb20       PalignLoop4                1000fb20     libvcruntime:memcpy.obj
 0001:0000eb20       PalignLoop4                1000fb20     libvcruntime:memmove.obj
 0001:0000eb6c       PalignTail                 1000fb6c     libvcruntime:memcpy.obj
 0001:0000eb6c       PalignTail                 1000fb6c     libvcruntime:memmove.obj
 0001:0000eb84       PalignTail4                1000fb84     libvcruntime:memcpy.obj
 0001:0000eb84       PalignTail4                1000fb84     libvcruntime:memmove.obj
 0001:0000eb97       PalignTail8                1000fb97     libvcruntime:memcpy.obj
 0001:0000eb97       PalignTail8                1000fb97     libvcruntime:memmove.obj
 0001:0000ebae       PalignTailLE3              1000fbae     libvcruntime:memcpy.obj
 0001:0000ebae       PalignTailLE3              1000fbae     libvcruntime:memmove.obj
 0001:0000ebb7       Dword_align                1000fbb7     libvcruntime:memcpy.obj
 0001:0000ebb7       Dword_align                1000fbb7     libvcruntime:memmove.obj
 0001:0000ebbf       Dword_up_align_loop        1000fbbf     libvcruntime:memcpy.obj
 0001:0000ebbf       Dword_up_align_loop        1000fbbf     libvcruntime:memmove.obj
 0001:0000ebd2       Dword_align_Ok             1000fbd2     libvcruntime:memcpy.obj
 0001:0000ebd2       Dword_align_Ok             1000fbd2     libvcruntime:memmove.obj
 0001:0000ebec       ByteCopyUp                 1000fbec     libvcruntime:memcpy.obj
 0001:0000ebec       ByteCopyUp                 1000fbec     libvcruntime:memmove.obj
 0001:0000ebf4       TrailingUpVec              1000fbf4     libvcruntime:memcpy.obj
 0001:0000ebf4       TrailingUpVec              1000fbf4     libvcruntime:memmove.obj
 0001:0000ec04       TrailingUp0                1000fc04     libvcruntime:memcpy.obj
 0001:0000ec04       TrailingUp0                1000fc04     libvcruntime:memmove.obj
 0001:0000ec0c       TrailingUp1                1000fc0c     libvcruntime:memcpy.obj
 0001:0000ec0c       TrailingUp1                1000fc0c     libvcruntime:memmove.obj
 0001:0000ec18       TrailingUp2                1000fc18     libvcruntime:memcpy.obj
 0001:0000ec18       TrailingUp2                1000fc18     libvcruntime:memmove.obj
 0001:0000ec2c       TrailingUp3                1000fc2c     libvcruntime:memcpy.obj
 0001:0000ec2c       TrailingUp3                1000fc2c     libvcruntime:memmove.obj
 0001:0000ec44       CopyDown                   1000fc44     libvcruntime:memcpy.obj
 0001:0000ec44       CopyDown                   1000fc44     libvcruntime:memmove.obj
 0001:0000ec69       CopyDownNotAligned         1000fc69     libvcruntime:memcpy.obj
 0001:0000ec69       CopyDownNotAligned         1000fc69     libvcruntime:memmove.obj
 0001:0000ec70       CopyDownAlignLoop          1000fc70     libvcruntime:memcpy.obj
 0001:0000ec70       CopyDownAlignLoop          1000fc70     libvcruntime:memmove.obj
 0001:0000ec7d       CopyDownAligned            1000fc7d     libvcruntime:memcpy.obj
 0001:0000ec7d       CopyDownAligned            1000fc7d     libvcruntime:memmove.obj
 0001:0000eca0       TrailingDownVec            1000fca0     libvcruntime:memcpy.obj
 0001:0000eca0       TrailingDownVec            1000fca0     libvcruntime:memmove.obj
 0001:0000ecb0       TrailingDown0              1000fcb0     libvcruntime:memcpy.obj
 0001:0000ecb0       TrailingDown0              1000fcb0     libvcruntime:memmove.obj
 0001:0000ecb8       TrailingDown1              1000fcb8     libvcruntime:memcpy.obj
 0001:0000ecb8       TrailingDown1              1000fcb8     libvcruntime:memmove.obj
 0001:0000ecc8       TrailingDown2              1000fcc8     libvcruntime:memcpy.obj
 0001:0000ecc8       TrailingDown2              1000fcc8     libvcruntime:memmove.obj
 0001:0000ecdc       TrailingDown3              1000fcdc     libvcruntime:memcpy.obj
 0001:0000ecdc       TrailingDown3              1000fcdc     libvcruntime:memmove.obj
 0001:0000ecf5       XmmMovLargeAlignTest       1000fcf5     libvcruntime:memcpy.obj
 0001:0000ecf5       XmmMovLargeAlignTest       1000fcf5     libvcruntime:memmove.obj
 0001:0000ecfd       XmmMovAlignLoop            1000fcfd     libvcruntime:memcpy.obj
 0001:0000ecfd       XmmMovAlignLoop            1000fcfd     libvcruntime:memmove.obj
 0001:0000ed0c       XmmMovLargeLoop            1000fd0c     libvcruntime:memcpy.obj
 0001:0000ed0c       XmmMovLargeLoop            1000fd0c     libvcruntime:memmove.obj
 0001:0000ed7c       XmmMovSmallTest            1000fd7c     libvcruntime:memcpy.obj
 0001:0000ed7c       XmmMovSmallTest            1000fd7c     libvcruntime:memmove.obj
 0001:0000ed81       XmmMovSmallLoop            1000fd81     libvcruntime:memcpy.obj
 0001:0000ed81       XmmMovSmallLoop            1000fd81     libvcruntime:memmove.obj
 0001:0000eda4       CopyDownSmall              1000fda4     libvcruntime:memcpy.obj
 0001:0000eda4       CopyDownSmall              1000fda4     libvcruntime:memmove.obj
 0001:0000edac       CopyDownDwordLoop          1000fdac     libvcruntime:memcpy.obj
 0001:0000edac       CopyDownDwordLoop          1000fdac     libvcruntime:memmove.obj
 0001:0000edc1       CopyDownByteTest           1000fdc1     libvcruntime:memcpy.obj
 0001:0000edc1       CopyDownByteTest           1000fdc1     libvcruntime:memmove.obj
 0001:0000edc5       CopyDownByteLoop           1000fdc5     libvcruntime:memcpy.obj
 0001:0000edc5       CopyDownByteLoop           1000fdc5     libvcruntime:memmove.obj
 0001:0000edd4       CopyDownReturn             1000fdd4     libvcruntime:memcpy.obj
 0001:0000edd4       CopyDownReturn             1000fdd4     libvcruntime:memmove.obj
 0001:0000ede0       XmmCopy                    1000fde0     libvcruntime:memcpy.obj
 0001:0000ede0       XmmCopy                    1000fde0     libvcruntime:memmove.obj
 0001:0000eded       XmmCopyAligned             1000fded     libvcruntime:memcpy.obj
 0001:0000eded       XmmCopyAligned             1000fded     libvcruntime:memmove.obj
 0001:0000ee00       XmmCopyLargeLoop           1000fe00     libvcruntime:memcpy.obj
 0001:0000ee00       XmmCopyLargeLoop           1000fe00     libvcruntime:memmove.obj
 0001:0000ee5d       XmmCopySmallTest           1000fe5d     libvcruntime:memcpy.obj
 0001:0000ee5d       XmmCopySmallTest           1000fe5d     libvcruntime:memmove.obj
 0001:0000ee70       XmmCopySmallLoop           1000fe70     libvcruntime:memcpy.obj
 0001:0000ee70       XmmCopySmallLoop           1000fe70     libvcruntime:memmove.obj
 0001:0000ee8b       CopyUpDwordMov             1000fe8b     libvcruntime:memcpy.obj
 0001:0000ee8b       CopyUpDwordMov             1000fe8b     libvcruntime:memmove.obj
 0001:0000ee90       CopyUpDwordTest            1000fe90     libvcruntime:memcpy.obj
 0001:0000ee90       CopyUpDwordTest            1000fe90     libvcruntime:memmove.obj
 0001:0000ee97       CopyUpDwordLoop            1000fe97     libvcruntime:memcpy.obj
 0001:0000ee97       CopyUpDwordLoop            1000fe97     libvcruntime:memmove.obj
 0001:0000eea6       CopyUpByteTest             1000fea6     libvcruntime:memcpy.obj
 0001:0000eea6       CopyUpByteTest             1000fea6     libvcruntime:memmove.obj
 0001:0000eead       CopyUpByteLoop             1000fead     libvcruntime:memcpy.obj
 0001:0000eead       CopyUpByteLoop             1000fead     libvcruntime:memmove.obj
 0001:0000eec0       CopyUpReturn               1000fec0     libvcruntime:memcpy.obj
 0001:0000eec0       CopyUpReturn               1000fec0     libvcruntime:memmove.obj
 0001:0000eed0       XmmCopyUnaligned           1000fed0     libvcruntime:memcpy.obj
 0001:0000eed0       XmmCopyUnaligned           1000fed0     libvcruntime:memmove.obj
 0001:0000eee3       XmmAlignByte               1000fee3     libvcruntime:memcpy.obj
 0001:0000eee3       XmmAlignByte               1000fee3     libvcruntime:memmove.obj
 0001:0000eeec       XmmAlignDwordTest          1000feec     libvcruntime:memcpy.obj
 0001:0000eeec       XmmAlignDwordTest          1000feec     libvcruntime:memmove.obj
 0001:0000eef1       XmmAlignDwordLoop          1000fef1     libvcruntime:memcpy.obj
 0001:0000eef1       XmmAlignDwordLoop          1000fef1     libvcruntime:memmove.obj
 0001:0000eefe       XmmAlignAdjustCnt          1000fefe     libvcruntime:memcpy.obj
 0001:0000eefe       XmmAlignAdjustCnt          1000fefe     libvcruntime:memmove.obj
 0001:0000ef10       $$000000                   1000ff10     libvcruntime:memset.obj
 0001:0000ef55       XMMMov                     1000ff55     libvcruntime:memset.obj
 0001:0000ef90       LargeRangeBytes            1000ff90     libvcruntime:memset.obj
 0001:0000efcd       XmmMovSmall                1000ffcd     libvcruntime:memset.obj
 0001:0000efe0       XmmSmallLoop               1000ffe0     libvcruntime:memset.obj
 0001:0000efe5       MidRangeBytes              1000ffe5     libvcruntime:memset.obj
 0001:0000f001       XMMTrailingBytes           10010001     libvcruntime:memset.obj
 0001:0000f015       SmallMov                   10010015     libvcruntime:memset.obj
 0001:0000f01d       ByteLoop                   1001001d     libvcruntime:memset.obj
 0001:0000f02b       DwordTest                  1001002b     libvcruntime:memset.obj
 0001:0000f03b       QwordTest                  1001003b     libvcruntime:memset.obj
 0001:0000f050       QwordLoop                  10010050     libvcruntime:memset.obj
 0001:0000f063       toend                      10010063     libvcruntime:memset.obj
 0001:0000f522       ?_FilterSetCurrentException@@YAKPAU_EXCEPTION_POINTERS@@E@Z 10010522 f   libvcruntime:ehhelpers.obj
 0001:0000f770       $$000000                   10010770     libvcruntime:exsup4.obj
 0001:0000f7a2       _lu_top                    100107a2     libvcruntime:exsup4.obj
 0001:0000f801       _lu_done                   10010801     libvcruntime:exsup4.obj
 0001:0000f810       $$000000                   10010810     libvcruntime:exsup4.obj
 0001:0000f810       __unwind_handler4          10010810 f   libvcruntime:exsup4.obj
 0001:0000f860       $$000000                   10010860     libvcruntime:exsup4.obj
 0001:0000f880       $$000000                   10010880     libvcruntime:exsup4.obj
 0001:0000f8a0       $$000000                   100108a0     libvcruntime:exsup4.obj
 0001:0000f8b5       ReturnPoint                100108b5     libvcruntime:exsup4.obj
 0001:0000f8c0       $$000000                   100108c0     libvcruntime:exsup4.obj
 0001:0000fab2       ??$BuildCatchObjectHelperInternal@V__FrameHandler3@@@@YAHPAUEHExceptionRecord@@PAXPBU_s_HandlerType@@PBU_s_CatchableType@@@Z 10010ab2 f   libvcruntime:frame.obj
 0001:0000fbf0       ??$BuildCatchObjectInternal@V__FrameHandler3@@@@YAXPAUEHExceptionRecord@@PAXPBU_s_HandlerType@@PBU_s_CatchableType@@@Z 10010bf0 f   libvcruntime:frame.obj
 0001:0000fc89       ??$CatchIt@V__FrameHandler3@@@@YAXPAUEHExceptionRecord@@PAUEHRegistrationNode@@PAU_CONTEXT@@PAXPBU_s_FuncInfo@@PBU_s_HandlerType@@PBU_s_CatchableType@@PBU_s_TryBlockMapEntry@@H1EE@Z 10010c89 f   libvcruntime:frame.obj
 0001:0000fd09       ??$FindHandler@V__FrameHandler3@@@@YAXPAUEHExceptionRecord@@PAUEHRegistrationNode@@PAU_CONTEXT@@PAXPBU_s_FuncInfo@@EH1@Z 10010d09 f   libvcruntime:frame.obj
 0001:000100ae       ??$FindHandlerForForeignException@V__FrameHandler3@@@@YAXPAUEHExceptionRecord@@PAUEHRegistrationNode@@PAU_CONTEXT@@PAXPBU_s_FuncInfo@@HH1@Z 100110ae f   libvcruntime:frame.obj
 0001:000103c6       ?CallCatchBlock@@YAPAXPAUEHExceptionRecord@@PAUEHRegistrationNode@@PAU_CONTEXT@@PBU_s_FuncInfo@@PAXHK@Z 100113c6 f   libvcruntime:frame.obj
 0001:00010595       ?CallUnexpected@@YAXPBU_s_ESTypeList@@@Z 10011595 f   libvcruntime:frame.obj
 0001:000105b5       __catch$?CallUnexpected@@YAXPBU_s_ESTypeList@@@Z$0 100115b5 f   libvcruntime:frame.obj
 0001:000105d4       ?ExFilterRethrow@@YAHPAU_EXCEPTION_POINTERS@@@Z 100115d4 f   libvcruntime:frame.obj
 0001:0001071e       ?IsInExceptionSpec@@YAEPAUEHExceptionRecord@@PBU_s_ESTypeList@@@Z 1001171e f   libvcruntime:frame.obj
 0001:000107f0       $$000000                   100117f0     libvcruntime:lowhelpr.obj
 0001:0001082f       _NLG_Continue              1001182f     libvcruntime:lowhelpr.obj
 0001:00010840       $$000000                   10011840     libvcruntime:exsup.obj
 0001:00010850       $$000000                   10011850     libvcruntime:exsup.obj
 0001:0001085b       __NLG_Go                   1001185b     libvcruntime:exsup.obj
 0001:00010870       $$000000                   10011870     libvcruntime:exsup.obj
 0001:00010873       ?try_get_first_available_module@@YAPAUHINSTANCE__@@QBW4module_id@?A0x592e9a36@@0@Z 10011873 f   libvcruntime:winapi_downlevel.obj
 0001:0001090e       ?try_get_function@@YAPAXW4function_id@?A0x592e9a36@@QBDQBW4module_id@2@2@Z 1001190e f   libvcruntime:winapi_downlevel.obj
 0001:00011044       ??$common_tcscat_s@_W@@YAHQA_WIQB_W@Z 10012044 f   libucrt:wcscat_s.obj
 0001:0001112b       ??$common_tcsncpy_s@_W@@YAHQA_WIQB_WI@Z 1001212b f   libucrt:wcsncpy_s.obj
 0001:00011204       ??$common_vsprintf@Vformat_validation_base@__crt_stdio_output@@_W@@YAH_KQA_WIQB_WAAV__crt_cached_ptd_host@@QAD@Z 10012204 f   libucrt:output.obj
 0001:00011387       ??$common_vsprintf_s@_W@@YAH_KQA_WIQB_WAAV__crt_cached_ptd_host@@QAD@Z 10012387 f   libucrt:output.obj
 0001:000127ef       $LN116                     100137ef     libucrt:output.obj
 0001:00012df2       $LN18                      10013df2     libucrt:output.obj
 0001:00012e06       $LN17                      10013e06     libucrt:output.obj
 0001:00013541       ??$?RV<lambda_03b1d95aef87969028cfba75ccab2455>@@AAV<lambda_6e4b09c48022b2350581041d5f6b0c4c>@@V<lambda_22bdf7517842c4b3e53723af5aa32b9e>@@@?$__crt_seh_guarded_call@X@@QAEX$$QAV<lambda_03b1d95aef87969028cfba75ccab2455>@@AAV<lambda_6e4b09c48022b2350581041d5f6b0c4c>@@$$QAV<lambda_22bdf7517842c4b3e53723af5aa32b9e>@@@Z 10014541 f   libucrt:exit.obj
 0001:0001358e       ??R<lambda_6e4b09c48022b2350581041d5f6b0c4c>@@QBE@XZ 1001458e f   libucrt:exit.obj
 0001:00013679       ?common_exit@@YAXHW4_crt_exit_cleanup_mode@@W4_crt_exit_return_mode@@@Z 10014679 f   libucrt:exit.obj
 0001:00013710       ?exit_or_terminate_process@@YAXI@Z 10014710 f   libucrt:exit.obj
 0001:00013741       ?is_managed_app@@YA_NXZ    10014741 f   libucrt:exit.obj
 0001:00013784       ?should_call_terminate_process@@YA_NXZ 10014784 f   libucrt:exit.obj
 0001:000137a6       ?try_cor_exit_process@@YAXI@Z 100147a6 f   libucrt:exit.obj
 0001:00013863       ??$common_configure_argv@D@@YAHW4_crt_argv_mode@@@Z 10014863 f   libucrt:argv_parsing.obj
 0001:000139a0       ??$parse_command_line@D@@YAXPADPAPAD0PAI2@Z 100149a0 f   libucrt:argv_parsing.obj
 0001:00013b6e       ??$common_initialize_environment_nolock@D@@YAHXZ 10014b6e f   libucrt:environment_initialization.obj
 0001:00013bc8       ??$create_environment@D@@YAQAPADQAD@Z 10014bc8 f   libucrt:environment_initialization.obj
 0001:00013caa       ??$free_environment@D@@YAXQAPAD@Z 10014caa f   libucrt:environment_initialization.obj
 0001:00013caa       ??$free_environment@_W@@YAXQAPA_W@Z 10014caa f   libucrt:environment_initialization.obj
 0001:00013cd9       ??$uninitialize_environment_internal@D@@YAXAAPAPAD@Z 10014cd9 f   libucrt:environment_initialization.obj
 0001:00013cf4       ??$uninitialize_environment_internal@_W@@YAXAAPAPA_W@Z 10014cf4 f   libucrt:environment_initialization.obj
 0001:00013d65       ??$?RV<lambda_69a2805e680e0e292e8ba93315fe43a8>@@AAV<lambda_f03950bc5685219e0bcd2087efbe011e>@@V<lambda_03fcd07e894ec930e3f35da366ca99d6>@@@?$__crt_seh_guarded_call@H@@QAEH$$QAV<lambda_69a2805e680e0e292e8ba93315fe43a8>@@AAV<lambda_f03950bc5685219e0bcd2087efbe011e>@@$$QAV<lambda_03fcd07e894ec930e3f35da366ca99d6>@@@Z 10014d65 f   libucrt:onexit.obj
 0001:00013dc0       ??$?RV<lambda_8e746cf0007f6ed984d6f78af1fec997>@@AAV<lambda_22ebabd17bc4fa466a2aca6d8deb888d>@@V<lambda_18ed0c0b38a6dc0daf1e7ac6d6adf05e>@@@?$__crt_seh_guarded_call@H@@QAEH$$QAV<lambda_8e746cf0007f6ed984d6f78af1fec997>@@AAV<lambda_22ebabd17bc4fa466a2aca6d8deb888d>@@$$QAV<lambda_18ed0c0b38a6dc0daf1e7ac6d6adf05e>@@@Z 10014dc0 f   libucrt:onexit.obj
 0001:00013e3a       ??R<lambda_22ebabd17bc4fa466a2aca6d8deb888d>@@QBEHXZ 10014e3a f   libucrt:onexit.obj
 0001:00013f3c       ??R<lambda_f03950bc5685219e0bcd2087efbe011e>@@QBEHXZ 10014f3c f   libucrt:onexit.obj
 0001:000140c6       _uninitialize_allocated_io_buffers 100150c6 f   libucrt:initialization.obj
 0001:00014116       _initialize_environment    10015116 f   libucrt:initialization.obj
 0001:00014116       _initialize_global_state_isolation 10015116 f   libucrt:initialization.obj
 0001:00014116       _report_memory_leaks       10015116 f   libucrt:initialization.obj
 0001:00014116       _uninitialize_c            10015116 f   libucrt:initialization.obj
 0001:00014116       _uninitialize_global_state_isolation 10015116 f   libucrt:initialization.obj
 0001:00014119       _initialize_global_variables 10015119 f   libucrt:initialization.obj
 0001:00014126       _initialize_c              10015126 f   libucrt:initialization.obj
 0001:00014140       _uninitialize_environment  10015140 f   libucrt:initialization.obj
 0001:00014148       _initialize_pointers       10015148 f   libucrt:initialization.obj
 0001:00014176       _uninitialize_vcruntime    10015176 f   libucrt:initialization.obj
 0001:0001417f       _uninitialize_allocated_memory 1001517f f   libucrt:initialization.obj
 0001:00014196       ??R<lambda_af42a3ee9806e9a7305d451646e05244>@@QBEXAAPAU__crt_multibyte_data@@@Z 10015196 f   libucrt:initialization.obj
 0001:00014400       $$000000                   10015400     libucrt:strncmp.obj
 0001:000144ec       ??$?RV<lambda_15ade71b0218206bbe3333a0c9b79046>@@AAV<lambda_da44e0f8b0f19ba52fefafb335991732>@@V<lambda_207f2d024fc103971653565357d6cd41>@@@?$__crt_seh_guarded_call@X@@QAEX$$QAV<lambda_15ade71b0218206bbe3333a0c9b79046>@@AAV<lambda_da44e0f8b0f19ba52fefafb335991732>@@$$QAV<lambda_207f2d024fc103971653565357d6cd41>@@@Z 100154ec f   libucrt:per_thread_data.obj
 0001:0001453e       ??$?RV<lambda_38edbb1296d33220d7e4dd0ed76b244a>@@AAV<lambda_5ce1d447e08cb34b2473517608e21441>@@V<lambda_fb385d3da700c9147fc39e65dd577a8c>@@@?$__crt_seh_guarded_call@X@@QAEX$$QAV<lambda_38edbb1296d33220d7e4dd0ed76b244a>@@AAV<lambda_5ce1d447e08cb34b2473517608e21441>@@$$QAV<lambda_fb385d3da700c9147fc39e65dd577a8c>@@@Z 1001553e f   libucrt:per_thread_data.obj
 0001:000145a9       ??$?RV<lambda_6affb1475c98b40b75cdec977db92e3c>@@AAV<lambda_b8d4b9c228a6ecc3f80208dbb4b4a104>@@V<lambda_608742c3c92a14382c1684fc64f96c88>@@@?$__crt_seh_guarded_call@X@@QAEX$$QAV<lambda_6affb1475c98b40b75cdec977db92e3c>@@AAV<lambda_b8d4b9c228a6ecc3f80208dbb4b4a104>@@$$QAV<lambda_608742c3c92a14382c1684fc64f96c88>@@@Z 100155a9 f   libucrt:per_thread_data.obj
 0001:000145fe       ??$?RV<lambda_a7e850c220f1c8d1e6efeecdedd162c6>@@AAV<lambda_46720907175c18b6c9d2717bc0d2d362>@@V<lambda_9048902d66e8d99359bc9897bbb930a8>@@@?$__crt_seh_guarded_call@X@@QAEX$$QAV<lambda_a7e850c220f1c8d1e6efeecdedd162c6>@@AAV<lambda_46720907175c18b6c9d2717bc0d2d362>@@$$QAV<lambda_9048902d66e8d99359bc9897bbb930a8>@@@Z 100155fe f   libucrt:per_thread_data.obj
 0001:00014658       ?construct_ptd@@YAXQAU__acrt_ptd@@QAPAU__crt_locale_data@@@Z 10015658 f   libucrt:per_thread_data.obj
 0001:000146f1       ?destroy_fls@@YGXPAX@Z     100156f1 f   libucrt:per_thread_data.obj
 0001:00014712       ?destroy_ptd@@YAXQAU__acrt_ptd@@@Z 10015712 f   libucrt:per_thread_data.obj
 0001:000147df       ?replace_current_thread_locale_nolock@@YAXQAU__acrt_ptd@@QAU__crt_locale_data@@@Z 100157df f   libucrt:per_thread_data.obj
 0001:00014b41       ??$?RV<lambda_e5124f882df8998aaf41531e079ba474>@@AAV<lambda_3e16ef9562a7dcce91392c22ab16ea36>@@V<lambda_e25ca0880e6ef98be67edffd8c599615>@@@?$__crt_seh_guarded_call@X@@QAEX$$QAV<lambda_e5124f882df8998aaf41531e079ba474>@@AAV<lambda_3e16ef9562a7dcce91392c22ab16ea36>@@$$QAV<lambda_e25ca0880e6ef98be67edffd8c599615>@@@Z 10015b41 f   libucrt:wsetlocale.obj
 0001:00014d28       ?try_get_AreFileApisANSI@@YAP6GHXZXZ 10015d28 f   libucrt:winapi_thunks.obj
 0001:00014d42       ?try_get_LCMapStringEx@@YAP6GHPB_WK0HPA_WHPAU_nlsversioninfo@@PAXJ@ZXZ 10015d42 f   libucrt:winapi_thunks.obj
 0001:00014d5c       ?try_get_LocaleNameToLCID@@YAP6GKPB_WK@ZXZ 10015d5c f   libucrt:winapi_thunks.obj
 0001:00014d76       ?try_get_first_available_module@@YAPAUHINSTANCE__@@QBW4module_id@?A0x391cf84c@@0@Z 10015d76 f   libucrt:winapi_thunks.obj
 0001:00014e41       ?try_get_function@@YAPAXW4function_id@?A0x391cf84c@@QBDQBW4module_id@2@2@Z 10015e41 f   libucrt:winapi_thunks.obj
 0001:0001544e       ?fe_to_nearest@@YA_NQBN_KF@Z 1001644e f   libucrt:cvt.obj
 0001:000154f1       ?fp_format_a@@YAHQBNPADIQADIH_NIW4__acrt_rounding_mode@@AAV__crt_cached_ptd_host@@@Z 100164f1 f   libucrt:cvt.obj
 0001:0001581d       ?fp_format_e@@YAHQBNQADI1IH_NIW4__acrt_rounding_mode@@AAV__crt_cached_ptd_host@@@Z 1001681d f   libucrt:cvt.obj
 0001:000158c1       ?fp_format_e_internal@@YAHQADIH_NIQAU_strflt@@1AAV__crt_cached_ptd_host@@@Z 100168c1 f   libucrt:cvt.obj
 0001:00015a06       ?fp_format_f@@YAHQBNQADI1IHW4__acrt_rounding_mode@@AAV__crt_cached_ptd_host@@@Z 10016a06 f   libucrt:cvt.obj
 0001:00015a9c       ?fp_format_f_internal@@YAHQADIHQAU_strflt@@_NAAV__crt_cached_ptd_host@@@Z 10016a9c f   libucrt:cvt.obj
 0001:00015b8a       ?fp_format_g@@YAHQBNQADI1IH_NIW4__acrt_rounding_mode@@AAV__crt_cached_ptd_host@@@Z 10016b8a f   libucrt:cvt.obj
 0001:00015c59       ?fp_format_nan_or_infinity@@YAHW4__acrt_fp_class@@_NPADI1@Z 10016c59 f   libucrt:cvt.obj
 0001:00015cee       ?shift_bytes@@YAXQADI0H@Z  10016cee f   libucrt:cvt.obj
 0001:00015d22       ?should_round_up@@YA_NQBN_KFW4__acrt_rounding_mode@@@Z 10016d22 f   libucrt:cvt.obj
 0001:000161e1       ?initialize_inherited_file_handles_nolock@@YAXXZ 100171e1 f   libucrt:ioinit.obj
 0001:00016297       ?initialize_stdio_handles_nolock@@YAXXZ 10017297 f   libucrt:ioinit.obj
 0001:000164a4       ?<lambda_invoker_cdecl>@<lambda_838c7f62c73c983481e27c09e84b0b5d>@@CAHPBX0@Z 100174a4 f   libucrt:argv_wildcards.obj
 0001:00016651       ??$common_expand_argv_wildcards@D@@YAHQAPADQAPAPAD@Z 10017651 f   libucrt:argv_wildcards.obj
 0001:000167ce       ??$copy_and_add_argument_to_buffer@D@@YAHQBD0IAAV?$argument_list@D@?A0x5f5c8891@@@Z 100177ce f   libucrt:argv_wildcards.obj
 0001:0001687f       ??$expand_argument_wildcards@D@@YAHQAD0AAV?$argument_list@D@?A0x5f5c8891@@@Z 1001787f f   libucrt:argv_wildcards.obj
 0001:00016b86       ??1?$argument_list@D@?A0x5f5c8891@@QAE@XZ 10017b86 f   libucrt:argv_wildcards.obj
 0001:00016cc6       ?expand_if_necessary@?$argument_list@D@?A0x5f5c8891@@AAEHXZ 10017cc6 f   libucrt:argv_wildcards.obj
 0001:00016ef6       ??$?RV<lambda_ceb1ee4838e85a9d631eb091e2fbe199>@@AAV<lambda_ae742caa10f662c28703da3d2ea5e57e>@@V<lambda_cd08b5d6af4937fe54fc07d0c9bf6b37>@@@?$__crt_seh_guarded_call@X@@QAEX$$QAV<lambda_ceb1ee4838e85a9d631eb091e2fbe199>@@AAV<lambda_ae742caa10f662c28703da3d2ea5e57e>@@$$QAV<lambda_cd08b5d6af4937fe54fc07d0c9bf6b37>@@@Z 10017ef6 f   libucrt:mbctype.obj
 0001:00016f43       ??R<lambda_ae742caa10f662c28703da3d2ea5e57e>@@QBEXXZ 10017f43 f   libucrt:mbctype.obj
 0001:00016fc6       ?CPtoLocaleName@@YAPB_WH@Z 10017fc6 f   libucrt:mbctype.obj
 0001:00017004       ?getSystemCP@@YAHH@Z       10018004 f   libucrt:mbctype.obj
 0001:00017075       ?setSBCS@@YAXPAU__crt_multibyte_data@@@Z 10018075 f   libucrt:mbctype.obj
 0001:000170d8       ?setSBUpLow@@YAXPAU__crt_multibyte_data@@@Z 100180d8 f   libucrt:mbctype.obj
 0001:00017284       ?setmbcp_internal@@YAHH_NQAU__acrt_ptd@@QAPAU__crt_multibyte_data@@@Z 10018284 f   libucrt:mbctype.obj
 0001:000173d9       ?update_thread_multibyte_data_internal@@YAPAU__crt_multibyte_data@@QAU__acrt_ptd@@QAPAU1@@Z 100183d9 f   libucrt:mbctype.obj
 0001:000176dc       _memcpy_s                  100186dc f   libucrt:cfout.obj
 0001:000176dc       _memcpy_s                  100186dc f   libucrt:mbctype.obj
 0001:0001775d       ?x_ismbbtype_l@@YAHPAU__crt_locale_pointers@@IHH@Z 1001875d f   libucrt:ismbbyte.obj
 0001:00017911       ?find_end_of_double_null_terminated_sequence@@YAPB_WQB_W@Z 10018911 f   libucrt:get_environment_from_os.obj
 0001:00017a9c       ??$?RV<lambda_cbab9ec6f41b0180b23cc171c22676b0>@@AAV<lambda_44731a7d0e6d81c3e6aa82d741081786>@@V<lambda_4b292cb8dd18144e164572427af410ab>@@@?$__crt_seh_guarded_call@P6AXH@Z@@QAEP6AXH@Z$$QAV<lambda_cbab9ec6f41b0180b23cc171c22676b0>@@AAV<lambda_44731a7d0e6d81c3e6aa82d741081786>@@$$QAV<lambda_4b292cb8dd18144e164572427af410ab>@@@Z 10018a9c f   libucrt:signal.obj
 0001:00017b00       ?get_global_action_nolock@@YAPAP6AXH@ZH@Z 10018b00 f   libucrt:signal.obj
 0001:00017b42       ?siglookup@@YAPAU__crt_signal_action_t@@HQAU1@@Z 10018b42 f   libucrt:signal.obj
 0001:00017dfb       ??$?RV<lambda_2866be3712abc81a800a822484c830d8>@@AAV<lambda_39ca0ed439415581b5b15c265174cece>@@V<lambda_2b24c74d71094a6cd0cb82e44167d71b>@@@?$__crt_seh_guarded_call@X@@QAEX$$QAV<lambda_2866be3712abc81a800a822484c830d8>@@AAV<lambda_39ca0ed439415581b5b15c265174cece>@@$$QAV<lambda_2b24c74d71094a6cd0cb82e44167d71b>@@@Z 10018dfb f   libucrt:fflush.obj
 0001:00017e87       ??$?RV<lambda_2cc53f568c5a2bb6f192f930a45d44ea>@@AAV<lambda_ab61a845afdef5b7c387490eaf3616ee>@@V<lambda_c2ffc0b7726aa6be21d5f0026187e748>@@@?$__crt_seh_guarded_call@X@@QAEX$$QAV<lambda_2cc53f568c5a2bb6f192f930a45d44ea>@@AAV<lambda_ab61a845afdef5b7c387490eaf3616ee>@@$$QAV<lambda_c2ffc0b7726aa6be21d5f0026187e748>@@@Z 10018e87 f   libucrt:fflush.obj
 0001:00017f33       ?common_flush_all@@YAH_N@Z 10018f33 f   libucrt:fflush.obj
 0001:00017f80       ?common_flush_all_should_try_to_flush_stream@@YA_NV__crt_stdio_stream@@QAH@Z 10018f80 f   libucrt:fflush.obj
 0001:00017fb3       ?is_stream_flushable_or_commitable@@YA_NJ@Z 10018fb3 f   libucrt:fflush.obj
 0001:000185b0       ?free_crt_array_internal@@YAXQAPBXI@Z 100195b0 f   libucrt:inittime.obj
 0001:000187e9       ?GetTableIndexFromLocaleName@@YAHPB_W@Z 100197e9 f   libucrt:lcidtoname_downlevel.obj
 0001:00018865       ?should_round_up@@YA_NQBD0HW4__acrt_has_trailing_digits@@W4__acrt_rounding_mode@@@Z 10019865 f   libucrt:_fptostr.obj
 0001:0001a3ae       ??R<lambda_e96123212306c92459f955e8e4eac55d>@@QBEIPBD@Z 1001b3ae f   libucrt:mbrtowc.obj
 0001:0001adee       ??$common_tcsncpy_s@D@@YAHQADIQBDI@Z 1001bdee f   libucrt:strncpy_s.obj
 0001:0001aeb0       $$000000                   1001beb0     libucrt:strpbrk.obj
 0001:0001af94       ?__acrt_LCMapStringA_stat@@YAHPAU__crt_locale_pointers@@PB_WKPBDHPADHHH@Z 1001bf94 f   libucrt:lcmapstringa.obj
 0001:0001b1cb       ?initialize_multibyte@@YAHXZ 1001c1cb f   libucrt:multibyte_initializer.obj
 0001:0001b1da       ??$?RV<lambda_9e9de3de5fa147e2223d7db92bc10aa6>@@AAV<lambda_38ce7e780aa69e748d6df282ebc68efe>@@V<lambda_8ca6da459f0f6780f1cff60fdc3d00e5>@@@?$__crt_seh_guarded_call@H@@QAEH$$QAV<lambda_9e9de3de5fa147e2223d7db92bc10aa6>@@AAV<lambda_38ce7e780aa69e748d6df282ebc68efe>@@$$QAV<lambda_8ca6da459f0f6780f1cff60fdc3d00e5>@@@Z 1001c1da f   libucrt:commit.obj
 0001:0001b2f9       ?write_double_translated_ansi_nolock@@YA?AUwrite_result@?A0x17268360@@HQBDIAAV__crt_cached_ptd_host@@@Z 1001c2f9 f   libucrt:write.obj
 0001:0001b6cb       ?write_double_translated_unicode_nolock@@YA?AUwrite_result@?A0x17268360@@QBDI@Z 1001c6cb f   libucrt:write.obj
 0001:0001b733       ?write_requires_double_translation_nolock@@YA_NHAAV__crt_cached_ptd_host@@@Z 1001c733 f   libucrt:write.obj
 0001:0001b7b1       ?write_text_ansi_nolock@@YA?AUwrite_result@?A0x17268360@@HQBDI@Z 1001c7b1 f   libucrt:write.obj
 0001:0001b88c       ?write_text_utf16le_nolock@@YA?AUwrite_result@?A0x17268360@@HQBDI@Z 1001c88c f   libucrt:write.obj
 0001:0001b975       ?write_text_utf8_nolock@@YA?AUwrite_result@?A0x17268360@@HQBDI@Z 1001c975 f   libucrt:write.obj
 0001:0001bf20       $$000000                   1001cf20     libucrt:log10_impl.obj
 0001:0001c030       $$000000                   1001d030     libucrt:ceil_pentium4.obj
 0001:0001c14d       ?to_abstract_control@@YA?AW4__acrt_fenv_abstract_control@@W4__acrt_fenv_machine_sse_control@@@Z 1001d14d f   libucrt:_fenvutils.obj
 0001:0001c1fd       ?to_abstract_control@@YA?AW4__acrt_fenv_abstract_control@@W4__acrt_fenv_machine_x87_control@@@Z 1001d1fd f   libucrt:_fenvutils.obj
 0001:0001c2aa       ?to_machine_sse_control@@YA?AW4__acrt_fenv_machine_sse_control@@W4__acrt_fenv_abstract_control@@@Z 1001d2aa f   libucrt:_fenvutils.obj
 0001:0001c360       ?to_machine_x87_control@@YA?AW4__acrt_fenv_machine_x87_control@@W4__acrt_fenv_abstract_control@@@Z 1001d360 f   libucrt:_fenvutils.obj
 0001:0001c8cb       ?_fclose_internal@@YAHQAU_iobuf@@AAV__crt_cached_ptd_host@@@Z 1001d8cb f   libucrt:fclose.obj
 0001:0001c962       ?_fclose_nolock_internal@@YAHQAU_iobuf@@AAV__crt_cached_ptd_host@@@Z 1001d962 f   libucrt:fclose.obj
 0001:0001ca20       ??$common_lseek_nolock@_J@@YA_JH_JHAAV__crt_cached_ptd_host@@@Z 1001da20 f   libucrt:lseek.obj
 0001:0001cb15       ___hw_cw_sse2              1001db15 f   libucrt:ieee87.obj
 0001:0001cf9b       __hw_cw                    1001df9b f   libucrt:ieee87.obj
 0001:0001d050       $$000000                   1001e050     libucrt:log10_pentium4.obj
 0001:0001d2e0       $$000000                   1001e2e0     libucrt:87tran.obj
 0001:0001d4f0       $$000000                   1001e4f0     libucrt:87disp.obj
 0001:0001d750       $$000000                   1001e750     libucrt:common.obj
 0001:0001d8e0       $$000000                   1001e8e0     libucrt:genexcep.obj
 0001:0001dbdc       ??$?RV<lambda_d422a76eb4c3bf3ad751449ab71a6ea4>@@AAV<lambda_c9ba49e555ba839a7b07aa3fbecb7617>@@V<lambda_9476263c8ee91a25d21c55370bdb50de>@@@?$__crt_seh_guarded_call@H@@QAEH$$QAV<lambda_d422a76eb4c3bf3ad751449ab71a6ea4>@@AAV<lambda_c9ba49e555ba839a7b07aa3fbecb7617>@@$$QAV<lambda_9476263c8ee91a25d21c55370bdb50de>@@@Z 1001ebdc f   libucrt:close.obj
 0001:0001ddf0       $$000000                   1001edf0     libucrt:_strnicm.obj
 0001:0001de51       ?__dcrt_lowio_initialize_console_output@@YAXXZ 1001ee51 f   libucrt:initcon.obj
 0001:0001ee00       $$000000                   1001fe00     LIBCMT:ulldvrm.obj
 0001:0001ee31       L1                         1001fe31     LIBCMT:ulldvrm.obj
 0001:0001ee3f       L3                         1001fe3f     LIBCMT:ulldvrm.obj
 0001:0001ee6d       L4                         1001fe6d     LIBCMT:ulldvrm.obj
 0001:0001ee76       L5                         1001fe76     LIBCMT:ulldvrm.obj
 0001:0001ee78       L2                         1001fe78     LIBCMT:ulldvrm.obj
 0001:0001eea0       $$000000                   1001fea0     LIBCMT:llmul.obj
 0001:0001eeb9       hard                       1001feb9     LIBCMT:llmul.obj
 0001:0001eee0       $$000000                   1001fee0     LIBCMT:lldvrm.obj
 0001:0001ef04       L1                         1001ff04     LIBCMT:lldvrm.obj
 0001:0001ef20       L2                         1001ff20     LIBCMT:lldvrm.obj
 0001:0001ef4c       L3                         1001ff4c     LIBCMT:lldvrm.obj
 0001:0001ef5a       L5                         1001ff5a     LIBCMT:lldvrm.obj
 0001:0001ef88       L6                         1001ff88     LIBCMT:lldvrm.obj
 0001:0001ef91       L7                         1001ff91     LIBCMT:lldvrm.obj
 0001:0001ef93       L4                         1001ff93     LIBCMT:lldvrm.obj
 0001:0001efa5       L9                         1001ffa5     LIBCMT:lldvrm.obj
 0001:0001efb9       L8                         1001ffb9     LIBCMT:lldvrm.obj
 0001:0001efc0       $$000000                   1001ffc0     LIBCMT:llshl.obj
 0001:0001efd0       MORE32                     1001ffd0     LIBCMT:llshl.obj
 0001:0001efda       RETZERO                    1001ffda     LIBCMT:llshl.obj
 0001:0001efe0       $$000000                   1001ffe0     LIBCMT:ullshr.obj
 0001:0001eff0       MORE32                     1001fff0     LIBCMT:ullshr.obj
 0001:0001effa       RETZERO                    1001fffa     LIBCMT:ullshr.obj
 0001:0001f000       $$000000                   10020000     LIBCMT:ftol2.obj
 0001:0001f010       $$000000                   10020010     LIBCMT:ftol2.obj
 0001:0001f021       L3B                        10020021     LIBCMT:ftol2.obj
 0001:0001f064       L3F                        10020064     LIBCMT:ftol2.obj
 0001:0001f06c       L40                        1002006c     LIBCMT:ftol2.obj
 0001:0001f07f       L41                        1002007f     LIBCMT:ftol2.obj
 0001:0001f090       $$000000                   10020090     libvcruntime:strrchr.obj
 0001:0001f0cd       strrchr_sse_loop           100200cd     libvcruntime:strrchr.obj
 0001:0001f0fd       strrchr_sse_break          100200fd     libvcruntime:strrchr.obj
 0001:0001f11d       strrchr_sttni              1002011d     libvcruntime:strrchr.obj
 0001:0001f12f       strrchr_sttni_chars        1002012f     libvcruntime:strrchr.obj
 0001:0001f144       strrchr_sttni_aligned      10020144     libvcruntime:strrchr.obj
 0001:0001f148       strrchr_sttni_xmm          10020148     libvcruntime:strrchr.obj
 0001:0001f15b       exit                       1002015b     libvcruntime:strrchr.obj
 0001:0001f15e       strrchr_zero               1002015e     libvcruntime:strrchr.obj
 0001:0001f183       strchr_zero_loop           10020183     libvcruntime:strrchr.obj
 0001:0001f197       strchr_zero_result         10020197     libvcruntime:strrchr.obj
 0001:0001f19e       strrchr_no_sse             1002019e     libvcruntime:strrchr.obj
 0001:0001f1c1       returndi                   100201c1     libvcruntime:strrchr.obj
 0001:0001f1c3       toend                      100201c3     libvcruntime:strrchr.obj
 0001:0001f248       __ehhandler$??2@YAPAXIABUnothrow_t@std@@@Z 10020248 f   LIBCMT:new_scalar_nothrow.obj
 0001:0001f265       __ehhandler$?CallUnexpected@@YAXPBU_s_ESTypeList@@@Z 10020265 f   libvcruntime:frame.obj
 0001:0001f282       __ehhandler$?common_exit@@YAXHW4_crt_exit_cleanup_mode@@W4_crt_exit_return_mode@@@Z 10020282 f   libucrt:exit.obj
 0001:0001f29f       __ehhandler$?try_cor_exit_process@@YAXI@Z 1002029f f   libucrt:exit.obj
 0001:0001f2bc       __ehhandler$___dcrt_uninitialize_environments_nolock 100202bc f   libucrt:environment_initialization.obj
 0001:0001f2d9       __ehhandler$__execute_onexit_table 100202d9 f   libucrt:onexit.obj
 0001:0001f2f6       __ehhandler$?write_double_translated_ansi_nolock@@YA?AUwrite_result@?A0x17268360@@HQBDIAAV__crt_cached_ptd_host@@@Z 100202f6 f   libucrt:write.obj
 0001:0001f320       ??__F_AtlComModule@ATL@@YAXXZ 10020320 f   OposVariant.obj
 0001:0001f32a       ??__F_AtlWinModule@ATL@@YAXXZ 1002032a f   OposVariant.obj
 0001:0001f344       ??__F_Module@@YAXXZ        10020344 f   VideoCapture.obj
 0001:0001f358       ??__F_AtlBaseModule@ATL@@YAXXZ 10020358 f   atls:atlbase.obj
 0002:00000308       ?_AtlBaseModule$initializer$@ATL@@3P6AXXZA 10021308     atls:atlbase.obj
 0002:0000030c       ?_AtlComModule$initializer$@ATL@@3P6AXXZA 1002130c     OposVariant.obj
 0002:00000310       ?_AtlWinModule$initializer$@ATL@@3P6AXXZA 10021310     OposVariant.obj
 0002:00000314       ?_Module$initializer$@@3P6AXXZA 10021314     VideoCapture.obj
 0002:00000318       ??pConnMap$initializer$@?$IConnectionPointContainerImpl@VCOPOSVideoCapture@@@ATL@@0P6AXXZA@@3P6AXXZA 10021318     VideoCapture.obj
 0002:00000324       ?__scrt_initialize_tss_var@@3P6AHXZA 10021324     LIBCMT:thread_safe_statics.obj
 0002:000019e0       _GS_ExceptionPointers      100229e0     LIBCMT:gs_report.obj
 0002:00001b70       ?tokenTable@@3QBUStringLiteral@@B 10022b70     libvcruntime:undname.obj
 0002:00001bf8       ?nameTable@@3QBUStringLiteral@@B 10022bf8     libvcruntime:undname.obj
 0002:00001e90       ?rttiTable@@3QBUStringLiteral@@B 10022e90     libvcruntime:undname.obj
 0002:00001eb8       ?IndirectionName@@3QBUStringLiteral@@B 10022eb8     libvcruntime:undname.obj
 0002:00001ee8       ?PrefixName@@3QBUStringLiteral@@B 10022ee8     libvcruntime:undname.obj
 0002:00002524       ?module_names@?A0x592e9a36@@3QBQB_WB 10023524     libvcruntime:winapi_downlevel.obj
 0002:000025cc       ?candidate_modules@?1??try_get_FlsAlloc@@YAP6GKP6GXPAX@Z@ZXZ@4QBW4module_id@?A0x592e9a36@@B 100235cc     libvcruntime:winapi_downlevel.obj
 0002:000025e0       ?candidate_modules@?1??try_get_FlsFree@@YAP6GHK@ZXZ@4QBW4module_id@?A0x592e9a36@@B 100235e0     libvcruntime:winapi_downlevel.obj
 0002:000025f0       ?candidate_modules@?1??try_get_FlsGetValue@@YAP6GPAXK@ZXZ@4QBW4module_id@?A0x592e9a36@@B 100235f0     libvcruntime:winapi_downlevel.obj
 0002:00002604       ?candidate_modules@?1??try_get_FlsSetValue@@YAP6GHKPAX@ZXZ@4QBW4module_id@?A0x592e9a36@@B 10023604     libvcruntime:winapi_downlevel.obj
 0002:00002618       ?candidate_modules@?1??try_get_InitializeCriticalSectionEx@@YAP6GHPAU_RTL_CRITICAL_SECTION@@KK@ZXZ@4QBW4module_id@?A0x592e9a36@@B 10023618     libvcruntime:winapi_downlevel.obj
 0002:00002640       ?errtable@@3QBUerrentry@?A0x31fdb9ec@@B 10023640     libucrt:errno.obj
 0002:00002988       ___acrt_initializers       10023988     libucrt:initialization.obj
 0002:00002ec8       ?module_names@?A0x391cf84c@@3QBQB_WB 10023ec8     libucrt:winapi_thunks.obj
 0002:0000337c       ?candidate_modules@?1??try_get_AreFileApisANSI@@YAP6GHXZXZ@4QBW4module_id@?A0x391cf84c@@B 1002437c     libucrt:winapi_thunks.obj
 0002:00003390       ?candidate_modules@?1??try_get_InitializeCriticalSectionEx@@YAP6GHPAU_RTL_CRITICAL_SECTION@@KK@ZXZ@4QBW4module_id@?A0x391cf84c@@B 10024390     libucrt:winapi_thunks.obj
 0002:00003398       ?candidate_modules@?1??try_get_LCMapStringEx@@YAP6GHPB_WK0HPA_WHPAU_nlsversioninfo@@PAXJ@ZXZ@4QBW4module_id@?A0x391cf84c@@B 10024398     libucrt:winapi_thunks.obj
 0002:000033b0       ?candidate_modules@?1??try_get_LocaleNameToLCID@@YAP6GKPB_WK@ZXZ@4QBW4module_id@?A0x391cf84c@@B 100243b0     libucrt:winapi_thunks.obj
 0002:000033cc       ?candidate_modules@?1??try_get_AppPolicyGetProcessTerminationMethod@@YAP6GJPAXPAW4AppPolicyProcessTerminationMethod@@@ZXZ@4QBW4module_id@?A0x391cf84c@@B 100243cc     libucrt:winapi_thunks.obj
 0002:000033f8       ?candidate_modules@?1??try_get_SetThreadStackGuarantee@@YAP6GHPAK@ZXZ@4QBW4module_id@?A0x391cf84c@@B 100243f8     libucrt:winapi_thunks.obj
 0002:00003418       ?candidate_modules@?1??try_get_FlsAlloc@@YAP6GKP6GXPAX@Z@ZXZ@4QBW4module_id@?A0x391cf84c@@B 10024418     libucrt:winapi_thunks.obj
 0002:00003420       ?candidate_modules@?1??try_get_FlsFree@@YAP6GHK@ZXZ@4QBW4module_id@?A0x391cf84c@@B 10024420     libucrt:winapi_thunks.obj
 0002:00003428       ?candidate_modules@?1??try_get_FlsGetValue@@YAP6GPAXK@ZXZ@4QBW4module_id@?A0x391cf84c@@B 10024428     libucrt:winapi_thunks.obj
 0002:00003430       ?candidate_modules@?1??try_get_FlsSetValue@@YAP6GHKPAX@ZXZ@4QBW4module_id@?A0x391cf84c@@B 10024430     libucrt:winapi_thunks.obj
 0002:00003438       ?strings@?1??fp_format_nan_or_infinity@@YAHW4__acrt_fp_class@@_NPADI1@Z@4QAY03QBDA 10024438     libucrt:cvt.obj
 0002:000034c0       ?_mb_locale_names@@3QBQB_WB 100244c0     libucrt:mbctype.obj
 0002:00003b08       ?LcidToLocaleNameTable@?A0x881e4c05@@3QBULcidToLocaleName@1@B 10024b08     libucrt:lcidtoname_downlevel.obj
 0002:00004c28       ?LocaleNameToIndexTable@?A0x881e4c05@@3QBULocaleNameIndex@1@B 10025c28     libucrt:lcidtoname_downlevel.obj
 0002:00006560       LOG_name                   10027560     libucrt:log10_impl.obj
 0002:00006570       _One                       10027570     libucrt:ceil_pentium4.obj
 0002:00006580       _Bns                       10027580     libucrt:ceil_pentium4.obj
 0002:00006590       _Zero                      10027590     libucrt:ceil_pentium4.obj
 0002:000065a0       _S                         100275a0     libucrt:ceil_pentium4.obj
 0002:000065b0       _NegZero                   100275b0     libucrt:ceil_pentium4.obj
 0002:000065c0       emask                      100275c0     libucrt:log10_pentium4.obj
 0002:000065d0       CC                         100275d0     libucrt:log10_pentium4.obj
 0002:000065e0       Magic                      100275e0     libucrt:log10_pentium4.obj
 0002:000065f0       hi_mask                    100275f0     libucrt:log10_pentium4.obj
 0002:00006600       LOG10_2                    10027600     libucrt:log10_pentium4.obj
 0002:00006610       place_L                    10027610     libucrt:log10_pentium4.obj
 0002:00006630       One                        10027630     libucrt:log10_pentium4.obj
 0002:00006640       Zero                       10027640     libucrt:log10_pentium4.obj
 0002:00006650       Two52                      10027650     libucrt:log10_pentium4.obj
 0002:00006660       Infs                       10027660     libucrt:log10_pentium4.obj
 0002:00006670       NaN                        10027670     libucrt:log10_pentium4.obj
 0002:00006680       coeff                      10027680     libucrt:log10_pentium4.obj
 0002:000066de       _log2max                   100276de     libucrt:87tran.obj
 0002:000066e8       _smallarg                  100276e8     libucrt:87tran.obj
 0002:000066f2       _half                      100276f2     libucrt:87tran.obj
 0002:0000673e       One                        1002773e     libucrt:87disp.obj
 0002:00006746       Three                      10027746     libucrt:87disp.obj
 0002:0000674e       XAMtoTagTab                1002774e     libucrt:87disp.obj
 0002:00006760       One                        10027760     libucrt:common.obj
 0002:00006774       DblMax                     10027774     libucrt:common.obj
 0002:0000677c       DblMin                     1002777c     libucrt:common.obj
 0002:00006784       IeeeAdjO                   10027784     libucrt:common.obj
 0002:0000678c       IeeeAdjU                   1002778c     libucrt:common.obj
 0002:00006794       _infinity                  10027794     libucrt:common.obj
 0002:0000679c       _zero                      1002779c     libucrt:common.obj
 0002:000067e8       _over                      100277e8     libucrt:fpctrl.obj
 0002:000067f4       _under                     100277f4     libucrt:fpctrl.obj
 0002:00007028       ?_names@?1??_get_fname@@9@4QBU<unnamed-type-_names>@?1??1@YAPADI@Z@B 10028028     libucrt:fpexcept.obj
 0002:000071d0       two32                      100281d0     LIBCMT:ftol2.obj
 0002:000071d4       two63                      100281d4     LIBCMT:ftol2.obj
 0002:000071d8       _NaN                       100281d8     LIBCMT:ftol2.obj
 0002:00007918       __sehtable$?_AtlVerifyStackAvailable@_ATL_SAFE_ALLOCA_IMPL@ATL@@YA_NK@Z 10028918     VideoCapture.obj
 0002:00007938       __sehtable$___scrt_is_nonwritable_in_current_image 10028938     LIBCMT:utility.obj
 0002:00007954       __catchsym$??2@YAPAXIABUnothrow_t@std@@@Z$2 10028954     LIBCMT:new_scalar_nothrow.obj
 0002:00007964       __unwindtable$??2@YAPAXIABUnothrow_t@std@@@Z 10028964     LIBCMT:new_scalar_nothrow.obj
 0002:00007974       __tryblocktable$??2@YAPAXIABUnothrow_t@std@@@Z 10028974     LIBCMT:new_scalar_nothrow.obj
 0002:00007988       __ehfuncinfo$??2@YAPAXIABUnothrow_t@std@@@Z 10028988     LIBCMT:new_scalar_nothrow.obj
 0002:000079b0       __sehtable$?dllmain_crt_process_attach@@YAHQAUHINSTANCE__@@QAX@Z 100289b0     LIBCMT:dll_dllmain.obj
 0002:000079d0       __sehtable$?dllmain_crt_process_detach@@YAH_N@Z 100289d0     LIBCMT:dll_dllmain.obj
 0002:000079f8       __sehtable$?dllmain_dispatch@@YAHQAUHINSTANCE__@@KQAX@Z 100289f8     LIBCMT:dll_dllmain.obj
 0002:00007aa8       __sehtable$___DestructExceptionObject 10028aa8     libvcruntime:ehhelpers.obj
 0002:00007ac8       __sehtable$?FrameUnwindToState@__FrameHandler3@@SAXPAUEHRegistrationNode@@PAXPBU_s_FuncInfo@@H@Z 10028ac8     libvcruntime:frame.obj
 0002:00007af0       __sehtable$?CallCatchBlock@@YAPAXPAUEHExceptionRecord@@PAUEHRegistrationNode@@PAU_CONTEXT@@PBU_s_FuncInfo@@PAXHK@Z 10028af0     libvcruntime:frame.obj
 0002:00007b18       __catchsym$?CallUnexpected@@YAXPBU_s_ESTypeList@@@Z$2 10028b18     libvcruntime:frame.obj
 0002:00007b28       __unwindtable$?CallUnexpected@@YAXPBU_s_ESTypeList@@@Z 10028b28     libvcruntime:frame.obj
 0002:00007b38       __tryblocktable$?CallUnexpected@@YAXPBU_s_ESTypeList@@@Z 10028b38     libvcruntime:frame.obj
 0002:00007b4c       __ehfuncinfo$?CallUnexpected@@YAXPBU_s_ESTypeList@@@Z 10028b4c     libvcruntime:frame.obj
 0002:00007b70       __sehtable$??$BuildCatchObjectHelperInternal@V__FrameHandler3@@@@YAHPAUEHExceptionRecord@@PAXPBU_s_HandlerType@@PBU_s_CatchableType@@@Z 10028b70     libvcruntime:frame.obj
 0002:00007b90       __sehtable$??$BuildCatchObjectInternal@V__FrameHandler3@@@@YAXPAUEHExceptionRecord@@PAXPBU_s_HandlerType@@PBU_s_CatchableType@@@Z 10028b90     libvcruntime:frame.obj
 0002:00007be4       __ehfuncinfo$?write_double_translated_ansi_nolock@@YA?AUwrite_result@?A0x17268360@@HQBDIAAV__crt_cached_ptd_host@@@Z 10028be4     libucrt:write.obj
 0002:00007be4       __ehfuncinfo$?try_cor_exit_process@@YAXI@Z 10028be4     libucrt:exit.obj
 0002:00007c08       __unwindtable$?common_exit@@YAXHW4_crt_exit_cleanup_mode@@W4_crt_exit_return_mode@@@Z 10028c08     libucrt:exit.obj
 0002:00007c10       __ehfuncinfo$?common_exit@@YAXHW4_crt_exit_cleanup_mode@@W4_crt_exit_return_mode@@@Z 10028c10     libucrt:exit.obj
 0002:00007c38       __sehtable$??R<lambda_6e4b09c48022b2350581041d5f6b0c4c>@@QBE@XZ 10028c38     libucrt:exit.obj
 0002:00007c58       __sehtable$??$?RV<lambda_03b1d95aef87969028cfba75ccab2455>@@AAV<lambda_6e4b09c48022b2350581041d5f6b0c4c>@@V<lambda_22bdf7517842c4b3e53723af5aa32b9e>@@@?$__crt_seh_guarded_call@X@@QAEX$$QAV<lambda_03b1d95aef87969028cfba75ccab2455>@@AAV<lambda_6e4b09c48022b2350581041d5f6b0c4c>@@$$QAV<lambda_22bdf7517842c4b3e53723af5aa32b9e>@@@Z 10028c58     libucrt:exit.obj
 0002:00007c74       __unwindtable$___dcrt_uninitialize_environments_nolock 10028c74     libucrt:environment_initialization.obj
 0002:00007c84       __ehfuncinfo$___dcrt_uninitialize_environments_nolock 10028c84     libucrt:environment_initialization.obj
 0002:00007ca8       __unwindtable$__execute_onexit_table 10028ca8     libucrt:onexit.obj
 0002:00007cb0       __ehfuncinfo$__execute_onexit_table 10028cb0     libucrt:onexit.obj
 0002:00007cd8       __sehtable$??$?RV<lambda_8e746cf0007f6ed984d6f78af1fec997>@@AAV<lambda_22ebabd17bc4fa466a2aca6d8deb888d>@@V<lambda_18ed0c0b38a6dc0daf1e7ac6d6adf05e>@@@?$__crt_seh_guarded_call@H@@QAEH$$QAV<lambda_8e746cf0007f6ed984d6f78af1fec997>@@AAV<lambda_22ebabd17bc4fa466a2aca6d8deb888d>@@$$QAV<lambda_18ed0c0b38a6dc0daf1e7ac6d6adf05e>@@@Z 10028cd8     libucrt:onexit.obj
 0002:00007cf8       __sehtable$??$?RV<lambda_69a2805e680e0e292e8ba93315fe43a8>@@AAV<lambda_f03950bc5685219e0bcd2087efbe011e>@@V<lambda_03fcd07e894ec930e3f35da366ca99d6>@@@?$__crt_seh_guarded_call@H@@QAEH$$QAV<lambda_69a2805e680e0e292e8ba93315fe43a8>@@AAV<lambda_f03950bc5685219e0bcd2087efbe011e>@@$$QAV<lambda_03fcd07e894ec930e3f35da366ca99d6>@@@Z 10028cf8     libucrt:onexit.obj
 0002:00007d18       __sehtable$__query_new_handler 10028d18     libucrt:new_handler.obj
 0002:00007d38       __sehtable$_terminate      10028d38     libucrt:terminate.obj
 0002:00007d58       __sehtable$??$?RV<lambda_15ade71b0218206bbe3333a0c9b79046>@@AAV<lambda_da44e0f8b0f19ba52fefafb335991732>@@V<lambda_207f2d024fc103971653565357d6cd41>@@@?$__crt_seh_guarded_call@X@@QAEX$$QAV<lambda_15ade71b0218206bbe3333a0c9b79046>@@AAV<lambda_da44e0f8b0f19ba52fefafb335991732>@@$$QAV<lambda_207f2d024fc103971653565357d6cd41>@@@Z 10028d58     libucrt:per_thread_data.obj
 0002:00007d78       __sehtable$??$?RV<lambda_a7e850c220f1c8d1e6efeecdedd162c6>@@AAV<lambda_46720907175c18b6c9d2717bc0d2d362>@@V<lambda_9048902d66e8d99359bc9897bbb930a8>@@@?$__crt_seh_guarded_call@X@@QAEX$$QAV<lambda_a7e850c220f1c8d1e6efeecdedd162c6>@@AAV<lambda_46720907175c18b6c9d2717bc0d2d362>@@$$QAV<lambda_9048902d66e8d99359bc9897bbb930a8>@@@Z 10028d78     libucrt:per_thread_data.obj
 0002:00007d98       __sehtable$??$?RV<lambda_38edbb1296d33220d7e4dd0ed76b244a>@@AAV<lambda_5ce1d447e08cb34b2473517608e21441>@@V<lambda_fb385d3da700c9147fc39e65dd577a8c>@@@?$__crt_seh_guarded_call@X@@QAEX$$QAV<lambda_38edbb1296d33220d7e4dd0ed76b244a>@@AAV<lambda_5ce1d447e08cb34b2473517608e21441>@@$$QAV<lambda_fb385d3da700c9147fc39e65dd577a8c>@@@Z 10028d98     libucrt:per_thread_data.obj
 0002:00007db8       __sehtable$??$?RV<lambda_6affb1475c98b40b75cdec977db92e3c>@@AAV<lambda_b8d4b9c228a6ecc3f80208dbb4b4a104>@@V<lambda_608742c3c92a14382c1684fc64f96c88>@@@?$__crt_seh_guarded_call@X@@QAEX$$QAV<lambda_6affb1475c98b40b75cdec977db92e3c>@@AAV<lambda_b8d4b9c228a6ecc3f80208dbb4b4a104>@@$$QAV<lambda_608742c3c92a14382c1684fc64f96c88>@@@Z 10028db8     libucrt:per_thread_data.obj
 0002:00007dd8       __sehtable$??$?RV<lambda_e5124f882df8998aaf41531e079ba474>@@AAV<lambda_3e16ef9562a7dcce91392c22ab16ea36>@@V<lambda_e25ca0880e6ef98be67edffd8c599615>@@@?$__crt_seh_guarded_call@X@@QAEX$$QAV<lambda_e5124f882df8998aaf41531e079ba474>@@AAV<lambda_3e16ef9562a7dcce91392c22ab16ea36>@@$$QAV<lambda_e25ca0880e6ef98be67edffd8c599615>@@@Z 10028dd8     libucrt:wsetlocale.obj
 0002:00007df8       __sehtable$___acrt_initialize_lowio 10028df8     libucrt:ioinit.obj
 0002:00007e18       __sehtable$?update_thread_multibyte_data_internal@@YAPAU__crt_multibyte_data@@QAU__acrt_ptd@@QAPAU1@@Z 10028e18     libucrt:mbctype.obj
 0002:00007e38       __sehtable$??$?RV<lambda_ceb1ee4838e85a9d631eb091e2fbe199>@@AAV<lambda_ae742caa10f662c28703da3d2ea5e57e>@@V<lambda_cd08b5d6af4937fe54fc07d0c9bf6b37>@@@?$__crt_seh_guarded_call@X@@QAEX$$QAV<lambda_ceb1ee4838e85a9d631eb091e2fbe199>@@AAV<lambda_ae742caa10f662c28703da3d2ea5e57e>@@$$QAV<lambda_cd08b5d6af4937fe54fc07d0c9bf6b37>@@@Z 10028e38     libucrt:mbctype.obj
 0002:00007e58       __sehtable$_raise          10028e58     libucrt:signal.obj
 0002:00007e78       __sehtable$??$?RV<lambda_cbab9ec6f41b0180b23cc171c22676b0>@@AAV<lambda_44731a7d0e6d81c3e6aa82d741081786>@@V<lambda_4b292cb8dd18144e164572427af410ab>@@@?$__crt_seh_guarded_call@P6AXH@Z@@QAEP6AXH@Z$$QAV<lambda_cbab9ec6f41b0180b23cc171c22676b0>@@AAV<lambda_44731a7d0e6d81c3e6aa82d741081786>@@$$QAV<lambda_4b292cb8dd18144e164572427af410ab>@@@Z 10028e78     libucrt:signal.obj
 0002:00007e98       __sehtable$??$?RV<lambda_2866be3712abc81a800a822484c830d8>@@AAV<lambda_39ca0ed439415581b5b15c265174cece>@@V<lambda_2b24c74d71094a6cd0cb82e44167d71b>@@@?$__crt_seh_guarded_call@X@@QAEX$$QAV<lambda_2866be3712abc81a800a822484c830d8>@@AAV<lambda_39ca0ed439415581b5b15c265174cece>@@$$QAV<lambda_2b24c74d71094a6cd0cb82e44167d71b>@@@Z 10028e98     libucrt:fflush.obj
 0002:00007eb8       __sehtable$??$?RV<lambda_2cc53f568c5a2bb6f192f930a45d44ea>@@AAV<lambda_ab61a845afdef5b7c387490eaf3616ee>@@V<lambda_c2ffc0b7726aa6be21d5f0026187e748>@@@?$__crt_seh_guarded_call@X@@QAEX$$QAV<lambda_2cc53f568c5a2bb6f192f930a45d44ea>@@AAV<lambda_ab61a845afdef5b7c387490eaf3616ee>@@$$QAV<lambda_c2ffc0b7726aa6be21d5f0026187e748>@@@Z 10028eb8     libucrt:fflush.obj
 0002:00007ed8       __sehtable$___acrt_update_thread_locale_data 10028ed8     libucrt:locale_refcounting.obj
 0002:00007ef8       __sehtable$__fcloseall     10028ef8     libucrt:closeall.obj
 0002:00007f18       __sehtable$___acrt_lowio_ensure_fh_exists 10028f18     libucrt:osfinfo.obj
 0002:00007f38       __sehtable$??$?RV<lambda_9e9de3de5fa147e2223d7db92bc10aa6>@@AAV<lambda_38ce7e780aa69e748d6df282ebc68efe>@@V<lambda_8ca6da459f0f6780f1cff60fdc3d00e5>@@@?$__crt_seh_guarded_call@H@@QAEH$$QAV<lambda_9e9de3de5fa147e2223d7db92bc10aa6>@@AAV<lambda_38ce7e780aa69e748d6df282ebc68efe>@@$$QAV<lambda_8ca6da459f0f6780f1cff60fdc3d00e5>@@@Z 10028f38     libucrt:commit.obj
 0002:00007f58       __sehtable$__write_internal 10028f58     libucrt:write.obj
 0002:00007f78       __sehtable$?_fclose_internal@@YAHQAU_iobuf@@AAV__crt_cached_ptd_host@@@Z 10028f78     libucrt:fclose.obj
 0002:00007f98       __sehtable$??$?RV<lambda_d422a76eb4c3bf3ad751449ab71a6ea4>@@AAV<lambda_c9ba49e555ba839a7b07aa3fbecb7617>@@V<lambda_9476263c8ee91a25d21c55370bdb50de>@@@?$__crt_seh_guarded_call@H@@QAEH$$QAV<lambda_d422a76eb4c3bf3ad751449ab71a6ea4>@@AAV<lambda_c9ba49e555ba839a7b07aa3fbecb7617>@@$$QAV<lambda_9476263c8ee91a25d21c55370bdb50de>@@@Z 10028f98     libucrt:close.obj
 0002:00007fb8       __sehtable$___set_fpsr_sse2 10028fb8     libucrt:fpctrl.obj
 0002:00007fd8       __sehtable$__IsNonwritableInCurrentImage 10028fd8     LIBCMT:pesect.obj
 0002:00008000       .edata                     10029000     OPOSVideoCapture.exp
 0002:00008028       rgpv                       10029028     OPOSVideoCapture.exp
 0002:00008038       rgszName                   10029038     OPOSVideoCapture.exp
 0002:00008048       rgwOrd                     10029048     OPOSVideoCapture.exp
 0002:00008050       szName                     10029050     OPOSVideoCapture.exp
 0002:00008065       $N00001                    10029065     OPOSVideoCapture.exp
 0002:00008075       $N00002                    10029075     OPOSVideoCapture.exp
 0002:00008087       $N00003                    10029087     OPOSVideoCapture.exp
 0002:00008099       $N00004                    10029099     OPOSVideoCapture.exp
 0002:000086aa       .idata$6                   100296aa     kernel32:KERNEL32.dll
 0002:000088be       .idata$6                   100298be     user32:USER32.dll
 0002:000089f2       .idata$6                   100299f2     gdi32:GDI32.dll
 0002:00008a98       .idata$6                   10029a98     advapi32:ADVAPI32.dll
 0002:00008bb4       .idata$6                   10029bb4     ole32:ole32.dll
 0002:00008bbe       .idata$6                   10029bbe     oleaut32:OLEAUT32.dll
 0003:00000110       ?ObjectMap@@3PAU_ATL_OBJMAP_ENTRY30@ATL@@A 1002b110     VideoCapture.obj
 0003:000001b8       ?s_SOMethodNames@@3PAPADA  1002b1b8     VideoCaptureImpl.obj
 0003:0000020c       ?s_RequiredMethodsPerRelease@@3PAHA 1002b20c     VideoCaptureImpl.obj
 0003:00000230       ?__vcrt_flsindex@@3KA      1002b230     libvcruntime:per_thread_data.obj
 0003:00000250       ?errno_no_memory@@3HA      1002b250     libucrt:errno.obj
 0003:00000254       ?doserrno_no_memory@@3KA   1002b254     libucrt:errno.obj
 0003:00000260       ?__acrt_flsindex@@3KA      1002b260     libucrt:per_thread_data.obj
 0003:000005f8       __mbctypes                 1002b5f8     libucrt:mbctype.obj
 0003:00000700       __mbcasemaps               1002b700     libucrt:mbctype.obj
 0003:00000800       ?__rgctypeflag@@3PADA      1002b800     libucrt:mbctype.obj
 0003:00000808       ?__rgcode_page_info@@3PAUcode_page_info@@A 1002b808     libucrt:mbctype.obj
 0003:00000a60       ?__dcrt_lowio_console_output_handle@@3PAXA 1002ba60     libucrt:initcon.obj
 0003:00000a64       ?__DAZ_ENABLED@?1??__set_fpsr_sse2@@9@9 1002ba64     libucrt:fpctrl.obj
 0003:00000bf8       ?is_initialized_as_dll@@3_NA 1002bbf8     LIBCMT:utility.obj
 0003:00000bf9       ?module_local_atexit_table_initialized@@3_NA 1002bbf9     LIBCMT:utility.obj
 0003:00000bfc       ?module_local_atexit_table@@3U_onexit_table_t@@A 1002bbfc     LIBCMT:utility.obj
 0003:00000c08       ?module_local_at_quick_exit_table@@3U_onexit_table_t@@A 1002bc08     LIBCMT:utility.obj
 0003:00000c14       ?g_tss_cv@@3U_RTL_CONDITION_VARIABLE@@A 1002bc14     LIBCMT:thread_safe_statics.obj
 0003:00000c18       ?g_tss_event@@3PAXA        1002bc18     LIBCMT:thread_safe_statics.obj
 0003:00000c1c       ?g_tss_mutex@@3U_RTL_CRITICAL_SECTION@@A 1002bc1c     LIBCMT:thread_safe_statics.obj
 0003:00000c34       ?g_sleep_condition_variable_cs@@3P6GHPAU_RTL_CONDITION_VARIABLE@@PAU_RTL_CRITICAL_SECTION@@K@ZA 1002bc34     LIBCMT:thread_safe_statics.obj
 0003:00000c38       ?g_wake_all_condition_variable@@3P6GXPAU_RTL_CONDITION_VARIABLE@@@ZA 1002bc38     LIBCMT:thread_safe_statics.obj
 0003:00000c40       _GS_ExceptionRecord        1002bc40     LIBCMT:gs_report.obj
 0003:00000c90       _GS_ContextRecord          1002bc90     LIBCMT:gs_report.obj
 0003:00000f60       ?__proc_attached@@3HA      1002bf60     LIBCMT:dll_dllmain.obj
 0003:00000fbc       ?AllocateData@@3P6GPAUAtlThunkData_t@@XZA 1002bfbc     atls:atlthunk.obj
 0003:00000fc0       ?InitData@@3P6GXPAUAtlThunkData_t@@PAXI@ZA 1002bfc0     atls:atlthunk.obj
 0003:00000fc4       ?DataToCode@@3P6GP6GJPAUHWND__@@IIJ@ZPAUAtlThunkData_t@@@ZA 1002bfc4     atls:atlthunk.obj
 0003:00000fc8       ?FreeData@@3P6GXPAUAtlThunkData_t@@@ZA 1002bfc8     atls:atlthunk.obj
 0003:00000fcc       ?Initialized@@3_NA         1002bfcc     atls:atlthunk.obj
 0003:00000fdc       ?__vcrt_startup_thread_ptd@@3U__vcrt_ptd@@A 1002bfdc     libvcruntime:per_thread_data.obj
 0003:00001004       ___vcrt_lock_table         1002c004     libvcruntime:locks.obj
 0003:0000101c       ___vcrt_locks_initialized  1002c01c     libvcruntime:locks.obj
 0003:00001048       ?heap@@3V_HeapManager@@A   1002c048     libvcruntime:undname.obj
 0003:0000105c       ?module_handles@@3PAPAUHINSTANCE__@@A 1002c05c     libvcruntime:winapi_downlevel.obj
 0003:00001068       ?function_pointers@@3PAPAXA 1002c068     libvcruntime:winapi_downlevel.obj
 0003:0000107c       ?__acrt_invalid_parameter_handler@@3V?$dual_state_global@P6AXPB_W00II@Z@__crt_state_management@@A 1002c07c     libucrt:invalid_parameter.obj
 0003:00001080       ?c_termination_complete@@3JA 1002c080     libucrt:exit.obj
 0003:00001084       ?thread_local_exit_callback_func@@3P6GXPAXK0@ZA 1002c084     libucrt:exit.obj
 0003:00001090       ?program_name@?1???$common_configure_argv@D@@YAHW4_crt_argv_mode@@@Z@4PADA 1002c090     libucrt:argv_parsing.obj
 0003:000011c0       ?__acrt_new_handler@@3V?$dual_state_global@P6AHI@Z@__crt_state_management@@A 1002c1c0     libucrt:new_handler.obj
 0003:000011d0       ?module_handles@@3PAPAUHINSTANCE__@@A 1002c1d0     libucrt:winapi_thunks.obj
 0003:00001220       ?encoded_function_pointers@@3PAPAXA 1002c220     libucrt:winapi_thunks.obj
 0003:000012a8       ?internal_state@?1??_mbtowc_internal@@9@4U_Mbstatet@@A 1002c2a8     libucrt:mbtowc.obj
 0003:000012b8       ?enable_percent_n@@3IA     1002c2b8     libucrt:printf_count_output.obj
 0003:000014d0       ?__acrt_lock_table@@3PAU_RTL_CRITICAL_SECTION@@A 1002c4d0     libucrt:locks.obj
 0003:00001620       ?__acrt_locks_initialized@@3IA 1002c620     libucrt:locks.obj
 0003:00001630       ?fSystemSet@@3HA           1002c630     libucrt:mbctype.obj
 0003:00001634       ?initialized@?1??__acrt_initialize_multibyte@@9@4_NA 1002c634     libucrt:mbctype.obj
 0003:00001654       ?ctrlc_action@@3V?$dual_state_global@P6AXH@Z@__crt_state_management@@A 1002c654     libucrt:signal.obj
 0003:00001658       ?ctrlbreak_action@@3V?$dual_state_global@P6AXH@Z@__crt_state_management@@A 1002c658     libucrt:signal.obj
 0003:0000165c       ?abort_action@@3V?$dual_state_global@P6AXH@Z@__crt_state_management@@A 1002c65c     libucrt:signal.obj
 0003:00001660       ?term_action@@3V?$dual_state_global@P6AXH@Z@__crt_state_management@@A 1002c660     libucrt:signal.obj
 0003:00001664       ?user_matherr@@3V?$dual_state_global@P6AHPAU_exception@@@Z@__crt_state_management@@A 1002c664     libucrt:matherr.obj
 0003:00001670       ?__acrt_global_new_mode@@3V?$dual_state_global@J@__crt_state_management@@A 1002c670     libucrt:new_mode.obj
 0003:00001674       ?internal_pst@?1??__mbrtoc32_utf8@__crt_mbstring@@YAIPA_UPBDIPAU_Mbstatet@@AAV__crt_cached_ptd_host@@@Z@4U3@A 1002c674     libucrt:mbrtoc32.obj
 0003:0000167c       ?__acrt_app_type@@3W4_crt_app_type@@A 1002c67c     libucrt:report_runtime_error.obj
 0003:00001684       __pmatherr_set             1002c684     libucrt:libm_error.obj
 0004:00000220       $R000000                   1002d220     VideoCapture.res
 0004:00000b68       $R000948                   1002db68     VideoCapture.res
 0004:00000c50       $R000A30                   1002dc50     VideoCapture.res
 0004:00000eb8       $R000C98                   1002deb8     VideoCapture.res
 0004:00001388       $R001168                   1002e388     VideoCapture.res
 0004:00005850       $R005630                   10032850     VideoCapture.res
 0004:00005888       $R005668                   10032888     VideoCapture.res
