 OPOSSoundPlayer

 Timestamp is 600f7bb1 (Tue Jan 26 11:17:21 2021)

 Preferred load address is 10000000

 Start         Length     Name                   Class
 0001:00000000 00000080H .text$di                CODE
 0001:00000080 0001e163H .text$mn                CODE
 0001:0001e1e3 0000003aH .text$x                 CODE
 0001:0001e21d 00000042H .text$yd                CODE
 0002:00000000 000002fcH .idata$5                DATA
 0002:000002fc 00000004H .00cfg                  DATA
 0002:00000300 00000004H .CRT$XCA                DATA
 0002:00000304 00000004H .CRT$XCL                DATA
 0002:00000308 00000010H .CRT$XCU                DATA
 0002:00000318 00000004H .CRT$XCZ                DATA
 0002:0000031c 00000004H .CRT$XIA                DATA
 0002:00000320 00000010H .CRT$XIC                DATA
 0002:00000330 00000004H .CRT$XIZ                DATA
 0002:00000334 00000004H .CRT$XLA                DATA
 0002:00000338 00000004H .CRT$XLZ                DATA
 0002:0000033c 00000004H .CRT$XPA                DATA
 0002:00000340 00000008H .CRT$XPX                DATA
 0002:00000348 00000004H .CRT$XPXA               DATA
 0002:0000034c 00000004H .CRT$XPZ                DATA
 0002:00000350 00000004H .CRT$XTA                DATA
 0002:00000354 0000000cH .CRT$XTZ                DATA
 0002:00000358 00000000H .gfids$y                DATA
 0002:00000360 00007260H .rdata                  DATA
 0002:000075c0 00000000H .rdata$CastGuardVftablesA DATA
 0002:000075c0 00000000H .rdata$CastGuardVftablesC DATA
 0002:000075c0 00000018H .rdata$T                DATA
 0002:000075d8 00000178H .rdata$r                DATA
 0002:00007750 0000001cH .rdata$sxdata           DATA
 0002:0000776c 000003e0H .rdata$zzzdbg           DATA
 0002:00007b4c 00000004H .rtc$IAA                DATA
 0002:00007b50 00000004H .rtc$IZZ                DATA
 0002:00007b54 00000004H .rtc$TAA                DATA
 0002:00007b58 00000004H .rtc$TZZ                DATA
 0002:00007b5c 00000004H .tls                    DATA
 0002:00007b60 00000004H .tls$                   DATA
 0002:00007b64 00000004H .tls$ZZZ                DATA
 0002:00007b68 0000062cH .xdata$x                DATA
 0002:00008194 00000004H ATL$__a                 DATA
 0002:00008198 00000008H ATL$__z                 DATA
 0002:000081a0 000000acH .edata                  DATA
 0002:0000824c 00000078H .idata$2                DATA
 0002:000082c4 00000014H .idata$3                DATA
 0002:000082d8 000002fcH .idata$4                DATA
 0002:000085d4 00000bceH .idata$6                DATA
 0003:00000000 00000a80H .data                   DATA
 0003:00000a80 00000098H .data$r                 DATA
 0003:00000b18 00000b88H .bss                    DATA
 0004:00000000 00000220H .rsrc$01                DATA
 0004:00000220 00003af0H .rsrc$02                DATA

  Address         Publics by Value              Rva+Base       Lib:Object

 0000:00000000       ___guard_fids_count        00000000     <absolute>
 0000:00000000       ___guard_eh_cont_table     00000000     <absolute>
 0000:00000000       ___guard_longjmp_table     00000000     <absolute>
 0000:00000000       ___volatile_metadata       00000000     <absolute>
 0000:00000000       ___arm64x_extra_rfe_table  00000000     <absolute>
 0000:00000000       ___arm64x_redirection_metadata 00000000     <absolute>
 0000:00000000       ___guard_iat_count         00000000     <absolute>
 0000:00000000       ___guard_eh_cont_count     00000000     <absolute>
 0000:00000000       __except_list              00000000     <absolute>
 0000:00000000       ___x64_code_ranges_to_entry_points_count 00000000     <absolute>
 0000:00000000       ___hybrid_code_map_count   00000000     <absolute>
 0000:00000000       ___x64_code_ranges_to_entry_points 00000000     <absolute>
 0000:00000000       ___guard_iat_table         00000000     <absolute>
 0000:00000000       ___arm64x_native_entrypoint 00000000     <absolute>
 0000:00000000       ___hybrid_code_map         00000000     <absolute>
 0000:00000000       ___arm64x_extra_rfe_table_size 00000000     <absolute>
 0000:00000000       ___guard_longjmp_count     00000000     <absolute>
 0000:00000000       ___arm64x_redirection_metadata_count 00000000     <absolute>
 0000:00000000       ___hybrid_auxiliary_iat    00000000     <absolute>
 0000:00000000       ___dynamic_value_reloc_table 00000000     <absolute>
 0000:00000000       ___AbsoluteZero            00000000     <absolute>
 0000:00000000       ___enclave_config          00000000     <absolute>
 0000:00000000       ___guard_fids_table        00000000     <absolute>
 0000:00000007       ___safe_se_handler_count   00000007     <absolute>
 0000:0000002c       __tls_array                0000002c     <absolute>
 0000:00000100       ___guard_flags             00000100     <absolute>
 0000:00000000       ___ImageBase               10000000     <linker-defined>
 0001:00000080       ?DupWide@_CW@@AAEXXZ       10001080 f   CWString.obj
 0001:0000009c       ?cw_dup@@YGXPBDAAHAAPA_W1@Z 1000109c f   CWString.obj
 0001:00000124       ?cw_memcpy@@YGHPA_WPBDH@Z  10001124 f   CWString.obj
 0001:00000150       ?cw_strcpy@@YAHPA_WPBD@Z   10001150 f   CWString.obj
 0001:00000163       ?cw_strlen@@YAHPBD@Z       10001163 f   CWString.obj
 0001:0000017c       ??0CAtlComModule@ATL@@QAE@XZ 1000117c f i OposVariant.obj
 0001:000001c1       ??0CAtlWinModule@ATL@@QAE@XZ 100011c1 f i OposVariant.obj
 0001:000001f8       ??0OposDispParms@@QAE@PAVOposVariant@@H@Z 100011f8 f   OposVariant.obj
 0001:00000269       ??1OposDispParms@@QAE@XZ   10001269 f   OposVariant.obj
 0001:00000277       ??A?$CSimpleArray@GV?$CSimpleArrayEqualHelper@G@ATL@@@ATL@@QAEAAGH@Z 10001277 f i OposVariant.obj
 0001:0000029c       ??_Estringdispid@CComTypeInfoHolder@ATL@@QAEPAXI@Z 1000129c f i OposVariant.obj
 0001:00000308       ?AtlWinModuleInit@ATL@@YGJPAU_ATL_WIN_MODULE70@1@@Z 10001308 f i OposVariant.obj
 0001:0000032e       ?AtlWinModuleTerm@ATL@@YGJPAU_ATL_WIN_MODULE70@1@PAUHINSTANCE__@@@Z 1000132e f i OposVariant.obj
 0001:00000391       ?ChangeBSTR@OposVariant@@QAEXPAPA_WAAJ@Z 10001391 f   OposVariant.obj
 0001:000003d2       ?ChangeLONG@OposVariant@@QAEXPAJAAJ@Z 100013d2 f   OposVariant.obj
 0001:00000413       ?GetLONG@OposVariant@@QAEJXZ 10001413 f   OposVariant.obj
 0001:0000042e       ?Init@CComCriticalSection@ATL@@QAEJXZ 1000142e f i OposVariant.obj
 0001:00000456       ?RemoveAll@?$CSimpleArray@GV?$CSimpleArrayEqualHelper@G@ATL@@@ATL@@QAEXXZ 10001456 f i OposVariant.obj
 0001:00000456       ?RemoveAll@?$CSimpleArray@PAUHINSTANCE__@@V?$CSimpleArrayEqualHelper@PAUHINSTANCE__@@@ATL@@@ATL@@QAEXXZ 10001456 f i atls:atlbase.obj
 0001:00000473       ?SetBSTR@OposVariant@@QAEXPA_WAAJ@Z 10001473 f   OposVariant.obj
 0001:000004a7       ?SetBSTR_Copy@OposVariant@@QAEXPA_WAAJ@Z 100014a7 f   OposVariant.obj
 0001:000004f7       ?SetBSTR_InOutPtr@OposVariant@@QAE_NPAPA_WAAJ@Z 100014f7 f   OposVariant.obj
 0001:0000052e       ?SetDispatch_Ptr@OposVariant@@QAEXPAUIDispatch@@AAJ@Z 1000152e f   OposVariant.obj
 0001:00000569       ?SetLONG@OposVariant@@QAEXJ@Z 10001569 f   OposVariant.obj
 0001:0000058b       ?SetLONG_Ptr@OposVariant@@QAEXPAJAAJ@Z 1000158b f   OposVariant.obj
 0001:000005be       ?SetString@OposVariant@@QAEXPB_WAAJ@Z 100015be f   OposVariant.obj
 0001:00000604       ?SetVARIANT_BOOL@OposVariant@@QAEXF@Z 10001604 f   OposVariant.obj
 0001:0000062e       ?Term@CAtlComModule@ATL@@QAEXXZ 1000162e f i OposVariant.obj
 0001:00000678       ?_AtlRaiseException@ATL@@YAXKK@Z 10001678 f i OposVariant.obj
 0001:0000068d       ?Release@?$CComObject@VCOPOSSoundPlayer@@@ATL@@WJE@AGKXZ 1000168d f i SoundPlayer.obj
 0001:0000069a       ?QueryInterface@?$CComObject@VCOPOSSoundPlayer@@@ATL@@WJI@AGJABU_GUID@@PAPAX@Z 1000169a f i SoundPlayer.obj
 0001:000006a7       ?AddRef@?$CComObject@VCOPOSSoundPlayer@@@ATL@@WJI@AGKXZ 100016a7 f i SoundPlayer.obj
 0001:000006b4       ?Release@?$CComObject@VCOPOSSoundPlayer@@@ATL@@WJI@AGKXZ 100016b4 f i SoundPlayer.obj
 0001:000006c1       ?QueryInterface@?$CComObject@VCOPOSSoundPlayer@@@ATL@@WJM@AGJABU_GUID@@PAPAX@Z 100016c1 f i SoundPlayer.obj
 0001:000006ce       ?AddRef@?$CComObject@VCOPOSSoundPlayer@@@ATL@@WJM@AGKXZ 100016ce f i SoundPlayer.obj
 0001:000006db       ?Release@?$CComObject@VCOPOSSoundPlayer@@@ATL@@WJM@AGKXZ 100016db f i SoundPlayer.obj
 0001:000006e8       ?QueryInterface@?$CComObject@VCOPOSSoundPlayer@@@ATL@@WKA@AGJABU_GUID@@PAPAX@Z 100016e8 f i SoundPlayer.obj
 0001:000006f5       ?AddRef@?$CComObject@VCOPOSSoundPlayer@@@ATL@@WKA@AGKXZ 100016f5 f i SoundPlayer.obj
 0001:00000702       ?Release@?$CComObject@VCOPOSSoundPlayer@@@ATL@@WKA@AGKXZ 10001702 f i SoundPlayer.obj
 0001:0000070f       ?AddRef@?$CComObject@VCOPOSSoundPlayer@@@ATL@@WKI@AGKXZ 1000170f f i SoundPlayer.obj
 0001:0000071c       ?Release@?$CComObject@VCOPOSSoundPlayer@@@ATL@@WKI@AGKXZ 1000171c f i SoundPlayer.obj
 0001:00000729       ?AddRef@?$CComObject@VCOPOSSoundPlayer@@@ATL@@WLE@AGKXZ 10001729 f i SoundPlayer.obj
 0001:00000736       ?Release@?$CComObject@VCOPOSSoundPlayer@@@ATL@@WLE@AGKXZ 10001736 f i SoundPlayer.obj
 0001:00000743       ??_E?$CComContainedObject@VCOPOSSoundPlayer@@@ATL@@W3AEPAXI@Z 10001743 f i SoundPlayer.obj
 0001:0000074b       ??_E?$CComContainedObject@VCOPOSSoundPlayer@@@ATL@@WEM@AEPAXI@Z 1000174b f i SoundPlayer.obj
 0001:00000753       ?QueryInterface@?$CComContainedObject@VCOPOSSoundPlayer@@@ATL@@WHA@AGJABU_GUID@@PAPAX@Z 10001753 f i SoundPlayer.obj
 0001:0000075d       ?AddRef@?$CComContainedObject@VCOPOSSoundPlayer@@@ATL@@WHA@AGKXZ 1000175d f i SoundPlayer.obj
 0001:00000767       ?Release@?$CComContainedObject@VCOPOSSoundPlayer@@@ATL@@WHA@AGKXZ 10001767 f i SoundPlayer.obj
 0001:00000771       ?QueryInterface@?$CComContainedObject@VCOPOSSoundPlayer@@@ATL@@WHE@AGJABU_GUID@@PAPAX@Z 10001771 f i SoundPlayer.obj
 0001:0000077b       ?AddRef@?$CComContainedObject@VCOPOSSoundPlayer@@@ATL@@WHE@AGKXZ 1000177b f i SoundPlayer.obj
 0001:00000785       ?Release@?$CComContainedObject@VCOPOSSoundPlayer@@@ATL@@WHE@AGKXZ 10001785 f i SoundPlayer.obj
 0001:0000078f       ?QueryInterface@?$CComContainedObject@VCOPOSSoundPlayer@@@ATL@@WHI@AGJABU_GUID@@PAPAX@Z 1000178f f i SoundPlayer.obj
 0001:00000799       ?AddRef@?$CComContainedObject@VCOPOSSoundPlayer@@@ATL@@WHI@AGKXZ 10001799 f i SoundPlayer.obj
 0001:000007a3       ?Release@?$CComContainedObject@VCOPOSSoundPlayer@@@ATL@@WHI@AGKXZ 100017a3 f i SoundPlayer.obj
 0001:000007ad       ?QueryInterface@?$CComContainedObject@VCOPOSSoundPlayer@@@ATL@@WHM@AGJABU_GUID@@PAPAX@Z 100017ad f i SoundPlayer.obj
 0001:000007b7       ?AddRef@?$CComContainedObject@VCOPOSSoundPlayer@@@ATL@@WHM@AGKXZ 100017b7 f i SoundPlayer.obj
 0001:000007c1       ?Release@?$CComContainedObject@VCOPOSSoundPlayer@@@ATL@@WHM@AGKXZ 100017c1 f i SoundPlayer.obj
 0001:000007cb       ?QueryInterface@?$CComContainedObject@VCOPOSSoundPlayer@@@ATL@@WIA@AGJABU_GUID@@PAPAX@Z 100017cb f i SoundPlayer.obj
 0001:000007d8       ?AddRef@?$CComContainedObject@VCOPOSSoundPlayer@@@ATL@@WIA@AGKXZ 100017d8 f i SoundPlayer.obj
 0001:000007e5       ?Release@?$CComContainedObject@VCOPOSSoundPlayer@@@ATL@@WIA@AGKXZ 100017e5 f i SoundPlayer.obj
 0001:000007f2       ?QueryInterface@?$CComContainedObject@VCOPOSSoundPlayer@@@ATL@@WIE@AGJABU_GUID@@PAPAX@Z 100017f2 f i SoundPlayer.obj
 0001:000007ff       ?AddRef@?$CComContainedObject@VCOPOSSoundPlayer@@@ATL@@WIE@AGKXZ 100017ff f i SoundPlayer.obj
 0001:0000080c       ?Release@?$CComContainedObject@VCOPOSSoundPlayer@@@ATL@@WIE@AGKXZ 1000180c f i SoundPlayer.obj
 0001:00000819       ?QueryInterface@?$CComContainedObject@VCOPOSSoundPlayer@@@ATL@@WII@AGJABU_GUID@@PAPAX@Z 10001819 f i SoundPlayer.obj
 0001:00000826       ?AddRef@?$CComContainedObject@VCOPOSSoundPlayer@@@ATL@@WII@AGKXZ 10001826 f i SoundPlayer.obj
 0001:00000833       ?Release@?$CComContainedObject@VCOPOSSoundPlayer@@@ATL@@WII@AGKXZ 10001833 f i SoundPlayer.obj
 0001:00000840       ?QueryInterface@?$CComContainedObject@VCOPOSSoundPlayer@@@ATL@@WIM@AGJABU_GUID@@PAPAX@Z 10001840 f i SoundPlayer.obj
 0001:0000084d       ?AddRef@?$CComContainedObject@VCOPOSSoundPlayer@@@ATL@@WIM@AGKXZ 1000184d f i SoundPlayer.obj
 0001:0000085a       ?Release@?$CComContainedObject@VCOPOSSoundPlayer@@@ATL@@WIM@AGKXZ 1000185a f i SoundPlayer.obj
 0001:00000867       ?QueryInterface@?$CComContainedObject@VCOPOSSoundPlayer@@@ATL@@WJA@AGJABU_GUID@@PAPAX@Z 10001867 f i SoundPlayer.obj
 0001:00000874       ?AddRef@?$CComContainedObject@VCOPOSSoundPlayer@@@ATL@@WJA@AGKXZ 10001874 f i SoundPlayer.obj
 0001:00000881       ?Release@?$CComContainedObject@VCOPOSSoundPlayer@@@ATL@@WJA@AGKXZ 10001881 f i SoundPlayer.obj
 0001:0000088e       ?QueryInterface@?$CComContainedObject@VCOPOSSoundPlayer@@@ATL@@WJE@AGJABU_GUID@@PAPAX@Z 1000188e f i SoundPlayer.obj
 0001:0000089b       ?AddRef@?$CComContainedObject@VCOPOSSoundPlayer@@@ATL@@WJE@AGKXZ 1000189b f i SoundPlayer.obj
 0001:000008a8       ?Release@?$CComContainedObject@VCOPOSSoundPlayer@@@ATL@@WJE@AGKXZ 100018a8 f i SoundPlayer.obj
 0001:000008b5       ?QueryInterface@?$CComContainedObject@VCOPOSSoundPlayer@@@ATL@@WJI@AGJABU_GUID@@PAPAX@Z 100018b5 f i SoundPlayer.obj
 0001:000008c2       ?AddRef@?$CComContainedObject@VCOPOSSoundPlayer@@@ATL@@WJI@AGKXZ 100018c2 f i SoundPlayer.obj
 0001:000008cf       ?Release@?$CComContainedObject@VCOPOSSoundPlayer@@@ATL@@WJI@AGKXZ 100018cf f i SoundPlayer.obj
 0001:000008dc       ?QueryInterface@?$CComContainedObject@VCOPOSSoundPlayer@@@ATL@@WJM@AGJABU_GUID@@PAPAX@Z 100018dc f i SoundPlayer.obj
 0001:000008e9       ?AddRef@?$CComContainedObject@VCOPOSSoundPlayer@@@ATL@@WJM@AGKXZ 100018e9 f i SoundPlayer.obj
 0001:000008f6       ?Release@?$CComContainedObject@VCOPOSSoundPlayer@@@ATL@@WJM@AGKXZ 100018f6 f i SoundPlayer.obj
 0001:00000903       ?QueryInterface@?$CComContainedObject@VCOPOSSoundPlayer@@@ATL@@WKA@AGJABU_GUID@@PAPAX@Z 10001903 f i SoundPlayer.obj
 0001:00000910       ?AddRef@?$CComContainedObject@VCOPOSSoundPlayer@@@ATL@@WKA@AGKXZ 10001910 f i SoundPlayer.obj
 0001:0000091d       ?Release@?$CComContainedObject@VCOPOSSoundPlayer@@@ATL@@WKA@AGKXZ 1000191d f i SoundPlayer.obj
 0001:0000092a       ?AddRef@?$CComContainedObject@VCOPOSSoundPlayer@@@ATL@@WKI@AGKXZ 1000192a f i SoundPlayer.obj
 0001:00000937       ?Release@?$CComContainedObject@VCOPOSSoundPlayer@@@ATL@@WKI@AGKXZ 10001937 f i SoundPlayer.obj
 0001:00000944       ?AddRef@?$CComContainedObject@VCOPOSSoundPlayer@@@ATL@@WLE@AGKXZ 10001944 f i SoundPlayer.obj
 0001:00000951       ?Release@?$CComContainedObject@VCOPOSSoundPlayer@@@ATL@@WLE@AGKXZ 10001951 f i SoundPlayer.obj
 0001:0000095e       ?CreateInstance@CComClassFactory@ATL@@UAGJPAUIUnknown@@ABU_GUID@@PAPAX@Z 1000195e f i SoundPlayer.obj
 0001:0000099c       ?LockServer@CComClassFactory@ATL@@UAGJH@Z 1000199c f i SoundPlayer.obj
 0001:000009bb       ??_GCComClassFactory@ATL@@UAEPAXI@Z 100019bb f i SoundPlayer.obj
 0001:000009bb       ??_ECComClassFactory@ATL@@UAEPAXI@Z 100019bb f i SoundPlayer.obj
 0001:000009e6       ?GetWindowProc@?$CWindowImplBaseT@VCWindow@ATL@@V?$CWinTraits@$0FGAAAAAA@$0A@@2@@ATL@@UAEP6GJPAUHWND__@@IIJ@ZXZ 100019e6 f i SoundPlayer.obj
 0001:000009ec       ?StartWindowProc@?$CWindowImplBaseT@VCWindow@ATL@@V?$CWinTraits@$0FGAAAAAA@$0A@@2@@ATL@@SGJPAUHWND__@@IIJ@Z 100019ec f i SoundPlayer.obj
 0001:00000a40       ?ObjectMain@CComObjectRootBase@ATL@@SGX_N@Z 10001a40 f i SoundPlayer.obj
 0001:00000a40       ?OnFinalMessage@?$CWindowImplBaseT@VCWindow@ATL@@V?$CWinTraits@$0FGAAAAAA@$0A@@2@@ATL@@UAEXPAUHWND__@@@Z 10001a40 f i SoundPlayer.obj
 0001:00000a43       ?GetTypeInfoCount@?$IDispatchImpl@UIOPOSSoundPlayer@@$1?IID_IOPOSSoundPlayer@@3U_GUID@@B$1?LIBID_OposSoundPlayer_CCO@@3U3@B$00$0A@VCComTypeInfoHolder@ATL@@@ATL@@UAGJPAI@Z 10001a43 f i SoundPlayer.obj
 0001:00000a60       ?GetTypeInfo@?$IDispatchImpl@UIOPOSSoundPlayer@@$1?IID_IOPOSSoundPlayer@@3U_GUID@@B$1?LIBID_OposSoundPlayer_CCO@@3U3@B$00$0A@VCComTypeInfoHolder@ATL@@@ATL@@UAGJIKPAPAUITypeInfo@@@Z 10001a60 f i SoundPlayer.obj
 0001:00000a84       ?GetIDsOfNames@?$IDispatchImpl@UIOPOSSoundPlayer@@$1?IID_IOPOSSoundPlayer@@3U_GUID@@B$1?LIBID_OposSoundPlayer_CCO@@3U3@B$00$0A@VCComTypeInfoHolder@ATL@@@ATL@@UAGJABU_GUID@@PAPA_WIKPAJ@Z 10001a84 f i SoundPlayer.obj
 0001:00000aa4       ?Invoke@?$IDispatchImpl@UIOPOSSoundPlayer@@$1?IID_IOPOSSoundPlayer@@3U_GUID@@B$1?LIBID_OposSoundPlayer_CCO@@3U3@B$00$0A@VCComTypeInfoHolder@ATL@@@ATL@@UAGJJABU_GUID@@KGPAUtagDISPPARAMS@@PAUtagVARIANT@@PAUtagEXCEPINFO@@PAI@Z 10001aa4 f i SoundPlayer.obj
 0001:00000ab2       ?CreateControlWindow@?$CComControl@VCOPOSSoundPlayer@@V?$CWindowImpl@VCOPOSSoundPlayer@@VCWindow@ATL@@V?$CWinTraits@$0FGAAAAAA@$0A@@3@@ATL@@@ATL@@UAEPAUHWND__@@PAU3@AAUtagRECT@@@Z 10001ab2 f i SoundPlayer.obj
 0001:00000ae1       ?ControlQueryInterface@?$CComControl@VCOPOSSoundPlayer@@V?$CWindowImpl@VCOPOSSoundPlayer@@VCWindow@ATL@@V?$CWinTraits@$0FGAAAAAA@$0A@@3@@ATL@@@ATL@@UAEJABU_GUID@@PAPAX@Z 10001ae1 f i SoundPlayer.obj
 0001:00000afc       ?GetUserClassID@?$IOleObjectImpl@VCOPOSSoundPlayer@@@ATL@@UAGJPAU_GUID@@@Z 10001afc f i SoundPlayer.obj
 0001:00000afc       ?GetClassID@?$IPersistStreamInitImpl@VCOPOSSoundPlayer@@@ATL@@UAGJPAU_GUID@@@Z 10001afc f i SoundPlayer.obj
 0001:00000afc       ?GetClassID@?$IPersistStorageImpl@VCOPOSSoundPlayer@@@ATL@@UAGJPAU_GUID@@@Z 10001afc f i SoundPlayer.obj
 0001:00000b20       ?IsDirty@?$IPersistStreamInitImpl@VCOPOSSoundPlayer@@@ATL@@UAGJXZ 10001b20 f i SoundPlayer.obj
 0001:00000b3f       ?Load@?$IPersistStreamInitImpl@VCOPOSSoundPlayer@@@ATL@@UAGJPAUIStream@@@Z 10001b3f f i SoundPlayer.obj
 0001:00000b5e       ?Save@?$IPersistStreamInitImpl@VCOPOSSoundPlayer@@@ATL@@UAGJPAUIStream@@H@Z 10001b5e f i SoundPlayer.obj
 0001:00000b80       ?GetSizeMax@?$IPersistStreamInitImpl@VCOPOSSoundPlayer@@@ATL@@UAGJPAT_ULARGE_INTEGER@@@Z 10001b80 f i SoundPlayer.obj
 0001:00000d5f       ?InitNew@?$IPersistStreamInitImpl@VCOPOSSoundPlayer@@@ATL@@UAGJXZ 10001d5f f i SoundPlayer.obj
 0001:00000d7c       ?GetDropTarget@?$IOleInPlaceObjectWindowlessImpl@VCOPOSSoundPlayer@@@ATL@@UAGJPAPAUIDropTarget@@@Z 10001d7c f i SoundPlayer.obj
 0001:00000d7c       ?ContextSensitiveHelp@?$IOleInPlaceObjectWindowlessImpl@VCOPOSSoundPlayer@@@ATL@@UAGJH@Z 10001d7c f i SoundPlayer.obj
 0001:00000d7c       ?GetControlInfo@?$IOleControlImpl@VCOPOSSoundPlayer@@@ATL@@UAGJPAUtagCONTROLINFO@@@Z 10001d7c f i SoundPlayer.obj
 0001:00000d7c       ?SetColorScheme@?$IOleObjectImpl@VCOPOSSoundPlayer@@@ATL@@UAGJPAUtagLOGPALETTE@@@Z 10001d7c f i SoundPlayer.obj
 0001:00000d7c       ?SODataDummy@COPOSSoundPlayer@@MAGJJ@Z 10001d7c f i SoundPlayer.obj
 0001:00000d7c       ?ContextSensitiveHelp@?$IOleInPlaceActiveObjectImpl@VCOPOSSoundPlayer@@@ATL@@UAGJH@Z 10001d7c f i SoundPlayer.obj
 0001:00000d7c       ?OnMnemonic@?$IOleControlImpl@VCOPOSSoundPlayer@@@ATL@@UAGJPAUtagMSG@@@Z 10001d7c f i SoundPlayer.obj
 0001:00000d7c       ?Unfreeze@?$IViewObjectExImpl@VCOPOSSoundPlayer@@@ATL@@UAGJK@Z 10001d7c f i SoundPlayer.obj
 0001:00000d7c       ?QueryGetData@?$IDataObjectImpl@VCOPOSSoundPlayer@@@ATL@@UAGJPAUtagFORMATETC@@@Z 10001d7c f i SoundPlayer.obj
 0001:00000d84       ?OnAmbientPropertyChange@?$IOleControlImpl@VCOPOSSoundPlayer@@@ATL@@UAGJJ@Z 10001d84 f i SoundPlayer.obj
 0001:00000d84       ?SaveCompleted@?$IPersistStorageImpl@VCOPOSSoundPlayer@@@ATL@@UAGJPAUIStorage@@@Z 10001d84 f i SoundPlayer.obj
 0001:00000d84       ?OnFrameWindowActivate@?$IOleInPlaceActiveObjectImpl@VCOPOSSoundPlayer@@@ATL@@UAGJH@Z 10001d84 f i SoundPlayer.obj
 0001:00000d84       ?EnableModeless@?$IOleInPlaceActiveObjectImpl@VCOPOSSoundPlayer@@@ATL@@UAGJH@Z 10001d84 f i SoundPlayer.obj
 0001:00000d89       ?SetClientSite@?$IOleObjectImpl@VCOPOSSoundPlayer@@@ATL@@UAGJPAUIOleClientSite@@@Z 10001d89 f i SoundPlayer.obj
 0001:00000da6       ?GetClientSite@?$IOleObjectImpl@VCOPOSSoundPlayer@@@ATL@@UAGJPAPAUIOleClientSite@@@Z 10001da6 f i SoundPlayer.obj
 0001:00000dc3       ?SetHostNames@?$IOleObjectImpl@VCOPOSSoundPlayer@@@ATL@@UAGJPB_W0@Z 10001dc3 f i SoundPlayer.obj
 0001:00000dc8       ?Close@?$IOleObjectImpl@VCOPOSSoundPlayer@@@ATL@@UAGJK@Z 10001dc8 f i SoundPlayer.obj
 0001:00000de5       ?GetCanonicalFormatEtc@?$IDataObjectImpl@VCOPOSSoundPlayer@@@ATL@@UAGJPAUtagFORMATETC@@0@Z 10001de5 f i SoundPlayer.obj
 0001:00000de5       ?GetDataHere@?$IDataObjectImpl@VCOPOSSoundPlayer@@@ATL@@UAGJPAUtagFORMATETC@@PAUtagSTGMEDIUM@@@Z 10001de5 f i SoundPlayer.obj
 0001:00000de5       ?GetClipboardData@?$IOleObjectImpl@VCOPOSSoundPlayer@@@ATL@@UAGJKPAPAUIDataObject@@@Z 10001de5 f i SoundPlayer.obj
 0001:00000de5       ?EnumFormatEtc@?$IDataObjectImpl@VCOPOSSoundPlayer@@@ATL@@UAGJKPAPAUIEnumFORMATETC@@@Z 10001de5 f i SoundPlayer.obj
 0001:00000de5       ?SetMoniker@?$IOleObjectImpl@VCOPOSSoundPlayer@@@ATL@@UAGJKPAUIMoniker@@@Z 10001de5 f i SoundPlayer.obj
 0001:00000de5       ?QueryInterface@CRegObject@ATL@@UAGJABU_GUID@@PAPAX@Z 10001de5 f i SoundPlayer.obj
 0001:00000de5       ?GetRect@?$IViewObjectExImpl@VCOPOSSoundPlayer@@@ATL@@UAGJKPAU_RECTL@@@Z 10001de5 f i SoundPlayer.obj
 0001:00000ded       ?SetData@?$IDataObjectImpl@VCOPOSSoundPlayer@@@ATL@@UAGJPAUtagFORMATETC@@PAUtagSTGMEDIUM@@H@Z 10001ded f i SoundPlayer.obj
 0001:00000ded       ?GetMoniker@?$IOleObjectImpl@VCOPOSSoundPlayer@@@ATL@@UAGJKKPAPAUIMoniker@@@Z 10001ded f i SoundPlayer.obj
 0001:00000ded       ?InitFromData@?$IOleObjectImpl@VCOPOSSoundPlayer@@@ATL@@UAGJPAUIDataObject@@HK@Z 10001ded f i SoundPlayer.obj
 0001:00000df5       ?DoVerb@?$IOleObjectImpl@VCOPOSSoundPlayer@@@ATL@@UAGJJPAUtagMSG@@PAUIOleClientSite@@JPAUHWND__@@PBUtagRECT@@@Z 10001df5 f i SoundPlayer.obj
 0001:00000ee9       ?EnumVerbs@?$IOleObjectImpl@VCOPOSSoundPlayer@@@ATL@@UAGJPAPAUIEnumOLEVERB@@@Z 10001ee9 f i SoundPlayer.obj
 0001:00000f0b       ?Update@?$IOleObjectImpl@VCOPOSSoundPlayer@@@ATL@@UAGJXZ 10001f0b f i SoundPlayer.obj
 0001:00000f0b       ?IsUpToDate@?$IOleObjectImpl@VCOPOSSoundPlayer@@@ATL@@UAGJXZ 10001f0b f i SoundPlayer.obj
 0001:00000f0b       ?Release@CRegObject@ATL@@UAGKXZ 10001f0b f i SoundPlayer.obj
 0001:00000f0b       ?HandsOffStorage@?$IPersistStorageImpl@VCOPOSSoundPlayer@@@ATL@@UAGJXZ 10001f0b f i SoundPlayer.obj
 0001:00000f10       ?GetUserType@?$IOleObjectImpl@VCOPOSSoundPlayer@@@ATL@@UAGJKPAPA_W@Z 10001f10 f i SoundPlayer.obj
 0001:00000f28       ?SetExtent@?$IOleObjectImpl@VCOPOSSoundPlayer@@@ATL@@UAGJKPAUtagSIZE@@@Z 10001f28 f i SoundPlayer.obj
 0001:00000f48       ?GetExtent@?$IOleObjectImpl@VCOPOSSoundPlayer@@@ATL@@UAGJKPAUtagSIZE@@@Z 10001f48 f i SoundPlayer.obj
 0001:00000f86       ?Advise@?$IOleObjectImpl@VCOPOSSoundPlayer@@@ATL@@UAGJPAUIAdviseSink@@PAK@Z 10001f86 f i SoundPlayer.obj
 0001:00000fa6       ?Unadvise@?$IOleObjectImpl@VCOPOSSoundPlayer@@@ATL@@UAGJK@Z 10001fa6 f i SoundPlayer.obj
 0001:00000fd5       ?EnumAdvise@?$IOleObjectImpl@VCOPOSSoundPlayer@@@ATL@@UAGJPAPAUIEnumSTATDATA@@@Z 10001fd5 f i SoundPlayer.obj
 0001:00001015       ?GetMiscStatus@?$IOleObjectImpl@VCOPOSSoundPlayer@@@ATL@@UAGJKPAK@Z 10002015 f i SoundPlayer.obj
 0001:0000102d       ?GetWindow@?$IOleInPlaceActiveObjectImpl@VCOPOSSoundPlayer@@@ATL@@UAGJPAPAUHWND__@@@Z 1000202d f i SoundPlayer.obj
 0001:0000107a       ?TranslateAcceleratorW@?$IOleInPlaceActiveObjectImpl@VCOPOSSoundPlayer@@@ATL@@UAGJPAUtagMSG@@@Z 1000207a f i SoundPlayer.obj
 0001:00001128       ?OnDocWindowActivate@?$IOleInPlaceActiveObjectImpl@VCOPOSSoundPlayer@@@ATL@@UAGJH@Z 10002128 f i SoundPlayer.obj
 0001:0000114a       ?ResizeBorder@?$IOleInPlaceActiveObjectImpl@VCOPOSSoundPlayer@@@ATL@@UAGJPBUtagRECT@@PAUIOleInPlaceUIWindow@@H@Z 1000214a f i SoundPlayer.obj
 0001:0000114f       ?Draw@?$IViewObjectExImpl@VCOPOSSoundPlayer@@@ATL@@UAGJKJPAXPAUtagDVTARGETDEVICE@@PAUHDC__@@2PBU_RECTL@@3P6GHK@ZK@Z 1000214f f i SoundPlayer.obj
 0001:00001181       ?GetColorSet@?$IViewObjectExImpl@VCOPOSSoundPlayer@@@ATL@@UAGJKJPAXPAUtagDVTARGETDEVICE@@PAUHDC__@@PAPAUtagLOGPALETTE@@@Z 10002181 f i SoundPlayer.obj
 0001:00001189       ?Freeze@?$IViewObjectExImpl@VCOPOSSoundPlayer@@@ATL@@UAGJKJPAXPAK@Z 10002189 f i SoundPlayer.obj
 0001:00001191       ?SetAdvise@?$IViewObjectExImpl@VCOPOSSoundPlayer@@@ATL@@UAGJKKPAUIAdviseSink@@@Z 10002191 f i SoundPlayer.obj
 0001:000011b0       ?GetAdvise@?$IViewObjectExImpl@VCOPOSSoundPlayer@@@ATL@@UAGJPAK0PAPAUIAdviseSink@@@Z 100021b0 f i SoundPlayer.obj
 0001:000011e5       ?GetExtent@?$IViewObjectExImpl@VCOPOSSoundPlayer@@@ATL@@UAGJKJPAUtagDVTARGETDEVICE@@PAUtagSIZE@@@Z 100021e5 f i SoundPlayer.obj
 0001:00001216       ?GetViewStatus@?$IViewObjectExImpl@VCOPOSSoundPlayer@@@ATL@@UAGJPAK@Z 10002216 f i SoundPlayer.obj
 0001:00001233       ?QueryHitPoint@?$IViewObjectExImpl@VCOPOSSoundPlayer@@@ATL@@UAGJKPBUtagRECT@@UtagPOINT@@JPAK@Z 10002233 f i SoundPlayer.obj
 0001:00001274       ?QueryHitRect@?$IViewObjectExImpl@VCOPOSSoundPlayer@@@ATL@@UAGJKPBUtagRECT@@0JPAK@Z 10002274 f i SoundPlayer.obj
 0001:000012cf       ?GetNaturalExtent@?$IViewObjectExImpl@VCOPOSSoundPlayer@@@ATL@@UAGJKJPAUtagDVTARGETDEVICE@@PAUHDC__@@PAUtagExtentInfo@@PAUtagSIZE@@@Z 100022cf f i SoundPlayer.obj
 0001:0000131a       ?GetWindow@?$IOleInPlaceObjectWindowlessImpl@VCOPOSSoundPlayer@@@ATL@@UAGJPAPAUHWND__@@@Z 1000231a f i SoundPlayer.obj
 0001:00001367       ?InPlaceDeactivate@?$IOleInPlaceObjectWindowlessImpl@VCOPOSSoundPlayer@@@ATL@@UAGJXZ 10002367 f i SoundPlayer.obj
 0001:00001381       ?UIDeactivate@?$IOleInPlaceObjectWindowlessImpl@VCOPOSSoundPlayer@@@ATL@@UAGJXZ 10002381 f i SoundPlayer.obj
 0001:0000139b       ?SetObjectRects@?$IOleInPlaceObjectWindowlessImpl@VCOPOSSoundPlayer@@@ATL@@UAGJPBUtagRECT@@0@Z 1000239b f i SoundPlayer.obj
 0001:000013bb       ?ReactivateAndUndo@?$IOleInPlaceObjectWindowlessImpl@VCOPOSSoundPlayer@@@ATL@@UAGJXZ 100023bb f i SoundPlayer.obj
 0001:000013c3       ?OnWindowMessage@?$IOleInPlaceObjectWindowlessImpl@VCOPOSSoundPlayer@@@ATL@@UAGJIIJPAJ@Z 100023c3 f i SoundPlayer.obj
 0001:00001433       ?EnumConnectionPoints@?$IConnectionPointContainerImpl@VCOPOSSoundPlayer@@@ATL@@UAGJPAPAUIEnumConnectionPoints@@@Z 10002433 f i SoundPlayer.obj
 0001:000015bf       ?FindConnectionPoint@?$IConnectionPointContainerImpl@VCOPOSSoundPlayer@@@ATL@@UAGJABU_GUID@@PAPAUIConnectionPoint@@@Z 100025bf f i SoundPlayer.obj
 0001:00001662       ?IsDirty@?$IPersistStorageImpl@VCOPOSSoundPlayer@@@ATL@@UAGJXZ 10002662 f i SoundPlayer.obj
 0001:00001692       ?InitNew@?$IPersistStorageImpl@VCOPOSSoundPlayer@@@ATL@@UAGJPAUIStorage@@@Z 10002692 f i SoundPlayer.obj
 0001:000016c2       ?Load@?$IPersistStorageImpl@VCOPOSSoundPlayer@@@ATL@@UAGJPAUIStorage@@@Z 100026c2 f i SoundPlayer.obj
 0001:0000172e       ?Save@?$IPersistStorageImpl@VCOPOSSoundPlayer@@@ATL@@UAGJPAUIStorage@@H@Z 1000272e f i SoundPlayer.obj
 0001:000017a1       ?GetPages@?$ISpecifyPropertyPagesImpl@VCOPOSSoundPlayer@@@ATL@@UAGJPAUtagCAUUID@@@Z 100027a1 f i SoundPlayer.obj
 0001:000017b8       ?QuickActivate@?$IQuickActivateImpl@VCOPOSSoundPlayer@@@ATL@@UAGJPAUtagQACONTAINER@@PAUtagQACONTROL@@@Z 100027b8 f i SoundPlayer.obj
 0001:000017db       ?SetContentExtent@?$IQuickActivateImpl@VCOPOSSoundPlayer@@@ATL@@UAGJPAUtagSIZE@@@Z 100027db f i SoundPlayer.obj
 0001:00001807       ?GetContentExtent@?$IQuickActivateImpl@VCOPOSSoundPlayer@@@ATL@@UAGJPAUtagSIZE@@@Z 10002807 f i SoundPlayer.obj
 0001:00001843       ?GetData@?$IDataObjectImpl@VCOPOSSoundPlayer@@@ATL@@UAGJPAUtagFORMATETC@@PAUtagSTGMEDIUM@@@Z 10002843 f i SoundPlayer.obj
 0001:00001866       ?DAdvise@?$IDataObjectImpl@VCOPOSSoundPlayer@@@ATL@@UAGJPAUtagFORMATETC@@KPAUIAdviseSink@@PAK@Z 10002866 f i SoundPlayer.obj
 0001:000018a7       ?DUnadvise@?$IDataObjectImpl@VCOPOSSoundPlayer@@@ATL@@UAGJK@Z 100028a7 f i SoundPlayer.obj
 0001:000018d5       ?EnumDAdvise@?$IDataObjectImpl@VCOPOSSoundPlayer@@@ATL@@UAGJPAPAUIEnumSTATDATA@@@Z 100028d5 f i SoundPlayer.obj
 0001:00001914       ?GetClassInfoW@?$IProvideClassInfo2Impl@$1?CLSID_OPOSSoundPlayer@@3U_GUID@@B$1?DIID__IOPOSSoundPlayerEvents@@3U2@B$1?LIBID_OposSoundPlayer_CCO@@3U2@B$00$0A@VCComTypeInfoHolder@ATL@@@ATL@@UAGJPAPAUITypeInfo@@@Z 10002914 f i SoundPlayer.obj
 0001:0000192a       ?GetGUID@?$IProvideClassInfo2Impl@$1?CLSID_OPOSSoundPlayer@@3U_GUID@@B$1?DIID__IOPOSSoundPlayerEvents@@3U2@B$1?LIBID_OposSoundPlayer_CCO@@3U2@B$00$0A@VCComTypeInfoHolder@ATL@@@ATL@@UAGJKPAU_GUID@@@Z 1000292a f i SoundPlayer.obj
 0001:00001968       ?FAccessAllowed@?$IObjectSafetyImpl@VCOPOSSoundPlayer@@$02@ATL@@MAEHXZ 10002968 f i SoundPlayer.obj
 0001:00001968       __get_startup_argv_mode    10002968 f i LIBCMT:argv_mode.obj
 0001:0000196c       ?GetInterfaceSafetyOptions@?$IObjectSafetyImpl@VCOPOSSoundPlayer@@$02@ATL@@UAGJABU_GUID@@PAK1@Z 1000296c f i SoundPlayer.obj
 0001:000019e0       ?SetInterfaceSafetyOptions@?$IObjectSafetyImpl@VCOPOSSoundPlayer@@$02@ATL@@UAGJABU_GUID@@KK@Z 100029e0 f i SoundPlayer.obj
 0001:00001a5a       ?_LocCPQueryInterface@?$IConnectionPointImpl@VCOPOSSoundPlayer@@$1?DIID__IOPOSSoundPlayerEvents@@3U_GUID@@BVCComDynamicUnkArray@ATL@@@ATL@@UAGJABU_GUID@@PAPAX@Z 10002a5a f i SoundPlayer.obj
 0001:00001a5a       ?_LocCPQueryInterface@?$IConnectionPointImpl@VCOPOSSoundPlayer@@$1?IID_IPropertyNotifySink@@3U_GUID@@BVCComDynamicUnkArray@ATL@@@ATL@@UAGJABU_GUID@@PAPAX@Z 10002a5a f i SoundPlayer.obj
 0001:00001aa7       ?GetConnectionInterface@?$IConnectionPointImpl@VCOPOSSoundPlayer@@$1?IID_IPropertyNotifySink@@3U_GUID@@BVCComDynamicUnkArray@ATL@@@ATL@@UAGJPAU_GUID@@@Z 10002aa7 f i SoundPlayer.obj
 0001:00001acb       ?GetConnectionPointContainer@?$IConnectionPointImpl@VCOPOSSoundPlayer@@$1?IID_IPropertyNotifySink@@3U_GUID@@BVCComDynamicUnkArray@ATL@@@ATL@@UAGJPAPAUIConnectionPointContainer@@@Z 10002acb f i SoundPlayer.obj
 0001:00001aee       ?Advise@?$IConnectionPointImpl@VCOPOSSoundPlayer@@$1?DIID__IOPOSSoundPlayerEvents@@3U_GUID@@BVCComDynamicUnkArray@ATL@@@ATL@@UAGJPAUIUnknown@@PAK@Z 10002aee f i SoundPlayer.obj
 0001:00001aee       ?Advise@?$IConnectionPointImpl@VCOPOSSoundPlayer@@$1?IID_IPropertyNotifySink@@3U_GUID@@BVCComDynamicUnkArray@ATL@@@ATL@@UAGJPAUIUnknown@@PAK@Z 10002aee f i SoundPlayer.obj
 0001:00001b8e       ?Unadvise@?$IConnectionPointImpl@VCOPOSSoundPlayer@@$1?DIID__IOPOSSoundPlayerEvents@@3U_GUID@@BVCComDynamicUnkArray@ATL@@@ATL@@UAGJK@Z 10002b8e f i SoundPlayer.obj
 0001:00001b8e       ?Unadvise@?$IConnectionPointImpl@VCOPOSSoundPlayer@@$1?IID_IPropertyNotifySink@@3U_GUID@@BVCComDynamicUnkArray@ATL@@@ATL@@UAGJK@Z 10002b8e f i SoundPlayer.obj
 0001:00001bce       ?EnumConnections@?$IConnectionPointImpl@VCOPOSSoundPlayer@@$1?DIID__IOPOSSoundPlayerEvents@@3U_GUID@@BVCComDynamicUnkArray@ATL@@@ATL@@UAGJPAPAUIEnumConnections@@@Z 10002bce f i SoundPlayer.obj
 0001:00001bce       ?EnumConnections@?$IConnectionPointImpl@VCOPOSSoundPlayer@@$1?IID_IPropertyNotifySink@@3U_GUID@@BVCComDynamicUnkArray@ATL@@@ATL@@UAGJPAPAUIEnumConnections@@@Z 10002bce f i SoundPlayer.obj
 0001:00001cc9       ?GetObjectDescription@?$CComCoClass@VCOPOSSoundPlayer@@$1?CLSID_OPOSSoundPlayer@@3U_GUID@@B@ATL@@SGPB_WXZ 10002cc9 f i SoundPlayer.obj
 0001:00001cc9       ?GetCategoryMap@CComObjectRootBase@ATL@@SAPBU_ATL_CATMAP_ENTRY@2@XZ 10002cc9 f i SoundPlayer.obj
 0001:00001ccc       ?GetConnectionInterface@?$IConnectionPointImpl@VCOPOSSoundPlayer@@$1?DIID__IOPOSSoundPlayerEvents@@3U_GUID@@BVCComDynamicUnkArray@ATL@@@ATL@@UAGJPAU_GUID@@@Z 10002ccc f i SoundPlayer.obj
 0001:00001cf0       ?GetConnectionPointContainer@?$IConnectionPointImpl@VCOPOSSoundPlayer@@$1?DIID__IOPOSSoundPlayerEvents@@3U_GUID@@BVCComDynamicUnkArray@ATL@@@ATL@@UAGJPAPAUIConnectionPointContainer@@@Z 10002cf0 f i SoundPlayer.obj
 0001:00001d13       ?UpdateRegistry@COPOSSoundPlayer@@SGJH@Z 10002d13 f i SoundPlayer.obj
 0001:00001d2b       ?ProcessWindowMessage@COPOSSoundPlayer@@UAEHPAUHWND__@@IIJAAJK@Z 10002d2b f i SoundPlayer.obj
 0001:00001d74       ?SODirectIO@COPOSSoundPlayer@@MAGJJPAJPAPA_W@Z 10002d74 f i SoundPlayer.obj
 0001:00001dbd       ?SOError@COPOSSoundPlayer@@MAGJJJJPAJ@Z 10002dbd f i SoundPlayer.obj
 0001:00001e12       ?SOOutputComplete@COPOSSoundPlayer@@MAGJJ@Z 10002e12 f i SoundPlayer.obj
 0001:00001e4b       ?SOStatusUpdate@COPOSSoundPlayer@@MAGJJ@Z 10002e4b f i SoundPlayer.obj
 0001:00001e84       ?Lock@CAtlModule@ATL@@UAEJXZ 10002e84 f i SoundPlayer.obj
 0001:00001e8e       ?Unlock@CAtlModule@ATL@@UAEJXZ 10002e8e f i SoundPlayer.obj
 0001:00001e98       ?GetLockCount@CAtlModule@ATL@@UAEJXZ 10002e98 f i SoundPlayer.obj
 0001:00001e9c       ?GetGITPtr@CAtlModule@ATL@@UAEJPAPAUIGlobalInterfaceTable@@@Z 10002e9c f i SoundPlayer.obj
 0001:00001ee8       ?AddCommonRGSReplacements@?$CAtlModuleT@VCComModule@ATL@@@ATL@@UAEJPAUIRegistrarBase@@@Z 10002ee8 f i SoundPlayer.obj
 0001:00001f02       ?UpdateRegistryFromResourceD@CComModule@ATL@@UAGJPB_WHPAU_ATL_REGMAP_ENTRY@2@@Z 10002f02 f i SoundPlayer.obj
 0001:00001f02       ?UpdateRegistryFromResourceD@CComModule@ATL@@UAGJIHPAU_ATL_REGMAP_ENTRY@2@@Z 10002f02 f i SoundPlayer.obj
 0001:00001f0a       ?UpdateRegistryFromResource@CComModule@ATL@@UAGJPB_WHPAU_ATL_REGMAP_ENTRY@2@@Z 10002f0a f i SoundPlayer.obj
 0001:00001f13       ?UpdateRegistryFromResource@CComModule@ATL@@UAGJIHPAU_ATL_REGMAP_ENTRY@2@@Z 10002f13 f i SoundPlayer.obj
 0001:00001f1c       ??_GCComModule@ATL@@UAEPAXI@Z 10002f1c f i SoundPlayer.obj
 0001:00001f1c       ??_ECComModule@ATL@@UAEPAXI@Z 10002f1c f i SoundPlayer.obj
 0001:00001f44       ?CreateInstance@?$CComCreator@V?$CComObjectCached@VCComClassFactory@ATL@@@ATL@@@ATL@@SGJPAXABU_GUID@@PAPAX@Z 10002f44 f i SoundPlayer.obj
 0001:00001fe4       ?CreateInstance@?$CComCreator2@V?$CComCreator@V?$CComObject@VCOPOSSoundPlayer@@@ATL@@@ATL@@V?$CComCreator@V?$CComAggObject@VCOPOSSoundPlayer@@@ATL@@@2@@ATL@@SGJPAXABU_GUID@@PAPAX@Z 10002fe4 f i SoundPlayer.obj
 0001:00002004       ?AddRef@?$CComObjectCached@VCComClassFactory@ATL@@@ATL@@UAGKXZ 10003004 f i SoundPlayer.obj
 0001:0000202b       ?Release@?$CComObjectCached@VCComClassFactory@ATL@@@ATL@@UAGKXZ 1000302b f i SoundPlayer.obj
 0001:00002061       ?QueryInterface@?$CComObjectCached@VCComClassFactory@ATL@@@ATL@@UAGJABU_GUID@@PAPAX@Z 10003061 f i SoundPlayer.obj
 0001:0000207b       ??_E?$CComObjectCached@VCComClassFactory@ATL@@@ATL@@UAEPAXI@Z 1000307b f i SoundPlayer.obj
 0001:0000207b       ??_G?$CComObjectCached@VCComClassFactory@ATL@@@ATL@@UAEPAXI@Z 1000307b f i SoundPlayer.obj
 0001:0000209d       ?Next@?$CComEnumImpl@UIEnumConnectionPoints@@$1?_GUID_b196b285_bab4_101a_b69c_00aa00341d07@@3U__s_GUID@@BPAUIConnectionPoint@@V?$_CopyInterface@UIConnectionPoint@@@ATL@@@ATL@@UAGJKPAPAUIConnectionPoint@@PAK@Z 1000309d f i SoundPlayer.obj
 0001:00002174       ?Skip@?$CComEnumImpl@UIEnumConnectionPoints@@$1?_GUID_b196b285_bab4_101a_b69c_00aa00341d07@@3U__s_GUID@@BPAUIConnectionPoint@@V?$_CopyInterface@UIConnectionPoint@@@ATL@@@ATL@@UAGJK@Z 10003174 f i SoundPlayer.obj
 0001:000021a1       ?Reset@?$CComEnumImpl@UIEnumConnectionPoints@@$1?_GUID_b196b285_bab4_101a_b69c_00aa00341d07@@3U__s_GUID@@BPAUIConnectionPoint@@V?$_CopyInterface@UIConnectionPoint@@@ATL@@@ATL@@UAGJXZ 100031a1 f i SoundPlayer.obj
 0001:000021a1       ?Reset@?$CComEnumImpl@UIEnumConnections@@$1?_GUID_b196b287_bab4_101a_b69c_00aa00341d07@@3U__s_GUID@@BUtagCONNECTDATA@@V?$_Copy@UtagCONNECTDATA@@@ATL@@@ATL@@UAGJXZ 100031a1 f i SoundPlayer.obj
 0001:000021b3       ?Clone@?$CComEnumImpl@UIEnumConnectionPoints@@$1?_GUID_b196b285_bab4_101a_b69c_00aa00341d07@@3U__s_GUID@@BPAUIConnectionPoint@@V?$_CopyInterface@UIConnectionPoint@@@ATL@@@ATL@@UAGJPAPAUIEnumConnectionPoints@@@Z 100031b3 f i SoundPlayer.obj
 0001:00002294       ?AddRef@?$CComObject@V?$CComEnum@UIEnumConnectionPoints@@$1?_GUID_b196b285_bab4_101a_b69c_00aa00341d07@@3U__s_GUID@@BPAUIConnectionPoint@@V?$_CopyInterface@UIConnectionPoint@@@ATL@@VCComSingleThreadModel@6@@ATL@@@ATL@@UAGKXZ 10003294 f i SoundPlayer.obj
 0001:00002294       ?AddRef@?$CComObject@V?$CComEnum@UIEnumConnections@@$1?_GUID_b196b287_bab4_101a_b69c_00aa00341d07@@3U__s_GUID@@BUtagCONNECTDATA@@V?$_Copy@UtagCONNECTDATA@@@ATL@@VCComSingleThreadModel@6@@ATL@@@ATL@@UAGKXZ 10003294 f i SoundPlayer.obj
 0001:000022a5       ?Release@?$CComObject@V?$CComEnum@UIEnumConnections@@$1?_GUID_b196b287_bab4_101a_b69c_00aa00341d07@@3U__s_GUID@@BUtagCONNECTDATA@@V?$_Copy@UtagCONNECTDATA@@@ATL@@VCComSingleThreadModel@6@@ATL@@@ATL@@UAGKXZ 100032a5 f i SoundPlayer.obj
 0001:000022a5       ?Release@?$CComObject@V?$CComEnum@UIEnumConnectionPoints@@$1?_GUID_b196b285_bab4_101a_b69c_00aa00341d07@@3U__s_GUID@@BPAUIConnectionPoint@@V?$_CopyInterface@UIConnectionPoint@@@ATL@@VCComSingleThreadModel@6@@ATL@@@ATL@@UAGKXZ 100032a5 f i SoundPlayer.obj
 0001:000022e1       ?QueryInterface@?$CComObject@V?$CComEnum@UIEnumConnectionPoints@@$1?_GUID_b196b285_bab4_101a_b69c_00aa00341d07@@3U__s_GUID@@BPAUIConnectionPoint@@V?$_CopyInterface@UIConnectionPoint@@@ATL@@VCComSingleThreadModel@6@@ATL@@@ATL@@UAGJABU_GUID@@PAPAX@Z 100032e1 f i SoundPlayer.obj
 0001:000022fb       ??_E?$CComObject@V?$CComEnum@UIEnumConnectionPoints@@$1?_GUID_b196b285_bab4_101a_b69c_00aa00341d07@@3U__s_GUID@@BPAUIConnectionPoint@@V?$_CopyInterface@UIConnectionPoint@@@ATL@@VCComSingleThreadModel@6@@ATL@@@ATL@@UAEPAXI@Z 100032fb f i SoundPlayer.obj
 0001:000022fb       ??_G?$CComObject@V?$CComEnum@UIEnumConnectionPoints@@$1?_GUID_b196b285_bab4_101a_b69c_00aa00341d07@@3U__s_GUID@@BPAUIConnectionPoint@@V?$_CopyInterface@UIConnectionPoint@@@ATL@@VCComSingleThreadModel@6@@ATL@@@ATL@@UAEPAXI@Z 100032fb f i SoundPlayer.obj
 0001:0000231d       ?AddRef@CRegObject@ATL@@UAGKXZ 1000331d f i SoundPlayer.obj
 0001:00002323       ?AddReplacement@CRegObject@ATL@@UAGJPB_W0@Z 10003323 f i SoundPlayer.obj
 0001:0000235c       ?ClearReplacements@CRegObject@ATL@@UAGJXZ 1000335c f i SoundPlayer.obj
 0001:0000236e       ??_GCRegObject@ATL@@UAEPAXI@Z 1000336e f i SoundPlayer.obj
 0001:0000236e       ??_ECRegObject@ATL@@UAEPAXI@Z 1000336e f i SoundPlayer.obj
 0001:00002390       ?AddRef@?$CComAggObject@VCOPOSSoundPlayer@@@ATL@@UAGKXZ 10003390 f i SoundPlayer.obj
 0001:000023a1       ?Release@?$CComAggObject@VCOPOSSoundPlayer@@@ATL@@UAGKXZ 100033a1 f i SoundPlayer.obj
 0001:000023dd       ?QueryInterface@?$CComAggObject@VCOPOSSoundPlayer@@@ATL@@UAGJABU_GUID@@PAPAX@Z 100033dd f i SoundPlayer.obj
 0001:0000242c       ?AddRef@?$CComContainedObject@VCOPOSSoundPlayer@@@ATL@@UAGKXZ 1000342c f i SoundPlayer.obj
 0001:00002442       ?Release@?$CComContainedObject@VCOPOSSoundPlayer@@@ATL@@UAGKXZ 10003442 f i SoundPlayer.obj
 0001:00002458       ?QueryInterface@?$CComContainedObject@VCOPOSSoundPlayer@@@ATL@@UAGJABU_GUID@@PAPAX@Z 10003458 f i SoundPlayer.obj
 0001:00002473       ??_E?$CComAggObject@VCOPOSSoundPlayer@@@ATL@@UAEPAXI@Z 10003473 f i SoundPlayer.obj
 0001:00002473       ??_G?$CComAggObject@VCOPOSSoundPlayer@@@ATL@@UAEPAXI@Z 10003473 f i SoundPlayer.obj
 0001:00002498       ?AddRef@?$CComObject@VCOPOSSoundPlayer@@@ATL@@UAGKXZ 10003498 f i SoundPlayer.obj
 0001:000024af       ?Release@?$CComObject@VCOPOSSoundPlayer@@@ATL@@UAGKXZ 100034af f i SoundPlayer.obj
 0001:000024f1       ?QueryInterface@?$CComObject@VCOPOSSoundPlayer@@@ATL@@UAGJABU_GUID@@PAPAX@Z 100034f1 f i SoundPlayer.obj
 0001:0000250b       ?OnDrawAdvanced@CComControlBase@ATL@@UAEJAAUATL_DRAWINFO@@@Z 1000350b f i SoundPlayer.obj
 0001:000025fe       ?Next@?$CComEnumImpl@UIEnumConnections@@$1?_GUID_b196b287_bab4_101a_b69c_00aa00341d07@@3U__s_GUID@@BUtagCONNECTDATA@@V?$_Copy@UtagCONNECTDATA@@@ATL@@@ATL@@UAGJKPAUtagCONNECTDATA@@PAK@Z 100035fe f i SoundPlayer.obj
 0001:000026d5       ?Skip@?$CComEnumImpl@UIEnumConnections@@$1?_GUID_b196b287_bab4_101a_b69c_00aa00341d07@@3U__s_GUID@@BUtagCONNECTDATA@@V?$_Copy@UtagCONNECTDATA@@@ATL@@@ATL@@UAGJK@Z 100036d5 f i SoundPlayer.obj
 0001:00002702       ?Clone@?$CComEnumImpl@UIEnumConnections@@$1?_GUID_b196b287_bab4_101a_b69c_00aa00341d07@@3U__s_GUID@@BUtagCONNECTDATA@@V?$_Copy@UtagCONNECTDATA@@@ATL@@@ATL@@UAGJPAPAUIEnumConnections@@@Z 10003702 f i SoundPlayer.obj
 0001:000027e3       ?QueryInterface@?$CComObject@V?$CComEnum@UIEnumConnections@@$1?_GUID_b196b287_bab4_101a_b69c_00aa00341d07@@3U__s_GUID@@BUtagCONNECTDATA@@V?$_Copy@UtagCONNECTDATA@@@ATL@@VCComSingleThreadModel@6@@ATL@@@ATL@@UAGJABU_GUID@@PAPAX@Z 100037e3 f i SoundPlayer.obj
 0001:000027fd       ??_G?$CComObject@V?$CComEnum@UIEnumConnections@@$1?_GUID_b196b287_bab4_101a_b69c_00aa00341d07@@3U__s_GUID@@BUtagCONNECTDATA@@V?$_Copy@UtagCONNECTDATA@@@ATL@@VCComSingleThreadModel@6@@ATL@@@ATL@@UAEPAXI@Z 100037fd f i SoundPlayer.obj
 0001:000027fd       ??_E?$CComObject@V?$CComEnum@UIEnumConnections@@$1?_GUID_b196b287_bab4_101a_b69c_00aa00341d07@@3U__s_GUID@@BUtagCONNECTDATA@@V?$_Copy@UtagCONNECTDATA@@@ATL@@VCComSingleThreadModel@6@@ATL@@@ATL@@UAEPAXI@Z 100037fd f i SoundPlayer.obj
 0001:0000281f       ??_E?$CComObject@VCOPOSSoundPlayer@@@ATL@@W3AEPAXI@Z 1000381f f i SoundPlayer.obj
 0001:00002827       ??_E?$CComObject@VCOPOSSoundPlayer@@@ATL@@WEM@AEPAXI@Z 10003827 f i SoundPlayer.obj
 0001:0000282f       ?QueryInterface@?$CComObject@VCOPOSSoundPlayer@@@ATL@@WHA@AGJABU_GUID@@PAPAX@Z 1000382f f i SoundPlayer.obj
 0001:00002839       ?AddRef@?$CComObject@VCOPOSSoundPlayer@@@ATL@@WHA@AGKXZ 10003839 f i SoundPlayer.obj
 0001:00002843       ?Release@?$CComObject@VCOPOSSoundPlayer@@@ATL@@WHA@AGKXZ 10003843 f i SoundPlayer.obj
 0001:0000284d       ?QueryInterface@?$CComObject@VCOPOSSoundPlayer@@@ATL@@WHE@AGJABU_GUID@@PAPAX@Z 1000384d f i SoundPlayer.obj
 0001:00002857       ?AddRef@?$CComObject@VCOPOSSoundPlayer@@@ATL@@WHE@AGKXZ 10003857 f i SoundPlayer.obj
 0001:00002861       ?Release@?$CComObject@VCOPOSSoundPlayer@@@ATL@@WHE@AGKXZ 10003861 f i SoundPlayer.obj
 0001:0000286b       ?QueryInterface@?$CComObject@VCOPOSSoundPlayer@@@ATL@@WHI@AGJABU_GUID@@PAPAX@Z 1000386b f i SoundPlayer.obj
 0001:00002875       ?AddRef@?$CComObject@VCOPOSSoundPlayer@@@ATL@@WHI@AGKXZ 10003875 f i SoundPlayer.obj
 0001:0000287f       ?Release@?$CComObject@VCOPOSSoundPlayer@@@ATL@@WHI@AGKXZ 1000387f f i SoundPlayer.obj
 0001:00002889       ?QueryInterface@?$CComObject@VCOPOSSoundPlayer@@@ATL@@WHM@AGJABU_GUID@@PAPAX@Z 10003889 f i SoundPlayer.obj
 0001:00002893       ?AddRef@?$CComObject@VCOPOSSoundPlayer@@@ATL@@WHM@AGKXZ 10003893 f i SoundPlayer.obj
 0001:0000289d       ?Release@?$CComObject@VCOPOSSoundPlayer@@@ATL@@WHM@AGKXZ 1000389d f i SoundPlayer.obj
 0001:000028a7       ?QueryInterface@?$CComObject@VCOPOSSoundPlayer@@@ATL@@WIA@AGJABU_GUID@@PAPAX@Z 100038a7 f i SoundPlayer.obj
 0001:000028b4       ?AddRef@?$CComObject@VCOPOSSoundPlayer@@@ATL@@WIA@AGKXZ 100038b4 f i SoundPlayer.obj
 0001:000028c1       ?Release@?$CComObject@VCOPOSSoundPlayer@@@ATL@@WIA@AGKXZ 100038c1 f i SoundPlayer.obj
 0001:000028ce       ?QueryInterface@?$CComObject@VCOPOSSoundPlayer@@@ATL@@WIE@AGJABU_GUID@@PAPAX@Z 100038ce f i SoundPlayer.obj
 0001:000028db       ?AddRef@?$CComObject@VCOPOSSoundPlayer@@@ATL@@WIE@AGKXZ 100038db f i SoundPlayer.obj
 0001:000028e8       ?Release@?$CComObject@VCOPOSSoundPlayer@@@ATL@@WIE@AGKXZ 100038e8 f i SoundPlayer.obj
 0001:000028f5       ?QueryInterface@?$CComObject@VCOPOSSoundPlayer@@@ATL@@WII@AGJABU_GUID@@PAPAX@Z 100038f5 f i SoundPlayer.obj
 0001:00002902       ?AddRef@?$CComObject@VCOPOSSoundPlayer@@@ATL@@WII@AGKXZ 10003902 f i SoundPlayer.obj
 0001:0000290f       ?Release@?$CComObject@VCOPOSSoundPlayer@@@ATL@@WII@AGKXZ 1000390f f i SoundPlayer.obj
 0001:0000291c       ?QueryInterface@?$CComObject@VCOPOSSoundPlayer@@@ATL@@WIM@AGJABU_GUID@@PAPAX@Z 1000391c f i SoundPlayer.obj
 0001:00002929       ?AddRef@?$CComObject@VCOPOSSoundPlayer@@@ATL@@WIM@AGKXZ 10003929 f i SoundPlayer.obj
 0001:00002936       ?Release@?$CComObject@VCOPOSSoundPlayer@@@ATL@@WIM@AGKXZ 10003936 f i SoundPlayer.obj
 0001:00002943       ?QueryInterface@?$CComObject@VCOPOSSoundPlayer@@@ATL@@WJA@AGJABU_GUID@@PAPAX@Z 10003943 f i SoundPlayer.obj
 0001:00002950       ?AddRef@?$CComObject@VCOPOSSoundPlayer@@@ATL@@WJA@AGKXZ 10003950 f i SoundPlayer.obj
 0001:0000295d       ?Release@?$CComObject@VCOPOSSoundPlayer@@@ATL@@WJA@AGKXZ 1000395d f i SoundPlayer.obj
 0001:0000296a       ?QueryInterface@?$CComObject@VCOPOSSoundPlayer@@@ATL@@WJE@AGJABU_GUID@@PAPAX@Z 1000396a f i SoundPlayer.obj
 0001:00002977       ?AddRef@?$CComObject@VCOPOSSoundPlayer@@@ATL@@WJE@AGKXZ 10003977 f i SoundPlayer.obj
 0001:00002984       ??$?4UITypeInfo2@@@?$CComPtr@UITypeInfo@@@ATL@@QAEPAUITypeInfo@@ABV?$CComPtr@UITypeInfo2@@@1@@Z 10003984 f i SoundPlayer.obj
 0001:000029b1       ??$AtlAdd@K@ATL@@YAJPAKKK@Z 100039b1 f i SoundPlayer.obj
 0001:000029d4       ??$AtlAdd@_K@ATL@@YAJPA_K_K1@Z 100039d4 f i SoundPlayer.obj
 0001:00002a0c       ??$AtlAddThrow@K@ATL@@YAKKK@Z 10003a0c f i SoundPlayer.obj
 0001:00002a32       ??$AtlModuleRegisterWndClassInfoT@VAtlModuleRegisterWndClassInfoParamW@ATL@@@ATL@@YAGPAU_ATL_BASE_MODULE70@0@PAU_ATL_WIN_MODULE70@0@PAU_ATL_WNDCLASSINFOW@0@PAP6GJPAUHWND__@@IIJ@ZVAtlModuleRegisterWndClassInfoParamW@0@@Z 10003a32 f i SoundPlayer.obj
 0001:00002b80       ??$AtlMultiply@H@ATL@@YAJPAHHH@Z 10003b80 f i SoundPlayer.obj
 0001:00002bb8       ??$AtlMultiply@I@ATL@@YAJPAIII@Z 10003bb8 f i SoundPlayer.obj
 0001:00002bb8       ??$AtlMultiply@K@ATL@@YAJPAKKK@Z 10003bb8 f i SoundPlayer.obj
 0001:00002bda       ??$AtlMultiplyThrow@I@ATL@@YAIII@Z 10003bda f i SoundPlayer.obj
 0001:00002c00       ??0?$CComAggObject@VCOPOSSoundPlayer@@@ATL@@QAE@PAX@Z 10003c00 f i SoundPlayer.obj
 0001:00002c2d       ??0?$CComContainedObject@VCOPOSSoundPlayer@@@ATL@@QAE@PAX@Z 10003c2d f i SoundPlayer.obj
 0001:00002ce6       ??0?$CComObject@V?$CComEnum@UIEnumConnectionPoints@@$1?_GUID_b196b285_bab4_101a_b69c_00aa00341d07@@3U__s_GUID@@BPAUIConnectionPoint@@V?$_CopyInterface@UIConnectionPoint@@@ATL@@VCComSingleThreadModel@6@@ATL@@@ATL@@QAE@PAX@Z 10003ce6 f i SoundPlayer.obj
 0001:00002d14       ??0?$CComObject@V?$CComEnum@UIEnumConnections@@$1?_GUID_b196b287_bab4_101a_b69c_00aa00341d07@@3U__s_GUID@@BUtagCONNECTDATA@@V?$_Copy@UtagCONNECTDATA@@@ATL@@VCComSingleThreadModel@6@@ATL@@@ATL@@QAE@PAX@Z 10003d14 f i SoundPlayer.obj
 0001:00002d42       ??0?$CComObject@VCOPOSSoundPlayer@@@ATL@@QAE@PAX@Z 10003d42 f i SoundPlayer.obj
 0001:00002df9       ??0?$CComQIPtr@UIOleControlSite@@$1?_GUID_b196b289_bab4_101a_b69c_00aa00341d07@@3U__s_GUID@@B@ATL@@QAE@PAUIUnknown@@@Z 10003df9 f i SoundPlayer.obj
 0001:00002e22       ??0CAtlModule@ATL@@QAE@XZ  10003e22 f i SoundPlayer.obj
 0001:00002e63       ??0CParseBuffer@CRegParser@ATL@@QAE@H@Z 10003e63 f i SoundPlayer.obj
 0001:00002e99       ??0_ATL_MSG@ATL@@QAE@PAUHWND__@@IIJH@Z 10003e99 f i SoundPlayer.obj
 0001:00002ed1       ??1?$CComAggObject@VCOPOSSoundPlayer@@@ATL@@UAE@XZ 10003ed1 f i SoundPlayer.obj
 0001:00002ef5       ??1?$CComEnumImpl@UIEnumConnectionPoints@@$1?_GUID_b196b285_bab4_101a_b69c_00aa00341d07@@3U__s_GUID@@BPAUIConnectionPoint@@V?$_CopyInterface@UIConnectionPoint@@@ATL@@@ATL@@UAE@XZ 10003ef5 f i SoundPlayer.obj
 0001:00002f35       ??1?$CComEnumImpl@UIEnumConnections@@$1?_GUID_b196b287_bab4_101a_b69c_00aa00341d07@@3U__s_GUID@@BUtagCONNECTDATA@@V?$_Copy@UtagCONNECTDATA@@@ATL@@@ATL@@UAE@XZ 10003f35 f i SoundPlayer.obj
 0001:00002f75       ??1?$CComObject@V?$CComEnum@UIEnumConnectionPoints@@$1?_GUID_b196b285_bab4_101a_b69c_00aa00341d07@@3U__s_GUID@@BPAUIConnectionPoint@@V?$_CopyInterface@UIConnectionPoint@@@ATL@@VCComSingleThreadModel@6@@ATL@@@ATL@@UAE@XZ 10003f75 f i SoundPlayer.obj
 0001:00002f98       ??1?$CComObject@V?$CComEnum@UIEnumConnections@@$1?_GUID_b196b287_bab4_101a_b69c_00aa00341d07@@3U__s_GUID@@BUtagCONNECTDATA@@V?$_Copy@UtagCONNECTDATA@@@ATL@@VCComSingleThreadModel@6@@ATL@@@ATL@@UAE@XZ 10003f98 f i SoundPlayer.obj
 0001:00002fbb       ??1?$CComObject@VCOPOSSoundPlayer@@@ATL@@UAE@XZ 10003fbb f i SoundPlayer.obj
 0001:00003079       ??1?$CComObjectCached@VCComClassFactory@ATL@@@ATL@@UAE@XZ 10004079 f i SoundPlayer.obj
 0001:0000308f       ??1?$CComObjectRootEx@VCComMultiThreadModel@ATL@@@ATL@@QAE@XZ 1000408f f i SoundPlayer.obj
 0001:000030a4       ??1CRegObject@ATL@@UAE@XZ  100040a4 f i SoundPlayer.obj
 0001:000030c4       ??4?$CComPtr@UIOleClientSite@@@ATL@@QAEPAUIOleClientSite@@PAU2@@Z 100040c4 f i SoundPlayer.obj
 0001:000030c4       ??4?$CComPtr@UIAdviseSink@@@ATL@@QAEPAUIAdviseSink@@PAU2@@Z 100040c4 f i SoundPlayer.obj
 0001:000030c4       ??4?$CComPtr@UIUnknown@@@ATL@@QAEPAUIUnknown@@PAU2@@Z 100040c4 f i SoundPlayer.obj
 0001:000030f8       ??_E?$CComContainedObject@VCOPOSSoundPlayer@@@ATL@@UAEPAXI@Z 100040f8 f i SoundPlayer.obj
 0001:000030f8       ??_G?$CComContainedObject@VCOPOSSoundPlayer@@@ATL@@UAEPAXI@Z 100040f8 f i SoundPlayer.obj
 0001:0000311d       ??_E?$CComObject@VCOPOSSoundPlayer@@@ATL@@UAEPAXI@Z 1000411d f i SoundPlayer.obj
 0001:0000311d       ??_G?$CComObject@VCOPOSSoundPlayer@@@ATL@@UAEPAXI@Z 1000411d f i SoundPlayer.obj
 0001:00003142       ?Add@?$CSimpleArray@GV?$CSimpleArrayEqualHelper@G@ATL@@@ATL@@QAEHABG@Z 10004142 f i SoundPlayer.obj
 0001:000031c6       ?Add@?$CSimpleMap@PA_WPA_WVCExpansionVectorEqualHelper@ATL@@@ATL@@QAEHABQA_W0@Z 100041c6 f i SoundPlayer.obj
 0001:0000321b       ?Add@CComDynamicUnkArray@ATL@@QAEKPAUIUnknown@@@Z 1000421b f i SoundPlayer.obj
 0001:000032d1       ?Add@CExpansionVector@ATL@@QAEHPB_W0@Z 100042d1 f i SoundPlayer.obj
 0001:000033da       ?AddString@CParseBuffer@CRegParser@ATL@@QAEHPB_W@Z 100043da f i SoundPlayer.obj
 0001:0000340f       ?AddTermFunc@CAtlModule@ATL@@QAEJP6GXK@ZK@Z 1000440f f i SoundPlayer.obj
 0001:00003472       ?AddValue@CRegParser@ATL@@IAEJAAVCRegKey@2@PB_WPA_W@Z 10004472 f i SoundPlayer.obj
 0001:0000378c       ?Allocate@?$CAtlSafeAllocBufferManager@VCCRTAllocator@ATL@@@_ATL_SAFE_ALLOCA_IMPL@ATL@@QAEPAXK@Z 1000478c f i SoundPlayer.obj
 0001:000037b9       ?Allocate@?$CTempBuffer@E$0BAA@VCCRTAllocator@ATL@@@ATL@@QAEPAEI@Z 100047b9 f i SoundPlayer.obj
 0001:000037e8       ?Allocate@?$CTempBuffer@_W$0BAA@VCCRTAllocator@ATL@@@ATL@@QAEPA_WI@Z 100047e8 f i SoundPlayer.obj
 0001:00003817       ?Allocate@?$CTempBuffer@_W$0EAA@VCCRTAllocator@ATL@@@ATL@@QAEPA_WI@Z 10004817 f i SoundPlayer.obj
 0001:00003846       ?AllocateHeap@?$CTempBuffer@E$0BAA@VCCRTAllocator@ATL@@@ATL@@AAEXI@Z 10004846 f i SoundPlayer.obj
 0001:00003846       ?AllocateHeap@?$CTempBuffer@_W$0EAA@VCCRTAllocator@ATL@@@ATL@@AAEXI@Z 10004846 f i SoundPlayer.obj
 0001:00003846       ?AllocateHeap@?$CTempBuffer@_W$0BAA@VCCRTAllocator@ATL@@@ATL@@AAEXI@Z 10004846 f i SoundPlayer.obj
 0001:0000386b       ?Append@CParseBuffer@CRegParser@ATL@@QAEHPB_WH@Z 1000486b f i SoundPlayer.obj
 0001:000038f9       ?AtlCoTaskMemCAlloc@ATL@@YAPAXKK@Z 100048f9 f i SoundPlayer.obj
 0001:00003926       ?AtlCoTaskMemRecalloc@ATL@@YAPAXPAXKK@Z 10004926 f i SoundPlayer.obj
 0001:00003956       ?AtlComModuleGetClassObject@ATL@@YGJPAU_ATL_COM_MODULE70@1@ABU_GUID@@1PAPAX@Z 10004956 f i SoundPlayer.obj
 0001:00003a49       ?AtlComModuleRegisterServer@ATL@@YGJPAU_ATL_COM_MODULE70@1@HPBU_GUID@@@Z 10004a49 f i SoundPlayer.obj
 0001:00003ad1       ?AtlComModuleUnregisterServer@ATL@@YGJPAU_ATL_COM_MODULE70@1@HPBU_GUID@@@Z 10004ad1 f i SoundPlayer.obj
 0001:00003b59       ?AtlComQIPtrAssign2@ATL@@YAXPAPAUIUnknown@@PAU2@ABU_GUID@@@Z 10004b59 f i SoundPlayer.obj
 0001:00003b88       ?AtlCreateTargetDC@ATL@@YGPAUHDC__@@PAU2@PAUtagDVTARGETDEVICE@@@Z 10004b88 f i SoundPlayer.obj
 0001:00003bf1       ?AtlCrtErrorCheck@ATL@@YAHH@Z 10004bf1 f i SoundPlayer.obj
 0001:00003c2c       ?AtlHiMetricToPixel@ATL@@YGXPBUtagSIZE@@PAU2@@Z 10004c2c f i SoundPlayer.obj
 0001:00003ca1       ?AtlHresultFromLastError@ATL@@YAJXZ 10004ca1 f i SoundPlayer.obj
 0001:00003cb8       ?AtlHresultFromWin32@ATL@@YAJK@Z 10004cb8 f i SoundPlayer.obj
 0001:00003ccd       ?AtlInternalOleLoadFromStream@ATL@@YAJPAUIStream@@ABU_GUID@@PAPAXTClassesAllowedInStream@1@K@Z 10004ccd f i SoundPlayer.obj
 0001:00003deb       ?AtlInternalQueryInterface@ATL@@YGJPAXPBU_ATL_INTMAP_ENTRY@1@ABU_GUID@@PAPAX@Z 10004deb f i SoundPlayer.obj
 0001:00003e8e       ?AtlLoadTypeLib@ATL@@YGJPAUHINSTANCE__@@PB_WPAPA_WPAPAUITypeLib@@@Z 10004e8e f i SoundPlayer.obj
 0001:0000406c       ?AtlRegisterClassCategoriesHelper@ATL@@YGJABU_GUID@@PBU_ATL_CATMAP_ENTRY@1@H@Z 1000506c f i SoundPlayer.obj
 0001:00004368       ?AtlRegisterTypeLib@ATL@@YGJPAUHINSTANCE__@@PB_W@Z 10005368 f i SoundPlayer.obj
 0001:000044f0       ?AtlThrowImpl@ATL@@YGXJ@Z  100054f0 f i SoundPlayer.obj
 0001:0000450e       ?AtlUnRegisterTypeLib@ATL@@YGJPAUHINSTANCE__@@PB_W@Z 1000550e f i SoundPlayer.obj
 0001:000045b9       ?AtlWinModuleAddCreateWndData@ATL@@YGXPAU_ATL_WIN_MODULE70@1@PAU_AtlCreateWndData@1@PAX@Z 100055b9 f i SoundPlayer.obj
 0001:0000460d       ?AtlWinModuleExtractCreateWndData@ATL@@YGPAXPAU_ATL_WIN_MODULE70@1@@Z 1000560d f i SoundPlayer.obj
 0001:00004670       ?AtlWinModuleRegisterClassExW@ATL@@YGGPAU_ATL_WIN_MODULE70@1@PBUtagWNDCLASSEXW@@@Z 10005670 f i SoundPlayer.obj
 0001:000046af       ?CanForceRemoveKey@CRegParser@ATL@@IAEHPB_W@Z 100056af f i SoundPlayer.obj
 0001:000046de       ?ChToByte@CRegParser@ATL@@KAE_W@Z 100056de f i SoundPlayer.obj
 0001:00004711       ?Cleanup@CComTypeInfoHolder@ATL@@SGXK@Z 10005711 f i SoundPlayer.obj
 0001:00004744       ?ClearReplacements@CExpansionVector@ATL@@QAEJXZ 10005744 f i SoundPlayer.obj
 0001:00004781       ?Close@CRegKey@ATL@@QAEJXZ 10005781 f i SoundPlayer.obj
 0001:0000479b       ?CreateInstance@?$CComCreator@V?$CComAggObject@VCOPOSSoundPlayer@@@ATL@@@ATL@@SGJPAXABU_GUID@@PAPAX@Z 1000579b f i SoundPlayer.obj
 0001:00004810       ?CreateInstance@?$CComCreator@V?$CComObject@VCOPOSSoundPlayer@@@ATL@@@ATL@@SGJPAXABU_GUID@@PAPAX@Z 10005810 f i SoundPlayer.obj
 0001:00004890       ?CreateInstance@?$CComObject@V?$CComEnum@UIEnumConnectionPoints@@$1?_GUID_b196b285_bab4_101a_b69c_00aa00341d07@@3U__s_GUID@@BPAUIConnectionPoint@@V?$_CopyInterface@UIConnectionPoint@@@ATL@@VCComSingleThreadModel@6@@ATL@@@ATL@@SGJPAPAV12@@Z 10005890 f i SoundPlayer.obj
 0001:000048da       ?CreateInstance@?$CComObject@V?$CComEnum@UIEnumConnections@@$1?_GUID_b196b287_bab4_101a_b69c_00aa00341d07@@3U__s_GUID@@BUtagCONNECTDATA@@V?$_Copy@UtagCONNECTDATA@@@ATL@@VCComSingleThreadModel@6@@ATL@@@ATL@@SGJPAPAV12@@Z 100058da f i SoundPlayer.obj
 0001:00004924       ?DefaultReflectionHandler@?$CWindowImplRoot@VCWindow@ATL@@@ATL@@SAHPAUHWND__@@IIJAAJ@Z 10005924 f i SoundPlayer.obj
 0001:00004997       ?DeleteSubKey@CRegKey@ATL@@QAEJPB_W@Z 10005997 f i SoundPlayer.obj
 0001:00004a10       ?DoEvent@COPOSSoundPlayer@@IAEXIIJ@Z 10005a10 f i SoundPlayer.obj
 0001:00004a90       ?DoVerbHide@?$IOleObjectImpl@VCOPOSSoundPlayer@@@ATL@@QAEJPBUtagRECT@@PAUHWND__@@@Z 10005a90 f i SoundPlayer.obj
 0001:00004ac6       ?DoVerbInPlaceActivate@?$IOleObjectImpl@VCOPOSSoundPlayer@@@ATL@@QAEJPBUtagRECT@@PAUHWND__@@@Z 10005ac6 f i SoundPlayer.obj
 0001:00004af9       ?DoVerbPrimary@?$IOleObjectImpl@VCOPOSSoundPlayer@@@ATL@@QAEJPBUtagRECT@@PAUHWND__@@@Z 10005af9 f i SoundPlayer.obj
 0001:00004b85       ?DoVerbProperties@CComControlBase@ATL@@QAEJPBUtagRECT@@PAUHWND__@@@Z 10005b85 f i SoundPlayer.obj
 0001:00004d04       ?DoVerbUIActivate@?$IOleObjectImpl@VCOPOSSoundPlayer@@@ATL@@QAEJPBUtagRECT@@PAUHWND__@@@Z 10005d04 f i SoundPlayer.obj
 0001:00004d41       ?DoesVerbActivate@CComControlBase@ATL@@QAEHJ@Z 10005d41 f i SoundPlayer.obj
 0001:00004d62       ?DoesVerbUIActivate@CComControlBase@ATL@@QAEHJ@Z 10005d62 f i SoundPlayer.obj
 0001:00004d97       ?EndOfVar@CRegParser@ATL@@IAEHXZ 10005d97 f i SoundPlayer.obj
 0001:00004db7       ?EscapeSingleQuote@CAtlModule@ATL@@SAXPA_WIPB_W@Z 10005db7 f i SoundPlayer.obj
 0001:00004e06       ?FindKey@?$CSimpleMap@PA_WPA_WVCExpansionVectorEqualHelper@ATL@@@ATL@@QBEHABQA_W@Z 10005e06 f i SoundPlayer.obj
 0001:00004e3d       ?FireTheEvent@?$CProxy_IOPOSEvents@VCOPOSSoundPlayer@@@@IAEXPAVOposVariant@@IAAJPB_WJ@Z 10005e3d f i SoundPlayer.obj
 0001:00004ecf       ?FireViewChange@CComControlBase@ATL@@QAEJXZ 10005ecf f i SoundPlayer.obj
 0001:00004f18       ?Fire_DirectIOEvent@?$CProxy_IOPOSEvents@VCOPOSSoundPlayer@@@@QAEXJPAJPAPA_W@Z 10005f18 f i SoundPlayer.obj
 0001:00005004       ?Fire_ErrorEvent@?$CProxy_IOPOSEvents@VCOPOSSoundPlayer@@@@QAEXJJJPAJ@Z 10006004 f i SoundPlayer.obj
 0001:000050f5       ?Fire_OutputCompleteEvent@?$CProxy_IOPOSEvents@VCOPOSSoundPlayer@@@@QAEXJ@Z 100060f5 f i SoundPlayer.obj
 0001:0000518b       ?Fire_StatusUpdateEvent@?$CProxy_IOPOSEvents@VCOPOSSoundPlayer@@@@QAEXJ@Z 1000618b f i SoundPlayer.obj
 0001:00005221       ?FreeHeap@?$CTempBuffer@_W$0BAA@VCCRTAllocator@ATL@@@ATL@@AAEXXZ 10006221 f i SoundPlayer.obj
 0001:00005221       ?FreeHeap@?$CTempBuffer@_W$0EAA@VCCRTAllocator@ATL@@@ATL@@AAEXXZ 10006221 f i SoundPlayer.obj
 0001:00005221       ?FreeHeap@?$CTempBuffer@E$0BAA@VCCRTAllocator@ATL@@@ATL@@AAEXXZ 10006221 f i SoundPlayer.obj
 0001:0000522a       ?GetAmbientLocaleID@CComControlBase@ATL@@QAEJAAK@Z 1000622a f i SoundPlayer.obj
 0001:00005286       ?GetAmbientUserMode@CComControlBase@ATL@@QAEJAAH@Z 10006286 f i SoundPlayer.obj
 0001:000052f6       ?GetAt@CComDynamicUnkArray@ATL@@QAEPAUIUnknown@@H@Z 100062f6 f i SoundPlayer.obj
 0001:00005312       ?GetClassObject@CComModule@ATL@@QAEJABU_GUID@@0PAPAX@Z 10006312 f i SoundPlayer.obj
 0001:000053b4       ?GetConnMap@COPOSSoundPlayer@@SAPBU_ATL_CONNMAP_ENTRY@ATL@@PAH@Z 100063b4 f i SoundPlayer.obj
 0001:00005424       ?GetCookie@CComDynamicUnkArray@ATL@@QAGKPAPAUIUnknown@@@Z 10006424 f i SoundPlayer.obj
 0001:0000545c       ?GetIDsOfNames@CComTypeInfoHolder@ATL@@QAEJABU_GUID@@PAPA_WIKPAJ@Z 1000645c f i SoundPlayer.obj
 0001:00005583       ?GetKeyAt@?$CSimpleMap@PA_WPA_WVCExpansionVectorEqualHelper@ATL@@@ATL@@QBEAAPA_WH@Z 10006583 f i SoundPlayer.obj
 0001:000055a8       ?GetPagesHelper@?$ISpecifyPropertyPagesImpl@VCOPOSSoundPlayer@@@ATL@@IAEJPAUtagCAUUID@@PBUATL_PROPMAP_ENTRY@2@@Z 100065a8 f i SoundPlayer.obj
 0001:000056cf       ?GetProperty@?$CComPtr@UIDispatch@@@ATL@@SAJPAUIDispatch@@JPAUtagVARIANT@@@Z 100066cf f i SoundPlayer.obj
 0001:0000571e       ?GetSizeMax@CComVariant@ATL@@QBEJPAT_ULARGE_INTEGER@@@Z 1000671e f i SoundPlayer.obj
 0001:000058e0       ?GetTI@CComTypeInfoHolder@ATL@@QAEJK@Z 100068e0 f i SoundPlayer.obj
 0001:00005abf       ?GetTI@CComTypeInfoHolder@ATL@@QAEJKPAPAUITypeInfo@@@Z 10006abf f i SoundPlayer.obj
 0001:00005b01       ?GetUnknown@CComDynamicUnkArray@ATL@@QAGPAUIUnknown@@K@Z 10006b01 f i SoundPlayer.obj
 0001:00005b22       ?GetValueAt@?$CSimpleMap@PA_WPA_WVCExpansionVectorEqualHelper@ATL@@@ATL@@QBEAAPA_WH@Z 10006b22 f i SoundPlayer.obj
 0001:00005b48       ?GetZoomInfo@CComControlBase@ATL@@QAEXAAUATL_DRAWINFO@@@Z 10006b48 f i SoundPlayer.obj
 0001:00005bdb       ?HKeyFromString@CRegParser@ATL@@KAPAUHKEY__@@PA_W@Z 10006bdb f i SoundPlayer.obj
 0001:00005c09       ?HasSubKeys@CRegParser@ATL@@IAEHPAUHKEY__@@@Z 10006c09 f i SoundPlayer.obj
 0001:00005c3e       ?IDataObject_GetData@CComControlBase@ATL@@QAEJPAUtagFORMATETC@@PAUtagSTGMEDIUM@@@Z 10006c3e f i SoundPlayer.obj
 0001:00005de4       ?IOleInPlaceObject_InPlaceDeactivate@CComControlBase@ATL@@QAEJXZ 10006de4 f i SoundPlayer.obj
 0001:00005e6b       ?IOleInPlaceObject_SetObjectRects@CComControlBase@ATL@@QAEJPBUtagRECT@@0@Z 10006e6b f i SoundPlayer.obj
 0001:00005f38       ?IOleInPlaceObject_UIDeactivate@CComControlBase@ATL@@QAEJXZ 10006f38 f i SoundPlayer.obj
 0001:00005ffa       ?IOleObject_Advise@CComControlBase@ATL@@QAEJPAUIAdviseSink@@PAK@Z 10006ffa f i SoundPlayer.obj
 0001:00006024       ?IOleObject_Close@CComControlBase@ATL@@QAEJK@Z 10007024 f i SoundPlayer.obj
 0001:00006108       ?IOleObject_GetClientSite@CComControlBase@ATL@@QAEJPAPAUIOleClientSite@@@Z 10007108 f i SoundPlayer.obj
 0001:00006131       ?IOleObject_SetClientSite@CComControlBase@ATL@@QAEJPAUIOleClientSite@@@Z 10007131 f i SoundPlayer.obj
 0001:00006170       ?IOleObject_SetExtent@CComControlBase@ATL@@QAEJKPAUtagSIZE@@@Z 10007170 f i SoundPlayer.obj
 0001:00006222       ?IPSI_GetIPersistStreamInit@?$IPersistStorageImpl@VCOPOSSoundPlayer@@@ATL@@AAEPAUIPersistStreamInit@@XZ 10007222 f i SoundPlayer.obj
 0001:000062ca       ?IPersistStreamInit_Load@?$IPersistStreamInitImpl@VCOPOSSoundPlayer@@@ATL@@QAEJPAUIStream@@PBUATL_PROPMAP_ENTRY@2@@Z 100072ca f i SoundPlayer.obj
 0001:0000653f       ?IPersistStreamInit_Save@?$IPersistStreamInitImpl@VCOPOSSoundPlayer@@@ATL@@QAEJPAUIStream@@HPBUATL_PROPMAP_ENTRY@2@@Z 1000753f f i SoundPlayer.obj
 0001:0000672d       ?IQuickActivate_QuickActivate@CComControlBase@ATL@@QAEJPAUtagQACONTAINER@@PAUtagQACONTROL@@@Z 1000772d f i SoundPlayer.obj
 0001:0000696f       ?IViewObject_Draw@CComControlBase@ATL@@QAEJKJPAXPAUtagDVTARGETDEVICE@@PAUHDC__@@2PBU_RECTL@@3@Z 1000796f f i SoundPlayer.obj
 0001:00006a17       ?InPlaceActivate@CComControlBase@ATL@@QAEJJPBUtagRECT@@@Z 10007a17 f i SoundPlayer.obj
 0001:00006c88       ?Init@?$CComEnumImpl@UIEnumConnectionPoints@@$1?_GUID_b196b285_bab4_101a_b69c_00aa00341d07@@3U__s_GUID@@BPAUIConnectionPoint@@V?$_CopyInterface@UIConnectionPoint@@@ATL@@@ATL@@QAEJPAPAUIConnectionPoint@@0PAUIUnknown@@W4CComEnumFlags@2@@Z 10007c88 f i SoundPlayer.obj
 0001:00006d67       ?Init@?$CComEnumImpl@UIEnumConnections@@$1?_GUID_b196b287_bab4_101a_b69c_00aa00341d07@@3U__s_GUID@@BUtagCONNECTDATA@@V?$_Copy@UtagCONNECTDATA@@@ATL@@@ATL@@QAEJPAUtagCONNECTDATA@@0PAUIUnknown@@W4CComEnumFlags@2@@Z 10007d67 f i SoundPlayer.obj
 0001:00006e46       ?Init@CComModule@ATL@@QAEJPAU_ATL_OBJMAP_ENTRY30@2@PAUHINSTANCE__@@PBU_GUID@@@Z 10007e46 f i SoundPlayer.obj
 0001:00006ea5       ?Init@CDynamicStdCallThunk2@ATL@@QAEHKPAX@Z 10007ea5 f i SoundPlayer.obj
 0001:00006ed0       ?InlineIsEqualUnknown@ATL@@YGHABU_GUID@@@Z 10007ed0 f i SoundPlayer.obj
 0001:00006ef8       ?InternalSetAtIndex@?$CSimpleMap@PA_WPA_WVCExpansionVectorEqualHelper@ATL@@@ATL@@QAEXHABQA_W0@Z 10007ef8 f i SoundPlayer.obj
 0001:00006f22       ?Invoke@CComTypeInfoHolder@ATL@@QAEJPAUIDispatch@@JABU_GUID@@KGPAUtagDISPPARAMS@@PAUtagVARIANT@@PAUtagEXCEPINFO@@PAI@Z 10007f22 f i SoundPlayer.obj
 0001:00006f65       ?IsEqualObject@?$CComPtrBase@UIOleClientSite@@@ATL@@QAE_NPAUIUnknown@@@Z 10007f65 f i SoundPlayer.obj
 0001:00006f65       ?IsEqualObject@?$CComPtrBase@UITypeInfo@@@ATL@@QAE_NPAUIUnknown@@@Z 10007f65 f i SoundPlayer.obj
 0001:00006fd2       ?IsSpace@CRegParser@ATL@@IAEH_W@Z 10007fd2 f i SoundPlayer.obj
 0001:00006ffc       ?LoadNameCache@CComTypeInfoHolder@ATL@@QAEJPAUITypeInfo@@@Z 10007ffc f i SoundPlayer.obj
 0001:00007131       ?Lookup@?$CSimpleMap@PA_WPA_WVCExpansionVectorEqualHelper@ATL@@@ATL@@QBEPA_WABQA_W@Z 10008131 f i SoundPlayer.obj
 0001:00007157       ?NextToken@CRegParser@ATL@@IAEJPA_W@Z 10008157 f i SoundPlayer.obj
 0001:0000728f       ?OnKillFocus@CComControlBase@ATL@@QAEJIIJAAH@Z 1000828f f i SoundPlayer.obj
 0001:000072ea       ?OnMouseActivate@CComControlBase@ATL@@QAEJIIJAAH@Z 100082ea f i SoundPlayer.obj
 0001:00007358       ?OnPaint@CComControlBase@ATL@@QAEJIIJAAH@Z 10008358 f i SoundPlayer.obj
 0001:0000740a       ?OnSetFocus@CComControlBase@ATL@@QAEJIIJAAH@Z 1000840a f i SoundPlayer.obj
 0001:00007493       ?Open@CRegKey@ATL@@QAEJPAUHKEY__@@PB_WK@Z 10008493 f i SoundPlayer.obj
 0001:000074e8       ?PreProcessBuffer@CRegParser@ATL@@QAEJPA_WPAPA_W@Z 100084e8 f i SoundPlayer.obj
 0001:00007757       ?ProcessWindowMessage@?$CComControl@VCOPOSSoundPlayer@@V?$CWindowImpl@VCOPOSSoundPlayer@@VCWindow@ATL@@V?$CWinTraits@$0FGAAAAAA@$0A@@3@@ATL@@@ATL@@UAEHPAUHWND__@@IIJAAJK@Z 10008757 f i SoundPlayer.obj
 0001:000077f6       ?ReadFromStream@CComBSTR@ATL@@QAEJPAUIStream@@@Z 100087f6 f i SoundPlayer.obj
 0001:00007919       ?ReadFromStream@CComVariant@ATL@@QAEJPAUIStream@@GTClassesAllowedInStream@2@K@Z 10008919 f i SoundPlayer.obj
 0001:00007aa3       ?RecurseDeleteKey@CRegKey@ATL@@QAEJPB_W@Z 10008aa3 f i SoundPlayer.obj
 0001:00007b91       ?RegCreateKeyExW@CAtlTransactionManager@ATL@@QAEJPAUHKEY__@@PB_WKPA_WKKQAU_SECURITY_ATTRIBUTES@@PAPAU3@PAK@Z 10008b91 f i SoundPlayer.obj
 0001:00007bf4       ?RegDeleteKeyW@CAtlTransactionManager@ATL@@QAEJPAUHKEY__@@PB_W@Z 10008bf4 f i SoundPlayer.obj
 0001:00007c46       ?RegOpenKeyExW@CAtlTransactionManager@ATL@@QAEJPAUHKEY__@@PB_WKKPAPAU3@@Z 10008c46 f i SoundPlayer.obj
 0001:00007c9d       ?Register@_ATL_WNDCLASSINFOW@ATL@@QAEGPAP6GJPAUHWND__@@IIJ@Z@Z 10008c9d f i SoundPlayer.obj
 0001:00007cbd       ?RegisterBuffer@CRegParser@ATL@@QAEJPA_WH@Z 10008cbd f i SoundPlayer.obj
 0001:00007e04       ?RegisterFromResource@CRegObject@ATL@@IAEJPB_W00H@Z 10008e04 f i SoundPlayer.obj
 0001:00007f3a       ?RegisterServer@?$CAtlModuleT@VCComModule@ATL@@@ATL@@QAEJHPBU_GUID@@@Z 10008f3a f i SoundPlayer.obj
 0001:00007f68       ?RegisterServer@CComModule@ATL@@QAEJHPBU_GUID@@@Z 10008f68 f i SoundPlayer.obj
 0001:00007fde       ?RegisterSubkeys@CRegParser@ATL@@IAEJPA_WPAUHKEY__@@HH@Z 10008fde f i SoundPlayer.obj
 0001:0000868b       ?Remove@CComDynamicUnkArray@ATL@@QAEHK@Z 1000968b f i SoundPlayer.obj
 0001:000086b4       ?RemoveAll@?$CSimpleMap@PA_WPA_WVCExpansionVectorEqualHelper@ATL@@@ATL@@QAEXXZ 100096b4 f i SoundPlayer.obj
 0001:000086e0       ?ResourceRegisterSz@CRegObject@ATL@@QAGJPB_W00@Z 100096e0 f i SoundPlayer.obj
 0001:0000870d       ?ResourceUnregisterSz@CRegObject@ATL@@QAGJPB_W00@Z 1000970d f i SoundPlayer.obj
 0001:0000873a       ?SendOnDataChange@CComControlBase@ATL@@QAEJK@Z 1000973a f i SoundPlayer.obj
 0001:00008787       ?SetControlFocus@CComControlBase@ATL@@QAEHH@Z 10009787 f i SoundPlayer.obj
 0001:00008824       ?SetMultiStringValue@CRegKey@ATL@@QAEJPB_W0@Z 10009824 f i SoundPlayer.obj
 0001:00008880       ?SetStringValue@CRegKey@ATL@@QAEJPB_W0K@Z 10009880 f i SoundPlayer.obj
 0001:000088c9       ?SkipAssignment@CRegParser@ATL@@IAEJPA_W@Z 100098c9 f i SoundPlayer.obj
 0001:0000892e       ?SkipWhiteSpace@CRegParser@ATL@@IAEXXZ 1000992e f i SoundPlayer.obj
 0001:00008950       ?StrChrW@CRegParser@ATL@@KAPA_WPA_W_W@Z 10009950 f i SoundPlayer.obj
 0001:0000898d       ?Term@CAtlModule@ATL@@QAEXXZ 1000998d f i SoundPlayer.obj
 0001:000089e0       ?Term@CComModule@ATL@@QAEXXZ 100099e0 f i SoundPlayer.obj
 0001:00008a38       ?UnregisterServer@?$CAtlModuleT@VCComModule@ATL@@@ATL@@QAEJHPBU_GUID@@@Z 10009a38 f i SoundPlayer.obj
 0001:00008a5e       ?UnregisterServer@CComModule@ATL@@QAEJHPBU_GUID@@@Z 10009a5e f i SoundPlayer.obj
 0001:00008ad4       ?UpdateRegistryFromResource@CAtlModule@ATL@@QAGJIHPAU_ATL_REGMAP_ENTRY@2@@Z 10009ad4 f i SoundPlayer.obj
 0001:00008c9f       ?UpdateRegistryFromResource@CAtlModule@ATL@@QAGJPB_WHPAU_ATL_REGMAP_ENTRY@2@@Z 10009c9f f i SoundPlayer.obj
 0001:00008e70       ?VTFromRegType@CRegParser@ATL@@KAHPB_WAAG@Z 10009e70 f i SoundPlayer.obj
 0001:00008edd       ?WindowProc@?$CWindowImplBaseT@VCWindow@ATL@@V?$CWinTraits@$0FGAAAAAA@$0A@@2@@ATL@@SGJPAUHWND__@@IIJ@Z 10009edd f i SoundPlayer.obj
 0001:00008fcf       ?WriteToStream@CComBSTR@ATL@@QAEJPAUIStream@@@Z 10009fcf f i SoundPlayer.obj
 0001:00009031       ?WriteToStream@CComVariant@ATL@@QAEJPAUIStream@@@Z 1000a031 f i SoundPlayer.obj
 0001:000091ab       ?WriteToStream@CComVariant@ATL@@QAEJPAUIStream@@G@Z 1000a1ab f i SoundPlayer.obj
 0001:00009214       ?_AtlInitialConstruct@?$CComObjectRootEx@VCComMultiThreadModel@ATL@@@ATL@@QAEJXZ 1000a214 f i SoundPlayer.obj
 0001:00009229       ?_AtlVerifyStackAvailable@_ATL_SAFE_ALLOCA_IMPL@ATL@@YA_NK@Z 1000a229 f i SoundPlayer.obj
 0001:000092a7       ?atlCreate@?$CWindowImpl@VCOPOSSoundPlayer@@VCWindow@ATL@@V?$CWinTraits@$0FGAAAAAA@$0A@@3@@ATL@@QAEPAUHWND__@@PAU3@V_U_RECT@2@PB_WKKV_U_MENUorID@2@PAX@Z 1000a2a7 f i SoundPlayer.obj
 0001:000092eb       ?atlCreate@?$CWindowImplBaseT@VCWindow@ATL@@V?$CWinTraits@$0FGAAAAAA@$0A@@2@@ATL@@QAEPAUHWND__@@PAU3@V_U_RECT@2@PB_WKKV_U_MENUorID@2@GPAX@Z 1000a2eb f i SoundPlayer.obj
 0001:00009387       ?copy@?$_Copy@UtagCONNECTDATA@@@ATL@@SAJPAUtagCONNECTDATA@@PBU3@@Z 1000a387 f i SoundPlayer.obj
 0001:000093bd       ?copy@?$_CopyInterface@UIConnectionPoint@@@ATL@@SAJPAPAUIConnectionPoint@@PBQAU3@@Z 1000a3bd f i SoundPlayer.obj
 0001:000093eb       ?memcpy_s@Checked@ATL@@YAXPAXIPBXI@Z 1000a3eb f i SoundPlayer.obj
 0001:0000940a       ?ocscpy_s@@YA_NPA_WIPB_W@Z 1000a40a f i SoundPlayer.obj
 0001:00009454       ?wcscpy_s@Checked@ATL@@YAXPA_WIPB_W@Z 1000a454 f i SoundPlayer.obj
 0001:00009470       _DllCanUnloadNow@0         1000a470 f   SoundPlayer.obj
 0001:0000947c       _DllGetClassObject@12      1000a47c f   SoundPlayer.obj
 0001:0000948a       _DllMain@12                1000a48a f   SoundPlayer.obj
 0001:000094cc       _DllRegisterServer@0       1000a4cc f   SoundPlayer.obj
 0001:000094db       _DllUnregisterServer@0     1000a4db f   SoundPlayer.obj
 0001:000094ea       _InlineIsEqualGUID         1000a4ea f i SoundPlayer.obj
 0001:0000951a       ___local_stdio_printf_options 1000a51a f i SoundPlayer.obj
 0001:00009520       __vswprintf_s_l            1000a520 f i SoundPlayer.obj
 0001:000095cd       _swprintf_s                1000a5cd f i SoundPlayer.obj
 0001:000095e9       ??0?$CComControl@VCOPOSSoundPlayer@@V?$CWindowImpl@VCOPOSSoundPlayer@@VCWindow@ATL@@V?$CWinTraits@$0FGAAAAAA@$0A@@3@@ATL@@@ATL@@QAE@XZ 1000a5e9 f i SoundPlayerImpl.obj
 0001:00009610       ??0?$CProxy_IOPOSEvents@VCOPOSSoundPlayer@@@@QAE@XZ 1000a610 f i SoundPlayerImpl.obj
 0001:00009633       ??0CComControlBase@ATL@@QAE@AAPAUHWND__@@@Z 1000a633 f i SoundPlayerImpl.obj
 0001:00009683       ??0COPOSSoundPlayer@@QAE@XZ 1000a683 f   SoundPlayerImpl.obj
 0001:000096b9       ??1?$CComControl@VCOPOSSoundPlayer@@V?$CWindowImpl@VCOPOSSoundPlayer@@VCWindow@ATL@@V?$CWinTraits@$0FGAAAAAA@$0A@@3@@ATL@@@ATL@@UAE@XZ 1000a6b9 f i SoundPlayerImpl.obj
 0001:000096d2       ??1?$IConnectionPointImpl@VCOPOSSoundPlayer@@$1?IID_IPropertyNotifySink@@3U_GUID@@BVCComDynamicUnkArray@ATL@@@ATL@@QAE@XZ 1000a6d2 f i SoundPlayerImpl.obj
 0001:000096d2       ??1?$IConnectionPointImpl@VCOPOSSoundPlayer@@$1?DIID__IOPOSSoundPlayerEvents@@3U_GUID@@BVCComDynamicUnkArray@ATL@@@ATL@@QAE@XZ 1000a6d2 f i SoundPlayerImpl.obj
 0001:0000970f       ??1CComControlBase@ATL@@UAE@XZ 1000a70f f i SoundPlayerImpl.obj
 0001:00009772       ??1COPOSSoundPlayer@@UAE@XZ 1000a772 f   SoundPlayerImpl.obj
 0001:000097ba       ?CheckHealth@COPOSSoundPlayer@@UAGJJPAJ@Z 1000a7ba f   SoundPlayerImpl.obj
 0001:00009809       ?ClaimDevice@COPOSSoundPlayer@@UAGJJPAJ@Z 1000a809 f   SoundPlayerImpl.obj
 0001:0000987e       ?ClearOutput@COPOSSoundPlayer@@UAGJPAJ@Z 1000a87e f   SoundPlayerImpl.obj
 0001:00009899       ?Close@COPOSSoundPlayer@@UAGJPAJ@Z 1000a899 f   SoundPlayerImpl.obj
 0001:00009907       ?CompareFirmwareVersion@COPOSSoundPlayer@@UAGJPA_WPAJ1@Z 1000a907 f   SoundPlayerImpl.obj
 0001:00009987       ?DirectIO@COPOSSoundPlayer@@UAGJJPAJPAPA_W0@Z 1000a987 f   SoundPlayerImpl.obj
 0001:00009a35       ?DoInvoke@COPOSSoundPlayer@@IAEJJPAVOposVariant@@IHPAJ_N@Z 1000aa35 f   SoundPlayerImpl.obj
 0001:00009b11       ?EventClose@COPOSSoundPlayer@@IAEXXZ 1000ab11 f i SoundPlayerImpl.obj
 0001:00009b44       ?EventInit@COPOSSoundPlayer@@IAEJXZ 1000ab44 f i SoundPlayerImpl.obj
 0001:00009c10       ?EventUninit@COPOSSoundPlayer@@IAEXXZ 1000ac10 f i SoundPlayerImpl.obj
 0001:00009c62       ?EventWindowProc@COPOSSoundPlayer@@IAGJIIJ@Z 1000ac62 f i SoundPlayerImpl.obj
 0001:00009d35       ?FinalConstruct@COPOSSoundPlayer@@QAEJXZ 1000ad35 f   SoundPlayerImpl.obj
 0001:00009d6e       ?FireEventCleanup@COPOSSoundPlayer@@IAEXXZ 1000ad6e f i SoundPlayerImpl.obj
 0001:00009d84       ?FireEventSetup@COPOSSoundPlayer@@IAE_NXZ 1000ad84 f i SoundPlayerImpl.obj
 0001:00009db8       ?FreezeEvents@COPOSSoundPlayer@@MAGJH@Z 1000adb8 f   SoundPlayerImpl.obj
 0001:00009e18       ?GetOposProp@COPOSSoundPlayer@@IAEJJPAFJ@Z 1000ae18 f   SoundPlayerImpl.obj
 0001:00009e3b       ?GetOposProp@COPOSSoundPlayer@@IAEJJPAJJ@Z 1000ae3b f   SoundPlayerImpl.obj
 0001:00009f0a       ?GetOposProp@COPOSSoundPlayer@@IAEJJPAPA_WJ@Z 1000af0a f   SoundPlayerImpl.obj
 0001:00009fe6       ?OnDraw@COPOSSoundPlayer@@MAEJAAUATL_DRAWINFO@@@Z 1000afe6 f   SoundPlayerImpl.obj
 0001:0000a086       ?Open@COPOSSoundPlayer@@UAGJPA_WPAJ@Z 1000b086 f   SoundPlayerImpl.obj
 0001:0000a8c8       ?PlaySoundW@COPOSSoundPlayer@@UAGJPA_WFPAJ@Z 1000b8c8 f   SoundPlayerImpl.obj
 0001:0000a944       ?ReleaseDevice@COPOSSoundPlayer@@UAGJPAJ@Z 1000b944 f   SoundPlayerImpl.obj
 0001:0000a993       ?ResetStatistics@COPOSSoundPlayer@@UAGJPA_WPAJ@Z 1000b993 f   SoundPlayerImpl.obj
 0001:0000a9ea       ?RetrieveStatistics@COPOSSoundPlayer@@UAGJPAPA_WPAJ@Z 1000b9ea f   SoundPlayerImpl.obj
 0001:0000aa41       ?SOProcessID@COPOSSoundPlayer@@UAGJPAJ@Z 1000ba41 f   SoundPlayerImpl.obj
 0001:0000aa55       ?SetCOFreezeEvents@COPOSSoundPlayer@@IAEXF@Z 1000ba55 f   SoundPlayerImpl.obj
 0001:0000aaf5       ?SetOposProp@COPOSSoundPlayer@@IAEJJJJ@Z 1000baf5 f   SoundPlayerImpl.obj
 0001:0000abec       ?StopSound@COPOSSoundPlayer@@UAGJJPAJ@Z 1000bbec f   SoundPlayerImpl.obj
 0001:0000ac3b       ?UpdateFirmware@COPOSSoundPlayer@@UAGJPA_WPAJ@Z 1000bc3b f   SoundPlayerImpl.obj
 0001:0000ac92       ?UpdateStatistics@COPOSSoundPlayer@@UAGJPA_WPAJ@Z 1000bc92 f   SoundPlayerImpl.obj
 0001:0000ace9       ?get_BinaryConversion@COPOSSoundPlayer@@UAGJPAJ@Z 1000bce9 f   SoundPlayerImpl.obj
 0001:0000acff       ?get_CapAssociatedHardTotalsDevice@COPOSSoundPlayer@@UAGJPAPA_W@Z 1000bcff f   SoundPlayerImpl.obj
 0001:0000ad18       ?get_CapCompareFirmwareVersion@COPOSSoundPlayer@@UAGJPAF@Z 1000bd18 f   SoundPlayerImpl.obj
 0001:0000ad31       ?get_CapMultiPlay@COPOSSoundPlayer@@UAGJPAF@Z 1000bd31 f   SoundPlayerImpl.obj
 0001:0000ad4a       ?get_CapPowerReporting@COPOSSoundPlayer@@UAGJPAJ@Z 1000bd4a f   SoundPlayerImpl.obj
 0001:0000ad63       ?get_CapSoundTypeList@COPOSSoundPlayer@@UAGJPAPA_W@Z 1000bd63 f   SoundPlayerImpl.obj
 0001:0000ad7c       ?get_CapStatisticsReporting@COPOSSoundPlayer@@UAGJPAF@Z 1000bd7c f   SoundPlayerImpl.obj
 0001:0000ad95       ?get_CapStorage@COPOSSoundPlayer@@UAGJPAJ@Z 1000bd95 f   SoundPlayerImpl.obj
 0001:0000adae       ?get_CapUpdateFirmware@COPOSSoundPlayer@@UAGJPAF@Z 1000bdae f   SoundPlayerImpl.obj
 0001:0000adc7       ?get_CapUpdateStatistics@COPOSSoundPlayer@@UAGJPAF@Z 1000bdc7 f   SoundPlayerImpl.obj
 0001:0000ade0       ?get_CapVolume@COPOSSoundPlayer@@UAGJPAF@Z 1000bde0 f   SoundPlayerImpl.obj
 0001:0000adf9       ?get_CheckHealthText@COPOSSoundPlayer@@UAGJPAPA_W@Z 1000bdf9 f   SoundPlayerImpl.obj
 0001:0000ae12       ?get_Claimed@COPOSSoundPlayer@@UAGJPAF@Z 1000be12 f   SoundPlayerImpl.obj
 0001:0000ae28       ?get_ControlObjectDescription@COPOSSoundPlayer@@UAGJPAPA_W@Z 1000be28 f   SoundPlayerImpl.obj
 0001:0000ae76       ?get_ControlObjectVersion@COPOSSoundPlayer@@UAGJPAJ@Z 1000be76 f   SoundPlayerImpl.obj
 0001:0000ae89       ?get_DeviceDescription@COPOSSoundPlayer@@UAGJPAPA_W@Z 1000be89 f   SoundPlayerImpl.obj
 0001:0000aea2       ?get_DeviceEnabled@COPOSSoundPlayer@@UAGJPAF@Z 1000bea2 f   SoundPlayerImpl.obj
 0001:0000aeb8       ?get_DeviceName@COPOSSoundPlayer@@UAGJPAPA_W@Z 1000beb8 f   SoundPlayerImpl.obj
 0001:0000aed1       ?get_DeviceSoundList@COPOSSoundPlayer@@UAGJPAPA_W@Z 1000bed1 f   SoundPlayerImpl.obj
 0001:0000aeea       ?get_FreezeEvents@COPOSSoundPlayer@@UAGJPAF@Z 1000beea f   SoundPlayerImpl.obj
 0001:0000af00       ?get_OpenResult@COPOSSoundPlayer@@UAGJPAJ@Z 1000bf00 f   SoundPlayerImpl.obj
 0001:0000af17       ?get_OutputID@COPOSSoundPlayer@@UAGJPAJ@Z 1000bf17 f   SoundPlayerImpl.obj
 0001:0000af2d       ?get_OutputIDList@COPOSSoundPlayer@@UAGJPAPA_W@Z 1000bf2d f   SoundPlayerImpl.obj
 0001:0000af46       ?get_PowerNotify@COPOSSoundPlayer@@UAGJPAJ@Z 1000bf46 f   SoundPlayerImpl.obj
 0001:0000af5c       ?get_PowerState@COPOSSoundPlayer@@UAGJPAJ@Z 1000bf5c f   SoundPlayerImpl.obj
 0001:0000af72       ?get_ResultCode@COPOSSoundPlayer@@UAGJPAJ@Z 1000bf72 f   SoundPlayerImpl.obj
 0001:0000afb0       ?get_ResultCodeExtended@COPOSSoundPlayer@@UAGJPAJ@Z 1000bfb0 f   SoundPlayerImpl.obj
 0001:0000afc6       ?get_ServiceObjectDescription@COPOSSoundPlayer@@UAGJPAPA_W@Z 1000bfc6 f   SoundPlayerImpl.obj
 0001:0000afdf       ?get_ServiceObjectVersion@COPOSSoundPlayer@@UAGJPAJ@Z 1000bfdf f   SoundPlayerImpl.obj
 0001:0000aff5       ?get_State@COPOSSoundPlayer@@UAGJPAJ@Z 1000bff5 f   SoundPlayerImpl.obj
 0001:0000b021       ?get_Storage@COPOSSoundPlayer@@UAGJPAJ@Z 1000c021 f   SoundPlayerImpl.obj
 0001:0000b03a       ?get_Volume@COPOSSoundPlayer@@UAGJPAJ@Z 1000c03a f   SoundPlayerImpl.obj
 0001:0000b053       ?put_BinaryConversion@COPOSSoundPlayer@@UAGJJ@Z 1000c053 f   SoundPlayerImpl.obj
 0001:0000b069       ?put_DeviceEnabled@COPOSSoundPlayer@@UAGJF@Z 1000c069 f   SoundPlayerImpl.obj
 0001:0000b086       ?put_FreezeEvents@COPOSSoundPlayer@@UAGJF@Z 1000c086 f   SoundPlayerImpl.obj
 0001:0000b0d2       ?put_PowerNotify@COPOSSoundPlayer@@UAGJJ@Z 1000c0d2 f   SoundPlayerImpl.obj
 0001:0000b0e8       ?put_Storage@COPOSSoundPlayer@@UAGJJ@Z 1000c0e8 f   SoundPlayerImpl.obj
 0001:0000b101       ?put_Volume@COPOSSoundPlayer@@UAGJJ@Z 1000c101 f   SoundPlayerImpl.obj
 0001:0000b11a       ?s_EventWindowProc@COPOSSoundPlayer@@KGJPAUHWND__@@IIJ@Z 1000c11a f i SoundPlayerImpl.obj
 0001:0000b16c       ??_U@YAPAXI@Z              1000c16c f   LIBCMT:new_array.obj
 0001:0000b175       ??3@YAXPAXI@Z              1000c175 f   LIBCMT:delete_scalar_size.obj
 0001:0000b183       ??_V@YAXPAX@Z              1000c183 f   LIBCMT:delete_array.obj
 0001:0000b188       ??_V@YAXPAXI@Z             1000c188 f   LIBCMT:delete_array_size.obj
 0001:0000b1da       ___scrt_acquire_startup_lock 1000c1da f   LIBCMT:utility.obj
 0001:0000b20c       ___scrt_dllmain_after_initialize_c 1000c20c f   LIBCMT:utility.obj
 0001:0000b237       ___scrt_dllmain_before_initialize_c 1000c237 f   LIBCMT:utility.obj
 0001:0000b245       ___scrt_dllmain_crt_thread_attach 1000c245 f   LIBCMT:utility.obj
 0001:0000b264       ___scrt_dllmain_crt_thread_detach 1000c264 f   LIBCMT:utility.obj
 0001:0000b271       ___scrt_dllmain_exception_filter 1000c271 f   LIBCMT:utility.obj
 0001:0000b2a5       ___scrt_dllmain_uninitialize_c 1000c2a5 f   LIBCMT:utility.obj
 0001:0000b2c8       ___scrt_dllmain_uninitialize_critical 1000c2c8 f   LIBCMT:utility.obj
 0001:0000b2d5       ___scrt_initialize_crt     1000c2d5 f   LIBCMT:utility.obj
 0001:0000b30e       ___scrt_initialize_onexit_tables 1000c30e f   LIBCMT:utility.obj
 0001:0000b395       ___scrt_is_nonwritable_in_current_image 1000c395 f   LIBCMT:utility.obj
 0001:0000b429       ___scrt_release_startup_lock 1000c429 f   LIBCMT:utility.obj
 0001:0000b446       ___scrt_uninitialize_crt   1000c446 f   LIBCMT:utility.obj
 0001:0000b46e       __onexit                   1000c46e f   LIBCMT:utility.obj
 0001:0000b49b       _atexit                    1000c49b f   LIBCMT:utility.obj
 0001:0000b4b0       ??3@YAXPAX@Z               1000c4b0 f   LIBCMT:delete_scalar.obj
 0001:0000b57a       __Init_thread_footer       1000c57a f   LIBCMT:thread_safe_statics.obj
 0001:0000b5c4       __Init_thread_header       1000c5c4 f   LIBCMT:thread_safe_statics.obj
 0001:0000b616       __Init_thread_notify       1000c616 f   LIBCMT:thread_safe_statics.obj
 0001:0000b64c       __Init_thread_wait         1000c64c f   LIBCMT:thread_safe_statics.obj
 0001:0000b69a       ___raise_securityfailure   1000c69a f   LIBCMT:gs_report.obj
 0001:0000b6c2       ___report_gsfailure        1000c6c2 f   LIBCMT:gs_report.obj
 0001:0000b7bb       ___report_rangecheckfailure 1000c7bb f   LIBCMT:gs_report.obj
 0001:0000b7c7       ___report_securityfailure  1000c7c7 f   LIBCMT:gs_report.obj
 0001:0000b895       ??2@YAPAXIABUnothrow_t@std@@@Z 1000c895 f   LIBCMT:new_scalar_nothrow.obj
 0001:0000b8ea       ??_U@YAPAXIABUnothrow_t@std@@@Z 1000c8ea f   LIBCMT:new_array_nothrow.obj
 0001:0000b8f3       @__security_check_cookie@4 1000c8f3 f   LIBCMT:secchk.obj
 0001:0000b910       __SEH_prolog4_GS           1000c910 f   LIBCMT:sehprolg4gs.obj
 0001:0000b957       __SEH_epilog4_GS           1000c957 f   LIBCMT:sehprolg4gs.obj
 0001:0000b970       __alloca_probe_16          1000c970 f   LIBCMT:alloca16.obj
 0001:0000b986       __alloca_probe_8           1000c986     LIBCMT:alloca16.obj
 0001:0000b9a0       __chkstk                   1000c9a0 f   LIBCMT:chkstk.obj
 0001:0000b9a0       __alloca_probe             1000c9a0 f   LIBCMT:chkstk.obj
 0001:0000bd0d       __DllMainCRTStartup@12     1000cd0d f   LIBCMT:dll_dllmain.obj
 0001:0000bd30       ??2@YAPAXI@Z               1000cd30 f   LIBCMT:new_scalar.obj
 0001:0000bd60       ___isa_available_init      1000cd60 f   LIBCMT:cpu_disp.obj
 0001:0000bf30       ___scrt_is_ucrt_dll_in_use 1000cf30 f   LIBCMT:ucrt_detection.obj
 0001:0000bf3c       ___scrt_fastfail           1000cf3c f   LIBCMT:utility_desktop.obj
 0001:0000c056       __crt_debugger_hook        1000d056 f   LIBCMT:utility_desktop.obj
 0001:0000c060       __SEH_prolog4              1000d060 f   LIBCMT:sehprolg4.obj
 0001:0000c0a4       __SEH_epilog4              1000d0a4 f   LIBCMT:sehprolg4.obj
 0001:0000c0b8       @_guard_check_icall_nop@4  1000d0b8 f i LIBCMT:guard_support.obj
 0001:0000c108       ___security_init_cookie    1000d108 f   LIBCMT:gs_support.obj
 0001:0000c153       ?__scrt_initialize_type_info@@YAXXZ 1000d153 f   LIBCMT:tncleanup.obj
 0001:0000c15f       ?__scrt_uninitialize_type_info@@YAXXZ 1000d15f f   LIBCMT:tncleanup.obj
 0001:0000c16b       ___local_stdio_scanf_options 1000d16b f i LIBCMT:default_local_stdio_options.obj
 0001:0000c171       ___scrt_initialize_default_local_stdio_options 1000d171 f   LIBCMT:default_local_stdio_options.obj
 0001:0000c18e       ___scrt_get_dyn_tls_init_callback 1000d18e f   LIBCMT:dyn_tls_init.obj
 0001:0000c194       __RTC_Initialize           1000d194 f   LIBCMT:initsect.obj
 0001:0000c1c0       __RTC_Terminate            1000d1c0 f   LIBCMT:initsect.obj
 0001:0000c1ec       ??0bad_alloc@std@@QAE@ABV01@@Z 1000d1ec f i LIBCMT:throw_bad_alloc.obj
 0001:0000c207       ??0bad_alloc@std@@QAE@XZ   1000d207 f i LIBCMT:throw_bad_alloc.obj
 0001:0000c21f       ??0bad_array_new_length@std@@QAE@ABV01@@Z 1000d21f f i LIBCMT:throw_bad_alloc.obj
 0001:0000c23a       ??0bad_array_new_length@std@@QAE@XZ 1000d23a f i LIBCMT:throw_bad_alloc.obj
 0001:0000c252       ??0exception@std@@QAE@ABV01@@Z 1000d252 f i LIBCMT:throw_bad_alloc.obj
 0001:0000c27e       ??1bad_exception@std@@UAE@XZ 1000d27e f i libvcruntime:frame.obj
 0001:0000c27e       ??1bad_alloc@std@@UAE@XZ   1000d27e f i LIBCMT:throw_bad_alloc.obj
 0001:0000c27e       ??1bad_array_new_length@std@@UAE@XZ 1000d27e f i LIBCMT:throw_bad_alloc.obj
 0001:0000c28f       ??_Gbad_array_new_length@std@@UAEPAXI@Z 1000d28f f i LIBCMT:throw_bad_alloc.obj
 0001:0000c28f       ??_Gbad_exception@std@@UAEPAXI@Z 1000d28f f i libvcruntime:frame.obj
 0001:0000c28f       ??_Ebad_alloc@std@@UAEPAXI@Z 1000d28f f i LIBCMT:throw_bad_alloc.obj
 0001:0000c28f       ??_Gexception@std@@UAEPAXI@Z 1000d28f f i LIBCMT:throw_bad_alloc.obj
 0001:0000c28f       ??_Ebad_exception@std@@UAEPAXI@Z 1000d28f f i libvcruntime:frame.obj
 0001:0000c28f       ??_Ebad_array_new_length@std@@UAEPAXI@Z 1000d28f f i LIBCMT:throw_bad_alloc.obj
 0001:0000c28f       ??_Eexception@std@@UAEPAXI@Z 1000d28f f i LIBCMT:throw_bad_alloc.obj
 0001:0000c28f       ??_Gbad_alloc@std@@UAEPAXI@Z 1000d28f f i LIBCMT:throw_bad_alloc.obj
 0001:0000c2bc       ?__scrt_throw_std_bad_alloc@@YAXXZ 1000d2bc f   LIBCMT:throw_bad_alloc.obj
 0001:0000c2d9       ?__scrt_throw_std_bad_array_new_length@@YAXXZ 1000d2d9 f   LIBCMT:throw_bad_alloc.obj
 0001:0000c2f6       ?what@exception@std@@UBEPBDXZ 1000d2f6 f i LIBCMT:throw_bad_alloc.obj
 0001:0000c303       ??_Etype_info@@UAEPAXI@Z   1000d303 f i LIBCMT:std_type_info_static.obj
 0001:0000c303       ??_Gtype_info@@UAEPAXI@Z   1000d303 f i LIBCMT:std_type_info_static.obj
 0001:0000c326       ??0CAtlBaseModule@ATL@@QAE@XZ 1000d326 f   atls:atlbase.obj
 0001:0000c379       ??0_ATL_BASE_MODULE70@ATL@@QAE@XZ 1000d379 f i atls:atlbase.obj
 0001:0000c39c       ??1CAtlBaseModule@ATL@@QAE@XZ 1000d39c f   atls:atlbase.obj
 0001:0000c489       ?Init@_stdcallthunk@ATL@@QAEHKPAX@Z 1000d489 f i atls:atlthunk.obj
 0001:0000c4be       ?__AllocStdCallThunk_cmn@@YAPAXXZ 1000d4be f   atls:atlthunk.obj
 0001:0000c584       ?__FreeStdCallThunk_cmn@@YAXPAX@Z 1000d584 f   atls:atlthunk.obj
 0001:0000c61f       _AtlThunk_AllocateData@0   1000d61f f   atls:atlthunk.obj
 0001:0000c684       _AtlThunk_DataToCode@4     1000d684 f   atls:atlthunk.obj
 0001:0000c6cb       _AtlThunk_FreeData@4       1000d6cb f   atls:atlthunk.obj
 0001:0000c721       _AtlThunk_InitData@12      1000d721 f   atls:atlthunk.obj
 0001:0000c770       __get_purecall_handler     1000d770 f   libvcruntime:purevirt.obj
 0001:0000c776       __purecall                 1000d776 f   libvcruntime:purevirt.obj
 0001:0000c792       _wcsstr                    1000d792 f   libvcruntime:wcsstr.obj
 0001:0000ca40       __except_handler4          1000da40 f   libvcruntime:chandler4.obj
 0001:0000cb9e       _memcmp                    1000db9e f   libvcruntime:memcmp.obj
 0001:0000dab0       _memcpy                    1000eab0 f   libvcruntime:memcpy.obj
 0001:0000e030       _memset                    1000f030 f   libvcruntime:memset.obj
 0001:0000e18a       ___vcrt_initialize         1000f18a f   libvcruntime:initialization.obj
 0001:0000e1a9       ___vcrt_thread_attach      1000f1a9 f   libvcruntime:initialization.obj
 0001:0000e1b4       ___vcrt_thread_detach      1000f1b4 f   libvcruntime:initialization.obj
 0001:0000e1bf       ___vcrt_uninitialize       1000f1bf f   libvcruntime:initialization.obj
 0001:0000e1d6       ___vcrt_uninitialize_critical 1000f1d6 f   libvcruntime:initialization.obj
 0001:0000e1de       ?GetRangeOfTrysToCheck@__FrameHandler3@@SA?AU?$pair@Viterator@TryBlockMap@__FrameHandler3@@V123@@std@@AAVTryBlockMap@1@HPAXPBU_s_FuncInfo@@H@Z 1000f1de f   libvcruntime:trnsctrl.obj
 0001:0000e24e       ?_CallCatchBlock2@@YAPAXPAUEHRegistrationNode@@PBU_s_FuncInfo@@PAXHK@Z 1000f24e f   libvcruntime:trnsctrl.obj
 0001:0000e2ac       ?_CallSETranslator@@YAHPAUEHExceptionRecord@@PAUEHRegistrationNode@@PAX2PBU_s_FuncInfo@@H1@Z 1000f2ac f   libvcruntime:trnsctrl.obj
 0001:0000e392       ?_JumpToContinuation@@YGXPAXPAUEHRegistrationNode@@@Z 1000f392 f   libvcruntime:trnsctrl.obj
 0001:0000e3c2       ?_UnwindNestedFrames@@YGXPAUEHRegistrationNode@@PAUEHExceptionRecord@@@Z 1000f3c2 f   libvcruntime:trnsctrl.obj
 0001:0000e415       __CatchGuardHandler        1000f415 f   libvcruntime:trnsctrl.obj
 0001:0000e446       __CreateFrameInfo          1000f446 f   libvcruntime:trnsctrl.obj
 0001:0000e46a       __FindAndUnlinkFrame       1000f46a f   libvcruntime:trnsctrl.obj
 0001:0000e4b2       __TranslatorGuardHandler   1000f4b2 f   libvcruntime:trnsctrl.obj
 0001:0000e54f       ___CxxFrameHandler3        1000f54f f   libvcruntime:trnsctrl.obj
 0001:0000e585       ___DestructExceptionObject 1000f585 f   libvcruntime:ehhelpers.obj
 0001:0000e626       ?_CallMemberFunction0@@YGXQAX0@Z 1000f626 f i libvcruntime:ehhelpers.obj
 0001:0000e68b       __IsExceptionObjectToBeDestroyed 1000f68b f   libvcruntime:ehhelpers.obj
 0001:0000e6b1       ___AdjustPointer           1000f6b1 f   libvcruntime:ehhelpers.obj
 0001:0000e6d6       ___FrameUnwindFilter       1000f6d6 f   libvcruntime:ehhelpers.obj
 0001:0000e72c       ___std_type_info_compare   1000f72c f   libvcruntime:std_type_info.obj
 0001:0000e768       ___std_type_info_destroy_list 1000f768 f   libvcruntime:std_type_info.obj
 0001:0000e78b       ___std_exception_copy      1000f78b f   libvcruntime:std_exception.obj
 0001:0000e7ee       ___std_exception_destroy   1000f7ee f   libvcruntime:std_exception.obj
 0001:0000e80d       __CxxThrowException@8      1000f80d f   libvcruntime:throw.obj
 0001:0000e880       _memmove                   1000f880 f   libvcruntime:memmove.obj
 0001:0000ee00       __local_unwind4            1000fe00 f   libvcruntime:exsup4.obj
 0001:0000eed4       __seh_longjmp_unwind4@4    1000fed4 f   libvcruntime:exsup4.obj
 0001:0000eefc       @_EH4_CallFilterFunc@8     1000fefc f   libvcruntime:exsup4.obj
 0001:0000ef14       @_EH4_TransferToHandler@8  1000ff14 f   libvcruntime:exsup4.obj
 0001:0000ef30       @_EH4_GlobalUnwind2@8      1000ff30 f   libvcruntime:exsup4.obj
 0001:0000ef4c       @_EH4_LocalUnwind@16       1000ff4c f   libvcruntime:exsup4.obj
 0001:0000ef63       ___except_validate_context_record 1000ff63 f   libvcruntime:jbcxrval.obj
 0001:0000ef93       ___except_validate_jump_buffer 1000ff93 f   libvcruntime:jbcxrval.obj
 0001:0000efc0       ___vcrt_freefls@4          1000ffc0 f   libvcruntime:per_thread_data.obj
 0001:0000efdc       ___vcrt_freeptd            1000ffdc f   libvcruntime:per_thread_data.obj
 0001:0000f012       ___vcrt_getptd             10010012 f   libvcruntime:per_thread_data.obj
 0001:0000f020       ___vcrt_getptd_noexit      10010020 f   libvcruntime:per_thread_data.obj
 0001:0000f0b2       ___vcrt_initialize_ptd     100100b2 f   libvcruntime:per_thread_data.obj
 0001:0000f0e5       ___vcrt_uninitialize_ptd   100100e5 f   libvcruntime:per_thread_data.obj
 0001:0000f100       ___vcrt_initialize_locks   10010100 f   libvcruntime:locks.obj
 0001:0000f13c       ___vcrt_uninitialize_locks 1001013c f   libvcruntime:locks.obj
 0001:0000f8ae       ??$TypeMatchHelper@V__FrameHandler3@@@@YAHPBU_s_HandlerType@@PBU_s_CatchableType@@PBU_s_ThrowInfo@@@Z 100108ae f i libvcruntime:frame.obj
 0001:0000f93c       ??$__InternalCxxFrameHandler@V__FrameHandler3@@@@YA?AW4_EXCEPTION_DISPOSITION@@PAUEHExceptionRecord@@PAUEHRegistrationNode@@PAU_CONTEXT@@PAXPBU_s_FuncInfo@@H1E@Z 1001093c f i libvcruntime:frame.obj
 0001:0000fa3e       ??0bad_exception@std@@QAE@ABV01@@Z 10010a3e f i libvcruntime:frame.obj
 0001:0000fa59       ??0bad_exception@std@@QAE@XZ 10010a59 f i libvcruntime:frame.obj
 0001:0000fa71       ??8type_info@@QBE_NABV0@@Z 10010a71 f i libvcruntime:frame.obj
 0001:0000fcdd       ?FrameUnwindToEmptyState@__FrameHandler3@@SAXPAUEHRegistrationNode@@PAXPBU_s_FuncInfo@@@Z 10010cdd f   libvcruntime:frame.obj
 0001:0000fcf5       ?FrameUnwindToState@__FrameHandler3@@SAXPAUEHRegistrationNode@@PAXPBU_s_FuncInfo@@H@Z 10010cf5 f   libvcruntime:frame.obj
 0001:0000fe77       ?_CallMemberFunction1@@YGXQAX00@Z 10010e77 f i libvcruntime:frame.obj
 0001:0000fe87       ?_CallMemberFunction2@@YGXQAX00H@Z 10010e87 f i libvcruntime:frame.obj
 0001:0000fe9a       ?getESTypes@__FrameHandler3@@SAPBU_s_ESTypeList@@PBU_s_FuncInfo@@@Z 10010e9a f i libvcruntime:frame.obj
 0001:0000feb0       __CallSettingFrame@12      10010eb0 f   libvcruntime:lowhelpr.obj
 0001:0000fed7       __NLG_Return               10010ed7     libvcruntime:lowhelpr.obj
 0001:0000ff00       __global_unwind2           10010f00 f   libvcruntime:exsup.obj
 0001:0000ff66       __local_unwind2            10010f66 f   libvcruntime:exsup.obj
 0001:0000ffea       __abnormal_termination     10010fea f   libvcruntime:exsup.obj
 0001:00010010       __NLG_Notify1              10011010 f   libvcruntime:exsup.obj
 0001:0001001c       __NLG_Notify               1001101c f   libvcruntime:exsup.obj
 0001:00010033       __NLG_Dispatch             10011033     libvcruntime:exsup.obj
 0001:00010033       __NLG_Dispatch2            10011033     libvcruntime:exsup.obj
 0001:0001003b       __NLG_Call                 1001103b f   libvcruntime:exsup.obj
 0001:0001003d       __NLG_Return2              1001103d     libvcruntime:exsup.obj
 0001:00010121       ___vcrt_FlsAlloc           10011121 f   libvcruntime:winapi_downlevel.obj
 0001:0001015c       ___vcrt_FlsFree            1001115c f   libvcruntime:winapi_downlevel.obj
 0001:00010197       ___vcrt_FlsGetValue        10011197 f   libvcruntime:winapi_downlevel.obj
 0001:000101d2       ___vcrt_FlsSetValue        100111d2 f   libvcruntime:winapi_downlevel.obj
 0001:00010210       ___vcrt_InitializeCriticalSectionEx 10011210 f   libvcruntime:winapi_downlevel.obj
 0001:00010257       _unexpected                10011257 f   libvcruntime:unexpected.obj
 0001:00010274       ?GetCurrentState@__FrameHandler3@@SAHPAUEHRegistrationNode@@PAXPBU_s_FuncInfo@@@Z 10011274 f   libvcruntime:ehstate.obj
 0001:00010291       ?SetState@__FrameHandler3@@SAXPAUEHRegistrationNode@@PBU_s_FuncInfo@@H@Z 10011291 f   libvcruntime:ehstate.obj
 0001:0001029f       _free                      1001129f f   libucrt:free.obj
 0001:000102ba       ___acrt_call_reportfault   100112ba f   libucrt:invalid_parameter.obj
 0001:000103f3       ___acrt_initialize_invalid_parameter_handler 100113f3 f   libucrt:invalid_parameter.obj
 0001:00010402       __invalid_parameter        10011402 f   libucrt:invalid_parameter.obj
 0001:00010466       __invalid_parameter_noinfo 10011466 f   libucrt:invalid_parameter.obj
 0001:00010476       __invoke_watson            10011476 f   libucrt:invalid_parameter.obj
 0001:000104aa       ___acrt_errno_from_os_error 100114aa f   libucrt:errno.obj
 0001:000104ed       ___acrt_errno_map_os_error 100114ed f   libucrt:errno.obj
 0001:00010510       ___doserrno                10011510 f   libucrt:errno.obj
 0001:00010523       __errno                    10011523 f   libucrt:errno.obj
 0001:00010536       _calloc                    10011536 f   libucrt:calloc.obj
 0001:00010541       _malloc                    10011541 f   libucrt:malloc.obj
 0001:0001054c       __recalloc                 1001154c f   libucrt:recalloc.obj
 0001:00010557       __recalloc_base            10011557 f   libucrt:recalloc.obj
 0001:000105c4       __resetstkoflw             100115c4 f   libucrt:resetstk.obj
 0001:00010689       _wcscat_s                  10011689 f   libucrt:wcscat_s.obj
 0001:000106fe       _wcscpy_s                  100116fe f   libucrt:wcscpy_s.obj
 0001:0001082d       _wcsncpy_s                 1001182d f   libucrt:wcsncpy_s.obj
 0001:00010a39       ??$count@D@formatting_buffer@__crt_stdio_output@@QBEIXZ 10011a39 f i libucrt:output.obj
 0001:00010a51       ??$count@_W@formatting_buffer@__crt_stdio_output@@QBEIXZ 10011a51 f i libucrt:output.obj
 0001:00010a6a       ??$ensure_buffer_is_big_enough@D@formatting_buffer@__crt_stdio_output@@QAE_NI@Z 10011a6a f i libucrt:output.obj
 0001:00010ae7       ??$ensure_buffer_is_big_enough@_W@formatting_buffer@__crt_stdio_output@@QAE_NI@Z 10011ae7 f i libucrt:output.obj
 0001:00010b65       ??$is_wide_character_specifier@_W@__crt_stdio_output@@YA_N_K_WW4length_modifier@0@@Z 10011b65 f i libucrt:output.obj
 0001:00010bb3       ??$scratch_data@D@formatting_buffer@__crt_stdio_output@@QAEPADXZ 10011bb3 f i libucrt:output.obj
 0001:00010bd1       ??$type_case_integer_parse_into_buffer@I@?$output_processor@_WV?$string_output_adapter@_W@__crt_stdio_output@@V?$format_validation_base@_WV?$string_output_adapter@_W@__crt_stdio_output@@@2@@__crt_stdio_output@@AAEXII_N@Z 10011bd1 f i libucrt:output.obj
 0001:00010c58       ??$type_case_integer_parse_into_buffer@_K@?$output_processor@_WV?$string_output_adapter@_W@__crt_stdio_output@@V?$format_validation_base@_WV?$string_output_adapter@_W@__crt_stdio_output@@@2@@__crt_stdio_output@@AAEX_KI_N@Z 10011c58 f i libucrt:output.obj
 0001:00010cfa       ??$write_multiple_characters@V?$string_output_adapter@_W@__crt_stdio_output@@D@__crt_stdio_output@@YAXABV?$string_output_adapter@_W@0@DHQAH@Z 10011cfa f i libucrt:output.obj
 0001:00010d2b       ??0?$common_data@_W@__crt_stdio_output@@IAE@XZ 10011d2b f i libucrt:output.obj
 0001:00010d75       ??0?$output_adapter_data@_WV?$string_output_adapter@_W@__crt_stdio_output@@@__crt_stdio_output@@IAE@ABV?$string_output_adapter@_W@1@_KQB_WQAU__crt_locale_pointers@@QAD@Z 10011d75 f i libucrt:output.obj
 0001:00010db1       ??0_LocaleUpdate@@QAE@QAU__crt_locale_pointers@@@Z 10011db1 f i libucrt:output.obj
 0001:00010e34       ??1formatting_buffer@__crt_stdio_output@@QAE@XZ 10011e34 f i libucrt:output.obj
 0001:00010e4e       ??4?$__crt_unique_heap_ptr@DU__crt_internal_free_policy@@@@QAEAAV0@$$QAV0@@Z 10011e4e f i libucrt:output.obj
 0001:00010e80       ?crop_zeroes@__crt_stdio_output@@YAXPADQAU__crt_locale_pointers@@@Z 10011e80 f i libucrt:output.obj
 0001:00010f01       ?find_next_state@?$output_processor@_WV?$string_output_adapter@_W@__crt_stdio_output@@V?$format_validation_base@_WV?$string_output_adapter@_W@__crt_stdio_output@@@2@@__crt_stdio_output@@ABE?AW4state@2@_WW432@@Z 10011f01 f i libucrt:output.obj
 0001:00010f40       ?force_decimal_point@__crt_stdio_output@@YAXPADQAU__crt_locale_pointers@@@Z 10011f40 f i libucrt:output.obj
 0001:00010fa5       ?parse_int_from_format_string@?$output_processor@_WV?$string_output_adapter@_W@__crt_stdio_output@@V?$format_validation_base@_WV?$string_output_adapter@_W@__crt_stdio_output@@@2@@__crt_stdio_output@@AAE_NQAH@Z 10011fa5 f i libucrt:output.obj
 0001:0001101b       ?process@?$output_processor@_WV?$string_output_adapter@_W@__crt_stdio_output@@V?$format_validation_base@_WV?$string_output_adapter@_W@__crt_stdio_output@@@2@@__crt_stdio_output@@QAEHXZ 1001201b f i libucrt:output.obj
 0001:00011143       ?state_case_flag@?$output_processor@_WV?$string_output_adapter@_W@__crt_stdio_output@@V?$format_validation_base@_WV?$string_output_adapter@_W@__crt_stdio_output@@@2@@__crt_stdio_output@@AAE_NXZ 10012143 f i libucrt:output.obj
 0001:00011180       ?state_case_normal@?$output_processor@_WV?$string_output_adapter@_W@__crt_stdio_output@@V?$format_validation_base@_WV?$string_output_adapter@_W@__crt_stdio_output@@@2@@__crt_stdio_output@@AAE_NXZ 10012180 f i libucrt:output.obj
 0001:0001119f       ?state_case_normal_common@?$output_processor@_WV?$string_output_adapter@_W@__crt_stdio_output@@V?$format_validation_base@_WV?$string_output_adapter@_W@__crt_stdio_output@@@2@@__crt_stdio_output@@AAE_NXZ 1001219f f i libucrt:output.obj
 0001:000111ba       ?state_case_precision@?$output_processor@_WV?$string_output_adapter@_W@__crt_stdio_output@@V?$format_validation_base@_WV?$string_output_adapter@_W@__crt_stdio_output@@@2@@__crt_stdio_output@@AAE_NXZ 100121ba f i libucrt:output.obj
 0001:000111e1       ?state_case_size@?$output_processor@_WV?$string_output_adapter@_W@__crt_stdio_output@@V?$format_validation_base@_WV?$string_output_adapter@_W@__crt_stdio_output@@@2@@__crt_stdio_output@@AAE_NXZ 100121e1 f i libucrt:output.obj
 0001:00011359       ?state_case_type@?$output_processor@_WV?$string_output_adapter@_W@__crt_stdio_output@@V?$format_validation_base@_WV?$string_output_adapter@_W@__crt_stdio_output@@@2@@__crt_stdio_output@@AAE_NXZ 10012359 f i libucrt:output.obj
 0001:000115b6       ?state_case_width@?$output_processor@_WV?$string_output_adapter@_W@__crt_stdio_output@@V?$format_validation_base@_WV?$string_output_adapter@_W@__crt_stdio_output@@@2@@__crt_stdio_output@@AAE_NXZ 100125b6 f i libucrt:output.obj
 0001:000115f0       ?to_integer_size@__crt_stdio_output@@YAIW4length_modifier@1@@Z 100125f0 f i libucrt:output.obj
 0001:0001164c       ?type_case_Z@?$output_processor@_WV?$string_output_adapter@_W@__crt_stdio_output@@V?$format_validation_base@_WV?$string_output_adapter@_W@__crt_stdio_output@@@2@@__crt_stdio_output@@AAE_NXZ 1001264c f i libucrt:output.obj
 0001:000116a6       ?type_case_a@?$output_processor@_WV?$string_output_adapter@_W@__crt_stdio_output@@V?$format_validation_base@_WV?$string_output_adapter@_W@__crt_stdio_output@@@2@@__crt_stdio_output@@AAE_NXZ 100126a6 f i libucrt:output.obj
 0001:0001180d       ?type_case_c_tchar@?$output_processor@_WV?$string_output_adapter@_W@__crt_stdio_output@@V?$format_validation_base@_WV?$string_output_adapter@_W@__crt_stdio_output@@@2@@__crt_stdio_output@@AAE_N_W@Z 1001280d f i libucrt:output.obj
 0001:000118a3       ?type_case_integer@?$output_processor@_WV?$string_output_adapter@_W@__crt_stdio_output@@V?$format_validation_base@_WV?$string_output_adapter@_W@__crt_stdio_output@@@2@@__crt_stdio_output@@AAE_NI_N@Z 100128a3 f i libucrt:output.obj
 0001:000119f8       ?type_case_n@?$output_processor@_WV?$string_output_adapter@_W@__crt_stdio_output@@V?$format_validation_base@_WV?$string_output_adapter@_W@__crt_stdio_output@@@2@@__crt_stdio_output@@AAE_NXZ 100129f8 f i libucrt:output.obj
 0001:00011a6c       ?type_case_o@?$output_processor@_WV?$string_output_adapter@_W@__crt_stdio_output@@V?$format_validation_base@_WV?$string_output_adapter@_W@__crt_stdio_output@@@2@@__crt_stdio_output@@AAE_NXZ 10012a6c f i libucrt:output.obj
 0001:00011a8b       ?type_case_p@?$output_processor@_WV?$string_output_adapter@_W@__crt_stdio_output@@V?$format_validation_base@_WV?$string_output_adapter@_W@__crt_stdio_output@@@2@@__crt_stdio_output@@AAE_NXZ 10012a8b f i libucrt:output.obj
 0001:00011aa3       ?type_case_s@?$output_processor@_WV?$string_output_adapter@_W@__crt_stdio_output@@V?$format_validation_base@_WV?$string_output_adapter@_W@__crt_stdio_output@@@2@@__crt_stdio_output@@AAE_NXZ 10012aa3 f i libucrt:output.obj
 0001:00011b16       ?type_case_s_compute_narrow_string_length@?$output_processor@_WV?$string_output_adapter@_W@__crt_stdio_output@@V?$format_validation_base@_WV?$string_output_adapter@_W@__crt_stdio_output@@@2@@__crt_stdio_output@@ABEHH_W@Z 10012b16 f i libucrt:output.obj
 0001:00011b5d       ?validate@?$c_string_character_source@_W@__crt_strtox@@QBE_NXZ 10012b5d f i libucrt:atox.obj
 0001:00011b5d       ?validate@?$string_output_adapter@_W@__crt_stdio_output@@QBE_NXZ 10012b5d f i libucrt:output.obj
 0001:00011b78       ?validate_and_update_state_at_end_of_format_string@?$format_validation_base@_WV?$string_output_adapter@_W@__crt_stdio_output@@@__crt_stdio_output@@IBE_NXZ 10012b78 f i libucrt:output.obj
 0001:00011b9a       ?write_character@?$string_output_adapter@_W@__crt_stdio_output@@QBE_N_WQAH@Z 10012b9a f i libucrt:output.obj
 0001:00011bdf       ?write_stored_string_tchar@?$output_processor@_WV?$string_output_adapter@_W@__crt_stdio_output@@V?$format_validation_base@_WV?$string_output_adapter@_W@__crt_stdio_output@@@2@@__crt_stdio_output@@AAE_N_W@Z 10012bdf f i libucrt:output.obj
 0001:00011c6c       ?write_string@?$string_output_adapter@_W@__crt_stdio_output@@QBEXQB_WHQAHAAV__crt_deferred_errno_cache@@@Z 10012c6c f i libucrt:output.obj
 0001:00011cdd       ___acrt_locale_get_ctype_array_value 10012cdd f i libucrt:output.obj
 0001:00011cff       ___stdio_common_vswprintf_s 10012cff f   libucrt:output.obj
 0001:00011d23       __seh_filter_dll           10012d23 f   libucrt:exception_filter.obj
 0001:00011d43       __seh_filter_exe           10012d43 f   libucrt:exception_filter.obj
 0001:00012111       ___acrt_initialize_thread_local_exit_callback 10013111 f   libucrt:exit.obj
 0001:00012120       __cexit                    10013120 f   libucrt:exit.obj
 0001:0001212f       __exit                     1001312f f   libucrt:exit.obj
 0001:00012145       __is_c_termination_complete 10013145 f   libucrt:exit.obj
 0001:000123f6       ___acrt_allocate_buffer_for_argv 100133f6 f   libucrt:argv_parsing.obj
 0001:00012445       __configure_narrow_argv    10013445 f   libucrt:argv_parsing.obj
 0001:000125a2       ??$uninitialize@A6AXAAPAPAD@Z@?$dual_state_global@PAPAD@__crt_state_management@@QAEXA6AXAAPAPAD@Z@Z 100135a2 f i libucrt:environment_initialization.obj
 0001:000125a2       ??$uninitialize@A6AXAAPAPA_W@Z@?$dual_state_global@PAPA_W@__crt_state_management@@QAEXA6AXAAPAPA_W@Z@Z 100135a2 f i libucrt:environment_initialization.obj
 0001:00012601       ___dcrt_uninitialize_environments_nolock 10013601 f   libucrt:environment_initialization.obj
 0001:00012638       __initialize_narrow_environment 10013638 f   libucrt:environment_initialization.obj
 0001:000126f3       ??$__crt_fast_encode_pointer@P6AHXZ@@YAP6AHXZQ6AHXZ@Z 100136f3 f i libucrt:onexit.obj
 0001:000126f3       ??$__crt_fast_encode_pointer@PAX@@YAPAXQAX@Z 100136f3 f i libucrt:initialization.obj
 0001:000126f3       ??$__crt_fast_encode_pointer@PAP6AXXZ@@YAPAP6AXXZQAP6AXXZ@Z 100136f3 f i libucrt:onexit.obj
 0001:00012915       __crt_atexit               10013915 f   libucrt:onexit.obj
 0001:0001292b       __execute_onexit_table     1001392b f   libucrt:onexit.obj
 0001:00012958       __initialize_onexit_table  10013958 f   libucrt:onexit.obj
 0001:00012981       __register_onexit_function 10013981 f   libucrt:onexit.obj
 0001:000129db       ___acrt_uninitialize_command_line 100139db f   libucrt:argv_data.obj
 0001:00012ab2       ___acrt_initialize         10013ab2 f   libucrt:initialization.obj
 0001:00012ac4       ___acrt_thread_attach      10013ac4 f   libucrt:initialization.obj
 0001:00012acf       ___acrt_thread_detach      10013acf f   libucrt:initialization.obj
 0001:00012ad7       ___acrt_uninitialize       10013ad7 f   libucrt:initialization.obj
 0001:00012b07       ___acrt_uninitialize_critical 10013b07 f   libucrt:initialization.obj
 0001:00012b19       __initterm                 10013b19 f   libucrt:initterm.obj
 0001:00012b5e       __initterm_e               10013b5e f   libucrt:initterm.obj
 0001:00012b8c       ___acrt_initialize_new_handler 10013b8c f   libucrt:new_handler.obj
 0001:00012b9b       __callnewh                 10013b9b f   libucrt:new_handler.obj
 0001:00012bc8       __query_new_handler        10013bc8 f   libucrt:new_handler.obj
 0001:00012c24       _terminate                 10013c24 f   libucrt:terminate.obj
 0001:00012c60       _abort                     10013c60 f   libucrt:abort.obj
 0001:00012ca4       _strcpy_s                  10013ca4 f   libucrt:strcpy_s.obj
 0001:00012cfe       ??$is_overflow_condition@K@__crt_strtox@@YA_NIK@Z 10013cfe f i libucrt:atox.obj
 0001:00012d2f       ??$parse_integer@KV?$c_string_character_source@_W@__crt_strtox@@@__crt_strtox@@YAKQAU__crt_locale_pointers@@V?$c_string_character_source@_W@0@H_N@Z 10013d2f f i libucrt:atox.obj
 0001:00013337       ?unget@?$c_string_character_source@_W@__crt_strtox@@QAEX_W@Z 10014337 f i libucrt:atox.obj
 0001:00013370       _strncmp                   10014370 f   libucrt:strncmp.obj
 0001:000133e8       _wcsncmp                   100143e8 f   libucrt:wcsncmp.obj
 0001:00013422       __free_base                10014422 f   libucrt:free_base.obj
 0001:0001379a       ___acrt_freeptd            1001479a f   libucrt:per_thread_data.obj
 0001:000137c6       ___acrt_getptd             100147c6 f   libucrt:per_thread_data.obj
 0001:00013883       ___acrt_getptd_head        10014883 f   libucrt:per_thread_data.obj
 0001:0001391d       ___acrt_getptd_noexit      1001491d f   libucrt:per_thread_data.obj
 0001:000139d2       ___acrt_initialize_ptd     100149d2 f   libucrt:per_thread_data.obj
 0001:000139fe       ___acrt_uninitialize_ptd   100149fe f   libucrt:per_thread_data.obj
 0001:00013a18       __calloc_base              10014a18 f   libucrt:calloc_base.obj
 0001:00013a75       __malloc_base              10014a75 f   libucrt:malloc_base.obj
 0001:00013ac3       __msize_base               10014ac3 f   libucrt:msize.obj
 0001:00013af6       __realloc_base             10014af6 f   libucrt:realloc_base.obj
 0001:00013cf7       ___acrt_AppPolicyGetProcessTerminationMethodInternal@4 10014cf7 f   libucrt:winapi_thunks.obj
 0001:00013d37       ___acrt_AreFileApisANSI@0  10014d37 f   libucrt:winapi_thunks.obj
 0001:00013d56       ___acrt_FlsAlloc@4         10014d56 f   libucrt:winapi_thunks.obj
 0001:00013d95       ___acrt_FlsFree@4          10014d95 f   libucrt:winapi_thunks.obj
 0001:00013dd4       ___acrt_FlsGetValue@4      10014dd4 f   libucrt:winapi_thunks.obj
 0001:00013e13       ___acrt_FlsSetValue@8      10014e13 f   libucrt:winapi_thunks.obj
 0001:00013e55       ___acrt_InitializeCriticalSectionEx@12 10014e55 f   libucrt:winapi_thunks.obj
 0001:00013ea0       ___acrt_LCMapStringEx@36   10014ea0 f   libucrt:winapi_thunks.obj
 0001:00013efd       ___acrt_LocaleNameToLCID@8 10014efd f   libucrt:winapi_thunks.obj
 0001:00013f2e       ___acrt_SetThreadStackGuarantee@4 10014f2e f   libucrt:winapi_thunks.obj
 0001:00013f69       ___acrt_initialize_winapi_thunks 10014f69 f   libucrt:winapi_thunks.obj
 0001:00013f94       ___acrt_uninitialize_winapi_thunks 10014f94 f   libucrt:winapi_thunks.obj
 0001:00013fca       ??$make_c_string_character_source@_WPAPA_W@__crt_strtox@@YA?AV?$c_string_character_source@_W@0@QB_WQAPA_W@Z 10014fca f i libucrt:strtox.obj
 0001:00013fe5       _wcstol                    10014fe5 f   libucrt:strtox.obj
 0001:0001400f       __mbtowc_l                 1001500f f   libucrt:mbtowc.obj
 0001:00014151       _mbtowc                    10015151 f   libucrt:mbtowc.obj
 0001:0001416b       _wcsnlen                   1001516b f   libucrt:strnlen.obj
 0001:0001431b       ___acrt_update_locale_info 1001531b f   libucrt:locale_update.obj
 0001:00014348       ___acrt_update_multibyte_info 10015348 f   libucrt:locale_update.obj
 0001:00014375       ?__acrt_fp_classify@@YA?AW4__acrt_fp_class@@ABN@Z 10015375 f i libucrt:cvt.obj
 0001:00014d27       ___acrt_fp_format          10015d27 f   libucrt:cvt.obj
 0001:00014e85       __fileno                   10015e85 f   libucrt:fileno.obj
 0001:00014eac       ___acrt_initialize_stdio   10015eac f   libucrt:_file.obj
 0001:00014f74       ___acrt_uninitialize_stdio 10015f74 f   libucrt:_file.obj
 0001:00014fc0       __lock_file                10015fc0 f   libucrt:_file.obj
 0001:00014fd4       __unlock_file              10015fd4 f   libucrt:_file.obj
 0001:00014fe8       __get_printf_count_output  10015fe8 f   libucrt:printf_count_output.obj
 0001:0001506b       ___acrt_set_locale_changed 1001606b f   libucrt:wsetlocale.obj
 0001:00015076       ___acrt_uninitialize_locale 10016076 f   libucrt:wsetlocale.obj
 0001:00015207       ___acrt_initialize_lowio   10016207 f   libucrt:ioinit.obj
 0001:00015267       ___acrt_uninitialize_lowio 10016267 f   libucrt:ioinit.obj
 0001:00015293       ___acrt_initialize_locks   10016293 f   libucrt:locks.obj
 0001:000152d4       ___acrt_lock               100162d4 f   libucrt:locks.obj
 0001:000152eb       ___acrt_uninitialize_locks 100162eb f   libucrt:locks.obj
 0001:0001531c       ___acrt_unlock             1001631c f   libucrt:locks.obj
 0001:00015333       ___acrt_get_process_end_policy 10016333 f   libucrt:win_policies.obj
 0001:000154fd       ??$__acrt_mbs_to_wcs_cp@U__crt_win32_buffer_internal_dynamic_resizing@@@@YAHQBDAAV?$__crt_win32_buffer@_WU__crt_win32_buffer_internal_dynamic_resizing@@@@I@Z 100164fd f i libucrt:argv_wildcards.obj
 0001:00015a11       ?__acrt_get_utf8_acp_compatibility_codepage@@YAIXZ 10016a11 f i libucrt:argv_wildcards.obj
 0001:00015a50       ?_deallocate@?$__crt_win32_buffer@DU__crt_win32_buffer_internal_dynamic_resizing@@@@AAEXXZ 10016a50 f i libucrt:argv_wildcards.obj
 0001:00015a50       ?_deallocate@?$__crt_win32_buffer@_WU__crt_win32_buffer_internal_dynamic_resizing@@@@AAEXXZ 10016a50 f i libucrt:argv_wildcards.obj
 0001:00015a6a       ?allocate@?$__crt_win32_buffer@DU__crt_win32_buffer_internal_dynamic_resizing@@@@QAEHI@Z 10016a6a f i libucrt:argv_wildcards.obj
 0001:00015aa6       ?allocate@?$__crt_win32_buffer@_WU__crt_win32_buffer_internal_dynamic_resizing@@@@QAEHI@Z 10016aa6 f i libucrt:argv_wildcards.obj
 0001:00015ae5       ?allocate@__crt_win32_buffer_internal_dynamic_resizing@@SAHQAPAXIABV__crt_win32_buffer_empty_debug_info@@@Z 10016ae5 f i libucrt:argv_wildcards.obj
 0001:00015b8b       ___acrt_expand_narrow_argv_wildcards 10016b8b f   libucrt:argv_wildcards.obj
 0001:00015c5d       ?allocate@?$__crt_win32_buffer@DU__crt_win32_buffer_no_resizing@@@@QAEHI@Z 10016c5d f i libucrt:getmodulefilenamea.obj
 0001:00015c84       ?set_to_nullptr@?$__crt_win32_buffer@DU__crt_win32_buffer_no_resizing@@@@QAEXXZ 10016c84 f i libucrt:getmodulefilenamea.obj
 0001:00015c98       ___acrt_GetModuleFileNameA 10016c98 f   libucrt:getmodulefilenamea.obj
 0001:00016251       ___acrt_initialize_multibyte 10017251 f   libucrt:mbctype.obj
 0001:00016299       ___acrt_update_thread_multibyte_data 10017299 f   libucrt:mbctype.obj
 0001:000162ac       __setmbcp_nolock           100172ac f   libucrt:mbctype.obj
 0001:00016577       __ismbblead                10017577 f   libucrt:ismbbyte.obj
 0001:0001658f       ___acrt_initialize_command_line 1001758f f   libucrt:argv_data.obj
 0001:000165a8       ___acrt_MultiByteToWideChar 100175a8 f   libucrt:multibytetowidechar.obj
 0001:00016624       ___acrt_WideCharToMultiByte 10017624 f   libucrt:widechartomultibyte.obj
 0001:00016712       ___dcrt_get_narrow_environment_from_os 10017712 f   libucrt:get_environment_from_os.obj
 0001:00016796       ___acrt_initialize_heap    10017796 f   libucrt:heap_handle.obj
 0001:000167a7       ___acrt_uninitialize_heap  100177a7 f   libucrt:heap_handle.obj
 0001:000167b1       ___acrt_execute_initializers 100177b1 f   libucrt:shared_initialization.obj
 0001:00016819       ___acrt_execute_uninitializers 10017819 f   libucrt:shared_initialization.obj
 0001:00016918       ___acrt_get_sigabrt_handler 10017918 f   libucrt:signal.obj
 0001:0001693f       ___acrt_initialize_signal_handlers 1001793f f   libucrt:signal.obj
 0001:0001695d       _raise                     1001795d f   libucrt:signal.obj
 0001:00016b50       ___acrt_has_user_matherr   10017b50 f   libucrt:matherr.obj
 0001:00016b68       ___acrt_initialize_user_matherr 10017b68 f   libucrt:matherr.obj
 0001:00016b77       ___acrt_invoke_user_matherr 10017b77 f   libucrt:matherr.obj
 0001:00016d86       ___acrt_stdio_flush_nolock 10017d86 f   libucrt:fflush.obj
 0001:00016deb       __fflush_nolock            10017deb f   libucrt:fflush.obj
 0001:00016e33       __flushall                 10017e33 f   libucrt:fflush.obj
 0001:00016e3c       ___pctype_func             10017e3c f   libucrt:ctype.obj
 0001:00016e60       _iswctype                  10017e60 f   libucrt:iswctype.obj
 0001:00016ec9       ___acrt_add_locale_ref     10017ec9 f   libucrt:locale_refcounting.obj
 0001:00016f46       ___acrt_free_locale        10017f46 f   libucrt:locale_refcounting.obj
 0001:0001708e       ___acrt_locale_add_lc_time_reference 1001808e f   libucrt:locale_refcounting.obj
 0001:000170b7       ___acrt_locale_free_lc_time_if_unreferenced 100180b7 f   libucrt:locale_refcounting.obj
 0001:000170e8       ___acrt_locale_release_lc_time_reference 100180e8 f   libucrt:locale_refcounting.obj
 0001:00017111       ___acrt_release_locale_ref 10018111 f   libucrt:locale_refcounting.obj
 0001:00017192       ___acrt_update_thread_locale_data 10018192 f   libucrt:locale_refcounting.obj
 0001:00017213       __updatetlocinfoEx_nolock  10018213 f   libucrt:locale_refcounting.obj
 0001:00017263       __query_new_mode           10018263 f   libucrt:new_mode.obj
 0001:000172ba       ___acrt_DownlevelLocaleNameToLCID 100182ba f   libucrt:lcidtoname_downlevel.obj
 0001:000172e6       __isleadbyte_l             100182e6 f i libucrt:_wctype.obj
 0001:0001734c       ?__mbrtowc_utf8@__crt_mbstring@@YAIPA_WPBDIPAU_Mbstatet@@@Z 1001834c f   libucrt:mbrtowc.obj
 0001:0001738c       ?__mbsrtowcs_utf8@__crt_mbstring@@YAIPA_WPAPBDIPAU_Mbstatet@@@Z 1001838c f   libucrt:mbrtowc.obj
 0001:00017487       ?return_illegal_sequence@__crt_mbstring@@YAIPAU_Mbstatet@@@Z 10018487 f i libucrt:c32rtomb.obj
 0001:00017511       ___acrt_fp_strflt_to_string 10018511 f   libucrt:_fptostr.obj
 0001:000175f0       ?divide@__crt_strtox@@YA_KAAUbig_integer@1@ABU21@@Z 100185f0 f i libucrt:cfout.obj
 0001:00017a88       ___acrt_fltout             10018a88 f   libucrt:cfout.obj
 0001:00018f8f       _fegetround                10019f8f f   libucrt:fegetround.obj
 0001:00018f9c       __fcloseall                10019f9c f   libucrt:closeall.obj
 0001:00019047       ___acrt_stdio_free_buffer_nolock 1001a047 f   libucrt:_freebuf.obj
 0001:00019087       __isatty                   1001a087 f   libucrt:isatty.obj
 0001:000190dd       ___acrt_locale_free_monetary 1001a0dd f   libucrt:initmon.obj
 0001:000191db       ___acrt_locale_free_numeric 1001a1db f   libucrt:initnum.obj
 0001:0001927c       ___acrt_locale_free_time   1001a27c f   libucrt:inittime.obj
 0001:00019360       ___acrt_GetStringTypeA     1001a360 f   libucrt:getstringtypea.obj
 0001:00019463       __freea_crt                1001a463 f i libucrt:getstringtypea.obj
 0001:00019483       ___acrt_lowio_create_handle_array 1001a483 f   libucrt:osfinfo.obj
 0001:000194fe       ___acrt_lowio_destroy_handle_array 1001a4fe f   libucrt:osfinfo.obj
 0001:00019533       ___acrt_lowio_ensure_fh_exists 1001a533 f   libucrt:osfinfo.obj
 0001:000195d1       ___acrt_lowio_lock_fh      1001a5d1 f   libucrt:osfinfo.obj
 0001:000195f4       ___acrt_lowio_unlock_fh    1001a5f4 f   libucrt:osfinfo.obj
 0001:00019617       __free_osfhnd              1001a617 f   libucrt:osfinfo.obj
 0001:000196a8       __get_osfhandle            1001a6a8 f   libucrt:osfinfo.obj
 0001:00019720       _qsort                     1001a720 f   libucrt:qsort.obj
 0001:00019cc1       _strncpy_s                 1001acc1 f   libucrt:strncpy_s.obj
 0001:00019cd0       _strpbrk                   1001acd0 f   libucrt:strpbrk.obj
 0001:00019d10       __mbsdec                   1001ad10 f   libucrt:mbsdec.obj
 0001:00019d27       __mbsdec_l                 1001ad27 f   libucrt:mbsdec.obj
 0001:00019f9e       ___acrt_LCMapStringA       1001af9e f   libucrt:lcmapstringa.obj
 0001:0001a098       __commit                   1001b098 f   libucrt:commit.obj
 0001:0001a890       __write                    1001b890 f   libucrt:write.obj
 0001:0001a982       __write_nolock             1001b982 f   libucrt:write.obj
 0001:0001ab5c       ___acrt_GetStringTypeW     1001bb5c f   libucrt:getstringtypew.obj
 0001:0001ab75       ___ascii_wcsnicmp          1001bb75 f   libucrt:wcsnicmp.obj
 0001:0001abc4       ?__mbrtoc32_utf8@__crt_mbstring@@YAIPA_UPBDIPAU_Mbstatet@@@Z 1001bbc4 f   libucrt:mbrtoc32.obj
 0001:0001ad6b       __controlfp_s              1001bd6b f   libucrt:contrlfp.obj
 0001:0001adca       _fegetenv                  1001bdca f   libucrt:fegetenv.obj
 0001:0001ade7       _fesetenv                  1001bde7 f   libucrt:fesetenv.obj
 0001:0001ae32       _feholdexcept              1001be32 f   libucrt:feholdexcept.obj
 0001:0001ae80       __CIlog10                  1001be80 f   libucrt:log10_impl.obj
 0001:0001aebb       __CIlog10_default          1001bebb f   libucrt:log10_impl.obj
 0001:0001aecf       __log10_default            1001becf     libucrt:log10_impl.obj
 0001:0001af90       _ceil                      1001bf90 f   libucrt:ceil_pentium4.obj
 0001:0001afd0       __ceil_pentium4            1001bfd0 f   libucrt:ceil_pentium4.obj
 0001:0001b3ca       ___acrt_fenv_get_common_round_control 1001c3ca f   libucrt:_fenvutils.obj
 0001:0001b3ec       ___acrt_fenv_get_control   1001c3ec f   libucrt:_fenvutils.obj
 0001:0001b46c       ___acrt_fenv_get_status    1001c46c f   libucrt:_fenvutils.obj
 0001:0001b524       ___acrt_fenv_set_control   1001c524 f   libucrt:_fenvutils.obj
 0001:0001b58c       ___acrt_fenv_set_status    1001c58c f   libucrt:_fenvutils.obj
 0001:0001b6ff       __lseeki64_nolock          1001c6ff f   libucrt:lseek.obj
 0001:0001b71a       __fclose_nolock            1001c71a f   libucrt:fclose.obj
 0001:0001b791       _fclose                    1001c791 f   libucrt:fclose.obj
 0001:0001b815       __query_app_type           1001c815 f   libucrt:report_runtime_error.obj
 0001:0001b81b       ___strncnt                 1001c81b f   libucrt:strncnt.obj
 0001:0001b837       __putwch_nolock            1001c837 f   libucrt:putwch.obj
 0001:0001b910       __clearfp                  1001c910 f   libucrt:ieee87.obj
 0001:0001b9ee       __control87                1001c9ee f   libucrt:ieee87.obj
 0001:0001bd8d       ___acrt_initialize_sse2    1001cd8d f   libucrt:mathfcns.obj
 0001:0001bda0       __CIlog10_pentium4         1001cda0 f   libucrt:log10_pentium4.obj
 0001:0001bdb8       __log10_pentium4           1001cdb8     libucrt:log10_pentium4.obj
 0001:0001c050       __fFEXP                    1001d050 f   libucrt:87tran.obj
 0001:0001c0a7       __rtinfpopse               1001d0a7     libucrt:87tran.obj
 0001:0001c0a9       __rtinfnpopse              1001d0a9     libucrt:87tran.obj
 0001:0001c0b9       __fFLN                     1001d0b9     libucrt:87tran.obj
 0001:0001c16e       __rtinfpop                 1001d16e     libucrt:87tran.obj
 0001:0001c170       __rtinfnpop                1001d170     libucrt:87tran.obj
 0001:0001c180       __rtforexpinf              1001d180 f   libucrt:87tran.obj
 0001:0001c18d       __ffexpm1                  1001d18d     libucrt:87tran.obj
 0001:0001c240       __trandisp1                1001d240 f   libucrt:87disp.obj
 0001:0001c2b5       __trandisp2                1001d2b5 f   libucrt:87disp.obj
 0001:0001c34f       __rttospopde               1001d34f     libucrt:87disp.obj
 0001:0001c354       __rttospop                 1001d354     libucrt:87disp.obj
 0001:0001c360       __rtnospop                 1001d360 f   libucrt:87disp.obj
 0001:0001c370       __rttosnpop                1001d370 f   libucrt:87disp.obj
 0001:0001c371       __rtnospopde               1001d371     libucrt:87disp.obj
 0001:0001c378       __rtzeropop                1001d378     libucrt:87disp.obj
 0001:0001c37a       __rtzeronpop               1001d37a     libucrt:87disp.obj
 0001:0001c380       __rtzerospop               1001d380 f   libucrt:87disp.obj
 0001:0001c38d       __rtonepop                 1001d38d     libucrt:87disp.obj
 0001:0001c390       __rtonenpop                1001d390 f   libucrt:87disp.obj
 0001:0001c3a0       __tosnan1                  1001d3a0 f   libucrt:87disp.obj
 0001:0001c3d0       __nosnan2                  1001d3d0 f   libucrt:87disp.obj
 0001:0001c3e0       __tosnan2                  1001d3e0 f   libucrt:87disp.obj
 0001:0001c410       __nan2                     1001d410 f   libucrt:87disp.obj
 0001:0001c450       __rtindfpop                1001d450 f   libucrt:87disp.obj
 0001:0001c452       __rtindfnpop               1001d452     libucrt:87disp.obj
 0001:0001c463       __rttosnpopde              1001d463     libucrt:87disp.obj
 0001:0001c470       __rtatan2inf               1001d470 f   libucrt:87disp.obj
 0001:0001c48d       __rtchsifneg               1001d48d     libucrt:87disp.obj
 0001:0001c4a0       __twoToTOS                 1001d4a0 f   libucrt:common.obj
 0001:0001c4b5       __load_CW                  1001d4b5 f   libucrt:common.obj
 0001:0001c4cc       __convertTOStoQNaN         1001d4cc f   libucrt:common.obj
 0001:0001c4e5       __fload_withFB             1001d4e5 f   libucrt:common.obj
 0001:0001c528       __checkTOS_withFB          1001d528 f   libucrt:common.obj
 0001:0001c53e       __fast_exit                1001d53e f   libucrt:common.obj
 0001:0001c54b       __math_exit                1001d54b f   libucrt:common.obj
 0001:0001c575       __check_overflow_exit      1001d575 f   libucrt:common.obj
 0001:0001c589       __check_range_exit         1001d589 f   libucrt:common.obj
 0001:0001c630       __startTwoArgErrorHandling 1001d630 f   libucrt:genexcep.obj
 0001:0001c647       __startOneArgErrorHandling 1001d647 f   libucrt:genexcep.obj
 0001:0001c683       ___libm_error_support      1001d683 f   libucrt:libm_error.obj
 0001:0001c877       __ceil_default             1001d877 f   libucrt:ceil.obj
 0001:0001c9b8       __close                    1001d9b8 f   libucrt:close.obj
 0001:0001ca45       __close_nolock             1001da45 f   libucrt:close.obj
 0001:0001cae1       ?__acrt_stdio_free_stream@@YAXV__crt_stdio_stream@@@Z 1001dae1 f   libucrt:stream.obj
 0001:0001cb20       ___ascii_strnicmp          1001db20 f   libucrt:_strnicm.obj
 0001:0001cba0       ___dcrt_lowio_ensure_console_output_initialized 1001dba0 f   libucrt:initcon.obj
 0001:0001cbbf       ___dcrt_terminate_console_output 1001dbbf f   libucrt:initcon.obj
 0001:0001cbd6       ___dcrt_write_console      1001dbd6 f   libucrt:initcon.obj
 0001:0001cc2b       ___set_fpsr_sse2           1001dc2b f   libucrt:fpctrl.obj
 0001:0001ccab       __clrfp                    1001dcab f   libucrt:fpctrl.obj
 0001:0001ccbc       __ctrlfp                   1001dcbc f   libucrt:fpctrl.obj
 0001:0001cce6       __set_statfp               1001dce6 f   libucrt:fpctrl.obj
 0001:0001cd3f       __statfp                   1001dd3f f   libucrt:fpctrl.obj
 0001:0001cd4f       __d_inttype                1001dd4f f   libucrt:powhlp.obj
 0001:0001cdb7       __powhlp                   1001ddb7 f   libucrt:powhlp.obj
 0001:0001cee2       __87except                 1001dee2 f   libucrt:87except.obj
 0001:0001cfec       __frnd                     1001dfec f   libucrt:frnd.obj
 0001:0001d000       __errcode                  1001e000 f   libucrt:fpexcept.obj
 0001:0001d034       __except1                  1001e034 f   libucrt:fpexcept.obj
 0001:0001d102       __handle_exc               1001e102 f   libucrt:fpexcept.obj
 0001:0001d2ed       __raise_exc                1001e2ed f   libucrt:fpexcept.obj
 0001:0001d310       __raise_exc_ex             1001e310 f   libucrt:fpexcept.obj
 0001:0001d606       __set_errno_from_matherr   1001e606 f   libucrt:fpexcept.obj
 0001:0001d635       __umatherr                 1001e635 f   libucrt:fpexcept.obj
 0001:0001d6d5       __decomp                   1001e6d5 f   libucrt:util.obj
 0001:0001d7a7       __set_exp                  1001e7a7 f   libucrt:util.obj
 0001:0001d7d4       __sptype                   1001e7d4 f   libucrt:util.obj
 0001:0001d832       __fpclass                  1001e832 f   libucrt:ieeemisc.obj
 0001:0001d8d6       _IsProcessorFeaturePresent@4 1001e8d6 f   kernel32:KERNEL32.dll
 0001:0001d8e0       __FindPESection            1001e8e0 f   LIBCMT:pesect.obj
 0001:0001d930       __IsNonwritableInCurrentImage 1001e930 f   LIBCMT:pesect.obj
 0001:0001d9f0       __ValidateImageBase        1001e9f0 f   LIBCMT:pesect.obj
 0001:0001da23       __EH_prolog3_catch         1001ea23 f   LIBCMT:ehprolg3.obj
 0001:0001da60       __aulldvrm                 1001ea60 f   LIBCMT:ulldvrm.obj
 0001:0001db00       __allmul                   1001eb00 f   LIBCMT:llmul.obj
 0001:0001db40       __alldvrm                  1001eb40 f   LIBCMT:lldvrm.obj
 0001:0001dc20       __allshl                   1001ec20 f   LIBCMT:llshl.obj
 0001:0001dc40       __aullshr                  1001ec40 f   LIBCMT:ullshr.obj
 0001:0001dc60       __ftol2_sse                1001ec60     LIBCMT:ftol2.obj
 0001:0001dc60       __ftol2_sse_excpt          1001ec60     LIBCMT:ftol2.obj
 0001:0001dc60       __ftoi2                    1001ec60 f   LIBCMT:ftol2.obj
 0001:0001dce0       __ftoui2                   1001ece0 f   LIBCMT:ftol2.obj
 0001:0001dd90       __ftol2                    1001ed90 f   LIBCMT:ftol2.obj
 0001:0001de40       __ftoul2                   1001ee40 f   LIBCMT:ftol2.obj
 0001:0001df00       _strrchr                   1001ef00 f   libvcruntime:strrchr.obj
 0001:0001e040       _strchr                    1001f040 f   libvcruntime:strchr.obj
 0001:0001e0ae       ___from_strstr_to_strchr   1001f0ae     libvcruntime:strchr.obj
 0001:0001e16b       __filter_x86_sse2_floating_point_exception 1001f16b f   LIBCMT:x86_exception_filter.obj
 0001:0001e16b       __filter_x86_sse2_floating_point_exception_default 1001f16b f   LIBCMT:x86_exception_filter.obj
 0002:00000000       __imp__RegQueryValueExW@24 10020000     advapi32:ADVAPI32.dll
 0002:00000004       __imp__RegSetValueExW@24   10020004     advapi32:ADVAPI32.dll
 0002:00000008       __imp__RegQueryInfoKeyW@48 10020008     advapi32:ADVAPI32.dll
 0002:0000000c       __imp__RegOpenKeyExW@20    1002000c     advapi32:ADVAPI32.dll
 0002:00000010       __imp__RegEnumKeyExW@32    10020010     advapi32:ADVAPI32.dll
 0002:00000014       __imp__RegDeleteValueW@8   10020014     advapi32:ADVAPI32.dll
 0002:00000018       __imp__RegDeleteKeyW@8     10020018     advapi32:ADVAPI32.dll
 0002:0000001c       __imp__RegCreateKeyExW@36  1002001c     advapi32:ADVAPI32.dll
 0002:00000020       __imp__RegCloseKey@4       10020020     advapi32:ADVAPI32.dll
 0002:00000024       \177ADVAPI32_NULL_THUNK_DATA 10020024     advapi32:ADVAPI32.dll
 0002:00000028       __imp__GetObjectW@12       10020028     gdi32:GDI32.dll
 0002:0000002c       __imp__SelectObject@8      1002002c     gdi32:GDI32.dll
 0002:00000030       __imp__DeleteObject@4      10020030     gdi32:GDI32.dll
 0002:00000034       __imp__CreateCompatibleDC@4 10020034     gdi32:GDI32.dll
 0002:00000038       __imp__BitBlt@36           10020038     gdi32:GDI32.dll
 0002:0000003c       __imp__SetWindowOrgEx@16   1002003c     gdi32:GDI32.dll
 0002:00000040       __imp__SetWindowExtEx@16   10020040     gdi32:GDI32.dll
 0002:00000044       __imp__SetViewportOrgEx@16 10020044     gdi32:GDI32.dll
 0002:00000048       __imp__LPtoDP@12           10020048     gdi32:GDI32.dll
 0002:0000004c       __imp__SetMapMode@8        1002004c     gdi32:GDI32.dll
 0002:00000050       __imp__SaveDC@4            10020050     gdi32:GDI32.dll
 0002:00000054       __imp__RestoreDC@8         10020054     gdi32:GDI32.dll
 0002:00000058       __imp__GetDeviceCaps@8     10020058     gdi32:GDI32.dll
 0002:0000005c       __imp__DeleteMetaFile@4    1002005c     gdi32:GDI32.dll
 0002:00000060       __imp__DeleteDC@4          10020060     gdi32:GDI32.dll
 0002:00000064       __imp__CreateRectRgnIndirect@4 10020064     gdi32:GDI32.dll
 0002:00000068       __imp__CreateMetaFileW@4   10020068     gdi32:GDI32.dll
 0002:0000006c       __imp__CreateDCW@16        1002006c     gdi32:GDI32.dll
 0002:00000070       __imp__CloseMetaFile@4     10020070     gdi32:GDI32.dll
 0002:00000074       \177GDI32_NULL_THUNK_DATA  10020074     gdi32:GDI32.dll
 0002:00000078       __imp__CloseHandle@4       10020078     kernel32:KERNEL32.dll
 0002:0000007c       __imp__SetEvent@4          1002007c     kernel32:KERNEL32.dll
 0002:00000080       __imp__CreateMutexW@12     10020080     kernel32:KERNEL32.dll
 0002:00000084       __imp__CreateEventW@16     10020084     kernel32:KERNEL32.dll
 0002:00000088       __imp__GetCurrentProcessId@0 10020088     kernel32:KERNEL32.dll
 0002:0000008c       __imp__CreateFileW@28      1002008c     kernel32:KERNEL32.dll
 0002:00000090       __imp__GetConsoleMode@8    10020090     kernel32:KERNEL32.dll
 0002:00000094       __imp__GetConsoleOutputCP@0 10020094     kernel32:KERNEL32.dll
 0002:00000098       __imp__WriteFile@20        10020098     kernel32:KERNEL32.dll
 0002:0000009c       __imp__FlushFileBuffers@4  1002009c     kernel32:KERNEL32.dll
 0002:000000a0       __imp__SetStdHandle@8      100200a0     kernel32:KERNEL32.dll
 0002:000000a4       __imp__GetStringTypeW@16   100200a4     kernel32:KERNEL32.dll
 0002:000000a8       __imp__SetFilePointerEx@20 100200a8     kernel32:KERNEL32.dll
 0002:000000ac       __imp__FreeEnvironmentStringsW@4 100200ac     kernel32:KERNEL32.dll
 0002:000000b0       __imp__GetEnvironmentStringsW@0 100200b0     kernel32:KERNEL32.dll
 0002:000000b4       __imp__lstrcmpiW@8         100200b4     kernel32:KERNEL32.dll
 0002:000000b8       __imp__GetCommandLineA@0   100200b8     kernel32:KERNEL32.dll
 0002:000000bc       __imp__GetCPInfo@8         100200bc     kernel32:KERNEL32.dll
 0002:000000c0       __imp__GetOEMCP@0          100200c0     kernel32:KERNEL32.dll
 0002:000000c4       __imp__GetACP@0            100200c4     kernel32:KERNEL32.dll
 0002:000000c8       __imp__IsValidCodePage@4   100200c8     kernel32:KERNEL32.dll
 0002:000000cc       __imp__FindNextFileW@8     100200cc     kernel32:KERNEL32.dll
 0002:000000d0       __imp__FindFirstFileExW@24 100200d0     kernel32:KERNEL32.dll
 0002:000000d4       __imp__FindClose@4         100200d4     kernel32:KERNEL32.dll
 0002:000000d8       __imp__GetFileType@4       100200d8     kernel32:KERNEL32.dll
 0002:000000dc       __imp__GetStdHandle@4      100200dc     kernel32:KERNEL32.dll
 0002:000000e0       __imp__LCMapStringW@24     100200e0     kernel32:KERNEL32.dll
 0002:000000e4       __imp__HeapReAlloc@16      100200e4     kernel32:KERNEL32.dll
 0002:000000e8       __imp__HeapSize@12         100200e8     kernel32:KERNEL32.dll
 0002:000000ec       __imp__MulDiv@12           100200ec     kernel32:KERNEL32.dll
 0002:000000f0       __imp__GlobalLock@4        100200f0     kernel32:KERNEL32.dll
 0002:000000f4       __imp__GlobalUnlock@4      100200f4     kernel32:KERNEL32.dll
 0002:000000f8       __imp__GlobalAlloc@8       100200f8     kernel32:KERNEL32.dll
 0002:000000fc       __imp__FindResourceW@12    100200fc     kernel32:KERNEL32.dll
 0002:00000100       __imp__SizeofResource@8    10020100     kernel32:KERNEL32.dll
 0002:00000104       __imp__LoadResource@8      10020104     kernel32:KERNEL32.dll
 0002:00000108       __imp__LoadLibraryExW@12   10020108     kernel32:KERNEL32.dll
 0002:0000010c       __imp__GetProcAddress@8    1002010c     kernel32:KERNEL32.dll
 0002:00000110       __imp__GetModuleHandleW@4  10020110     kernel32:KERNEL32.dll
 0002:00000114       __imp__GetModuleFileNameW@12 10020114     kernel32:KERNEL32.dll
 0002:00000118       __imp__FreeLibrary@4       10020118     kernel32:KERNEL32.dll
 0002:0000011c       __imp__DisableThreadLibraryCalls@4 1002011c     kernel32:KERNEL32.dll
 0002:00000120       __imp__GetCurrentThreadId@0 10020120     kernel32:KERNEL32.dll
 0002:00000124       __imp__Sleep@4             10020124     kernel32:KERNEL32.dll
 0002:00000128       __imp__WaitForSingleObject@8 10020128     kernel32:KERNEL32.dll
 0002:0000012c       __imp__ReleaseMutex@4      1002012c     kernel32:KERNEL32.dll
 0002:00000130       __imp__ResetEvent@4        10020130     kernel32:KERNEL32.dll
 0002:00000134       __imp__EnterCriticalSection@4 10020134     kernel32:KERNEL32.dll
 0002:00000138       __imp__LeaveCriticalSection@4 10020138     kernel32:KERNEL32.dll
 0002:0000013c       __imp__SetLastError@4      1002013c     kernel32:KERNEL32.dll
 0002:00000140       __imp__EncodePointer@4     10020140     kernel32:KERNEL32.dll
 0002:00000144       __imp__DeleteCriticalSection@4 10020144     kernel32:KERNEL32.dll
 0002:00000148       __imp__InitializeCriticalSectionEx@12 10020148     kernel32:KERNEL32.dll
 0002:0000014c       __imp__GetLastError@0      1002014c     kernel32:KERNEL32.dll
 0002:00000150       __imp__RaiseException@16   10020150     kernel32:KERNEL32.dll
 0002:00000154       __imp__DecodePointer@4     10020154     kernel32:KERNEL32.dll
 0002:00000158       __imp__WideCharToMultiByte@32 10020158     kernel32:KERNEL32.dll
 0002:0000015c       __imp__GetCommandLineW@0   1002015c     kernel32:KERNEL32.dll
 0002:00000160       __imp__MultiByteToWideChar@24 10020160     kernel32:KERNEL32.dll
 0002:00000164       __imp__WriteConsoleW@20    10020164     kernel32:KERNEL32.dll
 0002:00000168       __imp__GetModuleHandleExW@12 10020168     kernel32:KERNEL32.dll
 0002:0000016c       __imp__ExitProcess@4       1002016c     kernel32:KERNEL32.dll
 0002:00000170       __imp__VirtualQuery@12     10020170     kernel32:KERNEL32.dll
 0002:00000174       __imp__VirtualProtect@16   10020174     kernel32:KERNEL32.dll
 0002:00000178       __imp__GetSystemInfo@4     10020178     kernel32:KERNEL32.dll
 0002:0000017c       __imp__TlsFree@4           1002017c     kernel32:KERNEL32.dll
 0002:00000180       __imp__TlsSetValue@8       10020180     kernel32:KERNEL32.dll
 0002:00000184       __imp__TlsGetValue@4       10020184     kernel32:KERNEL32.dll
 0002:00000188       __imp__TlsAlloc@0          10020188     kernel32:KERNEL32.dll
 0002:0000018c       __imp__InterlockedFlushSList@4 1002018c     kernel32:KERNEL32.dll
 0002:00000190       __imp__RtlUnwind@16        10020190     kernel32:KERNEL32.dll
 0002:00000194       __imp__LoadLibraryExA@12   10020194     kernel32:KERNEL32.dll
 0002:00000198       __imp__VirtualFree@12      10020198     kernel32:KERNEL32.dll
 0002:0000019c       __imp__VirtualAlloc@16     1002019c     kernel32:KERNEL32.dll
 0002:000001a0       __imp__FlushInstructionCache@12 100201a0     kernel32:KERNEL32.dll
 0002:000001a4       __imp__InterlockedPushEntrySList@8 100201a4     kernel32:KERNEL32.dll
 0002:000001a8       __imp__InterlockedPopEntrySList@4 100201a8     kernel32:KERNEL32.dll
 0002:000001ac       __imp__GetProcessHeap@0    100201ac     kernel32:KERNEL32.dll
 0002:000001b0       __imp__HeapFree@12         100201b0     kernel32:KERNEL32.dll
 0002:000001b4       __imp__HeapAlloc@12        100201b4     kernel32:KERNEL32.dll
 0002:000001b8       __imp__OutputDebugStringW@4 100201b8     kernel32:KERNEL32.dll
 0002:000001bc       __imp__InitializeSListHead@4 100201bc     kernel32:KERNEL32.dll
 0002:000001c0       __imp__GetSystemTimeAsFileTime@4 100201c0     kernel32:KERNEL32.dll
 0002:000001c4       __imp__QueryPerformanceCounter@4 100201c4     kernel32:KERNEL32.dll
 0002:000001c8       __imp__GetStartupInfoW@4   100201c8     kernel32:KERNEL32.dll
 0002:000001cc       __imp__IsDebuggerPresent@0 100201cc     kernel32:KERNEL32.dll
 0002:000001d0       __imp__IsProcessorFeaturePresent@4 100201d0     kernel32:KERNEL32.dll
 0002:000001d4       __imp__TerminateProcess@8  100201d4     kernel32:KERNEL32.dll
 0002:000001d8       __imp__GetCurrentProcess@0 100201d8     kernel32:KERNEL32.dll
 0002:000001dc       __imp__SetUnhandledExceptionFilter@4 100201dc     kernel32:KERNEL32.dll
 0002:000001e0       __imp__UnhandledExceptionFilter@4 100201e0     kernel32:KERNEL32.dll
 0002:000001e4       __imp__InitializeCriticalSectionAndSpinCount@8 100201e4     kernel32:KERNEL32.dll
 0002:000001e8       __imp__WaitForSingleObjectEx@12 100201e8     kernel32:KERNEL32.dll
 0002:000001ec       \177KERNEL32_NULL_THUNK_DATA 100201ec     kernel32:KERNEL32.dll
 0002:000001f0       __imp__OleCreatePropertyFrame@44 100201f0     oleaut32:OLEAUT32.dll
 0002:000001f4       __imp__UnRegisterTypeLib@20 100201f4     oleaut32:OLEAUT32.dll
 0002:000001f8       __imp__RegisterTypeLib@12  100201f8     oleaut32:OLEAUT32.dll
 0002:000001fc       __imp__LoadRegTypeLib@20   100201fc     oleaut32:OLEAUT32.dll
 0002:00000200       __imp__LoadTypeLib@8       10020200     oleaut32:OLEAUT32.dll
 0002:00000204       __imp__VarUI4FromStr@16    10020204     oleaut32:OLEAUT32.dll
 0002:00000208       __imp__VariantInit@4       10020208     oleaut32:OLEAUT32.dll
 0002:0000020c       __imp__SysAllocStringByteLen@8 1002020c     oleaut32:OLEAUT32.dll
 0002:00000210       __imp__SysStringByteLen@4  10020210     oleaut32:OLEAUT32.dll
 0002:00000214       __imp__VariantChangeType@16 10020214     oleaut32:OLEAUT32.dll
 0002:00000218       __imp__VariantClear@4      10020218     oleaut32:OLEAUT32.dll
 0002:0000021c       __imp__SysStringLen@4      1002021c     oleaut32:OLEAUT32.dll
 0002:00000220       __imp__SysFreeString@4     10020220     oleaut32:OLEAUT32.dll
 0002:00000224       __imp__SysAllocStringLen@8 10020224     oleaut32:OLEAUT32.dll
 0002:00000228       __imp__SysAllocString@4    10020228     oleaut32:OLEAUT32.dll
 0002:0000022c       \177OLEAUT32_NULL_THUNK_DATA 1002022c     oleaut32:OLEAUT32.dll
 0002:00000230       __imp__UnregisterClassW@8  10020230     user32:USER32.dll
 0002:00000234       __imp__PostMessageW@16     10020234     user32:USER32.dll
 0002:00000238       __imp__DefWindowProcW@16   10020238     user32:USER32.dll
 0002:0000023c       __imp__CallWindowProcW@20  1002023c     user32:USER32.dll
 0002:00000240       __imp__RegisterClassExW@4  10020240     user32:USER32.dll
 0002:00000244       __imp__GetClassInfoExW@12  10020244     user32:USER32.dll
 0002:00000248       __imp__CreateWindowExW@48  10020248     user32:USER32.dll
 0002:0000024c       __imp__IsWindow@4          1002024c     user32:USER32.dll
 0002:00000250       __imp__IsChild@8           10020250     user32:USER32.dll
 0002:00000254       __imp__DestroyWindow@4     10020254     user32:USER32.dll
 0002:00000258       __imp__ShowWindow@8        10020258     user32:USER32.dll
 0002:0000025c       __imp__SetWindowPos@28     1002025c     user32:USER32.dll
 0002:00000260       __imp__CharNextW@4         10020260     user32:USER32.dll
 0002:00000264       __imp__SetFocus@4          10020264     user32:USER32.dll
 0002:00000268       __imp__LoadBitmapW@8       10020268     user32:USER32.dll
 0002:0000026c       __imp__RegisterClassW@4    1002026c     user32:USER32.dll
 0002:00000270       __imp__PeekMessageW@20     10020270     user32:USER32.dll
 0002:00000274       __imp__LoadCursorW@8       10020274     user32:USER32.dll
 0002:00000278       __imp__GetParent@4         10020278     user32:USER32.dll
 0002:0000027c       __imp__SetWindowLongW@12   1002027c     user32:USER32.dll
 0002:00000280       __imp__GetWindowLongW@8    10020280     user32:USER32.dll
 0002:00000284       __imp__PtInRect@12         10020284     user32:USER32.dll
 0002:00000288       __imp__EqualRect@8         10020288     user32:USER32.dll
 0002:0000028c       __imp__OffsetRect@12       1002028c     user32:USER32.dll
 0002:00000290       __imp__UnionRect@12        10020290     user32:USER32.dll
 0002:00000294       __imp__IntersectRect@12    10020294     user32:USER32.dll
 0002:00000298       __imp__GetClientRect@8     10020298     user32:USER32.dll
 0002:0000029c       __imp__InvalidateRect@12   1002029c     user32:USER32.dll
 0002:000002a0       __imp__SetWindowRgn@12     100202a0     user32:USER32.dll
 0002:000002a4       __imp__EndPaint@8          100202a4     user32:USER32.dll
 0002:000002a8       __imp__BeginPaint@8        100202a8     user32:USER32.dll
 0002:000002ac       __imp__ReleaseDC@8         100202ac     user32:USER32.dll
 0002:000002b0       __imp__GetDC@4             100202b0     user32:USER32.dll
 0002:000002b4       __imp__GetKeyState@4       100202b4     user32:USER32.dll
 0002:000002b8       __imp__GetFocus@0          100202b8     user32:USER32.dll
 0002:000002bc       \177USER32_NULL_THUNK_DATA 100202bc     user32:USER32.dll
 0002:000002c0       __imp__StringFromGUID2@12  100202c0     ole32:ole32.dll
 0002:000002c4       __imp__CoTaskMemAlloc@4    100202c4     ole32:ole32.dll
 0002:000002c8       __imp__CoTaskMemRealloc@8  100202c8     ole32:ole32.dll
 0002:000002cc       __imp__CoTaskMemFree@4     100202cc     ole32:ole32.dll
 0002:000002d0       __imp__ReadClassStm@8      100202d0     ole32:ole32.dll
 0002:000002d4       __imp__WriteClassStm@8     100202d4     ole32:ole32.dll
 0002:000002d8       __imp__CreateDataAdviseHolder@4 100202d8     ole32:ole32.dll
 0002:000002dc       __imp__OleSaveToStream@8   100202dc     ole32:ole32.dll
 0002:000002e0       __imp__CreateOleAdviseHolder@4 100202e0     ole32:ole32.dll
 0002:000002e4       __imp__OleRegGetUserType@12 100202e4     ole32:ole32.dll
 0002:000002e8       __imp__OleRegGetMiscStatus@12 100202e8     ole32:ole32.dll
 0002:000002ec       __imp__OleRegEnumVerbs@8   100202ec     ole32:ole32.dll
 0002:000002f0       __imp__CLSIDFromProgID@8   100202f0     ole32:ole32.dll
 0002:000002f4       __imp__CoCreateInstance@20 100202f4     ole32:ole32.dll
 0002:000002f8       \177ole32_NULL_THUNK_DATA  100202f8     ole32:ole32.dll
 0002:000002fc       ___guard_check_icall_fptr  100202fc     LIBCMT:guard_support.obj
 0002:00000300       ___xc_a                    10020300     LIBCMT:initializers.obj
 0002:00000318       ___xc_z                    10020318     LIBCMT:initializers.obj
 0002:0000031c       ___xi_a                    1002031c     LIBCMT:initializers.obj
 0002:00000324       ___acrt_stdio_initializer  10020324     libucrt:stdio_initializer.obj
 0002:00000328       ___acrt_multibyte_initializer 10020328     libucrt:multibyte_initializer.obj
 0002:0000032c       ___acrt_tran_sse2_initializer 1002032c     libucrt:sse2_initializer.obj
 0002:00000330       ___xi_z                    10020330     LIBCMT:initializers.obj
 0002:00000334       ___xl_a                    10020334     LIBCMT:tlssup.obj
 0002:00000338       ___xl_z                    10020338     LIBCMT:tlssup.obj
 0002:0000033c       ___xp_a                    1002033c     LIBCMT:initializers.obj
 0002:00000340       ___acrt_locale_terminator  10020340     libucrt:locale_initializer.obj
 0002:00000344       ___dcrt_console_output_terminator 10020344     libucrt:console_output_initializer.obj
 0002:00000348       ___acrt_stdio_terminator   10020348     libucrt:stdio_initializer.obj
 0002:0000034c       ___xp_z                    1002034c     LIBCMT:initializers.obj
 0002:00000350       ___xt_a                    10020350     LIBCMT:initializers.obj
 0002:00000354       ___xt_z                    10020354     LIBCMT:initializers.obj
 0002:00000360       ??_C@_13HADIAKP@?$AAS@     10020360     OposVariant.obj
 0002:00000364       ??_C@_13LHMFKAAD@?$AAM@    10020364     OposVariant.obj
 0002:00000368       ??_C@_13MKMNOPIJ@?$AAD@    10020368     OposVariant.obj
 0002:0000036c       ??_C@_13OPKGLAFF@?$AAB@    1002036c     OposVariant.obj
 0002:00000370       ??_C@_17LLMMEOJD@?$AAV?$AAa?$AAl@ 10020370     OposVariant.obj
 0002:00000378       ??_C@_1BI@JFAIJMHL@?$AAF?$AAo?$AAr?$AAc?$AAe?$AAR?$AAe?$AAm?$AAo?$AAv?$AAe@ 10020378     OposVariant.obj
 0002:00000390       ??_C@_1BC@GCKHIPE@?$AAN?$AAo?$AAR?$AAe?$AAm?$AAo?$AAv?$AAe@ 10020390     OposVariant.obj
 0002:000003a4       ??_C@_1O@JDLOHAN@?$AAD?$AAe?$AAl?$AAe?$AAt?$AAe@ 100203a4     OposVariant.obj
 0002:000003b4       ??_C@_11LOCGONAA@@         100203b4     OposVariant.obj
 0002:000003b8       ??_7CComClassFactory@ATL@@6B@ 100203b8     SoundPlayer.obj
 0002:000003d0       ?_entries@?1??_GetEntries@CComClassFactory@ATL@@SGPBU_ATL_INTMAP_ENTRY@3@XZ@4QBU43@B 100203d0     SoundPlayer.obj
 0002:000003e8       __GUID_00000001_0000_0000_c000_000000000046 100203e8     SoundPlayer.obj
 0002:000003f8       _IID_IOPOSSoundPlayer_1_16 100203f8     SoundPlayer.obj
 0002:00000408       _IID_IOPOSSoundPlayer      10020408     SoundPlayer.obj
 0002:00000418       _LIBID_OposSoundPlayer_CCO 10020418     SoundPlayer.obj
 0002:00000428       _DIID__IOPOSSoundPlayerEvents 10020428     SoundPlayer.obj
 0002:00000438       _CLSID_OPOSSoundPlayer     10020438     SoundPlayer.obj
 0002:00000448       ??_C@_1BK@BIGILECK@?$AAA?$AAd?$AAv?$AAa?$AAp?$AAi?$AA3?$AA2?$AA?4?$AAd?$AAl?$AAl@ 10020448     SoundPlayer.obj
 0002:00000464       __GUID_00000114_0000_0000_c000_000000000046 10020464     SoundPlayer.obj
 0002:00000474       ??_C@_0BI@MNCFCPFK@RegCreateKeyTransactedW@ 10020474     SoundPlayer.obj
 0002:0000048c       __GUID_b196b287_bab4_101a_b69c_00aa00341d07 1002048c     SoundPlayer.obj
 0002:0000049c       __GUID_b196b285_bab4_101a_b69c_00aa00341d07 1002049c     SoundPlayer.obj
 0002:000004ac       __GUID_a6bc3ac0_dbaa_11ce_9de3_00aa004bb851 100204ac     SoundPlayer.obj
 0002:000004bc       __GUID_0000010c_0000_0000_c000_000000000046 100204bc     SoundPlayer.obj
 0002:000004cc       __GUID_00000146_0000_0000_c000_000000000046 100204cc     SoundPlayer.obj
 0002:000004e0       ?_entries@?1??_GetEntries@COPOSSoundPlayer@@SGPBU_ATL_INTMAP_ENTRY@ATL@@XZ@4QBU34@B 100204e0     SoundPlayer.obj
 0002:00000600       __GUID_cf51ed10_62fe_11cf_bf86_00a0c9034836 10020600     SoundPlayer.obj
 0002:00000610       __GUID_0000010a_0000_0000_c000_000000000046 10020610     SoundPlayer.obj
 0002:00000620       __GUID_b196b283_bab4_101a_b69c_00aa00341d07 10020620     SoundPlayer.obj
 0002:00000630       __GUID_cb5bdc81_93c1_11cf_8f20_00805f2cd064 10020630     SoundPlayer.obj
 0002:00000640       ?pPropMap@?1??GetPropertyMap@COPOSSoundPlayer@@SAPBUATL_PROPMAP_ENTRY@ATL@@XZ@4QBU34@B 10020640     SoundPlayer.obj
 0002:000006ac       ??_C@_17DGDADEHL@?$AA_?$AAc?$AAx@ 100206ac     SoundPlayer.obj
 0002:000006b4       ??_C@_17IOIMFDBO@?$AA_?$AAc?$AAy@ 100206b4     SoundPlayer.obj
 0002:000006bc       ??_7CComModule@ATL@@6B@    100206bc     SoundPlayer.obj
 0002:000006e4       __GUID_922eada0_3424_11cf_b670_00aa004cd6d8 100206e4     SoundPlayer.obj
 0002:000006f4       __GUID_9c2cad80_3424_11cf_b670_00aa004cd6d8 100206f4     SoundPlayer.obj
 0002:00000704       __GUID_00000119_0000_0000_c000_000000000046 10020704     SoundPlayer.obj
 0002:00000714       ??_7?$CComObjectCached@VCComClassFactory@ATL@@@ATL@@6B@ 10020714     SoundPlayer.obj
 0002:0000072c       __GUID_b196b289_bab4_101a_b69c_00aa00341d07 1002072c     SoundPlayer.obj
 0002:0000073c       __GUID_00000000_0000_0000_c000_000000000046 1002073c     SoundPlayer.obj
 0002:0000074c       ??_C@_1CE@PGFMOFKI@?$AAS?$AAt?$AAa?$AAt?$AAu?$AAs?$AAU?$AAp?$AAd?$AAa?$AAt?$AAe?$AAE?$AAv?$AAe@ 1002074c     SoundPlayer.obj
 0002:00000770       __GUID_00020400_0000_0000_c000_000000000046 10020770     SoundPlayer.obj
 0002:00000780       ??_C@_1CI@HLBJDONE@?$AAO?$AAu?$AAt?$AAp?$AAu?$AAt?$AAC?$AAo?$AAm?$AAp?$AAl?$AAe?$AAt?$AAe?$AAE@ 10020780     SoundPlayer.obj
 0002:000007a8       ??_C@_1BG@LODEBHDD@?$AAE?$AAr?$AAr?$AAo?$AAr?$AAE?$AAv?$AAe?$AAn?$AAt@ 100207a8     SoundPlayer.obj
 0002:000007c0       ??_C@_1BM@CBGEBBBJ@?$AAD?$AAi?$AAr?$AAe?$AAc?$AAt?$AAI?$AAO?$AAE?$AAv?$AAe?$AAn?$AAt@ 100207c0     SoundPlayer.obj
 0002:000007dc       __GUID_b196b286_bab4_101a_b69c_00aa00341d07 100207dc     SoundPlayer.obj
 0002:000007ec       __GUID_00000117_0000_0000_c000_000000000046 100207ec     SoundPlayer.obj
 0002:000007fc       ??_C@_1BC@ENICKDH@?$AAC?$AAo?$AAn?$AAt?$AAe?$AAn?$AAt?$AAs@ 100207fc     SoundPlayer.obj
 0002:00000810       ??_7?$CComObject@V?$CComEnum@UIEnumConnectionPoints@@$1?_GUID_b196b285_bab4_101a_b69c_00aa00341d07@@3U__s_GUID@@BPAUIConnectionPoint@@V?$_CopyInterface@UIConnectionPoint@@@ATL@@VCComSingleThreadModel@6@@ATL@@@ATL@@6B@ 10020810     SoundPlayer.obj
 0002:00000830       ??_C@_1M@KANJNLFF@?$AAC?$AAL?$AAS?$AAI?$AAD@ 10020830     SoundPlayer.obj
 0002:0000083c       ??_C@_1M@EJNEECMJ@?$AAA?$AAp?$AAp?$AAI?$AAD@ 1002083c     SoundPlayer.obj
 0002:00000848       __GUID_0000010e_0000_0000_c000_000000000046 10020848     SoundPlayer.obj
 0002:00000858       __GUID_b196b288_bab4_101a_b69c_00aa00341d07 10020858     SoundPlayer.obj
 0002:00000868       ?rgszNeverDelete@CRegParser@ATL@@1QBQB_WB 10020868     SoundPlayer.obj
 0002:00000898       ??_7CRegObject@ATL@@6B@    10020898     SoundPlayer.obj
 0002:000008b0       __GUID_00000113_0000_0000_c000_000000000046 100208b0     SoundPlayer.obj
 0002:000008c0       __GUID_1c2056cc_5ef4_101b_8bc8_00aa003e3b29 100208c0     SoundPlayer.obj
 0002:000008d0       ??_C@_1CK@OEKPKBNA@?$AAC?$AAo?$AAm?$AAp?$AAo?$AAn?$AAe?$AAn?$AAt?$AA?5?$AAC?$AAa?$AAt?$AAe?$AAg@ 100208d0     SoundPlayer.obj
 0002:000008fc       ??_C@_1BC@NKMMNMGL@?$AAF?$AAi?$AAl?$AAe?$AAT?$AAy?$AAp?$AAe@ 100208fc     SoundPlayer.obj
 0002:00000910       ??_C@_1BE@EKPAFMCP@?$AAI?$AAn?$AAt?$AAe?$AAr?$AAf?$AAa?$AAc?$AAe@ 10020910     SoundPlayer.obj
 0002:00000924       ??_C@_1BC@MAICEHGI@?$AAH?$AAa?$AAr?$AAd?$AAw?$AAa?$AAr?$AAe@ 10020924     SoundPlayer.obj
 0002:00000938       ??_C@_19HLLLM@?$AAM?$AAi?$AAm?$AAe@ 10020938     SoundPlayer.obj
 0002:00000944       ??_C@_17OMAOINJK@?$AAS?$AAA?$AAM@ 10020944     SoundPlayer.obj
 0002:0000094c       ??_C@_1BC@IBECJAAI@?$AAS?$AAE?$AAC?$AAU?$AAR?$AAI?$AAT?$AAY@ 1002094c     SoundPlayer.obj
 0002:00000960       ??_C@_1O@GBFINDKL@?$AAS?$AAY?$AAS?$AAT?$AAE?$AAM@ 10020960     SoundPlayer.obj
 0002:00000970       ??_C@_1BC@EAHCMADO@?$AAS?$AAo?$AAf?$AAt?$AAw?$AAa?$AAr?$AAe@ 10020970     SoundPlayer.obj
 0002:00000984       ??_C@_1BA@JIHHIEDE@?$AAT?$AAy?$AAp?$AAe?$AAL?$AAi?$AAb@ 10020984     SoundPlayer.obj
 0002:00000998       ?map@?1??HKeyFromString@CRegParser@ATL@@KAPAUHKEY__@@PA_W@Z@4QBUkeymap@?1??123@KAPAU4@0@Z@B 10020998     SoundPlayer.obj
 0002:00000a08       ??_C@_19NCHLBIN@?$AAH?$AAK?$AAC?$AAR@ 10020a08     SoundPlayer.obj
 0002:00000a14       ??_C@_19JAPAIJDE@?$AAH?$AAK?$AAC?$AAU@ 10020a14     SoundPlayer.obj
 0002:00000a20       ??_C@_19PEALEEJB@?$AAH?$AAK?$AAL?$AAM@ 10020a20     SoundPlayer.obj
 0002:00000a2c       ??_C@_17PJOJPMPB@?$AAH?$AAK?$AAU@ 10020a2c     SoundPlayer.obj
 0002:00000a34       ??_C@_19PNBHMJPL@?$AAH?$AAK?$AAP?$AAD@ 10020a34     SoundPlayer.obj
 0002:00000a40       ??_C@_19GFFAIJHG@?$AAH?$AAK?$AAD?$AAD@ 10020a40     SoundPlayer.obj
 0002:00000a4c       ??_C@_19OFICIBHH@?$AAH?$AAK?$AAC?$AAC@ 10020a4c     SoundPlayer.obj
 0002:00000a58       ??_C@_1CE@PACHPJFI@?$AAH?$AAK?$AAE?$AAY?$AA_?$AAC?$AAL?$AAA?$AAS?$AAS?$AAE?$AAS?$AA_?$AAR?$AAO@ 10020a58     SoundPlayer.obj
 0002:00000a7c       ??_C@_1CE@HLHNCBPM@?$AAH?$AAK?$AAE?$AAY?$AA_?$AAC?$AAU?$AAR?$AAR?$AAE?$AAN?$AAT?$AA_?$AAU?$AAS@ 10020a7c     SoundPlayer.obj
 0002:00000aa0       ??_C@_1CG@GFBEANJL@?$AAH?$AAK?$AAE?$AAY?$AA_?$AAL?$AAO?$AAC?$AAA?$AAL?$AA_?$AAM?$AAA?$AAC?$AAH@ 10020aa0     SoundPlayer.obj
 0002:00000ac8       ??_C@_1BG@BGODANIO@?$AAH?$AAK?$AAE?$AAY?$AA_?$AAU?$AAS?$AAE?$AAR?$AAS@ 10020ac8     SoundPlayer.obj
 0002:00000ae0       ??_C@_1CM@KHNNAOIC@?$AAH?$AAK?$AAE?$AAY?$AA_?$AAP?$AAE?$AAR?$AAF?$AAO?$AAR?$AAM?$AAA?$AAN?$AAC@ 10020ae0     SoundPlayer.obj
 0002:00000b0c       ??_C@_1BM@HAGMMHIA@?$AAH?$AAK?$AAE?$AAY?$AA_?$AAD?$AAY?$AAN?$AA_?$AAD?$AAA?$AAT?$AAA@ 10020b0c     SoundPlayer.obj
 0002:00000b28       ??_C@_1CI@BBJOACGG@?$AAH?$AAK?$AAE?$AAY?$AA_?$AAC?$AAU?$AAR?$AAR?$AAE?$AAN?$AAT?$AA_?$AAC?$AAO@ 10020b28     SoundPlayer.obj
 0002:00000b50       __GUID_00000109_0000_0000_c000_000000000046 10020b50     SoundPlayer.obj
 0002:00000b60       __GUID_7fd52380_4e07_101b_ae2d_08002b2ec713 10020b60     SoundPlayer.obj
 0002:00000b70       __GUID_00000112_0000_0000_c000_000000000046 10020b70     SoundPlayer.obj
 0002:00000b80       __GUID_3af24292_0c96_11ce_a0cf_00aa00600ab8 10020b80     SoundPlayer.obj
 0002:00000b90       __GUID_00000127_0000_0000_c000_000000000046 10020b90     SoundPlayer.obj
 0002:00000ba0       __GUID_0000010d_0000_0000_c000_000000000046 10020ba0     SoundPlayer.obj
 0002:00000bb0       ??_C@_1EA@NHKLICFA@?$AAH?$AAK?$AAC?$AAU?$AA?$AN?$AA?6?$AA?$HL?$AA?7?$AAS?$AAo?$AAf?$AAt?$AAw?$AAa?$AAr@ 10020bb0     SoundPlayer.obj
 0002:00000bf0       ??_C@_1BE@LJOLIMEM@?$AA?$AN?$AA?6?$AA?7?$AA?$HN?$AA?$AN?$AA?6?$AA?$HN?$AA?$AN?$AA?6@ 10020bf0     SoundPlayer.obj
 0002:00000c04       ??_C@_1M@PPPPCDEP@?$AAA?$AAP?$AAP?$AAI?$AAD@ 10020c04     SoundPlayer.obj
 0002:00000c10       ??_C@_1O@MNLDABAF@?$AAM?$AAo?$AAd?$AAu?$AAl?$AAe@ 10020c10     SoundPlayer.obj
 0002:00000c20       ??_C@_1BG@JBACFMF@?$AAM?$AAo?$AAd?$AAu?$AAl?$AAe?$AA_?$AAR?$AAa?$AAw@ 10020c20     SoundPlayer.obj
 0002:00000c38       ??_C@_1BC@KAILKFFG@?$AAR?$AAE?$AAG?$AAI?$AAS?$AAT?$AAR?$AAY@ 10020c38     SoundPlayer.obj
 0002:00000c4c       ??_7?$CComContainedObject@VCOPOSSoundPlayer@@@ATL@@6B?$IDispatchImpl@UIOPOSSoundPlayer@@$1?IID_IOPOSSoundPlayer@@3U_GUID@@B$1?LIBID_OposSoundPlayer_CCO@@3U3@B$00$0A@VCComTypeInfoHolder@ATL@@@1@@ 10020c4c     SoundPlayer.obj
 0002:00000d50       ??_7?$CComContainedObject@VCOPOSSoundPlayer@@@ATL@@6BCComControlBase@1@@ 10020d50     SoundPlayer.obj
 0002:00000d64       ??_7?$CComContainedObject@VCOPOSSoundPlayer@@@ATL@@6B?$CWindowImpl@VCOPOSSoundPlayer@@VCWindow@ATL@@V?$CWinTraits@$0FGAAAAAA@$0A@@3@@1@@ 10020d64     SoundPlayer.obj
 0002:00000d74       ??_7?$CComContainedObject@VCOPOSSoundPlayer@@@ATL@@6B?$IPersistStreamInitImpl@VCOPOSSoundPlayer@@@1@@ 10020d74     SoundPlayer.obj
 0002:00000d98       ??_7?$CComContainedObject@VCOPOSSoundPlayer@@@ATL@@6B?$IOleControlImpl@VCOPOSSoundPlayer@@@1@@ 10020d98     SoundPlayer.obj
 0002:00000db4       ??_7?$CComContainedObject@VCOPOSSoundPlayer@@@ATL@@6B?$IOleObjectImpl@VCOPOSSoundPlayer@@@1@@ 10020db4     SoundPlayer.obj
 0002:00000e14       ??_7?$CComContainedObject@VCOPOSSoundPlayer@@@ATL@@6B?$IOleInPlaceActiveObjectImpl@VCOPOSSoundPlayer@@@1@@ 10020e14     SoundPlayer.obj
 0002:00000e3c       ??_7?$CComContainedObject@VCOPOSSoundPlayer@@@ATL@@6B?$IViewObjectExImpl@VCOPOSSoundPlayer@@@1@@ 10020e3c     SoundPlayer.obj
 0002:00000e78       ??_7?$CComContainedObject@VCOPOSSoundPlayer@@@ATL@@6B?$IOleInPlaceObjectWindowlessImpl@VCOPOSSoundPlayer@@@1@@ 10020e78     SoundPlayer.obj
 0002:00000ea4       ??_7?$CComContainedObject@VCOPOSSoundPlayer@@@ATL@@6B?$IConnectionPointContainerImpl@VCOPOSSoundPlayer@@@1@@ 10020ea4     SoundPlayer.obj
 0002:00000eb8       ??_7?$CComContainedObject@VCOPOSSoundPlayer@@@ATL@@6B?$IPersistStorageImpl@VCOPOSSoundPlayer@@@1@@ 10020eb8     SoundPlayer.obj
 0002:00000ee0       ??_7?$CComContainedObject@VCOPOSSoundPlayer@@@ATL@@6B?$ISpecifyPropertyPagesImpl@VCOPOSSoundPlayer@@@1@@ 10020ee0     SoundPlayer.obj
 0002:00000ef0       ??_7?$CComContainedObject@VCOPOSSoundPlayer@@@ATL@@6B?$IQuickActivateImpl@VCOPOSSoundPlayer@@@1@@ 10020ef0     SoundPlayer.obj
 0002:00000f08       ??_7?$CComContainedObject@VCOPOSSoundPlayer@@@ATL@@6B?$IDataObjectImpl@VCOPOSSoundPlayer@@@1@@ 10020f08     SoundPlayer.obj
 0002:00000f38       ??_7?$CComContainedObject@VCOPOSSoundPlayer@@@ATL@@6B?$IProvideClassInfo2Impl@$1?CLSID_OPOSSoundPlayer@@3U_GUID@@B$1?DIID__IOPOSSoundPlayerEvents@@3U2@B$1?LIBID_OposSoundPlayer_CCO@@3U2@B$00$0A@VCComTypeInfoHolder@ATL@@@1@@ 10020f38     SoundPlayer.obj
 0002:00000f4c       ??_7?$CComContainedObject@VCOPOSSoundPlayer@@@ATL@@6B?$IObjectSafetyImpl@VCOPOSSoundPlayer@@$02@1@@ 10020f4c     SoundPlayer.obj
 0002:00000f64       ??_7?$CComContainedObject@VCOPOSSoundPlayer@@@ATL@@6B?$IPropertyNotifySinkCP@VCOPOSSoundPlayer@@VCComDynamicUnkArray@ATL@@@1@@ 10020f64     SoundPlayer.obj
 0002:00000f84       ??_7?$CComContainedObject@VCOPOSSoundPlayer@@@ATL@@6B?$CProxy_IOPOSEvents@VCOPOSSoundPlayer@@@@@ 10020f84     SoundPlayer.obj
 0002:00000fa4       ??_7?$CComAggObject@VCOPOSSoundPlayer@@@ATL@@6B@ 10020fa4     SoundPlayer.obj
 0002:00000fb4       ??_7?$CComObject@VCOPOSSoundPlayer@@@ATL@@6B?$IDispatchImpl@UIOPOSSoundPlayer@@$1?IID_IOPOSSoundPlayer@@3U_GUID@@B$1?LIBID_OposSoundPlayer_CCO@@3U3@B$00$0A@VCComTypeInfoHolder@ATL@@@1@@ 10020fb4     SoundPlayer.obj
 0002:000010b8       ??_7?$CComObject@VCOPOSSoundPlayer@@@ATL@@6BCComControlBase@1@@ 100210b8     SoundPlayer.obj
 0002:000010cc       ??_7?$CComObject@VCOPOSSoundPlayer@@@ATL@@6B?$CWindowImpl@VCOPOSSoundPlayer@@VCWindow@ATL@@V?$CWinTraits@$0FGAAAAAA@$0A@@3@@1@@ 100210cc     SoundPlayer.obj
 0002:000010dc       ??_7?$CComObject@VCOPOSSoundPlayer@@@ATL@@6B?$IPersistStreamInitImpl@VCOPOSSoundPlayer@@@1@@ 100210dc     SoundPlayer.obj
 0002:00001100       ??_7?$CComObject@VCOPOSSoundPlayer@@@ATL@@6B?$IOleControlImpl@VCOPOSSoundPlayer@@@1@@ 10021100     SoundPlayer.obj
 0002:0000111c       ??_7?$CComObject@VCOPOSSoundPlayer@@@ATL@@6B?$IOleObjectImpl@VCOPOSSoundPlayer@@@1@@ 1002111c     SoundPlayer.obj
 0002:0000117c       ??_7?$CComObject@VCOPOSSoundPlayer@@@ATL@@6B?$IOleInPlaceActiveObjectImpl@VCOPOSSoundPlayer@@@1@@ 1002117c     SoundPlayer.obj
 0002:000011a4       ??_7?$CComObject@VCOPOSSoundPlayer@@@ATL@@6B?$IViewObjectExImpl@VCOPOSSoundPlayer@@@1@@ 100211a4     SoundPlayer.obj
 0002:000011e0       ??_7?$CComObject@VCOPOSSoundPlayer@@@ATL@@6B?$IOleInPlaceObjectWindowlessImpl@VCOPOSSoundPlayer@@@1@@ 100211e0     SoundPlayer.obj
 0002:0000120c       ??_7?$CComObject@VCOPOSSoundPlayer@@@ATL@@6B?$IConnectionPointContainerImpl@VCOPOSSoundPlayer@@@1@@ 1002120c     SoundPlayer.obj
 0002:00001220       ??_7?$CComObject@VCOPOSSoundPlayer@@@ATL@@6B?$IPersistStorageImpl@VCOPOSSoundPlayer@@@1@@ 10021220     SoundPlayer.obj
 0002:00001248       ??_7?$CComObject@VCOPOSSoundPlayer@@@ATL@@6B?$ISpecifyPropertyPagesImpl@VCOPOSSoundPlayer@@@1@@ 10021248     SoundPlayer.obj
 0002:00001258       ??_7?$CComObject@VCOPOSSoundPlayer@@@ATL@@6B?$IQuickActivateImpl@VCOPOSSoundPlayer@@@1@@ 10021258     SoundPlayer.obj
 0002:00001270       ??_7?$CComObject@VCOPOSSoundPlayer@@@ATL@@6B?$IDataObjectImpl@VCOPOSSoundPlayer@@@1@@ 10021270     SoundPlayer.obj
 0002:000012a0       ??_7?$CComObject@VCOPOSSoundPlayer@@@ATL@@6B?$IProvideClassInfo2Impl@$1?CLSID_OPOSSoundPlayer@@3U_GUID@@B$1?DIID__IOPOSSoundPlayerEvents@@3U2@B$1?LIBID_OposSoundPlayer_CCO@@3U2@B$00$0A@VCComTypeInfoHolder@ATL@@@1@@ 100212a0     SoundPlayer.obj
 0002:000012b4       ??_7?$CComObject@VCOPOSSoundPlayer@@@ATL@@6B?$IObjectSafetyImpl@VCOPOSSoundPlayer@@$02@1@@ 100212b4     SoundPlayer.obj
 0002:000012cc       ??_7?$CComObject@VCOPOSSoundPlayer@@@ATL@@6B?$IPropertyNotifySinkCP@VCOPOSSoundPlayer@@VCComDynamicUnkArray@ATL@@@1@@ 100212cc     SoundPlayer.obj
 0002:000012ec       ??_7?$CComObject@VCOPOSSoundPlayer@@@ATL@@6B?$CProxy_IOPOSEvents@VCOPOSSoundPlayer@@@@@ 100212ec     SoundPlayer.obj
 0002:0000130c       ??_C@_1O@GBFKGNEO@?$AAA?$AAT?$AAL?$AA?3?$AA?$CF?$AAp@ 1002130c     SoundPlayer.obj
 0002:0000131c       ??_C@_1BA@PICGEGJB@?$AAD?$AAI?$AAS?$AAP?$AAL?$AAA?$AAY@ 1002131c     SoundPlayer.obj
 0002:0000132c       __GUID_9bfbbc02_eff1_101a_84ed_00aa00341d07 1002132c     SoundPlayer.obj
 0002:0000133c       __GUID_b196b284_bab4_101a_b69c_00aa00341d07 1002133c     SoundPlayer.obj
 0002:0000134c       ?_entries@?1??_GetEntries@?$CComEnum@UIEnumConnectionPoints@@$1?_GUID_b196b285_bab4_101a_b69c_00aa00341d07@@3U__s_GUID@@BPAUIConnectionPoint@@V?$_CopyInterface@UIConnectionPoint@@@ATL@@VCComSingleThreadModel@6@@ATL@@SGPBU_ATL_INTMAP_ENTRY@3@XZ@4QBU43@B 1002134c     SoundPlayer.obj
 0002:00001364       __GUID_00020412_0000_0000_c000_000000000046 10021364     SoundPlayer.obj
 0002:00001374       __GUID_00020401_0000_0000_c000_000000000046 10021374     SoundPlayer.obj
 0002:00001384       ??_7?$CComObject@V?$CComEnum@UIEnumConnections@@$1?_GUID_b196b287_bab4_101a_b69c_00aa00341d07@@3U__s_GUID@@BUtagCONNECTDATA@@V?$_Copy@UtagCONNECTDATA@@@ATL@@VCComSingleThreadModel@6@@ATL@@@ATL@@6B@ 10021384     SoundPlayer.obj
 0002:000013a4       __GUID_55980ba0_35aa_11cf_b671_00aa004cd6d8 100213a4     SoundPlayer.obj
 0002:000013b4       __GUID_b196b28b_bab4_101a_b69c_00aa00341d07 100213b4     SoundPlayer.obj
 0002:000013c4       ?_entries@?1??_GetEntries@?$CComEnum@UIEnumConnections@@$1?_GUID_b196b287_bab4_101a_b69c_00aa00341d07@@3U__s_GUID@@BUtagCONNECTDATA@@V?$_Copy@UtagCONNECTDATA@@@ATL@@VCComSingleThreadModel@6@@ATL@@SGPBU_ATL_INTMAP_ENTRY@3@XZ@4QBU43@B 100213c4     SoundPlayer.obj
 0002:000013dc       ??_C@_0BG@EKFFMJIO@RegOpenKeyTransactedW@ 100213dc     SoundPlayer.obj
 0002:000013f4       ??_C@_0BI@HAKLOOGP@RegDeleteKeyTransactedW@ 100213f4     SoundPlayer.obj
 0002:0000140c       ??_C@_0BA@LILAPHGE@RegDeleteKeyExW@ 1002140c     SoundPlayer.obj
 0002:0000141c       ??_C@_19ILOCMLCJ@?$AA?4?$AAt?$AAl?$AAb@ 1002141c     SoundPlayer.obj
 0002:00001428       __GUID_0002e012_0000_0000_c000_000000000046 10021428     SoundPlayer.obj
 0002:00001438       ??_C@_1O@FHBGLCIO@?$AAC?$AAL?$AAS?$AAI?$AAD?$AA?2@ 10021438     SoundPlayer.obj
 0002:00001448       ??_C@_1CK@IFBKBFAA@?$AA?2?$AAR?$AAe?$AAq?$AAu?$AAi?$AAr?$AAe?$AAd?$AA?5?$AAC?$AAa?$AAt?$AAe?$AAg@ 10021448     SoundPlayer.obj
 0002:00001474       ??_C@_1DA@BIHALFED@?$AA?2?$AAI?$AAm?$AAp?$AAl?$AAe?$AAm?$AAe?$AAn?$AAt?$AAe?$AAd?$AA?5?$AAC?$AAa@ 10021474     SoundPlayer.obj
 0002:000014a4       ??_C@_1BK@EDKOLFBJ@?$AAO?$AAL?$AAE?$AAA?$AAU?$AAT?$AA3?$AA2?$AA?4?$AAD?$AAL?$AAL@ 100214a4     SoundPlayer.obj
 0002:000014c0       ??_C@_0BJ@CNLFOMHB@UnRegisterTypeLibForUser@ 100214c0     SoundPlayer.obj
 0002:000014dc       ??_C@_0BH@LBOMMKPJ@RegisterTypeLibForUser@ 100214dc     SoundPlayer.obj
 0002:000014f4       ??_C@_0P@MMNMMLGK@COFreezeEvents@ 100214f4     SoundPlayerImpl.obj
 0002:00001504       ??_C@_0BC@OGCGGIMP@GetPropertyNumber@ 10021504     SoundPlayerImpl.obj
 0002:00001518       ??_C@_0BC@MDCNODNB@SetPropertyNumber@ 10021518     SoundPlayerImpl.obj
 0002:0000152c       ??_C@_0BC@CFCCMIMD@GetPropertyString@ 1002152c     SoundPlayerImpl.obj
 0002:00001540       ??_C@_0BC@CJEDNN@SetPropertyString@ 10021540     SoundPlayerImpl.obj
 0002:00001554       ??_C@_0M@LNPKKKDA@OpenService@ 10021554     SoundPlayerImpl.obj
 0002:00001560       ??_C@_0M@PCMCHHMH@CheckHealth@ 10021560     SoundPlayerImpl.obj
 0002:0000156c       ??_C@_0M@JGMIDNEK@ClaimDevice@ 1002156c     SoundPlayerImpl.obj
 0002:00001578       ??_C@_0M@JMBCPNGJ@ClearOutput@ 10021578     SoundPlayerImpl.obj
 0002:00001584       ??_C@_0N@DDFIIBMP@CloseService@ 10021584     SoundPlayerImpl.obj
 0002:00001594       ??_C@_08EEIHICPC@DirectIO@ 10021594     SoundPlayerImpl.obj
 0002:000015a0       ??_C@_0O@BCPMENMJ@ReleaseDevice@ 100215a0     SoundPlayerImpl.obj
 0002:000015b0       ??_C@_0BA@GFABKEEE@ResetStatistics@ 100215b0     SoundPlayerImpl.obj
 0002:000015c0       ??_C@_0BD@DPALHJGC@RetrieveStatistics@ 100215c0     SoundPlayerImpl.obj
 0002:000015d4       ??_C@_0BB@KOHIKNFC@UpdateStatistics@ 100215d4     SoundPlayerImpl.obj
 0002:000015e8       ??_C@_0BH@PBKBNMGB@CompareFirmwareVersion@ 100215e8     SoundPlayerImpl.obj
 0002:00001600       ??_C@_0P@FBPDPIPA@UpdateFirmware@ 10021600     SoundPlayerImpl.obj
 0002:00001610       ??_C@_09PEMGNEEO@PlaySound@ 10021610     SoundPlayerImpl.obj
 0002:0000161c       ??_C@_09IIPLNIMF@StopSound@ 1002161c     SoundPlayerImpl.obj
 0002:00001628       ??_7?$CProxy_IOPOSEvents@VCOPOSSoundPlayer@@@@6B@ 10021628     SoundPlayerImpl.obj
 0002:00001648       ??_C@_1BA@IFHENID@?$AA?$FL?$AAE?$AAr?$AAr?$AAo?$AAr?$AA?$FN@ 10021648     SoundPlayerImpl.obj
 0002:00001658       ??_C@_0CO@MENBAAH@SOFTWARE?2OLEforRetail?2ServiceOP@ 10021658     SoundPlayerImpl.obj
 0002:00001688       ??_C@_1M@IAIJHCCH@?$AAC?$AAl?$AAo?$AAs?$AAe@ 10021688     SoundPlayerImpl.obj
 0002:00001694       ??_C@_1M@PCPKGJAH@?$AAC?$AAl?$AAa?$AAi?$AAm@ 10021694     SoundPlayerImpl.obj
 0002:000016a0       ??_C@_1BA@NDFKIOCP@?$AAR?$AAe?$AAl?$AAe?$AAa?$AAs?$AAe@ 100216a0     SoundPlayerImpl.obj
 0002:000016b0       ??_C@_0M@GBBAOMPL@SoundPlayer@ 100216b0     SoundPlayerImpl.obj
 0002:000016bc       ??_C@_1BM@IJMNMBPK@?$AAG?$AAe?$AAt?$AAO?$AAp?$AAe?$AAn?$AAR?$AAe?$AAs?$AAu?$AAl?$AAt@ 100216bc     SoundPlayerImpl.obj
 0002:000016d8       _IID_IPropertyNotifySink   100216d8     uuid:ocidl_i.obj
 0002:000016e8       _GUID_NULL                 100216e8     uuid:cguid_i.obj
 0002:000016f8       _CLSID_StdGlobalInterfaceTable 100216f8     uuid:cguid_i.obj
 0002:00001708       _IID_IDispatch             10021708     uuid:oaidl_i.obj
 0002:00001718       _CLSID_StdComponentCategoriesMgr 10021718     uuid:ieguids.obj
 0002:00001728       _IID_IUnknown              10021728     uuid:unknwn_i.obj
 0002:00001738       ??_C@_1EC@JIJBPKFM@?$AAa?$AAp?$AAi?$AA?9?$AAm?$AAs?$AA?9?$AAw?$AAi?$AAn?$AA?9?$AAc?$AAo?$AAr?$AAe@ 10021738     LIBCMT:thread_safe_statics.obj
 0002:0000177c       ??_C@_1BK@MGMFAEKH@?$AAk?$AAe?$AAr?$AAn?$AAe?$AAl?$AA3?$AA2?$AA?4?$AAd?$AAl?$AAl@ 1002177c     LIBCMT:thread_safe_statics.obj
 0002:00001798       ??_C@_0BJ@JEBJOJFJ@SleepConditionVariableCS@ 10021798     LIBCMT:thread_safe_statics.obj
 0002:000017b4       ??_C@_0BJ@PGPPEPCC@WakeAllConditionVariable@ 100217b4     LIBCMT:thread_safe_statics.obj
 0002:000017cd       ?nothrow@std@@3Unothrow_t@1@B 100217cd     LIBCMT:std_nothrow.obj
 0002:000017d8       __pDefaultRawDllMain       100217d8     LIBCMT:dll_dllmain.obj
 0002:000017d8       __pRawDllMain              100217d8     LIBCMT:dll_dllmain.obj
 0002:000017e0       ??_7exception@std@@6B@     100217e0     LIBCMT:throw_bad_alloc.obj
 0002:000017e8       ??_C@_0BC@EOODALEL@Unknown?5exception@ 100217e8     LIBCMT:throw_bad_alloc.obj
 0002:00001800       ??_7bad_alloc@std@@6B@     10021800     LIBCMT:throw_bad_alloc.obj
 0002:00001808       ??_C@_0P@GHFPNOJB@bad?5allocation@ 10021808     LIBCMT:throw_bad_alloc.obj
 0002:0000181c       ??_7bad_array_new_length@std@@6B@ 1002181c     LIBCMT:throw_bad_alloc.obj
 0002:00001824       ??_C@_0BF@KINCDENJ@bad?5array?5new?5length@ 10021824     LIBCMT:throw_bad_alloc.obj
 0002:00001840       ??_7type_info@@6B@         10021840     LIBCMT:std_type_info_static.obj
 0002:00001844       _GUID_ATLVer110            10021844     atls:atlbase.obj
 0002:00001858       ??_C@_1IC@ONKHOIDK@?$AAE?$AAR?$AAR?$AAO?$AAR?$AA?5?$AA?3?$AA?5?$AAU?$AAn?$AAa?$AAb?$AAl?$AAe?$AA?5@ 10021858     atls:atlbase.obj
 0002:000018dc       ??_C@_0N@FJEPLCIH@atlthunk?4dll@ 100218dc     atls:atlthunk.obj
 0002:000018ec       ??_C@_0BG@GAKFHCBM@AtlThunk_AllocateData@ 100218ec     atls:atlthunk.obj
 0002:00001904       ??_C@_0BC@JKONFIAH@AtlThunk_InitData@ 10021904     atls:atlthunk.obj
 0002:00001918       ??_C@_0BE@IAOEELAK@AtlThunk_DataToCode@ 10021918     atls:atlthunk.obj
 0002:0000192c       ??_C@_0BC@GBGKAIPI@AtlThunk_FreeData@ 1002192c     atls:atlthunk.obj
 0002:00001940       __pDestructExceptionObject 10021940     libvcruntime:ehhelpers.obj
 0002:00001948       ??_7bad_exception@std@@6B@ 10021948     libvcruntime:frame.obj
 0002:00001950       ??_C@_0O@DPKOEFFH@bad?5exception@ 10021950     libvcruntime:frame.obj
 0002:00001ce0       ??_C@_08EHJDFFNH@__based?$CI@ 10021ce0     libvcruntime:undname.obj
 0002:00001cec       ??_C@_07KOLFKCDI@__cdecl@  10021cec     libvcruntime:undname.obj
 0002:00001cf4       ??_C@_08GHMPAG@__pascal@   10021cf4     libvcruntime:undname.obj
 0002:00001d00       ??_C@_09IFJBGAPI@__stdcall@ 10021d00     libvcruntime:undname.obj
 0002:00001d0c       ??_C@_0L@NPHFGOKO@__thiscall@ 10021d0c     libvcruntime:undname.obj
 0002:00001d18       ??_C@_0L@JMKHOMEK@__fastcall@ 10021d18     libvcruntime:undname.obj
 0002:00001d24       ??_C@_0N@BCKKPABJ@__vectorcall@ 10021d24     libvcruntime:undname.obj
 0002:00001d34       ??_C@_09HIJEGCPM@__clrcall@ 10021d34     libvcruntime:undname.obj
 0002:00001d40       ??_C@_06GHPCKEAG@__eabi@   10021d40     libvcruntime:undname.obj
 0002:00001d48       ??_C@_09IOPIDJLG@__swift_1@ 10021d48     libvcruntime:undname.obj
 0002:00001d54       ??_C@_09KFNFGKHF@__swift_2@ 10021d54     libvcruntime:undname.obj
 0002:00001d60       ??_C@_07JOMMBBKO@__ptr64@  10021d60     libvcruntime:undname.obj
 0002:00001d68       ??_C@_0L@PILCLIHE@__restrict@ 10021d68     libvcruntime:undname.obj
 0002:00001d74       ??_C@_0M@GFIIJFMG@__unaligned@ 10021d74     libvcruntime:undname.obj
 0002:00001d80       ??_C@_09DHDLOLLB@restrict?$CI@ 10021d80     libvcruntime:undname.obj
 0002:00001d8a       ??_C@_00CNPNBAHC@@         10021d8a     libvcruntime:undname.obj
 0002:00001d8c       ??_C@_04NIHEBCM@?5new@     10021d8c     libvcruntime:undname.obj
 0002:00001d94       ??_C@_07FPCDHGMM@?5delete@ 10021d94     libvcruntime:undname.obj
 0002:00001d9c       ??_C@_01NEMOKFLO@?$DN@     10021d9c     libvcruntime:undname.obj
 0002:00001da0       ??_C@_02GPIOPFAK@?$DO?$DO@ 10021da0     libvcruntime:undname.obj
 0002:00001da4       ??_C@_02FODMEDOG@?$DM?$DM@ 10021da4     libvcruntime:undname.obj
 0002:00001da8       ??_C@_01DCLJPIOD@?$CB@     10021da8     libvcruntime:undname.obj
 0002:00001dac       ??_C@_02EGOFBIJA@?$DN?$DN@ 10021dac     libvcruntime:undname.obj
 0002:00001db0       ??_C@_02FDNJECIE@?$CB?$DN@ 10021db0     libvcruntime:undname.obj
 0002:00001db4       ??_C@_02GPECMEKF@?$FL?$FN@ 10021db4     libvcruntime:undname.obj
 0002:00001db8       ??_C@_08LHJFAFGD@operator@ 10021db8     libvcruntime:undname.obj
 0002:00001dc4       ??_C@_02HBOOOICD@?9?$DO@   10021dc4     libvcruntime:undname.obj
 0002:00001dc8       ??_C@_01NBENCBCI@?$CK@     10021dc8     libvcruntime:undname.obj
 0002:00001dcc       ??_C@_02ECNGHCIF@?$CL?$CL@ 10021dcc     libvcruntime:undname.obj
 0002:00001dd0       ??_C@_02BAABKJLB@?9?9@     10021dd0     libvcruntime:undname.obj
 0002:00001dd4       ??_C@_01JOAMLHOP@?9@       10021dd4     libvcruntime:undname.obj
 0002:00001dd8       ??_C@_01MIFGBAGJ@?$CL@     10021dd8     libvcruntime:undname.obj
 0002:00001ddc       ??_C@_01HNPIGOCE@?$CG@     10021ddc     libvcruntime:undname.obj
 0002:00001de0       ??_C@_03MNHNFDLC@?9?$DO?$CK@ 10021de0     libvcruntime:undname.obj
 0002:00001de4       ??_C@_01KMDKNFGN@?1@       10021de4     libvcruntime:undname.obj
 0002:00001de8       ??_C@_01FGNFDNOH@?$CF@     10021de8     libvcruntime:undname.obj
 0002:00001dec       ??_C@_01MNNFJEPP@?$DM@     10021dec     libvcruntime:undname.obj
 0002:00001df0       ??_C@_02EHCHHCKH@?$DM?$DN@ 10021df0     libvcruntime:undname.obj
 0002:00001df4       ??_C@_01PPODPGHN@?$DO@     10021df4     libvcruntime:undname.obj
 0002:00001df8       ??_C@_02EEKDKGMJ@?$DO?$DN@ 10021df8     libvcruntime:undname.obj
 0002:00001dfc       ??_C@_01IHBHIGKO@?0@       10021dfc     libvcruntime:undname.obj
 0002:00001e00       ??_C@_02HCKGKOFO@?$CI?$CJ@ 10021e00     libvcruntime:undname.obj
 0002:00001e04       ??_C@_01PJKLJHI@?$HO@      10021e04     libvcruntime:undname.obj
 0002:00001e08       ??_C@_01JKBOJNNK@?$FO@     10021e08     libvcruntime:undname.obj
 0002:00001e0c       ??_C@_01DNKMNLPK@?$HM@     10021e0c     libvcruntime:undname.obj
 0002:00001e10       ??_C@_02PPKAJPJL@?$CG?$CG@ 10021e10     libvcruntime:undname.obj
 0002:00001e14       ??_C@_02NONPIBCD@?$HM?$HM@ 10021e14     libvcruntime:undname.obj
 0002:00001e18       ??_C@_02FPIMKNGF@?$CK?$DN@ 10021e18     libvcruntime:undname.obj
 0002:00001e1c       ??_C@_02FOEOMHFC@?$CL?$DN@ 10021e1c     libvcruntime:undname.obj
 0002:00001e20       ??_C@_02FKMDLLOA@?9?$DN@   10021e20     libvcruntime:undname.obj
 0002:00001e24       ??_C@_02FJEHGPIO@?1?$DN@   10021e24     libvcruntime:undname.obj
 0002:00001e28       ??_C@_02FENAOKFI@?$CF?$DN@ 10021e28     libvcruntime:undname.obj
 0002:00001e2c       ??_C@_03IKFCCPFF@?$DO?$DO?$DN@ 10021e2c     libvcruntime:undname.obj
 0002:00001e30       ??_C@_03CDNPDDLA@?$DM?$DM?$DN@ 10021e30     libvcruntime:undname.obj
 0002:00001e34       ??_C@_02FGJGFEAB@?$CG?$DN@ 10021e34     libvcruntime:undname.obj
 0002:00001e38       ??_C@_02DHLNPPGH@?$HM?$DN@ 10021e38     libvcruntime:undname.obj
 0002:00001e3c       ??_C@_02MHEGNOJ@?$FO?$DN@  10021e3c     libvcruntime:undname.obj
 0002:00001e40       ??_C@_09IFPLHPGF@?$GAvftable?8@ 10021e40     libvcruntime:undname.obj
 0002:00001e4c       ??_C@_09BLBHBJP@?$GAvbtable?8@ 10021e4c     libvcruntime:undname.obj
 0002:00001e58       ??_C@_07FEEIOKP@?$GAvcall?8@ 10021e58     libvcruntime:undname.obj
 0002:00001e60       ??_C@_08LLFFHHDJ@?$GAtypeof?8@ 10021e60     libvcruntime:undname.obj
 0002:00001e6c       ??_C@_0BF@KDPPACIK@?$GAlocal?5static?5guard?8@ 10021e6c     libvcruntime:undname.obj
 0002:00001e84       ??_C@_08OBABFOLI@?$GAstring?8@ 10021e84     libvcruntime:undname.obj
 0002:00001e90       ??_C@_0BD@JDLKDPAB@?$GAvbase?5destructor?8@ 10021e90     libvcruntime:undname.obj
 0002:00001ea4       ??_C@_0BN@DEGPLNFK@?$GAvector?5deleting?5destructor?8@ 10021ea4     libvcruntime:undname.obj
 0002:00001ec4       ??_C@_0BO@OBMKPJIG@?$GAdefault?5constructor?5closure?8@ 10021ec4     libvcruntime:undname.obj
 0002:00001ee4       ??_C@_0BN@IMDCHIKM@?$GAscalar?5deleting?5destructor?8@ 10021ee4     libvcruntime:undname.obj
 0002:00001f04       ??_C@_0BO@PFGOCPJJ@?$GAvector?5constructor?5iterator?8@ 10021f04     libvcruntime:undname.obj
 0002:00001f24       ??_C@_0BN@LFPFMEDL@?$GAvector?5destructor?5iterator?8@ 10021f24     libvcruntime:undname.obj
 0002:00001f44       ??_C@_0CE@IKBNEHA@?$GAvector?5vbase?5constructor?5itera@ 10021f44     libvcruntime:undname.obj
 0002:00001f68       ??_C@_0BL@NILFHHPC@?$GAvirtual?5displacement?5map?8@ 10021f68     libvcruntime:undname.obj
 0002:00001f84       ??_C@_0CB@JONCMFFK@?$GAeh?5vector?5constructor?5iterator@ 10021f84     libvcruntime:undname.obj
 0002:00001fa8       ??_C@_0CA@GCEOPDGL@?$GAeh?5vector?5destructor?5iterator?8@ 10021fa8     libvcruntime:undname.obj
 0002:00001fc8       ??_C@_0CH@OOJPLCPH@?$GAeh?5vector?5vbase?5constructor?5it@ 10021fc8     libvcruntime:undname.obj
 0002:00001ff0       ??_C@_0BL@LLKPOHJI@?$GAcopy?5constructor?5closure?8@ 10021ff0     libvcruntime:undname.obj
 0002:0000200c       ??_C@_0BA@KBCDOMBN@?$GAudt?5returning?8@ 1002200c     libvcruntime:undname.obj
 0002:0000201c       ??_C@_03KLGMFNMG@?$GAEH@   1002201c     libvcruntime:undname.obj
 0002:00002020       ??_C@_05KHLCHHI@?$GARTTI@  10022020     libvcruntime:undname.obj
 0002:00002028       ??_C@_0BA@KKLDJDLB@?$GAlocal?5vftable?8@ 10022028     libvcruntime:undname.obj
 0002:00002038       ??_C@_0CE@IIHCMGGL@?$GAlocal?5vftable?5constructor?5clos@ 10022038     libvcruntime:undname.obj
 0002:0000205c       ??_C@_06FHBGPFGH@?5new?$FL?$FN@ 1002205c     libvcruntime:undname.obj
 0002:00002064       ??_C@_09LBNFPBCA@?5delete?$FL?$FN@ 10022064     libvcruntime:undname.obj
 0002:00002070       ??_C@_0P@HJKNJFNN@?$GAomni?5callsig?8@ 10022070     libvcruntime:undname.obj
 0002:00002080       ??_C@_0BL@CNOONJFP@?$GAplacement?5delete?5closure?8@ 10022080     libvcruntime:undname.obj
 0002:0000209c       ??_C@_0BN@CKNJLHMB@?$GAplacement?5delete?$FL?$FN?5closure?8@ 1002209c     libvcruntime:undname.obj
 0002:000020bc       ??_C@_0CG@CFDHKGGD@?$GAmanaged?5vector?5constructor?5ite@ 100220bc     libvcruntime:undname.obj
 0002:000020e4       ??_C@_0CF@IMGKMJNO@?$GAmanaged?5vector?5destructor?5iter@ 100220e4     libvcruntime:undname.obj
 0002:0000210c       ??_C@_0CG@HLDDJMAG@?$GAeh?5vector?5copy?5constructor?5ite@ 1002210c     libvcruntime:undname.obj
 0002:00002134       ??_C@_0CM@FCBBDIGB@?$GAeh?5vector?5vbase?5copy?5construct@ 10022134     libvcruntime:undname.obj
 0002:00002160       ??_C@_0BL@CLIPGLGB@?$GAdynamic?5initializer?5for?5?8@ 10022160     libvcruntime:undname.obj
 0002:0000217c       ??_C@_0CB@PDBIFEP@?$GAdynamic?5atexit?5destructor?5for?5@ 1002217c     libvcruntime:undname.obj
 0002:000021a0       ??_C@_0CD@CGAJBKEJ@?$GAvector?5copy?5constructor?5iterat@ 100221a0     libvcruntime:undname.obj
 0002:000021c4       ??_C@_0CJ@GJELGAMM@?$GAvector?5vbase?5copy?5constructor?5@ 100221c4     libvcruntime:undname.obj
 0002:000021f0       ??_C@_0CL@FGIJHLCE@?$GAmanaged?5vector?5copy?5constructo@ 100221f0     libvcruntime:undname.obj
 0002:0000221c       ??_C@_0BM@PMGGMLDN@?$GAlocal?5static?5thread?5guard?8@ 1002221c     libvcruntime:undname.obj
 0002:00002238       ??_C@_0N@BDNMDMOL@operator?5?$CC?$CC?5@ 10022238     libvcruntime:undname.obj
 0002:00002248       ??_C@_0BC@GGEBGALA@operator?5co_await@ 10022248     libvcruntime:undname.obj
 0002:0000225c       ??_C@_0M@GAAIMMOH@operator?$DM?$DN?$DO@ 1002225c     libvcruntime:undname.obj
 0002:00002268       ??_C@_0BC@DAFEJGAK@?5Type?5Descriptor?8@ 10022268     libvcruntime:undname.obj
 0002:0000227c       ??_C@_0BM@LDKODKLH@?5Base?5Class?5Descriptor?5at?5?$CI@ 1002227c     libvcruntime:undname.obj
 0002:00002298       ??_C@_0BD@LGICGFMM@?5Base?5Class?5Array?8@ 10022298     libvcruntime:undname.obj
 0002:000022ac       ??_C@_0BN@MECKDCOJ@?5Class?5Hierarchy?5Descriptor?8@ 100222ac     libvcruntime:undname.obj
 0002:000022cc       ??_C@_0BK@CFCOFLF@?5Complete?5Object?5Locator?8@ 100222cc     libvcruntime:undname.obj
 0002:000022e8       ??_C@_0BG@JNJLAMPM@?$GAanonymous?5namespace?8@ 100222e8     libvcruntime:undname.obj
 0002:0000230c       ??_C@_1DM@KHCHBNEB@?$AAa?$AAp?$AAi?$AA?9?$AAm?$AAs?$AA?9?$AAw?$AAi?$AAn?$AA?9?$AAc?$AAo?$AAr?$AAe@ 1002230c     libvcruntime:winapi_downlevel.obj
 0002:00002348       ??_C@_1DK@LPPGFMPP@?$AAa?$AAp?$AAi?$AA?9?$AAm?$AAs?$AA?9?$AAw?$AAi?$AAn?$AA?9?$AAc?$AAo?$AAr?$AAe@ 10022348     libvcruntime:winapi_downlevel.obj
 0002:00002384       ??_C@_1BC@GDMECMAK@?$AAk?$AAe?$AAr?$AAn?$AAe?$AAl?$AA3?$AA2@ 10022384     libvcruntime:winapi_downlevel.obj
 0002:00002398       ??_C@_1BA@PFFKHIOG@?$AAa?$AAp?$AAi?$AA?9?$AAm?$AAs?$AA?9@ 10022398     libvcruntime:winapi_downlevel.obj
 0002:000023b0       ??_C@_08KNHFBNJ@FlsAlloc@  100223b0     libvcruntime:winapi_downlevel.obj
 0002:000023c4       ??_C@_07PEJMOBNF@FlsFree@  100223c4     libvcruntime:winapi_downlevel.obj
 0002:000023d4       ??_C@_0M@GDNOONDI@FlsGetValue@ 100223d4     libvcruntime:winapi_downlevel.obj
 0002:000023e8       ??_C@_0M@JCPCPOEF@FlsSetValue@ 100223e8     libvcruntime:winapi_downlevel.obj
 0002:000023fc       ??_C@_0BM@HCFOFFN@InitializeCriticalSectionEx@ 100223fc     libvcruntime:winapi_downlevel.obj
 0002:00002580       ?format_validation_lookup_table_spectre@__crt_stdio_output@@3V?$spectre_mitigated_lookup_table@Ustate_transition_pair@__crt_stdio_output@@$0IA@@1@B 10022580     libucrt:output.obj
 0002:00002980       ??_C@_1O@CEDCILHN@?$AA?$CI?$AAn?$AAu?$AAl?$AAl?$AA?$CJ@ 10022980     libucrt:output.obj
 0002:00002990       ??_C@_06OJHGLDPL@?$CInull?$CJ@ 10022990     libucrt:output.obj
 0002:00002998       ___acrt_exception_action_table 10022998     libucrt:exception_filter.obj
 0002:00002a28       ___acrt_signal_action_table_count 10022a28     libucrt:exception_filter.obj
 0002:00002a2c       ___acrt_signal_action_first_fpe_index 10022a2c     libucrt:exception_filter.obj
 0002:00002a30       ___acrt_signal_action_fpe_count 10022a30     libucrt:exception_filter.obj
 0002:00002a34       ??_C@_1BI@BGOHAHKC@?$AAm?$AAs?$AAc?$AAo?$AAr?$AAe?$AAe?$AA?4?$AAd?$AAl?$AAl@ 10022a34     libucrt:exit.obj
 0002:00002a4c       ??_C@_0P@MIGLKIOC@CorExitProcess@ 10022a4c     libucrt:exit.obj
 0002:00002b30       ??_C@_1EA@JGEFHKEI@?$AAa?$AAp?$AAi?$AA?9?$AAm?$AAs?$AA?9?$AAw?$AAi?$AAn?$AA?9?$AAc?$AAo?$AAr?$AAe@ 10022b30     libucrt:winapi_thunks.obj
 0002:00002b70       ??_C@_1DI@IJCEHOCB@?$AAa?$AAp?$AAi?$AA?9?$AAm?$AAs?$AA?9?$AAw?$AAi?$AAn?$AA?9?$AAc?$AAo?$AAr?$AAe@ 10022b70     libucrt:winapi_thunks.obj
 0002:00002ba8       ??_C@_1EI@MPIAOHOC@?$AAa?$AAp?$AAi?$AA?9?$AAm?$AAs?$AA?9?$AAw?$AAi?$AAn?$AA?9?$AAc?$AAo?$AAr?$AAe@ 10022ba8     libucrt:winapi_thunks.obj
 0002:00002bf0       ??_C@_1FK@FPHCKFIE@?$AAa?$AAp?$AAi?$AA?9?$AAm?$AAs?$AA?9?$AAw?$AAi?$AAn?$AA?9?$AAc?$AAo?$AAr?$AAe@ 10022bf0     libucrt:winapi_thunks.obj
 0002:00002c50       ??_C@_1EM@DILCGIIO@?$AAa?$AAp?$AAi?$AA?9?$AAm?$AAs?$AA?9?$AAw?$AAi?$AAn?$AA?9?$AAc?$AAo?$AAr?$AAe@ 10022c50     libucrt:winapi_thunks.obj
 0002:00002c9c       ??_C@_1DM@LNCGDDPN@?$AAa?$AAp?$AAi?$AA?9?$AAm?$AAs?$AA?9?$AAw?$AAi?$AAn?$AA?9?$AAc?$AAo?$AAr?$AAe@ 10022c9c     libucrt:winapi_thunks.obj
 0002:00002cd8       ??_C@_1DO@FPAPJEMD@?$AAa?$AAp?$AAi?$AA?9?$AAm?$AAs?$AA?9?$AAw?$AAi?$AAn?$AA?9?$AAc?$AAo?$AAr?$AAe@ 10022cd8     libucrt:winapi_thunks.obj
 0002:00002d18       ??_C@_1DK@NDHNAHIO@?$AAa?$AAp?$AAi?$AA?9?$AAm?$AAs?$AA?9?$AAw?$AAi?$AAn?$AA?9?$AAc?$AAo?$AAr?$AAe@ 10022d18     libucrt:winapi_thunks.obj
 0002:00002d54       ??_C@_1DM@KGHDGBCM@?$AAa?$AAp?$AAi?$AA?9?$AAm?$AAs?$AA?9?$AAw?$AAi?$AAn?$AA?9?$AAc?$AAo?$AAr?$AAe@ 10022d54     libucrt:winapi_thunks.obj
 0002:00002d90       ??_C@_1EO@IJIOEFOH@?$AAa?$AAp?$AAi?$AA?9?$AAm?$AAs?$AA?9?$AAw?$AAi?$AAn?$AA?9?$AAr?$AAt?$AAc?$AAo@ 10022d90     libucrt:winapi_thunks.obj
 0002:00002de0       ??_C@_1FG@HHGEKANL@?$AAa?$AAp?$AAi?$AA?9?$AAm?$AAs?$AA?9?$AAw?$AAi?$AAn?$AA?9?$AAs?$AAe?$AAc?$AAu@ 10022de0     libucrt:winapi_thunks.obj
 0002:00002e38       ??_C@_1EG@DBIOJECG@?$AAe?$AAx?$AAt?$AA?9?$AAm?$AAs?$AA?9?$AAw?$AAi?$AAn?$AA?9?$AAn?$AAt?$AAu?$AAs@ 10022e38     libucrt:winapi_thunks.obj
 0002:00002e80       ??_C@_1EO@FIHMJCLF@?$AAe?$AAx?$AAt?$AA?9?$AAm?$AAs?$AA?9?$AAw?$AAi?$AAn?$AA?9?$AAn?$AAt?$AAu?$AAs@ 10022e80     libucrt:winapi_thunks.obj
 0002:00002ed0       ??_C@_1BC@DNHGCMLG@?$AAa?$AAd?$AAv?$AAa?$AAp?$AAi?$AA3?$AA2@ 10022ed0     libucrt:winapi_thunks.obj
 0002:00002ee4       ??_C@_1M@OAIMIKLP@?$AAn?$AAt?$AAd?$AAl?$AAl@ 10022ee4     libucrt:winapi_thunks.obj
 0002:00002ef0       ??_C@_1EG@DPGNFKGC@?$AAa?$AAp?$AAi?$AA?9?$AAm?$AAs?$AA?9?$AAw?$AAi?$AAn?$AA?9?$AAa?$AAp?$AAp?$AAm@ 10022ef0     libucrt:winapi_thunks.obj
 0002:00002f38       ??_C@_1O@BCCLBEOE@?$AAu?$AAs?$AAe?$AAr?$AA3?$AA2@ 10022f38     libucrt:winapi_thunks.obj
 0002:00002f48       ??_C@_1BA@IAIFMGEF@?$AAe?$AAx?$AAt?$AA?9?$AAm?$AAs?$AA?9@ 10022f48     libucrt:winapi_thunks.obj
 0002:00002f5c       ??_C@_0BA@FHFNEAED@AreFileApisANSI@ 10022f5c     libucrt:winapi_thunks.obj
 0002:00002f9c       ??_C@_0O@KKBNKAPF@LCMapStringEx@ 10022f9c     libucrt:winapi_thunks.obj
 0002:00002fb4       ??_C@_0BB@HBDEELFH@LocaleNameToLCID@ 10022fb4     libucrt:winapi_thunks.obj
 0002:00002fcc       ??_C@_0CF@OJOFEIGO@AppPolicyGetProcessTerminationM@ 10022fcc     libucrt:winapi_thunks.obj
 0002:00002ffc       ??_C@_0BI@BKLFFAPO@SetThreadStackGuarantee@ 10022ffc     libucrt:winapi_thunks.obj
 0002:00003058       ??_C@_03OEIAHPBN@INF@      10023058     libucrt:cvt.obj
 0002:0000305c       ??_C@_03OJHLLCGB@inf@      1002305c     libucrt:cvt.obj
 0002:00003060       ??_C@_03LKNCIKJB@NAN@      10023060     libucrt:cvt.obj
 0002:00003064       ??_C@_03LHCJEHON@nan@      10023064     libucrt:cvt.obj
 0002:00003068       ??_C@_09OFJJIMPC@NAN?$CISNAN?$CJ@ 10023068     libucrt:cvt.obj
 0002:00003074       ??_C@_09IPFBKMDL@nan?$CIsnan?$CJ@ 10023074     libucrt:cvt.obj
 0002:00003080       ??_C@_08IKHNHAJ@NAN?$CIIND?$CJ@ 10023080     libucrt:cvt.obj
 0002:0000308c       ??_C@_08OFCDMILK@nan?$CIind?$CJ@ 1002308c     libucrt:cvt.obj
 0002:00003098       ??_C@_05KLBDPFGC@e?$CL000@ 10023098     libucrt:cvt.obj
 0002:000030a0       ___lc_time_c               100230a0     libucrt:nlsdata.obj
 0002:00003204       ??_C@_03KOEHGMDN@Sun@      10023204     libucrt:nlsdata.obj
 0002:00003208       ??_C@_03PDAGKDH@Mon@       10023208     libucrt:nlsdata.obj
 0002:0000320c       ??_C@_03NAGEINEP@Tue@      1002320c     libucrt:nlsdata.obj
 0002:00003210       ??_C@_03MHOMLAJA@Wed@      10023210     libucrt:nlsdata.obj
 0002:00003214       ??_C@_03IOFIKPDN@Thu@      10023214     libucrt:nlsdata.obj
 0002:00003218       ??_C@_03IDIOELNC@Fri@      10023218     libucrt:nlsdata.obj
 0002:0000321c       ??_C@_03FEFJNEK@Sat@       1002321c     libucrt:nlsdata.obj
 0002:00003220       ??_C@_06OOPIFAJ@Sunday@    10023220     libucrt:nlsdata.obj
 0002:00003228       ??_C@_06JLEDEDGH@Monday@   10023228     libucrt:nlsdata.obj
 0002:00003230       ??_C@_07BAAGCFCM@Tuesday@  10023230     libucrt:nlsdata.obj
 0002:00003238       ??_C@_09DLIGFAKA@Wednesday@ 10023238     libucrt:nlsdata.obj
 0002:00003244       ??_C@_08HACCIKIA@Thursday@ 10023244     libucrt:nlsdata.obj
 0002:00003250       ??_C@_06JECMNKMI@Friday@   10023250     libucrt:nlsdata.obj
 0002:00003258       ??_C@_08INBOOONO@Saturday@ 10023258     libucrt:nlsdata.obj
 0002:00003264       ??_C@_03JIHJHPIE@Jan@      10023264     libucrt:nlsdata.obj
 0002:00003268       ??_C@_03HJBDCHOM@Feb@      10023268     libucrt:nlsdata.obj
 0002:0000326c       ??_C@_03ODNJBKGA@Mar@      1002326c     libucrt:nlsdata.obj
 0002:00003270       ??_C@_03LEOLGMJP@Apr@      10023270     libucrt:nlsdata.obj
 0002:00003274       ??_C@_03CNMDKL@May@        10023274     libucrt:nlsdata.obj
 0002:00003278       ??_C@_03IDFGHECI@Jun@      10023278     libucrt:nlsdata.obj
 0002:0000327c       ??_C@_03LBGABGKK@Jul@      1002327c     libucrt:nlsdata.obj
 0002:00003280       ??_C@_03IFJFEIGA@Aug@      10023280     libucrt:nlsdata.obj
 0002:00003284       ??_C@_03GGCAPAJC@Sep@      10023284     libucrt:nlsdata.obj
 0002:00003288       ??_C@_03BMAOKBAD@Oct@      10023288     libucrt:nlsdata.obj
 0002:0000328c       ??_C@_03JPJOFNIA@Nov@      1002328c     libucrt:nlsdata.obj
 0002:00003290       ??_C@_03MKABNOCG@Dec@      10023290     libucrt:nlsdata.obj
 0002:00003294       ??_C@_07CGJPFGJA@January@  10023294     libucrt:nlsdata.obj
 0002:0000329c       ??_C@_08GNJGEPFN@February@ 1002329c     libucrt:nlsdata.obj
 0002:000032a8       ??_C@_05HPCKOFNC@March@    100232a8     libucrt:nlsdata.obj
 0002:000032b0       ??_C@_05DMJDNLEJ@April@    100232b0     libucrt:nlsdata.obj
 0002:000032b8       ??_C@_04CNLMGBGM@June@     100232b8     libucrt:nlsdata.obj
 0002:000032c0       ??_C@_04MIEPOIFP@July@     100232c0     libucrt:nlsdata.obj
 0002:000032c8       ??_C@_06LBBHFDDG@August@   100232c8     libucrt:nlsdata.obj
 0002:000032d0       ??_C@_09BHHEALKD@September@ 100232d0     libucrt:nlsdata.obj
 0002:000032dc       ??_C@_07JJNFCEND@October@  100232dc     libucrt:nlsdata.obj
 0002:000032e4       ??_C@_08HCHEGEOA@November@ 100232e4     libucrt:nlsdata.obj
 0002:000032f0       ??_C@_08EDHMEBNP@December@ 100232f0     libucrt:nlsdata.obj
 0002:000032fc       ??_C@_02DEDBPAFC@AM@       100232fc     libucrt:nlsdata.obj
 0002:00003300       ??_C@_02CJNFDJBF@PM@       10023300     libucrt:nlsdata.obj
 0002:00003304       ??_C@_08BPBNCDIB@MM?1dd?1yy@ 10023304     libucrt:nlsdata.obj
 0002:00003310       ??_C@_0BE@CKGJFCPC@dddd?0?5MMMM?5dd?0?5yyyy@ 10023310     libucrt:nlsdata.obj
 0002:00003324       ??_C@_08JCCMCCIL@HH?3mm?3ss@ 10023324     libucrt:nlsdata.obj
 0002:00003330       ??_C@_17MBGCMIPB@?$AAS?$AAu?$AAn@ 10023330     libucrt:nlsdata.obj
 0002:00003338       ??_C@_17KBOMKBF@?$AAM?$AAo?$AAn@ 10023338     libucrt:nlsdata.obj
 0002:00003340       ??_C@_17BMKGEGOJ@?$AAT?$AAu?$AAe@ 10023340     libucrt:nlsdata.obj
 0002:00003348       ??_C@_17CJEDCEPE@?$AAW?$AAe?$AAd@ 10023348     libucrt:nlsdata.obj
 0002:00003350       ??_C@_17PDPHAADD@?$AAT?$AAh?$AAu@ 10023350     libucrt:nlsdata.obj
 0002:00003358       ??_C@_17HFOLPPLP@?$AAF?$AAr?$AAi@ 10023358     libucrt:nlsdata.obj
 0002:00003360       ??_C@_17GGIBDPIH@?$AAS?$AAa?$AAt@ 10023360     libucrt:nlsdata.obj
 0002:00003368       ??_C@_1O@IHNHDHPB@?$AAS?$AAu?$AAn?$AAd?$AAa?$AAy@ 10023368     libucrt:nlsdata.obj
 0002:00003378       ??_C@_1O@MMNBFLIA@?$AAM?$AAo?$AAn?$AAd?$AAa?$AAy@ 10023378     libucrt:nlsdata.obj
 0002:00003388       ??_C@_1BA@ENFBFFEK@?$AAT?$AAu?$AAe?$AAs?$AAd?$AAa?$AAy@ 10023388     libucrt:nlsdata.obj
 0002:00003398       ??_C@_1BE@EBOGMDOH@?$AAW?$AAe?$AAd?$AAn?$AAe?$AAs?$AAd?$AAa?$AAy@ 10023398     libucrt:nlsdata.obj
 0002:000033ac       ??_C@_1BC@HHMNLIHE@?$AAT?$AAh?$AAu?$AAr?$AAs?$AAd?$AAa?$AAy@ 100233ac     libucrt:nlsdata.obj
 0002:000033c0       ??_C@_1O@PDICJHAG@?$AAF?$AAr?$AAi?$AAd?$AAa?$AAy@ 100233c0     libucrt:nlsdata.obj
 0002:000033d0       ??_C@_1BC@ENMNNPAJ@?$AAS?$AAa?$AAt?$AAu?$AAr?$AAd?$AAa?$AAy@ 100233d0     libucrt:nlsdata.obj
 0002:000033e4       ??_C@_17DKNBKCHM@?$AAJ?$AAa?$AAn@ 100233e4     libucrt:nlsdata.obj
 0002:000033ec       ??_C@_17LMDJEKJN@?$AAF?$AAe?$AAb@ 100233ec     libucrt:nlsdata.obj
 0002:000033f4       ??_C@_17CKNLEDEC@?$AAM?$AAa?$AAr@ 100233f4     libucrt:nlsdata.obj
 0002:000033fc       ??_C@_17LFPOIHDD@?$AAA?$AAp?$AAr@ 100233fc     libucrt:nlsdata.obj
 0002:00003404       ??_C@_17PNNKMEED@?$AAM?$AAa?$AAy@ 10023404     libucrt:nlsdata.obj
 0002:0000340c       ??_C@_17KCJGOCPB@?$AAJ?$AAu?$AAn@ 1002340c     libucrt:nlsdata.obj
 0002:00003414       ??_C@_17IJPCKHK@?$AAJ?$AAu?$AAl@ 10023414     libucrt:nlsdata.obj
 0002:0000341c       ??_C@_17ICPELBCN@?$AAA?$AAu?$AAg@ 1002341c     libucrt:nlsdata.obj
 0002:00003424       ??_C@_17HCHCOKMG@?$AAS?$AAe?$AAp@ 10023424     libucrt:nlsdata.obj
 0002:0000342c       ??_C@_17FNLKOI@?$AAO?$AAc?$AAt@ 1002342c     libucrt:nlsdata.obj
 0002:00003434       ??_C@_17BBDMLCIG@?$AAN?$AAo?$AAv@ 10023434     libucrt:nlsdata.obj
 0002:0000343c       ??_C@_17EGKACKIF@?$AAD?$AAe?$AAc@ 1002343c     libucrt:nlsdata.obj
 0002:00003444       ??_C@_1BA@EFMEIEBA@?$AAJ?$AAa?$AAn?$AAu?$AAa?$AAr?$AAy@ 10023444     libucrt:nlsdata.obj
 0002:00003454       ??_C@_1BC@JGDDFFAM@?$AAF?$AAe?$AAb?$AAr?$AAu?$AAa?$AAr?$AAy@ 10023454     libucrt:nlsdata.obj
 0002:00003468       ??_C@_1M@IKEENEDF@?$AAM?$AAa?$AAr?$AAc?$AAh@ 10023468     libucrt:nlsdata.obj
 0002:00003474       ??_C@_1M@GJNLMHFD@?$AAA?$AAp?$AAr?$AAi?$AAl@ 10023474     libucrt:nlsdata.obj
 0002:00003480       ??_C@_19EPFLPGAP@?$AAJ?$AAu?$AAn?$AAe@ 10023480     libucrt:nlsdata.obj
 0002:0000348c       ??_C@_19BIFMLPCD@?$AAJ?$AAu?$AAl?$AAy@ 1002348c     libucrt:nlsdata.obj
 0002:00003498       ??_C@_1O@PAHLKOAC@?$AAA?$AAu?$AAg?$AAu?$AAs?$AAt@ 10023498     libucrt:nlsdata.obj
 0002:000034a8       ??_C@_1BE@DKAAMBJL@?$AAS?$AAe?$AAp?$AAt?$AAe?$AAm?$AAb?$AAe?$AAr@ 100234a8     libucrt:nlsdata.obj
 0002:000034bc       ??_C@_1BA@EPANDLNG@?$AAO?$AAc?$AAt?$AAo?$AAb?$AAe?$AAr@ 100234bc     libucrt:nlsdata.obj
 0002:000034cc       ??_C@_1BC@BGLIFPF@?$AAN?$AAo?$AAv?$AAe?$AAm?$AAb?$AAe?$AAr@ 100234cc     libucrt:nlsdata.obj
 0002:000034e0       ??_C@_1BC@FEMKIFH@?$AAD?$AAe?$AAc?$AAe?$AAm?$AAb?$AAe?$AAr@ 100234e0     libucrt:nlsdata.obj
 0002:000034f4       ??_C@_15ODEHAHHF@?$AAA?$AAM@ 100234f4     libucrt:nlsdata.obj
 0002:000034fc       ??_C@_15CLMNNGEL@?$AAP?$AAM@ 100234fc     libucrt:nlsdata.obj
 0002:00003504       ??_C@_1BC@IEBCMHCM@?$AAM?$AAM?$AA?1?$AAd?$AAd?$AA?1?$AAy?$AAy@ 10023504     libucrt:nlsdata.obj
 0002:00003518       ??_C@_1CI@KNAKOEBC@?$AAd?$AAd?$AAd?$AAd?$AA?0?$AA?5?$AAM?$AAM?$AAM?$AAM?$AA?5?$AAd?$AAd?$AA?0?$AA?5@ 10023518     libucrt:nlsdata.obj
 0002:00003540       ??_C@_1BC@GDGBMEMK@?$AAH?$AAH?$AA?3?$AAm?$AAm?$AA?3?$AAs?$AAs@ 10023540     libucrt:nlsdata.obj
 0002:00003554       ??_C@_1M@BMHNFIME@?$AAe?$AAn?$AA?9?$AAU?$AAS@ 10023554     libucrt:nlsdata.obj
 0002:00003570       ??_C@_1M@HPNHIDJI@?$AAj?$AAa?$AA?9?$AAJ?$AAP@ 10023570     libucrt:mbctype.obj
 0002:0000357c       ??_C@_1M@BIBDDEMK@?$AAz?$AAh?$AA?9?$AAC?$AAN@ 1002357c     libucrt:mbctype.obj
 0002:00003588       ??_C@_1M@JLOOOEGK@?$AAk?$AAo?$AA?9?$AAK?$AAR@ 10023588     libucrt:mbctype.obj
 0002:00003594       ??_C@_1M@CLNBBOPM@?$AAz?$AAh?$AA?9?$AAT?$AAW@ 10023594     libucrt:mbctype.obj
 0002:000035a0       ___newctype                100235a0     libucrt:ctype.obj
 0002:000038a0       ___newclmap                100238a0     libucrt:ctype.obj
 0002:00003a20       ___newcumap                10023a20     libucrt:ctype.obj
 0002:00003ba0       __wctype                   10023ba0     libucrt:ctype.obj
 0002:000044c8       ??_C@_15EMKDOKLE@?$AAa?$AAr@ 100244c8     libucrt:lcidtoname_downlevel.obj
 0002:000044d0       ??_C@_15KNPADPLH@?$AAb?$AAg@ 100244d0     libucrt:lcidtoname_downlevel.obj
 0002:000044d8       ??_C@_15EDMHLDMO@?$AAc?$AAa@ 100244d8     libucrt:lcidtoname_downlevel.obj
 0002:000044e0       ??_C@_1O@BPEAJADD@?$AAz?$AAh?$AA?9?$AAC?$AAH?$AAS@ 100244e0     libucrt:lcidtoname_downlevel.obj
 0002:000044f0       ??_C@_15LJNHCMNK@?$AAc?$AAs@ 100244f0     libucrt:lcidtoname_downlevel.obj
 0002:000044f8       ??_C@_15FOMCIDHG@?$AAd?$AAa@ 100244f8     libucrt:lcidtoname_downlevel.obj
 0002:00004500       ??_C@_15NBKABECB@?$AAd?$AAe@ 10024500     libucrt:lcidtoname_downlevel.obj
 0002:00004508       ??_C@_15GHPEIIAO@?$AAe?$AAl@ 10024508     libucrt:lcidtoname_downlevel.obj
 0002:00004510       ??_C@_15MNPNEAIF@?$AAe?$AAn@ 10024510     libucrt:lcidtoname_downlevel.obj
 0002:00004518       ??_C@_15GPIOMPMH@?$AAe?$AAs@ 10024518     libucrt:lcidtoname_downlevel.obj
 0002:00004520       ??_C@_15NGLOAKJC@?$AAf?$AAi@ 10024520     libucrt:lcidtoname_downlevel.obj
 0002:00004528       ??_C@_15FBKGNKAM@?$AAf?$AAr@ 10024528     libucrt:lcidtoname_downlevel.obj
 0002:00004530       ??_C@_15KGGCNEFK@?$AAh?$AAe@ 10024530     libucrt:lcidtoname_downlevel.obj
 0002:00004538       ??_C@_15PGHLIDMF@?$AAh?$AAu@ 10024538     libucrt:lcidtoname_downlevel.obj
 0002:00004540       ??_C@_15BIEMAPLM@?$AAi?$AAs@ 10024540     libucrt:lcidtoname_downlevel.obj
 0002:00004548       ??_C@_15IFJLDHAF@?$AAi?$AAt@ 10024548     libucrt:lcidtoname_downlevel.obj
 0002:00004550       ??_C@_15GEMIOCAG@?$AAj?$AAa@ 10024550     libucrt:lcidtoname_downlevel.obj
 0002:00004558       ??_C@_15EPELEGJA@?$AAk?$AAo@ 10024558     libucrt:lcidtoname_downlevel.obj
 0002:00004560       ??_C@_15NDDHIMN@?$AAn?$AAl@ 10024560     libucrt:lcidtoname_downlevel.obj
 0002:00004568       ??_C@_15BPIGNHCD@?$AAn?$AAo@ 10024568     libucrt:lcidtoname_downlevel.obj
 0002:00004570       ??_C@_15DEOPBLCG@?$AAp?$AAl@ 10024570     libucrt:lcidtoname_downlevel.obj
 0002:00004578       ??_C@_15KBECGEFG@?$AAp?$AAt@ 10024578     libucrt:lcidtoname_downlevel.obj
 0002:00004580       ??_C@_15GLJCBFMD@?$AAr?$AAo@ 10024580     libucrt:lcidtoname_downlevel.obj
 0002:00004588       ??_C@_15FEDGKCDI@?$AAr?$AAu@ 10024588     libucrt:lcidtoname_downlevel.obj
 0002:00004590       ??_C@_15GLKMLLHM@?$AAh?$AAr@ 10024590     libucrt:lcidtoname_downlevel.obj
 0002:00004598       ??_C@_15CPKMFBDB@?$AAs?$AAk@ 10024598     libucrt:lcidtoname_downlevel.obj
 0002:000045a0       ??_C@_15BAAIOGMK@?$AAs?$AAq@ 100245a0     libucrt:lcidtoname_downlevel.obj
 0002:000045a8       ??_C@_15INNPNOHD@?$AAs?$AAv@ 100245a8     libucrt:lcidtoname_downlevel.obj
 0002:000045b0       ??_C@_15CABMMOGH@?$AAt?$AAh@ 100245b0     libucrt:lcidtoname_downlevel.obj
 0002:000045b8       ??_C@_15BPLIHJJM@?$AAt?$AAr@ 100245b8     libucrt:lcidtoname_downlevel.obj
 0002:000045c0       ??_C@_15NEOEKKDJ@?$AAu?$AAr@ 100245c0     libucrt:lcidtoname_downlevel.obj
 0002:000045c8       ??_C@_15NFICGAJK@?$AAi?$AAd@ 100245c8     libucrt:lcidtoname_downlevel.obj
 0002:000045d0       ??_C@_15PJPFLCCM@?$AAu?$AAk@ 100245d0     libucrt:lcidtoname_downlevel.obj
 0002:000045d8       ??_C@_15HPJPHDM@?$AAb?$AAe@ 100245d8     libucrt:lcidtoname_downlevel.obj
 0002:000045e0       ??_C@_15LCHLGJII@?$AAs?$AAl@ 100245e0     libucrt:lcidtoname_downlevel.obj
 0002:000045e8       ??_C@_15PCFJPHHO@?$AAe?$AAt@ 100245e8     libucrt:lcidtoname_downlevel.obj
 0002:000045f0       ??_C@_15HPFPGODN@?$AAl?$AAv@ 100245f0     libucrt:lcidtoname_downlevel.obj
 0002:000045f8       ??_C@_15NFFGKGLG@?$AAl?$AAt@ 100245f8     libucrt:lcidtoname_downlevel.obj
 0002:00004600       ??_C@_15BDAKCCHN@?$AAf?$AAa@ 10024600     libucrt:lcidtoname_downlevel.obj
 0002:00004608       ??_C@_15NFGIAIAJ@?$AAv?$AAi@ 10024608     libucrt:lcidtoname_downlevel.obj
 0002:00004610       ??_C@_15LMKNDMHN@?$AAh?$AAy@ 10024610     libucrt:lcidtoname_downlevel.obj
 0002:00004618       ??_C@_15IJBHMCFL@?$AAa?$AAz@ 10024618     libucrt:lcidtoname_downlevel.obj
 0002:00004620       ??_C@_15EKOFJABL@?$AAe?$AAu@ 10024620     libucrt:lcidtoname_downlevel.obj
 0002:00004628       ??_C@_15BGHADCNK@?$AAm?$AAk@ 10024628     libucrt:lcidtoname_downlevel.obj
 0002:00004630       ??_C@_15JDNICKHM@?$AAa?$AAf@ 10024630     libucrt:lcidtoname_downlevel.obj
 0002:00004638       ??_C@_15KPJEDBKD@?$AAk?$AAa@ 10024638     libucrt:lcidtoname_downlevel.obj
 0002:00004640       ??_C@_15PDNFFFEO@?$AAf?$AAo@ 10024640     libucrt:lcidtoname_downlevel.obj
 0002:00004648       ??_C@_15OMLEGLOC@?$AAh?$AAi@ 10024648     libucrt:lcidtoname_downlevel.obj
 0002:00004650       ??_C@_15IDNNENKK@?$AAm?$AAs@ 10024650     libucrt:lcidtoname_downlevel.obj
 0002:00004658       ??_C@_15MACJNBMH@?$AAk?$AAk@ 10024658     libucrt:lcidtoname_downlevel.obj
 0002:00004660       ??_C@_15DKDJEOND@?$AAk?$AAy@ 10024660     libucrt:lcidtoname_downlevel.obj
 0002:00004668       ??_C@_15DFGDLJBG@?$AAs?$AAw@ 10024668     libucrt:lcidtoname_downlevel.obj
 0002:00004670       ??_C@_15BBFAICNG@?$AAu?$AAz@ 10024670     libucrt:lcidtoname_downlevel.obj
 0002:00004678       ??_C@_15DKNDCGEA@?$AAt?$AAt@ 10024678     libucrt:lcidtoname_downlevel.obj
 0002:00004680       ??_C@_15MGIFMDPL@?$AAp?$AAa@ 10024680     libucrt:lcidtoname_downlevel.obj
 0002:00004688       ??_C@_15HCNDBBA@?$AAg?$AAu@ 10024688     libucrt:lcidtoname_downlevel.obj
 0002:00004690       ??_C@_15FNBEIBON@?$AAt?$AAa@ 10024690     libucrt:lcidtoname_downlevel.obj
 0002:00004698       ??_C@_15NCHGBGLK@?$AAt?$AAe@ 10024698     libucrt:lcidtoname_downlevel.obj
 0002:000046a0       ??_C@_15PHPHCBPF@?$AAk?$AAn@ 100246a0     libucrt:lcidtoname_downlevel.obj
 0002:000046a8       ??_C@_15DLGBCKMP@?$AAm?$AAr@ 100246a8     libucrt:lcidtoname_downlevel.obj
 0002:000046b0       ??_C@_15EABBLBFF@?$AAs?$AAa@ 100246b0     libucrt:lcidtoname_downlevel.obj
 0002:000046b8       ??_C@_15CBKOMCOI@?$AAm?$AAn@ 100246b8     libucrt:lcidtoname_downlevel.obj
 0002:000046c0       ??_C@_15CKDMCJAF@?$AAg?$AAl@ 100246c0     libucrt:lcidtoname_downlevel.obj
 0002:000046c8       ??_C@_17CNJFBPG@?$AAk?$AAo?$AAk@ 100246c8     libucrt:lcidtoname_downlevel.obj
 0002:000046d0       ??_C@_17FFBJICPL@?$AAs?$AAy?$AAr@ 100246d0     libucrt:lcidtoname_downlevel.obj
 0002:000046d8       ??_C@_17KPNDCPAF@?$AAd?$AAi?$AAv@ 100246d8     libucrt:lcidtoname_downlevel.obj
 0002:000046e0       ??_C@_1M@OKAHONE@?$AAa?$AAr?$AA?9?$AAS?$AAA@ 100246e0     libucrt:lcidtoname_downlevel.obj
 0002:000046ec       ??_C@_1M@FFFIGIGK@?$AAb?$AAg?$AA?9?$AAB?$AAG@ 100246ec     libucrt:lcidtoname_downlevel.obj
 0002:000046f8       ??_C@_1M@BJNKEDC@?$AAc?$AAa?$AA?9?$AAE?$AAS@ 100246f8     libucrt:lcidtoname_downlevel.obj
 0002:00004704       ??_C@_1M@IJJHFJHA@?$AAc?$AAs?$AA?9?$AAC?$AAZ@ 10024704     libucrt:lcidtoname_downlevel.obj
 0002:00004710       ??_C@_1M@CLPEOBGI@?$AAd?$AAa?$AA?9?$AAD?$AAK@ 10024710     libucrt:lcidtoname_downlevel.obj
 0002:0000471c       ??_C@_1M@MCMADGCB@?$AAd?$AAe?$AA?9?$AAD?$AAE@ 1002471c     libucrt:lcidtoname_downlevel.obj
 0002:00004728       ??_C@_1M@OOCKEMAM@?$AAe?$AAl?$AA?9?$AAG?$AAR@ 10024728     libucrt:lcidtoname_downlevel.obj
 0002:00004734       ??_C@_1M@DDNJFGID@?$AAf?$AAi?$AA?9?$AAF?$AAI@ 10024734     libucrt:lcidtoname_downlevel.obj
 0002:00004740       ??_C@_1M@GLIPPMAC@?$AAf?$AAr?$AA?9?$AAF?$AAR@ 10024740     libucrt:lcidtoname_downlevel.obj
 0002:0000474c       ??_C@_1M@GFMCHPE@?$AAh?$AAe?$AA?9?$AAI?$AAL@ 1002474c     libucrt:lcidtoname_downlevel.obj
 0002:00004758       ??_C@_1M@MHLPGNKM@?$AAh?$AAu?$AA?9?$AAH?$AAU@ 10024758     libucrt:lcidtoname_downlevel.obj
 0002:00004764       ??_C@_1M@LPDDNNPN@?$AAi?$AAs?$AA?9?$AAI?$AAS@ 10024764     libucrt:lcidtoname_downlevel.obj
 0002:00004770       ??_C@_1M@MADIPODN@?$AAi?$AAt?$AA?9?$AAI?$AAT@ 10024770     libucrt:lcidtoname_downlevel.obj
 0002:0000477c       ??_C@_1M@IHBJJGG@?$AAn?$AAl?$AA?9?$AAN?$AAL@ 1002477c     libucrt:lcidtoname_downlevel.obj
 0002:00004788       ??_C@_1M@EANAGDL@?$AAn?$AAb?$AA?9?$AAN?$AAO@ 10024788     libucrt:lcidtoname_downlevel.obj
 0002:00004794       ??_C@_1M@NEIEMEGP@?$AAp?$AAl?$AA?9?$AAP?$AAL@ 10024794     libucrt:lcidtoname_downlevel.obj
 0002:000047a0       ??_C@_1M@BOCFIGEP@?$AAp?$AAt?$AA?9?$AAB?$AAR@ 100247a0     libucrt:lcidtoname_downlevel.obj
 0002:000047ac       ??_C@_1M@IMPFOPBG@?$AAr?$AAo?$AA?9?$AAR?$AAO@ 100247ac     libucrt:lcidtoname_downlevel.obj
 0002:000047b8       ??_C@_1M@IDNNEJMM@?$AAr?$AAu?$AA?9?$AAR?$AAU@ 100247b8     libucrt:lcidtoname_downlevel.obj
 0002:000047c4       ??_C@_1M@LILEEOGM@?$AAh?$AAr?$AA?9?$AAH?$AAR@ 100247c4     libucrt:lcidtoname_downlevel.obj
 0002:000047d0       ??_C@_1M@FKIFEHPB@?$AAs?$AAk?$AA?9?$AAS?$AAK@ 100247d0     libucrt:lcidtoname_downlevel.obj
 0002:000047dc       ??_C@_1M@LJMAMNPJ@?$AAs?$AAq?$AA?9?$AAA?$AAL@ 100247dc     libucrt:lcidtoname_downlevel.obj
 0002:000047e8       ??_C@_1M@GIAKDKJK@?$AAs?$AAv?$AA?9?$AAS?$AAE@ 100247e8     libucrt:lcidtoname_downlevel.obj
 0002:000047f4       ??_C@_1M@MKJKIKCL@?$AAt?$AAh?$AA?9?$AAT?$AAH@ 100247f4     libucrt:lcidtoname_downlevel.obj
 0002:00004800       ??_C@_1M@MFLCCMPB@?$AAt?$AAr?$AA?9?$AAT?$AAR@ 10024800     libucrt:lcidtoname_downlevel.obj
 0002:0000480c       ??_C@_1M@OIJHDKJN@?$AAu?$AAr?$AA?9?$AAP?$AAK@ 1002480c     libucrt:lcidtoname_downlevel.obj
 0002:00004818       ??_C@_1M@LHIPCIEK@?$AAi?$AAd?$AA?9?$AAI?$AAD@ 10024818     libucrt:lcidtoname_downlevel.obj
 0002:00004824       ??_C@_1M@MFMOBGI@?$AAu?$AAk?$AA?9?$AAU?$AAA@ 10024824     libucrt:lcidtoname_downlevel.obj
 0002:00004830       ??_C@_1M@OBGLJIPL@?$AAb?$AAe?$AA?9?$AAB?$AAY@ 10024830     libucrt:lcidtoname_downlevel.obj
 0002:0000483c       ??_C@_1M@BCFAJEAD@?$AAs?$AAl?$AA?9?$AAS?$AAI@ 1002483c     libucrt:lcidtoname_downlevel.obj
 0002:00004848       ??_C@_1M@FKFFEDDN@?$AAe?$AAt?$AA?9?$AAE?$AAE@ 10024848     libucrt:lcidtoname_downlevel.obj
 0002:00004854       ??_C@_1M@KGKKAACI@?$AAl?$AAv?$AA?9?$AAL?$AAV@ 10024854     libucrt:lcidtoname_downlevel.obj
 0002:00004860       ??_C@_1M@IFGBIJO@?$AAl?$AAt?$AA?9?$AAL?$AAT@ 10024860     libucrt:lcidtoname_downlevel.obj
 0002:0000486c       ??_C@_1M@FGEAHEDM@?$AAf?$AAa?$AA?9?$AAI?$AAR@ 1002486c     libucrt:lcidtoname_downlevel.obj
 0002:00004878       ??_C@_1M@KBMAIBFN@?$AAv?$AAi?$AA?9?$AAV?$AAN@ 10024878     libucrt:lcidtoname_downlevel.obj
 0002:00004884       ??_C@_1M@GPCBKDJK@?$AAh?$AAy?$AA?9?$AAA?$AAM@ 10024884     libucrt:lcidtoname_downlevel.obj
 0002:00004890       ??_C@_1BG@BECMDDJB@?$AAa?$AAz?$AA?9?$AAA?$AAZ?$AA?9?$AAL?$AAa?$AAt?$AAn@ 10024890     libucrt:lcidtoname_downlevel.obj
 0002:000048a8       ??_C@_1M@MAOFCAEA@?$AAe?$AAu?$AA?9?$AAE?$AAS@ 100248a8     libucrt:lcidtoname_downlevel.obj
 0002:000048b4       ??_C@_1M@IGHABKPI@?$AAm?$AAk?$AA?9?$AAM?$AAK@ 100248b4     libucrt:lcidtoname_downlevel.obj
 0002:000048c0       ??_C@_1M@IAIGNEJG@?$AAt?$AAn?$AA?9?$AAZ?$AAA@ 100248c0     libucrt:lcidtoname_downlevel.obj
 0002:000048cc       ??_C@_1M@IIJCOJFA@?$AAx?$AAh?$AA?9?$AAZ?$AAA@ 100248cc     libucrt:lcidtoname_downlevel.obj
 0002:000048d8       ??_C@_1M@LGPJHNJH@?$AAz?$AAu?$AA?9?$AAZ?$AAA@ 100248d8     libucrt:lcidtoname_downlevel.obj
 0002:000048e4       ??_C@_1M@HOKAOIO@?$AAa?$AAf?$AA?9?$AAZ?$AAA@ 100248e4     libucrt:lcidtoname_downlevel.obj
 0002:000048f0       ??_C@_1M@DPCLHLIE@?$AAk?$AAa?$AA?9?$AAG?$AAE@ 100248f0     libucrt:lcidtoname_downlevel.obj
 0002:000048fc       ??_C@_1M@BLKMHJBI@?$AAf?$AAo?$AA?9?$AAF?$AAO@ 100248fc     libucrt:lcidtoname_downlevel.obj
 0002:00004908       ??_C@_1M@LGGJAPPB@?$AAh?$AAi?$AA?9?$AAI?$AAN@ 10024908     libucrt:lcidtoname_downlevel.obj
 0002:00004914       ??_C@_1M@FIKPIHFE@?$AAm?$AAt?$AA?9?$AAM?$AAT@ 10024914     libucrt:lcidtoname_downlevel.obj
 0002:00004920       ??_C@_1M@HEGGPBFA@?$AAs?$AAe?$AA?9?$AAN?$AAO@ 10024920     libucrt:lcidtoname_downlevel.obj
 0002:0000492c       ??_C@_1M@EIBJEEPA@?$AAm?$AAs?$AA?9?$AAM?$AAY@ 1002492c     libucrt:lcidtoname_downlevel.obj
 0002:00004938       ??_C@_1M@FHLBGMPP@?$AAk?$AAk?$AA?9?$AAK?$AAZ@ 10024938     libucrt:lcidtoname_downlevel.obj
 0002:00004944       ??_C@_1M@NGJJLCGI@?$AAk?$AAy?$AA?9?$AAK?$AAG@ 10024944     libucrt:lcidtoname_downlevel.obj
 0002:00004950       ??_C@_1M@GIENNBFC@?$AAs?$AAw?$AA?9?$AAK?$AAE@ 10024950     libucrt:lcidtoname_downlevel.obj
 0002:0000495c       ??_C@_1BG@NDGMJIMJ@?$AAu?$AAz?$AA?9?$AAU?$AAZ?$AA?9?$AAL?$AAa?$AAt?$AAn@ 1002495c     libucrt:lcidtoname_downlevel.obj
 0002:00004974       ??_C@_1M@IDCCIHBC@?$AAt?$AAt?$AA?9?$AAR?$AAU@ 10024974     libucrt:lcidtoname_downlevel.obj
 0002:00004980       ??_C@_1M@LOICPMOJ@?$AAb?$AAn?$AA?9?$AAI?$AAN@ 10024980     libucrt:lcidtoname_downlevel.obj
 0002:0000498c       ??_C@_1M@KPKKNEAH@?$AAp?$AAa?$AA?9?$AAI?$AAN@ 1002498c     libucrt:lcidtoname_downlevel.obj
 0002:00004998       ??_C@_1M@PJGPPBOG@?$AAg?$AAu?$AA?9?$AAI?$AAN@ 10024998     libucrt:lcidtoname_downlevel.obj
 0002:000049a4       ??_C@_1M@KMKMOPHI@?$AAt?$AAa?$AA?9?$AAI?$AAN@ 100249a4     libucrt:lcidtoname_downlevel.obj
 0002:000049b0       ??_C@_1M@KFEHEPAC@?$AAt?$AAe?$AA?9?$AAI?$AAN@ 100249b0     libucrt:lcidtoname_downlevel.obj
 0002:000049bc       ??_C@_1M@CDCLMGHI@?$AAk?$AAn?$AA?9?$AAI?$AAN@ 100249bc     libucrt:lcidtoname_downlevel.obj
 0002:000049c8       ??_C@_1M@MIODLDKF@?$AAm?$AAl?$AA?9?$AAI?$AAN@ 100249c8     libucrt:lcidtoname_downlevel.obj
 0002:000049d4       ??_C@_1M@PBIEACPO@?$AAm?$AAr?$AA?9?$AAI?$AAN@ 100249d4     libucrt:lcidtoname_downlevel.obj
 0002:000049e0       ??_C@_1M@NIDEAGPH@?$AAs?$AAa?$AA?9?$AAI?$AAN@ 100249e0     libucrt:lcidtoname_downlevel.obj
 0002:000049ec       ??_C@_1M@FHIHCBIO@?$AAm?$AAn?$AA?9?$AAM?$AAN@ 100249ec     libucrt:lcidtoname_downlevel.obj
 0002:000049f8       ??_C@_1M@JAIJPENP@?$AAc?$AAy?$AA?9?$AAG?$AAB@ 100249f8     libucrt:lcidtoname_downlevel.obj
 0002:00004a04       ??_C@_1M@PHGFBEPN@?$AAg?$AAl?$AA?9?$AAE?$AAS@ 10024a04     libucrt:lcidtoname_downlevel.obj
 0002:00004a10       ??_C@_1O@KPIPDNCP@?$AAk?$AAo?$AAk?$AA?9?$AAI?$AAN@ 10024a10     libucrt:lcidtoname_downlevel.obj
 0002:00004a20       ??_C@_1O@KNHJLDJA@?$AAs?$AAy?$AAr?$AA?9?$AAS?$AAY@ 10024a20     libucrt:lcidtoname_downlevel.obj
 0002:00004a30       ??_C@_1O@MKEKBLAH@?$AAd?$AAi?$AAv?$AA?9?$AAM?$AAV@ 10024a30     libucrt:lcidtoname_downlevel.obj
 0002:00004a40       ??_C@_1O@OHDCKDDF@?$AAq?$AAu?$AAz?$AA?9?$AAB?$AAO@ 10024a40     libucrt:lcidtoname_downlevel.obj
 0002:00004a50       ??_C@_1M@LEPJNLFD@?$AAn?$AAs?$AA?9?$AAZ?$AAA@ 10024a50     libucrt:lcidtoname_downlevel.obj
 0002:00004a5c       ??_C@_1M@OMLEIIJB@?$AAm?$AAi?$AA?9?$AAN?$AAZ@ 10024a5c     libucrt:lcidtoname_downlevel.obj
 0002:00004a68       ??_C@_1M@PMPEAILG@?$AAa?$AAr?$AA?9?$AAI?$AAQ@ 10024a68     libucrt:lcidtoname_downlevel.obj
 0002:00004a74       ??_C@_1M@CNKPNOEE@?$AAd?$AAe?$AA?9?$AAC?$AAH@ 10024a74     libucrt:lcidtoname_downlevel.obj
 0002:00004a80       ??_C@_1M@LKMGMLKO@?$AAe?$AAn?$AA?9?$AAG?$AAB@ 10024a80     libucrt:lcidtoname_downlevel.obj
 0002:00004a8c       ??_C@_1M@PGKJFFGL@?$AAe?$AAs?$AA?9?$AAM?$AAX@ 10024a8c     libucrt:lcidtoname_downlevel.obj
 0002:00004a98       ??_C@_1M@DNNANBDC@?$AAf?$AAr?$AA?9?$AAB?$AAE@ 10024a98     libucrt:lcidtoname_downlevel.obj
 0002:00004aa4       ??_C@_1M@HLGMDFHM@?$AAi?$AAt?$AA?9?$AAC?$AAH@ 10024aa4     libucrt:lcidtoname_downlevel.obj
 0002:00004ab0       ??_C@_1M@CLLBGJH@?$AAn?$AAl?$AA?9?$AAB?$AAE@ 10024ab0     libucrt:lcidtoname_downlevel.obj
 0002:00004abc       ??_C@_1M@BODBOGLF@?$AAn?$AAn?$AA?9?$AAN?$AAO@ 10024abc     libucrt:lcidtoname_downlevel.obj
 0002:00004ac8       ??_C@_1M@HFFAHKAD@?$AAp?$AAt?$AA?9?$AAP?$AAT@ 10024ac8     libucrt:lcidtoname_downlevel.obj
 0002:00004ad4       ??_C@_1BG@LNOAKHIE@?$AAs?$AAr?$AA?9?$AAS?$AAP?$AA?9?$AAL?$AAa?$AAt?$AAn@ 10024ad4     libucrt:lcidtoname_downlevel.obj
 0002:00004aec       ??_C@_1M@HBMHBGAK@?$AAs?$AAv?$AA?9?$AAF?$AAI@ 10024aec     libucrt:lcidtoname_downlevel.obj
 0002:00004af8       ??_C@_1BG@DGCJGJBE@?$AAa?$AAz?$AA?9?$AAA?$AAZ?$AA?9?$AAC?$AAy?$AAr?$AAl@ 10024af8     libucrt:lcidtoname_downlevel.obj
 0002:00004b10       ??_C@_1M@KEJDAAHB@?$AAs?$AAe?$AA?9?$AAS?$AAE@ 10024b10     libucrt:lcidtoname_downlevel.obj
 0002:00004b1c       ??_C@_1M@HEIBJJAD@?$AAm?$AAs?$AA?9?$AAB?$AAN@ 10024b1c     libucrt:lcidtoname_downlevel.obj
 0002:00004b28       ??_C@_1BG@PBGJMCEM@?$AAu?$AAz?$AA?9?$AAU?$AAZ?$AA?9?$AAC?$AAy?$AAr?$AAl@ 10024b28     libucrt:lcidtoname_downlevel.obj
 0002:00004b40       ??_C@_1O@LAOBCMDF@?$AAq?$AAu?$AAz?$AA?9?$AAE?$AAC@ 10024b40     libucrt:lcidtoname_downlevel.obj
 0002:00004b50       ??_C@_1M@POEEMAIO@?$AAa?$AAr?$AA?9?$AAE?$AAG@ 10024b50     libucrt:lcidtoname_downlevel.obj
 0002:00004b5c       ??_C@_1M@EFAKDEDL@?$AAz?$AAh?$AA?9?$AAH?$AAK@ 10024b5c     libucrt:lcidtoname_downlevel.obj
 0002:00004b68       ??_C@_1M@HKKIJHGI@?$AAd?$AAe?$AA?9?$AAA?$AAT@ 10024b68     libucrt:lcidtoname_downlevel.obj
 0002:00004b74       ??_C@_1M@KBFBEHJF@?$AAe?$AAn?$AA?9?$AAA?$AAU@ 10024b74     libucrt:lcidtoname_downlevel.obj
 0002:00004b80       ??_C@_1M@MNPLFAAH@?$AAe?$AAs?$AA?9?$AAE?$AAS@ 10024b80     libucrt:lcidtoname_downlevel.obj
 0002:00004b8c       ??_C@_1M@HJOOJFMA@?$AAf?$AAr?$AA?9?$AAC?$AAA@ 10024b8c     libucrt:lcidtoname_downlevel.obj
 0002:00004b98       ??_C@_1BG@JPOFPNAB@?$AAs?$AAr?$AA?9?$AAS?$AAP?$AA?9?$AAC?$AAy?$AAr?$AAl@ 10024b98     libucrt:lcidtoname_downlevel.obj
 0002:00004bb0       ??_C@_1M@LNFOCMOB@?$AAs?$AAe?$AA?9?$AAF?$AAI@ 10024bb0     libucrt:lcidtoname_downlevel.obj
 0002:00004bbc       ??_C@_1O@MGJBOAMB@?$AAq?$AAu?$AAz?$AA?9?$AAP?$AAE@ 10024bbc     libucrt:lcidtoname_downlevel.obj
 0002:00004bcc       ??_C@_1M@GJINLBOK@?$AAa?$AAr?$AA?9?$AAL?$AAY@ 10024bcc     libucrt:lcidtoname_downlevel.obj
 0002:00004bd8       ??_C@_1M@GGMNHJNL@?$AAz?$AAh?$AA?9?$AAS?$AAG@ 10024bd8     libucrt:lcidtoname_downlevel.obj
 0002:00004be4       ??_C@_1M@HOIKODND@?$AAd?$AAe?$AA?9?$AAL?$AAU@ 10024be4     libucrt:lcidtoname_downlevel.obj
 0002:00004bf0       ??_C@_1M@DDOCCGFG@?$AAe?$AAn?$AA?9?$AAC?$AAA@ 10024bf0     libucrt:lcidtoname_downlevel.obj
 0002:00004bfc       ??_C@_1M@BNOEMJLF@?$AAe?$AAs?$AA?9?$AAG?$AAT@ 10024bfc     libucrt:lcidtoname_downlevel.obj
 0002:00004c08       ??_C@_1M@EOGNKEK@?$AAf?$AAr?$AA?9?$AAC?$AAH@ 10024c08     libucrt:lcidtoname_downlevel.obj
 0002:00004c14       ??_C@_1M@FLIDJFHL@?$AAh?$AAr?$AA?9?$AAB?$AAA@ 10024c14     libucrt:lcidtoname_downlevel.obj
 0002:00004c20       ??_C@_1O@FMCELNAJ@?$AAs?$AAm?$AAj?$AA?9?$AAN?$AAO@ 10024c20     libucrt:lcidtoname_downlevel.obj
 0002:00004c30       ??_C@_1M@JHGLJMGJ@?$AAa?$AAr?$AA?9?$AAD?$AAZ@ 10024c30     libucrt:lcidtoname_downlevel.obj
 0002:00004c3c       ??_C@_1M@JKKFDCNP@?$AAz?$AAh?$AA?9?$AAM?$AAO@ 10024c3c     libucrt:lcidtoname_downlevel.obj
 0002:00004c48       ??_C@_1M@GEEFALPE@?$AAd?$AAe?$AA?9?$AAL?$AAI@ 10024c48     libucrt:lcidtoname_downlevel.obj
 0002:00004c54       ??_C@_1M@IGEOFBG@?$AAe?$AAn?$AA?9?$AAN?$AAZ@ 10024c54     libucrt:lcidtoname_downlevel.obj
 0002:00004c60       ??_C@_1M@KDBONEHP@?$AAe?$AAs?$AA?9?$AAC?$AAR@ 10024c60     libucrt:lcidtoname_downlevel.obj
 0002:00004c6c       ??_C@_1M@FHMDOHNN@?$AAf?$AAr?$AA?9?$AAL?$AAU@ 10024c6c     libucrt:lcidtoname_downlevel.obj
 0002:00004c78       ??_C@_1BG@NFKKMAFG@?$AAb?$AAs?$AA?9?$AAB?$AAA?$AA?9?$AAL?$AAa?$AAt?$AAn@ 10024c78     libucrt:lcidtoname_downlevel.obj
 0002:00004c90       ??_C@_1O@IMNBEMCI@?$AAs?$AAm?$AAj?$AA?9?$AAS?$AAE@ 10024c90     libucrt:lcidtoname_downlevel.obj
 0002:00004ca0       ??_C@_1M@DHHMBNDP@?$AAa?$AAr?$AA?9?$AAM?$AAA@ 10024ca0     libucrt:lcidtoname_downlevel.obj
 0002:00004cac       ??_C@_1M@BNBLJCGH@?$AAe?$AAn?$AA?9?$AAI?$AAE@ 10024cac     libucrt:lcidtoname_downlevel.obj
 0002:00004cb8       ??_C@_1M@GEPAFMDL@?$AAe?$AAs?$AA?9?$AAP?$AAA@ 10024cb8     libucrt:lcidtoname_downlevel.obj
 0002:00004cc4       ??_C@_1M@OJONDMDL@?$AAf?$AAr?$AA?9?$AAM?$AAC@ 10024cc4     libucrt:lcidtoname_downlevel.obj
 0002:00004cd0       ??_C@_1BG@OBCNFJB@?$AAs?$AAr?$AA?9?$AAB?$AAA?$AA?9?$AAL?$AAa?$AAt?$AAn@ 10024cd0     libucrt:lcidtoname_downlevel.obj
 0002:00004ce8       ??_C@_1O@KEMEEGPO@?$AAs?$AAm?$AAa?$AA?9?$AAN?$AAO@ 10024ce8     libucrt:lcidtoname_downlevel.obj
 0002:00004cf8       ??_C@_1M@ELMGFODK@?$AAa?$AAr?$AA?9?$AAT?$AAN@ 10024cf8     libucrt:lcidtoname_downlevel.obj
 0002:00004d04       ??_C@_1M@BHDLHFAF@?$AAe?$AAn?$AA?9?$AAZ?$AAA@ 10024d04     libucrt:lcidtoname_downlevel.obj
 0002:00004d10       ??_C@_1M@BMGIGLIF@?$AAe?$AAs?$AA?9?$AAD?$AAO@ 10024d10     libucrt:lcidtoname_downlevel.obj
 0002:00004d1c       ??_C@_1BG@CMBHIPBE@?$AAs?$AAr?$AA?9?$AAB?$AAA?$AA?9?$AAC?$AAy?$AAr?$AAl@ 10024d1c     libucrt:lcidtoname_downlevel.obj
 0002:00004d34       ??_C@_1O@HEDBLHNP@?$AAs?$AAm?$AAa?$AA?9?$AAS?$AAE@ 10024d34     libucrt:lcidtoname_downlevel.obj
 0002:00004d44       ??_C@_1M@DAGCADIM@?$AAa?$AAr?$AA?9?$AAO?$AAM@ 10024d44     libucrt:lcidtoname_downlevel.obj
 0002:00004d50       ??_C@_1M@FODLMICG@?$AAe?$AAn?$AA?9?$AAJ?$AAM@ 10024d50     libucrt:lcidtoname_downlevel.obj
 0002:00004d5c       ??_C@_1M@DNMLCIHB@?$AAe?$AAs?$AA?9?$AAV?$AAE@ 10024d5c     libucrt:lcidtoname_downlevel.obj
 0002:00004d68       ??_C@_1O@EOKHMKJK@?$AAs?$AAm?$AAs?$AA?9?$AAF?$AAI@ 10024d68     libucrt:lcidtoname_downlevel.obj
 0002:00004d78       ??_C@_1M@CAFJMKOF@?$AAa?$AAr?$AA?9?$AAY?$AAE@ 10024d78     libucrt:lcidtoname_downlevel.obj
 0002:00004d84       ??_C@_1M@CBFHIJLI@?$AAe?$AAn?$AA?9?$AAC?$AAB@ 10024d84     libucrt:lcidtoname_downlevel.obj
 0002:00004d90       ??_C@_1M@BGNFLDN@?$AAe?$AAs?$AA?9?$AAC?$AAO@ 10024d90     libucrt:lcidtoname_downlevel.obj
 0002:00004d9c       ??_C@_1O@JMPHMAMC@?$AAs?$AAm?$AAn?$AA?9?$AAF?$AAI@ 10024d9c     libucrt:lcidtoname_downlevel.obj
 0002:00004dac       ??_C@_1M@JLANABKE@?$AAa?$AAr?$AA?9?$AAS?$AAY@ 10024dac     libucrt:lcidtoname_downlevel.obj
 0002:00004db8       ??_C@_1M@HPKGCFGN@?$AAe?$AAn?$AA?9?$AAB?$AAZ@ 10024db8     libucrt:lcidtoname_downlevel.obj
 0002:00004dc4       ??_C@_1M@OLJCMLGM@?$AAe?$AAs?$AA?9?$AAP?$AAE@ 10024dc4     libucrt:lcidtoname_downlevel.obj
 0002:00004dd0       ??_C@_1M@MKKGFKLE@?$AAa?$AAr?$AA?9?$AAJ?$AAO@ 10024dd0     libucrt:lcidtoname_downlevel.obj
 0002:00004ddc       ??_C@_1M@EKPGLDNI@?$AAe?$AAn?$AA?9?$AAT?$AAT@ 10024ddc     libucrt:lcidtoname_downlevel.obj
 0002:00004de8       ??_C@_1M@OONGHFHE@?$AAe?$AAs?$AA?9?$AAA?$AAR@ 10024de8     libucrt:lcidtoname_downlevel.obj
 0002:00004df4       ??_C@_1M@OOJFGBHE@?$AAa?$AAr?$AA?9?$AAL?$AAB@ 10024df4     libucrt:lcidtoname_downlevel.obj
 0002:00004e00       ??_C@_1M@GCEJHNEG@?$AAe?$AAn?$AA?9?$AAZ?$AAW@ 10024e00     libucrt:lcidtoname_downlevel.obj
 0002:00004e0c       ??_C@_1M@JNOCAHJI@?$AAe?$AAs?$AA?9?$AAE?$AAC@ 10024e0c     libucrt:lcidtoname_downlevel.obj
 0002:00004e18       ??_C@_1M@JEFHPGGB@?$AAa?$AAr?$AA?9?$AAK?$AAW@ 10024e18     libucrt:lcidtoname_downlevel.obj
 0002:00004e24       ??_C@_1M@MLKIBJOJ@?$AAe?$AAn?$AA?9?$AAP?$AAH@ 10024e24     libucrt:lcidtoname_downlevel.obj
 0002:00004e30       ??_C@_1M@BDNIPEND@?$AAe?$AAs?$AA?9?$AAC?$AAL@ 10024e30     libucrt:lcidtoname_downlevel.obj
 0002:00004e3c       ??_C@_1M@MPNMEKBD@?$AAa?$AAr?$AA?9?$AAA?$AAE@ 10024e3c     libucrt:lcidtoname_downlevel.obj
 0002:00004e48       ??_C@_1M@KBJALCPI@?$AAe?$AAs?$AA?9?$AAU?$AAY@ 10024e48     libucrt:lcidtoname_downlevel.obj
 0002:00004e54       ??_C@_1M@LLCCOAGA@?$AAa?$AAr?$AA?9?$AAB?$AAH@ 10024e54     libucrt:lcidtoname_downlevel.obj
 0002:00004e60       ??_C@_1M@PBFNCDEL@?$AAe?$AAs?$AA?9?$AAP?$AAY@ 10024e60     libucrt:lcidtoname_downlevel.obj
 0002:00004e6c       ??_C@_1M@EDGINPNP@?$AAa?$AAr?$AA?9?$AAQ?$AAA@ 10024e6c     libucrt:lcidtoname_downlevel.obj
 0002:00004e78       ??_C@_1M@MKDBIIJI@?$AAe?$AAs?$AA?9?$AAB?$AAO@ 10024e78     libucrt:lcidtoname_downlevel.obj
 0002:00004e84       ??_C@_1M@CPKKEBLD@?$AAe?$AAs?$AA?9?$AAS?$AAV@ 10024e84     libucrt:lcidtoname_downlevel.obj
 0002:00004e90       ??_C@_1M@NDBGMMJL@?$AAe?$AAs?$AA?9?$AAH?$AAN@ 10024e90     libucrt:lcidtoname_downlevel.obj
 0002:00004e9c       ??_C@_1M@JIJIBHDP@?$AAe?$AAs?$AA?9?$AAN?$AAI@ 10024e9c     libucrt:lcidtoname_downlevel.obj
 0002:00004ea8       ??_C@_1M@CGFMKEEK@?$AAe?$AAs?$AA?9?$AAP?$AAR@ 10024ea8     libucrt:lcidtoname_downlevel.obj
 0002:00004eb4       ??_C@_1O@ICJHKIIK@?$AAz?$AAh?$AA?9?$AAC?$AAH?$AAT@ 10024eb4     libucrt:lcidtoname_downlevel.obj
 0002:00004ec4       ??_C@_15CLNEJCE@?$AAs?$AAr@ 10024ec4     libucrt:lcidtoname_downlevel.obj
 0002:000055f0       ??_C@_1M@KAHEKEIG@?$AAa?$AAf?$AA?9?$AAz?$AAa@ 100255f0     libucrt:lcidtoname_downlevel.obj
 0002:000055fc       ??_C@_1M@GIECOABL@?$AAa?$AAr?$AA?9?$AAa?$AAe@ 100255fc     libucrt:lcidtoname_downlevel.obj
 0002:00005608       ??_C@_1M@BMLMEKGI@?$AAa?$AAr?$AA?9?$AAb?$AAh@ 10025608     libucrt:lcidtoname_downlevel.obj
 0002:00005614       ??_C@_1M@DAPFDGGB@?$AAa?$AAr?$AA?9?$AAd?$AAz@ 10025614     libucrt:lcidtoname_downlevel.obj
 0002:00005620       ??_C@_1M@FJNKGKIG@?$AAa?$AAr?$AA?9?$AAe?$AAg@ 10025620     libucrt:lcidtoname_downlevel.obj
 0002:0000562c       ??_C@_1M@FLGKKCLO@?$AAa?$AAr?$AA?9?$AAi?$AAq@ 1002562c     libucrt:lcidtoname_downlevel.obj
 0002:00005638       ??_C@_1M@GNDIPALM@?$AAa?$AAr?$AA?9?$AAj?$AAo@ 10025638     libucrt:lcidtoname_downlevel.obj
 0002:00005644       ??_C@_1M@DDMJFMGJ@?$AAa?$AAr?$AA?9?$AAk?$AAw@ 10025644     libucrt:lcidtoname_downlevel.obj
 0002:00005650       ??_C@_1M@EJALMLHM@?$AAa?$AAr?$AA?9?$AAl?$AAb@ 10025650     libucrt:lcidtoname_downlevel.obj
 0002:0000565c       ??_C@_1M@MOBDBLOC@?$AAa?$AAr?$AA?9?$AAl?$AAy@ 1002565c     libucrt:lcidtoname_downlevel.obj
 0002:00005668       ??_C@_1M@JAOCLHDH@?$AAa?$AAr?$AA?9?$AAm?$AAa@ 10025668     libucrt:lcidtoname_downlevel.obj
 0002:00005674       ??_C@_1M@JHPMKJIE@?$AAa?$AAr?$AA?9?$AAo?$AAm@ 10025674     libucrt:lcidtoname_downlevel.obj
 0002:00005680       ??_C@_1M@OEPGHFNH@?$AAa?$AAr?$AA?9?$AAq?$AAa@ 10025680     libucrt:lcidtoname_downlevel.obj
 0002:0000568c       ??_C@_1M@KJDONENM@?$AAa?$AAr?$AA?9?$AAs?$AAa@ 1002568c     libucrt:lcidtoname_downlevel.obj
 0002:00005698       ??_C@_1M@DMJDKLKM@?$AAa?$AAr?$AA?9?$AAs?$AAy@ 10025698     libucrt:lcidtoname_downlevel.obj
 0002:000056a4       ??_C@_1M@OMFIPEDC@?$AAa?$AAr?$AA?9?$AAt?$AAn@ 100256a4     libucrt:lcidtoname_downlevel.obj
 0002:000056b0       ??_C@_1M@IHMHGAON@?$AAa?$AAr?$AA?9?$AAy?$AAe@ 100256b0     libucrt:lcidtoname_downlevel.obj
 0002:000056bc       ??_C@_1BG@KDCPGJGB@?$AAa?$AAz?$AA?9?$AAa?$AAz?$AA?9?$AAc?$AAy?$AAr?$AAl@ 100256bc     libucrt:lcidtoname_downlevel.obj
 0002:000056d4       ??_C@_1BG@IBCKDDOE@?$AAa?$AAz?$AA?9?$AAa?$AAz?$AA?9?$AAl?$AAa?$AAt?$AAn@ 100256d4     libucrt:lcidtoname_downlevel.obj
 0002:000056ec       ??_C@_1M@EGPFDCPD@?$AAb?$AAe?$AA?9?$AAb?$AAy@ 100256ec     libucrt:lcidtoname_downlevel.obj
 0002:000056f8       ??_C@_1M@PCMGMCGC@?$AAb?$AAg?$AA?9?$AAb?$AAg@ 100256f8     libucrt:lcidtoname_downlevel.obj
 0002:00005704       ??_C@_1M@BJBMFGOB@?$AAb?$AAn?$AA?9?$AAi?$AAn@ 10025704     libucrt:lcidtoname_downlevel.obj
 0002:00005710       ??_C@_1BG@EAKMMACD@?$AAb?$AAs?$AA?9?$AAb?$AAa?$AA?9?$AAl?$AAa?$AAt?$AAn@ 10025710     libucrt:lcidtoname_downlevel.obj
 0002:00005728       ??_C@_1M@KGADAODK@?$AAc?$AAa?$AA?9?$AAe?$AAs@ 10025728     libucrt:lcidtoname_downlevel.obj
 0002:00005734       ??_C@_1M@COAJPDHI@?$AAc?$AAs?$AA?9?$AAc?$AAz@ 10025734     libucrt:lcidtoname_downlevel.obj
 0002:00005740       ??_C@_1M@DHBHFONH@?$AAc?$AAy?$AA?9?$AAg?$AAb@ 10025740     libucrt:lcidtoname_downlevel.obj
 0002:0000574c       ??_C@_1M@IMGKELGA@?$AAd?$AAa?$AA?9?$AAd?$AAk@ 1002574c     libucrt:lcidtoname_downlevel.obj
 0002:00005758       ??_C@_1M@NNDGDNGA@?$AAd?$AAe?$AA?9?$AAa?$AAt@ 10025758     libucrt:lcidtoname_downlevel.obj
 0002:00005764       ??_C@_1M@IKDBHEEM@?$AAd?$AAe?$AA?9?$AAc?$AAh@ 10025764     libucrt:lcidtoname_downlevel.obj
 0002:00005770       ??_C@_1M@GFFOJMCJ@?$AAd?$AAe?$AA?9?$AAd?$AAe@ 10025770     libucrt:lcidtoname_downlevel.obj
 0002:0000577c       ??_C@_1M@MDNLKBPM@?$AAd?$AAe?$AA?9?$AAl?$AAi@ 1002577c     libucrt:lcidtoname_downlevel.obj
 0002:00005788       ??_C@_1M@NJBEEJNL@?$AAd?$AAe?$AA?9?$AAl?$AAu@ 10025788     libucrt:lcidtoname_downlevel.obj
 0002:00005794       ??_C@_1O@GNNELBAP@?$AAd?$AAi?$AAv?$AA?9?$AAm?$AAv@ 10025794     libucrt:lcidtoname_downlevel.obj
 0002:000057a4       ??_C@_1M@EJLEOGAE@?$AAe?$AAl?$AA?9?$AAg?$AAr@ 100257a4     libucrt:lcidtoname_downlevel.obj
 0002:000057b0       ??_C@_1M@GMPONJN@?$AAe?$AAn?$AA?9?$AAa?$AAu@ 100257b0     libucrt:lcidtoname_downlevel.obj
 0002:000057bc       ??_C@_1M@NIDIIPGF@?$AAe?$AAn?$AA?9?$AAb?$AAz@ 100257bc     libucrt:lcidtoname_downlevel.obj
 0002:000057c8       ??_C@_1M@JEHMIMFO@?$AAe?$AAn?$AA?9?$AAc?$AAa@ 100257c8     libucrt:lcidtoname_downlevel.obj
 0002:000057d4       ??_C@_1M@IGMJCDLA@?$AAe?$AAn?$AA?9?$AAc?$AAb@ 100257d4     libucrt:lcidtoname_downlevel.obj
 0002:000057e0       ??_C@_1M@BNFIGBKG@?$AAe?$AAn?$AA?9?$AAg?$AAb@ 100257e0     libucrt:lcidtoname_downlevel.obj
 0002:000057ec       ??_C@_1M@LKIFDIGP@?$AAe?$AAn?$AA?9?$AAi?$AAe@ 100257ec     libucrt:lcidtoname_downlevel.obj
 0002:000057f8       ??_C@_1M@PJKFGCCO@?$AAe?$AAn?$AA?9?$AAj?$AAm@ 100257f8     libucrt:lcidtoname_downlevel.obj
 0002:00005804       ??_C@_1M@KPPKEPBO@?$AAe?$AAn?$AA?9?$AAn?$AAz@ 10025804     libucrt:lcidtoname_downlevel.obj
 0002:00005810       ??_C@_1M@GMDGLDOB@?$AAe?$AAn?$AA?9?$AAp?$AAh@ 10025810     libucrt:lcidtoname_downlevel.obj
 0002:0000581c       ??_C@_1M@ONGIBJNA@?$AAe?$AAn?$AA?9?$AAt?$AAt@ 1002581c     libucrt:lcidtoname_downlevel.obj
 0002:00005828       ??_C@_1M@LLODPCMM@?$AAe?$AAn?$AA?9?$AAu?$AAs@ 10025828     libucrt:lcidtoname_downlevel.obj
 0002:00005834       ??_C@_1M@LAKFNPAN@?$AAe?$AAn?$AA?9?$AAz?$AAa@ 10025834     libucrt:lcidtoname_downlevel.obj
 0002:00005840       ??_C@_1M@MFNHNHEO@?$AAe?$AAn?$AA?9?$AAz?$AAw@ 10025840     libucrt:lcidtoname_downlevel.obj
 0002:0000584c       ??_C@_1M@EJEINPHM@?$AAe?$AAs?$AA?9?$AAa?$AAr@ 1002584c     libucrt:lcidtoname_downlevel.obj
 0002:00005858       ??_C@_1M@GNKPCCJA@?$AAe?$AAs?$AA?9?$AAb?$AAo@ 10025858     libucrt:lcidtoname_downlevel.obj
 0002:00005864       ??_C@_1M@LEEGFONL@?$AAe?$AAs?$AA?9?$AAc?$AAl@ 10025864     libucrt:lcidtoname_downlevel.obj
 0002:00005870       ??_C@_1M@KGPDPBDF@?$AAe?$AAs?$AA?9?$AAc?$AAo@ 10025870     libucrt:lcidtoname_downlevel.obj
 0002:0000587c       ??_C@_1M@EIAHOHH@?$AAe?$AAs?$AA?9?$AAc?$AAr@ 1002587c     libucrt:lcidtoname_downlevel.obj
 0002:00005888       ??_C@_1M@LLPGMBIN@?$AAe?$AAs?$AA?9?$AAd?$AAo@ 10025888     libucrt:lcidtoname_downlevel.obj
 0002:00005894       ??_C@_1M@DKHMKNJA@?$AAe?$AAs?$AA?9?$AAe?$AAc@ 10025894     libucrt:lcidtoname_downlevel.obj
 0002:000058a0       ??_C@_1M@GKGFPKAP@?$AAe?$AAs?$AA?9?$AAe?$AAs@ 100258a0     libucrt:lcidtoname_downlevel.obj
 0002:000058ac       ??_C@_1M@LKHKGDLN@?$AAe?$AAs?$AA?9?$AAg?$AAt@ 100258ac     libucrt:lcidtoname_downlevel.obj
 0002:000058b8       ??_C@_1M@HEIIGGJD@?$AAe?$AAs?$AA?9?$AAh?$AAn@ 100258b8     libucrt:lcidtoname_downlevel.obj
 0002:000058c4       ??_C@_1M@FBDHPPGD@?$AAe?$AAs?$AA?9?$AAm?$AAx@ 100258c4     libucrt:lcidtoname_downlevel.obj
 0002:000058d0       ??_C@_1M@DPAGLNDH@?$AAe?$AAs?$AA?9?$AAn?$AAi@ 100258d0     libucrt:lcidtoname_downlevel.obj
 0002:000058dc       ??_C@_1M@MDGOPGDD@?$AAe?$AAs?$AA?9?$AAp?$AAa@ 100258dc     libucrt:lcidtoname_downlevel.obj
 0002:000058e8       ??_C@_1M@EMAMGBGE@?$AAe?$AAs?$AA?9?$AAp?$AAe@ 100258e8     libucrt:lcidtoname_downlevel.obj
 0002:000058f4       ??_C@_1M@IBMCAOEC@?$AAe?$AAs?$AA?9?$AAp?$AAr@ 100258f4     libucrt:lcidtoname_downlevel.obj
 0002:00005900       ??_C@_1M@FGMDIJED@?$AAe?$AAs?$AA?9?$AAp?$AAy@ 10025900     libucrt:lcidtoname_downlevel.obj
 0002:0000590c       ??_C@_1M@IIDEOLLL@?$AAe?$AAs?$AA?9?$AAs?$AAv@ 1002590c     libucrt:lcidtoname_downlevel.obj
 0002:00005918       ??_C@_1M@GAOBIPA@?$AAe?$AAs?$AA?9?$AAu?$AAy@ 10025918     libucrt:lcidtoname_downlevel.obj
 0002:00005924       ??_C@_1M@JKFFICHJ@?$AAe?$AAs?$AA?9?$AAv?$AAe@ 10025924     libucrt:lcidtoname_downlevel.obj
 0002:00005930       ??_C@_1M@PNMLOJDF@?$AAe?$AAt?$AA?9?$AAe?$AAe@ 10025930     libucrt:lcidtoname_downlevel.obj
 0002:0000593c       ??_C@_1M@GHHLIKEI@?$AAe?$AAu?$AA?9?$AAe?$AAs@ 1002593c     libucrt:lcidtoname_downlevel.obj
 0002:00005948       ??_C@_1M@PBNONODE@?$AAf?$AAa?$AA?9?$AAi?$AAr@ 10025948     libucrt:lcidtoname_downlevel.obj
 0002:00005954       ??_C@_1M@JEEHPMIL@?$AAf?$AAi?$AA?9?$AAf?$AAi@ 10025954     libucrt:lcidtoname_downlevel.obj
 0002:00005960       ??_C@_1M@LMDCNDBA@?$AAf?$AAo?$AA?9?$AAf?$AAo@ 10025960     libucrt:lcidtoname_downlevel.obj
 0002:0000596c       ??_C@_1M@JKEOHLDK@?$AAf?$AAr?$AA?9?$AAb?$AAe@ 1002596c     libucrt:lcidtoname_downlevel.obj
 0002:00005978       ??_C@_1M@NOHADPMI@?$AAf?$AAr?$AA?9?$AAc?$AAa@ 10025978     libucrt:lcidtoname_downlevel.obj
 0002:00005984       ??_C@_1M@KDHIHAEC@?$AAf?$AAr?$AA?9?$AAc?$AAh@ 10025984     libucrt:lcidtoname_downlevel.obj
 0002:00005990       ??_C@_1M@MMBBFGAK@?$AAf?$AAr?$AA?9?$AAf?$AAr@ 10025990     libucrt:lcidtoname_downlevel.obj
 0002:0000599c       ??_C@_1M@PAFNENNF@?$AAf?$AAr?$AA?9?$AAl?$AAu@ 1002599c     libucrt:lcidtoname_downlevel.obj
 0002:000059a8       ??_C@_1M@EOHDJGDD@?$AAf?$AAr?$AA?9?$AAm?$AAc@ 100259a8     libucrt:lcidtoname_downlevel.obj
 0002:000059b4       ??_C@_1M@FAPLLOPF@?$AAg?$AAl?$AA?9?$AAe?$AAs@ 100259b4     libucrt:lcidtoname_downlevel.obj
 0002:000059c0       ??_C@_1M@FOPBFLOO@?$AAg?$AAu?$AA?9?$AAi?$AAn@ 100259c0     libucrt:lcidtoname_downlevel.obj
 0002:000059cc       ??_C@_1M@KBMCINPM@?$AAh?$AAe?$AA?9?$AAi?$AAl@ 100259cc     libucrt:lcidtoname_downlevel.obj
 0002:000059d8       ??_C@_1M@BBPHKFPJ@?$AAh?$AAi?$AA?9?$AAi?$AAn@ 100259d8     libucrt:lcidtoname_downlevel.obj
 0002:000059e4       ??_C@_1M@PMBNDPHD@?$AAh?$AAr?$AA?9?$AAb?$AAa@ 100259e4     libucrt:lcidtoname_downlevel.obj
 0002:000059f0       ??_C@_1M@BPCKOEGE@?$AAh?$AAr?$AA?9?$AAh?$AAr@ 100259f0     libucrt:lcidtoname_downlevel.obj
 0002:000059fc       ??_C@_1M@GACBMHKE@?$AAh?$AAu?$AA?9?$AAh?$AAu@ 100259fc     libucrt:lcidtoname_downlevel.obj
 0002:00005a08       ??_C@_1M@MILPAJJC@?$AAh?$AAy?$AA?9?$AAa?$AAm@ 10025a08     libucrt:lcidtoname_downlevel.obj
 0002:00005a14       ??_C@_1M@BABBICEC@?$AAi?$AAd?$AA?9?$AAi?$AAd@ 10025a14     libucrt:lcidtoname_downlevel.obj
 0002:00005a20       ??_C@_1M@BIKNHHPF@?$AAi?$AAs?$AA?9?$AAi?$AAs@ 10025a20     libucrt:lcidtoname_downlevel.obj
 0002:00005a2c       ??_C@_1M@NMPCJPHE@?$AAi?$AAt?$AA?9?$AAc?$AAh@ 10025a2c     libucrt:lcidtoname_downlevel.obj
 0002:00005a38       ??_C@_1M@GHKGFEDF@?$AAi?$AAt?$AA?9?$AAi?$AAt@ 10025a38     libucrt:lcidtoname_downlevel.obj
 0002:00005a44       ??_C@_1M@NIEJCJJA@?$AAj?$AAa?$AA?9?$AAj?$AAp@ 10025a44     libucrt:lcidtoname_downlevel.obj
 0002:00005a50       ??_C@_1M@JILFNBIM@?$AAk?$AAa?$AA?9?$AAg?$AAe@ 10025a50     libucrt:lcidtoname_downlevel.obj
 0002:00005a5c       ??_C@_1M@PACPMGPH@?$AAk?$AAk?$AA?9?$AAk?$AAz@ 10025a5c     libucrt:lcidtoname_downlevel.obj
 0002:00005a68       ??_C@_1M@IELFGMHA@?$AAk?$AAn?$AA?9?$AAi?$AAn@ 10025a68     libucrt:lcidtoname_downlevel.obj
 0002:00005a74       ??_C@_1O@IBBJHCH@?$AAk?$AAo?$AAk?$AA?9?$AAi?$AAn@ 10025a74     libucrt:lcidtoname_downlevel.obj
 0002:00005a84       ??_C@_1M@DMHAEOGC@?$AAk?$AAo?$AA?9?$AAk?$AAr@ 10025a84     libucrt:lcidtoname_downlevel.obj
 0002:00005a90       ??_C@_1M@HBAHBIGA@?$AAk?$AAy?$AA?9?$AAk?$AAg@ 10025a90     libucrt:lcidtoname_downlevel.obj
 0002:00005a9c       ??_C@_1M@KPMILCJG@?$AAl?$AAt?$AA?9?$AAl?$AAt@ 10025a9c     libucrt:lcidtoname_downlevel.obj
 0002:00005aa8       ??_C@_1M@BDEKKCA@?$AAl?$AAv?$AA?9?$AAl?$AAv@ 10025aa8     libucrt:lcidtoname_downlevel.obj
 0002:00005ab4       ??_C@_1M@ELCKCCJJ@?$AAm?$AAi?$AA?9?$AAn?$AAz@ 10025ab4     libucrt:lcidtoname_downlevel.obj
 0002:00005ac0       ??_C@_1M@CBOOLAPA@?$AAm?$AAk?$AA?9?$AAm?$AAk@ 10025ac0     libucrt:lcidtoname_downlevel.obj
 0002:00005acc       ??_C@_1M@GPHNBJKN@?$AAm?$AAl?$AA?9?$AAi?$AAn@ 10025acc     libucrt:lcidtoname_downlevel.obj
 0002:00005ad8       ??_C@_1M@PABJILIG@?$AAm?$AAn?$AA?9?$AAm?$AAn@ 10025ad8     libucrt:lcidtoname_downlevel.obj
 0002:00005ae4       ??_C@_1M@FGBKKIPG@?$AAm?$AAr?$AA?9?$AAi?$AAn@ 10025ae4     libucrt:lcidtoname_downlevel.obj
 0002:00005af0       ??_C@_1M@NDBPDDAL@?$AAm?$AAs?$AA?9?$AAb?$AAn@ 10025af0     libucrt:lcidtoname_downlevel.obj
 0002:00005afc       ??_C@_1M@OPIHOOPI@?$AAm?$AAs?$AA?9?$AAm?$AAy@ 10025afc     libucrt:lcidtoname_downlevel.obj
 0002:00005b08       ??_C@_1M@PPDBCNFM@?$AAm?$AAt?$AA?9?$AAm?$AAt@ 10025b08     libucrt:lcidtoname_downlevel.obj
 0002:00005b14       ??_C@_1M@KDJDKMDD@?$AAn?$AAb?$AA?9?$AAn?$AAo@ 10025b14     libucrt:lcidtoname_downlevel.obj
 0002:00005b20       ??_C@_1M@KFCFLMJP@?$AAn?$AAl?$AA?9?$AAb?$AAe@ 10025b20     libucrt:lcidtoname_downlevel.obj
 0002:00005b2c       ??_C@_1M@KPOPDDGO@?$AAn?$AAl?$AA?9?$AAn?$AAl@ 10025b2c     libucrt:lcidtoname_downlevel.obj
 0002:00005b38       ??_C@_1M@LJKPEMLN@?$AAn?$AAn?$AA?9?$AAn?$AAo@ 10025b38     libucrt:lcidtoname_downlevel.obj
 0002:00005b44       ??_C@_1M@BDGHHBFL@?$AAn?$AAs?$AA?9?$AAz?$AAa@ 10025b44     libucrt:lcidtoname_downlevel.obj
 0002:00005b50       ??_C@_1M@IDEHOAP@?$AAp?$AAa?$AA?9?$AAi?$AAn@ 10025b50     libucrt:lcidtoname_downlevel.obj
 0002:00005b5c       ??_C@_1M@HDBKGOGH@?$AAp?$AAl?$AA?9?$AAp?$AAl@ 10025b5c     libucrt:lcidtoname_downlevel.obj
 0002:00005b68       ??_C@_1M@LJLLCMEH@?$AAp?$AAt?$AA?9?$AAb?$AAr@ 10025b68     libucrt:lcidtoname_downlevel.obj
 0002:00005b74       ??_C@_1M@NCMONAAL@?$AAp?$AAt?$AA?9?$AAp?$AAt@ 10025b74     libucrt:lcidtoname_downlevel.obj
 0002:00005b80       ??_C@_1O@EAKMAJDN@?$AAq?$AAu?$AAz?$AA?9?$AAb?$AAo@ 10025b80     libucrt:lcidtoname_downlevel.obj
 0002:00005b90       ??_C@_1O@BHHPIGDN@?$AAq?$AAu?$AAz?$AA?9?$AAe?$AAc@ 10025b90     libucrt:lcidtoname_downlevel.obj
 0002:00005ba0       ??_C@_1O@GBAPEKMJ@?$AAq?$AAu?$AAz?$AA?9?$AAp?$AAe@ 10025ba0     libucrt:lcidtoname_downlevel.obj
 0002:00005bb0       ??_C@_1M@CLGLEFBO@?$AAr?$AAo?$AA?9?$AAr?$AAo@ 10025bb0     libucrt:lcidtoname_downlevel.obj
 0002:00005bbc       ??_C@_1M@CEEDODME@?$AAr?$AAu?$AA?9?$AAr?$AAu@ 10025bbc     libucrt:lcidtoname_downlevel.obj
 0002:00005bc8       ??_C@_1M@HPKKKMPP@?$AAs?$AAa?$AA?9?$AAi?$AAn@ 10025bc8     libucrt:lcidtoname_downlevel.obj
 0002:00005bd4       ??_C@_1M@BKMAIGOJ@?$AAs?$AAe?$AA?9?$AAf?$AAi@ 10025bd4     libucrt:lcidtoname_downlevel.obj
 0002:00005be0       ??_C@_1M@NDPIFLFI@?$AAs?$AAe?$AA?9?$AAn?$AAo@ 10025be0     libucrt:lcidtoname_downlevel.obj
 0002:00005bec       ??_C@_1M@DANKKHJ@?$AAs?$AAe?$AA?9?$AAs?$AAe@ 10025bec     libucrt:lcidtoname_downlevel.obj
 0002:00005bf8       ??_C@_1M@PNBLONPJ@?$AAs?$AAk?$AA?9?$AAs?$AAk@ 10025bf8     libucrt:lcidtoname_downlevel.obj
 0002:00005c04       ??_C@_1M@LFMODOAL@?$AAs?$AAl?$AA?9?$AAs?$AAi@ 10025c04     libucrt:lcidtoname_downlevel.obj
 0002:00005c10       ??_C@_1O@DFKOMPG@?$AAs?$AAm?$AAa?$AA?9?$AAn?$AAo@ 10025c10     libucrt:lcidtoname_downlevel.obj
 0002:00005c20       ??_C@_1O@NDKPBNNH@?$AAs?$AAm?$AAa?$AA?9?$AAs?$AAe@ 10025c20     libucrt:lcidtoname_downlevel.obj
 0002:00005c30       ??_C@_1O@PLLKBHAB@?$AAs?$AAm?$AAj?$AA?9?$AAn?$AAo@ 10025c30     libucrt:lcidtoname_downlevel.obj
 0002:00005c40       ??_C@_1O@CLEPOGCA@?$AAs?$AAm?$AAj?$AA?9?$AAs?$AAe@ 10025c40     libucrt:lcidtoname_downlevel.obj
 0002:00005c50       ??_C@_1O@DLGJGKMK@?$AAs?$AAm?$AAn?$AA?9?$AAf?$AAi@ 10025c50     libucrt:lcidtoname_downlevel.obj
 0002:00005c60       ??_C@_1O@OJDJGAJC@?$AAs?$AAm?$AAs?$AA?9?$AAf?$AAi@ 10025c60     libucrt:lcidtoname_downlevel.obj
 0002:00005c70       ??_C@_1M@BOFOGHPB@?$AAs?$AAq?$AA?9?$AAa?$AAl@ 10025c70     libucrt:lcidtoname_downlevel.obj
 0002:00005c7c       ??_C@_1BG@LJBBIPGB@?$AAs?$AAr?$AA?9?$AAb?$AAa?$AA?9?$AAc?$AAy?$AAr?$AAl@ 10025c7c     libucrt:lcidtoname_downlevel.obj
 0002:00005c94       ??_C@_1BG@JLBENFOE@?$AAs?$AAr?$AA?9?$AAb?$AAa?$AA?9?$AAl?$AAa?$AAt?$AAn@ 10025c94     libucrt:lcidtoname_downlevel.obj
 0002:00005cac       ??_C@_1BG@KODPNHE@?$AAs?$AAr?$AA?9?$AAs?$AAp?$AA?9?$AAc?$AAy?$AAr?$AAl@ 10025cac     libucrt:lcidtoname_downlevel.obj
 0002:00005cc4       ??_C@_1BG@CIOGKHPB@?$AAs?$AAr?$AA?9?$AAs?$AAp?$AA?9?$AAl?$AAa?$AAt?$AAn@ 10025cc4     libucrt:lcidtoname_downlevel.obj
 0002:00005cdc       ??_C@_1M@NGFJLMAC@?$AAs?$AAv?$AA?9?$AAf?$AAi@ 10025cdc     libucrt:lcidtoname_downlevel.obj
 0002:00005ce8       ??_C@_1M@MPJEJAJC@?$AAs?$AAv?$AA?9?$AAs?$AAe@ 10025ce8     libucrt:lcidtoname_downlevel.obj
 0002:00005cf4       ??_C@_1M@MPNDHLFK@?$AAs?$AAw?$AA?9?$AAk?$AAe@ 10025cf4     libucrt:lcidtoname_downlevel.obj
 0002:00005d00       ??_C@_1O@KOHBJJI@?$AAs?$AAy?$AAr?$AA?9?$AAs?$AAy@ 10025d00     libucrt:lcidtoname_downlevel.obj
 0002:00005d10       ??_C@_1M@LDCEFHA@?$AAt?$AAa?$AA?9?$AAi?$AAn@ 10025d10     libucrt:lcidtoname_downlevel.obj
 0002:00005d1c       ??_C@_1M@CNJOFAK@?$AAt?$AAe?$AA?9?$AAi?$AAn@ 10025d1c     libucrt:lcidtoname_downlevel.obj
 0002:00005d28       ??_C@_1M@GNAECACD@?$AAt?$AAh?$AA?9?$AAt?$AAh@ 10025d28     libucrt:lcidtoname_downlevel.obj
 0002:00005d34       ??_C@_1M@CHBIHOJO@?$AAt?$AAn?$AA?9?$AAz?$AAa@ 10025d34     libucrt:lcidtoname_downlevel.obj
 0002:00005d40       ??_C@_1M@GCCMIGPJ@?$AAt?$AAr?$AA?9?$AAt?$AAr@ 10025d40     libucrt:lcidtoname_downlevel.obj
 0002:00005d4c       ??_C@_1M@CELMCNBK@?$AAt?$AAt?$AA?9?$AAr?$AAu@ 10025d4c     libucrt:lcidtoname_downlevel.obj
 0002:00005d58       ??_C@_1M@KLMCELGA@?$AAu?$AAk?$AA?9?$AAu?$AAa@ 10025d58     libucrt:lcidtoname_downlevel.obj
 0002:00005d64       ??_C@_1M@EPAJJAJF@?$AAu?$AAr?$AA?9?$AAp?$AAk@ 10025d64     libucrt:lcidtoname_downlevel.obj
 0002:00005d70       ??_C@_1BG@GEGPMCDJ@?$AAu?$AAz?$AA?9?$AAu?$AAz?$AA?9?$AAc?$AAy?$AAr?$AAl@ 10025d70     libucrt:lcidtoname_downlevel.obj
 0002:00005d88       ??_C@_1BG@EGGKJILM@?$AAu?$AAz?$AA?9?$AAu?$AAz?$AA?9?$AAl?$AAa?$AAt?$AAn@ 10025d88     libucrt:lcidtoname_downlevel.obj
 0002:00005da0       ??_C@_1M@GFOCLFF@?$AAv?$AAi?$AA?9?$AAv?$AAn@ 10025da0     libucrt:lcidtoname_downlevel.obj
 0002:00005dac       ??_C@_1M@CPAMEDFI@?$AAx?$AAh?$AA?9?$AAz?$AAa@ 10025dac     libucrt:lcidtoname_downlevel.obj
 0002:00005db8       ??_C@_1O@EBKIFIGN@?$AAz?$AAh?$AA?9?$AAc?$AAh?$AAs@ 10025db8     libucrt:lcidtoname_downlevel.obj
 0002:00005dc8       ??_C@_1O@NMHPGANE@?$AAz?$AAh?$AA?9?$AAc?$AAh?$AAt@ 10025dc8     libucrt:lcidtoname_downlevel.obj
 0002:00005dd8       ??_C@_1M@LPINJOMC@?$AAz?$AAh?$AA?9?$AAc?$AAn@ 10025dd8     libucrt:lcidtoname_downlevel.obj
 0002:00005de4       ??_C@_1M@OCJEJODD@?$AAz?$AAh?$AA?9?$AAh?$AAk@ 10025de4     libucrt:lcidtoname_downlevel.obj
 0002:00005df0       ??_C@_1M@DNDLJINH@?$AAz?$AAh?$AA?9?$AAm?$AAo@ 10025df0     libucrt:lcidtoname_downlevel.obj
 0002:00005dfc       ??_C@_1M@MBFDNDND@?$AAz?$AAh?$AA?9?$AAs?$AAg@ 10025dfc     libucrt:lcidtoname_downlevel.obj
 0002:00005e08       ??_C@_1M@IMEPLEPE@?$AAz?$AAh?$AA?9?$AAt?$AAw@ 10025e08     libucrt:lcidtoname_downlevel.obj
 0002:00005e14       ??_C@_1M@BBGHNHJP@?$AAz?$AAu?$AA?9?$AAz?$AAa@ 10025e14     libucrt:lcidtoname_downlevel.obj
 0002:00005e20       ?large_power_data@?1??multiply_by_power_of_ten@__crt_strtox@@YA_NAAUbig_integer@2@I@Z@4QBIB 10025e20     libucrt:cfout.obj
 0002:00006728       ?large_power_indices@?1??multiply_by_power_of_ten@__crt_strtox@@YA_NAAUbig_integer@2@I@Z@4QBUunpack_index@?1??12@YA_N0I@Z@B 10026728     libucrt:cfout.obj
 0002:000067c0       ?small_powers_of_ten@?1??multiply_by_power_of_ten@__crt_strtox@@YA_NAAUbig_integer@2@I@Z@4QBIB 100267c0     libucrt:cfout.obj
 0002:000067e4       ??_C@_01GBGANLPD@0@        100267e4     libucrt:cfout.obj
 0002:000067e8       ??_C@_05DNEBIAHO@1?$CDINF@ 100267e8     libucrt:cfout.obj
 0002:000067f0       ??_C@_06IMKFLFPG@1?$CDQNAN@ 100267f0     libucrt:cfout.obj
 0002:000067f8       ??_C@_06PGGFOGJG@1?$CDSNAN@ 100267f8     libucrt:cfout.obj
 0002:00006800       ??_C@_05PHHOCPM@1?$CDIND@  10026800     libucrt:cfout.obj
 0002:00006970       __infinity                 10026970     libucrt:87tran.obj
 0002:0000697a       __minfinity                1002697a     libucrt:87tran.obj
 0002:00006984       __logemax                  10026984     libucrt:87tran.obj
 0002:000069aa       __OP_EXPjmptab             100269aa     libucrt:87tran.obj
 0002:000069d0       __indefinite               100269d0     libucrt:87disp.obj
 0002:000069da       __piby2                    100269da     libucrt:87disp.obj
 0002:000069e4       __piby4                    100269e4     libucrt:87disp.obj
 0002:00006a18       __DEFAULT_CW_in_mem        10026a18     libucrt:common.obj
 0002:00006a1a       __pi_by_2_to_61            10026a1a     libucrt:common.obj
 0002:00006a54       ??_C@_03MGHMBJCF@log@      10026a54     libucrt:libm_error.obj
 0002:00006a58       ??_C@_05HGHHAHAP@log10@    10026a58     libucrt:libm_error.obj
 0002:00006a60       ??_C@_03KHJOGHMM@exp@      10026a60     libucrt:libm_error.obj
 0002:00006a64       ??_C@_03JGHBODFD@pow@      10026a64     libucrt:libm_error.obj
 0002:00006a68       ??_C@_04FIHNOPOL@asin@     10026a68     libucrt:libm_error.obj
 0002:00006a70       ??_C@_04PDIFKINK@acos@     10026a70     libucrt:libm_error.obj
 0002:00006a78       ??_C@_04EIAKFFMI@sqrt@     10026a78     libucrt:libm_error.obj
 0002:00006a80       __real@3ff0000000000000    10026a80     libucrt:libm_error.obj
 0002:00006a88       ??_C@_1BA@BALFACEM@?$AAC?$AAO?$AAN?$AAO?$AAU?$AAT?$AA$@ 10026a88     libucrt:initcon.obj
 0002:00006ab0       ___acrt_log10_table_t      10026ab0     libucrt:log10_tables.obj
 0002:00006ec0       ___acrt_log10_table_cb     10026ec0     libucrt:log10_tables.obj
 0002:000072d0       __real@3fe0000000000000    100272d0     libucrt:powhlp.obj
 0002:000073c0       ??_C@_04COOMCNPB@sinh@     100273c0     libucrt:fpexcept.obj
 0002:000073c8       ??_C@_04HPJJNFIM@cosh@     100273c8     libucrt:fpexcept.obj
 0002:000073d0       ??_C@_04FJHINJAO@tanh@     100273d0     libucrt:fpexcept.obj
 0002:000073d8       ??_C@_04MLLJIGOK@atan@     100273d8     libucrt:fpexcept.obj
 0002:000073e0       ??_C@_05KNGEOGJB@atan2@    100273e0     libucrt:fpexcept.obj
 0002:000073e8       ??_C@_03BLEJJJBH@sin@      100273e8     libucrt:fpexcept.obj
 0002:000073ec       ??_C@_03LALBNOCG@cos@      100273ec     libucrt:fpexcept.obj
 0002:000073f0       ??_C@_03IIINPABG@tan@      100273f0     libucrt:fpexcept.obj
 0002:000073f4       ??_C@_04GFPJNGEK@ceil@     100273f4     libucrt:fpexcept.obj
 0002:000073fc       ??_C@_05PBJFFIGL@floor@    100273fc     libucrt:fpexcept.obj
 0002:00007404       ??_C@_04ODHECPBC@fabs@     10027404     libucrt:fpexcept.obj
 0002:0000740c       ??_C@_04EHEDPDJG@modf@     1002740c     libucrt:fpexcept.obj
 0002:00007414       ??_C@_05CEJMAHNP@ldexp@    10027414     libucrt:fpexcept.obj
 0002:0000741c       ??_C@_05KBKMEMPO@_cabs@    1002741c     libucrt:fpexcept.obj
 0002:00007424       ??_C@_06MEIMCGCF@_hypot@   10027424     libucrt:fpexcept.obj
 0002:0000742c       ??_C@_04KEPJIHGP@fmod@     1002742c     libucrt:fpexcept.obj
 0002:00007434       ??_C@_05GKKHEGJL@frexp@    10027434     libucrt:fpexcept.obj
 0002:0000743c       ??_C@_03MJLDFKDL@_y0@      1002743c     libucrt:fpexcept.obj
 0002:00007440       ??_C@_03NAKIGLHK@_y1@      10027440     libucrt:fpexcept.obj
 0002:00007444       ??_C@_03ONILCKOB@_yn@      10027444     libucrt:fpexcept.obj
 0002:00007448       ??_C@_05JGDBENOH@_logb@    10027448     libucrt:fpexcept.obj
 0002:00007450       ??_C@_0L@KDOEJCKC@_nextafter@ 10027450     libucrt:fpexcept.obj
 0002:00007460       __d_inf                    10027460     libucrt:util.obj
 0002:00007468       __d_max                    10027468     libucrt:util.obj
 0002:00007470       __d_mzero                  10027470     libucrt:util.obj
 0002:000074e0       __load_config_used         100274e0     LIBCMT:loadcfg.obj
 0002:000075c0       __tls_used                 100275c0     LIBCMT:tlssup.obj
 0002:000075d8       ??_R4exception@std@@6B@    100275d8     LIBCMT:throw_bad_alloc.obj
 0002:000075ec       ??_R3exception@std@@8      100275ec     LIBCMT:throw_bad_alloc.obj
 0002:000075fc       ??_R2exception@std@@8      100275fc     LIBCMT:throw_bad_alloc.obj
 0002:00007604       ??_R1A@?0A@EA@exception@std@@8 10027604     LIBCMT:throw_bad_alloc.obj
 0002:00007620       ??_R4bad_alloc@std@@6B@    10027620     LIBCMT:throw_bad_alloc.obj
 0002:00007634       ??_R3bad_alloc@std@@8      10027634     LIBCMT:throw_bad_alloc.obj
 0002:00007644       ??_R2bad_alloc@std@@8      10027644     LIBCMT:throw_bad_alloc.obj
 0002:00007650       ??_R1A@?0A@EA@bad_alloc@std@@8 10027650     LIBCMT:throw_bad_alloc.obj
 0002:0000766c       ??_R4bad_array_new_length@std@@6B@ 1002766c     LIBCMT:throw_bad_alloc.obj
 0002:00007680       ??_R3bad_array_new_length@std@@8 10027680     LIBCMT:throw_bad_alloc.obj
 0002:00007690       ??_R2bad_array_new_length@std@@8 10027690     LIBCMT:throw_bad_alloc.obj
 0002:000076a0       ??_R1A@?0A@EA@bad_array_new_length@std@@8 100276a0     LIBCMT:throw_bad_alloc.obj
 0002:000076bc       ??_R4type_info@@6B@        100276bc     LIBCMT:std_type_info_static.obj
 0002:000076d0       ??_R3type_info@@8          100276d0     LIBCMT:std_type_info_static.obj
 0002:000076e0       ??_R2type_info@@8          100276e0     LIBCMT:std_type_info_static.obj
 0002:000076e8       ??_R1A@?0A@EA@type_info@@8 100276e8     LIBCMT:std_type_info_static.obj
 0002:00007704       ??_R4bad_exception@std@@6B@ 10027704     libvcruntime:frame.obj
 0002:00007718       ??_R3bad_exception@std@@8  10027718     libvcruntime:frame.obj
 0002:00007728       ??_R2bad_exception@std@@8  10027728     libvcruntime:frame.obj
 0002:00007734       ??_R1A@?0A@EA@bad_exception@std@@8 10027734     libvcruntime:frame.obj
 0002:00007750       ___safe_se_handler_table   10027750     <linker-defined>
 0002:00007b4c       ___rtc_iaa                 10027b4c     LIBCMT:initsect.obj
 0002:00007b50       ___rtc_izz                 10027b50     LIBCMT:initsect.obj
 0002:00007b54       ___rtc_taa                 10027b54     LIBCMT:initsect.obj
 0002:00007b58       ___rtc_tzz                 10027b58     LIBCMT:initsect.obj
 0002:00007b5c       __tls_start                10027b5c     LIBCMT:tlssup.obj
 0002:00007b60       __Init_thread_epoch        10027b60     LIBCMT:thread_safe_statics.obj
 0002:00007b64       __tls_end                  10027b64     LIBCMT:tlssup.obj
 0002:00007c64       __TI2?AVbad_alloc@std@@    10027c64     LIBCMT:throw_bad_alloc.obj
 0002:00007c74       __CTA2?AVbad_alloc@std@@   10027c74     LIBCMT:throw_bad_alloc.obj
 0002:00007c80       __CT??_R0?AVbad_alloc@std@@@8??0bad_alloc@std@@QAE@ABV01@@Z12 10027c80     LIBCMT:throw_bad_alloc.obj
 0002:00007c9c       __CT??_R0?AVexception@std@@@8??0exception@std@@QAE@ABV01@@Z12 10027c9c     LIBCMT:throw_bad_alloc.obj
 0002:00007cb8       __TI3?AVbad_array_new_length@std@@ 10027cb8     LIBCMT:throw_bad_alloc.obj
 0002:00007cc8       __CTA3?AVbad_array_new_length@std@@ 10027cc8     LIBCMT:throw_bad_alloc.obj
 0002:00007cd8       __CT??_R0?AVbad_array_new_length@std@@@8??0bad_array_new_length@std@@QAE@ABV01@@Z12 10027cd8     LIBCMT:throw_bad_alloc.obj
 0002:00007dfc       __TI2?AVbad_exception@std@@ 10027dfc     libvcruntime:frame.obj
 0002:00007e0c       __CTA2?AVbad_exception@std@@ 10027e0c     libvcruntime:frame.obj
 0002:00007e18       __CT??_R0?AVbad_exception@std@@@8??0bad_exception@std@@QAE@ABV01@@Z12 10027e18     libvcruntime:frame.obj
 0002:00008194       ___pobjMapEntryFirst       10028194     OposVariant.obj
 0002:00008198       ___pobjMapEntryLast        10028198     OposVariant.obj
 0002:0000824c       __IMPORT_DESCRIPTOR_KERNEL32 1002824c     kernel32:KERNEL32.dll
 0002:00008260       __IMPORT_DESCRIPTOR_USER32 10028260     user32:USER32.dll
 0002:00008274       __IMPORT_DESCRIPTOR_GDI32  10028274     gdi32:GDI32.dll
 0002:00008288       __IMPORT_DESCRIPTOR_ADVAPI32 10028288     advapi32:ADVAPI32.dll
 0002:0000829c       __IMPORT_DESCRIPTOR_ole32  1002829c     ole32:ole32.dll
 0002:000082b0       __IMPORT_DESCRIPTOR_OLEAUT32 100282b0     oleaut32:OLEAUT32.dll
 0002:000082c4       __NULL_IMPORT_DESCRIPTOR   100282c4     kernel32:KERNEL32.dll
 0003:00000000       ?s_Claim@?7??GetIDsOfNames@CComTypeInfoHolder@ATL@@QAEJABU_GUID@@PAPA_WIKPAJ@Z@4PA_WA 1002a000     SoundPlayer.obj
 0003:00000018       ?s_Release@?7??GetIDsOfNames@CComTypeInfoHolder@ATL@@QAEJABU_GUID@@PAPA_WIKPAJ@Z@4PA_WA 1002a018     SoundPlayer.obj
 0003:00000034       ?_tih@?$IDispatchImpl@UIOPOSSoundPlayer@@$1?IID_IOPOSSoundPlayer@@3U_GUID@@B$1?LIBID_OposSoundPlayer_CCO@@3U3@B$00$0A@VCComTypeInfoHolder@ATL@@@ATL@@1VCComTypeInfoHolder@2@A 1002a034     SoundPlayer.obj
 0003:00000050       ?_tih@?$IProvideClassInfo2Impl@$1?CLSID_OPOSSoundPlayer@@3U_GUID@@B$1?DIID__IOPOSSoundPlayerEvents@@3U2@B$1?LIBID_OposSoundPlayer_CCO@@3U2@B$00$0A@VCComTypeInfoHolder@ATL@@@ATL@@1VCComTypeInfoHolder@2@A 1002a050     SoundPlayer.obj
 0003:0000006c       ?vszContents@?6??Save@?$IPersistStorageImpl@VCOPOSSoundPlayer@@@ATL@@UAGJPAUIStorage@@H@Z@4PB_WB 1002a06c     SoundPlayer.obj
 0003:00000070       ?wc@?1??GetWndClassInfo@?$CWindowImpl@VCOPOSSoundPlayer@@VCWindow@ATL@@V?$CWinTraits@$0FGAAAAAA@$0A@@3@@ATL@@SAAAU_ATL_WNDCLASSINFOW@3@XZ@4U43@A 1002a070     SoundPlayer.obj
 0003:000000fc       ?rcDefault@CWindow@ATL@@2UtagRECT@@A 1002a0fc     SoundPlayer.obj
 0003:00000158       ?g_WindowName@@3PA_WA      1002a158     SoundPlayerImpl.obj
 0003:00000180       ?g_ControlDescription@@3PADA 1002a180     SoundPlayerImpl.obj
 0003:000001b4       ?g_ControlVersion@@3JA     1002a1b4     SoundPlayerImpl.obj
 0003:0000020c       ___scrt_native_dllmain_reason 1002a20c     LIBCMT:utility.obj
 0003:00000210       __Init_global_epoch        1002a210     LIBCMT:thread_safe_statics.obj
 0003:00000220       ___security_cookie_complement 1002a220     LIBCMT:gs_cookie.obj
 0003:00000224       ___security_cookie         1002a224     LIBCMT:gs_cookie.obj
 0003:00000228       ___isa_enabled             1002a228     LIBCMT:cpu_disp.obj
 0003:00000240       __NLG_Destination          1002a240     libvcruntime:exsup.obj
 0003:00000258       ___abort_behavior          1002a258     libucrt:abort.obj
 0003:00000268       __iob                      1002a268     libucrt:_file.obj
 0003:00000310       ___acrt_initial_locale_data 1002a310     libucrt:nlsdata.obj
 0003:000003c8       ___acrt_initial_locale_pointers 1002a3c8     libucrt:nlsdata.obj
 0003:000003d0       ___acrt_wide_c_locale_string 1002a3d0     libucrt:nlsdata.obj
 0003:000003d8       ___acrt_initial_multibyte_data 1002a3d8     libucrt:mbctype.obj
 0003:000008f8       __pwctype                  1002a8f8     libucrt:ctype.obj
 0003:000008fc       ___globallocalestatus      1002a8fc     libucrt:glstatus.obj
 0003:00000900       ___acrt_lconv_c            1002a900     libucrt:localeconv.obj
 0003:00000950       ___acrt_lconv_static_decimal 1002a950     libucrt:localeconv.obj
 0003:00000954       ___acrt_lconv_static_W_decimal 1002a954     libucrt:localeconv.obj
 0003:00000960       __lookuptrailbytes         1002a960     libucrt:read.obj
 0003:00000a70       __fltused                  1002aa70     LIBCMT:fltused.obj
 0003:00000a80       ??_R0?AVbad_alloc@std@@@8  1002aa80     LIBCMT:throw_bad_alloc.obj
 0003:00000a9c       ??_R0?AVexception@std@@@8  1002aa9c     LIBCMT:throw_bad_alloc.obj
 0003:00000ab8       ??_R0?AVbad_array_new_length@std@@@8 1002aab8     LIBCMT:throw_bad_alloc.obj
 0003:00000ae0       ??_R0?AVtype_info@@@8      1002aae0     LIBCMT:std_type_info_static.obj
 0003:00000af8       ??_R0?AVbad_exception@std@@@8 1002aaf8     libvcruntime:frame.obj
 0003:00000b18       ?m_bInitFailed@CAtlBaseModule@ATL@@2_NA 1002ab18     OposVariant.obj
 0003:00000b1c       ?_pPerfRegFunc@ATL@@3P6AJPAUHINSTANCE__@@@ZA 1002ab1c     OposVariant.obj
 0003:00000b20       ?_pPerfUnRegFunc@ATL@@3P6AJXZA 1002ab20     OposVariant.obj
 0003:00000b24       ?_AtlRegisterPerUser@ATL@@3_NA 1002ab24     OposVariant.obj
 0003:00000b28       ?_pAtlModule@ATL@@3PAVCAtlModule@1@A 1002ab28     OposVariant.obj
 0003:00000b2c       ?_pModule@ATL@@3PAVCComModule@1@A 1002ab2c     OposVariant.obj
 0003:00000b30       ?_AtlComModule@ATL@@3VCAtlComModule@1@A 1002ab30     OposVariant.obj
 0003:00000b58       ?_AtlWinModule@ATL@@3VCAtlWinModule@1@A 1002ab58     OposVariant.obj
 0003:00000b84       ?m_libid@CAtlModule@ATL@@2U_GUID@@A 1002ab84     SoundPlayer.obj
 0003:00000b94       ?_entries@?1??GetConnMap@COPOSSoundPlayer@@SAPBU_ATL_CONNMAP_ENTRY@ATL@@PAH@Z@4QBU34@B 1002ab94     SoundPlayer.obj
 0003:00000ba0       ?$TSS0@?1??GetConnMap@COPOSSoundPlayer@@SAPBU_ATL_CONNMAP_ENTRY@ATL@@PAH@Z@4HA 1002aba0     SoundPlayer.obj
 0003:00000ba8       ?_OptionsStorage@?1??__local_stdio_printf_options@@9@4_KA 1002aba8     SoundPlayer.obj
 0003:00000bb0       ?pfnRegDeleteKeyEx@?1??DeleteSubKey@CRegKey@ATL@@QAEJPB_W@Z@4P6GJPAUHKEY__@@0KK@ZA 1002abb0     SoundPlayer.obj
 0003:00000bb4       ?bInitialized@?1??DeleteSubKey@CRegKey@ATL@@QAEJPB_W@Z@4_NA 1002abb4     SoundPlayer.obj
 0003:00000bb8       ?_Module@@3VCComModule@ATL@@A 1002abb8     SoundPlayer.obj
 0003:00000be8       ?pConnMap@?$IConnectionPointContainerImpl@VCOPOSSoundPlayer@@@ATL@@0PBU_ATL_CONNMAP_ENTRY@2@B 1002abe8     SoundPlayer.obj
 0003:00000bec       ?s_nInstances@COPOSSoundPlayer@@1HA 1002abec     SoundPlayerImpl.obj
 0003:00000bf0       ___scrt_current_native_startup_state 1002abf0     LIBCMT:utility.obj
 0003:00000bf4       ___scrt_native_startup_lock 1002abf4     LIBCMT:utility.obj
 0003:00000f5c       __tls_index                1002af5c     LIBCMT:tlssup.obj
 0003:00000f64       ___isa_available           1002af64     LIBCMT:cpu_disp.obj
 0003:00000f68       ___favor                   1002af68     LIBCMT:cpu_disp.obj
 0003:00000f6c       ___scrt_debugger_hook_flag 1002af6c     LIBCMT:utility_desktop.obj
 0003:00000f70       ___castguard_check_failure_os_handled_fptr 1002af70     LIBCMT:guard_support.obj
 0003:00000f78       ?__type_info_root_node@@3U__type_info_node@@A 1002af78     LIBCMT:tncleanup.obj
 0003:00000f80       ?_OptionsStorage@?1??__local_stdio_scanf_options@@9@4_KA 1002af80     LIBCMT:default_local_stdio_options.obj
 0003:00000f88       ?_AtlBaseModule@ATL@@3VCAtlBaseModule@1@A 1002af88     atls:atlbase.obj
 0003:00000fc0       ?__AtlThunkPool@@3PAT_SLIST_HEADER@@A 1002afc0     atls:atlthunk.obj
 0003:00000fd8       ___@@_PchSym_@00@UztvmgUPdlipUFHUhUrmgvinvwrzgvUexgllohUzgohOmzgrevkilqPBACIAJCBDBUlyqiUcIGUhgwzucOlyq@4B2008FD98C1DD4 1002afd8     atls:stdafx.obj
 0003:00000fdc       ?__WinRTOutOfMemoryExceptionCallback@@3P6GPAXXZA 1002afdc     libvcruntime:ehhelpers.obj
 0003:00000fe0       ___pPurecall               1002afe0     libvcruntime:purevirt_data.obj
 0003:00001028       ?pArgList@UnDecorator@@0PAVReplicator@@A 1002b028     libvcruntime:undname.obj
 0003:0000102c       ?pZNameList@UnDecorator@@0PAVReplicator@@A 1002b02c     libvcruntime:undname.obj
 0003:00001030       ?pTemplateArgList@UnDecorator@@0PAVReplicator@@A 1002b030     libvcruntime:undname.obj
 0003:00001034       ?gName@UnDecorator@@0PBDB  1002b034     libvcruntime:undname.obj
 0003:00001038       ?name@UnDecorator@@0PBDB   1002b038     libvcruntime:undname.obj
 0003:0000103c       ?disableFlags@UnDecorator@@0KA 1002b03c     libvcruntime:undname.obj
 0003:00001040       ?fExplicitTemplateParams@UnDecorator@@0_NA 1002b040     libvcruntime:undname.obj
 0003:00001041       ?fGetTemplateArgumentList@UnDecorator@@0_NA 1002b041     libvcruntime:undname.obj
 0003:00001044       ?m_pGetParameter@UnDecorator@@0P6APADJ@ZA 1002b044     libvcruntime:undname.obj
 0003:00001048       ?m_CHPENameOffset@UnDecorator@@0KA 1002b048     libvcruntime:undname.obj
 0003:0000104c       ?m_recursionLevel@UnDecorator@@0KA 1002b04c     libvcruntime:undname.obj
 0003:00001090       ?c_exit_complete@?1???R<lambda_6e4b09c48022b2350581041d5f6b0c4c>@@QBE@XZ@4_NA 1002b090     libucrt:exit.obj
 0003:000011a0       __environ_table            1002b1a0     libucrt:environment_initialization.obj
 0003:000011a4       __wenviron_table           1002b1a4     libucrt:environment_initialization.obj
 0003:000011a8       ___dcrt_initial_wide_environment 1002b1a8     libucrt:environment_initialization.obj
 0003:000011ac       ___dcrt_initial_narrow_environment 1002b1ac     libucrt:environment_initialization.obj
 0003:000011b0       ___acrt_atexit_table       1002b1b0     libucrt:onexit.obj
 0003:000011bc       ___acrt_at_quick_exit_table 1002b1bc     libucrt:onexit.obj
 0003:000012b0       __nstream                  1002b2b0     libucrt:_file.obj
 0003:000012b4       ___piob                    1002b2b4     libucrt:_file.obj
 0003:000012bc       ___acrt_stdout_buffer      1002b2bc     libucrt:_sftbuf.obj
 0003:000012c0       ___acrt_stderr_buffer      1002b2c0     libucrt:_sftbuf.obj
 0003:000012c4       ___acrt_locale_changed_data 1002b2c4     libucrt:wsetlocale.obj
 0003:000012c8       ___acrt_current_locale_data 1002b2c8     libucrt:nlsdata.obj
 0003:000012d0       ___pioinfo                 1002b2d0     libucrt:ioinit.obj
 0003:000014d0       __nhandle                  1002b4d0     libucrt:ioinit.obj
 0003:0000162c       __mbctype                  1002b62c     libucrt:mbctype.obj
 0003:00001630       __mbcasemap                1002b630     libucrt:mbctype.obj
 0003:00001634       ___acrt_current_multibyte_data 1002b634     libucrt:mbctype.obj
 0003:00001640       __pgmptr                   1002b640     libucrt:argv_data.obj
 0003:00001644       ___argc                    1002b644     libucrt:argv_data.obj
 0003:00001648       ___argv                    1002b648     libucrt:argv_data.obj
 0003:0000164c       ___wargv                   1002b64c     libucrt:argv_data.obj
 0003:00001650       __acmdln                   1002b650     libucrt:argv_data.obj
 0003:00001654       __wcmdln                   1002b654     libucrt:argv_data.obj
 0003:00001658       ___acrt_heap               1002b658     libucrt:heap_handle.obj
 0003:00001674       ___acrt_lconv_static_null  1002b674     libucrt:localeconv.obj
 0003:00001678       ___acrt_lconv_static_W_null 1002b678     libucrt:localeconv.obj
 0003:00001688       ___fastflag                1002b688     libucrt:fp_flags.obj
 0003:00001690       ___dyn_tls_init_callback   1002b690     <common>
 0003:00001694       ___scrt_ucrt_dll_is_in_use 1002b694     <common>
 0003:00001698       __pmatherr                 1002b698     <common>
 0003:0000169c       ___use_sse2_mathfcns       1002b69c     <common>

 entry point at        0001:0000bd0d

 Static symbols

 0000:fffce000       .debug$S                   10000000     OPOSSoundPlayer.exp
 0000:fffce000       .debug$S                   10000000     advapi32:ADVAPI32.dll
 0000:fffce000       .debug$S                   10000000     advapi32:ADVAPI32.dll
 0000:fffce000       .debug$S                   10000000     advapi32:ADVAPI32.dll
 0000:fffce000       .debug$S                   10000000     advapi32:ADVAPI32.dll
 0000:fffce000       .debug$S                   10000000     advapi32:ADVAPI32.dll
 0000:fffce000       .debug$S                   10000000     advapi32:ADVAPI32.dll
 0000:fffce000       .debug$S                   10000000     advapi32:ADVAPI32.dll
 0000:fffce000       .debug$S                   10000000     advapi32:ADVAPI32.dll
 0000:fffce000       .debug$S                   10000000     advapi32:ADVAPI32.dll
 0000:fffce000       .debug$S                   10000000     gdi32:GDI32.dll
 0000:fffce000       .debug$S                   10000000     gdi32:GDI32.dll
 0000:fffce000       .debug$S                   10000000     gdi32:GDI32.dll
 0000:fffce000       .debug$S                   10000000     gdi32:GDI32.dll
 0000:fffce000       .debug$S                   10000000     gdi32:GDI32.dll
 0000:fffce000       .debug$S                   10000000     gdi32:GDI32.dll
 0000:fffce000       .debug$S                   10000000     gdi32:GDI32.dll
 0000:fffce000       .debug$S                   10000000     gdi32:GDI32.dll
 0000:fffce000       .debug$S                   10000000     gdi32:GDI32.dll
 0000:fffce000       .debug$S                   10000000     gdi32:GDI32.dll
 0000:fffce000       .debug$S                   10000000     gdi32:GDI32.dll
 0000:fffce000       .debug$S                   10000000     gdi32:GDI32.dll
 0000:fffce000       .debug$S                   10000000     gdi32:GDI32.dll
 0000:fffce000       .debug$S                   10000000     gdi32:GDI32.dll
 0000:fffce000       .debug$S                   10000000     gdi32:GDI32.dll
 0000:fffce000       .debug$S                   10000000     gdi32:GDI32.dll
 0000:fffce000       .debug$S                   10000000     gdi32:GDI32.dll
 0000:fffce000       .debug$S                   10000000     gdi32:GDI32.dll
 0000:fffce000       .debug$S                   10000000     gdi32:GDI32.dll
 0000:fffce000       .debug$S                   10000000     kernel32:KERNEL32.dll
 0000:fffce000       .debug$S                   10000000     kernel32:KERNEL32.dll
 0000:fffce000       .debug$S                   10000000     kernel32:KERNEL32.dll
 0000:fffce000       .debug$S                   10000000     kernel32:KERNEL32.dll
 0000:fffce000       .debug$S                   10000000     kernel32:KERNEL32.dll
 0000:fffce000       .debug$S                   10000000     kernel32:KERNEL32.dll
 0000:fffce000       .debug$S                   10000000     kernel32:KERNEL32.dll
 0000:fffce000       .debug$S                   10000000     kernel32:KERNEL32.dll
 0000:fffce000       .debug$S                   10000000     kernel32:KERNEL32.dll
 0000:fffce000       .debug$S                   10000000     kernel32:KERNEL32.dll
 0000:fffce000       .debug$S                   10000000     kernel32:KERNEL32.dll
 0000:fffce000       .debug$S                   10000000     kernel32:KERNEL32.dll
 0000:fffce000       .debug$S                   10000000     kernel32:KERNEL32.dll
 0000:fffce000       .debug$S                   10000000     kernel32:KERNEL32.dll
 0000:fffce000       .debug$S                   10000000     kernel32:KERNEL32.dll
 0000:fffce000       .debug$S                   10000000     kernel32:KERNEL32.dll
 0000:fffce000       .debug$S                   10000000     kernel32:KERNEL32.dll
 0000:fffce000       .debug$S                   10000000     kernel32:KERNEL32.dll
 0000:fffce000       .debug$S                   10000000     kernel32:KERNEL32.dll
 0000:fffce000       .debug$S                   10000000     kernel32:KERNEL32.dll
 0000:fffce000       .debug$S                   10000000     kernel32:KERNEL32.dll
 0000:fffce000       .debug$S                   10000000     kernel32:KERNEL32.dll
 0000:fffce000       .debug$S                   10000000     kernel32:KERNEL32.dll
 0000:fffce000       .debug$S                   10000000     kernel32:KERNEL32.dll
 0000:fffce000       .debug$S                   10000000     kernel32:KERNEL32.dll
 0000:fffce000       .debug$S                   10000000     kernel32:KERNEL32.dll
 0000:fffce000       .debug$S                   10000000     kernel32:KERNEL32.dll
 0000:fffce000       .debug$S                   10000000     kernel32:KERNEL32.dll
 0000:fffce000       .debug$S                   10000000     kernel32:KERNEL32.dll
 0000:fffce000       .debug$S                   10000000     kernel32:KERNEL32.dll
 0000:fffce000       .debug$S                   10000000     kernel32:KERNEL32.dll
 0000:fffce000       .debug$S                   10000000     kernel32:KERNEL32.dll
 0000:fffce000       .debug$S                   10000000     kernel32:KERNEL32.dll
 0000:fffce000       .debug$S                   10000000     kernel32:KERNEL32.dll
 0000:fffce000       .debug$S                   10000000     kernel32:KERNEL32.dll
 0000:fffce000       .debug$S                   10000000     kernel32:KERNEL32.dll
 0000:fffce000       .debug$S                   10000000     kernel32:KERNEL32.dll
 0000:fffce000       .debug$S                   10000000     kernel32:KERNEL32.dll
 0000:fffce000       .debug$S                   10000000     kernel32:KERNEL32.dll
 0000:fffce000       .debug$S                   10000000     kernel32:KERNEL32.dll
 0000:fffce000       .debug$S                   10000000     kernel32:KERNEL32.dll
 0000:fffce000       .debug$S                   10000000     kernel32:KERNEL32.dll
 0000:fffce000       .debug$S                   10000000     kernel32:KERNEL32.dll
 0000:fffce000       .debug$S                   10000000     kernel32:KERNEL32.dll
 0000:fffce000       .debug$S                   10000000     kernel32:KERNEL32.dll
 0000:fffce000       .debug$S                   10000000     kernel32:KERNEL32.dll
 0000:fffce000       .debug$S                   10000000     kernel32:KERNEL32.dll
 0000:fffce000       .debug$S                   10000000     kernel32:KERNEL32.dll
 0000:fffce000       .debug$S                   10000000     kernel32:KERNEL32.dll
 0000:fffce000       .debug$S                   10000000     kernel32:KERNEL32.dll
 0000:fffce000       .debug$S                   10000000     kernel32:KERNEL32.dll
 0000:fffce000       .debug$S                   10000000     kernel32:KERNEL32.dll
 0000:fffce000       .debug$S                   10000000     kernel32:KERNEL32.dll
 0000:fffce000       .debug$S                   10000000     kernel32:KERNEL32.dll
 0000:fffce000       .debug$S                   10000000     kernel32:KERNEL32.dll
 0000:fffce000       .debug$S                   10000000     kernel32:KERNEL32.dll
 0000:fffce000       .debug$S                   10000000     kernel32:KERNEL32.dll
 0000:fffce000       .debug$S                   10000000     kernel32:KERNEL32.dll
 0000:fffce000       .debug$S                   10000000     kernel32:KERNEL32.dll
 0000:fffce000       .debug$S                   10000000     kernel32:KERNEL32.dll
 0000:fffce000       .debug$S                   10000000     kernel32:KERNEL32.dll
 0000:fffce000       .debug$S                   10000000     kernel32:KERNEL32.dll
 0000:fffce000       .debug$S                   10000000     kernel32:KERNEL32.dll
 0000:fffce000       .debug$S                   10000000     kernel32:KERNEL32.dll
 0000:fffce000       .debug$S                   10000000     kernel32:KERNEL32.dll
 0000:fffce000       .debug$S                   10000000     kernel32:KERNEL32.dll
 0000:fffce000       .debug$S                   10000000     kernel32:KERNEL32.dll
 0000:fffce000       .debug$S                   10000000     kernel32:KERNEL32.dll
 0000:fffce000       .debug$S                   10000000     kernel32:KERNEL32.dll
 0000:fffce000       .debug$S                   10000000     kernel32:KERNEL32.dll
 0000:fffce000       .debug$S                   10000000     kernel32:KERNEL32.dll
 0000:fffce000       .debug$S                   10000000     kernel32:KERNEL32.dll
 0000:fffce000       .debug$S                   10000000     kernel32:KERNEL32.dll
 0000:fffce000       .debug$S                   10000000     kernel32:KERNEL32.dll
 0000:fffce000       .debug$S                   10000000     kernel32:KERNEL32.dll
 0000:fffce000       .debug$S                   10000000     kernel32:KERNEL32.dll
 0000:fffce000       .debug$S                   10000000     kernel32:KERNEL32.dll
 0000:fffce000       .debug$S                   10000000     kernel32:KERNEL32.dll
 0000:fffce000       .debug$S                   10000000     kernel32:KERNEL32.dll
 0000:fffce000       .debug$S                   10000000     kernel32:KERNEL32.dll
 0000:fffce000       .debug$S                   10000000     kernel32:KERNEL32.dll
 0000:fffce000       .debug$S                   10000000     kernel32:KERNEL32.dll
 0000:fffce000       .debug$S                   10000000     kernel32:KERNEL32.dll
 0000:fffce000       .debug$S                   10000000     kernel32:KERNEL32.dll
 0000:fffce000       .debug$S                   10000000     kernel32:KERNEL32.dll
 0000:fffce000       .debug$S                   10000000     kernel32:KERNEL32.dll
 0000:fffce000       .debug$S                   10000000     kernel32:KERNEL32.dll
 0000:fffce000       .debug$S                   10000000     kernel32:KERNEL32.dll
 0000:fffce000       .debug$S                   10000000     kernel32:KERNEL32.dll
 0000:fffce000       .debug$S                   10000000     kernel32:KERNEL32.dll
 0000:fffce000       .debug$S                   10000000     kernel32:KERNEL32.dll
 0000:fffce000       .debug$S                   10000000     kernel32:KERNEL32.dll
 0000:fffce000       .debug$S                   10000000     kernel32:KERNEL32.dll
 0000:fffce000       .debug$S                   10000000     kernel32:KERNEL32.dll
 0000:fffce000       .debug$S                   10000000     kernel32:KERNEL32.dll
 0000:fffce000       .debug$S                   10000000     kernel32:KERNEL32.dll
 0000:fffce000       .debug$S                   10000000     kernel32:KERNEL32.dll
 0000:fffce000       .debug$S                   10000000     kernel32:KERNEL32.dll
 0000:fffce000       .debug$S                   10000000     kernel32:KERNEL32.dll
 0000:fffce000       .debug$S                   10000000     kernel32:KERNEL32.dll
 0000:fffce000       .debug$S                   10000000     kernel32:KERNEL32.dll
 0000:fffce000       .debug$S                   10000000     kernel32:KERNEL32.dll
 0000:fffce000       .debug$S                   10000000     kernel32:KERNEL32.dll
 0000:fffce000       .debug$S                   10000000     kernel32:KERNEL32.dll
 0000:fffce000       .debug$S                   10000000     kernel32:KERNEL32.dll
 0000:fffce000       .debug$S                   10000000     kernel32:KERNEL32.dll
 0000:fffce000       .debug$S                   10000000     ole32:ole32.dll
 0000:fffce000       .debug$S                   10000000     ole32:ole32.dll
 0000:fffce000       .debug$S                   10000000     ole32:ole32.dll
 0000:fffce000       .debug$S                   10000000     ole32:ole32.dll
 0000:fffce000       .debug$S                   10000000     ole32:ole32.dll
 0000:fffce000       .debug$S                   10000000     ole32:ole32.dll
 0000:fffce000       .debug$S                   10000000     ole32:ole32.dll
 0000:fffce000       .debug$S                   10000000     ole32:ole32.dll
 0000:fffce000       .debug$S                   10000000     ole32:ole32.dll
 0000:fffce000       .debug$S                   10000000     ole32:ole32.dll
 0000:fffce000       .debug$S                   10000000     ole32:ole32.dll
 0000:fffce000       .debug$S                   10000000     ole32:ole32.dll
 0000:fffce000       .debug$S                   10000000     ole32:ole32.dll
 0000:fffce000       .debug$S                   10000000     ole32:ole32.dll
 0000:fffce000       .debug$S                   10000000     oleaut32:OLEAUT32.dll
 0000:fffce000       .debug$S                   10000000     oleaut32:OLEAUT32.dll
 0000:fffce000       .debug$S                   10000000     oleaut32:OLEAUT32.dll
 0000:fffce000       .debug$S                   10000000     oleaut32:OLEAUT32.dll
 0000:fffce000       .debug$S                   10000000     oleaut32:OLEAUT32.dll
 0000:fffce000       .debug$S                   10000000     oleaut32:OLEAUT32.dll
 0000:fffce000       .debug$S                   10000000     oleaut32:OLEAUT32.dll
 0000:fffce000       .debug$S                   10000000     oleaut32:OLEAUT32.dll
 0000:fffce000       .debug$S                   10000000     oleaut32:OLEAUT32.dll
 0000:fffce000       .debug$S                   10000000     oleaut32:OLEAUT32.dll
 0000:fffce000       .debug$S                   10000000     oleaut32:OLEAUT32.dll
 0000:fffce000       .debug$S                   10000000     oleaut32:OLEAUT32.dll
 0000:fffce000       .debug$S                   10000000     oleaut32:OLEAUT32.dll
 0000:fffce000       .debug$S                   10000000     oleaut32:OLEAUT32.dll
 0000:fffce000       .debug$S                   10000000     oleaut32:OLEAUT32.dll
 0000:fffce000       .debug$S                   10000000     oleaut32:OLEAUT32.dll
 0000:fffce000       .debug$S                   10000000     user32:USER32.dll
 0000:fffce000       .debug$S                   10000000     user32:USER32.dll
 0000:fffce000       .debug$S                   10000000     user32:USER32.dll
 0000:fffce000       .debug$S                   10000000     user32:USER32.dll
 0000:fffce000       .debug$S                   10000000     user32:USER32.dll
 0000:fffce000       .debug$S                   10000000     user32:USER32.dll
 0000:fffce000       .debug$S                   10000000     user32:USER32.dll
 0000:fffce000       .debug$S                   10000000     user32:USER32.dll
 0000:fffce000       .debug$S                   10000000     user32:USER32.dll
 0000:fffce000       .debug$S                   10000000     user32:USER32.dll
 0000:fffce000       .debug$S                   10000000     user32:USER32.dll
 0000:fffce000       .debug$S                   10000000     user32:USER32.dll
 0000:fffce000       .debug$S                   10000000     user32:USER32.dll
 0000:fffce000       .debug$S                   10000000     user32:USER32.dll
 0000:fffce000       .debug$S                   10000000     user32:USER32.dll
 0000:fffce000       .debug$S                   10000000     user32:USER32.dll
 0000:fffce000       .debug$S                   10000000     user32:USER32.dll
 0000:fffce000       .debug$S                   10000000     user32:USER32.dll
 0000:fffce000       .debug$S                   10000000     user32:USER32.dll
 0000:fffce000       .debug$S                   10000000     user32:USER32.dll
 0000:fffce000       .debug$S                   10000000     user32:USER32.dll
 0000:fffce000       .debug$S                   10000000     user32:USER32.dll
 0000:fffce000       .debug$S                   10000000     user32:USER32.dll
 0000:fffce000       .debug$S                   10000000     user32:USER32.dll
 0000:fffce000       .debug$S                   10000000     user32:USER32.dll
 0000:fffce000       .debug$S                   10000000     user32:USER32.dll
 0000:fffce000       .debug$S                   10000000     user32:USER32.dll
 0000:fffce000       .debug$S                   10000000     user32:USER32.dll
 0000:fffce000       .debug$S                   10000000     user32:USER32.dll
 0000:fffce000       .debug$S                   10000000     user32:USER32.dll
 0000:fffce000       .debug$S                   10000000     user32:USER32.dll
 0000:fffce000       .debug$S                   10000000     user32:USER32.dll
 0000:fffce000       .debug$S                   10000000     user32:USER32.dll
 0000:fffce000       .debug$S                   10000000     user32:USER32.dll
 0000:fffce000       .debug$S                   10000000     user32:USER32.dll
 0001:00000000       ??__E_AtlComModule@ATL@@YAXXZ 10001000 f   OposVariant.obj
 0001:00000016       ??__E_AtlWinModule@ATL@@YAXXZ 10001016 f   OposVariant.obj
 0001:0000002c       ??__E?pConnMap@?$IConnectionPointContainerImpl@VCOPOSSoundPlayer@@@ATL@@0PBU_ATL_CONNMAP_ENTRY@2@B@@YAXXZ 1000102c f   SoundPlayer.obj
 0001:0000003a       ??__E_Module@@YAXXZ        1000103a f   SoundPlayer.obj
 0001:00000064       ??__E_AtlBaseModule@ATL@@YAXXZ 10001064 f   atls:atlbase.obj
 0001:00000ec9       $LN24                      10001ec9     SoundPlayer.obj
 0001:000058b2       $LN48                      100068b2     SoundPlayer.obj
 0001:000058ca       $LN47                      100068ca     SoundPlayer.obj
 0001:00007a75       $LN38                      10008a75     SoundPlayer.obj
 0001:00007a8d       $LN37                      10008a8d     SoundPlayer.obj
 0001:0000917d       $LN76                      1000a17d     SoundPlayer.obj
 0001:00009195       $LN75                      1000a195     SoundPlayer.obj
 0001:0000954e       _memcpy_s                  1000a54e f   SoundPlayer.obj
 0001:0000b196       ?find_pe_section@@YAPAU_IMAGE_SECTION_HEADER@@QAEI@Z 1000c196 f   LIBCMT:utility.obj
 0001:0000b4b5       ?__scrt_initialize_thread_safe_statics@@YAHXZ 1000c4b5 f   LIBCMT:thread_safe_statics.obj
 0001:0000b4dc       ?__scrt_initialize_thread_safe_statics_platform_specific@@YAXXZ 1000c4dc f   LIBCMT:thread_safe_statics.obj
 0001:0000b55e       ?__scrt_uninitialize_thread_safe_statics@@YAXXZ 1000c55e f   LIBCMT:thread_safe_statics.obj
 0001:0000b8cd       __catch$??2@YAPAXIABUnothrow_t@std@@@Z$0 1000c8cd f   LIBCMT:new_scalar_nothrow.obj
 0001:0000b910       $$000000                   1000c910     LIBCMT:sehprolg4gs.obj
 0001:0000b970       $$000000                   1000c970     LIBCMT:alloca16.obj
 0001:0000b9a0       $$000000                   1000c9a0     LIBCMT:chkstk.obj
 0001:0000b9cd       ?dllmain_crt_dispatch@@YGHQAUHINSTANCE__@@KQAX@Z 1000c9cd f   LIBCMT:dll_dllmain.obj
 0001:0000ba20       ?dllmain_crt_process_attach@@YAHQAUHINSTANCE__@@QAX@Z 1000ca20 f   LIBCMT:dll_dllmain.obj
 0001:0000bb27       ?dllmain_crt_process_detach@@YAH_N@Z 1000cb27 f   LIBCMT:dll_dllmain.obj
 0001:0000bbd7       ?dllmain_dispatch@@YAHQAUHINSTANCE__@@KQAX@Z 1000cbd7 f   LIBCMT:dll_dllmain.obj
 0001:0000bce2       ?dllmain_raw@@YGHQAUHINSTANCE__@@KQAX@Z 1000cce2 f   LIBCMT:dll_dllmain.obj
 0001:0000c060       $$000000                   1000d060     LIBCMT:sehprolg4.obj
 0001:0000c0bb       ___get_entropy             1000d0bb f   LIBCMT:gs_support.obj
 0001:0000c3b2       ??$GetProcAddressAll@P6GP6GJPAUHWND__@@IIJ@ZPAUAtlThunkData_t@@@Z@@YAP6GP6GJPAUHWND__@@IIJ@ZPAUAtlThunkData_t@@@ZPAP6GP6GJ0IIJ@Z1@Z@Z 1000d3b2 f   atls:atlthunk.obj
 0001:0000c3b2       ??$GetProcAddressAll@P6GPAUAtlThunkData_t@@XZ@@YAP6GPAUAtlThunkData_t@@XZPAP6GPAU0@XZ@Z 1000d3b2 f   atls:atlthunk.obj
 0001:0000c3b2       ??$GetProcAddressAll@P6GXPAUAtlThunkData_t@@@Z@@YAP6GXPAUAtlThunkData_t@@@ZPAP6GX0@Z@Z 1000d3b2 f   atls:atlthunk.obj
 0001:0000c3b2       ??$GetProcAddressAll@P6GXPAUAtlThunkData_t@@PAXI@Z@@YAP6GXPAUAtlThunkData_t@@PAXI@ZPAP6GX01I@Z@Z 1000d3b2 f   atls:atlthunk.obj
 0001:0000c462       ?GetProcAddressSingle@@YA_NPAUHINSTANCE__@@PBDPAPAX@Z 1000d462 f   atls:atlthunk.obj
 0001:0000c5b4       ?__InitializeThunkPool@@YAHXZ 1000d5b4 f   atls:atlthunk.obj
 0001:0000ca00       _ValidateLocalCookies      1000da00 f   libvcruntime:chandler4.obj
 0001:0000da2a       $LN1250                    1000ea2a     libvcruntime:memcmp.obj
 0001:0000dab0       $$000000                   1000eab0     libvcruntime:memcpy.obj
 0001:0000dd14       TrailingUpVec              1000ed14     libvcruntime:memcpy.obj
 0001:0000ddc0       TrailingDownVec            1000edc0     libvcruntime:memcpy.obj
 0001:0000e030       $$000000                   1000f030     libvcruntime:memset.obj
 0001:0000e633       ?_FilterSetCurrentException@@YAKPAU_EXCEPTION_POINTERS@@E@Z 1000f633 f   libvcruntime:ehhelpers.obj
 0001:0000e880       $$000000                   1000f880     libvcruntime:memmove.obj
 0001:0000eae4       TrailingUpVec              1000fae4     libvcruntime:memmove.obj
 0001:0000eb90       TrailingDownVec            1000fb90     libvcruntime:memmove.obj
 0001:0000ee00       $$000000                   1000fe00     libvcruntime:exsup4.obj
 0001:0000ee8d       __unwind_handler4          1000fe8d f   libvcruntime:exsup4.obj
 0001:0000f16b       ??$BuildCatchObjectHelperInternal@V__FrameHandler3@@@@YAHPAUEHExceptionRecord@@PAXPBU_s_HandlerType@@PBU_s_CatchableType@@@Z 1001016b f   libvcruntime:frame.obj
 0001:0000f2a9       ??$BuildCatchObjectInternal@V__FrameHandler3@@@@YAXPAUEHExceptionRecord@@PAXPBU_s_HandlerType@@PBU_s_CatchableType@@@Z 100102a9 f   libvcruntime:frame.obj
 0001:0000f342       ??$CatchIt@V__FrameHandler3@@@@YAXPAUEHExceptionRecord@@PAUEHRegistrationNode@@PAU_CONTEXT@@PAXPBU_s_FuncInfo@@PBU_s_HandlerType@@PBU_s_CatchableType@@PBU_s_TryBlockMapEntry@@H1EE@Z 10010342 f   libvcruntime:frame.obj
 0001:0000f3c2       ??$FindHandler@V__FrameHandler3@@@@YAXPAUEHExceptionRecord@@PAUEHRegistrationNode@@PAU_CONTEXT@@PAXPBU_s_FuncInfo@@EH1@Z 100103c2 f   libvcruntime:frame.obj
 0001:0000f778       ??$FindHandlerForForeignException@V__FrameHandler3@@@@YAXPAUEHExceptionRecord@@PAUEHRegistrationNode@@PAU_CONTEXT@@PAXPBU_s_FuncInfo@@HH1@Z 10010778 f   libvcruntime:frame.obj
 0001:0000fa90       ?CallCatchBlock@@YAPAXPAUEHExceptionRecord@@PAUEHRegistrationNode@@PAU_CONTEXT@@PBU_s_FuncInfo@@PAXHK@Z 10010a90 f   libvcruntime:frame.obj
 0001:0000fc54       ?CallUnexpected@@YAXPBU_s_ESTypeList@@@Z 10010c54 f   libvcruntime:frame.obj
 0001:0000fc74       __catch$?CallUnexpected@@YAXPBU_s_ESTypeList@@@Z$0 10010c74 f   libvcruntime:frame.obj
 0001:0000fc93       ?ExFilterRethrow@@YAHPAU_EXCEPTION_POINTERS@@@Z 10010c93 f   libvcruntime:frame.obj
 0001:0000fddd       ?IsInExceptionSpec@@YAEPAUEHExceptionRecord@@PBU_s_ESTypeList@@@Z 10010ddd f   libvcruntime:frame.obj
 0001:0000feb0       $$000000                   10010eb0     libvcruntime:lowhelpr.obj
 0001:0000ff00       $$000000                   10010f00     libvcruntime:exsup.obj
 0001:0000ff21       __unwind_handler           10010f21 f   libvcruntime:exsup.obj
 0001:0001003e       ?try_get_first_available_module@@YAPAUHINSTANCE__@@QBW4module_id@?A0xb97aeec8@@0@Z 1001103e f   libvcruntime:winapi_downlevel.obj
 0001:000100d8       ?try_get_function@@YAPAXW4function_id@?A0xb97aeec8@@QBDQBW4module_id@2@2@Z 100110d8 f   libvcruntime:winapi_downlevel.obj
 0001:00010762       ??$common_tcsncpy_s@_W@@YAHQA_WIQB_WI@Z 10011762 f   libucrt:wcsncpy_s.obj
 0001:00010838       ??$common_vsprintf@Vformat_validation_base@__crt_stdio_output@@_W@@YAH_KQA_WIQB_WQAU__crt_locale_pointers@@QAD@Z 10011838 f   libucrt:output.obj
 0001:000109bf       ??$common_vsprintf_s@_W@@YAH_KQA_WIQB_WQAU__crt_locale_pointers@@QAD@Z 100119bf f   libucrt:output.obj
 0001:00011123       $LN48                      10012123     libucrt:output.obj
 0001:0001162c       $LN18                      1001262c     libucrt:output.obj
 0001:00011640       $LN17                      10012640     libucrt:output.obj
 0001:00011e9b       ??$?RV<lambda_03b1d95aef87969028cfba75ccab2455>@@AAV<lambda_6e4b09c48022b2350581041d5f6b0c4c>@@V<lambda_22bdf7517842c4b3e53723af5aa32b9e>@@@?$__crt_seh_guarded_call@X@@QAEX$$QAV<lambda_03b1d95aef87969028cfba75ccab2455>@@AAV<lambda_6e4b09c48022b2350581041d5f6b0c4c>@@$$QAV<lambda_22bdf7517842c4b3e53723af5aa32b9e>@@@Z 10012e9b f   libucrt:exit.obj
 0001:00011ee8       ??R<lambda_6e4b09c48022b2350581041d5f6b0c4c>@@QBE@XZ 10012ee8 f   libucrt:exit.obj
 0001:00011fc2       ?atexit_exception_filter@@YAHK@Z 10012fc2 f   libucrt:exit.obj
 0001:00011fd5       ?common_exit@@YAXHW4_crt_exit_cleanup_mode@@W4_crt_exit_return_mode@@@Z 10012fd5 f   libucrt:exit.obj
 0001:00012039       ?exit_or_terminate_process@@YAXI@Z 10013039 f   libucrt:exit.obj
 0001:0001207b       ?is_managed_app@@YA_NXZ    1001307b f   libucrt:exit.obj
 0001:000120be       ?try_cor_exit_process@@YAXI@Z 100130be f   libucrt:exit.obj
 0001:0001214c       ??$common_configure_argv@D@@YAHW4_crt_argv_mode@@@Z 1001314c f   libucrt:argv_parsing.obj
 0001:00012282       ??$parse_command_line@D@@YAXPADPAPAD0PAI2@Z 10013282 f   libucrt:argv_parsing.obj
 0001:00012450       ??$common_initialize_environment_nolock@D@@YAHXZ 10013450 f   libucrt:environment_initialization.obj
 0001:000124a3       ??$create_environment@D@@YAQAPADQAD@Z 100134a3 f   libucrt:environment_initialization.obj
 0001:00012573       ??$free_environment@D@@YAXQAPAD@Z 10013573 f   libucrt:environment_initialization.obj
 0001:00012573       ??$free_environment@_W@@YAXQAPA_W@Z 10013573 f   libucrt:environment_initialization.obj
 0001:000125cb       ??$uninitialize_environment_internal@D@@YAXAAPAPAD@Z 100135cb f   libucrt:environment_initialization.obj
 0001:000125e6       ??$uninitialize_environment_internal@_W@@YAXAAPAPA_W@Z 100135e6 f   libucrt:environment_initialization.obj
 0001:0001263d       ??$?RV<lambda_69a2805e680e0e292e8ba93315fe43a8>@@AAV<lambda_f03950bc5685219e0bcd2087efbe011e>@@V<lambda_03fcd07e894ec930e3f35da366ca99d6>@@@?$__crt_seh_guarded_call@H@@QAEH$$QAV<lambda_69a2805e680e0e292e8ba93315fe43a8>@@AAV<lambda_f03950bc5685219e0bcd2087efbe011e>@@$$QAV<lambda_03fcd07e894ec930e3f35da366ca99d6>@@@Z 1001363d f   libucrt:onexit.obj
 0001:00012698       ??$?RV<lambda_8e746cf0007f6ed984d6f78af1fec997>@@AAV<lambda_22ebabd17bc4fa466a2aca6d8deb888d>@@V<lambda_18ed0c0b38a6dc0daf1e7ac6d6adf05e>@@@?$__crt_seh_guarded_call@H@@QAEH$$QAV<lambda_8e746cf0007f6ed984d6f78af1fec997>@@AAV<lambda_22ebabd17bc4fa466a2aca6d8deb888d>@@$$QAV<lambda_18ed0c0b38a6dc0daf1e7ac6d6adf05e>@@@Z 10013698 f   libucrt:onexit.obj
 0001:00012712       ??R<lambda_22ebabd17bc4fa466a2aca6d8deb888d>@@QBEHXZ 10013712 f   libucrt:onexit.obj
 0001:0001283b       ??R<lambda_f03950bc5685219e0bcd2087efbe011e>@@QBEHXZ 1001383b f   libucrt:onexit.obj
 0001:000129b4       _initialize_global_variables 100139b4 f   libucrt:initialization.obj
 0001:000129c1       _initialize_c              100139c1 f   libucrt:initialization.obj
 0001:000129db       _initialize_environment    100139db f   libucrt:initialization.obj
 0001:000129db       _initialize_global_state_isolation 100139db f   libucrt:initialization.obj
 0001:000129db       _report_memory_leaks       100139db f   libucrt:initialization.obj
 0001:000129db       _uninitialize_c            100139db f   libucrt:initialization.obj
 0001:000129db       _uninitialize_global_state_isolation 100139db f   libucrt:initialization.obj
 0001:000129de       _uninitialize_environment  100139de f   libucrt:initialization.obj
 0001:000129e6       _initialize_pointers       100139e6 f   libucrt:initialization.obj
 0001:00012a14       _uninitialize_vcruntime    10013a14 f   libucrt:initialization.obj
 0001:00012a1d       _uninitialize_allocated_memory 10013a1d f   libucrt:initialization.obj
 0001:00012a34       _uninitialize_allocated_io_buffers 10013a34 f   libucrt:initialization.obj
 0001:00012a84       ??R<lambda_af42a3ee9806e9a7305d451646e05244>@@QBEXAAPAU__crt_multibyte_data@@@Z 10013a84 f   libucrt:initialization.obj
 0001:00013370       $$000000                   10014370     libucrt:strncmp.obj
 0001:0001345c       ??$?RV<lambda_15ade71b0218206bbe3333a0c9b79046>@@AAV<lambda_da44e0f8b0f19ba52fefafb335991732>@@V<lambda_207f2d024fc103971653565357d6cd41>@@@?$__crt_seh_guarded_call@X@@QAEX$$QAV<lambda_15ade71b0218206bbe3333a0c9b79046>@@AAV<lambda_da44e0f8b0f19ba52fefafb335991732>@@$$QAV<lambda_207f2d024fc103971653565357d6cd41>@@@Z 1001445c f   libucrt:per_thread_data.obj
 0001:000134ae       ??$?RV<lambda_38edbb1296d33220d7e4dd0ed76b244a>@@AAV<lambda_5ce1d447e08cb34b2473517608e21441>@@V<lambda_fb385d3da700c9147fc39e65dd577a8c>@@@?$__crt_seh_guarded_call@X@@QAEX$$QAV<lambda_38edbb1296d33220d7e4dd0ed76b244a>@@AAV<lambda_5ce1d447e08cb34b2473517608e21441>@@$$QAV<lambda_fb385d3da700c9147fc39e65dd577a8c>@@@Z 100144ae f   libucrt:per_thread_data.obj
 0001:00013519       ??$?RV<lambda_6affb1475c98b40b75cdec977db92e3c>@@AAV<lambda_b8d4b9c228a6ecc3f80208dbb4b4a104>@@V<lambda_608742c3c92a14382c1684fc64f96c88>@@@?$__crt_seh_guarded_call@X@@QAEX$$QAV<lambda_6affb1475c98b40b75cdec977db92e3c>@@AAV<lambda_b8d4b9c228a6ecc3f80208dbb4b4a104>@@$$QAV<lambda_608742c3c92a14382c1684fc64f96c88>@@@Z 10014519 f   libucrt:per_thread_data.obj
 0001:0001356e       ??$?RV<lambda_a7e850c220f1c8d1e6efeecdedd162c6>@@AAV<lambda_46720907175c18b6c9d2717bc0d2d362>@@V<lambda_9048902d66e8d99359bc9897bbb930a8>@@@?$__crt_seh_guarded_call@X@@QAEX$$QAV<lambda_a7e850c220f1c8d1e6efeecdedd162c6>@@AAV<lambda_46720907175c18b6c9d2717bc0d2d362>@@$$QAV<lambda_9048902d66e8d99359bc9897bbb930a8>@@@Z 1001456e f   libucrt:per_thread_data.obj
 0001:000135c8       ?construct_ptd@@YAXQAU__acrt_ptd@@QAPAU__crt_locale_data@@@Z 100145c8 f   libucrt:per_thread_data.obj
 0001:00013661       ?destroy_fls@@YGXPAX@Z     10014661 f   libucrt:per_thread_data.obj
 0001:00013682       ?destroy_ptd@@YAXQAU__acrt_ptd@@@Z 10014682 f   libucrt:per_thread_data.obj
 0001:0001374f       ?replace_current_thread_locale_nolock@@YAXQAU__acrt_ptd@@QAU__crt_locale_data@@@Z 1001474f f   libucrt:per_thread_data.obj
 0001:00013b5f       ?try_get_AreFileApisANSI@@YAP6GHXZXZ 10014b5f f   libucrt:winapi_thunks.obj
 0001:00013b79       ?try_get_LCMapStringEx@@YAP6GHPB_WK0HPA_WHPAU_nlsversioninfo@@PAXJ@ZXZ 10014b79 f   libucrt:winapi_thunks.obj
 0001:00013b93       ?try_get_LocaleNameToLCID@@YAP6GKPB_WK@ZXZ 10014b93 f   libucrt:winapi_thunks.obj
 0001:00013bad       ?try_get_first_available_module@@YAPAUHINSTANCE__@@QBW4module_id@?A0x391cf84c@@0@Z 10014bad f   libucrt:winapi_thunks.obj
 0001:00013c74       ?try_get_function@@YAPAXW4function_id@?A0x391cf84c@@QBDQBW4module_id@2@2@Z 10014c74 f   libucrt:winapi_thunks.obj
 0001:000143d7       ?fe_to_nearest@@YA_NQBN_KF@Z 100153d7 f   libucrt:cvt.obj
 0001:0001447a       ?fp_format_a@@YAHQBNPADIQADIH_NIQAU__crt_locale_pointers@@W4__acrt_rounding_mode@@@Z 1001547a f   libucrt:cvt.obj
 0001:00014789       ?fp_format_e@@YAHQBNQADI1IH_NIQAU__crt_locale_pointers@@W4__acrt_rounding_mode@@@Z 10015789 f   libucrt:cvt.obj
 0001:00014831       ?fp_format_e_internal@@YAHQADIH_NIQAU_strflt@@1QAU__crt_locale_pointers@@@Z 10015831 f   libucrt:cvt.obj
 0001:00014979       ?fp_format_f@@YAHQBNQADI1IHQAU__crt_locale_pointers@@W4__acrt_rounding_mode@@@Z 10015979 f   libucrt:cvt.obj
 0001:00014a0a       ?fp_format_f_internal@@YAHQADIHQAU_strflt@@_NQAU__crt_locale_pointers@@@Z 10015a0a f   libucrt:cvt.obj
 0001:00014b02       ?fp_format_g@@YAHQBNQADI1IH_NIQAU__crt_locale_pointers@@@Z 10015b02 f   libucrt:cvt.obj
 0001:00014bcb       ?fp_format_nan_or_infinity@@YAHW4__acrt_fp_class@@_NPADI1@Z 10015bcb f   libucrt:cvt.obj
 0001:00014c60       ?shift_bytes@@YAXQADI0H@Z  10015c60 f   libucrt:cvt.obj
 0001:00014c94       ?should_round_up@@YA_NQBN_KFW4__acrt_rounding_mode@@@Z 10015c94 f   libucrt:cvt.obj
 0001:00014ffd       ??$?RV<lambda_e5124f882df8998aaf41531e079ba474>@@AAV<lambda_3e16ef9562a7dcce91392c22ab16ea36>@@V<lambda_e25ca0880e6ef98be67edffd8c599615>@@@?$__crt_seh_guarded_call@X@@QAEX$$QAV<lambda_e5124f882df8998aaf41531e079ba474>@@AAV<lambda_3e16ef9562a7dcce91392c22ab16ea36>@@$$QAV<lambda_e25ca0880e6ef98be67edffd8c599615>@@@Z 10015ffd f   libucrt:wsetlocale.obj
 0001:0001509d       ?initialize_inherited_file_handles_nolock@@YAXXZ 1001609d f   libucrt:ioinit.obj
 0001:00015153       ?initialize_stdio_handles_nolock@@YAXXZ 10016153 f   libucrt:ioinit.obj
 0001:00015364       ?<lambda_invoker_cdecl>@<lambda_838c7f62c73c983481e27c09e84b0b5d>@@CAHPBX0@Z 10016364 f   libucrt:argv_wildcards.obj
 0001:0001537c       ??$__acrt_convert_wcs_mbs_cp@D_WV<lambda_62f6974d9771e494a5ea317cc32e971c>@@U__crt_win32_buffer_internal_dynamic_resizing@@@@YAHQBDAAV?$__crt_win32_buffer@_WU__crt_win32_buffer_internal_dynamic_resizing@@@@ABV<lambda_62f6974d9771e494a5ea317cc32e971c>@@I@Z 1001637c f   libucrt:argv_wildcards.obj
 0001:0001542e       ??$__acrt_convert_wcs_mbs_cp@_WDV<lambda_28bda7af82a03b66c1cb3803a755f95d>@@U__crt_win32_buffer_internal_dynamic_resizing@@@@YAHQB_WAAV?$__crt_win32_buffer@DU__crt_win32_buffer_internal_dynamic_resizing@@@@ABV<lambda_28bda7af82a03b66c1cb3803a755f95d>@@I@Z 1001642e f   libucrt:argv_wildcards.obj
 0001:0001551a       ??$common_expand_argv_wildcards@D@@YAHQAPADQAPAPAD@Z 1001651a f   libucrt:argv_wildcards.obj
 0001:00015709       ??$copy_and_add_argument_to_buffer@D@@YAHQBD0IAAV?$argument_list@D@?A0x5f5c8891@@@Z 10016709 f   libucrt:argv_wildcards.obj
 0001:000157ba       ??$expand_argument_wildcards@D@@YAHQAD0AAV?$argument_list@D@?A0x5f5c8891@@@Z 100167ba f   libucrt:argv_wildcards.obj
 0001:00015b04       ?expand_if_necessary@?$argument_list@D@?A0x5f5c8891@@AAEHXZ 10016b04 f   libucrt:argv_wildcards.obj
 0001:00015b96       ??$__acrt_convert_wcs_mbs_cp@_WDV<lambda_0fec1a7b3f42a53036604e18c2d5e07e>@@U__crt_win32_buffer_no_resizing@@@@YAHQB_WAAV?$__crt_win32_buffer@DU__crt_win32_buffer_no_resizing@@@@ABV<lambda_0fec1a7b3f42a53036604e18c2d5e07e>@@I@Z 10016b96 f   libucrt:getmodulefilenamea.obj
 0001:00015d39       ??$?RV<lambda_ceb1ee4838e85a9d631eb091e2fbe199>@@AAV<lambda_ae742caa10f662c28703da3d2ea5e57e>@@V<lambda_cd08b5d6af4937fe54fc07d0c9bf6b37>@@@?$__crt_seh_guarded_call@X@@QAEX$$QAV<lambda_ceb1ee4838e85a9d631eb091e2fbe199>@@AAV<lambda_ae742caa10f662c28703da3d2ea5e57e>@@$$QAV<lambda_cd08b5d6af4937fe54fc07d0c9bf6b37>@@@Z 10016d39 f   libucrt:mbctype.obj
 0001:00015d86       ??R<lambda_ae742caa10f662c28703da3d2ea5e57e>@@QBEXXZ 10016d86 f   libucrt:mbctype.obj
 0001:00015e09       ?CPtoLocaleName@@YAPB_WH@Z 10016e09 f   libucrt:mbctype.obj
 0001:00015e47       ?getSystemCP@@YAHH@Z       10016e47 f   libucrt:mbctype.obj
 0001:00015eb8       ?setSBCS@@YAXPAU__crt_multibyte_data@@@Z 10016eb8 f   libucrt:mbctype.obj
 0001:00015f1d       ?setSBUpLow@@YAXPAU__crt_multibyte_data@@@Z 10016f1d f   libucrt:mbctype.obj
 0001:0001609d       ?setmbcp_internal@@YAHH_NQAU__acrt_ptd@@QAPAU__crt_multibyte_data@@@Z 1001709d f   libucrt:mbctype.obj
 0001:000161b1       ?update_thread_multibyte_data_internal@@YAPAU__crt_multibyte_data@@QAU__acrt_ptd@@QAPAU1@@Z 100171b1 f   libucrt:mbctype.obj
 0001:0001649f       _memcpy_s                  1001749f f   libucrt:cfout.obj
 0001:0001649f       _memcpy_s                  1001749f f   libucrt:mbctype.obj
 0001:00016520       ?x_ismbbtype_l@@YAHPAU__crt_locale_pointers@@IHH@Z 10017520 f   libucrt:ismbbyte.obj
 0001:000166db       ?find_end_of_double_null_terminated_sequence@@YAPB_WQB_W@Z 100176db f   libucrt:get_environment_from_os.obj
 0001:0001684a       ??$?RV<lambda_cbab9ec6f41b0180b23cc171c22676b0>@@AAV<lambda_44731a7d0e6d81c3e6aa82d741081786>@@V<lambda_4b292cb8dd18144e164572427af410ab>@@@?$__crt_seh_guarded_call@P6AXH@Z@@QAEP6AXH@Z$$QAV<lambda_cbab9ec6f41b0180b23cc171c22676b0>@@AAV<lambda_44731a7d0e6d81c3e6aa82d741081786>@@$$QAV<lambda_4b292cb8dd18144e164572427af410ab>@@@Z 1001784a f   libucrt:signal.obj
 0001:000168ae       ?get_global_action_nolock@@YAPAP6AXH@ZH@Z 100178ae f   libucrt:signal.obj
 0001:000168f0       ?siglookup@@YAPAU__crt_signal_action_t@@HQAU1@@Z 100178f0 f   libucrt:signal.obj
 0001:00016ba9       ??$?RV<lambda_2866be3712abc81a800a822484c830d8>@@AAV<lambda_39ca0ed439415581b5b15c265174cece>@@V<lambda_2b24c74d71094a6cd0cb82e44167d71b>@@@?$__crt_seh_guarded_call@X@@QAEX$$QAV<lambda_2866be3712abc81a800a822484c830d8>@@AAV<lambda_39ca0ed439415581b5b15c265174cece>@@$$QAV<lambda_2b24c74d71094a6cd0cb82e44167d71b>@@@Z 10017ba9 f   libucrt:fflush.obj
 0001:00016c35       ??$?RV<lambda_2cc53f568c5a2bb6f192f930a45d44ea>@@AAV<lambda_ab61a845afdef5b7c387490eaf3616ee>@@V<lambda_c2ffc0b7726aa6be21d5f0026187e748>@@@?$__crt_seh_guarded_call@X@@QAEX$$QAV<lambda_2cc53f568c5a2bb6f192f930a45d44ea>@@AAV<lambda_ab61a845afdef5b7c387490eaf3616ee>@@$$QAV<lambda_c2ffc0b7726aa6be21d5f0026187e748>@@@Z 10017c35 f   libucrt:fflush.obj
 0001:00016ce1       ?common_flush_all@@YAH_N@Z 10017ce1 f   libucrt:fflush.obj
 0001:00016d2e       ?common_flush_all_should_try_to_flush_stream@@YA_NV__crt_stdio_stream@@QAH@Z 10017d2e f   libucrt:fflush.obj
 0001:00016d61       ?is_stream_flushable_or_commitable@@YA_NJ@Z 10017d61 f   libucrt:fflush.obj
 0001:0001726a       ?GetTableIndexFromLocaleName@@YAHPB_W@Z 1001826a f   libucrt:lcidtoname_downlevel.obj
 0001:00017320       ??R<lambda_3d301b9e52f5099be73030e1f0bf487e>@@QBEIPBD@Z 10018320 f   libucrt:mbrtowc.obj
 0001:000174a6       ?should_round_up@@YA_NQBDHW4__acrt_has_trailing_digits@@W4__acrt_rounding_mode@@@Z 100184a6 f   libucrt:_fptostr.obj
 0001:00019244       ?free_crt_array_internal@@YAXQAPBXI@Z 1001a244 f   libucrt:inittime.obj
 0001:00019c0e       ??$common_tcsncpy_s@D@@YAHQADIQBDI@Z 1001ac0e f   libucrt:strncpy_s.obj
 0001:00019cd0       $$000000                   1001acd0     libucrt:strpbrk.obj
 0001:00019db4       ?__acrt_LCMapStringA_stat@@YAHPAU__crt_locale_pointers@@PB_WKPBDHPADHHH@Z 1001adb4 f   libucrt:lcmapstringa.obj
 0001:00019fe7       ?initialize_multibyte@@YAHXZ 1001afe7 f   libucrt:multibyte_initializer.obj
 0001:00019ff6       ??$?RV<lambda_9e9de3de5fa147e2223d7db92bc10aa6>@@AAV<lambda_38ce7e780aa69e748d6df282ebc68efe>@@V<lambda_8ca6da459f0f6780f1cff60fdc3d00e5>@@@?$__crt_seh_guarded_call@H@@QAEH$$QAV<lambda_9e9de3de5fa147e2223d7db92bc10aa6>@@AAV<lambda_38ce7e780aa69e748d6df282ebc68efe>@@$$QAV<lambda_8ca6da459f0f6780f1cff60fdc3d00e5>@@@Z 1001aff6 f   libucrt:commit.obj
 0001:0001a115       ?write_double_translated_ansi_nolock@@YA?AUwrite_result@?A0x17268360@@HQBDI@Z 1001b115 f   libucrt:write.obj
 0001:0001a4c1       ?write_double_translated_unicode_nolock@@YA?AUwrite_result@?A0x17268360@@QBDI@Z 1001b4c1 f   libucrt:write.obj
 0001:0001a529       ?write_requires_double_translation_nolock@@YA_NH@Z 1001b529 f   libucrt:write.obj
 0001:0001a59a       ?write_text_ansi_nolock@@YA?AUwrite_result@?A0x17268360@@HQBDI@Z 1001b59a f   libucrt:write.obj
 0001:0001a675       ?write_text_utf16le_nolock@@YA?AUwrite_result@?A0x17268360@@HQBDI@Z 1001b675 f   libucrt:write.obj
 0001:0001a75e       ?write_text_utf8_nolock@@YA?AUwrite_result@?A0x17268360@@HQBDI@Z 1001b75e f   libucrt:write.obj
 0001:0001ae80       $$000000                   1001be80     libucrt:log10_impl.obj
 0001:0001af90       $$000000                   1001bf90     libucrt:ceil_pentium4.obj
 0001:0001b0ad       ?to_abstract_control@@YA?AW4__acrt_fenv_abstract_control@@W4__acrt_fenv_machine_sse_control@@@Z 1001c0ad f   libucrt:_fenvutils.obj
 0001:0001b169       ?to_abstract_control@@YA?AW4__acrt_fenv_abstract_control@@W4__acrt_fenv_machine_x87_control@@@Z 1001c169 f   libucrt:_fenvutils.obj
 0001:0001b222       ?to_machine_sse_control@@YA?AW4__acrt_fenv_machine_sse_control@@W4__acrt_fenv_abstract_control@@@Z 1001c222 f   libucrt:_fenvutils.obj
 0001:0001b2ef       ?to_machine_x87_control@@YA?AW4__acrt_fenv_machine_x87_control@@W4__acrt_fenv_abstract_control@@@Z 1001c2ef f   libucrt:_fenvutils.obj
 0001:0001b683       ??$common_lseek_nolock@_J@@YA_JH_JH@Z 1001c683 f   libucrt:lseek.obj
 0001:0001b869       ___hw_cw_sse2              1001c869 f   libucrt:ieee87.obj
 0001:0001bcef       __hw_cw                    1001ccef f   libucrt:ieee87.obj
 0001:0001bda0       $$000000                   1001cda0     libucrt:log10_pentium4.obj
 0001:0001c030       $$000000                   1001d030     libucrt:87tran.obj
 0001:0001c240       $$000000                   1001d240     libucrt:87disp.obj
 0001:0001c4a0       $$000000                   1001d4a0     libucrt:common.obj
 0001:0001c630       $$000000                   1001d630     libucrt:genexcep.obj
 0001:0001c92c       ??$?RV<lambda_218ce3db14220d0be481dae8ef3383b6>@@AAV<lambda_628dfdc04ba53c8bfc02c9951375f3f5>@@V<lambda_57dc472bd5c9d5f3b2cbca59b8a843ae>@@@?$__crt_seh_guarded_call@H@@QAEH$$QAV<lambda_218ce3db14220d0be481dae8ef3383b6>@@AAV<lambda_628dfdc04ba53c8bfc02c9951375f3f5>@@$$QAV<lambda_57dc472bd5c9d5f3b2cbca59b8a843ae>@@@Z 1001d92c f   libucrt:close.obj
 0001:0001cb20       $$000000                   1001db20     libucrt:_strnicm.obj
 0001:0001cb81       ?__dcrt_lowio_initialize_console_output@@YAXXZ 1001db81 f   libucrt:initcon.obj
 0001:0001da60       $$000000                   1001ea60     LIBCMT:ulldvrm.obj
 0001:0001db00       $$000000                   1001eb00     LIBCMT:llmul.obj
 0001:0001db40       $$000000                   1001eb40     LIBCMT:lldvrm.obj
 0001:0001dc20       $$000000                   1001ec20     LIBCMT:llshl.obj
 0001:0001dc40       $$000000                   1001ec40     LIBCMT:ullshr.obj
 0001:0001dc60       $$000000                   1001ec60     LIBCMT:ftol2.obj
 0001:0001df00       $$000000                   1001ef00     libvcruntime:strrchr.obj
 0001:0001e040       $$000000                   1001f040     libvcruntime:strchr.obj
 0001:0001e1e3       __ehhandler$??2@YAPAXIABUnothrow_t@std@@@Z 1001f1e3 f   LIBCMT:new_scalar_nothrow.obj
 0001:0001e200       __ehhandler$?CallUnexpected@@YAXPBU_s_ESTypeList@@@Z 1001f200 f   libvcruntime:frame.obj
 0001:0001e21d       ??__F_AtlComModule@ATL@@YAXXZ 1001f21d f   OposVariant.obj
 0001:0001e227       ??__F_AtlWinModule@ATL@@YAXXZ 1001f227 f   OposVariant.obj
 0001:0001e241       ??__F_Module@@YAXXZ        1001f241 f   SoundPlayer.obj
 0001:0001e255       ??__F_AtlBaseModule@ATL@@YAXXZ 1001f255 f   atls:atlbase.obj
 0002:00000304       ?_AtlBaseModule$initializer$@ATL@@3P6AXXZA 10020304     atls:atlbase.obj
 0002:00000308       ?_AtlComModule$initializer$@ATL@@3P6AXXZA 10020308     OposVariant.obj
 0002:0000030c       ?_AtlWinModule$initializer$@ATL@@3P6AXXZA 1002030c     OposVariant.obj
 0002:00000310       ?_Module$initializer$@@3P6AXXZA 10020310     SoundPlayer.obj
 0002:00000314       ??pConnMap$initializer$@?$IConnectionPointContainerImpl@VCOPOSSoundPlayer@@@ATL@@0P6AXXZA@@3P6AXXZA 10020314     SoundPlayer.obj
 0002:00000320       ?__scrt_initialize_tss_var@@3P6AHXZA 10020320     LIBCMT:thread_safe_statics.obj
 0002:000017d0       _GS_ExceptionPointers      100217d0     LIBCMT:gs_report.obj
 0002:00001960       ?tokenTable@@3QBUStringLiteral@@B 10021960     libvcruntime:undname.obj
 0002:000019e0       ?nameTable@@3QBUStringLiteral@@B 100219e0     libvcruntime:undname.obj
 0002:00001c78       ?rttiTable@@3QBUStringLiteral@@B 10021c78     libvcruntime:undname.obj
 0002:00001ca0       ?IndirectionName@@3QBUStringLiteral@@B 10021ca0     libvcruntime:undname.obj
 0002:00001cd0       ?PrefixName@@3QBUStringLiteral@@B 10021cd0     libvcruntime:undname.obj
 0002:00002300       ?module_names@?A0xb97aeec8@@3QBQB_WB 10022300     libvcruntime:winapi_downlevel.obj
 0002:000023a8       ?candidate_modules@?1??try_get_FlsAlloc@@YAP6GKP6GXPAX@Z@ZXZ@4QBW4module_id@?A0xb97aeec8@@B 100223a8     libvcruntime:winapi_downlevel.obj
 0002:000023bc       ?candidate_modules@?1??try_get_FlsFree@@YAP6GHK@ZXZ@4QBW4module_id@?A0xb97aeec8@@B 100223bc     libvcruntime:winapi_downlevel.obj
 0002:000023cc       ?candidate_modules@?1??try_get_FlsGetValue@@YAP6GPAXK@ZXZ@4QBW4module_id@?A0xb97aeec8@@B 100223cc     libvcruntime:winapi_downlevel.obj
 0002:000023e0       ?candidate_modules@?1??try_get_FlsSetValue@@YAP6GHKPAX@ZXZ@4QBW4module_id@?A0xb97aeec8@@B 100223e0     libvcruntime:winapi_downlevel.obj
 0002:000023f4       ?candidate_modules@?1??try_get_InitializeCriticalSectionEx@@YAP6GHPAU_RTL_CRITICAL_SECTION@@KK@ZXZ@4QBW4module_id@?A0xb97aeec8@@B 100223f4     libvcruntime:winapi_downlevel.obj
 0002:00002418       ?errtable@@3QBUerrentry@?A0x31fdb9ec@@B 10022418     libucrt:errno.obj
 0002:00002a60       ___acrt_initializers       10022a60     libucrt:initialization.obj
 0002:00002ae0       ?module_names@?A0x391cf84c@@3QBQB_WB 10022ae0     libucrt:winapi_thunks.obj
 0002:00002f58       ?candidate_modules@?1??try_get_AreFileApisANSI@@YAP6GHXZXZ@4QBW4module_id@?A0x391cf84c@@B 10022f58     libucrt:winapi_thunks.obj
 0002:00002f6c       ?candidate_modules@?1??try_get_FlsAlloc@@YAP6GKP6GXPAX@Z@ZXZ@4QBW4module_id@?A0x391cf84c@@B 10022f6c     libucrt:winapi_thunks.obj
 0002:00002f74       ?candidate_modules@?1??try_get_FlsFree@@YAP6GHK@ZXZ@4QBW4module_id@?A0x391cf84c@@B 10022f74     libucrt:winapi_thunks.obj
 0002:00002f7c       ?candidate_modules@?1??try_get_FlsGetValue@@YAP6GPAXK@ZXZ@4QBW4module_id@?A0x391cf84c@@B 10022f7c     libucrt:winapi_thunks.obj
 0002:00002f84       ?candidate_modules@?1??try_get_FlsSetValue@@YAP6GHKPAX@ZXZ@4QBW4module_id@?A0x391cf84c@@B 10022f84     libucrt:winapi_thunks.obj
 0002:00002f8c       ?candidate_modules@?1??try_get_InitializeCriticalSectionEx@@YAP6GHPAU_RTL_CRITICAL_SECTION@@KK@ZXZ@4QBW4module_id@?A0x391cf84c@@B 10022f8c     libucrt:winapi_thunks.obj
 0002:00002f94       ?candidate_modules@?1??try_get_LCMapStringEx@@YAP6GHPB_WK0HPA_WHPAU_nlsversioninfo@@PAXJ@ZXZ@4QBW4module_id@?A0x391cf84c@@B 10022f94     libucrt:winapi_thunks.obj
 0002:00002fac       ?candidate_modules@?1??try_get_LocaleNameToLCID@@YAP6GKPB_WK@ZXZ@4QBW4module_id@?A0x391cf84c@@B 10022fac     libucrt:winapi_thunks.obj
 0002:00002fc8       ?candidate_modules@?1??try_get_AppPolicyGetProcessTerminationMethod@@YAP6GJPAXPAW4AppPolicyProcessTerminationMethod@@@ZXZ@4QBW4module_id@?A0x391cf84c@@B 10022fc8     libucrt:winapi_thunks.obj
 0002:00002ff4       ?candidate_modules@?1??try_get_SetThreadStackGuarantee@@YAP6GHPAK@ZXZ@4QBW4module_id@?A0x391cf84c@@B 10022ff4     libucrt:winapi_thunks.obj
 0002:00003018       ?strings@?1??fp_format_nan_or_infinity@@YAHW4__acrt_fp_class@@_NPADI1@Z@4QAY03QBDA 10023018     libucrt:cvt.obj
 0002:00003560       ?_mb_locale_names@@3QBQB_WB 10023560     libucrt:mbctype.obj
 0002:00003da8       ?LcidToLocaleNameTable@?A0x881e4c05@@3QBULcidToLocaleName@1@B 10023da8     libucrt:lcidtoname_downlevel.obj
 0002:00004ed0       ?LocaleNameToIndexTable@?A0x881e4c05@@3QBULocaleNameIndex@1@B 10024ed0     libucrt:lcidtoname_downlevel.obj
 0002:00006810       LOG_name                   10026810     libucrt:log10_impl.obj
 0002:00006820       _One                       10026820     libucrt:ceil_pentium4.obj
 0002:00006830       _Bns                       10026830     libucrt:ceil_pentium4.obj
 0002:00006840       _Zero                      10026840     libucrt:ceil_pentium4.obj
 0002:00006850       _S                         10026850     libucrt:ceil_pentium4.obj
 0002:00006860       _NegZero                   10026860     libucrt:ceil_pentium4.obj
 0002:00006870       emask                      10026870     libucrt:log10_pentium4.obj
 0002:00006880       CC                         10026880     libucrt:log10_pentium4.obj
 0002:00006890       Magic                      10026890     libucrt:log10_pentium4.obj
 0002:000068a0       hi_mask                    100268a0     libucrt:log10_pentium4.obj
 0002:000068b0       LOG10_2                    100268b0     libucrt:log10_pentium4.obj
 0002:000068c0       place_L                    100268c0     libucrt:log10_pentium4.obj
 0002:000068e0       One                        100268e0     libucrt:log10_pentium4.obj
 0002:000068f0       Zero                       100268f0     libucrt:log10_pentium4.obj
 0002:00006900       Two52                      10026900     libucrt:log10_pentium4.obj
 0002:00006910       Infs                       10026910     libucrt:log10_pentium4.obj
 0002:00006920       NaN                        10026920     libucrt:log10_pentium4.obj
 0002:00006930       coeff                      10026930     libucrt:log10_pentium4.obj
 0002:0000698e       _log2max                   1002698e     libucrt:87tran.obj
 0002:00006998       _smallarg                  10026998     libucrt:87tran.obj
 0002:000069a2       _half                      100269a2     libucrt:87tran.obj
 0002:000069ee       One                        100269ee     libucrt:87disp.obj
 0002:000069f6       Three                      100269f6     libucrt:87disp.obj
 0002:000069fe       XAMtoTagTab                100269fe     libucrt:87disp.obj
 0002:00006a10       One                        10026a10     libucrt:common.obj
 0002:00006a24       DblMax                     10026a24     libucrt:common.obj
 0002:00006a2c       DblMin                     10026a2c     libucrt:common.obj
 0002:00006a34       IeeeAdjO                   10026a34     libucrt:common.obj
 0002:00006a3c       IeeeAdjU                   10026a3c     libucrt:common.obj
 0002:00006a44       _infinity                  10026a44     libucrt:common.obj
 0002:00006a4c       _zero                      10026a4c     libucrt:common.obj
 0002:00006a98       _over                      10026a98     libucrt:fpctrl.obj
 0002:00006aa4       _under                     10026aa4     libucrt:fpctrl.obj
 0002:000072d8       ?_names@?1??_get_fname@@9@9 100272d8     libucrt:fpexcept.obj
 0002:00007480       two32                      10027480     LIBCMT:ftol2.obj
 0002:00007484       two63                      10027484     LIBCMT:ftol2.obj
 0002:00007488       _NaN                       10027488     LIBCMT:ftol2.obj
 0002:00007b68       __sehtable$?_AtlVerifyStackAvailable@_ATL_SAFE_ALLOCA_IMPL@ATL@@YA_NK@Z 10027b68     SoundPlayer.obj
 0002:00007b88       __sehtable$___scrt_is_nonwritable_in_current_image 10027b88     LIBCMT:utility.obj
 0002:00007ba4       __catchsym$??2@YAPAXIABUnothrow_t@std@@@Z$2 10027ba4     LIBCMT:new_scalar_nothrow.obj
 0002:00007bb4       __unwindtable$??2@YAPAXIABUnothrow_t@std@@@Z 10027bb4     LIBCMT:new_scalar_nothrow.obj
 0002:00007bc4       __tryblocktable$??2@YAPAXIABUnothrow_t@std@@@Z 10027bc4     LIBCMT:new_scalar_nothrow.obj
 0002:00007bd8       __ehfuncinfo$??2@YAPAXIABUnothrow_t@std@@@Z 10027bd8     LIBCMT:new_scalar_nothrow.obj
 0002:00007c00       __sehtable$?dllmain_crt_process_attach@@YAHQAUHINSTANCE__@@QAX@Z 10027c00     LIBCMT:dll_dllmain.obj
 0002:00007c20       __sehtable$?dllmain_crt_process_detach@@YAH_N@Z 10027c20     LIBCMT:dll_dllmain.obj
 0002:00007c48       __sehtable$?dllmain_dispatch@@YAHQAUHINSTANCE__@@KQAX@Z 10027c48     LIBCMT:dll_dllmain.obj
 0002:00007cf8       __sehtable$___DestructExceptionObject 10027cf8     libvcruntime:ehhelpers.obj
 0002:00007d18       __sehtable$?FrameUnwindToState@__FrameHandler3@@SAXPAUEHRegistrationNode@@PAXPBU_s_FuncInfo@@H@Z 10027d18     libvcruntime:frame.obj
 0002:00007d40       __sehtable$?CallCatchBlock@@YAPAXPAUEHExceptionRecord@@PAUEHRegistrationNode@@PAU_CONTEXT@@PBU_s_FuncInfo@@PAXHK@Z 10027d40     libvcruntime:frame.obj
 0002:00007d68       __catchsym$?CallUnexpected@@YAXPBU_s_ESTypeList@@@Z$2 10027d68     libvcruntime:frame.obj
 0002:00007d78       __unwindtable$?CallUnexpected@@YAXPBU_s_ESTypeList@@@Z 10027d78     libvcruntime:frame.obj
 0002:00007d88       __tryblocktable$?CallUnexpected@@YAXPBU_s_ESTypeList@@@Z 10027d88     libvcruntime:frame.obj
 0002:00007d9c       __ehfuncinfo$?CallUnexpected@@YAXPBU_s_ESTypeList@@@Z 10027d9c     libvcruntime:frame.obj
 0002:00007dc0       __sehtable$??$BuildCatchObjectHelperInternal@V__FrameHandler3@@@@YAHPAUEHExceptionRecord@@PAXPBU_s_HandlerType@@PBU_s_CatchableType@@@Z 10027dc0     libvcruntime:frame.obj
 0002:00007de0       __sehtable$??$BuildCatchObjectInternal@V__FrameHandler3@@@@YAXPAUEHExceptionRecord@@PAXPBU_s_HandlerType@@PBU_s_CatchableType@@@Z 10027de0     libvcruntime:frame.obj
 0002:00007e38       __sehtable$??R<lambda_6e4b09c48022b2350581041d5f6b0c4c>@@QBE@XZ 10027e38     libucrt:exit.obj
 0002:00007e58       __sehtable$??$?RV<lambda_03b1d95aef87969028cfba75ccab2455>@@AAV<lambda_6e4b09c48022b2350581041d5f6b0c4c>@@V<lambda_22bdf7517842c4b3e53723af5aa32b9e>@@@?$__crt_seh_guarded_call@X@@QAEX$$QAV<lambda_03b1d95aef87969028cfba75ccab2455>@@AAV<lambda_6e4b09c48022b2350581041d5f6b0c4c>@@$$QAV<lambda_22bdf7517842c4b3e53723af5aa32b9e>@@@Z 10027e58     libucrt:exit.obj
 0002:00007e78       __sehtable$??$?RV<lambda_8e746cf0007f6ed984d6f78af1fec997>@@AAV<lambda_22ebabd17bc4fa466a2aca6d8deb888d>@@V<lambda_18ed0c0b38a6dc0daf1e7ac6d6adf05e>@@@?$__crt_seh_guarded_call@H@@QAEH$$QAV<lambda_8e746cf0007f6ed984d6f78af1fec997>@@AAV<lambda_22ebabd17bc4fa466a2aca6d8deb888d>@@$$QAV<lambda_18ed0c0b38a6dc0daf1e7ac6d6adf05e>@@@Z 10027e78     libucrt:onexit.obj
 0002:00007e98       __sehtable$??$?RV<lambda_69a2805e680e0e292e8ba93315fe43a8>@@AAV<lambda_f03950bc5685219e0bcd2087efbe011e>@@V<lambda_03fcd07e894ec930e3f35da366ca99d6>@@@?$__crt_seh_guarded_call@H@@QAEH$$QAV<lambda_69a2805e680e0e292e8ba93315fe43a8>@@AAV<lambda_f03950bc5685219e0bcd2087efbe011e>@@$$QAV<lambda_03fcd07e894ec930e3f35da366ca99d6>@@@Z 10027e98     libucrt:onexit.obj
 0002:00007eb8       __sehtable$__query_new_handler 10027eb8     libucrt:new_handler.obj
 0002:00007ed8       __sehtable$_terminate      10027ed8     libucrt:terminate.obj
 0002:00007ef8       __sehtable$??$?RV<lambda_15ade71b0218206bbe3333a0c9b79046>@@AAV<lambda_da44e0f8b0f19ba52fefafb335991732>@@V<lambda_207f2d024fc103971653565357d6cd41>@@@?$__crt_seh_guarded_call@X@@QAEX$$QAV<lambda_15ade71b0218206bbe3333a0c9b79046>@@AAV<lambda_da44e0f8b0f19ba52fefafb335991732>@@$$QAV<lambda_207f2d024fc103971653565357d6cd41>@@@Z 10027ef8     libucrt:per_thread_data.obj
 0002:00007f18       __sehtable$??$?RV<lambda_a7e850c220f1c8d1e6efeecdedd162c6>@@AAV<lambda_46720907175c18b6c9d2717bc0d2d362>@@V<lambda_9048902d66e8d99359bc9897bbb930a8>@@@?$__crt_seh_guarded_call@X@@QAEX$$QAV<lambda_a7e850c220f1c8d1e6efeecdedd162c6>@@AAV<lambda_46720907175c18b6c9d2717bc0d2d362>@@$$QAV<lambda_9048902d66e8d99359bc9897bbb930a8>@@@Z 10027f18     libucrt:per_thread_data.obj
 0002:00007f38       __sehtable$??$?RV<lambda_38edbb1296d33220d7e4dd0ed76b244a>@@AAV<lambda_5ce1d447e08cb34b2473517608e21441>@@V<lambda_fb385d3da700c9147fc39e65dd577a8c>@@@?$__crt_seh_guarded_call@X@@QAEX$$QAV<lambda_38edbb1296d33220d7e4dd0ed76b244a>@@AAV<lambda_5ce1d447e08cb34b2473517608e21441>@@$$QAV<lambda_fb385d3da700c9147fc39e65dd577a8c>@@@Z 10027f38     libucrt:per_thread_data.obj
 0002:00007f58       __sehtable$??$?RV<lambda_6affb1475c98b40b75cdec977db92e3c>@@AAV<lambda_b8d4b9c228a6ecc3f80208dbb4b4a104>@@V<lambda_608742c3c92a14382c1684fc64f96c88>@@@?$__crt_seh_guarded_call@X@@QAEX$$QAV<lambda_6affb1475c98b40b75cdec977db92e3c>@@AAV<lambda_b8d4b9c228a6ecc3f80208dbb4b4a104>@@$$QAV<lambda_608742c3c92a14382c1684fc64f96c88>@@@Z 10027f58     libucrt:per_thread_data.obj
 0002:00007f78       __sehtable$??$?RV<lambda_e5124f882df8998aaf41531e079ba474>@@AAV<lambda_3e16ef9562a7dcce91392c22ab16ea36>@@V<lambda_e25ca0880e6ef98be67edffd8c599615>@@@?$__crt_seh_guarded_call@X@@QAEX$$QAV<lambda_e5124f882df8998aaf41531e079ba474>@@AAV<lambda_3e16ef9562a7dcce91392c22ab16ea36>@@$$QAV<lambda_e25ca0880e6ef98be67edffd8c599615>@@@Z 10027f78     libucrt:wsetlocale.obj
 0002:00007f98       __sehtable$___acrt_initialize_lowio 10027f98     libucrt:ioinit.obj
 0002:00007fb8       __sehtable$?update_thread_multibyte_data_internal@@YAPAU__crt_multibyte_data@@QAU__acrt_ptd@@QAPAU1@@Z 10027fb8     libucrt:mbctype.obj
 0002:00007fd8       __sehtable$??$?RV<lambda_ceb1ee4838e85a9d631eb091e2fbe199>@@AAV<lambda_ae742caa10f662c28703da3d2ea5e57e>@@V<lambda_cd08b5d6af4937fe54fc07d0c9bf6b37>@@@?$__crt_seh_guarded_call@X@@QAEX$$QAV<lambda_ceb1ee4838e85a9d631eb091e2fbe199>@@AAV<lambda_ae742caa10f662c28703da3d2ea5e57e>@@$$QAV<lambda_cd08b5d6af4937fe54fc07d0c9bf6b37>@@@Z 10027fd8     libucrt:mbctype.obj
 0002:00007ff8       __sehtable$_raise          10027ff8     libucrt:signal.obj
 0002:00008018       __sehtable$??$?RV<lambda_cbab9ec6f41b0180b23cc171c22676b0>@@AAV<lambda_44731a7d0e6d81c3e6aa82d741081786>@@V<lambda_4b292cb8dd18144e164572427af410ab>@@@?$__crt_seh_guarded_call@P6AXH@Z@@QAEP6AXH@Z$$QAV<lambda_cbab9ec6f41b0180b23cc171c22676b0>@@AAV<lambda_44731a7d0e6d81c3e6aa82d741081786>@@$$QAV<lambda_4b292cb8dd18144e164572427af410ab>@@@Z 10028018     libucrt:signal.obj
 0002:00008038       __sehtable$??$?RV<lambda_2866be3712abc81a800a822484c830d8>@@AAV<lambda_39ca0ed439415581b5b15c265174cece>@@V<lambda_2b24c74d71094a6cd0cb82e44167d71b>@@@?$__crt_seh_guarded_call@X@@QAEX$$QAV<lambda_2866be3712abc81a800a822484c830d8>@@AAV<lambda_39ca0ed439415581b5b15c265174cece>@@$$QAV<lambda_2b24c74d71094a6cd0cb82e44167d71b>@@@Z 10028038     libucrt:fflush.obj
 0002:00008058       __sehtable$??$?RV<lambda_2cc53f568c5a2bb6f192f930a45d44ea>@@AAV<lambda_ab61a845afdef5b7c387490eaf3616ee>@@V<lambda_c2ffc0b7726aa6be21d5f0026187e748>@@@?$__crt_seh_guarded_call@X@@QAEX$$QAV<lambda_2cc53f568c5a2bb6f192f930a45d44ea>@@AAV<lambda_ab61a845afdef5b7c387490eaf3616ee>@@$$QAV<lambda_c2ffc0b7726aa6be21d5f0026187e748>@@@Z 10028058     libucrt:fflush.obj
 0002:00008078       __sehtable$___acrt_update_thread_locale_data 10028078     libucrt:locale_refcounting.obj
 0002:00008098       __sehtable$__fcloseall     10028098     libucrt:closeall.obj
 0002:000080b8       __sehtable$___acrt_lowio_ensure_fh_exists 100280b8     libucrt:osfinfo.obj
 0002:000080d8       __sehtable$??$?RV<lambda_9e9de3de5fa147e2223d7db92bc10aa6>@@AAV<lambda_38ce7e780aa69e748d6df282ebc68efe>@@V<lambda_8ca6da459f0f6780f1cff60fdc3d00e5>@@@?$__crt_seh_guarded_call@H@@QAEH$$QAV<lambda_9e9de3de5fa147e2223d7db92bc10aa6>@@AAV<lambda_38ce7e780aa69e748d6df282ebc68efe>@@$$QAV<lambda_8ca6da459f0f6780f1cff60fdc3d00e5>@@@Z 100280d8     libucrt:commit.obj
 0002:000080f8       __sehtable$__write         100280f8     libucrt:write.obj
 0002:00008118       __sehtable$_fclose         10028118     libucrt:fclose.obj
 0002:00008138       __sehtable$??$?RV<lambda_218ce3db14220d0be481dae8ef3383b6>@@AAV<lambda_628dfdc04ba53c8bfc02c9951375f3f5>@@V<lambda_57dc472bd5c9d5f3b2cbca59b8a843ae>@@@?$__crt_seh_guarded_call@H@@QAEH$$QAV<lambda_218ce3db14220d0be481dae8ef3383b6>@@AAV<lambda_628dfdc04ba53c8bfc02c9951375f3f5>@@$$QAV<lambda_57dc472bd5c9d5f3b2cbca59b8a843ae>@@@Z 10028138     libucrt:close.obj
 0002:00008158       __sehtable$___set_fpsr_sse2 10028158     libucrt:fpctrl.obj
 0002:00008178       __sehtable$__IsNonwritableInCurrentImage 10028178     LIBCMT:pesect.obj
 0002:000081a0       .edata                     100281a0     OPOSSoundPlayer.exp
 0002:000081c8       rgpv                       100281c8     OPOSSoundPlayer.exp
 0002:000081d8       rgszName                   100281d8     OPOSSoundPlayer.exp
 0002:000081e8       rgwOrd                     100281e8     OPOSSoundPlayer.exp
 0002:000081f0       szName                     100281f0     OPOSSoundPlayer.exp
 0002:00008204       $N00001                    10028204     OPOSSoundPlayer.exp
 0002:00008214       $N00002                    10028214     OPOSSoundPlayer.exp
 0002:00008226       $N00003                    10028226     OPOSSoundPlayer.exp
 0002:00008238       $N00004                    10028238     OPOSSoundPlayer.exp
 0002:00008846       .idata$6                   10028846     kernel32:KERNEL32.dll
 0002:00008a5a       .idata$6                   10028a5a     user32:USER32.dll
 0002:00008b8e       .idata$6                   10028b8e     gdi32:GDI32.dll
 0002:00008c34       .idata$6                   10028c34     advapi32:ADVAPI32.dll
 0002:00008d50       .idata$6                   10028d50     ole32:ole32.dll
 0002:00008d5a       .idata$6                   10028d5a     oleaut32:OLEAUT32.dll
 0003:00000110       ?ObjectMap@@3PAU_ATL_OBJMAP_ENTRY30@ATL@@A 1002a110     SoundPlayer.obj
 0003:000001b8       ?s_SOMethodNames@@3PAPADA  1002a1b8     SoundPlayerImpl.obj
 0003:00000208       ?s_RequiredMethodsPerRelease@@3PAHA 1002a208     SoundPlayerImpl.obj
 0003:00000230       ?__vcrt_flsindex@@3KA      1002a230     libvcruntime:per_thread_data.obj
 0003:00000250       ?errno_no_memory@@3HA      1002a250     libucrt:errno.obj
 0003:00000254       ?doserrno_no_memory@@3KA   1002a254     libucrt:errno.obj
 0003:00000260       ?__acrt_flsindex@@3KA      1002a260     libucrt:per_thread_data.obj
 0003:000005f8       __mbctypes                 1002a5f8     libucrt:mbctype.obj
 0003:00000700       __mbcasemaps               1002a700     libucrt:mbctype.obj
 0003:00000800       ?__rgctypeflag@@3PADA      1002a800     libucrt:mbctype.obj
 0003:00000808       ?__rgcode_page_info@@3PAUcode_page_info@@A 1002a808     libucrt:mbctype.obj
 0003:00000a60       ?__dcrt_lowio_console_output_handle@@3PAXA 1002aa60     libucrt:initcon.obj
 0003:00000a64       ?__DAZ_ENABLED@?1??__set_fpsr_sse2@@9@9 1002aa64     libucrt:fpctrl.obj
 0003:00000bf8       ?is_initialized_as_dll@@3_NA 1002abf8     LIBCMT:utility.obj
 0003:00000bf9       ?module_local_atexit_table_initialized@@3_NA 1002abf9     LIBCMT:utility.obj
 0003:00000bfc       ?module_local_atexit_table@@3U_onexit_table_t@@A 1002abfc     LIBCMT:utility.obj
 0003:00000c08       ?module_local_at_quick_exit_table@@3U_onexit_table_t@@A 1002ac08     LIBCMT:utility.obj
 0003:00000c14       ?g_tss_cv@@3U_RTL_CONDITION_VARIABLE@@A 1002ac14     LIBCMT:thread_safe_statics.obj
 0003:00000c18       ?g_tss_event@@3PAXA        1002ac18     LIBCMT:thread_safe_statics.obj
 0003:00000c1c       ?g_tss_mutex@@3U_RTL_CRITICAL_SECTION@@A 1002ac1c     LIBCMT:thread_safe_statics.obj
 0003:00000c34       ?g_sleep_condition_variable_cs@@3P6GHPAU_RTL_CONDITION_VARIABLE@@PAU_RTL_CRITICAL_SECTION@@K@ZA 1002ac34     LIBCMT:thread_safe_statics.obj
 0003:00000c38       ?g_wake_all_condition_variable@@3P6GXPAU_RTL_CONDITION_VARIABLE@@@ZA 1002ac38     LIBCMT:thread_safe_statics.obj
 0003:00000c40       _GS_ExceptionRecord        1002ac40     LIBCMT:gs_report.obj
 0003:00000c90       _GS_ContextRecord          1002ac90     LIBCMT:gs_report.obj
 0003:00000f60       ?__proc_attached@@3HA      1002af60     LIBCMT:dll_dllmain.obj
 0003:00000fc4       ?AllocateData@@3P6GPAUAtlThunkData_t@@XZA 1002afc4     atls:atlthunk.obj
 0003:00000fc8       ?InitData@@3P6GXPAUAtlThunkData_t@@PAXI@ZA 1002afc8     atls:atlthunk.obj
 0003:00000fcc       ?DataToCode@@3P6GP6GJPAUHWND__@@IIJ@ZPAUAtlThunkData_t@@@ZA 1002afcc     atls:atlthunk.obj
 0003:00000fd0       ?FreeData@@3P6GXPAUAtlThunkData_t@@@ZA 1002afd0     atls:atlthunk.obj
 0003:00000fd4       ?Initialized@@3_NA         1002afd4     atls:atlthunk.obj
 0003:00000fe4       ?__vcrt_startup_thread_ptd@@3U__vcrt_ptd@@A 1002afe4     libvcruntime:per_thread_data.obj
 0003:0000100c       ___vcrt_lock_table         1002b00c     libvcruntime:locks.obj
 0003:00001024       ___vcrt_locks_initialized  1002b024     libvcruntime:locks.obj
 0003:00001050       ?heap@@3V_HeapManager@@A   1002b050     libvcruntime:undname.obj
 0003:00001064       ?module_handles@@3PAPAUHINSTANCE__@@A 1002b064     libvcruntime:winapi_downlevel.obj
 0003:00001070       ?function_pointers@@3PAPAXA 1002b070     libvcruntime:winapi_downlevel.obj
 0003:00001084       ?__acrt_invalid_parameter_handler@@3V?$dual_state_global@P6AXPB_W00II@Z@__crt_state_management@@A 1002b084     libucrt:invalid_parameter.obj
 0003:00001088       ?c_termination_complete@@3JA 1002b088     libucrt:exit.obj
 0003:0000108c       ?thread_local_exit_callback_func@@3P6GXPAXK0@ZA 1002b08c     libucrt:exit.obj
 0003:00001098       ?program_name@?1???$common_configure_argv@D@@YAHW4_crt_argv_mode@@@Z@4PADA 1002b098     libucrt:argv_parsing.obj
 0003:000011c8       ?__acrt_new_handler@@3V?$dual_state_global@P6AHI@Z@__crt_state_management@@A 1002b1c8     libucrt:new_handler.obj
 0003:000011d0       ?module_handles@@3PAPAUHINSTANCE__@@A 1002b1d0     libucrt:winapi_thunks.obj
 0003:00001220       ?encoded_function_pointers@@3PAPAXA 1002b220     libucrt:winapi_thunks.obj
 0003:000012a8       ?internal_state@?1??_mbtowc_l@@9@4U_Mbstatet@@A 1002b2a8     libucrt:mbtowc.obj
 0003:000012b8       ?enable_percent_n@@3IA     1002b2b8     libucrt:printf_count_output.obj
 0003:000014d8       ?__acrt_lock_table@@3PAU_RTL_CRITICAL_SECTION@@A 1002b4d8     libucrt:locks.obj
 0003:00001628       ?__acrt_locks_initialized@@3IA 1002b628     libucrt:locks.obj
 0003:00001638       ?fSystemSet@@3HA           1002b638     libucrt:mbctype.obj
 0003:0000163c       ?initialized@?1??__acrt_initialize_multibyte@@9@4_NA 1002b63c     libucrt:mbctype.obj
 0003:0000165c       ?ctrlc_action@@3V?$dual_state_global@P6AXH@Z@__crt_state_management@@A 1002b65c     libucrt:signal.obj
 0003:00001660       ?ctrlbreak_action@@3V?$dual_state_global@P6AXH@Z@__crt_state_management@@A 1002b660     libucrt:signal.obj
 0003:00001664       ?abort_action@@3V?$dual_state_global@P6AXH@Z@__crt_state_management@@A 1002b664     libucrt:signal.obj
 0003:00001668       ?term_action@@3V?$dual_state_global@P6AXH@Z@__crt_state_management@@A 1002b668     libucrt:signal.obj
 0003:0000166c       ?user_matherr@@3V?$dual_state_global@P6AHPAU_exception@@@Z@__crt_state_management@@A 1002b66c     libucrt:matherr.obj
 0003:00001670       ?__acrt_global_new_mode@@3V?$dual_state_global@J@__crt_state_management@@A 1002b670     libucrt:new_mode.obj
 0003:0000167c       ?internal_pst@?1??__mbrtoc32_utf8@__crt_mbstring@@YAIPA_UPBDIPAU_Mbstatet@@@Z@4U3@A 1002b67c     libucrt:mbrtoc32.obj
 0003:00001684       ?__acrt_app_type@@3W4_crt_app_type@@A 1002b684     libucrt:report_runtime_error.obj
 0003:0000168c       __pmatherr_set             1002b68c     libucrt:libm_error.obj
 0004:00000220       $R000000                   1002c220     SoundPlayer.res
 0004:00000b60       $R000940                   1002cb60     SoundPlayer.res
 0004:00000c48       $R000A28                   1002cc48     SoundPlayer.res
 0004:00000eb0       $R000C90                   1002ceb0     SoundPlayer.res
 0004:00001378       $R001158                   1002d378     SoundPlayer.res
 0004:00003b58       $R003938                   1002fb58     SoundPlayer.res
 0004:00003b90       $R003970                   1002fb90     SoundPlayer.res
