 OPOSLineDisplay

 Timestamp is 5defa9c5 (Tue Dec 10 23:20:53 2019)

 Preferred load address is 10000000

 Start         Length     Name                   Class
 0001:00000000 00000080H .text$di                CODE
 0001:00000080 0001df53H .text$mn                CODE
 0001:0001dfd3 00000036H .text$x                 CODE
 0001:0001e009 00000042H .text$yd                CODE
 0002:00000000 000002fcH .idata$5                DATA
 0002:000002fc 00000004H .00cfg                  DATA
 0002:00000300 00000004H .CRT$XCA                DATA
 0002:00000304 00000004H .CRT$XCL                DATA
 0002:00000308 00000010H .CRT$XCU                DATA
 0002:00000318 00000004H .CRT$XCZ                DATA
 0002:0000031c 00000004H .CRT$XIA                DATA
 0002:00000320 00000010H .CRT$XIC                DATA
 0002:00000330 00000004H .CRT$XIZ                DATA
 0002:00000334 00000004H .CRT$XLA                DATA
 0002:00000338 00000004H .CRT$XLZ                DATA
 0002:0000033c 00000004H .CRT$XPA                DATA
 0002:00000340 00000008H .CRT$XPX                DATA
 0002:00000348 00000004H .CRT$XPXA               DATA
 0002:0000034c 00000004H .CRT$XPZ                DATA
 0002:00000350 00000004H .CRT$XTA                DATA
 0002:00000354 0000000cH .CRT$XTZ                DATA
 0002:00000358 00000000H .gfids$y                DATA
 0002:00000360 0000710cH .rdata                  DATA
 0002:0000746c 00000018H .rdata$T                DATA
 0002:00007484 0000017cH .rdata$r                DATA
 0002:00007600 0000001cH .rdata$sxdata           DATA
 0002:0000761c 000003e0H .rdata$zzzdbg           DATA
 0002:000079fc 00000004H .rtc$IAA                DATA
 0002:00007a00 00000004H .rtc$IZZ                DATA
 0002:00007a04 00000004H .rtc$TAA                DATA
 0002:00007a08 00000004H .rtc$TZZ                DATA
 0002:00007a0c 00000004H .tls                    DATA
 0002:00007a10 00000004H .tls$                   DATA
 0002:00007a14 00000004H .tls$ZZZ                DATA
 0002:00007a18 0000060cH .xdata$x                DATA
 0002:00008024 00000004H ATL$__a                 DATA
 0002:00008028 00000008H ATL$__z                 DATA
 0002:00008030 000000acH .edata                  DATA
 0002:000080dc 00000078H .idata$2                DATA
 0002:00008154 00000014H .idata$3                DATA
 0002:00008168 000002fcH .idata$4                DATA
 0002:00008464 00000bc8H .idata$6                DATA
 0003:00000000 00000ae0H .data                   DATA
 0003:00000ae0 00000098H .data$r                 DATA
 0003:00000b78 00000b80H .bss                    DATA
 0004:00000000 00000220H .rsrc$01                DATA
 0004:00000220 00005908H .rsrc$02                DATA

  Address         Publics by Value              Rva+Base       Lib:Object

 0000:00000000       ___guard_fids_count        00000000     <absolute>
 0000:00000000       ___hybrid_code_map_count   00000000     <absolute>
 0000:00000000       ___hybrid_auxiliary_iat    00000000     <absolute>
 0000:00000000       ___guard_iat_count         00000000     <absolute>
 0000:00000000       ___volatile_metadata       00000000     <absolute>
 0000:00000000       ___dynamic_value_reloc_table 00000000     <absolute>
 0000:00000000       ___guard_longjmp_count     00000000     <absolute>
 0000:00000000       ___guard_fids_table        00000000     <absolute>
 0000:00000000       ___guard_longjmp_table     00000000     <absolute>
 0000:00000000       ___AbsoluteZero            00000000     <absolute>
 0000:00000000       ___guard_iat_table         00000000     <absolute>
 0000:00000000       __except_list              00000000     <absolute>
 0000:00000000       ___enclave_config          00000000     <absolute>
 0000:00000000       ___hybrid_code_map         00000000     <absolute>
 0000:00000007       ___safe_se_handler_count   00000007     <absolute>
 0000:0000002c       __tls_array                0000002c     <absolute>
 0000:00000100       ___guard_flags             00000100     <absolute>
 0000:00000000       ___ImageBase               10000000     <linker-defined>
 0001:00000080       ?DupWide@_CW@@AAEXXZ       10001080 f   CWString.obj
 0001:0000009c       ?cw_dup@@YGXPBDAAHAAPA_W1@Z 1000109c f   CWString.obj
 0001:00000124       ?cw_memcpy@@YGHPA_WPBDH@Z  10001124 f   CWString.obj
 0001:00000150       ?cw_strcpy@@YAHPA_WPBD@Z   10001150 f   CWString.obj
 0001:00000163       ?cw_strlen@@YAHPBD@Z       10001163 f   CWString.obj
 0001:0000017c       ??0CAtlComModule@ATL@@QAE@XZ 1000117c f i OposVariant.obj
 0001:000001c1       ??0CAtlWinModule@ATL@@QAE@XZ 100011c1 f i OposVariant.obj
 0001:000001f8       ??0OposDispParms@@QAE@PAVOposVariant@@H@Z 100011f8 f   OposVariant.obj
 0001:00000269       ??1OposDispParms@@QAE@XZ   10001269 f   OposVariant.obj
 0001:00000277       ??A?$CSimpleArray@GV?$CSimpleArrayEqualHelper@G@ATL@@@ATL@@QAEAAGH@Z 10001277 f i OposVariant.obj
 0001:0000029c       ??_Estringdispid@CComTypeInfoHolder@ATL@@QAEPAXI@Z 1000129c f i OposVariant.obj
 0001:00000308       ?AtlWinModuleInit@ATL@@YGJPAU_ATL_WIN_MODULE70@1@@Z 10001308 f i OposVariant.obj
 0001:0000032e       ?AtlWinModuleTerm@ATL@@YGJPAU_ATL_WIN_MODULE70@1@PAUHINSTANCE__@@@Z 1000132e f i OposVariant.obj
 0001:00000391       ?ChangeBSTR@OposVariant@@QAEXPAPA_WAAJ@Z 10001391 f   OposVariant.obj
 0001:000003d2       ?ChangeLONG@OposVariant@@QAEXPAJAAJ@Z 100013d2 f   OposVariant.obj
 0001:00000413       ?GetLONG@OposVariant@@QAEJXZ 10001413 f   OposVariant.obj
 0001:0000042e       ?Init@CComCriticalSection@ATL@@QAEJXZ 1000142e f i OposVariant.obj
 0001:00000456       ?RemoveAll@?$CSimpleArray@PAUHINSTANCE__@@V?$CSimpleArrayEqualHelper@PAUHINSTANCE__@@@ATL@@@ATL@@QAEXXZ 10001456 f i atls:atlbase.obj
 0001:00000456       ?RemoveAll@?$CSimpleArray@GV?$CSimpleArrayEqualHelper@G@ATL@@@ATL@@QAEXXZ 10001456 f i OposVariant.obj
 0001:00000473       ?SetBSTR@OposVariant@@QAEXPA_WAAJ@Z 10001473 f   OposVariant.obj
 0001:000004a7       ?SetBSTR_Copy@OposVariant@@QAEXPA_WAAJ@Z 100014a7 f   OposVariant.obj
 0001:000004f7       ?SetBSTR_InOutPtr@OposVariant@@QAE_NPAPA_WAAJ@Z 100014f7 f   OposVariant.obj
 0001:0000052e       ?SetDispatch_Ptr@OposVariant@@QAEXPAUIDispatch@@AAJ@Z 1000152e f   OposVariant.obj
 0001:00000569       ?SetLONG@OposVariant@@QAEXJ@Z 10001569 f   OposVariant.obj
 0001:0000058b       ?SetLONG_Ptr@OposVariant@@QAEXPAJAAJ@Z 1000158b f   OposVariant.obj
 0001:000005be       ?SetString@OposVariant@@QAEXPB_WAAJ@Z 100015be f   OposVariant.obj
 0001:00000604       ?SetVARIANT_BOOL@OposVariant@@QAEXF@Z 10001604 f   OposVariant.obj
 0001:0000062e       ?Term@CAtlComModule@ATL@@QAEXXZ 1000162e f i OposVariant.obj
 0001:00000678       ?_AtlRaiseException@ATL@@YAXKK@Z 10001678 f i OposVariant.obj
 0001:0000068d       ?Release@?$CComContainedObject@VCOPOSLineDisplay@@@ATL@@WHE@AGKXZ 1000168d f i LineDisplay.obj
 0001:00000697       ?QueryInterface@?$CComContainedObject@VCOPOSLineDisplay@@@ATL@@WHI@AGJABU_GUID@@PAPAX@Z 10001697 f i LineDisplay.obj
 0001:000006a1       ?AddRef@?$CComContainedObject@VCOPOSLineDisplay@@@ATL@@WHI@AGKXZ 100016a1 f i LineDisplay.obj
 0001:000006ab       ?Release@?$CComContainedObject@VCOPOSLineDisplay@@@ATL@@WHI@AGKXZ 100016ab f i LineDisplay.obj
 0001:000006b5       ?CreateInstance@CComClassFactory@ATL@@UAGJPAUIUnknown@@ABU_GUID@@PAPAX@Z 100016b5 f i LineDisplay.obj
 0001:000006f3       ?QueryInterface@?$CComContainedObject@VCOPOSLineDisplay@@@ATL@@WHM@AGJABU_GUID@@PAPAX@Z 100016f3 f i LineDisplay.obj
 0001:000006fd       ?AddRef@?$CComContainedObject@VCOPOSLineDisplay@@@ATL@@WHM@AGKXZ 100016fd f i LineDisplay.obj
 0001:00000707       ?LockServer@CComClassFactory@ATL@@UAGJH@Z 10001707 f i LineDisplay.obj
 0001:00000726       ?Release@?$CComContainedObject@VCOPOSLineDisplay@@@ATL@@WHM@AGKXZ 10001726 f i LineDisplay.obj
 0001:00000730       ?QueryInterface@?$CComContainedObject@VCOPOSLineDisplay@@@ATL@@WIA@AGJABU_GUID@@PAPAX@Z 10001730 f i LineDisplay.obj
 0001:0000073d       ?AddRef@?$CComContainedObject@VCOPOSLineDisplay@@@ATL@@WIA@AGKXZ 1000173d f i LineDisplay.obj
 0001:0000074a       ?Release@?$CComContainedObject@VCOPOSLineDisplay@@@ATL@@WIA@AGKXZ 1000174a f i LineDisplay.obj
 0001:00000757       ?QueryInterface@?$CComContainedObject@VCOPOSLineDisplay@@@ATL@@WIE@AGJABU_GUID@@PAPAX@Z 10001757 f i LineDisplay.obj
 0001:00000764       ?AddRef@?$CComContainedObject@VCOPOSLineDisplay@@@ATL@@WIE@AGKXZ 10001764 f i LineDisplay.obj
 0001:00000771       ?Release@?$CComContainedObject@VCOPOSLineDisplay@@@ATL@@WIE@AGKXZ 10001771 f i LineDisplay.obj
 0001:0000077e       ?QueryInterface@?$CComContainedObject@VCOPOSLineDisplay@@@ATL@@WII@AGJABU_GUID@@PAPAX@Z 1000177e f i LineDisplay.obj
 0001:0000078b       ?AddRef@?$CComContainedObject@VCOPOSLineDisplay@@@ATL@@WII@AGKXZ 1000178b f i LineDisplay.obj
 0001:00000798       ?Release@?$CComContainedObject@VCOPOSLineDisplay@@@ATL@@WII@AGKXZ 10001798 f i LineDisplay.obj
 0001:000007a5       ?QueryInterface@?$CComContainedObject@VCOPOSLineDisplay@@@ATL@@WIM@AGJABU_GUID@@PAPAX@Z 100017a5 f i LineDisplay.obj
 0001:000007b2       ?AddRef@?$CComContainedObject@VCOPOSLineDisplay@@@ATL@@WIM@AGKXZ 100017b2 f i LineDisplay.obj
 0001:000007bf       ?Release@?$CComContainedObject@VCOPOSLineDisplay@@@ATL@@WIM@AGKXZ 100017bf f i LineDisplay.obj
 0001:000007cc       ??_GCComClassFactory@ATL@@UAEPAXI@Z 100017cc f i LineDisplay.obj
 0001:000007cc       ??_ECComClassFactory@ATL@@UAEPAXI@Z 100017cc f i LineDisplay.obj
 0001:000007f7       ?QueryInterface@?$CComContainedObject@VCOPOSLineDisplay@@@ATL@@WJA@AGJABU_GUID@@PAPAX@Z 100017f7 f i LineDisplay.obj
 0001:00000804       ?AddRef@?$CComContainedObject@VCOPOSLineDisplay@@@ATL@@WJA@AGKXZ 10001804 f i LineDisplay.obj
 0001:00000811       ?Release@?$CComContainedObject@VCOPOSLineDisplay@@@ATL@@WJA@AGKXZ 10001811 f i LineDisplay.obj
 0001:0000081e       ?QueryInterface@?$CComContainedObject@VCOPOSLineDisplay@@@ATL@@WJE@AGJABU_GUID@@PAPAX@Z 1000181e f i LineDisplay.obj
 0001:0000082b       ?AddRef@?$CComContainedObject@VCOPOSLineDisplay@@@ATL@@WJE@AGKXZ 1000182b f i LineDisplay.obj
 0001:00000838       ?Release@?$CComContainedObject@VCOPOSLineDisplay@@@ATL@@WJE@AGKXZ 10001838 f i LineDisplay.obj
 0001:00000845       ?QueryInterface@?$CComContainedObject@VCOPOSLineDisplay@@@ATL@@WJI@AGJABU_GUID@@PAPAX@Z 10001845 f i LineDisplay.obj
 0001:00000852       ?AddRef@?$CComContainedObject@VCOPOSLineDisplay@@@ATL@@WJI@AGKXZ 10001852 f i LineDisplay.obj
 0001:0000085f       ?Release@?$CComContainedObject@VCOPOSLineDisplay@@@ATL@@WJI@AGKXZ 1000185f f i LineDisplay.obj
 0001:0000086c       ?QueryInterface@?$CComContainedObject@VCOPOSLineDisplay@@@ATL@@WJM@AGJABU_GUID@@PAPAX@Z 1000186c f i LineDisplay.obj
 0001:00000879       ?AddRef@?$CComContainedObject@VCOPOSLineDisplay@@@ATL@@WJM@AGKXZ 10001879 f i LineDisplay.obj
 0001:00000886       ?Release@?$CComContainedObject@VCOPOSLineDisplay@@@ATL@@WJM@AGKXZ 10001886 f i LineDisplay.obj
 0001:00000893       ?QueryInterface@?$CComContainedObject@VCOPOSLineDisplay@@@ATL@@WKA@AGJABU_GUID@@PAPAX@Z 10001893 f i LineDisplay.obj
 0001:000008a0       ?AddRef@?$CComContainedObject@VCOPOSLineDisplay@@@ATL@@WKA@AGKXZ 100018a0 f i LineDisplay.obj
 0001:000008ad       ?Release@?$CComContainedObject@VCOPOSLineDisplay@@@ATL@@WKA@AGKXZ 100018ad f i LineDisplay.obj
 0001:000008ba       ?AddRef@?$CComContainedObject@VCOPOSLineDisplay@@@ATL@@WKI@AGKXZ 100018ba f i LineDisplay.obj
 0001:000008c7       ?Release@?$CComContainedObject@VCOPOSLineDisplay@@@ATL@@WKI@AGKXZ 100018c7 f i LineDisplay.obj
 0001:000008d4       ?AddRef@?$CComContainedObject@VCOPOSLineDisplay@@@ATL@@WLE@AGKXZ 100018d4 f i LineDisplay.obj
 0001:000008e1       ?Release@?$CComContainedObject@VCOPOSLineDisplay@@@ATL@@WLE@AGKXZ 100018e1 f i LineDisplay.obj
 0001:000008ee       ?GetWindowProc@?$CWindowImplBaseT@VCWindow@ATL@@V?$CWinTraits@$0FGAAAAAA@$0A@@2@@ATL@@UAEP6GJPAUHWND__@@IIJ@ZXZ 100018ee f i LineDisplay.obj
 0001:000008f4       ?StartWindowProc@?$CWindowImplBaseT@VCWindow@ATL@@V?$CWinTraits@$0FGAAAAAA@$0A@@2@@ATL@@SGJPAUHWND__@@IIJ@Z 100018f4 f i LineDisplay.obj
 0001:00000948       ?OnFinalMessage@?$CWindowImplBaseT@VCWindow@ATL@@V?$CWinTraits@$0FGAAAAAA@$0A@@2@@ATL@@UAEXPAUHWND__@@@Z 10001948 f i LineDisplay.obj
 0001:00000948       ?ObjectMain@CComObjectRootBase@ATL@@SGX_N@Z 10001948 f i LineDisplay.obj
 0001:0000094b       ?GetTypeInfoCount@?$IDispatchImpl@UIOPOSLineDisplay@@$1?IID_IOPOSLineDisplay@@3U_GUID@@B$1?LIBID_OposLineDisplay_CCO@@3U3@B$00$0A@VCComTypeInfoHolder@ATL@@@ATL@@UAGJPAI@Z 1000194b f i LineDisplay.obj
 0001:00000968       ?GetTypeInfo@?$IDispatchImpl@UIOPOSLineDisplay@@$1?IID_IOPOSLineDisplay@@3U_GUID@@B$1?LIBID_OposLineDisplay_CCO@@3U3@B$00$0A@VCComTypeInfoHolder@ATL@@@ATL@@UAGJIKPAPAUITypeInfo@@@Z 10001968 f i LineDisplay.obj
 0001:0000098c       ?GetIDsOfNames@?$IDispatchImpl@UIOPOSLineDisplay@@$1?IID_IOPOSLineDisplay@@3U_GUID@@B$1?LIBID_OposLineDisplay_CCO@@3U3@B$00$0A@VCComTypeInfoHolder@ATL@@@ATL@@UAGJABU_GUID@@PAPA_WIKPAJ@Z 1000198c f i LineDisplay.obj
 0001:000009ac       ?Invoke@?$IDispatchImpl@UIOPOSLineDisplay@@$1?IID_IOPOSLineDisplay@@3U_GUID@@B$1?LIBID_OposLineDisplay_CCO@@3U3@B$00$0A@VCComTypeInfoHolder@ATL@@@ATL@@UAGJJABU_GUID@@KGPAUtagDISPPARAMS@@PAUtagVARIANT@@PAUtagEXCEPINFO@@PAI@Z 100019ac f i LineDisplay.obj
 0001:000009ba       ?CreateControlWindow@?$CComControl@VCOPOSLineDisplay@@V?$CWindowImpl@VCOPOSLineDisplay@@VCWindow@ATL@@V?$CWinTraits@$0FGAAAAAA@$0A@@3@@ATL@@@ATL@@UAEPAUHWND__@@PAU3@AAUtagRECT@@@Z 100019ba f i LineDisplay.obj
 0001:000009e9       ?ControlQueryInterface@?$CComControl@VCOPOSLineDisplay@@V?$CWindowImpl@VCOPOSLineDisplay@@VCWindow@ATL@@V?$CWinTraits@$0FGAAAAAA@$0A@@3@@ATL@@@ATL@@UAEJABU_GUID@@PAPAX@Z 100019e9 f i LineDisplay.obj
 0001:00000a04       ?GetClassID@?$IPersistStorageImpl@VCOPOSLineDisplay@@@ATL@@UAGJPAU_GUID@@@Z 10001a04 f i LineDisplay.obj
 0001:00000a04       ?GetUserClassID@?$IOleObjectImpl@VCOPOSLineDisplay@@@ATL@@UAGJPAU_GUID@@@Z 10001a04 f i LineDisplay.obj
 0001:00000a04       ?GetClassID@?$IPersistStreamInitImpl@VCOPOSLineDisplay@@@ATL@@UAGJPAU_GUID@@@Z 10001a04 f i LineDisplay.obj
 0001:00000a28       ?IsDirty@?$IPersistStreamInitImpl@VCOPOSLineDisplay@@@ATL@@UAGJXZ 10001a28 f i LineDisplay.obj
 0001:00000a47       ?Load@?$IPersistStreamInitImpl@VCOPOSLineDisplay@@@ATL@@UAGJPAUIStream@@@Z 10001a47 f i LineDisplay.obj
 0001:00000a66       ?Save@?$IPersistStreamInitImpl@VCOPOSLineDisplay@@@ATL@@UAGJPAUIStream@@H@Z 10001a66 f i LineDisplay.obj
 0001:00000a88       ?GetSizeMax@?$IPersistStreamInitImpl@VCOPOSLineDisplay@@@ATL@@UAGJPAT_ULARGE_INTEGER@@@Z 10001a88 f i LineDisplay.obj
 0001:00000c67       ?InitNew@?$IPersistStreamInitImpl@VCOPOSLineDisplay@@@ATL@@UAGJXZ 10001c67 f i LineDisplay.obj
 0001:00000c84       ?ContextSensitiveHelp@?$IOleInPlaceObjectWindowlessImpl@VCOPOSLineDisplay@@@ATL@@UAGJH@Z 10001c84 f i LineDisplay.obj
 0001:00000c84       ?SOOutputCompleteDummy@COPOSLineDisplay@@MAGJJ@Z 10001c84 f i LineDisplay.obj
 0001:00000c84       ?SetColorScheme@?$IOleObjectImpl@VCOPOSLineDisplay@@@ATL@@UAGJPAUtagLOGPALETTE@@@Z 10001c84 f i LineDisplay.obj
 0001:00000c84       ?Unfreeze@?$IViewObjectExImpl@VCOPOSLineDisplay@@@ATL@@UAGJK@Z 10001c84 f i LineDisplay.obj
 0001:00000c84       ?OnMnemonic@?$IOleControlImpl@VCOPOSLineDisplay@@@ATL@@UAGJPAUtagMSG@@@Z 10001c84 f i LineDisplay.obj
 0001:00000c84       ?ContextSensitiveHelp@?$IOleInPlaceActiveObjectImpl@VCOPOSLineDisplay@@@ATL@@UAGJH@Z 10001c84 f i LineDisplay.obj
 0001:00000c84       ?GetControlInfo@?$IOleControlImpl@VCOPOSLineDisplay@@@ATL@@UAGJPAUtagCONTROLINFO@@@Z 10001c84 f i LineDisplay.obj
 0001:00000c84       ?SODataDummy@COPOSLineDisplay@@MAGJJ@Z 10001c84 f i LineDisplay.obj
 0001:00000c84       ?GetDropTarget@?$IOleInPlaceObjectWindowlessImpl@VCOPOSLineDisplay@@@ATL@@UAGJPAPAUIDropTarget@@@Z 10001c84 f i LineDisplay.obj
 0001:00000c84       ?QueryGetData@?$IDataObjectImpl@VCOPOSLineDisplay@@@ATL@@UAGJPAUtagFORMATETC@@@Z 10001c84 f i LineDisplay.obj
 0001:00000c8c       ?OnAmbientPropertyChange@?$IOleControlImpl@VCOPOSLineDisplay@@@ATL@@UAGJJ@Z 10001c8c f i LineDisplay.obj
 0001:00000c8c       ?SaveCompleted@?$IPersistStorageImpl@VCOPOSLineDisplay@@@ATL@@UAGJPAUIStorage@@@Z 10001c8c f i LineDisplay.obj
 0001:00000c8c       ?OnFrameWindowActivate@?$IOleInPlaceActiveObjectImpl@VCOPOSLineDisplay@@@ATL@@UAGJH@Z 10001c8c f i LineDisplay.obj
 0001:00000c8c       ?EnableModeless@?$IOleInPlaceActiveObjectImpl@VCOPOSLineDisplay@@@ATL@@UAGJH@Z 10001c8c f i LineDisplay.obj
 0001:00000c91       ?SetClientSite@?$IOleObjectImpl@VCOPOSLineDisplay@@@ATL@@UAGJPAUIOleClientSite@@@Z 10001c91 f i LineDisplay.obj
 0001:00000cae       ?GetClientSite@?$IOleObjectImpl@VCOPOSLineDisplay@@@ATL@@UAGJPAPAUIOleClientSite@@@Z 10001cae f i LineDisplay.obj
 0001:00000ccb       ?SetHostNames@?$IOleObjectImpl@VCOPOSLineDisplay@@@ATL@@UAGJPB_W0@Z 10001ccb f i LineDisplay.obj
 0001:00000cd0       ?Close@?$IOleObjectImpl@VCOPOSLineDisplay@@@ATL@@UAGJK@Z 10001cd0 f i LineDisplay.obj
 0001:00000ced       ?SetMoniker@?$IOleObjectImpl@VCOPOSLineDisplay@@@ATL@@UAGJKPAUIMoniker@@@Z 10001ced f i LineDisplay.obj
 0001:00000ced       ?GetDataHere@?$IDataObjectImpl@VCOPOSLineDisplay@@@ATL@@UAGJPAUtagFORMATETC@@PAUtagSTGMEDIUM@@@Z 10001ced f i LineDisplay.obj
 0001:00000ced       ?GetClipboardData@?$IOleObjectImpl@VCOPOSLineDisplay@@@ATL@@UAGJKPAPAUIDataObject@@@Z 10001ced f i LineDisplay.obj
 0001:00000ced       ?GetRect@?$IViewObjectExImpl@VCOPOSLineDisplay@@@ATL@@UAGJKPAU_RECTL@@@Z 10001ced f i LineDisplay.obj
 0001:00000ced       ?GetCanonicalFormatEtc@?$IDataObjectImpl@VCOPOSLineDisplay@@@ATL@@UAGJPAUtagFORMATETC@@0@Z 10001ced f i LineDisplay.obj
 0001:00000ced       ?QueryInterface@CRegObject@ATL@@UAGJABU_GUID@@PAPAX@Z 10001ced f i LineDisplay.obj
 0001:00000ced       ?EnumFormatEtc@?$IDataObjectImpl@VCOPOSLineDisplay@@@ATL@@UAGJKPAPAUIEnumFORMATETC@@@Z 10001ced f i LineDisplay.obj
 0001:00000cf5       ?GetMoniker@?$IOleObjectImpl@VCOPOSLineDisplay@@@ATL@@UAGJKKPAPAUIMoniker@@@Z 10001cf5 f i LineDisplay.obj
 0001:00000cf5       ?InitFromData@?$IOleObjectImpl@VCOPOSLineDisplay@@@ATL@@UAGJPAUIDataObject@@HK@Z 10001cf5 f i LineDisplay.obj
 0001:00000cf5       ?SetData@?$IDataObjectImpl@VCOPOSLineDisplay@@@ATL@@UAGJPAUtagFORMATETC@@PAUtagSTGMEDIUM@@H@Z 10001cf5 f i LineDisplay.obj
 0001:00000cfd       ?DoVerb@?$IOleObjectImpl@VCOPOSLineDisplay@@@ATL@@UAGJJPAUtagMSG@@PAUIOleClientSite@@JPAUHWND__@@PBUtagRECT@@@Z 10001cfd f i LineDisplay.obj
 0001:00000df1       ?EnumVerbs@?$IOleObjectImpl@VCOPOSLineDisplay@@@ATL@@UAGJPAPAUIEnumOLEVERB@@@Z 10001df1 f i LineDisplay.obj
 0001:00000e13       ?Release@CRegObject@ATL@@UAGKXZ 10001e13 f i LineDisplay.obj
 0001:00000e13       ?Update@?$IOleObjectImpl@VCOPOSLineDisplay@@@ATL@@UAGJXZ 10001e13 f i LineDisplay.obj
 0001:00000e13       ?IsUpToDate@?$IOleObjectImpl@VCOPOSLineDisplay@@@ATL@@UAGJXZ 10001e13 f i LineDisplay.obj
 0001:00000e13       ?HandsOffStorage@?$IPersistStorageImpl@VCOPOSLineDisplay@@@ATL@@UAGJXZ 10001e13 f i LineDisplay.obj
 0001:00000e18       ?GetUserType@?$IOleObjectImpl@VCOPOSLineDisplay@@@ATL@@UAGJKPAPA_W@Z 10001e18 f i LineDisplay.obj
 0001:00000e30       ?SetExtent@?$IOleObjectImpl@VCOPOSLineDisplay@@@ATL@@UAGJKPAUtagSIZE@@@Z 10001e30 f i LineDisplay.obj
 0001:00000e50       ?GetExtent@?$IOleObjectImpl@VCOPOSLineDisplay@@@ATL@@UAGJKPAUtagSIZE@@@Z 10001e50 f i LineDisplay.obj
 0001:00000e8e       ?Advise@?$IOleObjectImpl@VCOPOSLineDisplay@@@ATL@@UAGJPAUIAdviseSink@@PAK@Z 10001e8e f i LineDisplay.obj
 0001:00000eae       ?Unadvise@?$IOleObjectImpl@VCOPOSLineDisplay@@@ATL@@UAGJK@Z 10001eae f i LineDisplay.obj
 0001:00000edd       ?EnumAdvise@?$IOleObjectImpl@VCOPOSLineDisplay@@@ATL@@UAGJPAPAUIEnumSTATDATA@@@Z 10001edd f i LineDisplay.obj
 0001:00000f1d       ?GetMiscStatus@?$IOleObjectImpl@VCOPOSLineDisplay@@@ATL@@UAGJKPAK@Z 10001f1d f i LineDisplay.obj
 0001:00000f35       ?GetWindow@?$IOleInPlaceActiveObjectImpl@VCOPOSLineDisplay@@@ATL@@UAGJPAPAUHWND__@@@Z 10001f35 f i LineDisplay.obj
 0001:00000f82       ?TranslateAcceleratorW@?$IOleInPlaceActiveObjectImpl@VCOPOSLineDisplay@@@ATL@@UAGJPAUtagMSG@@@Z 10001f82 f i LineDisplay.obj
 0001:00001030       ?OnDocWindowActivate@?$IOleInPlaceActiveObjectImpl@VCOPOSLineDisplay@@@ATL@@UAGJH@Z 10002030 f i LineDisplay.obj
 0001:00001052       ?ResizeBorder@?$IOleInPlaceActiveObjectImpl@VCOPOSLineDisplay@@@ATL@@UAGJPBUtagRECT@@PAUIOleInPlaceUIWindow@@H@Z 10002052 f i LineDisplay.obj
 0001:00001057       ?Draw@?$IViewObjectExImpl@VCOPOSLineDisplay@@@ATL@@UAGJKJPAXPAUtagDVTARGETDEVICE@@PAUHDC__@@2PBU_RECTL@@3P6GHK@ZK@Z 10002057 f i LineDisplay.obj
 0001:00001089       ?GetColorSet@?$IViewObjectExImpl@VCOPOSLineDisplay@@@ATL@@UAGJKJPAXPAUtagDVTARGETDEVICE@@PAUHDC__@@PAPAUtagLOGPALETTE@@@Z 10002089 f i LineDisplay.obj
 0001:00001091       ?Freeze@?$IViewObjectExImpl@VCOPOSLineDisplay@@@ATL@@UAGJKJPAXPAK@Z 10002091 f i LineDisplay.obj
 0001:00001091       ?SOErrorDummy@COPOSLineDisplay@@MAGJJJJPAJ@Z 10002091 f i LineDisplay.obj
 0001:00001099       ?SetAdvise@?$IViewObjectExImpl@VCOPOSLineDisplay@@@ATL@@UAGJKKPAUIAdviseSink@@@Z 10002099 f i LineDisplay.obj
 0001:000010b8       ?GetAdvise@?$IViewObjectExImpl@VCOPOSLineDisplay@@@ATL@@UAGJPAK0PAPAUIAdviseSink@@@Z 100020b8 f i LineDisplay.obj
 0001:000010ed       ?GetExtent@?$IViewObjectExImpl@VCOPOSLineDisplay@@@ATL@@UAGJKJPAUtagDVTARGETDEVICE@@PAUtagSIZE@@@Z 100020ed f i LineDisplay.obj
 0001:0000111e       ?GetViewStatus@?$IViewObjectExImpl@VCOPOSLineDisplay@@@ATL@@UAGJPAK@Z 1000211e f i LineDisplay.obj
 0001:0000113b       ?QueryHitPoint@?$IViewObjectExImpl@VCOPOSLineDisplay@@@ATL@@UAGJKPBUtagRECT@@UtagPOINT@@JPAK@Z 1000213b f i LineDisplay.obj
 0001:0000117c       ?QueryHitRect@?$IViewObjectExImpl@VCOPOSLineDisplay@@@ATL@@UAGJKPBUtagRECT@@0JPAK@Z 1000217c f i LineDisplay.obj
 0001:000011d7       ?GetNaturalExtent@?$IViewObjectExImpl@VCOPOSLineDisplay@@@ATL@@UAGJKJPAUtagDVTARGETDEVICE@@PAUHDC__@@PAUtagExtentInfo@@PAUtagSIZE@@@Z 100021d7 f i LineDisplay.obj
 0001:00001222       ?GetWindow@?$IOleInPlaceObjectWindowlessImpl@VCOPOSLineDisplay@@@ATL@@UAGJPAPAUHWND__@@@Z 10002222 f i LineDisplay.obj
 0001:0000126f       ?InPlaceDeactivate@?$IOleInPlaceObjectWindowlessImpl@VCOPOSLineDisplay@@@ATL@@UAGJXZ 1000226f f i LineDisplay.obj
 0001:00001289       ?UIDeactivate@?$IOleInPlaceObjectWindowlessImpl@VCOPOSLineDisplay@@@ATL@@UAGJXZ 10002289 f i LineDisplay.obj
 0001:000012a3       ?SetObjectRects@?$IOleInPlaceObjectWindowlessImpl@VCOPOSLineDisplay@@@ATL@@UAGJPBUtagRECT@@0@Z 100022a3 f i LineDisplay.obj
 0001:000012c3       ?ReactivateAndUndo@?$IOleInPlaceObjectWindowlessImpl@VCOPOSLineDisplay@@@ATL@@UAGJXZ 100022c3 f i LineDisplay.obj
 0001:000012cb       ?OnWindowMessage@?$IOleInPlaceObjectWindowlessImpl@VCOPOSLineDisplay@@@ATL@@UAGJIIJPAJ@Z 100022cb f i LineDisplay.obj
 0001:0000133b       ?EnumConnectionPoints@?$IConnectionPointContainerImpl@VCOPOSLineDisplay@@@ATL@@UAGJPAPAUIEnumConnectionPoints@@@Z 1000233b f i LineDisplay.obj
 0001:000014b5       ?FindConnectionPoint@?$IConnectionPointContainerImpl@VCOPOSLineDisplay@@@ATL@@UAGJABU_GUID@@PAPAUIConnectionPoint@@@Z 100024b5 f i LineDisplay.obj
 0001:00001558       ?IsDirty@?$IPersistStorageImpl@VCOPOSLineDisplay@@@ATL@@UAGJXZ 10002558 f i LineDisplay.obj
 0001:0000158c       ?InitNew@?$IPersistStorageImpl@VCOPOSLineDisplay@@@ATL@@UAGJPAUIStorage@@@Z 1000258c f i LineDisplay.obj
 0001:000015c0       ?Load@?$IPersistStorageImpl@VCOPOSLineDisplay@@@ATL@@UAGJPAUIStorage@@@Z 100025c0 f i LineDisplay.obj
 0001:0000162c       ?Save@?$IPersistStorageImpl@VCOPOSLineDisplay@@@ATL@@UAGJPAUIStorage@@H@Z 1000262c f i LineDisplay.obj
 0001:0000169f       ?GetPages@?$ISpecifyPropertyPagesImpl@VCOPOSLineDisplay@@@ATL@@UAGJPAUtagCAUUID@@@Z 1000269f f i LineDisplay.obj
 0001:000016b6       ?QuickActivate@?$IQuickActivateImpl@VCOPOSLineDisplay@@@ATL@@UAGJPAUtagQACONTAINER@@PAUtagQACONTROL@@@Z 100026b6 f i LineDisplay.obj
 0001:000016d9       ?SetContentExtent@?$IQuickActivateImpl@VCOPOSLineDisplay@@@ATL@@UAGJPAUtagSIZE@@@Z 100026d9 f i LineDisplay.obj
 0001:00001705       ?GetContentExtent@?$IQuickActivateImpl@VCOPOSLineDisplay@@@ATL@@UAGJPAUtagSIZE@@@Z 10002705 f i LineDisplay.obj
 0001:0000173f       ?GetData@?$IDataObjectImpl@VCOPOSLineDisplay@@@ATL@@UAGJPAUtagFORMATETC@@PAUtagSTGMEDIUM@@@Z 1000273f f i LineDisplay.obj
 0001:00001762       ?DAdvise@?$IDataObjectImpl@VCOPOSLineDisplay@@@ATL@@UAGJPAUtagFORMATETC@@KPAUIAdviseSink@@PAK@Z 10002762 f i LineDisplay.obj
 0001:000017a3       ?DUnadvise@?$IDataObjectImpl@VCOPOSLineDisplay@@@ATL@@UAGJK@Z 100027a3 f i LineDisplay.obj
 0001:000017d1       ?EnumDAdvise@?$IDataObjectImpl@VCOPOSLineDisplay@@@ATL@@UAGJPAPAUIEnumSTATDATA@@@Z 100027d1 f i LineDisplay.obj
 0001:00001810       ?GetClassInfoW@?$IProvideClassInfo2Impl@$1?CLSID_OPOSLineDisplay@@3U_GUID@@B$1?DIID__IOPOSLineDisplayEvents@@3U2@B$1?LIBID_OposLineDisplay_CCO@@3U2@B$00$0A@VCComTypeInfoHolder@ATL@@@ATL@@UAGJPAPAUITypeInfo@@@Z 10002810 f i LineDisplay.obj
 0001:00001826       ?GetGUID@?$IProvideClassInfo2Impl@$1?CLSID_OPOSLineDisplay@@3U_GUID@@B$1?DIID__IOPOSLineDisplayEvents@@3U2@B$1?LIBID_OposLineDisplay_CCO@@3U2@B$00$0A@VCComTypeInfoHolder@ATL@@@ATL@@UAGJKPAU_GUID@@@Z 10002826 f i LineDisplay.obj
 0001:00001864       __get_startup_argv_mode    10002864 f i LIBCMT:argv_mode.obj
 0001:00001864       ?FAccessAllowed@?$IObjectSafetyImpl@VCOPOSLineDisplay@@$02@ATL@@MAEHXZ 10002864 f i LineDisplay.obj
 0001:00001868       ?GetInterfaceSafetyOptions@?$IObjectSafetyImpl@VCOPOSLineDisplay@@$02@ATL@@UAGJABU_GUID@@PAK1@Z 10002868 f i LineDisplay.obj
 0001:000018dc       ?SetInterfaceSafetyOptions@?$IObjectSafetyImpl@VCOPOSLineDisplay@@$02@ATL@@UAGJABU_GUID@@KK@Z 100028dc f i LineDisplay.obj
 0001:00001956       ?_LocCPQueryInterface@?$IConnectionPointImpl@VCOPOSLineDisplay@@$1?DIID__IOPOSLineDisplayEvents@@3U_GUID@@BVCComDynamicUnkArray@ATL@@@ATL@@UAGJABU_GUID@@PAPAX@Z 10002956 f i LineDisplay.obj
 0001:00001956       ?_LocCPQueryInterface@?$IConnectionPointImpl@VCOPOSLineDisplay@@$1?IID_IPropertyNotifySink@@3U_GUID@@BVCComDynamicUnkArray@ATL@@@ATL@@UAGJABU_GUID@@PAPAX@Z 10002956 f i LineDisplay.obj
 0001:000019a3       ?GetConnectionInterface@?$IConnectionPointImpl@VCOPOSLineDisplay@@$1?IID_IPropertyNotifySink@@3U_GUID@@BVCComDynamicUnkArray@ATL@@@ATL@@UAGJPAU_GUID@@@Z 100029a3 f i LineDisplay.obj
 0001:000019c7       ?GetConnectionPointContainer@?$IConnectionPointImpl@VCOPOSLineDisplay@@$1?IID_IPropertyNotifySink@@3U_GUID@@BVCComDynamicUnkArray@ATL@@@ATL@@UAGJPAPAUIConnectionPointContainer@@@Z 100029c7 f i LineDisplay.obj
 0001:000019ea       ?Advise@?$IConnectionPointImpl@VCOPOSLineDisplay@@$1?IID_IPropertyNotifySink@@3U_GUID@@BVCComDynamicUnkArray@ATL@@@ATL@@UAGJPAUIUnknown@@PAK@Z 100029ea f i LineDisplay.obj
 0001:000019ea       ?Advise@?$IConnectionPointImpl@VCOPOSLineDisplay@@$1?DIID__IOPOSLineDisplayEvents@@3U_GUID@@BVCComDynamicUnkArray@ATL@@@ATL@@UAGJPAUIUnknown@@PAK@Z 100029ea f i LineDisplay.obj
 0001:00001a8b       ?Unadvise@?$IConnectionPointImpl@VCOPOSLineDisplay@@$1?DIID__IOPOSLineDisplayEvents@@3U_GUID@@BVCComDynamicUnkArray@ATL@@@ATL@@UAGJK@Z 10002a8b f i LineDisplay.obj
 0001:00001a8b       ?Unadvise@?$IConnectionPointImpl@VCOPOSLineDisplay@@$1?IID_IPropertyNotifySink@@3U_GUID@@BVCComDynamicUnkArray@ATL@@@ATL@@UAGJK@Z 10002a8b f i LineDisplay.obj
 0001:00001acb       ?EnumConnections@?$IConnectionPointImpl@VCOPOSLineDisplay@@$1?IID_IPropertyNotifySink@@3U_GUID@@BVCComDynamicUnkArray@ATL@@@ATL@@UAGJPAPAUIEnumConnections@@@Z 10002acb f i LineDisplay.obj
 0001:00001acb       ?EnumConnections@?$IConnectionPointImpl@VCOPOSLineDisplay@@$1?DIID__IOPOSLineDisplayEvents@@3U_GUID@@BVCComDynamicUnkArray@ATL@@@ATL@@UAGJPAPAUIEnumConnections@@@Z 10002acb f i LineDisplay.obj
 0001:00001bd1       ?GetObjectDescription@?$CComCoClass@VCOPOSLineDisplay@@$1?CLSID_OPOSLineDisplay@@3U_GUID@@B@ATL@@SGPB_WXZ 10002bd1 f i LineDisplay.obj
 0001:00001bd1       ?GetCategoryMap@CComObjectRootBase@ATL@@SAPBU_ATL_CATMAP_ENTRY@2@XZ 10002bd1 f i LineDisplay.obj
 0001:00001bd4       ?GetConnectionInterface@?$IConnectionPointImpl@VCOPOSLineDisplay@@$1?DIID__IOPOSLineDisplayEvents@@3U_GUID@@BVCComDynamicUnkArray@ATL@@@ATL@@UAGJPAU_GUID@@@Z 10002bd4 f i LineDisplay.obj
 0001:00001bf8       ?GetConnectionPointContainer@?$IConnectionPointImpl@VCOPOSLineDisplay@@$1?DIID__IOPOSLineDisplayEvents@@3U_GUID@@BVCComDynamicUnkArray@ATL@@@ATL@@UAGJPAPAUIConnectionPointContainer@@@Z 10002bf8 f i LineDisplay.obj
 0001:00001c1b       ?UpdateRegistry@COPOSLineDisplay@@SGJH@Z 10002c1b f i LineDisplay.obj
 0001:00001c33       ?Lock@CAtlModule@ATL@@UAEJXZ 10002c33 f i LineDisplay.obj
 0001:00001c3d       ?Unlock@CAtlModule@ATL@@UAEJXZ 10002c3d f i LineDisplay.obj
 0001:00001c47       ?GetLockCount@CAtlModule@ATL@@UAEJXZ 10002c47 f i LineDisplay.obj
 0001:00001c4b       ?GetGITPtr@CAtlModule@ATL@@UAEJPAPAUIGlobalInterfaceTable@@@Z 10002c4b f i LineDisplay.obj
 0001:00001c97       ?ProcessWindowMessage@COPOSLineDisplay@@UAEHPAUHWND__@@IIJAAJK@Z 10002c97 f i LineDisplay.obj
 0001:00001ce0       ?SODirectIO@COPOSLineDisplay@@MAGJJPAJPAPA_W@Z 10002ce0 f i LineDisplay.obj
 0001:00001d29       ?SOStatusUpdate@COPOSLineDisplay@@MAGJJ@Z 10002d29 f i LineDisplay.obj
 0001:00001d62       ?AddCommonRGSReplacements@?$CAtlModuleT@VCComModule@ATL@@@ATL@@UAEJPAUIRegistrarBase@@@Z 10002d62 f i LineDisplay.obj
 0001:00001d7c       ?UpdateRegistryFromResourceD@CComModule@ATL@@UAGJIHPAU_ATL_REGMAP_ENTRY@2@@Z 10002d7c f i LineDisplay.obj
 0001:00001d7c       ?UpdateRegistryFromResourceD@CComModule@ATL@@UAGJPB_WHPAU_ATL_REGMAP_ENTRY@2@@Z 10002d7c f i LineDisplay.obj
 0001:00001d84       ?UpdateRegistryFromResource@CComModule@ATL@@UAGJPB_WHPAU_ATL_REGMAP_ENTRY@2@@Z 10002d84 f i LineDisplay.obj
 0001:00001d8d       ?UpdateRegistryFromResource@CComModule@ATL@@UAGJIHPAU_ATL_REGMAP_ENTRY@2@@Z 10002d8d f i LineDisplay.obj
 0001:00001d96       ??_GCComModule@ATL@@UAEPAXI@Z 10002d96 f i LineDisplay.obj
 0001:00001d96       ??_ECComModule@ATL@@UAEPAXI@Z 10002d96 f i LineDisplay.obj
 0001:00001dbe       ?CreateInstance@?$CComCreator@V?$CComObjectCached@VCComClassFactory@ATL@@@ATL@@@ATL@@SGJPAXABU_GUID@@PAPAX@Z 10002dbe f i LineDisplay.obj
 0001:00001e6a       ?CreateInstance@?$CComCreator2@V?$CComCreator@V?$CComObject@VCOPOSLineDisplay@@@ATL@@@ATL@@V?$CComCreator@V?$CComAggObject@VCOPOSLineDisplay@@@ATL@@@2@@ATL@@SGJPAXABU_GUID@@PAPAX@Z 10002e6a f i LineDisplay.obj
 0001:00001e8a       ?AddRef@?$CComObjectCached@VCComClassFactory@ATL@@@ATL@@UAGKXZ 10002e8a f i LineDisplay.obj
 0001:00001eb1       ?Release@?$CComObjectCached@VCComClassFactory@ATL@@@ATL@@UAGKXZ 10002eb1 f i LineDisplay.obj
 0001:00001ee7       ?QueryInterface@?$CComObjectCached@VCComClassFactory@ATL@@@ATL@@UAGJABU_GUID@@PAPAX@Z 10002ee7 f i LineDisplay.obj
 0001:00001f01       ??_E?$CComObjectCached@VCComClassFactory@ATL@@@ATL@@UAEPAXI@Z 10002f01 f i LineDisplay.obj
 0001:00001f01       ??_G?$CComObjectCached@VCComClassFactory@ATL@@@ATL@@UAEPAXI@Z 10002f01 f i LineDisplay.obj
 0001:00001f23       ?Next@?$CComEnumImpl@UIEnumConnectionPoints@@$1?_GUID_b196b285_bab4_101a_b69c_00aa00341d07@@3U__s_GUID@@BPAUIConnectionPoint@@V?$_CopyInterface@UIConnectionPoint@@@ATL@@@ATL@@UAGJKPAPAUIConnectionPoint@@PAK@Z 10002f23 f i LineDisplay.obj
 0001:00001ffa       ?Skip@?$CComEnumImpl@UIEnumConnectionPoints@@$1?_GUID_b196b285_bab4_101a_b69c_00aa00341d07@@3U__s_GUID@@BPAUIConnectionPoint@@V?$_CopyInterface@UIConnectionPoint@@@ATL@@@ATL@@UAGJK@Z 10002ffa f i LineDisplay.obj
 0001:00002027       ?Reset@?$CComEnumImpl@UIEnumConnections@@$1?_GUID_b196b287_bab4_101a_b69c_00aa00341d07@@3U__s_GUID@@BUtagCONNECTDATA@@V?$_Copy@UtagCONNECTDATA@@@ATL@@@ATL@@UAGJXZ 10003027 f i LineDisplay.obj
 0001:00002027       ?Reset@?$CComEnumImpl@UIEnumConnectionPoints@@$1?_GUID_b196b285_bab4_101a_b69c_00aa00341d07@@3U__s_GUID@@BPAUIConnectionPoint@@V?$_CopyInterface@UIConnectionPoint@@@ATL@@@ATL@@UAGJXZ 10003027 f i LineDisplay.obj
 0001:00002039       ?Clone@?$CComEnumImpl@UIEnumConnectionPoints@@$1?_GUID_b196b285_bab4_101a_b69c_00aa00341d07@@3U__s_GUID@@BPAUIConnectionPoint@@V?$_CopyInterface@UIConnectionPoint@@@ATL@@@ATL@@UAGJPAPAUIEnumConnectionPoints@@@Z 10003039 f i LineDisplay.obj
 0001:0000211a       ?AddRef@?$CComObject@V?$CComEnum@UIEnumConnectionPoints@@$1?_GUID_b196b285_bab4_101a_b69c_00aa00341d07@@3U__s_GUID@@BPAUIConnectionPoint@@V?$_CopyInterface@UIConnectionPoint@@@ATL@@VCComSingleThreadModel@6@@ATL@@@ATL@@UAGKXZ 1000311a f i LineDisplay.obj
 0001:0000211a       ?AddRef@?$CComObject@V?$CComEnum@UIEnumConnections@@$1?_GUID_b196b287_bab4_101a_b69c_00aa00341d07@@3U__s_GUID@@BUtagCONNECTDATA@@V?$_Copy@UtagCONNECTDATA@@@ATL@@VCComSingleThreadModel@6@@ATL@@@ATL@@UAGKXZ 1000311a f i LineDisplay.obj
 0001:0000212b       ?Release@?$CComObject@V?$CComEnum@UIEnumConnections@@$1?_GUID_b196b287_bab4_101a_b69c_00aa00341d07@@3U__s_GUID@@BUtagCONNECTDATA@@V?$_Copy@UtagCONNECTDATA@@@ATL@@VCComSingleThreadModel@6@@ATL@@@ATL@@UAGKXZ 1000312b f i LineDisplay.obj
 0001:0000212b       ?Release@?$CComObject@V?$CComEnum@UIEnumConnectionPoints@@$1?_GUID_b196b285_bab4_101a_b69c_00aa00341d07@@3U__s_GUID@@BPAUIConnectionPoint@@V?$_CopyInterface@UIConnectionPoint@@@ATL@@VCComSingleThreadModel@6@@ATL@@@ATL@@UAGKXZ 1000312b f i LineDisplay.obj
 0001:00002167       ?QueryInterface@?$CComObject@V?$CComEnum@UIEnumConnectionPoints@@$1?_GUID_b196b285_bab4_101a_b69c_00aa00341d07@@3U__s_GUID@@BPAUIConnectionPoint@@V?$_CopyInterface@UIConnectionPoint@@@ATL@@VCComSingleThreadModel@6@@ATL@@@ATL@@UAGJABU_GUID@@PAPAX@Z 10003167 f i LineDisplay.obj
 0001:00002181       ??_E?$CComObject@V?$CComEnum@UIEnumConnectionPoints@@$1?_GUID_b196b285_bab4_101a_b69c_00aa00341d07@@3U__s_GUID@@BPAUIConnectionPoint@@V?$_CopyInterface@UIConnectionPoint@@@ATL@@VCComSingleThreadModel@6@@ATL@@@ATL@@UAEPAXI@Z 10003181 f i LineDisplay.obj
 0001:00002181       ??_G?$CComObject@V?$CComEnum@UIEnumConnectionPoints@@$1?_GUID_b196b285_bab4_101a_b69c_00aa00341d07@@3U__s_GUID@@BPAUIConnectionPoint@@V?$_CopyInterface@UIConnectionPoint@@@ATL@@VCComSingleThreadModel@6@@ATL@@@ATL@@UAEPAXI@Z 10003181 f i LineDisplay.obj
 0001:000021a3       ?AddRef@CRegObject@ATL@@UAGKXZ 100031a3 f i LineDisplay.obj
 0001:000021a9       ?AddReplacement@CRegObject@ATL@@UAGJPB_W0@Z 100031a9 f i LineDisplay.obj
 0001:000021e2       ?ClearReplacements@CRegObject@ATL@@UAGJXZ 100031e2 f i LineDisplay.obj
 0001:000021f4       ??_ECRegObject@ATL@@UAEPAXI@Z 100031f4 f i LineDisplay.obj
 0001:000021f4       ??_GCRegObject@ATL@@UAEPAXI@Z 100031f4 f i LineDisplay.obj
 0001:00002216       ?AddRef@?$CComAggObject@VCOPOSLineDisplay@@@ATL@@UAGKXZ 10003216 f i LineDisplay.obj
 0001:00002227       ?Release@?$CComAggObject@VCOPOSLineDisplay@@@ATL@@UAGKXZ 10003227 f i LineDisplay.obj
 0001:00002263       ?QueryInterface@?$CComAggObject@VCOPOSLineDisplay@@@ATL@@UAGJABU_GUID@@PAPAX@Z 10003263 f i LineDisplay.obj
 0001:000022b2       ?AddRef@?$CComContainedObject@VCOPOSLineDisplay@@@ATL@@UAGKXZ 100032b2 f i LineDisplay.obj
 0001:000022c8       ?Release@?$CComContainedObject@VCOPOSLineDisplay@@@ATL@@UAGKXZ 100032c8 f i LineDisplay.obj
 0001:000022de       ?QueryInterface@?$CComContainedObject@VCOPOSLineDisplay@@@ATL@@UAGJABU_GUID@@PAPAX@Z 100032de f i LineDisplay.obj
 0001:000022f9       ??_G?$CComAggObject@VCOPOSLineDisplay@@@ATL@@UAEPAXI@Z 100032f9 f i LineDisplay.obj
 0001:000022f9       ??_E?$CComAggObject@VCOPOSLineDisplay@@@ATL@@UAEPAXI@Z 100032f9 f i LineDisplay.obj
 0001:0000231e       ?AddRef@?$CComObject@VCOPOSLineDisplay@@@ATL@@UAGKXZ 1000331e f i LineDisplay.obj
 0001:00002335       ?Release@?$CComObject@VCOPOSLineDisplay@@@ATL@@UAGKXZ 10003335 f i LineDisplay.obj
 0001:00002377       ?QueryInterface@?$CComObject@VCOPOSLineDisplay@@@ATL@@UAGJABU_GUID@@PAPAX@Z 10003377 f i LineDisplay.obj
 0001:00002391       ?OnDrawAdvanced@CComControlBase@ATL@@UAEJAAUATL_DRAWINFO@@@Z 10003391 f i LineDisplay.obj
 0001:00002484       ?Next@?$CComEnumImpl@UIEnumConnections@@$1?_GUID_b196b287_bab4_101a_b69c_00aa00341d07@@3U__s_GUID@@BUtagCONNECTDATA@@V?$_Copy@UtagCONNECTDATA@@@ATL@@@ATL@@UAGJKPAUtagCONNECTDATA@@PAK@Z 10003484 f i LineDisplay.obj
 0001:0000255b       ?Skip@?$CComEnumImpl@UIEnumConnections@@$1?_GUID_b196b287_bab4_101a_b69c_00aa00341d07@@3U__s_GUID@@BUtagCONNECTDATA@@V?$_Copy@UtagCONNECTDATA@@@ATL@@@ATL@@UAGJK@Z 1000355b f i LineDisplay.obj
 0001:00002588       ?Clone@?$CComEnumImpl@UIEnumConnections@@$1?_GUID_b196b287_bab4_101a_b69c_00aa00341d07@@3U__s_GUID@@BUtagCONNECTDATA@@V?$_Copy@UtagCONNECTDATA@@@ATL@@@ATL@@UAGJPAPAUIEnumConnections@@@Z 10003588 f i LineDisplay.obj
 0001:00002669       ?QueryInterface@?$CComObject@V?$CComEnum@UIEnumConnections@@$1?_GUID_b196b287_bab4_101a_b69c_00aa00341d07@@3U__s_GUID@@BUtagCONNECTDATA@@V?$_Copy@UtagCONNECTDATA@@@ATL@@VCComSingleThreadModel@6@@ATL@@@ATL@@UAGJABU_GUID@@PAPAX@Z 10003669 f i LineDisplay.obj
 0001:00002683       ??_E?$CComObject@V?$CComEnum@UIEnumConnections@@$1?_GUID_b196b287_bab4_101a_b69c_00aa00341d07@@3U__s_GUID@@BUtagCONNECTDATA@@V?$_Copy@UtagCONNECTDATA@@@ATL@@VCComSingleThreadModel@6@@ATL@@@ATL@@UAEPAXI@Z 10003683 f i LineDisplay.obj
 0001:00002683       ??_G?$CComObject@V?$CComEnum@UIEnumConnections@@$1?_GUID_b196b287_bab4_101a_b69c_00aa00341d07@@3U__s_GUID@@BUtagCONNECTDATA@@V?$_Copy@UtagCONNECTDATA@@@ATL@@VCComSingleThreadModel@6@@ATL@@@ATL@@UAEPAXI@Z 10003683 f i LineDisplay.obj
 0001:000026a5       ??_E?$CComObject@VCOPOSLineDisplay@@@ATL@@W3AEPAXI@Z 100036a5 f i LineDisplay.obj
 0001:000026ad       ??_E?$CComObject@VCOPOSLineDisplay@@@ATL@@WEM@AEPAXI@Z 100036ad f i LineDisplay.obj
 0001:000026b5       ?QueryInterface@?$CComObject@VCOPOSLineDisplay@@@ATL@@WHA@AGJABU_GUID@@PAPAX@Z 100036b5 f i LineDisplay.obj
 0001:000026bf       ?AddRef@?$CComObject@VCOPOSLineDisplay@@@ATL@@WHA@AGKXZ 100036bf f i LineDisplay.obj
 0001:000026c9       ?Release@?$CComObject@VCOPOSLineDisplay@@@ATL@@WHA@AGKXZ 100036c9 f i LineDisplay.obj
 0001:000026d3       ?QueryInterface@?$CComObject@VCOPOSLineDisplay@@@ATL@@WHE@AGJABU_GUID@@PAPAX@Z 100036d3 f i LineDisplay.obj
 0001:000026dd       ?AddRef@?$CComObject@VCOPOSLineDisplay@@@ATL@@WHE@AGKXZ 100036dd f i LineDisplay.obj
 0001:000026e7       ?Release@?$CComObject@VCOPOSLineDisplay@@@ATL@@WHE@AGKXZ 100036e7 f i LineDisplay.obj
 0001:000026f1       ?QueryInterface@?$CComObject@VCOPOSLineDisplay@@@ATL@@WHI@AGJABU_GUID@@PAPAX@Z 100036f1 f i LineDisplay.obj
 0001:000026fb       ?AddRef@?$CComObject@VCOPOSLineDisplay@@@ATL@@WHI@AGKXZ 100036fb f i LineDisplay.obj
 0001:00002705       ?Release@?$CComObject@VCOPOSLineDisplay@@@ATL@@WHI@AGKXZ 10003705 f i LineDisplay.obj
 0001:0000270f       ?QueryInterface@?$CComObject@VCOPOSLineDisplay@@@ATL@@WHM@AGJABU_GUID@@PAPAX@Z 1000370f f i LineDisplay.obj
 0001:00002719       ?AddRef@?$CComObject@VCOPOSLineDisplay@@@ATL@@WHM@AGKXZ 10003719 f i LineDisplay.obj
 0001:00002723       ?Release@?$CComObject@VCOPOSLineDisplay@@@ATL@@WHM@AGKXZ 10003723 f i LineDisplay.obj
 0001:0000272d       ?QueryInterface@?$CComObject@VCOPOSLineDisplay@@@ATL@@WIA@AGJABU_GUID@@PAPAX@Z 1000372d f i LineDisplay.obj
 0001:0000273a       ?AddRef@?$CComObject@VCOPOSLineDisplay@@@ATL@@WIA@AGKXZ 1000373a f i LineDisplay.obj
 0001:00002747       ?Release@?$CComObject@VCOPOSLineDisplay@@@ATL@@WIA@AGKXZ 10003747 f i LineDisplay.obj
 0001:00002754       ?QueryInterface@?$CComObject@VCOPOSLineDisplay@@@ATL@@WIE@AGJABU_GUID@@PAPAX@Z 10003754 f i LineDisplay.obj
 0001:00002761       ?AddRef@?$CComObject@VCOPOSLineDisplay@@@ATL@@WIE@AGKXZ 10003761 f i LineDisplay.obj
 0001:0000276e       ?Release@?$CComObject@VCOPOSLineDisplay@@@ATL@@WIE@AGKXZ 1000376e f i LineDisplay.obj
 0001:0000277b       ?QueryInterface@?$CComObject@VCOPOSLineDisplay@@@ATL@@WII@AGJABU_GUID@@PAPAX@Z 1000377b f i LineDisplay.obj
 0001:00002788       ?AddRef@?$CComObject@VCOPOSLineDisplay@@@ATL@@WII@AGKXZ 10003788 f i LineDisplay.obj
 0001:00002795       ?Release@?$CComObject@VCOPOSLineDisplay@@@ATL@@WII@AGKXZ 10003795 f i LineDisplay.obj
 0001:000027a2       ?QueryInterface@?$CComObject@VCOPOSLineDisplay@@@ATL@@WIM@AGJABU_GUID@@PAPAX@Z 100037a2 f i LineDisplay.obj
 0001:000027af       ?AddRef@?$CComObject@VCOPOSLineDisplay@@@ATL@@WIM@AGKXZ 100037af f i LineDisplay.obj
 0001:000027bc       ?Release@?$CComObject@VCOPOSLineDisplay@@@ATL@@WIM@AGKXZ 100037bc f i LineDisplay.obj
 0001:000027c9       ?QueryInterface@?$CComObject@VCOPOSLineDisplay@@@ATL@@WJA@AGJABU_GUID@@PAPAX@Z 100037c9 f i LineDisplay.obj
 0001:000027d6       ?AddRef@?$CComObject@VCOPOSLineDisplay@@@ATL@@WJA@AGKXZ 100037d6 f i LineDisplay.obj
 0001:000027e3       ?Release@?$CComObject@VCOPOSLineDisplay@@@ATL@@WJA@AGKXZ 100037e3 f i LineDisplay.obj
 0001:000027f0       ?QueryInterface@?$CComObject@VCOPOSLineDisplay@@@ATL@@WJE@AGJABU_GUID@@PAPAX@Z 100037f0 f i LineDisplay.obj
 0001:000027fd       ?AddRef@?$CComObject@VCOPOSLineDisplay@@@ATL@@WJE@AGKXZ 100037fd f i LineDisplay.obj
 0001:0000280a       ?Release@?$CComObject@VCOPOSLineDisplay@@@ATL@@WJE@AGKXZ 1000380a f i LineDisplay.obj
 0001:00002817       ?QueryInterface@?$CComObject@VCOPOSLineDisplay@@@ATL@@WJI@AGJABU_GUID@@PAPAX@Z 10003817 f i LineDisplay.obj
 0001:00002824       ?AddRef@?$CComObject@VCOPOSLineDisplay@@@ATL@@WJI@AGKXZ 10003824 f i LineDisplay.obj
 0001:00002831       ?Release@?$CComObject@VCOPOSLineDisplay@@@ATL@@WJI@AGKXZ 10003831 f i LineDisplay.obj
 0001:0000283e       ?QueryInterface@?$CComObject@VCOPOSLineDisplay@@@ATL@@WJM@AGJABU_GUID@@PAPAX@Z 1000383e f i LineDisplay.obj
 0001:0000284b       ?AddRef@?$CComObject@VCOPOSLineDisplay@@@ATL@@WJM@AGKXZ 1000384b f i LineDisplay.obj
 0001:00002858       ?Release@?$CComObject@VCOPOSLineDisplay@@@ATL@@WJM@AGKXZ 10003858 f i LineDisplay.obj
 0001:00002865       ?QueryInterface@?$CComObject@VCOPOSLineDisplay@@@ATL@@WKA@AGJABU_GUID@@PAPAX@Z 10003865 f i LineDisplay.obj
 0001:00002872       ?AddRef@?$CComObject@VCOPOSLineDisplay@@@ATL@@WKA@AGKXZ 10003872 f i LineDisplay.obj
 0001:0000287f       ?Release@?$CComObject@VCOPOSLineDisplay@@@ATL@@WKA@AGKXZ 1000387f f i LineDisplay.obj
 0001:0000288c       ?AddRef@?$CComObject@VCOPOSLineDisplay@@@ATL@@WKI@AGKXZ 1000388c f i LineDisplay.obj
 0001:00002899       ?Release@?$CComObject@VCOPOSLineDisplay@@@ATL@@WKI@AGKXZ 10003899 f i LineDisplay.obj
 0001:000028a6       ?AddRef@?$CComObject@VCOPOSLineDisplay@@@ATL@@WLE@AGKXZ 100038a6 f i LineDisplay.obj
 0001:000028b3       ?Release@?$CComObject@VCOPOSLineDisplay@@@ATL@@WLE@AGKXZ 100038b3 f i LineDisplay.obj
 0001:000028c0       ??_E?$CComContainedObject@VCOPOSLineDisplay@@@ATL@@W3AEPAXI@Z 100038c0 f i LineDisplay.obj
 0001:000028c8       ??_E?$CComContainedObject@VCOPOSLineDisplay@@@ATL@@WEM@AEPAXI@Z 100038c8 f i LineDisplay.obj
 0001:000028d0       ?QueryInterface@?$CComContainedObject@VCOPOSLineDisplay@@@ATL@@WHA@AGJABU_GUID@@PAPAX@Z 100038d0 f i LineDisplay.obj
 0001:000028da       ?AddRef@?$CComContainedObject@VCOPOSLineDisplay@@@ATL@@WHA@AGKXZ 100038da f i LineDisplay.obj
 0001:000028e4       ?Release@?$CComContainedObject@VCOPOSLineDisplay@@@ATL@@WHA@AGKXZ 100038e4 f i LineDisplay.obj
 0001:000028ee       ?QueryInterface@?$CComContainedObject@VCOPOSLineDisplay@@@ATL@@WHE@AGJABU_GUID@@PAPAX@Z 100038ee f i LineDisplay.obj
 0001:000028f8       ?AddRef@?$CComContainedObject@VCOPOSLineDisplay@@@ATL@@WHE@AGKXZ 100038f8 f i LineDisplay.obj
 0001:00002902       ??$?4UITypeInfo2@@@?$CComPtr@UITypeInfo@@@ATL@@QAEPAUITypeInfo@@ABV?$CComPtr@UITypeInfo2@@@1@@Z 10003902 f i LineDisplay.obj
 0001:0000292f       ??$AtlAdd@K@ATL@@YAJPAKKK@Z 1000392f f i LineDisplay.obj
 0001:00002952       ??$AtlAdd@_K@ATL@@YAJPA_K_K1@Z 10003952 f i LineDisplay.obj
 0001:0000298a       ??$AtlAddThrow@K@ATL@@YAKKK@Z 1000398a f i LineDisplay.obj
 0001:000029b0       ??$AtlModuleRegisterWndClassInfoT@VAtlModuleRegisterWndClassInfoParamW@ATL@@@ATL@@YAGPAU_ATL_BASE_MODULE70@0@PAU_ATL_WIN_MODULE70@0@PAU_ATL_WNDCLASSINFOW@0@PAP6GJPAUHWND__@@IIJ@ZVAtlModuleRegisterWndClassInfoParamW@0@@Z 100039b0 f i LineDisplay.obj
 0001:00002afe       ??$AtlMultiply@H@ATL@@YAJPAHHH@Z 10003afe f i LineDisplay.obj
 0001:00002b36       ??$AtlMultiply@I@ATL@@YAJPAIII@Z 10003b36 f i LineDisplay.obj
 0001:00002b36       ??$AtlMultiply@K@ATL@@YAJPAKKK@Z 10003b36 f i LineDisplay.obj
 0001:00002b58       ??$AtlMultiplyThrow@I@ATL@@YAIII@Z 10003b58 f i LineDisplay.obj
 0001:00002b7e       ??0?$CComAggObject@VCOPOSLineDisplay@@@ATL@@QAE@PAX@Z 10003b7e f i LineDisplay.obj
 0001:00002bab       ??0?$CComContainedObject@VCOPOSLineDisplay@@@ATL@@QAE@PAX@Z 10003bab f i LineDisplay.obj
 0001:00002c64       ??0?$CComObject@V?$CComEnum@UIEnumConnectionPoints@@$1?_GUID_b196b285_bab4_101a_b69c_00aa00341d07@@3U__s_GUID@@BPAUIConnectionPoint@@V?$_CopyInterface@UIConnectionPoint@@@ATL@@VCComSingleThreadModel@6@@ATL@@@ATL@@QAE@PAX@Z 10003c64 f i LineDisplay.obj
 0001:00002c92       ??0?$CComObject@V?$CComEnum@UIEnumConnections@@$1?_GUID_b196b287_bab4_101a_b69c_00aa00341d07@@3U__s_GUID@@BUtagCONNECTDATA@@V?$_Copy@UtagCONNECTDATA@@@ATL@@VCComSingleThreadModel@6@@ATL@@@ATL@@QAE@PAX@Z 10003c92 f i LineDisplay.obj
 0001:00002cc0       ??0?$CComObject@VCOPOSLineDisplay@@@ATL@@QAE@PAX@Z 10003cc0 f i LineDisplay.obj
 0001:00002d77       ??0?$CComQIPtr@UIOleControlSite@@$1?_GUID_b196b289_bab4_101a_b69c_00aa00341d07@@3U__s_GUID@@B@ATL@@QAE@PAUIUnknown@@@Z 10003d77 f i LineDisplay.obj
 0001:00002da0       ??0CAtlModule@ATL@@QAE@XZ  10003da0 f i LineDisplay.obj
 0001:00002de1       ??0CParseBuffer@CRegParser@ATL@@QAE@H@Z 10003de1 f i LineDisplay.obj
 0001:00002e17       ??0_ATL_MSG@ATL@@QAE@PAUHWND__@@IIJH@Z 10003e17 f i LineDisplay.obj
 0001:00002e4f       ??1?$CComAggObject@VCOPOSLineDisplay@@@ATL@@UAE@XZ 10003e4f f i LineDisplay.obj
 0001:00002e73       ??1?$CComEnumImpl@UIEnumConnectionPoints@@$1?_GUID_b196b285_bab4_101a_b69c_00aa00341d07@@3U__s_GUID@@BPAUIConnectionPoint@@V?$_CopyInterface@UIConnectionPoint@@@ATL@@@ATL@@UAE@XZ 10003e73 f i LineDisplay.obj
 0001:00002eb3       ??1?$CComEnumImpl@UIEnumConnections@@$1?_GUID_b196b287_bab4_101a_b69c_00aa00341d07@@3U__s_GUID@@BUtagCONNECTDATA@@V?$_Copy@UtagCONNECTDATA@@@ATL@@@ATL@@UAE@XZ 10003eb3 f i LineDisplay.obj
 0001:00002ef3       ??1?$CComObject@V?$CComEnum@UIEnumConnectionPoints@@$1?_GUID_b196b285_bab4_101a_b69c_00aa00341d07@@3U__s_GUID@@BPAUIConnectionPoint@@V?$_CopyInterface@UIConnectionPoint@@@ATL@@VCComSingleThreadModel@6@@ATL@@@ATL@@UAE@XZ 10003ef3 f i LineDisplay.obj
 0001:00002f16       ??1?$CComObject@V?$CComEnum@UIEnumConnections@@$1?_GUID_b196b287_bab4_101a_b69c_00aa00341d07@@3U__s_GUID@@BUtagCONNECTDATA@@V?$_Copy@UtagCONNECTDATA@@@ATL@@VCComSingleThreadModel@6@@ATL@@@ATL@@UAE@XZ 10003f16 f i LineDisplay.obj
 0001:00002f39       ??1?$CComObject@VCOPOSLineDisplay@@@ATL@@UAE@XZ 10003f39 f i LineDisplay.obj
 0001:00002ff7       ??1?$CComObjectCached@VCComClassFactory@ATL@@@ATL@@UAE@XZ 10003ff7 f i LineDisplay.obj
 0001:0000300d       ??1?$CComObjectRootEx@VCComMultiThreadModel@ATL@@@ATL@@QAE@XZ 1000400d f i LineDisplay.obj
 0001:00003022       ??1CRegObject@ATL@@UAE@XZ  10004022 f i LineDisplay.obj
 0001:00003042       ??4?$CComPtr@UIOleClientSite@@@ATL@@QAEPAUIOleClientSite@@PAU2@@Z 10004042 f i LineDisplay.obj
 0001:00003042       ??4?$CComPtr@UIUnknown@@@ATL@@QAEPAUIUnknown@@PAU2@@Z 10004042 f i LineDisplay.obj
 0001:00003042       ??4?$CComPtr@UIAdviseSink@@@ATL@@QAEPAUIAdviseSink@@PAU2@@Z 10004042 f i LineDisplay.obj
 0001:00003076       ??_E?$CComContainedObject@VCOPOSLineDisplay@@@ATL@@UAEPAXI@Z 10004076 f i LineDisplay.obj
 0001:00003076       ??_G?$CComContainedObject@VCOPOSLineDisplay@@@ATL@@UAEPAXI@Z 10004076 f i LineDisplay.obj
 0001:0000309b       ??_G?$CComObject@VCOPOSLineDisplay@@@ATL@@UAEPAXI@Z 1000409b f i LineDisplay.obj
 0001:0000309b       ??_E?$CComObject@VCOPOSLineDisplay@@@ATL@@UAEPAXI@Z 1000409b f i LineDisplay.obj
 0001:000030c0       ?Add@?$CSimpleArray@GV?$CSimpleArrayEqualHelper@G@ATL@@@ATL@@QAEHABG@Z 100040c0 f i LineDisplay.obj
 0001:00003144       ?Add@?$CSimpleMap@PA_WPA_WVCExpansionVectorEqualHelper@ATL@@@ATL@@QAEHABQA_W0@Z 10004144 f i LineDisplay.obj
 0001:00003199       ?Add@CComDynamicUnkArray@ATL@@QAEKPAUIUnknown@@@Z 10004199 f i LineDisplay.obj
 0001:0000324f       ?Add@CExpansionVector@ATL@@QAEHPB_W0@Z 1000424f f i LineDisplay.obj
 0001:00003358       ?AddString@CParseBuffer@CRegParser@ATL@@QAEHPB_W@Z 10004358 f i LineDisplay.obj
 0001:0000338d       ?AddTermFunc@CAtlModule@ATL@@QAEJP6GXK@ZK@Z 1000438d f i LineDisplay.obj
 0001:000033f0       ?AddValue@CRegParser@ATL@@IAEJAAVCRegKey@2@PB_WPA_W@Z 100043f0 f i LineDisplay.obj
 0001:0000370a       ?Allocate@?$CAtlSafeAllocBufferManager@VCCRTAllocator@ATL@@@_ATL_SAFE_ALLOCA_IMPL@ATL@@QAEPAXK@Z 1000470a f i LineDisplay.obj
 0001:00003737       ?Allocate@?$CTempBuffer@E$0BAA@VCCRTAllocator@ATL@@@ATL@@QAEPAEI@Z 10004737 f i LineDisplay.obj
 0001:00003766       ?Allocate@?$CTempBuffer@_W$0BAA@VCCRTAllocator@ATL@@@ATL@@QAEPA_WI@Z 10004766 f i LineDisplay.obj
 0001:00003795       ?Allocate@?$CTempBuffer@_W$0EAA@VCCRTAllocator@ATL@@@ATL@@QAEPA_WI@Z 10004795 f i LineDisplay.obj
 0001:000037c4       ?AllocateHeap@?$CTempBuffer@_W$0EAA@VCCRTAllocator@ATL@@@ATL@@AAEXI@Z 100047c4 f i LineDisplay.obj
 0001:000037c4       ?AllocateHeap@?$CTempBuffer@E$0BAA@VCCRTAllocator@ATL@@@ATL@@AAEXI@Z 100047c4 f i LineDisplay.obj
 0001:000037c4       ?AllocateHeap@?$CTempBuffer@_W$0BAA@VCCRTAllocator@ATL@@@ATL@@AAEXI@Z 100047c4 f i LineDisplay.obj
 0001:000037e9       ?Append@CParseBuffer@CRegParser@ATL@@QAEHPB_WH@Z 100047e9 f i LineDisplay.obj
 0001:00003877       ?AtlCoTaskMemCAlloc@ATL@@YAPAXKK@Z 10004877 f i LineDisplay.obj
 0001:000038a4       ?AtlCoTaskMemRecalloc@ATL@@YAPAXPAXKK@Z 100048a4 f i LineDisplay.obj
 0001:000038d4       ?AtlComModuleGetClassObject@ATL@@YGJPAU_ATL_COM_MODULE70@1@ABU_GUID@@1PAPAX@Z 100048d4 f i LineDisplay.obj
 0001:000039c7       ?AtlComModuleRegisterServer@ATL@@YGJPAU_ATL_COM_MODULE70@1@HPBU_GUID@@@Z 100049c7 f i LineDisplay.obj
 0001:00003a4f       ?AtlComModuleUnregisterServer@ATL@@YGJPAU_ATL_COM_MODULE70@1@HPBU_GUID@@@Z 10004a4f f i LineDisplay.obj
 0001:00003ad7       ?AtlComQIPtrAssign2@ATL@@YAXPAPAUIUnknown@@PAU2@ABU_GUID@@@Z 10004ad7 f i LineDisplay.obj
 0001:00003b06       ?AtlCreateTargetDC@ATL@@YGPAUHDC__@@PAU2@PAUtagDVTARGETDEVICE@@@Z 10004b06 f i LineDisplay.obj
 0001:00003b6f       ?AtlCrtErrorCheck@ATL@@YAHH@Z 10004b6f f i LineDisplay.obj
 0001:00003baa       ?AtlHiMetricToPixel@ATL@@YGXPBUtagSIZE@@PAU2@@Z 10004baa f i LineDisplay.obj
 0001:00003c1f       ?AtlHresultFromLastError@ATL@@YAJXZ 10004c1f f i LineDisplay.obj
 0001:00003c36       ?AtlHresultFromWin32@ATL@@YAJK@Z 10004c36 f i LineDisplay.obj
 0001:00003c4b       ?AtlInternalOleLoadFromStream@ATL@@YAJPAUIStream@@ABU_GUID@@PAPAXTClassesAllowedInStream@1@K@Z 10004c4b f i LineDisplay.obj
 0001:00003d71       ?AtlInternalQueryInterface@ATL@@YGJPAXPBU_ATL_INTMAP_ENTRY@1@ABU_GUID@@PAPAX@Z 10004d71 f i LineDisplay.obj
 0001:00003e14       ?AtlLoadTypeLib@ATL@@YGJPAUHINSTANCE__@@PB_WPAPA_WPAPAUITypeLib@@@Z 10004e14 f i LineDisplay.obj
 0001:00003ff2       ?AtlRegisterClassCategoriesHelper@ATL@@YGJABU_GUID@@PBU_ATL_CATMAP_ENTRY@1@H@Z 10004ff2 f i LineDisplay.obj
 0001:000042ee       ?AtlRegisterTypeLib@ATL@@YGJPAUHINSTANCE__@@PB_W@Z 100052ee f i LineDisplay.obj
 0001:00004476       ?AtlThrowImpl@ATL@@YGXJ@Z  10005476 f i LineDisplay.obj
 0001:00004494       ?AtlUnRegisterTypeLib@ATL@@YGJPAUHINSTANCE__@@PB_W@Z 10005494 f i LineDisplay.obj
 0001:0000453f       ?AtlWinModuleAddCreateWndData@ATL@@YGXPAU_ATL_WIN_MODULE70@1@PAU_AtlCreateWndData@1@PAX@Z 1000553f f i LineDisplay.obj
 0001:00004593       ?AtlWinModuleExtractCreateWndData@ATL@@YGPAXPAU_ATL_WIN_MODULE70@1@@Z 10005593 f i LineDisplay.obj
 0001:000045f6       ?AtlWinModuleRegisterClassExW@ATL@@YGGPAU_ATL_WIN_MODULE70@1@PBUtagWNDCLASSEXW@@@Z 100055f6 f i LineDisplay.obj
 0001:00004635       ?CanForceRemoveKey@CRegParser@ATL@@IAEHPB_W@Z 10005635 f i LineDisplay.obj
 0001:00004664       ?ChToByte@CRegParser@ATL@@KAE_W@Z 10005664 f i LineDisplay.obj
 0001:00004697       ?Cleanup@CComTypeInfoHolder@ATL@@SGXK@Z 10005697 f i LineDisplay.obj
 0001:000046ca       ?ClearReplacements@CExpansionVector@ATL@@QAEJXZ 100056ca f i LineDisplay.obj
 0001:00004707       ?Close@CRegKey@ATL@@QAEJXZ 10005707 f i LineDisplay.obj
 0001:00004721       ?CreateInstance@?$CComCreator@V?$CComAggObject@VCOPOSLineDisplay@@@ATL@@@ATL@@SGJPAXABU_GUID@@PAPAX@Z 10005721 f i LineDisplay.obj
 0001:00004797       ?CreateInstance@?$CComCreator@V?$CComObject@VCOPOSLineDisplay@@@ATL@@@ATL@@SGJPAXABU_GUID@@PAPAX@Z 10005797 f i LineDisplay.obj
 0001:00004818       ?CreateInstance@?$CComObject@V?$CComEnum@UIEnumConnectionPoints@@$1?_GUID_b196b285_bab4_101a_b69c_00aa00341d07@@3U__s_GUID@@BPAUIConnectionPoint@@V?$_CopyInterface@UIConnectionPoint@@@ATL@@VCComSingleThreadModel@6@@ATL@@@ATL@@SGJPAPAV12@@Z 10005818 f i LineDisplay.obj
 0001:0000485f       ?CreateInstance@?$CComObject@V?$CComEnum@UIEnumConnections@@$1?_GUID_b196b287_bab4_101a_b69c_00aa00341d07@@3U__s_GUID@@BUtagCONNECTDATA@@V?$_Copy@UtagCONNECTDATA@@@ATL@@VCComSingleThreadModel@6@@ATL@@@ATL@@SGJPAPAV12@@Z 1000585f f i LineDisplay.obj
 0001:000048a6       ?DefaultReflectionHandler@?$CWindowImplRoot@VCWindow@ATL@@@ATL@@SAHPAUHWND__@@IIJAAJ@Z 100058a6 f i LineDisplay.obj
 0001:00004919       ?DeleteSubKey@CRegKey@ATL@@QAEJPB_W@Z 10005919 f i LineDisplay.obj
 0001:00004992       ?DoEvent@COPOSLineDisplay@@IAEXIIJ@Z 10005992 f i LineDisplay.obj
 0001:00004a12       ?DoVerbHide@?$IOleObjectImpl@VCOPOSLineDisplay@@@ATL@@QAEJPBUtagRECT@@PAUHWND__@@@Z 10005a12 f i LineDisplay.obj
 0001:00004a48       ?DoVerbInPlaceActivate@?$IOleObjectImpl@VCOPOSLineDisplay@@@ATL@@QAEJPBUtagRECT@@PAUHWND__@@@Z 10005a48 f i LineDisplay.obj
 0001:00004a7b       ?DoVerbPrimary@?$IOleObjectImpl@VCOPOSLineDisplay@@@ATL@@QAEJPBUtagRECT@@PAUHWND__@@@Z 10005a7b f i LineDisplay.obj
 0001:00004b07       ?DoVerbProperties@CComControlBase@ATL@@QAEJPBUtagRECT@@PAUHWND__@@@Z 10005b07 f i LineDisplay.obj
 0001:00004c86       ?DoVerbUIActivate@?$IOleObjectImpl@VCOPOSLineDisplay@@@ATL@@QAEJPBUtagRECT@@PAUHWND__@@@Z 10005c86 f i LineDisplay.obj
 0001:00004cc3       ?DoesVerbActivate@CComControlBase@ATL@@QAEHJ@Z 10005cc3 f i LineDisplay.obj
 0001:00004ce4       ?DoesVerbUIActivate@CComControlBase@ATL@@QAEHJ@Z 10005ce4 f i LineDisplay.obj
 0001:00004d19       ?EndOfVar@CRegParser@ATL@@IAEHXZ 10005d19 f i LineDisplay.obj
 0001:00004d39       ?EscapeSingleQuote@CAtlModule@ATL@@SAXPA_WIPB_W@Z 10005d39 f i LineDisplay.obj
 0001:00004d88       ?FindKey@?$CSimpleMap@PA_WPA_WVCExpansionVectorEqualHelper@ATL@@@ATL@@QBEHABQA_W@Z 10005d88 f i LineDisplay.obj
 0001:00004dbf       ?FireTheEvent@?$CProxy_IOPOSEvents@VCOPOSLineDisplay@@@@IAEXPAVOposVariant@@IAAJPB_WJ@Z 10005dbf f i LineDisplay.obj
 0001:00004e51       ?FireViewChange@CComControlBase@ATL@@QAEJXZ 10005e51 f i LineDisplay.obj
 0001:00004e9a       ?Fire_DirectIOEvent@?$CProxy_IOPOSEvents@VCOPOSLineDisplay@@@@QAEXJPAJPAPA_W@Z 10005e9a f i LineDisplay.obj
 0001:00004f83       ?Fire_StatusUpdateEvent@?$CProxy_IOPOSEvents@VCOPOSLineDisplay@@@@QAEXJ@Z 10005f83 f i LineDisplay.obj
 0001:00005016       ?FreeHeap@?$CTempBuffer@_W$0BAA@VCCRTAllocator@ATL@@@ATL@@AAEXXZ 10006016 f i LineDisplay.obj
 0001:00005016       ?FreeHeap@?$CTempBuffer@E$0BAA@VCCRTAllocator@ATL@@@ATL@@AAEXXZ 10006016 f i LineDisplay.obj
 0001:00005016       ?FreeHeap@?$CTempBuffer@_W$0EAA@VCCRTAllocator@ATL@@@ATL@@AAEXXZ 10006016 f i LineDisplay.obj
 0001:0000501f       ?GetAmbientLocaleID@CComControlBase@ATL@@QAEJAAK@Z 1000601f f i LineDisplay.obj
 0001:0000507b       ?GetAmbientUserMode@CComControlBase@ATL@@QAEJAAH@Z 1000607b f i LineDisplay.obj
 0001:000050eb       ?GetAt@CComDynamicUnkArray@ATL@@QAEPAUIUnknown@@H@Z 100060eb f i LineDisplay.obj
 0001:00005107       ?GetClassObject@CComModule@ATL@@QAEJABU_GUID@@0PAPAX@Z 10006107 f i LineDisplay.obj
 0001:000051a9       ?GetConnMap@COPOSLineDisplay@@SAPBU_ATL_CONNMAP_ENTRY@ATL@@PAH@Z 100061a9 f i LineDisplay.obj
 0001:00005219       ?GetCookie@CComDynamicUnkArray@ATL@@QAGKPAPAUIUnknown@@@Z 10006219 f i LineDisplay.obj
 0001:00005251       ?GetIDsOfNames@CComTypeInfoHolder@ATL@@QAEJABU_GUID@@PAPA_WIKPAJ@Z 10006251 f i LineDisplay.obj
 0001:00005378       ?GetKeyAt@?$CSimpleMap@PA_WPA_WVCExpansionVectorEqualHelper@ATL@@@ATL@@QBEAAPA_WH@Z 10006378 f i LineDisplay.obj
 0001:0000539d       ?GetPagesHelper@?$ISpecifyPropertyPagesImpl@VCOPOSLineDisplay@@@ATL@@IAEJPAUtagCAUUID@@PBUATL_PROPMAP_ENTRY@2@@Z 1000639d f i LineDisplay.obj
 0001:000054c4       ?GetProperty@?$CComPtr@UIDispatch@@@ATL@@SAJPAUIDispatch@@JPAUtagVARIANT@@@Z 100064c4 f i LineDisplay.obj
 0001:00005513       ?GetSizeMax@CComVariant@ATL@@QBEJPAT_ULARGE_INTEGER@@@Z 10006513 f i LineDisplay.obj
 0001:000056d9       ?GetTI@CComTypeInfoHolder@ATL@@QAEJK@Z 100066d9 f i LineDisplay.obj
 0001:000058b8       ?GetTI@CComTypeInfoHolder@ATL@@QAEJKPAPAUITypeInfo@@@Z 100068b8 f i LineDisplay.obj
 0001:000058fa       ?GetUnknown@CComDynamicUnkArray@ATL@@QAGPAUIUnknown@@K@Z 100068fa f i LineDisplay.obj
 0001:0000591b       ?GetValueAt@?$CSimpleMap@PA_WPA_WVCExpansionVectorEqualHelper@ATL@@@ATL@@QBEAAPA_WH@Z 1000691b f i LineDisplay.obj
 0001:00005941       ?GetZoomInfo@CComControlBase@ATL@@QAEXAAUATL_DRAWINFO@@@Z 10006941 f i LineDisplay.obj
 0001:000059d4       ?HKeyFromString@CRegParser@ATL@@KAPAUHKEY__@@PA_W@Z 100069d4 f i LineDisplay.obj
 0001:00005a02       ?HasSubKeys@CRegParser@ATL@@IAEHPAUHKEY__@@@Z 10006a02 f i LineDisplay.obj
 0001:00005a37       ?IDataObject_GetData@CComControlBase@ATL@@QAEJPAUtagFORMATETC@@PAUtagSTGMEDIUM@@@Z 10006a37 f i LineDisplay.obj
 0001:00005bdd       ?IOleInPlaceObject_InPlaceDeactivate@CComControlBase@ATL@@QAEJXZ 10006bdd f i LineDisplay.obj
 0001:00005c64       ?IOleInPlaceObject_SetObjectRects@CComControlBase@ATL@@QAEJPBUtagRECT@@0@Z 10006c64 f i LineDisplay.obj
 0001:00005d31       ?IOleInPlaceObject_UIDeactivate@CComControlBase@ATL@@QAEJXZ 10006d31 f i LineDisplay.obj
 0001:00005df3       ?IOleObject_Advise@CComControlBase@ATL@@QAEJPAUIAdviseSink@@PAK@Z 10006df3 f i LineDisplay.obj
 0001:00005e1d       ?IOleObject_Close@CComControlBase@ATL@@QAEJK@Z 10006e1d f i LineDisplay.obj
 0001:00005f01       ?IOleObject_GetClientSite@CComControlBase@ATL@@QAEJPAPAUIOleClientSite@@@Z 10006f01 f i LineDisplay.obj
 0001:00005f2a       ?IOleObject_SetClientSite@CComControlBase@ATL@@QAEJPAUIOleClientSite@@@Z 10006f2a f i LineDisplay.obj
 0001:00005f69       ?IOleObject_SetExtent@CComControlBase@ATL@@QAEJKPAUtagSIZE@@@Z 10006f69 f i LineDisplay.obj
 0001:0000601d       ?IPSI_GetIPersistStreamInit@?$IPersistStorageImpl@VCOPOSLineDisplay@@@ATL@@AAEPAUIPersistStreamInit@@XZ 1000701d f i LineDisplay.obj
 0001:000060c5       ?IPersistStreamInit_Load@?$IPersistStreamInitImpl@VCOPOSLineDisplay@@@ATL@@QAEJPAUIStream@@PBUATL_PROPMAP_ENTRY@2@@Z 100070c5 f i LineDisplay.obj
 0001:00006341       ?IPersistStreamInit_Save@?$IPersistStreamInitImpl@VCOPOSLineDisplay@@@ATL@@QAEJPAUIStream@@HPBUATL_PROPMAP_ENTRY@2@@Z 10007341 f i LineDisplay.obj
 0001:0000652f       ?IQuickActivate_QuickActivate@CComControlBase@ATL@@QAEJPAUtagQACONTAINER@@PAUtagQACONTROL@@@Z 1000752f f i LineDisplay.obj
 0001:00006771       ?IViewObject_Draw@CComControlBase@ATL@@QAEJKJPAXPAUtagDVTARGETDEVICE@@PAUHDC__@@2PBU_RECTL@@3@Z 10007771 f i LineDisplay.obj
 0001:00006819       ?InPlaceActivate@CComControlBase@ATL@@QAEJJPBUtagRECT@@@Z 10007819 f i LineDisplay.obj
 0001:00006a8a       ?Init@?$CComEnumImpl@UIEnumConnectionPoints@@$1?_GUID_b196b285_bab4_101a_b69c_00aa00341d07@@3U__s_GUID@@BPAUIConnectionPoint@@V?$_CopyInterface@UIConnectionPoint@@@ATL@@@ATL@@QAEJPAPAUIConnectionPoint@@0PAUIUnknown@@W4CComEnumFlags@2@@Z 10007a8a f i LineDisplay.obj
 0001:00006b69       ?Init@?$CComEnumImpl@UIEnumConnections@@$1?_GUID_b196b287_bab4_101a_b69c_00aa00341d07@@3U__s_GUID@@BUtagCONNECTDATA@@V?$_Copy@UtagCONNECTDATA@@@ATL@@@ATL@@QAEJPAUtagCONNECTDATA@@0PAUIUnknown@@W4CComEnumFlags@2@@Z 10007b69 f i LineDisplay.obj
 0001:00006c48       ?Init@CComModule@ATL@@QAEJPAU_ATL_OBJMAP_ENTRY30@2@PAUHINSTANCE__@@PBU_GUID@@@Z 10007c48 f i LineDisplay.obj
 0001:00006ca7       ?Init@CDynamicStdCallThunk2@ATL@@QAEHKPAX@Z 10007ca7 f i LineDisplay.obj
 0001:00006cd2       ?InlineIsEqualUnknown@ATL@@YGHABU_GUID@@@Z 10007cd2 f i LineDisplay.obj
 0001:00006cfa       ?InternalSetAtIndex@?$CSimpleMap@PA_WPA_WVCExpansionVectorEqualHelper@ATL@@@ATL@@QAEXHABQA_W0@Z 10007cfa f i LineDisplay.obj
 0001:00006d24       ?Invoke@CComTypeInfoHolder@ATL@@QAEJPAUIDispatch@@JABU_GUID@@KGPAUtagDISPPARAMS@@PAUtagVARIANT@@PAUtagEXCEPINFO@@PAI@Z 10007d24 f i LineDisplay.obj
 0001:00006d67       ?IsEqualObject@?$CComPtrBase@UITypeInfo@@@ATL@@QAE_NPAUIUnknown@@@Z 10007d67 f i LineDisplay.obj
 0001:00006d67       ?IsEqualObject@?$CComPtrBase@UIOleClientSite@@@ATL@@QAE_NPAUIUnknown@@@Z 10007d67 f i LineDisplay.obj
 0001:00006dd4       ?IsSpace@CRegParser@ATL@@IAEH_W@Z 10007dd4 f i LineDisplay.obj
 0001:00006dfe       ?LoadNameCache@CComTypeInfoHolder@ATL@@QAEJPAUITypeInfo@@@Z 10007dfe f i LineDisplay.obj
 0001:00006f4a       ?Lookup@?$CSimpleMap@PA_WPA_WVCExpansionVectorEqualHelper@ATL@@@ATL@@QBEPA_WABQA_W@Z 10007f4a f i LineDisplay.obj
 0001:00006f70       ?NextToken@CRegParser@ATL@@IAEJPA_W@Z 10007f70 f i LineDisplay.obj
 0001:000070a8       ?OnKillFocus@CComControlBase@ATL@@QAEJIIJAAH@Z 100080a8 f i LineDisplay.obj
 0001:00007103       ?OnMouseActivate@CComControlBase@ATL@@QAEJIIJAAH@Z 10008103 f i LineDisplay.obj
 0001:00007171       ?OnPaint@CComControlBase@ATL@@QAEJIIJAAH@Z 10008171 f i LineDisplay.obj
 0001:00007223       ?OnSetFocus@CComControlBase@ATL@@QAEJIIJAAH@Z 10008223 f i LineDisplay.obj
 0001:000072ac       ?Open@CRegKey@ATL@@QAEJPAUHKEY__@@PB_WK@Z 100082ac f i LineDisplay.obj
 0001:00007301       ?PreProcessBuffer@CRegParser@ATL@@QAEJPA_WPAPA_W@Z 10008301 f i LineDisplay.obj
 0001:0000756b       ?ProcessWindowMessage@?$CComControl@VCOPOSLineDisplay@@V?$CWindowImpl@VCOPOSLineDisplay@@VCWindow@ATL@@V?$CWinTraits@$0FGAAAAAA@$0A@@3@@ATL@@@ATL@@UAEHPAUHWND__@@IIJAAJK@Z 1000856b f i LineDisplay.obj
 0001:0000760a       ?ReadFromStream@CComBSTR@ATL@@QAEJPAUIStream@@@Z 1000860a f i LineDisplay.obj
 0001:00007738       ?ReadFromStream@CComVariant@ATL@@QAEJPAUIStream@@GTClassesAllowedInStream@2@K@Z 10008738 f i LineDisplay.obj
 0001:000078be       ?RecurseDeleteKey@CRegKey@ATL@@QAEJPB_W@Z 100088be f i LineDisplay.obj
 0001:000079ac       ?RegCreateKeyExW@CAtlTransactionManager@ATL@@QAEJPAUHKEY__@@PB_WKPA_WKKQAU_SECURITY_ATTRIBUTES@@PAPAU3@PAK@Z 100089ac f i LineDisplay.obj
 0001:00007a0f       ?RegDeleteKeyW@CAtlTransactionManager@ATL@@QAEJPAUHKEY__@@PB_W@Z 10008a0f f i LineDisplay.obj
 0001:00007a61       ?RegOpenKeyExW@CAtlTransactionManager@ATL@@QAEJPAUHKEY__@@PB_WKKPAPAU3@@Z 10008a61 f i LineDisplay.obj
 0001:00007ab8       ?Register@_ATL_WNDCLASSINFOW@ATL@@QAEGPAP6GJPAUHWND__@@IIJ@Z@Z 10008ab8 f i LineDisplay.obj
 0001:00007ad8       ?RegisterBuffer@CRegParser@ATL@@QAEJPA_WH@Z 10008ad8 f i LineDisplay.obj
 0001:00007c11       ?RegisterFromResource@CRegObject@ATL@@IAEJPB_W00H@Z 10008c11 f i LineDisplay.obj
 0001:00007d47       ?RegisterServer@?$CAtlModuleT@VCComModule@ATL@@@ATL@@QAEJHPBU_GUID@@@Z 10008d47 f i LineDisplay.obj
 0001:00007d75       ?RegisterServer@CComModule@ATL@@QAEJHPBU_GUID@@@Z 10008d75 f i LineDisplay.obj
 0001:00007deb       ?RegisterSubkeys@CRegParser@ATL@@IAEJPA_WPAUHKEY__@@HH@Z 10008deb f i LineDisplay.obj
 0001:00008492       ?Remove@CComDynamicUnkArray@ATL@@QAEHK@Z 10009492 f i LineDisplay.obj
 0001:000084bb       ?RemoveAll@?$CSimpleMap@PA_WPA_WVCExpansionVectorEqualHelper@ATL@@@ATL@@QAEXXZ 100094bb f i LineDisplay.obj
 0001:000084e7       ?ResourceRegisterSz@CRegObject@ATL@@QAGJPB_W00@Z 100094e7 f i LineDisplay.obj
 0001:00008514       ?ResourceUnregisterSz@CRegObject@ATL@@QAGJPB_W00@Z 10009514 f i LineDisplay.obj
 0001:00008541       ?SendOnDataChange@CComControlBase@ATL@@QAEJK@Z 10009541 f i LineDisplay.obj
 0001:0000858e       ?SetControlFocus@CComControlBase@ATL@@QAEHH@Z 1000958e f i LineDisplay.obj
 0001:0000862b       ?SetMultiStringValue@CRegKey@ATL@@QAEJPB_W0@Z 1000962b f i LineDisplay.obj
 0001:00008687       ?SetStringValue@CRegKey@ATL@@QAEJPB_W0K@Z 10009687 f i LineDisplay.obj
 0001:000086d0       ?SkipAssignment@CRegParser@ATL@@IAEJPA_W@Z 100096d0 f i LineDisplay.obj
 0001:00008735       ?SkipWhiteSpace@CRegParser@ATL@@IAEXXZ 10009735 f i LineDisplay.obj
 0001:00008757       ?StrChrW@CRegParser@ATL@@KAPA_WPA_W_W@Z 10009757 f i LineDisplay.obj
 0001:00008794       ?Term@CAtlModule@ATL@@QAEXXZ 10009794 f i LineDisplay.obj
 0001:000087e7       ?Term@CComModule@ATL@@QAEXXZ 100097e7 f i LineDisplay.obj
 0001:0000883f       ?UnregisterServer@?$CAtlModuleT@VCComModule@ATL@@@ATL@@QAEJHPBU_GUID@@@Z 1000983f f i LineDisplay.obj
 0001:00008865       ?UnregisterServer@CComModule@ATL@@QAEJHPBU_GUID@@@Z 10009865 f i LineDisplay.obj
 0001:000088db       ?UpdateRegistryFromResource@CAtlModule@ATL@@QAGJIHPAU_ATL_REGMAP_ENTRY@2@@Z 100098db f i LineDisplay.obj
 0001:00008aa6       ?UpdateRegistryFromResource@CAtlModule@ATL@@QAGJPB_WHPAU_ATL_REGMAP_ENTRY@2@@Z 10009aa6 f i LineDisplay.obj
 0001:00008c77       ?VTFromRegType@CRegParser@ATL@@KAHPB_WAAG@Z 10009c77 f i LineDisplay.obj
 0001:00008ce4       ?WindowProc@?$CWindowImplBaseT@VCWindow@ATL@@V?$CWinTraits@$0FGAAAAAA@$0A@@2@@ATL@@SGJPAUHWND__@@IIJ@Z 10009ce4 f i LineDisplay.obj
 0001:00008dd6       ?WriteToStream@CComBSTR@ATL@@QAEJPAUIStream@@@Z 10009dd6 f i LineDisplay.obj
 0001:00008e38       ?WriteToStream@CComVariant@ATL@@QAEJPAUIStream@@@Z 10009e38 f i LineDisplay.obj
 0001:00008fb2       ?WriteToStream@CComVariant@ATL@@QAEJPAUIStream@@G@Z 10009fb2 f i LineDisplay.obj
 0001:0000901b       ?_AtlInitialConstruct@?$CComObjectRootEx@VCComMultiThreadModel@ATL@@@ATL@@QAEJXZ 1000a01b f i LineDisplay.obj
 0001:00009030       ?_AtlVerifyStackAvailable@_ATL_SAFE_ALLOCA_IMPL@ATL@@YA_NK@Z 1000a030 f i LineDisplay.obj
 0001:000090ae       ?atlCreate@?$CWindowImpl@VCOPOSLineDisplay@@VCWindow@ATL@@V?$CWinTraits@$0FGAAAAAA@$0A@@3@@ATL@@QAEPAUHWND__@@PAU3@V_U_RECT@2@PB_WKKV_U_MENUorID@2@PAX@Z 1000a0ae f i LineDisplay.obj
 0001:000090f2       ?atlCreate@?$CWindowImplBaseT@VCWindow@ATL@@V?$CWinTraits@$0FGAAAAAA@$0A@@2@@ATL@@QAEPAUHWND__@@PAU3@V_U_RECT@2@PB_WKKV_U_MENUorID@2@GPAX@Z 1000a0f2 f i LineDisplay.obj
 0001:0000918e       ?copy@?$_Copy@UtagCONNECTDATA@@@ATL@@SAJPAUtagCONNECTDATA@@PBU3@@Z 1000a18e f i LineDisplay.obj
 0001:000091c4       ?copy@?$_CopyInterface@UIConnectionPoint@@@ATL@@SAJPAPAUIConnectionPoint@@PBQAU3@@Z 1000a1c4 f i LineDisplay.obj
 0001:000091f2       ?memcpy_s@Checked@ATL@@YAXPAXIPBXI@Z 1000a1f2 f i LineDisplay.obj
 0001:00009211       ?ocscpy_s@@YA_NPA_WIPB_W@Z 1000a211 f i LineDisplay.obj
 0001:0000925b       ?wcscpy_s@Checked@ATL@@YAXPA_WIPB_W@Z 1000a25b f i LineDisplay.obj
 0001:00009277       _DllCanUnloadNow@0         1000a277 f   LineDisplay.obj
 0001:00009283       _DllGetClassObject@12      1000a283 f   LineDisplay.obj
 0001:00009291       _DllMain@12                1000a291 f   LineDisplay.obj
 0001:000092d3       _DllRegisterServer@0       1000a2d3 f   LineDisplay.obj
 0001:000092e2       _DllUnregisterServer@0     1000a2e2 f   LineDisplay.obj
 0001:000092f1       _InlineIsEqualGUID         1000a2f1 f i LineDisplay.obj
 0001:00009321       ___local_stdio_printf_options 1000a321 f i LineDisplay.obj
 0001:00009327       __vswprintf_s_l            1000a327 f i LineDisplay.obj
 0001:000093d4       _swprintf_s                1000a3d4 f i LineDisplay.obj
 0001:000093f0       ??0?$CComControl@VCOPOSLineDisplay@@V?$CWindowImpl@VCOPOSLineDisplay@@VCWindow@ATL@@V?$CWinTraits@$0FGAAAAAA@$0A@@3@@ATL@@@ATL@@QAE@XZ 1000a3f0 f i LineDisplayImpl.obj
 0001:00009417       ??0CComControlBase@ATL@@QAE@AAPAUHWND__@@@Z 1000a417 f i LineDisplayImpl.obj
 0001:00009461       ??0COPOSLineDisplay@@QAE@XZ 1000a461 f   LineDisplayImpl.obj
 0001:000094b0       ??1?$CComControl@VCOPOSLineDisplay@@V?$CWindowImpl@VCOPOSLineDisplay@@VCWindow@ATL@@V?$CWinTraits@$0FGAAAAAA@$0A@@3@@ATL@@@ATL@@UAE@XZ 1000a4b0 f i LineDisplayImpl.obj
 0001:000094c9       ??1?$IConnectionPointImpl@VCOPOSLineDisplay@@$1?IID_IPropertyNotifySink@@3U_GUID@@BVCComDynamicUnkArray@ATL@@@ATL@@QAE@XZ 1000a4c9 f i LineDisplayImpl.obj
 0001:000094c9       ??1?$IConnectionPointImpl@VCOPOSLineDisplay@@$1?DIID__IOPOSLineDisplayEvents@@3U_GUID@@BVCComDynamicUnkArray@ATL@@@ATL@@QAE@XZ 1000a4c9 f i LineDisplayImpl.obj
 0001:00009506       ??1CComControlBase@ATL@@UAE@XZ 1000a506 f i LineDisplayImpl.obj
 0001:00009569       ??1COPOSLineDisplay@@UAE@XZ 1000a569 f   LineDisplayImpl.obj
 0001:000095b1       ?CheckHealth@COPOSLineDisplay@@UAGJJPAJ@Z 1000a5b1 f   LineDisplayImpl.obj
 0001:00009600       ?ClaimDevice@COPOSLineDisplay@@UAGJJPAJ@Z 1000a600 f   LineDisplayImpl.obj
 0001:00009675       ?ClearDescriptors@COPOSLineDisplay@@UAGJPAJ@Z 1000a675 f   LineDisplayImpl.obj
 0001:00009690       ?ClearText@COPOSLineDisplay@@UAGJPAJ@Z 1000a690 f   LineDisplayImpl.obj
 0001:000096ab       ?Close@COPOSLineDisplay@@UAGJPAJ@Z 1000a6ab f   LineDisplayImpl.obj
 0001:00009719       ?CompareFirmwareVersion@COPOSLineDisplay@@UAGJPA_WPAJ1@Z 1000a719 f   LineDisplayImpl.obj
 0001:00009799       ?CreateWindow@COPOSLineDisplay@@UAGJJJJJJJPAJ@Z 1000a799 f   LineDisplayImpl.obj
 0001:0000985c       ?DefineGlyph@COPOSLineDisplay@@UAGJJPA_WPAJ@Z 1000a85c f   LineDisplayImpl.obj
 0001:000098d8       ?DestroyWindow@COPOSLineDisplay@@UAGJPAJ@Z 1000a8d8 f   LineDisplayImpl.obj
 0001:000098f3       ?DirectIO@COPOSLineDisplay@@UAGJJPAJPAPA_W0@Z 1000a8f3 f   LineDisplayImpl.obj
 0001:000099a1       ?DisplayBitmap@COPOSLineDisplay@@UAGJPA_WJJJPAJ@Z 1000a9a1 f   LineDisplayImpl.obj
 0001:00009a50       ?DisplayText@COPOSLineDisplay@@UAGJPA_WJPAJ@Z 1000aa50 f   LineDisplayImpl.obj
 0001:00009acc       ?DisplayTextAt@COPOSLineDisplay@@UAGJJJPA_WJPAJ@Z 1000aacc f   LineDisplayImpl.obj
 0001:00009b7b       ?DoInvoke@COPOSLineDisplay@@IAEJJPAVOposVariant@@IHPAJ_N@Z 1000ab7b f   LineDisplayImpl.obj
 0001:00009c57       ?EventClose@COPOSLineDisplay@@IAEXXZ 1000ac57 f i LineDisplayImpl.obj
 0001:00009c8a       ?EventInit@COPOSLineDisplay@@IAEJXZ 1000ac8a f i LineDisplayImpl.obj
 0001:00009d56       ?EventUninit@COPOSLineDisplay@@IAEXXZ 1000ad56 f i LineDisplayImpl.obj
 0001:00009da8       ?EventWindowProc@COPOSLineDisplay@@IAGJIIJ@Z 1000ada8 f i LineDisplayImpl.obj
 0001:00009e1f       ?FinalConstruct@COPOSLineDisplay@@QAEJXZ 1000ae1f f   LineDisplayImpl.obj
 0001:00009e58       ?FireEventCleanup@COPOSLineDisplay@@IAEXXZ 1000ae58 f i LineDisplayImpl.obj
 0001:00009e6e       ?FireEventSetup@COPOSLineDisplay@@IAE_NXZ 1000ae6e f i LineDisplayImpl.obj
 0001:00009ea2       ?FreezeEvents@COPOSLineDisplay@@MAGJH@Z 1000aea2 f   LineDisplayImpl.obj
 0001:00009ef3       ?GetOposProp@COPOSLineDisplay@@IAEJJPAFJ@Z 1000aef3 f   LineDisplayImpl.obj
 0001:00009f16       ?GetOposProp@COPOSLineDisplay@@IAEJJPAJJ@Z 1000af16 f   LineDisplayImpl.obj
 0001:00009fe5       ?GetOposProp@COPOSLineDisplay@@IAEJJPAPA_WJ@Z 1000afe5 f   LineDisplayImpl.obj
 0001:0000a0c1       ?OnDraw@COPOSLineDisplay@@MAEJAAUATL_DRAWINFO@@@Z 1000b0c1 f   LineDisplayImpl.obj
 0001:0000a161       ?Open@COPOSLineDisplay@@UAGJPA_WPAJ@Z 1000b161 f   LineDisplayImpl.obj
 0001:0000a9a1       ?ReadCharacterAtCursor@COPOSLineDisplay@@UAGJPAJ0@Z 1000b9a1 f   LineDisplayImpl.obj
 0001:0000a9f8       ?RefreshWindow@COPOSLineDisplay@@UAGJJPAJ@Z 1000b9f8 f   LineDisplayImpl.obj
 0001:0000aa47       ?ReleaseDevice@COPOSLineDisplay@@UAGJPAJ@Z 1000ba47 f   LineDisplayImpl.obj
 0001:0000aa96       ?ResetStatistics@COPOSLineDisplay@@UAGJPA_WPAJ@Z 1000ba96 f   LineDisplayImpl.obj
 0001:0000aaed       ?RetrieveStatistics@COPOSLineDisplay@@UAGJPAPA_WPAJ@Z 1000baed f   LineDisplayImpl.obj
 0001:0000ab44       ?SOProcessID@COPOSLineDisplay@@UAGJPAJ@Z 1000bb44 f   LineDisplayImpl.obj
 0001:0000ab58       ?ScrollText@COPOSLineDisplay@@UAGJJJPAJ@Z 1000bb58 f   LineDisplayImpl.obj
 0001:0000abcc       ?SetBitmap@COPOSLineDisplay@@UAGJJPA_WJJJPAJ@Z 1000bbcc f   LineDisplayImpl.obj
 0001:0000ac8f       ?SetCOFreezeEvents@COPOSLineDisplay@@IAEXF@Z 1000bc8f f   LineDisplayImpl.obj
 0001:0000ad2f       ?SetDescriptor@COPOSLineDisplay@@UAGJJJPAJ@Z 1000bd2f f   LineDisplayImpl.obj
 0001:0000ada3       ?SetOposProp@COPOSLineDisplay@@IAEJJJJ@Z 1000bda3 f   LineDisplayImpl.obj
 0001:0000ae9a       ?UpdateFirmware@COPOSLineDisplay@@UAGJPA_WPAJ@Z 1000be9a f   LineDisplayImpl.obj
 0001:0000aef1       ?UpdateStatistics@COPOSLineDisplay@@UAGJPA_WPAJ@Z 1000bef1 f   LineDisplayImpl.obj
 0001:0000af48       ?get_BinaryConversion@COPOSLineDisplay@@UAGJPAJ@Z 1000bf48 f   LineDisplayImpl.obj
 0001:0000af5e       ?get_BlinkRate@COPOSLineDisplay@@UAGJPAJ@Z 1000bf5e f   LineDisplayImpl.obj
 0001:0000af77       ?get_CapBitmap@COPOSLineDisplay@@UAGJPAF@Z 1000bf77 f   LineDisplayImpl.obj
 0001:0000af90       ?get_CapBlink@COPOSLineDisplay@@UAGJPAJ@Z 1000bf90 f   LineDisplayImpl.obj
 0001:0000afa9       ?get_CapBlinkRate@COPOSLineDisplay@@UAGJPAF@Z 1000bfa9 f   LineDisplayImpl.obj
 0001:0000afc2       ?get_CapBrightness@COPOSLineDisplay@@UAGJPAF@Z 1000bfc2 f   LineDisplayImpl.obj
 0001:0000afdb       ?get_CapCharacterSet@COPOSLineDisplay@@UAGJPAJ@Z 1000bfdb f   LineDisplayImpl.obj
 0001:0000aff4       ?get_CapCompareFirmwareVersion@COPOSLineDisplay@@UAGJPAF@Z 1000bff4 f   LineDisplayImpl.obj
 0001:0000b00d       ?get_CapCursorType@COPOSLineDisplay@@UAGJPAJ@Z 1000c00d f   LineDisplayImpl.obj
 0001:0000b026       ?get_CapCustomGlyph@COPOSLineDisplay@@UAGJPAF@Z 1000c026 f   LineDisplayImpl.obj
 0001:0000b03f       ?get_CapDescriptors@COPOSLineDisplay@@UAGJPAF@Z 1000c03f f   LineDisplayImpl.obj
 0001:0000b058       ?get_CapHMarquee@COPOSLineDisplay@@UAGJPAF@Z 1000c058 f   LineDisplayImpl.obj
 0001:0000b071       ?get_CapICharWait@COPOSLineDisplay@@UAGJPAF@Z 1000c071 f   LineDisplayImpl.obj
 0001:0000b08a       ?get_CapMapCharacterSet@COPOSLineDisplay@@UAGJPAF@Z 1000c08a f   LineDisplayImpl.obj
 0001:0000b0a3       ?get_CapPowerReporting@COPOSLineDisplay@@UAGJPAJ@Z 1000c0a3 f   LineDisplayImpl.obj
 0001:0000b0bc       ?get_CapReadBack@COPOSLineDisplay@@UAGJPAJ@Z 1000c0bc f   LineDisplayImpl.obj
 0001:0000b0d5       ?get_CapReverse@COPOSLineDisplay@@UAGJPAJ@Z 1000c0d5 f   LineDisplayImpl.obj
 0001:0000b0ee       ?get_CapScreenMode@COPOSLineDisplay@@UAGJPAF@Z 1000c0ee f   LineDisplayImpl.obj
 0001:0000b107       ?get_CapStatisticsReporting@COPOSLineDisplay@@UAGJPAF@Z 1000c107 f   LineDisplayImpl.obj
 0001:0000b120       ?get_CapUpdateFirmware@COPOSLineDisplay@@UAGJPAF@Z 1000c120 f   LineDisplayImpl.obj
 0001:0000b139       ?get_CapUpdateStatistics@COPOSLineDisplay@@UAGJPAF@Z 1000c139 f   LineDisplayImpl.obj
 0001:0000b152       ?get_CapVMarquee@COPOSLineDisplay@@UAGJPAF@Z 1000c152 f   LineDisplayImpl.obj
 0001:0000b16b       ?get_CharacterSet@COPOSLineDisplay@@UAGJPAJ@Z 1000c16b f   LineDisplayImpl.obj
 0001:0000b184       ?get_CharacterSetList@COPOSLineDisplay@@UAGJPAPA_W@Z 1000c184 f   LineDisplayImpl.obj
 0001:0000b19d       ?get_CheckHealthText@COPOSLineDisplay@@UAGJPAPA_W@Z 1000c19d f   LineDisplayImpl.obj
 0001:0000b1b6       ?get_Claimed@COPOSLineDisplay@@UAGJPAF@Z 1000c1b6 f   LineDisplayImpl.obj
 0001:0000b1cc       ?get_Columns@COPOSLineDisplay@@UAGJPAJ@Z 1000c1cc f   LineDisplayImpl.obj
 0001:0000b1e5       ?get_ControlObjectDescription@COPOSLineDisplay@@UAGJPAPA_W@Z 1000c1e5 f   LineDisplayImpl.obj
 0001:0000b233       ?get_ControlObjectVersion@COPOSLineDisplay@@UAGJPAJ@Z 1000c233 f   LineDisplayImpl.obj
 0001:0000b246       ?get_CurrentWindow@COPOSLineDisplay@@UAGJPAJ@Z 1000c246 f   LineDisplayImpl.obj
 0001:0000b25f       ?get_CursorColumn@COPOSLineDisplay@@UAGJPAJ@Z 1000c25f f   LineDisplayImpl.obj
 0001:0000b278       ?get_CursorRow@COPOSLineDisplay@@UAGJPAJ@Z 1000c278 f   LineDisplayImpl.obj
 0001:0000b291       ?get_CursorType@COPOSLineDisplay@@UAGJPAJ@Z 1000c291 f   LineDisplayImpl.obj
 0001:0000b2aa       ?get_CursorUpdate@COPOSLineDisplay@@UAGJPAF@Z 1000c2aa f   LineDisplayImpl.obj
 0001:0000b2c3       ?get_CustomGlyphList@COPOSLineDisplay@@UAGJPAPA_W@Z 1000c2c3 f   LineDisplayImpl.obj
 0001:0000b2dc       ?get_DeviceBrightness@COPOSLineDisplay@@UAGJPAJ@Z 1000c2dc f   LineDisplayImpl.obj
 0001:0000b2f5       ?get_DeviceColumns@COPOSLineDisplay@@UAGJPAJ@Z 1000c2f5 f   LineDisplayImpl.obj
 0001:0000b30e       ?get_DeviceDescription@COPOSLineDisplay@@UAGJPAPA_W@Z 1000c30e f   LineDisplayImpl.obj
 0001:0000b327       ?get_DeviceDescriptors@COPOSLineDisplay@@UAGJPAJ@Z 1000c327 f   LineDisplayImpl.obj
 0001:0000b340       ?get_DeviceEnabled@COPOSLineDisplay@@UAGJPAF@Z 1000c340 f   LineDisplayImpl.obj
 0001:0000b356       ?get_DeviceName@COPOSLineDisplay@@UAGJPAPA_W@Z 1000c356 f   LineDisplayImpl.obj
 0001:0000b36f       ?get_DeviceRows@COPOSLineDisplay@@UAGJPAJ@Z 1000c36f f   LineDisplayImpl.obj
 0001:0000b388       ?get_DeviceWindows@COPOSLineDisplay@@UAGJPAJ@Z 1000c388 f   LineDisplayImpl.obj
 0001:0000b3a1       ?get_FreezeEvents@COPOSLineDisplay@@UAGJPAF@Z 1000c3a1 f   LineDisplayImpl.obj
 0001:0000b3b7       ?get_GlyphHeight@COPOSLineDisplay@@UAGJPAJ@Z 1000c3b7 f   LineDisplayImpl.obj
 0001:0000b3d0       ?get_GlyphWidth@COPOSLineDisplay@@UAGJPAJ@Z 1000c3d0 f   LineDisplayImpl.obj
 0001:0000b3e9       ?get_InterCharacterWait@COPOSLineDisplay@@UAGJPAJ@Z 1000c3e9 f   LineDisplayImpl.obj
 0001:0000b402       ?get_MapCharacterSet@COPOSLineDisplay@@UAGJPAF@Z 1000c402 f   LineDisplayImpl.obj
 0001:0000b41b       ?get_MarqueeFormat@COPOSLineDisplay@@UAGJPAJ@Z 1000c41b f   LineDisplayImpl.obj
 0001:0000b434       ?get_MarqueeRepeatWait@COPOSLineDisplay@@UAGJPAJ@Z 1000c434 f   LineDisplayImpl.obj
 0001:0000b44d       ?get_MarqueeType@COPOSLineDisplay@@UAGJPAJ@Z 1000c44d f   LineDisplayImpl.obj
 0001:0000b466       ?get_MarqueeUnitWait@COPOSLineDisplay@@UAGJPAJ@Z 1000c466 f   LineDisplayImpl.obj
 0001:0000b47f       ?get_MaximumX@COPOSLineDisplay@@UAGJPAJ@Z 1000c47f f   LineDisplayImpl.obj
 0001:0000b498       ?get_MaximumY@COPOSLineDisplay@@UAGJPAJ@Z 1000c498 f   LineDisplayImpl.obj
 0001:0000b4b1       ?get_OpenResult@COPOSLineDisplay@@UAGJPAJ@Z 1000c4b1 f   LineDisplayImpl.obj
 0001:0000b4c8       ?get_PowerNotify@COPOSLineDisplay@@UAGJPAJ@Z 1000c4c8 f   LineDisplayImpl.obj
 0001:0000b4de       ?get_PowerState@COPOSLineDisplay@@UAGJPAJ@Z 1000c4de f   LineDisplayImpl.obj
 0001:0000b4f4       ?get_ResultCode@COPOSLineDisplay@@UAGJPAJ@Z 1000c4f4 f   LineDisplayImpl.obj
 0001:0000b532       ?get_ResultCodeExtended@COPOSLineDisplay@@UAGJPAJ@Z 1000c532 f   LineDisplayImpl.obj
 0001:0000b548       ?get_Rows@COPOSLineDisplay@@UAGJPAJ@Z 1000c548 f   LineDisplayImpl.obj
 0001:0000b561       ?get_ScreenMode@COPOSLineDisplay@@UAGJPAJ@Z 1000c561 f   LineDisplayImpl.obj
 0001:0000b57a       ?get_ScreenModeList@COPOSLineDisplay@@UAGJPAPA_W@Z 1000c57a f   LineDisplayImpl.obj
 0001:0000b593       ?get_ServiceObjectDescription@COPOSLineDisplay@@UAGJPAPA_W@Z 1000c593 f   LineDisplayImpl.obj
 0001:0000b5ac       ?get_ServiceObjectVersion@COPOSLineDisplay@@UAGJPAJ@Z 1000c5ac f   LineDisplayImpl.obj
 0001:0000b5c2       ?get_State@COPOSLineDisplay@@UAGJPAJ@Z 1000c5c2 f   LineDisplayImpl.obj
 0001:0000b5ee       ?put_BinaryConversion@COPOSLineDisplay@@UAGJJ@Z 1000c5ee f   LineDisplayImpl.obj
 0001:0000b604       ?put_BlinkRate@COPOSLineDisplay@@UAGJJ@Z 1000c604 f   LineDisplayImpl.obj
 0001:0000b61d       ?put_CharacterSet@COPOSLineDisplay@@UAGJJ@Z 1000c61d f   LineDisplayImpl.obj
 0001:0000b636       ?put_CurrentWindow@COPOSLineDisplay@@UAGJJ@Z 1000c636 f   LineDisplayImpl.obj
 0001:0000b64f       ?put_CursorColumn@COPOSLineDisplay@@UAGJJ@Z 1000c64f f   LineDisplayImpl.obj
 0001:0000b668       ?put_CursorRow@COPOSLineDisplay@@UAGJJ@Z 1000c668 f   LineDisplayImpl.obj
 0001:0000b681       ?put_CursorType@COPOSLineDisplay@@UAGJJ@Z 1000c681 f   LineDisplayImpl.obj
 0001:0000b69a       ?put_CursorUpdate@COPOSLineDisplay@@UAGJF@Z 1000c69a f   LineDisplayImpl.obj
 0001:0000b6ba       ?put_DeviceBrightness@COPOSLineDisplay@@UAGJJ@Z 1000c6ba f   LineDisplayImpl.obj
 0001:0000b6d3       ?put_DeviceEnabled@COPOSLineDisplay@@UAGJF@Z 1000c6d3 f   LineDisplayImpl.obj
 0001:0000b6f0       ?put_FreezeEvents@COPOSLineDisplay@@UAGJF@Z 1000c6f0 f   LineDisplayImpl.obj
 0001:0000b73c       ?put_InterCharacterWait@COPOSLineDisplay@@UAGJJ@Z 1000c73c f   LineDisplayImpl.obj
 0001:0000b755       ?put_MapCharacterSet@COPOSLineDisplay@@UAGJF@Z 1000c755 f   LineDisplayImpl.obj
 0001:0000b775       ?put_MarqueeFormat@COPOSLineDisplay@@UAGJJ@Z 1000c775 f   LineDisplayImpl.obj
 0001:0000b78e       ?put_MarqueeRepeatWait@COPOSLineDisplay@@UAGJJ@Z 1000c78e f   LineDisplayImpl.obj
 0001:0000b7a7       ?put_MarqueeType@COPOSLineDisplay@@UAGJJ@Z 1000c7a7 f   LineDisplayImpl.obj
 0001:0000b7c0       ?put_MarqueeUnitWait@COPOSLineDisplay@@UAGJJ@Z 1000c7c0 f   LineDisplayImpl.obj
 0001:0000b7d9       ?put_PowerNotify@COPOSLineDisplay@@UAGJJ@Z 1000c7d9 f   LineDisplayImpl.obj
 0001:0000b7ef       ?put_ScreenMode@COPOSLineDisplay@@UAGJJ@Z 1000c7ef f   LineDisplayImpl.obj
 0001:0000b808       ?s_EventWindowProc@COPOSLineDisplay@@KGJPAUHWND__@@IIJ@Z 1000c808 f i LineDisplayImpl.obj
 0001:0000b85a       ??_U@YAPAXI@Z              1000c85a f   LIBCMT:new_array.obj
 0001:0000b863       ??3@YAXPAXI@Z              1000c863 f   LIBCMT:delete_scalar_size.obj
 0001:0000b871       ??_V@YAXPAX@Z              1000c871 f   LIBCMT:delete_array.obj
 0001:0000b876       ??_V@YAXPAXI@Z             1000c876 f   LIBCMT:delete_array_size.obj
 0001:0000b8c8       ___scrt_acquire_startup_lock 1000c8c8 f   LIBCMT:utility.obj
 0001:0000b8fa       ___scrt_dllmain_after_initialize_c 1000c8fa f   LIBCMT:utility.obj
 0001:0000b925       ___scrt_dllmain_before_initialize_c 1000c925 f   LIBCMT:utility.obj
 0001:0000b933       ___scrt_dllmain_crt_thread_attach 1000c933 f   LIBCMT:utility.obj
 0001:0000b952       ___scrt_dllmain_crt_thread_detach 1000c952 f   LIBCMT:utility.obj
 0001:0000b95f       ___scrt_dllmain_exception_filter 1000c95f f   LIBCMT:utility.obj
 0001:0000b993       ___scrt_dllmain_uninitialize_c 1000c993 f   LIBCMT:utility.obj
 0001:0000b9b6       ___scrt_dllmain_uninitialize_critical 1000c9b6 f   LIBCMT:utility.obj
 0001:0000b9c3       ___scrt_initialize_crt     1000c9c3 f   LIBCMT:utility.obj
 0001:0000b9fc       ___scrt_initialize_onexit_tables 1000c9fc f   LIBCMT:utility.obj
 0001:0000ba83       ___scrt_is_nonwritable_in_current_image 1000ca83 f   LIBCMT:utility.obj
 0001:0000bb17       ___scrt_release_startup_lock 1000cb17 f   LIBCMT:utility.obj
 0001:0000bb34       ___scrt_uninitialize_crt   1000cb34 f   LIBCMT:utility.obj
 0001:0000bb5c       __onexit                   1000cb5c f   LIBCMT:utility.obj
 0001:0000bb89       _atexit                    1000cb89 f   LIBCMT:utility.obj
 0001:0000bb9e       ??3@YAXPAX@Z               1000cb9e f   LIBCMT:delete_scalar.obj
 0001:0000bc68       __Init_thread_footer       1000cc68 f   LIBCMT:thread_safe_statics.obj
 0001:0000bcb2       __Init_thread_header       1000ccb2 f   LIBCMT:thread_safe_statics.obj
 0001:0000bd04       __Init_thread_notify       1000cd04 f   LIBCMT:thread_safe_statics.obj
 0001:0000bd3a       __Init_thread_wait         1000cd3a f   LIBCMT:thread_safe_statics.obj
 0001:0000bd88       ___raise_securityfailure   1000cd88 f   LIBCMT:gs_report.obj
 0001:0000bdb0       ___report_gsfailure        1000cdb0 f   LIBCMT:gs_report.obj
 0001:0000bea9       ___report_rangecheckfailure 1000cea9 f   LIBCMT:gs_report.obj
 0001:0000beb5       ___report_securityfailure  1000ceb5 f   LIBCMT:gs_report.obj
 0001:0000bf83       ??2@YAPAXIABUnothrow_t@std@@@Z 1000cf83 f   LIBCMT:new_scalar_nothrow.obj
 0001:0000bfd3       ??_U@YAPAXIABUnothrow_t@std@@@Z 1000cfd3 f   LIBCMT:new_array_nothrow.obj
 0001:0000bfdc       @__security_check_cookie@4 1000cfdc f   LIBCMT:secchk.obj
 0001:0000bff0       __SEH_prolog4_GS           1000cff0 f   LIBCMT:sehprolg4gs.obj
 0001:0000c039       __SEH_epilog4_GS           1000d039 f   LIBCMT:sehprolg4gs.obj
 0001:0000c050       __alloca_probe_16          1000d050 f   LIBCMT:alloca16.obj
 0001:0000c066       __alloca_probe_8           1000d066     LIBCMT:alloca16.obj
 0001:0000c080       __chkstk                   1000d080 f   LIBCMT:chkstk.obj
 0001:0000c080       __alloca_probe             1000d080 f   LIBCMT:chkstk.obj
 0001:0000c3e8       __DllMainCRTStartup@12     1000d3e8 f   LIBCMT:dll_dllmain.obj
 0001:0000c40b       ??2@YAPAXI@Z               1000d40b f   LIBCMT:new_scalar.obj
 0001:0000c43b       ___isa_available_init      1000d43b f   LIBCMT:cpu_disp.obj
 0001:0000c60b       ___scrt_is_ucrt_dll_in_use 1000d60b f   LIBCMT:ucrt_detection.obj
 0001:0000c617       ___scrt_fastfail           1000d617 f   LIBCMT:utility_desktop.obj
 0001:0000c731       __crt_debugger_hook        1000d731 f   LIBCMT:utility_desktop.obj
 0001:0000c740       __SEH_prolog4              1000d740 f   LIBCMT:sehprolg4.obj
 0001:0000c786       __SEH_epilog4              1000d786 f   LIBCMT:sehprolg4.obj
 0001:0000c79b       @_guard_check_icall_nop@4  1000d79b f i LIBCMT:guard_support.obj
 0001:0000c7e9       ___security_init_cookie    1000d7e9 f   LIBCMT:gs_support.obj
 0001:0000c834       ?__scrt_initialize_type_info@@YAXXZ 1000d834 f   LIBCMT:tncleanup.obj
 0001:0000c840       ?__scrt_uninitialize_type_info@@YAXXZ 1000d840 f   LIBCMT:tncleanup.obj
 0001:0000c84c       ___local_stdio_scanf_options 1000d84c f i LIBCMT:default_local_stdio_options.obj
 0001:0000c852       ___scrt_initialize_default_local_stdio_options 1000d852 f   LIBCMT:default_local_stdio_options.obj
 0001:0000c86f       ___scrt_get_dyn_tls_init_callback 1000d86f f   LIBCMT:dyn_tls_init.obj
 0001:0000c875       __RTC_Initialize           1000d875 f   LIBCMT:initsect.obj
 0001:0000c8a1       __RTC_Terminate            1000d8a1 f   LIBCMT:initsect.obj
 0001:0000c8cd       ??0bad_alloc@std@@QAE@ABV01@@Z 1000d8cd f i LIBCMT:throw_bad_alloc.obj
 0001:0000c8e8       ??0bad_alloc@std@@QAE@XZ   1000d8e8 f i LIBCMT:throw_bad_alloc.obj
 0001:0000c900       ??0bad_array_new_length@std@@QAE@ABV01@@Z 1000d900 f i LIBCMT:throw_bad_alloc.obj
 0001:0000c91b       ??0bad_array_new_length@std@@QAE@XZ 1000d91b f i LIBCMT:throw_bad_alloc.obj
 0001:0000c933       ??0exception@std@@QAE@ABV01@@Z 1000d933 f i LIBCMT:throw_bad_alloc.obj
 0001:0000c95f       ??1bad_array_new_length@std@@UAE@XZ 1000d95f f i LIBCMT:throw_bad_alloc.obj
 0001:0000c95f       ??1bad_exception@std@@UAE@XZ 1000d95f f i libvcruntime:frame.obj
 0001:0000c95f       ??1bad_alloc@std@@UAE@XZ   1000d95f f i LIBCMT:throw_bad_alloc.obj
 0001:0000c970       ??_Eexception@std@@UAEPAXI@Z 1000d970 f i LIBCMT:throw_bad_alloc.obj
 0001:0000c970       ??_Ebad_exception@std@@UAEPAXI@Z 1000d970 f i libvcruntime:frame.obj
 0001:0000c970       ??_Ebad_array_new_length@std@@UAEPAXI@Z 1000d970 f i LIBCMT:throw_bad_alloc.obj
 0001:0000c970       ??_Gbad_array_new_length@std@@UAEPAXI@Z 1000d970 f i LIBCMT:throw_bad_alloc.obj
 0001:0000c970       ??_Gbad_alloc@std@@UAEPAXI@Z 1000d970 f i LIBCMT:throw_bad_alloc.obj
 0001:0000c970       ??_Gexception@std@@UAEPAXI@Z 1000d970 f i LIBCMT:throw_bad_alloc.obj
 0001:0000c970       ??_Ebad_alloc@std@@UAEPAXI@Z 1000d970 f i LIBCMT:throw_bad_alloc.obj
 0001:0000c970       ??_Gbad_exception@std@@UAEPAXI@Z 1000d970 f i libvcruntime:frame.obj
 0001:0000c99d       ?__scrt_throw_std_bad_alloc@@YAXXZ 1000d99d f   LIBCMT:throw_bad_alloc.obj
 0001:0000c9ba       ?__scrt_throw_std_bad_array_new_length@@YAXXZ 1000d9ba f   LIBCMT:throw_bad_alloc.obj
 0001:0000c9d7       ?what@exception@std@@UBEPBDXZ 1000d9d7 f i LIBCMT:throw_bad_alloc.obj
 0001:0000c9e4       ??_Gtype_info@@UAEPAXI@Z   1000d9e4 f i LIBCMT:std_type_info_static.obj
 0001:0000c9e4       ??_Etype_info@@UAEPAXI@Z   1000d9e4 f i LIBCMT:std_type_info_static.obj
 0001:0000ca07       ??0CAtlBaseModule@ATL@@QAE@XZ 1000da07 f   atls:atlbase.obj
 0001:0000ca5a       ??0_ATL_BASE_MODULE70@ATL@@QAE@XZ 1000da5a f i atls:atlbase.obj
 0001:0000ca7d       ??1CAtlBaseModule@ATL@@QAE@XZ 1000da7d f   atls:atlbase.obj
 0001:0000cb6a       ?Init@_stdcallthunk@ATL@@QAEHKPAX@Z 1000db6a f i atls:atlthunk.obj
 0001:0000cb9f       ?__AllocStdCallThunk_cmn@@YAPAXXZ 1000db9f f   atls:atlthunk.obj
 0001:0000cc65       ?__FreeStdCallThunk_cmn@@YAXPAX@Z 1000dc65 f   atls:atlthunk.obj
 0001:0000cd00       _AtlThunk_AllocateData@0   1000dd00 f   atls:atlthunk.obj
 0001:0000cd65       _AtlThunk_DataToCode@4     1000dd65 f   atls:atlthunk.obj
 0001:0000cdac       _AtlThunk_FreeData@4       1000ddac f   atls:atlthunk.obj
 0001:0000ce02       _AtlThunk_InitData@12      1000de02 f   atls:atlthunk.obj
 0001:0000ce51       __get_purecall_handler     1000de51 f   libvcruntime:purevirt.obj
 0001:0000ce57       __purecall                 1000de57 f   libvcruntime:purevirt.obj
 0001:0000ce73       _wcsstr                    1000de73 f   libvcruntime:wcsstr.obj
 0001:0000d130       __except_handler4          1000e130 f   libvcruntime:chandler4.obj
 0001:0000d28e       _memcmp                    1000e28e f   libvcruntime:memcmp.obj
 0001:0000e240       _memcpy                    1000f240 f   libvcruntime:memcpy.obj
 0001:0000e7c0       _memset                    1000f7c0 f   libvcruntime:memset.obj
 0001:0000e91a       ___vcrt_initialize         1000f91a f   libvcruntime:initialization.obj
 0001:0000e939       ___vcrt_thread_attach      1000f939 f   libvcruntime:initialization.obj
 0001:0000e944       ___vcrt_thread_detach      1000f944 f   libvcruntime:initialization.obj
 0001:0000e94f       ___vcrt_uninitialize       1000f94f f   libvcruntime:initialization.obj
 0001:0000e966       ___vcrt_uninitialize_critical 1000f966 f   libvcruntime:initialization.obj
 0001:0000e96e       ?GetRangeOfTrysToCheck@__FrameHandler3@@SA?AU?$pair@Viterator@TryBlockMap@__FrameHandler3@@V123@@std@@AAVTryBlockMap@1@HPAXPBU_s_FuncInfo@@H@Z 1000f96e f   libvcruntime:trnsctrl.obj
 0001:0000e9de       ?_CallCatchBlock2@@YAPAXPAUEHRegistrationNode@@PBU_s_FuncInfo@@PAXHK@Z 1000f9de f   libvcruntime:trnsctrl.obj
 0001:0000ea3c       ?_CallSETranslator@@YAHPAUEHExceptionRecord@@PAUEHRegistrationNode@@PAX2PBU_s_FuncInfo@@H1@Z 1000fa3c f   libvcruntime:trnsctrl.obj
 0001:0000eb22       ?_JumpToContinuation@@YGXPAXPAUEHRegistrationNode@@@Z 1000fb22 f   libvcruntime:trnsctrl.obj
 0001:0000eb52       ?_UnwindNestedFrames@@YGXPAUEHRegistrationNode@@PAUEHExceptionRecord@@@Z 1000fb52 f   libvcruntime:trnsctrl.obj
 0001:0000eba5       __CatchGuardHandler        1000fba5 f   libvcruntime:trnsctrl.obj
 0001:0000ebd6       __CreateFrameInfo          1000fbd6 f   libvcruntime:trnsctrl.obj
 0001:0000ebfa       __FindAndUnlinkFrame       1000fbfa f   libvcruntime:trnsctrl.obj
 0001:0000ec42       __TranslatorGuardHandler   1000fc42 f   libvcruntime:trnsctrl.obj
 0001:0000ecdf       ___CxxFrameHandler3        1000fcdf f   libvcruntime:trnsctrl.obj
 0001:0000ed15       ___DestructExceptionObject 1000fd15 f   libvcruntime:ehhelpers.obj
 0001:0000edb6       ?_CallMemberFunction0@@YGXQAX0@Z 1000fdb6 f i libvcruntime:ehhelpers.obj
 0001:0000ee1b       __IsExceptionObjectToBeDestroyed 1000fe1b f   libvcruntime:ehhelpers.obj
 0001:0000ee41       ___AdjustPointer           1000fe41 f   libvcruntime:ehhelpers.obj
 0001:0000ee66       ___FrameUnwindFilter       1000fe66 f   libvcruntime:ehhelpers.obj
 0001:0000eebc       ___std_type_info_compare   1000febc f   libvcruntime:std_type_info.obj
 0001:0000eef8       ___std_type_info_destroy_list 1000fef8 f   libvcruntime:std_type_info.obj
 0001:0000ef1b       ___std_exception_copy      1000ff1b f   libvcruntime:std_exception.obj
 0001:0000ef7e       ___std_exception_destroy   1000ff7e f   libvcruntime:std_exception.obj
 0001:0000ef9d       __CxxThrowException@8      1000ff9d f   libvcruntime:throw.obj
 0001:0000f010       _memmove                   10010010 f   libvcruntime:memmove.obj
 0001:0000f590       __local_unwind4            10010590 f   libvcruntime:exsup4.obj
 0001:0000f668       __seh_longjmp_unwind4@4    10010668 f   libvcruntime:exsup4.obj
 0001:0000f690       @_EH4_CallFilterFunc@8     10010690 f   libvcruntime:exsup4.obj
 0001:0000f6a8       @_EH4_TransferToHandler@8  100106a8 f   libvcruntime:exsup4.obj
 0001:0000f6c4       @_EH4_GlobalUnwind2@8      100106c4 f   libvcruntime:exsup4.obj
 0001:0000f6e0       @_EH4_LocalUnwind@16       100106e0 f   libvcruntime:exsup4.obj
 0001:0000f6f7       ___except_validate_context_record 100106f7 f   libvcruntime:jbcxrval.obj
 0001:0000f727       ___except_validate_jump_buffer 10010727 f   libvcruntime:jbcxrval.obj
 0001:0000f754       ___vcrt_freefls@4          10010754 f   libvcruntime:per_thread_data.obj
 0001:0000f770       ___vcrt_freeptd            10010770 f   libvcruntime:per_thread_data.obj
 0001:0000f7a6       ___vcrt_getptd             100107a6 f   libvcruntime:per_thread_data.obj
 0001:0000f7b4       ___vcrt_getptd_noexit      100107b4 f   libvcruntime:per_thread_data.obj
 0001:0000f846       ___vcrt_initialize_ptd     10010846 f   libvcruntime:per_thread_data.obj
 0001:0000f879       ___vcrt_uninitialize_ptd   10010879 f   libvcruntime:per_thread_data.obj
 0001:0000f894       ___vcrt_initialize_locks   10010894 f   libvcruntime:locks.obj
 0001:0000f8d0       ___vcrt_uninitialize_locks 100108d0 f   libvcruntime:locks.obj
 0001:00010042       ??$TypeMatchHelper@V__FrameHandler3@@@@YAHPBU_s_HandlerType@@PBU_s_CatchableType@@PBU_s_ThrowInfo@@@Z 10011042 f i libvcruntime:frame.obj
 0001:000100d0       ??$__InternalCxxFrameHandler@V__FrameHandler3@@@@YA?AW4_EXCEPTION_DISPOSITION@@PAUEHExceptionRecord@@PAUEHRegistrationNode@@PAU_CONTEXT@@PAXPBU_s_FuncInfo@@H1E@Z 100110d0 f i libvcruntime:frame.obj
 0001:000101d2       ??0bad_exception@std@@QAE@ABV01@@Z 100111d2 f i libvcruntime:frame.obj
 0001:000101ed       ??0bad_exception@std@@QAE@XZ 100111ed f i libvcruntime:frame.obj
 0001:00010205       ??8type_info@@QBE_NABV0@@Z 10011205 f i libvcruntime:frame.obj
 0001:0001046c       ?FrameUnwindToEmptyState@__FrameHandler3@@SAXPAUEHRegistrationNode@@PAXPBU_s_FuncInfo@@@Z 1001146c f   libvcruntime:frame.obj
 0001:00010484       ?FrameUnwindToState@__FrameHandler3@@SAXPAUEHRegistrationNode@@PAXPBU_s_FuncInfo@@H@Z 10011484 f   libvcruntime:frame.obj
 0001:00010606       ?_CallMemberFunction1@@YGXQAX00@Z 10011606 f i libvcruntime:frame.obj
 0001:00010616       ?_CallMemberFunction2@@YGXQAX00H@Z 10011616 f i libvcruntime:frame.obj
 0001:00010629       ?getESTypes@__FrameHandler3@@SAPBU_s_ESTypeList@@PBU_s_FuncInfo@@@Z 10011629 f i libvcruntime:frame.obj
 0001:00010640       __CallSettingFrame@12      10011640 f   libvcruntime:lowhelpr.obj
 0001:00010667       __NLG_Return               10011667     libvcruntime:lowhelpr.obj
 0001:00010690       __global_unwind2           10011690 f   libvcruntime:exsup.obj
 0001:000106f6       __local_unwind2            100116f6 f   libvcruntime:exsup.obj
 0001:0001077a       __abnormal_termination     1001177a f   libvcruntime:exsup.obj
 0001:000107a0       __NLG_Notify1              100117a0 f   libvcruntime:exsup.obj
 0001:000107ac       __NLG_Notify               100117ac f   libvcruntime:exsup.obj
 0001:000107c3       __NLG_Dispatch2            100117c3     libvcruntime:exsup.obj
 0001:000107c3       __NLG_Dispatch             100117c3     libvcruntime:exsup.obj
 0001:000107cb       __NLG_Call                 100117cb f   libvcruntime:exsup.obj
 0001:000107cd       __NLG_Return2              100117cd     libvcruntime:exsup.obj
 0001:000108c3       ___vcrt_FlsAlloc           100118c3 f   libvcruntime:winapi_downlevel.obj
 0001:000108fe       ___vcrt_FlsFree            100118fe f   libvcruntime:winapi_downlevel.obj
 0001:00010939       ___vcrt_FlsGetValue        10011939 f   libvcruntime:winapi_downlevel.obj
 0001:00010974       ___vcrt_FlsSetValue        10011974 f   libvcruntime:winapi_downlevel.obj
 0001:000109b2       ___vcrt_InitializeCriticalSectionEx 100119b2 f   libvcruntime:winapi_downlevel.obj
 0001:000109f9       _unexpected                100119f9 f   libvcruntime:unexpected.obj
 0001:00010a16       ?GetCurrentState@__FrameHandler3@@SAHPAUEHRegistrationNode@@PAXPBU_s_FuncInfo@@@Z 10011a16 f   libvcruntime:ehstate.obj
 0001:00010a33       ?SetState@__FrameHandler3@@SAXPAUEHRegistrationNode@@PBU_s_FuncInfo@@H@Z 10011a33 f   libvcruntime:ehstate.obj
 0001:00010a41       _free                      10011a41 f   libucrt:free.obj
 0001:00010a5c       ___acrt_call_reportfault   10011a5c f   libucrt:invalid_parameter.obj
 0001:00010b95       ___acrt_initialize_invalid_parameter_handler 10011b95 f   libucrt:invalid_parameter.obj
 0001:00010ba4       __invalid_parameter        10011ba4 f   libucrt:invalid_parameter.obj
 0001:00010c08       __invalid_parameter_noinfo 10011c08 f   libucrt:invalid_parameter.obj
 0001:00010c18       __invoke_watson            10011c18 f   libucrt:invalid_parameter.obj
 0001:00010c4c       ___acrt_errno_from_os_error 10011c4c f   libucrt:errno.obj
 0001:00010c8f       ___acrt_errno_map_os_error 10011c8f f   libucrt:errno.obj
 0001:00010cb2       ___doserrno                10011cb2 f   libucrt:errno.obj
 0001:00010cc5       __errno                    10011cc5 f   libucrt:errno.obj
 0001:00010cd8       _calloc                    10011cd8 f   libucrt:calloc.obj
 0001:00010ce3       _malloc                    10011ce3 f   libucrt:malloc.obj
 0001:00010cee       __recalloc                 10011cee f   libucrt:recalloc.obj
 0001:00010cf9       __recalloc_base            10011cf9 f   libucrt:recalloc.obj
 0001:00010d66       __resetstkoflw             10011d66 f   libucrt:resetstk.obj
 0001:00010e2b       _wcscat_s                  10011e2b f   libucrt:wcscat_s.obj
 0001:00010ea0       _wcscpy_s                  10011ea0 f   libucrt:wcscpy_s.obj
 0001:00010fcf       _wcsncpy_s                 10011fcf f   libucrt:wcsncpy_s.obj
 0001:000111db       ??$count@D@formatting_buffer@__crt_stdio_output@@QBEIXZ 100121db f i libucrt:output.obj
 0001:000111f3       ??$count@_W@formatting_buffer@__crt_stdio_output@@QBEIXZ 100121f3 f i libucrt:output.obj
 0001:0001120c       ??$ensure_buffer_is_big_enough@D@formatting_buffer@__crt_stdio_output@@QAE_NI@Z 1001220c f i libucrt:output.obj
 0001:00011289       ??$ensure_buffer_is_big_enough@_W@formatting_buffer@__crt_stdio_output@@QAE_NI@Z 10012289 f i libucrt:output.obj
 0001:00011307       ??$is_wide_character_specifier@_W@__crt_stdio_output@@YA_N_K_WW4length_modifier@0@@Z 10012307 f i libucrt:output.obj
 0001:00011355       ??$scratch_data@D@formatting_buffer@__crt_stdio_output@@QAEPADXZ 10012355 f i libucrt:output.obj
 0001:00011373       ??$type_case_integer_parse_into_buffer@I@?$output_processor@_WV?$string_output_adapter@_W@__crt_stdio_output@@V?$format_validation_base@_WV?$string_output_adapter@_W@__crt_stdio_output@@@2@@__crt_stdio_output@@AAEXII_N@Z 10012373 f i libucrt:output.obj
 0001:000113fa       ??$type_case_integer_parse_into_buffer@_K@?$output_processor@_WV?$string_output_adapter@_W@__crt_stdio_output@@V?$format_validation_base@_WV?$string_output_adapter@_W@__crt_stdio_output@@@2@@__crt_stdio_output@@AAEX_KI_N@Z 100123fa f i libucrt:output.obj
 0001:0001149c       ??$write_multiple_characters@V?$string_output_adapter@_W@__crt_stdio_output@@D@__crt_stdio_output@@YAXABV?$string_output_adapter@_W@0@DHQAH@Z 1001249c f i libucrt:output.obj
 0001:000114cd       ??0?$common_data@_W@__crt_stdio_output@@IAE@XZ 100124cd f i libucrt:output.obj
 0001:00011517       ??0?$output_adapter_data@_WV?$string_output_adapter@_W@__crt_stdio_output@@@__crt_stdio_output@@IAE@ABV?$string_output_adapter@_W@1@_KQB_WQAU__crt_locale_pointers@@QAD@Z 10012517 f i libucrt:output.obj
 0001:00011553       ??0_LocaleUpdate@@QAE@QAU__crt_locale_pointers@@@Z 10012553 f i libucrt:output.obj
 0001:000115d6       ??1formatting_buffer@__crt_stdio_output@@QAE@XZ 100125d6 f i libucrt:output.obj
 0001:000115f0       ??4?$__crt_unique_heap_ptr@DU__crt_internal_free_policy@@@@QAEAAV0@$$QAV0@@Z 100125f0 f i libucrt:output.obj
 0001:00011614       ?crop_zeroes@__crt_stdio_output@@YAXPADQAU__crt_locale_pointers@@@Z 10012614 f i libucrt:output.obj
 0001:00011674       ?find_next_state@?$output_processor@_WV?$string_output_adapter@_W@__crt_stdio_output@@V?$format_validation_base@_WV?$string_output_adapter@_W@__crt_stdio_output@@@2@@__crt_stdio_output@@ABE?AW4state@2@_WW432@@Z 10012674 f i libucrt:output.obj
 0001:000116b6       ?force_decimal_point@__crt_stdio_output@@YAXPADQAU__crt_locale_pointers@@@Z 100126b6 f i libucrt:output.obj
 0001:00011712       ?parse_int_from_format_string@?$output_processor@_WV?$string_output_adapter@_W@__crt_stdio_output@@V?$format_validation_base@_WV?$string_output_adapter@_W@__crt_stdio_output@@@2@@__crt_stdio_output@@AAE_NQAH@Z 10012712 f i libucrt:output.obj
 0001:00011788       ?process@?$output_processor@_WV?$string_output_adapter@_W@__crt_stdio_output@@V?$format_validation_base@_WV?$string_output_adapter@_W@__crt_stdio_output@@@2@@__crt_stdio_output@@QAEHXZ 10012788 f i libucrt:output.obj
 0001:000118b0       ?state_case_flag@?$output_processor@_WV?$string_output_adapter@_W@__crt_stdio_output@@V?$format_validation_base@_WV?$string_output_adapter@_W@__crt_stdio_output@@@2@@__crt_stdio_output@@AAE_NXZ 100128b0 f i libucrt:output.obj
 0001:000118ed       ?state_case_normal@?$output_processor@_WV?$string_output_adapter@_W@__crt_stdio_output@@V?$format_validation_base@_WV?$string_output_adapter@_W@__crt_stdio_output@@@2@@__crt_stdio_output@@AAE_NXZ 100128ed f i libucrt:output.obj
 0001:0001190c       ?state_case_normal_common@?$output_processor@_WV?$string_output_adapter@_W@__crt_stdio_output@@V?$format_validation_base@_WV?$string_output_adapter@_W@__crt_stdio_output@@@2@@__crt_stdio_output@@AAE_NXZ 1001290c f i libucrt:output.obj
 0001:00011927       ?state_case_precision@?$output_processor@_WV?$string_output_adapter@_W@__crt_stdio_output@@V?$format_validation_base@_WV?$string_output_adapter@_W@__crt_stdio_output@@@2@@__crt_stdio_output@@AAE_NXZ 10012927 f i libucrt:output.obj
 0001:0001194e       ?state_case_size@?$output_processor@_WV?$string_output_adapter@_W@__crt_stdio_output@@V?$format_validation_base@_WV?$string_output_adapter@_W@__crt_stdio_output@@@2@@__crt_stdio_output@@AAE_NXZ 1001294e f i libucrt:output.obj
 0001:00011ac6       ?state_case_type@?$output_processor@_WV?$string_output_adapter@_W@__crt_stdio_output@@V?$format_validation_base@_WV?$string_output_adapter@_W@__crt_stdio_output@@@2@@__crt_stdio_output@@AAE_NXZ 10012ac6 f i libucrt:output.obj
 0001:00011d2b       ?state_case_width@?$output_processor@_WV?$string_output_adapter@_W@__crt_stdio_output@@V?$format_validation_base@_WV?$string_output_adapter@_W@__crt_stdio_output@@@2@@__crt_stdio_output@@AAE_NXZ 10012d2b f i libucrt:output.obj
 0001:00011d57       ?to_integer_size@__crt_stdio_output@@YAIW4length_modifier@1@@Z 10012d57 f i libucrt:output.obj
 0001:00011dab       ?type_case_Z@?$output_processor@_WV?$string_output_adapter@_W@__crt_stdio_output@@V?$format_validation_base@_WV?$string_output_adapter@_W@__crt_stdio_output@@@2@@__crt_stdio_output@@AAE_NXZ 10012dab f i libucrt:output.obj
 0001:00011e05       ?type_case_a@?$output_processor@_WV?$string_output_adapter@_W@__crt_stdio_output@@V?$format_validation_base@_WV?$string_output_adapter@_W@__crt_stdio_output@@@2@@__crt_stdio_output@@AAE_NXZ 10012e05 f i libucrt:output.obj
 0001:00011f6a       ?type_case_c_tchar@?$output_processor@_WV?$string_output_adapter@_W@__crt_stdio_output@@V?$format_validation_base@_WV?$string_output_adapter@_W@__crt_stdio_output@@@2@@__crt_stdio_output@@AAE_N_W@Z 10012f6a f i libucrt:output.obj
 0001:00012000       ?type_case_integer@?$output_processor@_WV?$string_output_adapter@_W@__crt_stdio_output@@V?$format_validation_base@_WV?$string_output_adapter@_W@__crt_stdio_output@@@2@@__crt_stdio_output@@AAE_NI_N@Z 10013000 f i libucrt:output.obj
 0001:00012155       ?type_case_n@?$output_processor@_WV?$string_output_adapter@_W@__crt_stdio_output@@V?$format_validation_base@_WV?$string_output_adapter@_W@__crt_stdio_output@@@2@@__crt_stdio_output@@AAE_NXZ 10013155 f i libucrt:output.obj
 0001:000121c9       ?type_case_o@?$output_processor@_WV?$string_output_adapter@_W@__crt_stdio_output@@V?$format_validation_base@_WV?$string_output_adapter@_W@__crt_stdio_output@@@2@@__crt_stdio_output@@AAE_NXZ 100131c9 f i libucrt:output.obj
 0001:000121e8       ?type_case_p@?$output_processor@_WV?$string_output_adapter@_W@__crt_stdio_output@@V?$format_validation_base@_WV?$string_output_adapter@_W@__crt_stdio_output@@@2@@__crt_stdio_output@@AAE_NXZ 100131e8 f i libucrt:output.obj
 0001:00012200       ?type_case_s@?$output_processor@_WV?$string_output_adapter@_W@__crt_stdio_output@@V?$format_validation_base@_WV?$string_output_adapter@_W@__crt_stdio_output@@@2@@__crt_stdio_output@@AAE_NXZ 10013200 f i libucrt:output.obj
 0001:00012273       ?type_case_s_compute_narrow_string_length@?$output_processor@_WV?$string_output_adapter@_W@__crt_stdio_output@@V?$format_validation_base@_WV?$string_output_adapter@_W@__crt_stdio_output@@@2@@__crt_stdio_output@@ABEHH_W@Z 10013273 f i libucrt:output.obj
 0001:000122ba       ?validate@?$string_output_adapter@_W@__crt_stdio_output@@QBE_NXZ 100132ba f i libucrt:output.obj
 0001:000122ba       ?validate@?$c_string_character_source@_W@__crt_strtox@@QBE_NXZ 100132ba f i libucrt:atox.obj
 0001:000122d5       ?validate_and_update_state_at_end_of_format_string@?$format_validation_base@_WV?$string_output_adapter@_W@__crt_stdio_output@@@__crt_stdio_output@@IBE_NXZ 100132d5 f i libucrt:output.obj
 0001:000122f7       ?write_character@?$string_output_adapter@_W@__crt_stdio_output@@QBE_N_WQAH@Z 100132f7 f i libucrt:output.obj
 0001:0001233c       ?write_stored_string_tchar@?$output_processor@_WV?$string_output_adapter@_W@__crt_stdio_output@@V?$format_validation_base@_WV?$string_output_adapter@_W@__crt_stdio_output@@@2@@__crt_stdio_output@@AAE_N_W@Z 1001333c f i libucrt:output.obj
 0001:000123cf       ?write_string@?$string_output_adapter@_W@__crt_stdio_output@@QBEXQB_WHQAHAAV__crt_deferred_errno_cache@@@Z 100133cf f i libucrt:output.obj
 0001:00012440       ___acrt_locale_get_ctype_array_value 10013440 f i libucrt:output.obj
 0001:00012462       ___stdio_common_vswprintf_s 10013462 f   libucrt:output.obj
 0001:00012486       __seh_filter_dll           10013486 f   libucrt:exception_filter.obj
 0001:000124a6       __seh_filter_exe           100134a6 f   libucrt:exception_filter.obj
 0001:00012874       ___acrt_initialize_thread_local_exit_callback 10013874 f   libucrt:exit.obj
 0001:00012883       __cexit                    10013883 f   libucrt:exit.obj
 0001:00012892       __exit                     10013892 f   libucrt:exit.obj
 0001:000128a8       __is_c_termination_complete 100138a8 f   libucrt:exit.obj
 0001:00012b5c       ___acrt_allocate_buffer_for_argv 10013b5c f   libucrt:argv_parsing.obj
 0001:00012bab       __configure_narrow_argv    10013bab f   libucrt:argv_parsing.obj
 0001:00012d08       ??$uninitialize@A6AXAAPAPA_W@Z@?$dual_state_global@PAPA_W@__crt_state_management@@QAEXA6AXAAPAPA_W@Z@Z 10013d08 f i libucrt:environment_initialization.obj
 0001:00012d08       ??$uninitialize@A6AXAAPAPAD@Z@?$dual_state_global@PAPAD@__crt_state_management@@QAEXA6AXAAPAPAD@Z@Z 10013d08 f i libucrt:environment_initialization.obj
 0001:00012d67       ___dcrt_uninitialize_environments_nolock 10013d67 f   libucrt:environment_initialization.obj
 0001:00012d9e       __initialize_narrow_environment 10013d9e f   libucrt:environment_initialization.obj
 0001:00012e59       ??$__crt_fast_encode_pointer@PAP6AXXZ@@YAPAP6AXXZQAP6AXXZ@Z 10013e59 f i libucrt:onexit.obj
 0001:00012e59       ??$__crt_fast_encode_pointer@PAX@@YAPAXQAX@Z 10013e59 f i libucrt:initialization.obj
 0001:00012e59       ??$__crt_fast_encode_pointer@P6AHXZ@@YAP6AHXZQ6AHXZ@Z 10013e59 f i libucrt:onexit.obj
 0001:0001307b       __crt_atexit               1001407b f   libucrt:onexit.obj
 0001:00013091       __execute_onexit_table     10014091 f   libucrt:onexit.obj
 0001:000130be       __initialize_onexit_table  100140be f   libucrt:onexit.obj
 0001:000130e7       __register_onexit_function 100140e7 f   libucrt:onexit.obj
 0001:0001311a       ___acrt_uninitialize_command_line 1001411a f   libucrt:argv_data.obj
 0001:00013218       ___acrt_initialize         10014218 f   libucrt:initialization.obj
 0001:0001322a       ___acrt_thread_attach      1001422a f   libucrt:initialization.obj
 0001:00013235       ___acrt_thread_detach      10014235 f   libucrt:initialization.obj
 0001:0001323d       ___acrt_uninitialize       1001423d f   libucrt:initialization.obj
 0001:0001326d       ___acrt_uninitialize_critical 1001426d f   libucrt:initialization.obj
 0001:0001327f       __initterm                 1001427f f   libucrt:initterm.obj
 0001:000132c4       __initterm_e               100142c4 f   libucrt:initterm.obj
 0001:000132f2       ___acrt_initialize_new_handler 100142f2 f   libucrt:new_handler.obj
 0001:00013301       __callnewh                 10014301 f   libucrt:new_handler.obj
 0001:0001332e       __query_new_handler        1001432e f   libucrt:new_handler.obj
 0001:0001338a       _terminate                 1001438a f   libucrt:terminate.obj
 0001:000133c6       _abort                     100143c6 f   libucrt:abort.obj
 0001:0001340a       _strcpy_s                  1001440a f   libucrt:strcpy_s.obj
 0001:00013464       ??$is_overflow_condition@K@__crt_strtox@@YA_NIK@Z 10014464 f i libucrt:atox.obj
 0001:00013495       ??$parse_integer@KV?$c_string_character_source@_W@__crt_strtox@@@__crt_strtox@@YAKQAU__crt_locale_pointers@@V?$c_string_character_source@_W@0@H_N@Z 10014495 f i libucrt:atox.obj
 0001:00013a9d       ?unget@?$c_string_character_source@_W@__crt_strtox@@QAEX_W@Z 10014a9d f i libucrt:atox.obj
 0001:00013ad0       _strncmp                   10014ad0 f   libucrt:strncmp.obj
 0001:00013b48       _wcsncmp                   10014b48 f   libucrt:wcsncmp.obj
 0001:00013b82       __free_base                10014b82 f   libucrt:free_base.obj
 0001:00013efa       ___acrt_freeptd            10014efa f   libucrt:per_thread_data.obj
 0001:00013f26       ___acrt_getptd             10014f26 f   libucrt:per_thread_data.obj
 0001:00013fe3       ___acrt_getptd_head        10014fe3 f   libucrt:per_thread_data.obj
 0001:0001407d       ___acrt_getptd_noexit      1001507d f   libucrt:per_thread_data.obj
 0001:00014132       ___acrt_initialize_ptd     10015132 f   libucrt:per_thread_data.obj
 0001:0001415e       ___acrt_uninitialize_ptd   1001515e f   libucrt:per_thread_data.obj
 0001:00014178       __calloc_base              10015178 f   libucrt:calloc_base.obj
 0001:000141d5       __malloc_base              100151d5 f   libucrt:malloc_base.obj
 0001:00014223       __msize_base               10015223 f   libucrt:msize.obj
 0001:00014256       __realloc_base             10015256 f   libucrt:realloc_base.obj
 0001:00014457       ___acrt_AppPolicyGetProcessTerminationMethodInternal@4 10015457 f   libucrt:winapi_thunks.obj
 0001:00014497       ___acrt_AreFileApisANSI@0  10015497 f   libucrt:winapi_thunks.obj
 0001:000144b6       ___acrt_FlsAlloc@4         100154b6 f   libucrt:winapi_thunks.obj
 0001:000144f5       ___acrt_FlsFree@4          100154f5 f   libucrt:winapi_thunks.obj
 0001:00014534       ___acrt_FlsGetValue@4      10015534 f   libucrt:winapi_thunks.obj
 0001:00014573       ___acrt_FlsSetValue@8      10015573 f   libucrt:winapi_thunks.obj
 0001:000145b5       ___acrt_InitializeCriticalSectionEx@12 100155b5 f   libucrt:winapi_thunks.obj
 0001:00014600       ___acrt_LCMapStringEx@36   10015600 f   libucrt:winapi_thunks.obj
 0001:0001465d       ___acrt_LocaleNameToLCID@8 1001565d f   libucrt:winapi_thunks.obj
 0001:0001468e       ___acrt_SetThreadStackGuarantee@4 1001568e f   libucrt:winapi_thunks.obj
 0001:000146c9       ___acrt_initialize_winapi_thunks 100156c9 f   libucrt:winapi_thunks.obj
 0001:000146f4       ___acrt_uninitialize_winapi_thunks 100156f4 f   libucrt:winapi_thunks.obj
 0001:0001472a       ??$make_c_string_character_source@_WPAPA_W@__crt_strtox@@YA?AV?$c_string_character_source@_W@0@QB_WQAPA_W@Z 1001572a f i libucrt:strtox.obj
 0001:00014745       _wcstol                    10015745 f   libucrt:strtox.obj
 0001:0001476f       __mbtowc_l                 1001576f f   libucrt:mbtowc.obj
 0001:000148b1       _mbtowc                    100158b1 f   libucrt:mbtowc.obj
 0001:000148cb       _wcsnlen                   100158cb f   libucrt:strnlen.obj
 0001:00014a7b       ___acrt_update_locale_info 10015a7b f   libucrt:locale_update.obj
 0001:00014aa8       ___acrt_update_multibyte_info 10015aa8 f   libucrt:locale_update.obj
 0001:00014ad5       ?__acrt_fp_classify@@YA?AW4__acrt_fp_class@@ABN@Z 10015ad5 f i libucrt:cvt.obj
 0001:00015320       ___acrt_fp_format          10016320 f   libucrt:cvt.obj
 0001:0001545b       __fileno                   1001645b f   libucrt:fileno.obj
 0001:00015482       ___acrt_initialize_stdio   10016482 f   libucrt:_file.obj
 0001:0001554a       ___acrt_uninitialize_stdio 1001654a f   libucrt:_file.obj
 0001:00015596       __lock_file                10016596 f   libucrt:_file.obj
 0001:000155aa       __unlock_file              100165aa f   libucrt:_file.obj
 0001:000155be       __get_printf_count_output  100165be f   libucrt:printf_count_output.obj
 0001:00015641       ___acrt_set_locale_changed 10016641 f   libucrt:wsetlocale.obj
 0001:0001564c       ___acrt_uninitialize_locale 1001664c f   libucrt:wsetlocale.obj
 0001:000157dd       ___acrt_initialize_lowio   100167dd f   libucrt:ioinit.obj
 0001:0001583d       ___acrt_uninitialize_lowio 1001683d f   libucrt:ioinit.obj
 0001:00015869       ___acrt_initialize_locks   10016869 f   libucrt:locks.obj
 0001:000158aa       ___acrt_lock               100168aa f   libucrt:locks.obj
 0001:000158c1       ___acrt_uninitialize_locks 100168c1 f   libucrt:locks.obj
 0001:000158f2       ___acrt_unlock             100168f2 f   libucrt:locks.obj
 0001:00015909       ___acrt_get_process_end_policy 10016909 f   libucrt:win_policies.obj
 0001:00015ad3       ??$__acrt_mbs_to_wcs_cp@U__crt_win32_buffer_internal_dynamic_resizing@@@@YAHQBDAAV?$__crt_win32_buffer@_WU__crt_win32_buffer_internal_dynamic_resizing@@@@I@Z 10016ad3 f i libucrt:argv_wildcards.obj
 0001:00015fe7       ?__acrt_get_utf8_acp_compatibility_codepage@@YAIXZ 10016fe7 f i libucrt:argv_wildcards.obj
 0001:00016026       ?_deallocate@?$__crt_win32_buffer@DU__crt_win32_buffer_internal_dynamic_resizing@@@@AAEXXZ 10017026 f i libucrt:argv_wildcards.obj
 0001:00016026       ?_deallocate@?$__crt_win32_buffer@_WU__crt_win32_buffer_internal_dynamic_resizing@@@@AAEXXZ 10017026 f i libucrt:argv_wildcards.obj
 0001:00016040       ?allocate@?$__crt_win32_buffer@DU__crt_win32_buffer_internal_dynamic_resizing@@@@QAEHI@Z 10017040 f i libucrt:argv_wildcards.obj
 0001:0001607c       ?allocate@?$__crt_win32_buffer@_WU__crt_win32_buffer_internal_dynamic_resizing@@@@QAEHI@Z 1001707c f i libucrt:argv_wildcards.obj
 0001:000160bb       ?allocate@__crt_win32_buffer_internal_dynamic_resizing@@SAHQAPAXIABV__crt_win32_buffer_empty_debug_info@@@Z 100170bb f i libucrt:argv_wildcards.obj
 0001:00016161       ___acrt_expand_narrow_argv_wildcards 10017161 f   libucrt:argv_wildcards.obj
 0001:00016233       ?allocate@?$__crt_win32_buffer@DU__crt_win32_buffer_no_resizing@@@@QAEHI@Z 10017233 f i libucrt:getmodulefilenamea.obj
 0001:0001625a       ?set_to_nullptr@?$__crt_win32_buffer@DU__crt_win32_buffer_no_resizing@@@@QAEXXZ 1001725a f i libucrt:getmodulefilenamea.obj
 0001:0001626e       ___acrt_GetModuleFileNameA 1001726e f   libucrt:getmodulefilenamea.obj
 0001:0001682d       ___acrt_initialize_multibyte 1001782d f   libucrt:mbctype.obj
 0001:00016875       ___acrt_update_thread_multibyte_data 10017875 f   libucrt:mbctype.obj
 0001:00016888       __setmbcp_nolock           10017888 f   libucrt:mbctype.obj
 0001:00016b53       __ismbblead                10017b53 f   libucrt:ismbbyte.obj
 0001:00016b6b       ___acrt_initialize_command_line 10017b6b f   libucrt:argv_data.obj
 0001:00016b84       ___acrt_MultiByteToWideChar 10017b84 f   libucrt:multibytetowidechar.obj
 0001:00016c00       ___acrt_WideCharToMultiByte 10017c00 f   libucrt:widechartomultibyte.obj
 0001:00016ce4       ___dcrt_get_narrow_environment_from_os 10017ce4 f   libucrt:get_environment_from_os.obj
 0001:00016d68       ___acrt_initialize_heap    10017d68 f   libucrt:heap_handle.obj
 0001:00016d79       ___acrt_uninitialize_heap  10017d79 f   libucrt:heap_handle.obj
 0001:00016d83       ___acrt_execute_initializers 10017d83 f   libucrt:shared_initialization.obj
 0001:00016deb       ___acrt_execute_uninitializers 10017deb f   libucrt:shared_initialization.obj
 0001:00016eea       ___acrt_get_sigabrt_handler 10017eea f   libucrt:signal.obj
 0001:00016f11       ___acrt_initialize_signal_handlers 10017f11 f   libucrt:signal.obj
 0001:00016f2f       ___fpecode                 10017f2f f   libucrt:signal.obj
 0001:00016f38       _raise                     10017f38 f   libucrt:signal.obj
 0001:00017133       ___acrt_has_user_matherr   10018133 f   libucrt:matherr.obj
 0001:0001714b       ___acrt_initialize_user_matherr 1001814b f   libucrt:matherr.obj
 0001:0001715a       ___acrt_invoke_user_matherr 1001815a f   libucrt:matherr.obj
 0001:00017369       ___acrt_stdio_flush_nolock 10018369 f   libucrt:fflush.obj
 0001:000173ce       __fflush_nolock            100183ce f   libucrt:fflush.obj
 0001:00017416       __flushall                 10018416 f   libucrt:fflush.obj
 0001:0001741f       ___pctype_func             1001841f f   libucrt:ctype.obj
 0001:00017443       _iswctype                  10018443 f   libucrt:iswctype.obj
 0001:000174ac       ___acrt_add_locale_ref     100184ac f   libucrt:locale_refcounting.obj
 0001:00017529       ___acrt_free_locale        10018529 f   libucrt:locale_refcounting.obj
 0001:00017671       ___acrt_locale_add_lc_time_reference 10018671 f   libucrt:locale_refcounting.obj
 0001:0001769a       ___acrt_locale_free_lc_time_if_unreferenced 1001869a f   libucrt:locale_refcounting.obj
 0001:000176cb       ___acrt_locale_release_lc_time_reference 100186cb f   libucrt:locale_refcounting.obj
 0001:000176f4       ___acrt_release_locale_ref 100186f4 f   libucrt:locale_refcounting.obj
 0001:00017775       ___acrt_update_thread_locale_data 10018775 f   libucrt:locale_refcounting.obj
 0001:000177f6       __updatetlocinfoEx_nolock  100187f6 f   libucrt:locale_refcounting.obj
 0001:00017846       __query_new_mode           10018846 f   libucrt:new_mode.obj
 0001:0001789d       ___acrt_DownlevelLocaleNameToLCID 1001889d f   libucrt:lcidtoname_downlevel.obj
 0001:000178c9       __isleadbyte_l             100188c9 f i libucrt:_wctype.obj
 0001:0001792f       ?__mbrtowc_utf8@__crt_mbstring@@YAIPA_WPBDIPAU_Mbstatet@@@Z 1001892f f   libucrt:mbrtowc.obj
 0001:0001796f       ?__mbsrtowcs_utf8@__crt_mbstring@@YAIPA_WPAPBDIPAU_Mbstatet@@@Z 1001896f f   libucrt:mbrtowc.obj
 0001:00017a6a       ?return_illegal_sequence@__crt_mbstring@@YAIPAU_Mbstatet@@@Z 10018a6a f i libucrt:c32rtomb.obj
 0001:00017a89       ___acrt_fp_strflt_to_string 10018a89 f   libucrt:_fptostr.obj
 0001:00017b50       ?divide@__crt_strtox@@YA_KAAUbig_integer@1@ABU21@@Z 10018b50 f i libucrt:cfout.obj
 0001:00017fe8       ___acrt_fltout             10018fe8 f   libucrt:cfout.obj
 0001:00019332       __fcloseall                1001a332 f   libucrt:closeall.obj
 0001:000193dd       ___acrt_stdio_free_buffer_nolock 1001a3dd f   libucrt:_freebuf.obj
 0001:0001941d       __isatty                   1001a41d f   libucrt:isatty.obj
 0001:00019473       ___acrt_locale_free_monetary 1001a473 f   libucrt:initmon.obj
 0001:00019571       ___acrt_locale_free_numeric 1001a571 f   libucrt:initnum.obj
 0001:00019612       ___acrt_locale_free_time   1001a612 f   libucrt:inittime.obj
 0001:000196f6       ___acrt_GetStringTypeA     1001a6f6 f   libucrt:getstringtypea.obj
 0001:000197f9       __freea_crt                1001a7f9 f i libucrt:getstringtypea.obj
 0001:00019819       ___acrt_lowio_create_handle_array 1001a819 f   libucrt:osfinfo.obj
 0001:00019894       ___acrt_lowio_destroy_handle_array 1001a894 f   libucrt:osfinfo.obj
 0001:000198c9       ___acrt_lowio_ensure_fh_exists 1001a8c9 f   libucrt:osfinfo.obj
 0001:00019967       ___acrt_lowio_lock_fh      1001a967 f   libucrt:osfinfo.obj
 0001:0001998a       ___acrt_lowio_unlock_fh    1001a98a f   libucrt:osfinfo.obj
 0001:000199ad       __free_osfhnd              1001a9ad f   libucrt:osfinfo.obj
 0001:00019a3e       __get_osfhandle            1001aa3e f   libucrt:osfinfo.obj
 0001:00019af0       _qsort                     1001aaf0 f   libucrt:qsort.obj
 0001:00019fe7       _strncpy_s                 1001afe7 f   libucrt:strncpy_s.obj
 0001:0001a000       _strpbrk                   1001b000 f   libucrt:strpbrk.obj
 0001:0001a040       __mbsdec                   1001b040 f   libucrt:mbsdec.obj
 0001:0001a057       __mbsdec_l                 1001b057 f   libucrt:mbsdec.obj
 0001:0001a2ce       ___acrt_LCMapStringA       1001b2ce f   libucrt:lcmapstringa.obj
 0001:0001a3c8       __commit                   1001b3c8 f   libucrt:commit.obj
 0001:0001abbe       __write                    1001bbbe f   libucrt:write.obj
 0001:0001acb0       __write_nolock             1001bcb0 f   libucrt:write.obj
 0001:0001ae92       ___acrt_GetStringTypeW     1001be92 f   libucrt:getstringtypew.obj
 0001:0001aeab       ___ascii_wcsnicmp          1001beab f   libucrt:wcsnicmp.obj
 0001:0001aefa       ?__mbrtoc32_utf8@__crt_mbstring@@YAIPA_UPBDIPAU_Mbstatet@@@Z 1001befa f   libucrt:mbrtoc32.obj
 0001:0001b0a1       _fegetenv                  1001c0a1 f   libucrt:fegetenv.obj
 0001:0001b0be       _fesetenv                  1001c0be f   libucrt:fesetenv.obj
 0001:0001b109       _feholdexcept              1001c109 f   libucrt:feholdexcept.obj
 0001:0001b160       __CIlog10                  1001c160 f   libucrt:log10_impl.obj
 0001:0001b19b       __CIlog10_default          1001c19b f   libucrt:log10_impl.obj
 0001:0001b1af       __log10_default            1001c1af     libucrt:log10_impl.obj
 0001:0001b270       _ceil                      1001c270 f   libucrt:ceil_pentium4.obj
 0001:0001b2b0       __ceil_pentium4            1001c2b0 f   libucrt:ceil_pentium4.obj
 0001:0001b409       __lseeki64_nolock          1001c409 f   libucrt:lseek.obj
 0001:0001b424       __fclose_nolock            1001c424 f   libucrt:fclose.obj
 0001:0001b49b       _fclose                    1001c49b f   libucrt:fclose.obj
 0001:0001b51f       __query_app_type           1001c51f f   libucrt:report_runtime_error.obj
 0001:0001b525       ___strncnt                 1001c525 f   libucrt:strncnt.obj
 0001:0001b541       __putwch_nolock            1001c541 f   libucrt:putwch.obj
 0001:0001b880       ___acrt_fenv_get_control   1001c880 f   libucrt:_fenvutils.obj
 0001:0001b900       ___acrt_fenv_get_status    1001c900 f   libucrt:_fenvutils.obj
 0001:0001b9b8       ___acrt_fenv_set_control   1001c9b8 f   libucrt:_fenvutils.obj
 0001:0001ba20       ___acrt_fenv_set_status    1001ca20 f   libucrt:_fenvutils.obj
 0001:0001bb17       __clearfp                  1001cb17 f   libucrt:ieee87.obj
 0001:0001bbf5       ___acrt_initialize_sse2    1001cbf5 f   libucrt:mathfcns.obj
 0001:0001bc10       __CIlog10_pentium4         1001cc10 f   libucrt:log10_pentium4.obj
 0001:0001bc28       __log10_pentium4           1001cc28     libucrt:log10_pentium4.obj
 0001:0001bec0       __fFEXP                    1001cec0 f   libucrt:87tran.obj
 0001:0001bf17       __rtinfpopse               1001cf17     libucrt:87tran.obj
 0001:0001bf19       __rtinfnpopse              1001cf19     libucrt:87tran.obj
 0001:0001bf29       __fFLN                     1001cf29     libucrt:87tran.obj
 0001:0001bfde       __rtinfpop                 1001cfde     libucrt:87tran.obj
 0001:0001bfe0       __rtinfnpop                1001cfe0     libucrt:87tran.obj
 0001:0001bff0       __rtforexpinf              1001cff0 f   libucrt:87tran.obj
 0001:0001bffd       __ffexpm1                  1001cffd     libucrt:87tran.obj
 0001:0001c0b0       __trandisp1                1001d0b0 f   libucrt:87disp.obj
 0001:0001c125       __trandisp2                1001d125 f   libucrt:87disp.obj
 0001:0001c1bf       __rttospopde               1001d1bf     libucrt:87disp.obj
 0001:0001c1c4       __rttospop                 1001d1c4     libucrt:87disp.obj
 0001:0001c1d0       __rtnospop                 1001d1d0 f   libucrt:87disp.obj
 0001:0001c1e0       __rttosnpop                1001d1e0 f   libucrt:87disp.obj
 0001:0001c1e1       __rtnospopde               1001d1e1     libucrt:87disp.obj
 0001:0001c1e8       __rtzeropop                1001d1e8     libucrt:87disp.obj
 0001:0001c1ea       __rtzeronpop               1001d1ea     libucrt:87disp.obj
 0001:0001c1f0       __rtzerospop               1001d1f0 f   libucrt:87disp.obj
 0001:0001c1fd       __rtonepop                 1001d1fd     libucrt:87disp.obj
 0001:0001c200       __rtonenpop                1001d200 f   libucrt:87disp.obj
 0001:0001c210       __tosnan1                  1001d210 f   libucrt:87disp.obj
 0001:0001c240       __nosnan2                  1001d240 f   libucrt:87disp.obj
 0001:0001c250       __tosnan2                  1001d250 f   libucrt:87disp.obj
 0001:0001c280       __nan2                     1001d280 f   libucrt:87disp.obj
 0001:0001c2c0       __rtindfpop                1001d2c0 f   libucrt:87disp.obj
 0001:0001c2c2       __rtindfnpop               1001d2c2     libucrt:87disp.obj
 0001:0001c2d3       __rttosnpopde              1001d2d3     libucrt:87disp.obj
 0001:0001c2e0       __rtatan2inf               1001d2e0 f   libucrt:87disp.obj
 0001:0001c2fd       __rtchsifneg               1001d2fd     libucrt:87disp.obj
 0001:0001c310       __twoToTOS                 1001d310 f   libucrt:common.obj
 0001:0001c325       __load_CW                  1001d325 f   libucrt:common.obj
 0001:0001c33c       __convertTOStoQNaN         1001d33c f   libucrt:common.obj
 0001:0001c355       __fload_withFB             1001d355 f   libucrt:common.obj
 0001:0001c398       __checkTOS_withFB          1001d398 f   libucrt:common.obj
 0001:0001c3ae       __fast_exit                1001d3ae f   libucrt:common.obj
 0001:0001c3bb       __math_exit                1001d3bb f   libucrt:common.obj
 0001:0001c3e5       __check_overflow_exit      1001d3e5 f   libucrt:common.obj
 0001:0001c3f9       __check_range_exit         1001d3f9 f   libucrt:common.obj
 0001:0001c4a0       __startTwoArgErrorHandling 1001d4a0 f   libucrt:genexcep.obj
 0001:0001c4b7       __startOneArgErrorHandling 1001d4b7 f   libucrt:genexcep.obj
 0001:0001c4f3       ___libm_error_support      1001d4f3 f   libucrt:libm_error.obj
 0001:0001c6e7       __ceil_default             1001d6e7 f   libucrt:ceil.obj
 0001:0001c828       __close                    1001d828 f   libucrt:close.obj
 0001:0001c8b5       __close_nolock             1001d8b5 f   libucrt:close.obj
 0001:0001c951       ?__acrt_stdio_free_stream@@YAXV__crt_stdio_stream@@@Z 1001d951 f   libucrt:stream.obj
 0001:0001c990       ___ascii_strnicmp          1001d990 f   libucrt:_strnicm.obj
 0001:0001ca10       ___dcrt_lowio_ensure_console_output_initialized 1001da10 f   libucrt:initcon.obj
 0001:0001ca2f       ___dcrt_terminate_console_output 1001da2f f   libucrt:initcon.obj
 0001:0001ca46       ___dcrt_write_console      1001da46 f   libucrt:initcon.obj
 0001:0001ca9b       __clrfp                    1001da9b f   libucrt:fpctrl.obj
 0001:0001caac       __ctrlfp                   1001daac f   libucrt:fpctrl.obj
 0001:0001cad6       __set_statfp               1001dad6 f   libucrt:fpctrl.obj
 0001:0001cb2f       __statfp                   1001db2f f   libucrt:fpctrl.obj
 0001:0001cb3f       __d_inttype                1001db3f f   libucrt:powhlp.obj
 0001:0001cba7       __powhlp                   1001dba7 f   libucrt:powhlp.obj
 0001:0001ccd2       __87except                 1001dcd2 f   libucrt:87except.obj
 0001:0001cddc       __frnd                     1001dddc f   libucrt:frnd.obj
 0001:0001cdf0       __errcode                  1001ddf0 f   libucrt:fpexcept.obj
 0001:0001ce24       __except1                  1001de24 f   libucrt:fpexcept.obj
 0001:0001cef2       __handle_exc               1001def2 f   libucrt:fpexcept.obj
 0001:0001d0dd       __raise_exc                1001e0dd f   libucrt:fpexcept.obj
 0001:0001d100       __raise_exc_ex             1001e100 f   libucrt:fpexcept.obj
 0001:0001d3f6       __set_errno_from_matherr   1001e3f6 f   libucrt:fpexcept.obj
 0001:0001d425       __umatherr                 1001e425 f   libucrt:fpexcept.obj
 0001:0001d4c5       __decomp                   1001e4c5 f   libucrt:util.obj
 0001:0001d597       __set_exp                  1001e597 f   libucrt:util.obj
 0001:0001d5c4       __sptype                   1001e5c4 f   libucrt:util.obj
 0001:0001d622       __fpclass                  1001e622 f   libucrt:ieeemisc.obj
 0001:0001d6c6       _IsProcessorFeaturePresent@4 1001e6c6 f   kernel32:KERNEL32.dll
 0001:0001d6d0       __FindPESection            1001e6d0 f   LIBCMT:pesect.obj
 0001:0001d720       __IsNonwritableInCurrentImage 1001e720 f   LIBCMT:pesect.obj
 0001:0001d7e0       __ValidateImageBase        1001e7e0 f   LIBCMT:pesect.obj
 0001:0001d813       __EH_prolog3_catch         1001e813 f   LIBCMT:ehprolg3.obj
 0001:0001d850       __aulldvrm                 1001e850 f   LIBCMT:ulldvrm.obj
 0001:0001d8f0       __allmul                   1001e8f0 f   LIBCMT:llmul.obj
 0001:0001d930       __alldvrm                  1001e930 f   LIBCMT:lldvrm.obj
 0001:0001da10       __aullshr                  1001ea10 f   LIBCMT:ullshr.obj
 0001:0001da30       __allshl                   1001ea30 f   LIBCMT:llshl.obj
 0001:0001da50       __ftol2_sse                1001ea50     LIBCMT:ftol2.obj
 0001:0001da50       __ftol2_sse_excpt          1001ea50     LIBCMT:ftol2.obj
 0001:0001da50       __ftoi2                    1001ea50 f   LIBCMT:ftol2.obj
 0001:0001dad0       __ftoui2                   1001ead0 f   LIBCMT:ftol2.obj
 0001:0001db80       __ftol2                    1001eb80 f   LIBCMT:ftol2.obj
 0001:0001dc30       __ftoul2                   1001ec30 f   LIBCMT:ftol2.obj
 0001:0001dcf0       _strrchr                   1001ecf0 f   libvcruntime:strrchr.obj
 0001:0001de30       _strchr                    1001ee30 f   libvcruntime:strchr.obj
 0001:0001de9e       ___from_strstr_to_strchr   1001ee9e     libvcruntime:strchr.obj
 0001:0001df5b       __filter_x86_sse2_floating_point_exception_default 1001ef5b f   LIBCMT:x86_exception_filter.obj
 0001:0001df5b       __filter_x86_sse2_floating_point_exception 1001ef5b f   LIBCMT:x86_exception_filter.obj
 0002:00000000       __imp__RegQueryValueExW@24 10020000     advapi32:ADVAPI32.dll
 0002:00000004       __imp__RegSetValueExW@24   10020004     advapi32:ADVAPI32.dll
 0002:00000008       __imp__RegQueryInfoKeyW@48 10020008     advapi32:ADVAPI32.dll
 0002:0000000c       __imp__RegOpenKeyExW@20    1002000c     advapi32:ADVAPI32.dll
 0002:00000010       __imp__RegEnumKeyExW@32    10020010     advapi32:ADVAPI32.dll
 0002:00000014       __imp__RegDeleteValueW@8   10020014     advapi32:ADVAPI32.dll
 0002:00000018       __imp__RegDeleteKeyW@8     10020018     advapi32:ADVAPI32.dll
 0002:0000001c       __imp__RegCreateKeyExW@36  1002001c     advapi32:ADVAPI32.dll
 0002:00000020       __imp__RegCloseKey@4       10020020     advapi32:ADVAPI32.dll
 0002:00000024       \177ADVAPI32_NULL_THUNK_DATA 10020024     advapi32:ADVAPI32.dll
 0002:00000028       __imp__GetObjectW@12       10020028     gdi32:GDI32.dll
 0002:0000002c       __imp__SelectObject@8      1002002c     gdi32:GDI32.dll
 0002:00000030       __imp__DeleteObject@4      10020030     gdi32:GDI32.dll
 0002:00000034       __imp__CreateCompatibleDC@4 10020034     gdi32:GDI32.dll
 0002:00000038       __imp__BitBlt@36           10020038     gdi32:GDI32.dll
 0002:0000003c       __imp__SetWindowOrgEx@16   1002003c     gdi32:GDI32.dll
 0002:00000040       __imp__SetWindowExtEx@16   10020040     gdi32:GDI32.dll
 0002:00000044       __imp__SetViewportOrgEx@16 10020044     gdi32:GDI32.dll
 0002:00000048       __imp__LPtoDP@12           10020048     gdi32:GDI32.dll
 0002:0000004c       __imp__SetMapMode@8        1002004c     gdi32:GDI32.dll
 0002:00000050       __imp__SaveDC@4            10020050     gdi32:GDI32.dll
 0002:00000054       __imp__RestoreDC@8         10020054     gdi32:GDI32.dll
 0002:00000058       __imp__GetDeviceCaps@8     10020058     gdi32:GDI32.dll
 0002:0000005c       __imp__DeleteMetaFile@4    1002005c     gdi32:GDI32.dll
 0002:00000060       __imp__DeleteDC@4          10020060     gdi32:GDI32.dll
 0002:00000064       __imp__CreateRectRgnIndirect@4 10020064     gdi32:GDI32.dll
 0002:00000068       __imp__CreateMetaFileW@4   10020068     gdi32:GDI32.dll
 0002:0000006c       __imp__CreateDCW@16        1002006c     gdi32:GDI32.dll
 0002:00000070       __imp__CloseMetaFile@4     10020070     gdi32:GDI32.dll
 0002:00000074       \177GDI32_NULL_THUNK_DATA  10020074     gdi32:GDI32.dll
 0002:00000078       __imp__CloseHandle@4       10020078     kernel32:KERNEL32.dll
 0002:0000007c       __imp__SetEvent@4          1002007c     kernel32:KERNEL32.dll
 0002:00000080       __imp__CreateMutexW@12     10020080     kernel32:KERNEL32.dll
 0002:00000084       __imp__CreateEventW@16     10020084     kernel32:KERNEL32.dll
 0002:00000088       __imp__GetCurrentProcessId@0 10020088     kernel32:KERNEL32.dll
 0002:0000008c       __imp__CreateFileW@28      1002008c     kernel32:KERNEL32.dll
 0002:00000090       __imp__GetConsoleMode@8    10020090     kernel32:KERNEL32.dll
 0002:00000094       __imp__GetConsoleCP@0      10020094     kernel32:KERNEL32.dll
 0002:00000098       __imp__WriteFile@20        10020098     kernel32:KERNEL32.dll
 0002:0000009c       __imp__FlushFileBuffers@4  1002009c     kernel32:KERNEL32.dll
 0002:000000a0       __imp__SetStdHandle@8      100200a0     kernel32:KERNEL32.dll
 0002:000000a4       __imp__GetStringTypeW@16   100200a4     kernel32:KERNEL32.dll
 0002:000000a8       __imp__SetFilePointerEx@20 100200a8     kernel32:KERNEL32.dll
 0002:000000ac       __imp__FreeEnvironmentStringsW@4 100200ac     kernel32:KERNEL32.dll
 0002:000000b0       __imp__GetEnvironmentStringsW@0 100200b0     kernel32:KERNEL32.dll
 0002:000000b4       __imp__lstrcmpiW@8         100200b4     kernel32:KERNEL32.dll
 0002:000000b8       __imp__GetCommandLineA@0   100200b8     kernel32:KERNEL32.dll
 0002:000000bc       __imp__GetCPInfo@8         100200bc     kernel32:KERNEL32.dll
 0002:000000c0       __imp__GetOEMCP@0          100200c0     kernel32:KERNEL32.dll
 0002:000000c4       __imp__GetACP@0            100200c4     kernel32:KERNEL32.dll
 0002:000000c8       __imp__IsValidCodePage@4   100200c8     kernel32:KERNEL32.dll
 0002:000000cc       __imp__FindNextFileW@8     100200cc     kernel32:KERNEL32.dll
 0002:000000d0       __imp__FindFirstFileExW@24 100200d0     kernel32:KERNEL32.dll
 0002:000000d4       __imp__FindClose@4         100200d4     kernel32:KERNEL32.dll
 0002:000000d8       __imp__GetFileType@4       100200d8     kernel32:KERNEL32.dll
 0002:000000dc       __imp__GetStdHandle@4      100200dc     kernel32:KERNEL32.dll
 0002:000000e0       __imp__LCMapStringW@24     100200e0     kernel32:KERNEL32.dll
 0002:000000e4       __imp__HeapReAlloc@16      100200e4     kernel32:KERNEL32.dll
 0002:000000e8       __imp__HeapSize@12         100200e8     kernel32:KERNEL32.dll
 0002:000000ec       __imp__MulDiv@12           100200ec     kernel32:KERNEL32.dll
 0002:000000f0       __imp__GlobalLock@4        100200f0     kernel32:KERNEL32.dll
 0002:000000f4       __imp__GlobalUnlock@4      100200f4     kernel32:KERNEL32.dll
 0002:000000f8       __imp__GlobalAlloc@8       100200f8     kernel32:KERNEL32.dll
 0002:000000fc       __imp__FindResourceW@12    100200fc     kernel32:KERNEL32.dll
 0002:00000100       __imp__SizeofResource@8    10020100     kernel32:KERNEL32.dll
 0002:00000104       __imp__LoadResource@8      10020104     kernel32:KERNEL32.dll
 0002:00000108       __imp__LoadLibraryExW@12   10020108     kernel32:KERNEL32.dll
 0002:0000010c       __imp__GetProcAddress@8    1002010c     kernel32:KERNEL32.dll
 0002:00000110       __imp__GetModuleHandleW@4  10020110     kernel32:KERNEL32.dll
 0002:00000114       __imp__GetModuleFileNameW@12 10020114     kernel32:KERNEL32.dll
 0002:00000118       __imp__FreeLibrary@4       10020118     kernel32:KERNEL32.dll
 0002:0000011c       __imp__DisableThreadLibraryCalls@4 1002011c     kernel32:KERNEL32.dll
 0002:00000120       __imp__GetCurrentThreadId@0 10020120     kernel32:KERNEL32.dll
 0002:00000124       __imp__Sleep@4             10020124     kernel32:KERNEL32.dll
 0002:00000128       __imp__WaitForSingleObject@8 10020128     kernel32:KERNEL32.dll
 0002:0000012c       __imp__ReleaseMutex@4      1002012c     kernel32:KERNEL32.dll
 0002:00000130       __imp__ResetEvent@4        10020130     kernel32:KERNEL32.dll
 0002:00000134       __imp__EnterCriticalSection@4 10020134     kernel32:KERNEL32.dll
 0002:00000138       __imp__LeaveCriticalSection@4 10020138     kernel32:KERNEL32.dll
 0002:0000013c       __imp__SetLastError@4      1002013c     kernel32:KERNEL32.dll
 0002:00000140       __imp__EncodePointer@4     10020140     kernel32:KERNEL32.dll
 0002:00000144       __imp__DeleteCriticalSection@4 10020144     kernel32:KERNEL32.dll
 0002:00000148       __imp__InitializeCriticalSectionEx@12 10020148     kernel32:KERNEL32.dll
 0002:0000014c       __imp__GetLastError@0      1002014c     kernel32:KERNEL32.dll
 0002:00000150       __imp__RaiseException@16   10020150     kernel32:KERNEL32.dll
 0002:00000154       __imp__DecodePointer@4     10020154     kernel32:KERNEL32.dll
 0002:00000158       __imp__WideCharToMultiByte@32 10020158     kernel32:KERNEL32.dll
 0002:0000015c       __imp__GetCommandLineW@0   1002015c     kernel32:KERNEL32.dll
 0002:00000160       __imp__MultiByteToWideChar@24 10020160     kernel32:KERNEL32.dll
 0002:00000164       __imp__WriteConsoleW@20    10020164     kernel32:KERNEL32.dll
 0002:00000168       __imp__GetModuleHandleExW@12 10020168     kernel32:KERNEL32.dll
 0002:0000016c       __imp__ExitProcess@4       1002016c     kernel32:KERNEL32.dll
 0002:00000170       __imp__VirtualQuery@12     10020170     kernel32:KERNEL32.dll
 0002:00000174       __imp__VirtualProtect@16   10020174     kernel32:KERNEL32.dll
 0002:00000178       __imp__GetSystemInfo@4     10020178     kernel32:KERNEL32.dll
 0002:0000017c       __imp__TlsFree@4           1002017c     kernel32:KERNEL32.dll
 0002:00000180       __imp__TlsSetValue@8       10020180     kernel32:KERNEL32.dll
 0002:00000184       __imp__TlsGetValue@4       10020184     kernel32:KERNEL32.dll
 0002:00000188       __imp__TlsAlloc@0          10020188     kernel32:KERNEL32.dll
 0002:0000018c       __imp__InterlockedFlushSList@4 1002018c     kernel32:KERNEL32.dll
 0002:00000190       __imp__RtlUnwind@16        10020190     kernel32:KERNEL32.dll
 0002:00000194       __imp__LoadLibraryExA@12   10020194     kernel32:KERNEL32.dll
 0002:00000198       __imp__VirtualFree@12      10020198     kernel32:KERNEL32.dll
 0002:0000019c       __imp__VirtualAlloc@16     1002019c     kernel32:KERNEL32.dll
 0002:000001a0       __imp__FlushInstructionCache@12 100201a0     kernel32:KERNEL32.dll
 0002:000001a4       __imp__InterlockedPushEntrySList@8 100201a4     kernel32:KERNEL32.dll
 0002:000001a8       __imp__InterlockedPopEntrySList@4 100201a8     kernel32:KERNEL32.dll
 0002:000001ac       __imp__GetProcessHeap@0    100201ac     kernel32:KERNEL32.dll
 0002:000001b0       __imp__HeapFree@12         100201b0     kernel32:KERNEL32.dll
 0002:000001b4       __imp__HeapAlloc@12        100201b4     kernel32:KERNEL32.dll
 0002:000001b8       __imp__OutputDebugStringW@4 100201b8     kernel32:KERNEL32.dll
 0002:000001bc       __imp__InitializeSListHead@4 100201bc     kernel32:KERNEL32.dll
 0002:000001c0       __imp__GetSystemTimeAsFileTime@4 100201c0     kernel32:KERNEL32.dll
 0002:000001c4       __imp__QueryPerformanceCounter@4 100201c4     kernel32:KERNEL32.dll
 0002:000001c8       __imp__GetStartupInfoW@4   100201c8     kernel32:KERNEL32.dll
 0002:000001cc       __imp__IsDebuggerPresent@0 100201cc     kernel32:KERNEL32.dll
 0002:000001d0       __imp__IsProcessorFeaturePresent@4 100201d0     kernel32:KERNEL32.dll
 0002:000001d4       __imp__TerminateProcess@8  100201d4     kernel32:KERNEL32.dll
 0002:000001d8       __imp__GetCurrentProcess@0 100201d8     kernel32:KERNEL32.dll
 0002:000001dc       __imp__SetUnhandledExceptionFilter@4 100201dc     kernel32:KERNEL32.dll
 0002:000001e0       __imp__UnhandledExceptionFilter@4 100201e0     kernel32:KERNEL32.dll
 0002:000001e4       __imp__InitializeCriticalSectionAndSpinCount@8 100201e4     kernel32:KERNEL32.dll
 0002:000001e8       __imp__WaitForSingleObjectEx@12 100201e8     kernel32:KERNEL32.dll
 0002:000001ec       \177KERNEL32_NULL_THUNK_DATA 100201ec     kernel32:KERNEL32.dll
 0002:000001f0       __imp__OleCreatePropertyFrame@44 100201f0     oleaut32:OLEAUT32.dll
 0002:000001f4       __imp__UnRegisterTypeLib@20 100201f4     oleaut32:OLEAUT32.dll
 0002:000001f8       __imp__RegisterTypeLib@12  100201f8     oleaut32:OLEAUT32.dll
 0002:000001fc       __imp__LoadRegTypeLib@20   100201fc     oleaut32:OLEAUT32.dll
 0002:00000200       __imp__LoadTypeLib@8       10020200     oleaut32:OLEAUT32.dll
 0002:00000204       __imp__VarUI4FromStr@16    10020204     oleaut32:OLEAUT32.dll
 0002:00000208       __imp__VariantInit@4       10020208     oleaut32:OLEAUT32.dll
 0002:0000020c       __imp__SysAllocStringByteLen@8 1002020c     oleaut32:OLEAUT32.dll
 0002:00000210       __imp__SysStringByteLen@4  10020210     oleaut32:OLEAUT32.dll
 0002:00000214       __imp__VariantChangeType@16 10020214     oleaut32:OLEAUT32.dll
 0002:00000218       __imp__VariantClear@4      10020218     oleaut32:OLEAUT32.dll
 0002:0000021c       __imp__SysStringLen@4      1002021c     oleaut32:OLEAUT32.dll
 0002:00000220       __imp__SysFreeString@4     10020220     oleaut32:OLEAUT32.dll
 0002:00000224       __imp__SysAllocStringLen@8 10020224     oleaut32:OLEAUT32.dll
 0002:00000228       __imp__SysAllocString@4    10020228     oleaut32:OLEAUT32.dll
 0002:0000022c       \177OLEAUT32_NULL_THUNK_DATA 1002022c     oleaut32:OLEAUT32.dll
 0002:00000230       __imp__UnregisterClassW@8  10020230     user32:USER32.dll
 0002:00000234       __imp__PostMessageW@16     10020234     user32:USER32.dll
 0002:00000238       __imp__DefWindowProcW@16   10020238     user32:USER32.dll
 0002:0000023c       __imp__CallWindowProcW@20  1002023c     user32:USER32.dll
 0002:00000240       __imp__RegisterClassExW@4  10020240     user32:USER32.dll
 0002:00000244       __imp__GetClassInfoExW@12  10020244     user32:USER32.dll
 0002:00000248       __imp__CreateWindowExW@48  10020248     user32:USER32.dll
 0002:0000024c       __imp__IsWindow@4          1002024c     user32:USER32.dll
 0002:00000250       __imp__IsChild@8           10020250     user32:USER32.dll
 0002:00000254       __imp__DestroyWindow@4     10020254     user32:USER32.dll
 0002:00000258       __imp__ShowWindow@8        10020258     user32:USER32.dll
 0002:0000025c       __imp__SetWindowPos@28     1002025c     user32:USER32.dll
 0002:00000260       __imp__CharNextW@4         10020260     user32:USER32.dll
 0002:00000264       __imp__SetFocus@4          10020264     user32:USER32.dll
 0002:00000268       __imp__LoadBitmapW@8       10020268     user32:USER32.dll
 0002:0000026c       __imp__RegisterClassW@4    1002026c     user32:USER32.dll
 0002:00000270       __imp__PeekMessageW@20     10020270     user32:USER32.dll
 0002:00000274       __imp__LoadCursorW@8       10020274     user32:USER32.dll
 0002:00000278       __imp__GetParent@4         10020278     user32:USER32.dll
 0002:0000027c       __imp__SetWindowLongW@12   1002027c     user32:USER32.dll
 0002:00000280       __imp__GetWindowLongW@8    10020280     user32:USER32.dll
 0002:00000284       __imp__PtInRect@12         10020284     user32:USER32.dll
 0002:00000288       __imp__EqualRect@8         10020288     user32:USER32.dll
 0002:0000028c       __imp__OffsetRect@12       1002028c     user32:USER32.dll
 0002:00000290       __imp__UnionRect@12        10020290     user32:USER32.dll
 0002:00000294       __imp__IntersectRect@12    10020294     user32:USER32.dll
 0002:00000298       __imp__GetClientRect@8     10020298     user32:USER32.dll
 0002:0000029c       __imp__InvalidateRect@12   1002029c     user32:USER32.dll
 0002:000002a0       __imp__SetWindowRgn@12     100202a0     user32:USER32.dll
 0002:000002a4       __imp__EndPaint@8          100202a4     user32:USER32.dll
 0002:000002a8       __imp__BeginPaint@8        100202a8     user32:USER32.dll
 0002:000002ac       __imp__ReleaseDC@8         100202ac     user32:USER32.dll
 0002:000002b0       __imp__GetDC@4             100202b0     user32:USER32.dll
 0002:000002b4       __imp__GetKeyState@4       100202b4     user32:USER32.dll
 0002:000002b8       __imp__GetFocus@0          100202b8     user32:USER32.dll
 0002:000002bc       \177USER32_NULL_THUNK_DATA 100202bc     user32:USER32.dll
 0002:000002c0       __imp__StringFromGUID2@12  100202c0     ole32:ole32.dll
 0002:000002c4       __imp__CoTaskMemAlloc@4    100202c4     ole32:ole32.dll
 0002:000002c8       __imp__CoTaskMemRealloc@8  100202c8     ole32:ole32.dll
 0002:000002cc       __imp__CoTaskMemFree@4     100202cc     ole32:ole32.dll
 0002:000002d0       __imp__ReadClassStm@8      100202d0     ole32:ole32.dll
 0002:000002d4       __imp__WriteClassStm@8     100202d4     ole32:ole32.dll
 0002:000002d8       __imp__CreateDataAdviseHolder@4 100202d8     ole32:ole32.dll
 0002:000002dc       __imp__OleSaveToStream@8   100202dc     ole32:ole32.dll
 0002:000002e0       __imp__CreateOleAdviseHolder@4 100202e0     ole32:ole32.dll
 0002:000002e4       __imp__OleRegGetUserType@12 100202e4     ole32:ole32.dll
 0002:000002e8       __imp__OleRegGetMiscStatus@12 100202e8     ole32:ole32.dll
 0002:000002ec       __imp__OleRegEnumVerbs@8   100202ec     ole32:ole32.dll
 0002:000002f0       __imp__CLSIDFromProgID@8   100202f0     ole32:ole32.dll
 0002:000002f4       __imp__CoCreateInstance@20 100202f4     ole32:ole32.dll
 0002:000002f8       \177ole32_NULL_THUNK_DATA  100202f8     ole32:ole32.dll
 0002:000002fc       ___guard_check_icall_fptr  100202fc     LIBCMT:guard_support.obj
 0002:00000300       ___xc_a                    10020300     LIBCMT:initializers.obj
 0002:00000318       ___xc_z                    10020318     LIBCMT:initializers.obj
 0002:0000031c       ___xi_a                    1002031c     LIBCMT:initializers.obj
 0002:00000324       ___acrt_stdio_initializer  10020324     libucrt:stdio_initializer.obj
 0002:00000328       ___acrt_multibyte_initializer 10020328     libucrt:multibyte_initializer.obj
 0002:0000032c       ___acrt_tran_sse2_initializer 1002032c     libucrt:sse2_initializer.obj
 0002:00000330       ___xi_z                    10020330     LIBCMT:initializers.obj
 0002:00000334       ___xl_a                    10020334     LIBCMT:tlssup.obj
 0002:00000338       ___xl_z                    10020338     LIBCMT:tlssup.obj
 0002:0000033c       ___xp_a                    1002033c     LIBCMT:initializers.obj
 0002:00000340       ___acrt_locale_terminator  10020340     libucrt:locale_initializer.obj
 0002:00000344       ___dcrt_console_output_terminator 10020344     libucrt:console_output_initializer.obj
 0002:00000348       ___acrt_stdio_terminator   10020348     libucrt:stdio_initializer.obj
 0002:0000034c       ___xp_z                    1002034c     LIBCMT:initializers.obj
 0002:00000350       ___xt_a                    10020350     LIBCMT:initializers.obj
 0002:00000354       ___xt_z                    10020354     LIBCMT:initializers.obj
 0002:00000360       ??_C@_13HADIAKP@?$AAS@     10020360     OposVariant.obj
 0002:00000364       ??_C@_13LHMFKAAD@?$AAM@    10020364     OposVariant.obj
 0002:00000368       ??_C@_13MKMNOPIJ@?$AAD@    10020368     OposVariant.obj
 0002:0000036c       ??_C@_13OPKGLAFF@?$AAB@    1002036c     OposVariant.obj
 0002:00000370       ??_C@_17LLMMEOJD@?$AAV?$AAa?$AAl@ 10020370     OposVariant.obj
 0002:00000378       ??_C@_1BI@JFAIJMHL@?$AAF?$AAo?$AAr?$AAc?$AAe?$AAR?$AAe?$AAm?$AAo?$AAv?$AAe@ 10020378     OposVariant.obj
 0002:00000390       ??_C@_1BC@GCKHIPE@?$AAN?$AAo?$AAR?$AAe?$AAm?$AAo?$AAv?$AAe@ 10020390     OposVariant.obj
 0002:000003a4       ??_C@_1O@JDLOHAN@?$AAD?$AAe?$AAl?$AAe?$AAt?$AAe@ 100203a4     OposVariant.obj
 0002:000003b4       ??_C@_11LOCGONAA@@         100203b4     OposVariant.obj
 0002:000003b8       ??_7CComClassFactory@ATL@@6B@ 100203b8     LineDisplay.obj
 0002:000003d0       ?_entries@?1??_GetEntries@CComClassFactory@ATL@@SGPBU_ATL_INTMAP_ENTRY@3@XZ@4QBU43@B 100203d0     LineDisplay.obj
 0002:000003e8       __GUID_00000001_0000_0000_c000_000000000046 100203e8     LineDisplay.obj
 0002:000003f8       _IID_IOPOSLineDisplay_1_6  100203f8     LineDisplay.obj
 0002:00000408       _IID_IOPOSLineDisplay_1_7  10020408     LineDisplay.obj
 0002:00000418       _IID_IOPOSLineDisplay_1_8  10020418     LineDisplay.obj
 0002:00000428       _IID_IOPOSLineDisplay_1_9  10020428     LineDisplay.obj
 0002:00000438       _IID_IOPOSLineDisplay      10020438     LineDisplay.obj
 0002:00000448       _LIBID_OposLineDisplay_CCO 10020448     LineDisplay.obj
 0002:00000458       _DIID__IOPOSLineDisplayEvents 10020458     LineDisplay.obj
 0002:00000468       _CLSID_OPOSLineDisplay     10020468     LineDisplay.obj
 0002:00000478       __GUID_00000114_0000_0000_c000_000000000046 10020478     LineDisplay.obj
 0002:00000488       ??_C@_1BK@BIGILECK@?$AAA?$AAd?$AAv?$AAa?$AAp?$AAi?$AA3?$AA2?$AA?4?$AAd?$AAl?$AAl@ 10020488     LineDisplay.obj
 0002:000004a4       ??_C@_0BI@MNCFCPFK@RegCreateKeyTransactedW@ 100204a4     LineDisplay.obj
 0002:000004bc       __GUID_b196b287_bab4_101a_b69c_00aa00341d07 100204bc     LineDisplay.obj
 0002:000004cc       __GUID_b196b285_bab4_101a_b69c_00aa00341d07 100204cc     LineDisplay.obj
 0002:000004dc       __GUID_a6bc3ac0_dbaa_11ce_9de3_00aa004bb851 100204dc     LineDisplay.obj
 0002:000004ec       __GUID_0000010c_0000_0000_c000_000000000046 100204ec     LineDisplay.obj
 0002:000004fc       __GUID_00000146_0000_0000_c000_000000000046 100204fc     LineDisplay.obj
 0002:00000510       ?_entries@?1??_GetEntries@COPOSLineDisplay@@SGPBU_ATL_INTMAP_ENTRY@ATL@@XZ@4QBU34@B 10020510     LineDisplay.obj
 0002:00000654       ??_7CComModule@ATL@@6B@    10020654     LineDisplay.obj
 0002:0000067c       __GUID_922eada0_3424_11cf_b670_00aa004cd6d8 1002067c     LineDisplay.obj
 0002:0000068c       __GUID_9c2cad80_3424_11cf_b670_00aa004cd6d8 1002068c     LineDisplay.obj
 0002:0000069c       __GUID_00000119_0000_0000_c000_000000000046 1002069c     LineDisplay.obj
 0002:000006ac       __GUID_b196b289_bab4_101a_b69c_00aa00341d07 100206ac     LineDisplay.obj
 0002:000006bc       __GUID_cf51ed10_62fe_11cf_bf86_00a0c9034836 100206bc     LineDisplay.obj
 0002:000006cc       __GUID_0000010a_0000_0000_c000_000000000046 100206cc     LineDisplay.obj
 0002:000006dc       __GUID_b196b283_bab4_101a_b69c_00aa00341d07 100206dc     LineDisplay.obj
 0002:000006ec       __GUID_cb5bdc81_93c1_11cf_8f20_00805f2cd064 100206ec     LineDisplay.obj
 0002:00000700       ?pPropMap@?1??GetPropertyMap@COPOSLineDisplay@@SAPBUATL_PROPMAP_ENTRY@ATL@@XZ@4QBU34@B 10020700     LineDisplay.obj
 0002:0000076c       ??_C@_17DGDADEHL@?$AA_?$AAc?$AAx@ 1002076c     LineDisplay.obj
 0002:00000774       ??_C@_17IOIMFDBO@?$AA_?$AAc?$AAy@ 10020774     LineDisplay.obj
 0002:0000077c       __GUID_00000000_0000_0000_c000_000000000046 1002077c     LineDisplay.obj
 0002:0000078c       __GUID_00020400_0000_0000_c000_000000000046 1002078c     LineDisplay.obj
 0002:0000079c       __GUID_00000117_0000_0000_c000_000000000046 1002079c     LineDisplay.obj
 0002:000007ac       ??_7?$CComObjectCached@VCComClassFactory@ATL@@@ATL@@6B@ 100207ac     LineDisplay.obj
 0002:000007c4       ??_C@_1CE@PGFMOFKI@?$AAS?$AAt?$AAa?$AAt?$AAu?$AAs?$AAU?$AAp?$AAd?$AAa?$AAt?$AAe?$AAE?$AAv?$AAe@ 100207c4     LineDisplay.obj
 0002:000007e8       ??_C@_1BM@CBGEBBBJ@?$AAD?$AAi?$AAr?$AAe?$AAc?$AAt?$AAI?$AAO?$AAE?$AAv?$AAe?$AAn?$AAt@ 100207e8     LineDisplay.obj
 0002:00000804       __GUID_b196b286_bab4_101a_b69c_00aa00341d07 10020804     LineDisplay.obj
 0002:00000814       ??_C@_1BC@ENICKDH@?$AAC?$AAo?$AAn?$AAt?$AAe?$AAn?$AAt?$AAs@ 10020814     LineDisplay.obj
 0002:00000828       ??_7?$CComObject@V?$CComEnum@UIEnumConnectionPoints@@$1?_GUID_b196b285_bab4_101a_b69c_00aa00341d07@@3U__s_GUID@@BPAUIConnectionPoint@@V?$_CopyInterface@UIConnectionPoint@@@ATL@@VCComSingleThreadModel@6@@ATL@@@ATL@@6B@ 10020828     LineDisplay.obj
 0002:00000848       ??_C@_1M@KANJNLFF@?$AAC?$AAL?$AAS?$AAI?$AAD@ 10020848     LineDisplay.obj
 0002:00000854       ??_C@_1M@EJNEECMJ@?$AAA?$AAp?$AAp?$AAI?$AAD@ 10020854     LineDisplay.obj
 0002:00000860       __GUID_0000010e_0000_0000_c000_000000000046 10020860     LineDisplay.obj
 0002:00000870       __GUID_b196b288_bab4_101a_b69c_00aa00341d07 10020870     LineDisplay.obj
 0002:00000880       ?rgszNeverDelete@CRegParser@ATL@@1QBQB_WB 10020880     LineDisplay.obj
 0002:000008b0       ??_7CRegObject@ATL@@6B@    100208b0     LineDisplay.obj
 0002:000008c8       __GUID_00000113_0000_0000_c000_000000000046 100208c8     LineDisplay.obj
 0002:000008d8       __GUID_1c2056cc_5ef4_101b_8bc8_00aa003e3b29 100208d8     LineDisplay.obj
 0002:000008e8       ??_C@_1CK@OEKPKBNA@?$AAC?$AAo?$AAm?$AAp?$AAo?$AAn?$AAe?$AAn?$AAt?$AA?5?$AAC?$AAa?$AAt?$AAe?$AAg@ 100208e8     LineDisplay.obj
 0002:00000914       ??_C@_1BC@NKMMNMGL@?$AAF?$AAi?$AAl?$AAe?$AAT?$AAy?$AAp?$AAe@ 10020914     LineDisplay.obj
 0002:00000928       ??_C@_1BE@EKPAFMCP@?$AAI?$AAn?$AAt?$AAe?$AAr?$AAf?$AAa?$AAc?$AAe@ 10020928     LineDisplay.obj
 0002:0000093c       ??_C@_1BC@MAICEHGI@?$AAH?$AAa?$AAr?$AAd?$AAw?$AAa?$AAr?$AAe@ 1002093c     LineDisplay.obj
 0002:00000950       ??_C@_19HLLLM@?$AAM?$AAi?$AAm?$AAe@ 10020950     LineDisplay.obj
 0002:0000095c       ??_C@_17OMAOINJK@?$AAS?$AAA?$AAM@ 1002095c     LineDisplay.obj
 0002:00000964       ??_C@_1BC@IBECJAAI@?$AAS?$AAE?$AAC?$AAU?$AAR?$AAI?$AAT?$AAY@ 10020964     LineDisplay.obj
 0002:00000978       ??_C@_1O@GBFINDKL@?$AAS?$AAY?$AAS?$AAT?$AAE?$AAM@ 10020978     LineDisplay.obj
 0002:00000988       ??_C@_1BC@EAHCMADO@?$AAS?$AAo?$AAf?$AAt?$AAw?$AAa?$AAr?$AAe@ 10020988     LineDisplay.obj
 0002:0000099c       ??_C@_1BA@JIHHIEDE@?$AAT?$AAy?$AAp?$AAe?$AAL?$AAi?$AAb@ 1002099c     LineDisplay.obj
 0002:000009b0       ?map@?1??HKeyFromString@CRegParser@ATL@@KAPAUHKEY__@@PA_W@Z@4QBUkeymap@?1??123@KAPAU4@0@Z@B 100209b0     LineDisplay.obj
 0002:00000a20       ??_C@_19NCHLBIN@?$AAH?$AAK?$AAC?$AAR@ 10020a20     LineDisplay.obj
 0002:00000a2c       ??_C@_19JAPAIJDE@?$AAH?$AAK?$AAC?$AAU@ 10020a2c     LineDisplay.obj
 0002:00000a38       ??_C@_19PEALEEJB@?$AAH?$AAK?$AAL?$AAM@ 10020a38     LineDisplay.obj
 0002:00000a44       ??_C@_17PJOJPMPB@?$AAH?$AAK?$AAU@ 10020a44     LineDisplay.obj
 0002:00000a4c       ??_C@_19PNBHMJPL@?$AAH?$AAK?$AAP?$AAD@ 10020a4c     LineDisplay.obj
 0002:00000a58       ??_C@_19GFFAIJHG@?$AAH?$AAK?$AAD?$AAD@ 10020a58     LineDisplay.obj
 0002:00000a64       ??_C@_19OFICIBHH@?$AAH?$AAK?$AAC?$AAC@ 10020a64     LineDisplay.obj
 0002:00000a70       ??_C@_1CE@PACHPJFI@?$AAH?$AAK?$AAE?$AAY?$AA_?$AAC?$AAL?$AAA?$AAS?$AAS?$AAE?$AAS?$AA_?$AAR?$AAO@ 10020a70     LineDisplay.obj
 0002:00000a94       ??_C@_1CE@HLHNCBPM@?$AAH?$AAK?$AAE?$AAY?$AA_?$AAC?$AAU?$AAR?$AAR?$AAE?$AAN?$AAT?$AA_?$AAU?$AAS@ 10020a94     LineDisplay.obj
 0002:00000ab8       ??_C@_1CG@GFBEANJL@?$AAH?$AAK?$AAE?$AAY?$AA_?$AAL?$AAO?$AAC?$AAA?$AAL?$AA_?$AAM?$AAA?$AAC?$AAH@ 10020ab8     LineDisplay.obj
 0002:00000ae0       ??_C@_1BG@BGODANIO@?$AAH?$AAK?$AAE?$AAY?$AA_?$AAU?$AAS?$AAE?$AAR?$AAS@ 10020ae0     LineDisplay.obj
 0002:00000af8       ??_C@_1CM@KHNNAOIC@?$AAH?$AAK?$AAE?$AAY?$AA_?$AAP?$AAE?$AAR?$AAF?$AAO?$AAR?$AAM?$AAA?$AAN?$AAC@ 10020af8     LineDisplay.obj
 0002:00000b24       ??_C@_1BM@HAGMMHIA@?$AAH?$AAK?$AAE?$AAY?$AA_?$AAD?$AAY?$AAN?$AA_?$AAD?$AAA?$AAT?$AAA@ 10020b24     LineDisplay.obj
 0002:00000b40       ??_C@_1CI@BBJOACGG@?$AAH?$AAK?$AAE?$AAY?$AA_?$AAC?$AAU?$AAR?$AAR?$AAE?$AAN?$AAT?$AA_?$AAC?$AAO@ 10020b40     LineDisplay.obj
 0002:00000b68       __GUID_00000112_0000_0000_c000_000000000046 10020b68     LineDisplay.obj
 0002:00000b78       __GUID_00000109_0000_0000_c000_000000000046 10020b78     LineDisplay.obj
 0002:00000b88       __GUID_7fd52380_4e07_101b_ae2d_08002b2ec713 10020b88     LineDisplay.obj
 0002:00000b98       __GUID_3af24292_0c96_11ce_a0cf_00aa00600ab8 10020b98     LineDisplay.obj
 0002:00000ba8       __GUID_00000127_0000_0000_c000_000000000046 10020ba8     LineDisplay.obj
 0002:00000bb8       __GUID_0000010d_0000_0000_c000_000000000046 10020bb8     LineDisplay.obj
 0002:00000bc8       ??_C@_1EA@NHKLICFA@?$AAH?$AAK?$AAC?$AAU?$AA?$AN?$AA?6?$AA?$HL?$AA?7?$AAS?$AAo?$AAf?$AAt?$AAw?$AAa?$AAr@ 10020bc8     LineDisplay.obj
 0002:00000c08       ??_C@_1BE@LJOLIMEM@?$AA?$AN?$AA?6?$AA?7?$AA?$HN?$AA?$AN?$AA?6?$AA?$HN?$AA?$AN?$AA?6@ 10020c08     LineDisplay.obj
 0002:00000c1c       ??_C@_1O@MNLDABAF@?$AAM?$AAo?$AAd?$AAu?$AAl?$AAe@ 10020c1c     LineDisplay.obj
 0002:00000c2c       ??_C@_1BG@JBACFMF@?$AAM?$AAo?$AAd?$AAu?$AAl?$AAe?$AA_?$AAR?$AAa?$AAw@ 10020c2c     LineDisplay.obj
 0002:00000c44       ??_C@_1BC@KAILKFFG@?$AAR?$AAE?$AAG?$AAI?$AAS?$AAT?$AAR?$AAY@ 10020c44     LineDisplay.obj
 0002:00000c58       ??_C@_1M@PPPPCDEP@?$AAA?$AAP?$AAP?$AAI?$AAD@ 10020c58     LineDisplay.obj
 0002:00000c64       ??_7?$CComContainedObject@VCOPOSLineDisplay@@@ATL@@6B?$IDispatchImpl@UIOPOSLineDisplay@@$1?IID_IOPOSLineDisplay@@3U_GUID@@B$1?LIBID_OposLineDisplay_CCO@@3U3@B$00$0A@VCComTypeInfoHolder@ATL@@@1@@ 10020c64     LineDisplay.obj
 0002:00000e48       ??_7?$CComContainedObject@VCOPOSLineDisplay@@@ATL@@6BCComControlBase@1@@ 10020e48     LineDisplay.obj
 0002:00000e5c       ??_7?$CComContainedObject@VCOPOSLineDisplay@@@ATL@@6B?$CWindowImpl@VCOPOSLineDisplay@@VCWindow@ATL@@V?$CWinTraits@$0FGAAAAAA@$0A@@3@@1@@ 10020e5c     LineDisplay.obj
 0002:00000e6c       ??_7?$CComContainedObject@VCOPOSLineDisplay@@@ATL@@6B?$IPersistStreamInitImpl@VCOPOSLineDisplay@@@1@@ 10020e6c     LineDisplay.obj
 0002:00000e90       ??_7?$CComContainedObject@VCOPOSLineDisplay@@@ATL@@6B?$IOleControlImpl@VCOPOSLineDisplay@@@1@@ 10020e90     LineDisplay.obj
 0002:00000eac       ??_7?$CComContainedObject@VCOPOSLineDisplay@@@ATL@@6B?$IOleObjectImpl@VCOPOSLineDisplay@@@1@@ 10020eac     LineDisplay.obj
 0002:00000f0c       ??_7?$CComContainedObject@VCOPOSLineDisplay@@@ATL@@6B?$IOleInPlaceActiveObjectImpl@VCOPOSLineDisplay@@@1@@ 10020f0c     LineDisplay.obj
 0002:00000f34       ??_7?$CComContainedObject@VCOPOSLineDisplay@@@ATL@@6B?$IViewObjectExImpl@VCOPOSLineDisplay@@@1@@ 10020f34     LineDisplay.obj
 0002:00000f70       ??_7?$CComContainedObject@VCOPOSLineDisplay@@@ATL@@6B?$IOleInPlaceObjectWindowlessImpl@VCOPOSLineDisplay@@@1@@ 10020f70     LineDisplay.obj
 0002:00000f9c       ??_7?$CComContainedObject@VCOPOSLineDisplay@@@ATL@@6B?$IConnectionPointContainerImpl@VCOPOSLineDisplay@@@1@@ 10020f9c     LineDisplay.obj
 0002:00000fb0       ??_7?$CComContainedObject@VCOPOSLineDisplay@@@ATL@@6B?$IPersistStorageImpl@VCOPOSLineDisplay@@@1@@ 10020fb0     LineDisplay.obj
 0002:00000fd8       ??_7?$CComContainedObject@VCOPOSLineDisplay@@@ATL@@6B?$ISpecifyPropertyPagesImpl@VCOPOSLineDisplay@@@1@@ 10020fd8     LineDisplay.obj
 0002:00000fe8       ??_7?$CComContainedObject@VCOPOSLineDisplay@@@ATL@@6B?$IQuickActivateImpl@VCOPOSLineDisplay@@@1@@ 10020fe8     LineDisplay.obj
 0002:00001000       ??_7?$CComContainedObject@VCOPOSLineDisplay@@@ATL@@6B?$IDataObjectImpl@VCOPOSLineDisplay@@@1@@ 10021000     LineDisplay.obj
 0002:00001030       ??_7?$CComContainedObject@VCOPOSLineDisplay@@@ATL@@6B?$IProvideClassInfo2Impl@$1?CLSID_OPOSLineDisplay@@3U_GUID@@B$1?DIID__IOPOSLineDisplayEvents@@3U2@B$1?LIBID_OposLineDisplay_CCO@@3U2@B$00$0A@VCComTypeInfoHolder@ATL@@@1@@ 10021030     LineDisplay.obj
 0002:00001044       ??_7?$CComContainedObject@VCOPOSLineDisplay@@@ATL@@6B?$IObjectSafetyImpl@VCOPOSLineDisplay@@$02@1@@ 10021044     LineDisplay.obj
 0002:0000105c       ??_7?$CComContainedObject@VCOPOSLineDisplay@@@ATL@@6B?$IPropertyNotifySinkCP@VCOPOSLineDisplay@@VCComDynamicUnkArray@ATL@@@1@@ 1002105c     LineDisplay.obj
 0002:0000107c       ??_7?$CComContainedObject@VCOPOSLineDisplay@@@ATL@@6B?$CProxy_IOPOSEvents@VCOPOSLineDisplay@@@@@ 1002107c     LineDisplay.obj
 0002:0000109c       ??_7?$CComAggObject@VCOPOSLineDisplay@@@ATL@@6B@ 1002109c     LineDisplay.obj
 0002:000010ac       ??_7?$CComObject@VCOPOSLineDisplay@@@ATL@@6B?$IDispatchImpl@UIOPOSLineDisplay@@$1?IID_IOPOSLineDisplay@@3U_GUID@@B$1?LIBID_OposLineDisplay_CCO@@3U3@B$00$0A@VCComTypeInfoHolder@ATL@@@1@@ 100210ac     LineDisplay.obj
 0002:00001290       ??_7?$CComObject@VCOPOSLineDisplay@@@ATL@@6BCComControlBase@1@@ 10021290     LineDisplay.obj
 0002:000012a4       ??_7?$CComObject@VCOPOSLineDisplay@@@ATL@@6B?$CWindowImpl@VCOPOSLineDisplay@@VCWindow@ATL@@V?$CWinTraits@$0FGAAAAAA@$0A@@3@@1@@ 100212a4     LineDisplay.obj
 0002:000012b4       ??_7?$CComObject@VCOPOSLineDisplay@@@ATL@@6B?$IPersistStreamInitImpl@VCOPOSLineDisplay@@@1@@ 100212b4     LineDisplay.obj
 0002:000012d8       ??_7?$CComObject@VCOPOSLineDisplay@@@ATL@@6B?$IOleControlImpl@VCOPOSLineDisplay@@@1@@ 100212d8     LineDisplay.obj
 0002:000012f4       ??_7?$CComObject@VCOPOSLineDisplay@@@ATL@@6B?$IOleObjectImpl@VCOPOSLineDisplay@@@1@@ 100212f4     LineDisplay.obj
 0002:00001354       ??_7?$CComObject@VCOPOSLineDisplay@@@ATL@@6B?$IOleInPlaceActiveObjectImpl@VCOPOSLineDisplay@@@1@@ 10021354     LineDisplay.obj
 0002:0000137c       ??_7?$CComObject@VCOPOSLineDisplay@@@ATL@@6B?$IViewObjectExImpl@VCOPOSLineDisplay@@@1@@ 1002137c     LineDisplay.obj
 0002:000013b8       ??_7?$CComObject@VCOPOSLineDisplay@@@ATL@@6B?$IOleInPlaceObjectWindowlessImpl@VCOPOSLineDisplay@@@1@@ 100213b8     LineDisplay.obj
 0002:000013e4       ??_7?$CComObject@VCOPOSLineDisplay@@@ATL@@6B?$IConnectionPointContainerImpl@VCOPOSLineDisplay@@@1@@ 100213e4     LineDisplay.obj
 0002:000013f8       ??_7?$CComObject@VCOPOSLineDisplay@@@ATL@@6B?$IPersistStorageImpl@VCOPOSLineDisplay@@@1@@ 100213f8     LineDisplay.obj
 0002:00001420       ??_7?$CComObject@VCOPOSLineDisplay@@@ATL@@6B?$ISpecifyPropertyPagesImpl@VCOPOSLineDisplay@@@1@@ 10021420     LineDisplay.obj
 0002:00001430       ??_7?$CComObject@VCOPOSLineDisplay@@@ATL@@6B?$IQuickActivateImpl@VCOPOSLineDisplay@@@1@@ 10021430     LineDisplay.obj
 0002:00001448       ??_7?$CComObject@VCOPOSLineDisplay@@@ATL@@6B?$IDataObjectImpl@VCOPOSLineDisplay@@@1@@ 10021448     LineDisplay.obj
 0002:00001478       ??_7?$CComObject@VCOPOSLineDisplay@@@ATL@@6B?$IProvideClassInfo2Impl@$1?CLSID_OPOSLineDisplay@@3U_GUID@@B$1?DIID__IOPOSLineDisplayEvents@@3U2@B$1?LIBID_OposLineDisplay_CCO@@3U2@B$00$0A@VCComTypeInfoHolder@ATL@@@1@@ 10021478     LineDisplay.obj
 0002:0000148c       ??_7?$CComObject@VCOPOSLineDisplay@@@ATL@@6B?$IObjectSafetyImpl@VCOPOSLineDisplay@@$02@1@@ 1002148c     LineDisplay.obj
 0002:000014a4       ??_7?$CComObject@VCOPOSLineDisplay@@@ATL@@6B?$IPropertyNotifySinkCP@VCOPOSLineDisplay@@VCComDynamicUnkArray@ATL@@@1@@ 100214a4     LineDisplay.obj
 0002:000014c4       ??_7?$CComObject@VCOPOSLineDisplay@@@ATL@@6B?$CProxy_IOPOSEvents@VCOPOSLineDisplay@@@@@ 100214c4     LineDisplay.obj
 0002:000014e4       ??_C@_1O@GBFKGNEO@?$AAA?$AAT?$AAL?$AA?3?$AA?$CF?$AAp@ 100214e4     LineDisplay.obj
 0002:000014f4       ??_C@_1BA@PICGEGJB@?$AAD?$AAI?$AAS?$AAP?$AAL?$AAA?$AAY@ 100214f4     LineDisplay.obj
 0002:00001504       __GUID_9bfbbc02_eff1_101a_84ed_00aa00341d07 10021504     LineDisplay.obj
 0002:00001514       __GUID_b196b284_bab4_101a_b69c_00aa00341d07 10021514     LineDisplay.obj
 0002:00001524       ?_entries@?1??_GetEntries@?$CComEnum@UIEnumConnectionPoints@@$1?_GUID_b196b285_bab4_101a_b69c_00aa00341d07@@3U__s_GUID@@BPAUIConnectionPoint@@V?$_CopyInterface@UIConnectionPoint@@@ATL@@VCComSingleThreadModel@6@@ATL@@SGPBU_ATL_INTMAP_ENTRY@3@XZ@4QBU43@B 10021524     LineDisplay.obj
 0002:0000153c       __GUID_00020412_0000_0000_c000_000000000046 1002153c     LineDisplay.obj
 0002:0000154c       __GUID_00020401_0000_0000_c000_000000000046 1002154c     LineDisplay.obj
 0002:0000155c       __GUID_55980ba0_35aa_11cf_b671_00aa004cd6d8 1002155c     LineDisplay.obj
 0002:0000156c       __GUID_b196b28b_bab4_101a_b69c_00aa00341d07 1002156c     LineDisplay.obj
 0002:0000157c       ??_7?$CComObject@V?$CComEnum@UIEnumConnections@@$1?_GUID_b196b287_bab4_101a_b69c_00aa00341d07@@3U__s_GUID@@BUtagCONNECTDATA@@V?$_Copy@UtagCONNECTDATA@@@ATL@@VCComSingleThreadModel@6@@ATL@@@ATL@@6B@ 1002157c     LineDisplay.obj
 0002:0000159c       ?_entries@?1??_GetEntries@?$CComEnum@UIEnumConnections@@$1?_GUID_b196b287_bab4_101a_b69c_00aa00341d07@@3U__s_GUID@@BUtagCONNECTDATA@@V?$_Copy@UtagCONNECTDATA@@@ATL@@VCComSingleThreadModel@6@@ATL@@SGPBU_ATL_INTMAP_ENTRY@3@XZ@4QBU43@B 1002159c     LineDisplay.obj
 0002:000015b4       ??_C@_0BG@EKFFMJIO@RegOpenKeyTransactedW@ 100215b4     LineDisplay.obj
 0002:000015cc       ??_C@_0BI@HAKLOOGP@RegDeleteKeyTransactedW@ 100215cc     LineDisplay.obj
 0002:000015e4       ??_C@_0BA@LILAPHGE@RegDeleteKeyExW@ 100215e4     LineDisplay.obj
 0002:000015f4       ??_C@_19ILOCMLCJ@?$AA?4?$AAt?$AAl?$AAb@ 100215f4     LineDisplay.obj
 0002:00001600       __GUID_0002e012_0000_0000_c000_000000000046 10021600     LineDisplay.obj
 0002:00001610       ??_C@_1O@FHBGLCIO@?$AAC?$AAL?$AAS?$AAI?$AAD?$AA?2@ 10021610     LineDisplay.obj
 0002:00001620       ??_C@_1CK@IFBKBFAA@?$AA?2?$AAR?$AAe?$AAq?$AAu?$AAi?$AAr?$AAe?$AAd?$AA?5?$AAC?$AAa?$AAt?$AAe?$AAg@ 10021620     LineDisplay.obj
 0002:0000164c       ??_C@_1DA@BIHALFED@?$AA?2?$AAI?$AAm?$AAp?$AAl?$AAe?$AAm?$AAe?$AAn?$AAt?$AAe?$AAd?$AA?5?$AAC?$AAa@ 1002164c     LineDisplay.obj
 0002:0000167c       ??_C@_1BK@EDKOLFBJ@?$AAO?$AAL?$AAE?$AAA?$AAU?$AAT?$AA3?$AA2?$AA?4?$AAD?$AAL?$AAL@ 1002167c     LineDisplay.obj
 0002:00001698       ??_C@_0BJ@CNLFOMHB@UnRegisterTypeLibForUser@ 10021698     LineDisplay.obj
 0002:000016b4       ??_C@_0BH@LBOMMKPJ@RegisterTypeLibForUser@ 100216b4     LineDisplay.obj
 0002:000016cc       ??_C@_0P@MMNMMLGK@COFreezeEvents@ 100216cc     LineDisplayImpl.obj
 0002:000016dc       ??_C@_0BC@OGCGGIMP@GetPropertyNumber@ 100216dc     LineDisplayImpl.obj
 0002:000016f0       ??_C@_0BC@MDCNODNB@SetPropertyNumber@ 100216f0     LineDisplayImpl.obj
 0002:00001704       ??_C@_0BC@CFCCMIMD@GetPropertyString@ 10021704     LineDisplayImpl.obj
 0002:00001718       ??_C@_0BC@CJEDNN@SetPropertyString@ 10021718     LineDisplayImpl.obj
 0002:0000172c       ??_C@_0M@LNPKKKDA@OpenService@ 1002172c     LineDisplayImpl.obj
 0002:00001738       ??_C@_0M@PCMCHHMH@CheckHealth@ 10021738     LineDisplayImpl.obj
 0002:00001744       ??_C@_0M@JGMIDNEK@ClaimDevice@ 10021744     LineDisplayImpl.obj
 0002:00001750       ??_C@_0N@DDFIIBMP@CloseService@ 10021750     LineDisplayImpl.obj
 0002:00001760       ??_C@_08EEIHICPC@DirectIO@ 10021760     LineDisplayImpl.obj
 0002:0000176c       ??_C@_0O@BCPMENMJ@ReleaseDevice@ 1002176c     LineDisplayImpl.obj
 0002:0000177c       ??_C@_0BB@LBBDKCMB@ClearDescriptors@ 1002177c     LineDisplayImpl.obj
 0002:00001790       ??_C@_09PAFFPHPO@ClearText@ 10021790     LineDisplayImpl.obj
 0002:0000179c       ??_C@_0N@GKGFHBLO@CreateWindow@ 1002179c     LineDisplayImpl.obj
 0002:000017ac       ??_C@_0O@MCOBDHHO@DestroyWindow@ 100217ac     LineDisplayImpl.obj
 0002:000017bc       ??_C@_0M@CHHJKFGA@DisplayText@ 100217bc     LineDisplayImpl.obj
 0002:000017c8       ??_C@_0O@PJEKEALM@DisplayTextAt@ 100217c8     LineDisplayImpl.obj
 0002:000017d8       ??_C@_0O@BPAIAKEK@RefreshWindow@ 100217d8     LineDisplayImpl.obj
 0002:000017e8       ??_C@_0L@HLJABBJB@ScrollText@ 100217e8     LineDisplayImpl.obj
 0002:000017f4       ??_C@_0O@JAKKJJFE@SetDescriptor@ 100217f4     LineDisplayImpl.obj
 0002:00001804       ??_C@_0M@HGHNLBH@DefineGlyph@ 10021804     LineDisplayImpl.obj
 0002:00001810       ??_C@_0BG@PNMCMCLO@ReadCharacterAtCursor@ 10021810     LineDisplayImpl.obj
 0002:00001828       ??_C@_0O@DOEGFPMD@DisplayBitmap@ 10021828     LineDisplayImpl.obj
 0002:00001838       ??_C@_09CPODHKLB@SetBitmap@ 10021838     LineDisplayImpl.obj
 0002:00001844       ??_C@_0BA@GFABKEEE@ResetStatistics@ 10021844     LineDisplayImpl.obj
 0002:00001854       ??_C@_0BD@DPALHJGC@RetrieveStatistics@ 10021854     LineDisplayImpl.obj
 0002:00001868       ??_C@_0BB@KOHIKNFC@UpdateStatistics@ 10021868     LineDisplayImpl.obj
 0002:0000187c       ??_C@_0BH@PBKBNMGB@CompareFirmwareVersion@ 1002187c     LineDisplayImpl.obj
 0002:00001894       ??_C@_0P@FBPDPIPA@UpdateFirmware@ 10021894     LineDisplayImpl.obj
 0002:000018a4       ??_7?$CProxy_IOPOSEvents@VCOPOSLineDisplay@@@@6B@ 100218a4     LineDisplayImpl.obj
 0002:000018c4       ??_C@_1BA@IFHENID@?$AA?$FL?$AAE?$AAr?$AAr?$AAo?$AAr?$AA?$FN@ 100218c4     LineDisplayImpl.obj
 0002:000018d4       ??_C@_0CO@CPNIBGBK@SOFTWARE?2OLEforRetail?2ServiceOP@ 100218d4     LineDisplayImpl.obj
 0002:00001904       ??_C@_1M@IAIJHCCH@?$AAC?$AAl?$AAo?$AAs?$AAe@ 10021904     LineDisplayImpl.obj
 0002:00001910       ??_C@_1M@PCPKGJAH@?$AAC?$AAl?$AAa?$AAi?$AAm@ 10021910     LineDisplayImpl.obj
 0002:0000191c       ??_C@_1BA@NDFKIOCP@?$AAR?$AAe?$AAl?$AAe?$AAa?$AAs?$AAe@ 1002191c     LineDisplayImpl.obj
 0002:0000192c       ??_C@_0M@ECIFOKOG@LineDisplay@ 1002192c     LineDisplayImpl.obj
 0002:00001938       ??_C@_1BM@IJMNMBPK@?$AAG?$AAe?$AAt?$AAO?$AAp?$AAe?$AAn?$AAR?$AAe?$AAs?$AAu?$AAl?$AAt@ 10021938     LineDisplayImpl.obj
 0002:00001954       _IID_IPropertyNotifySink   10021954     uuid:ocidl_i.obj
 0002:00001964       _GUID_NULL                 10021964     uuid:cguid_i.obj
 0002:00001974       _CLSID_StdGlobalInterfaceTable 10021974     uuid:cguid_i.obj
 0002:00001984       _IID_IDispatch             10021984     uuid:oaidl_i.obj
 0002:00001994       _CLSID_StdComponentCategoriesMgr 10021994     uuid:ieguids.obj
 0002:000019a4       _IID_IUnknown              100219a4     uuid:unknwn_i.obj
 0002:000019b8       ??_C@_1EC@JIJBPKFM@?$AAa?$AAp?$AAi?$AA?9?$AAm?$AAs?$AA?9?$AAw?$AAi?$AAn?$AA?9?$AAc?$AAo?$AAr?$AAe@ 100219b8     LIBCMT:thread_safe_statics.obj
 0002:000019fc       ??_C@_1BK@MGMFAEKH@?$AAk?$AAe?$AAr?$AAn?$AAe?$AAl?$AA3?$AA2?$AA?4?$AAd?$AAl?$AAl@ 100219fc     LIBCMT:thread_safe_statics.obj
 0002:00001a18       ??_C@_0BJ@JEBJOJFJ@SleepConditionVariableCS@ 10021a18     LIBCMT:thread_safe_statics.obj
 0002:00001a34       ??_C@_0BJ@PGPPEPCC@WakeAllConditionVariable@ 10021a34     LIBCMT:thread_safe_statics.obj
 0002:00001a4d       ?nothrow@std@@3Unothrow_t@1@B 10021a4d     LIBCMT:std_nothrow.obj
 0002:00001a58       __pDefaultRawDllMain       10021a58     LIBCMT:dll_dllmain.obj
 0002:00001a58       __pRawDllMain              10021a58     LIBCMT:dll_dllmain.obj
 0002:00001a60       ??_7exception@std@@6B@     10021a60     LIBCMT:throw_bad_alloc.obj
 0002:00001a68       ??_C@_0BC@EOODALEL@Unknown?5exception@ 10021a68     LIBCMT:throw_bad_alloc.obj
 0002:00001a80       ??_7bad_alloc@std@@6B@     10021a80     LIBCMT:throw_bad_alloc.obj
 0002:00001a88       ??_C@_0P@GHFPNOJB@bad?5allocation@ 10021a88     LIBCMT:throw_bad_alloc.obj
 0002:00001a9c       ??_7bad_array_new_length@std@@6B@ 10021a9c     LIBCMT:throw_bad_alloc.obj
 0002:00001aa4       ??_C@_0BF@KINCDENJ@bad?5array?5new?5length@ 10021aa4     LIBCMT:throw_bad_alloc.obj
 0002:00001ac0       ??_7type_info@@6B@         10021ac0     LIBCMT:std_type_info_static.obj
 0002:00001ac4       _GUID_ATLVer110            10021ac4     atls:atlbase.obj
 0002:00001ad8       ??_C@_1IC@ONKHOIDK@?$AAE?$AAR?$AAR?$AAO?$AAR?$AA?5?$AA?3?$AA?5?$AAU?$AAn?$AAa?$AAb?$AAl?$AAe?$AA?5@ 10021ad8     atls:atlbase.obj
 0002:00001b5c       ??_C@_0N@FJEPLCIH@atlthunk?4dll@ 10021b5c     atls:atlthunk.obj
 0002:00001b6c       ??_C@_0BG@GAKFHCBM@AtlThunk_AllocateData@ 10021b6c     atls:atlthunk.obj
 0002:00001b84       ??_C@_0BC@JKONFIAH@AtlThunk_InitData@ 10021b84     atls:atlthunk.obj
 0002:00001b98       ??_C@_0BE@IAOEELAK@AtlThunk_DataToCode@ 10021b98     atls:atlthunk.obj
 0002:00001bac       ??_C@_0BC@GBGKAIPI@AtlThunk_FreeData@ 10021bac     atls:atlthunk.obj
 0002:00001bc0       __pDestructExceptionObject 10021bc0     libvcruntime:ehhelpers.obj
 0002:00001bc8       ??_7bad_exception@std@@6B@ 10021bc8     libvcruntime:frame.obj
 0002:00001bd0       ??_C@_0O@DPKOEFFH@bad?5exception@ 10021bd0     libvcruntime:frame.obj
 0002:00001f60       ??_C@_08EHJDFFNH@__based?$CI@ 10021f60     libvcruntime:undname.obj
 0002:00001f6c       ??_C@_07KOLFKCDI@__cdecl@  10021f6c     libvcruntime:undname.obj
 0002:00001f74       ??_C@_08GHMPAG@__pascal@   10021f74     libvcruntime:undname.obj
 0002:00001f80       ??_C@_09IFJBGAPI@__stdcall@ 10021f80     libvcruntime:undname.obj
 0002:00001f8c       ??_C@_0L@NPHFGOKO@__thiscall@ 10021f8c     libvcruntime:undname.obj
 0002:00001f98       ??_C@_0L@JMKHOMEK@__fastcall@ 10021f98     libvcruntime:undname.obj
 0002:00001fa4       ??_C@_0N@BCKKPABJ@__vectorcall@ 10021fa4     libvcruntime:undname.obj
 0002:00001fb4       ??_C@_09HIJEGCPM@__clrcall@ 10021fb4     libvcruntime:undname.obj
 0002:00001fc0       ??_C@_06GHPCKEAG@__eabi@   10021fc0     libvcruntime:undname.obj
 0002:00001fc8       ??_C@_09IOPIDJLG@__swift_1@ 10021fc8     libvcruntime:undname.obj
 0002:00001fd4       ??_C@_09KFNFGKHF@__swift_2@ 10021fd4     libvcruntime:undname.obj
 0002:00001fe0       ??_C@_07JOMMBBKO@__ptr64@  10021fe0     libvcruntime:undname.obj
 0002:00001fe8       ??_C@_0L@PILCLIHE@__restrict@ 10021fe8     libvcruntime:undname.obj
 0002:00001ff4       ??_C@_0M@GFIIJFMG@__unaligned@ 10021ff4     libvcruntime:undname.obj
 0002:00002000       ??_C@_09DHDLOLLB@restrict?$CI@ 10022000     libvcruntime:undname.obj
 0002:0000200a       ??_C@_00CNPNBAHC@@         1002200a     libvcruntime:undname.obj
 0002:0000200c       ??_C@_04NIHEBCM@?5new@     1002200c     libvcruntime:undname.obj
 0002:00002014       ??_C@_07FPCDHGMM@?5delete@ 10022014     libvcruntime:undname.obj
 0002:0000201c       ??_C@_01NEMOKFLO@?$DN@     1002201c     libvcruntime:undname.obj
 0002:00002020       ??_C@_02GPIOPFAK@?$DO?$DO@ 10022020     libvcruntime:undname.obj
 0002:00002024       ??_C@_02FODMEDOG@?$DM?$DM@ 10022024     libvcruntime:undname.obj
 0002:00002028       ??_C@_01DCLJPIOD@?$CB@     10022028     libvcruntime:undname.obj
 0002:0000202c       ??_C@_02EGOFBIJA@?$DN?$DN@ 1002202c     libvcruntime:undname.obj
 0002:00002030       ??_C@_02FDNJECIE@?$CB?$DN@ 10022030     libvcruntime:undname.obj
 0002:00002034       ??_C@_02GPECMEKF@?$FL?$FN@ 10022034     libvcruntime:undname.obj
 0002:00002038       ??_C@_08LHJFAFGD@operator@ 10022038     libvcruntime:undname.obj
 0002:00002044       ??_C@_02HBOOOICD@?9?$DO@   10022044     libvcruntime:undname.obj
 0002:00002048       ??_C@_01NBENCBCI@?$CK@     10022048     libvcruntime:undname.obj
 0002:0000204c       ??_C@_02ECNGHCIF@?$CL?$CL@ 1002204c     libvcruntime:undname.obj
 0002:00002050       ??_C@_02BAABKJLB@?9?9@     10022050     libvcruntime:undname.obj
 0002:00002054       ??_C@_01JOAMLHOP@?9@       10022054     libvcruntime:undname.obj
 0002:00002058       ??_C@_01MIFGBAGJ@?$CL@     10022058     libvcruntime:undname.obj
 0002:0000205c       ??_C@_01HNPIGOCE@?$CG@     1002205c     libvcruntime:undname.obj
 0002:00002060       ??_C@_03MNHNFDLC@?9?$DO?$CK@ 10022060     libvcruntime:undname.obj
 0002:00002064       ??_C@_01KMDKNFGN@?1@       10022064     libvcruntime:undname.obj
 0002:00002068       ??_C@_01FGNFDNOH@?$CF@     10022068     libvcruntime:undname.obj
 0002:0000206c       ??_C@_01MNNFJEPP@?$DM@     1002206c     libvcruntime:undname.obj
 0002:00002070       ??_C@_02EHCHHCKH@?$DM?$DN@ 10022070     libvcruntime:undname.obj
 0002:00002074       ??_C@_01PPODPGHN@?$DO@     10022074     libvcruntime:undname.obj
 0002:00002078       ??_C@_02EEKDKGMJ@?$DO?$DN@ 10022078     libvcruntime:undname.obj
 0002:0000207c       ??_C@_01IHBHIGKO@?0@       1002207c     libvcruntime:undname.obj
 0002:00002080       ??_C@_02HCKGKOFO@?$CI?$CJ@ 10022080     libvcruntime:undname.obj
 0002:00002084       ??_C@_01PJKLJHI@?$HO@      10022084     libvcruntime:undname.obj
 0002:00002088       ??_C@_01JKBOJNNK@?$FO@     10022088     libvcruntime:undname.obj
 0002:0000208c       ??_C@_01DNKMNLPK@?$HM@     1002208c     libvcruntime:undname.obj
 0002:00002090       ??_C@_02PPKAJPJL@?$CG?$CG@ 10022090     libvcruntime:undname.obj
 0002:00002094       ??_C@_02NONPIBCD@?$HM?$HM@ 10022094     libvcruntime:undname.obj
 0002:00002098       ??_C@_02FPIMKNGF@?$CK?$DN@ 10022098     libvcruntime:undname.obj
 0002:0000209c       ??_C@_02FOEOMHFC@?$CL?$DN@ 1002209c     libvcruntime:undname.obj
 0002:000020a0       ??_C@_02FKMDLLOA@?9?$DN@   100220a0     libvcruntime:undname.obj
 0002:000020a4       ??_C@_02FJEHGPIO@?1?$DN@   100220a4     libvcruntime:undname.obj
 0002:000020a8       ??_C@_02FENAOKFI@?$CF?$DN@ 100220a8     libvcruntime:undname.obj
 0002:000020ac       ??_C@_03IKFCCPFF@?$DO?$DO?$DN@ 100220ac     libvcruntime:undname.obj
 0002:000020b0       ??_C@_03CDNPDDLA@?$DM?$DM?$DN@ 100220b0     libvcruntime:undname.obj
 0002:000020b4       ??_C@_02FGJGFEAB@?$CG?$DN@ 100220b4     libvcruntime:undname.obj
 0002:000020b8       ??_C@_02DHLNPPGH@?$HM?$DN@ 100220b8     libvcruntime:undname.obj
 0002:000020bc       ??_C@_02MHEGNOJ@?$FO?$DN@  100220bc     libvcruntime:undname.obj
 0002:000020c0       ??_C@_09IFPLHPGF@?$GAvftable?8@ 100220c0     libvcruntime:undname.obj
 0002:000020cc       ??_C@_09BLBHBJP@?$GAvbtable?8@ 100220cc     libvcruntime:undname.obj
 0002:000020d8       ??_C@_07FEEIOKP@?$GAvcall?8@ 100220d8     libvcruntime:undname.obj
 0002:000020e0       ??_C@_08LLFFHHDJ@?$GAtypeof?8@ 100220e0     libvcruntime:undname.obj
 0002:000020ec       ??_C@_0BF@KDPPACIK@?$GAlocal?5static?5guard?8@ 100220ec     libvcruntime:undname.obj
 0002:00002104       ??_C@_08OBABFOLI@?$GAstring?8@ 10022104     libvcruntime:undname.obj
 0002:00002110       ??_C@_0BD@JDLKDPAB@?$GAvbase?5destructor?8@ 10022110     libvcruntime:undname.obj
 0002:00002124       ??_C@_0BN@DEGPLNFK@?$GAvector?5deleting?5destructor?8@ 10022124     libvcruntime:undname.obj
 0002:00002144       ??_C@_0BO@OBMKPJIG@?$GAdefault?5constructor?5closure?8@ 10022144     libvcruntime:undname.obj
 0002:00002164       ??_C@_0BN@IMDCHIKM@?$GAscalar?5deleting?5destructor?8@ 10022164     libvcruntime:undname.obj
 0002:00002184       ??_C@_0BO@PFGOCPJJ@?$GAvector?5constructor?5iterator?8@ 10022184     libvcruntime:undname.obj
 0002:000021a4       ??_C@_0BN@LFPFMEDL@?$GAvector?5destructor?5iterator?8@ 100221a4     libvcruntime:undname.obj
 0002:000021c4       ??_C@_0CE@IKBNEHA@?$GAvector?5vbase?5constructor?5itera@ 100221c4     libvcruntime:undname.obj
 0002:000021e8       ??_C@_0BL@NILFHHPC@?$GAvirtual?5displacement?5map?8@ 100221e8     libvcruntime:undname.obj
 0002:00002204       ??_C@_0CB@JONCMFFK@?$GAeh?5vector?5constructor?5iterator@ 10022204     libvcruntime:undname.obj
 0002:00002228       ??_C@_0CA@GCEOPDGL@?$GAeh?5vector?5destructor?5iterator?8@ 10022228     libvcruntime:undname.obj
 0002:00002248       ??_C@_0CH@OOJPLCPH@?$GAeh?5vector?5vbase?5constructor?5it@ 10022248     libvcruntime:undname.obj
 0002:00002270       ??_C@_0BL@LLKPOHJI@?$GAcopy?5constructor?5closure?8@ 10022270     libvcruntime:undname.obj
 0002:0000228c       ??_C@_0BA@KBCDOMBN@?$GAudt?5returning?8@ 1002228c     libvcruntime:undname.obj
 0002:0000229c       ??_C@_03KLGMFNMG@?$GAEH@   1002229c     libvcruntime:undname.obj
 0002:000022a0       ??_C@_05KHLCHHI@?$GARTTI@  100222a0     libvcruntime:undname.obj
 0002:000022a8       ??_C@_0BA@KKLDJDLB@?$GAlocal?5vftable?8@ 100222a8     libvcruntime:undname.obj
 0002:000022b8       ??_C@_0CE@IIHCMGGL@?$GAlocal?5vftable?5constructor?5clos@ 100222b8     libvcruntime:undname.obj
 0002:000022dc       ??_C@_06FHBGPFGH@?5new?$FL?$FN@ 100222dc     libvcruntime:undname.obj
 0002:000022e4       ??_C@_09LBNFPBCA@?5delete?$FL?$FN@ 100222e4     libvcruntime:undname.obj
 0002:000022f0       ??_C@_0P@HJKNJFNN@?$GAomni?5callsig?8@ 100222f0     libvcruntime:undname.obj
 0002:00002300       ??_C@_0BL@CNOONJFP@?$GAplacement?5delete?5closure?8@ 10022300     libvcruntime:undname.obj
 0002:0000231c       ??_C@_0BN@CKNJLHMB@?$GAplacement?5delete?$FL?$FN?5closure?8@ 1002231c     libvcruntime:undname.obj
 0002:0000233c       ??_C@_0CG@CFDHKGGD@?$GAmanaged?5vector?5constructor?5ite@ 1002233c     libvcruntime:undname.obj
 0002:00002364       ??_C@_0CF@IMGKMJNO@?$GAmanaged?5vector?5destructor?5iter@ 10022364     libvcruntime:undname.obj
 0002:0000238c       ??_C@_0CG@HLDDJMAG@?$GAeh?5vector?5copy?5constructor?5ite@ 1002238c     libvcruntime:undname.obj
 0002:000023b4       ??_C@_0CM@FCBBDIGB@?$GAeh?5vector?5vbase?5copy?5construct@ 100223b4     libvcruntime:undname.obj
 0002:000023e0       ??_C@_0BL@CLIPGLGB@?$GAdynamic?5initializer?5for?5?8@ 100223e0     libvcruntime:undname.obj
 0002:000023fc       ??_C@_0CB@PDBIFEP@?$GAdynamic?5atexit?5destructor?5for?5@ 100223fc     libvcruntime:undname.obj
 0002:00002420       ??_C@_0CD@CGAJBKEJ@?$GAvector?5copy?5constructor?5iterat@ 10022420     libvcruntime:undname.obj
 0002:00002444       ??_C@_0CJ@GJELGAMM@?$GAvector?5vbase?5copy?5constructor?5@ 10022444     libvcruntime:undname.obj
 0002:00002470       ??_C@_0CL@FGIJHLCE@?$GAmanaged?5vector?5copy?5constructo@ 10022470     libvcruntime:undname.obj
 0002:0000249c       ??_C@_0BM@PMGGMLDN@?$GAlocal?5static?5thread?5guard?8@ 1002249c     libvcruntime:undname.obj
 0002:000024b8       ??_C@_0N@BDNMDMOL@operator?5?$CC?$CC?5@ 100224b8     libvcruntime:undname.obj
 0002:000024c8       ??_C@_0BC@GGEBGALA@operator?5co_await@ 100224c8     libvcruntime:undname.obj
 0002:000024dc       ??_C@_0M@GAAIMMOH@operator?$DM?$DN?$DO@ 100224dc     libvcruntime:undname.obj
 0002:000024e8       ??_C@_0BC@DAFEJGAK@?5Type?5Descriptor?8@ 100224e8     libvcruntime:undname.obj
 0002:000024fc       ??_C@_0BM@LDKODKLH@?5Base?5Class?5Descriptor?5at?5?$CI@ 100224fc     libvcruntime:undname.obj
 0002:00002518       ??_C@_0BD@LGICGFMM@?5Base?5Class?5Array?8@ 10022518     libvcruntime:undname.obj
 0002:0000252c       ??_C@_0BN@MECKDCOJ@?5Class?5Hierarchy?5Descriptor?8@ 1002252c     libvcruntime:undname.obj
 0002:0000254c       ??_C@_0BK@CFCOFLF@?5Complete?5Object?5Locator?8@ 1002254c     libvcruntime:undname.obj
 0002:00002568       ??_C@_0BG@JNJLAMPM@?$GAanonymous?5namespace?8@ 10022568     libvcruntime:undname.obj
 0002:0000258c       ??_C@_1DM@KHCHBNEB@?$AAa?$AAp?$AAi?$AA?9?$AAm?$AAs?$AA?9?$AAw?$AAi?$AAn?$AA?9?$AAc?$AAo?$AAr?$AAe@ 1002258c     libvcruntime:winapi_downlevel.obj
 0002:000025c8       ??_C@_1DK@LPPGFMPP@?$AAa?$AAp?$AAi?$AA?9?$AAm?$AAs?$AA?9?$AAw?$AAi?$AAn?$AA?9?$AAc?$AAo?$AAr?$AAe@ 100225c8     libvcruntime:winapi_downlevel.obj
 0002:00002604       ??_C@_1BC@GDMECMAK@?$AAk?$AAe?$AAr?$AAn?$AAe?$AAl?$AA3?$AA2@ 10022604     libvcruntime:winapi_downlevel.obj
 0002:00002618       ??_C@_1BA@PFFKHIOG@?$AAa?$AAp?$AAi?$AA?9?$AAm?$AAs?$AA?9@ 10022618     libvcruntime:winapi_downlevel.obj
 0002:00002630       ??_C@_08KNHFBNJ@FlsAlloc@  10022630     libvcruntime:winapi_downlevel.obj
 0002:00002644       ??_C@_07PEJMOBNF@FlsFree@  10022644     libvcruntime:winapi_downlevel.obj
 0002:00002654       ??_C@_0M@GDNOONDI@FlsGetValue@ 10022654     libvcruntime:winapi_downlevel.obj
 0002:00002668       ??_C@_0M@JCPCPOEF@FlsSetValue@ 10022668     libvcruntime:winapi_downlevel.obj
 0002:0000267c       ??_C@_0BM@HCFOFFN@InitializeCriticalSectionEx@ 1002267c     libvcruntime:winapi_downlevel.obj
 0002:00002800       _format_validation_lookup_table 10022800     libucrt:output.obj
 0002:0000285c       ??_C@_1O@CEDCILHN@?$AA?$CI?$AAn?$AAu?$AAl?$AAl?$AA?$CJ@ 1002285c     libucrt:output.obj
 0002:0000286c       ??_C@_06OJHGLDPL@?$CInull?$CJ@ 1002286c     libucrt:output.obj
 0002:00002878       ___acrt_exception_action_table 10022878     libucrt:exception_filter.obj
 0002:00002908       ___acrt_signal_action_table_count 10022908     libucrt:exception_filter.obj
 0002:0000290c       ___acrt_signal_action_first_fpe_index 1002290c     libucrt:exception_filter.obj
 0002:00002910       ___acrt_signal_action_fpe_count 10022910     libucrt:exception_filter.obj
 0002:00002914       ??_C@_1BI@BGOHAHKC@?$AAm?$AAs?$AAc?$AAo?$AAr?$AAe?$AAe?$AA?4?$AAd?$AAl?$AAl@ 10022914     libucrt:exit.obj
 0002:0000292c       ??_C@_0P@MIGLKIOC@CorExitProcess@ 1002292c     libucrt:exit.obj
 0002:00002a10       ??_C@_1EA@JGEFHKEI@?$AAa?$AAp?$AAi?$AA?9?$AAm?$AAs?$AA?9?$AAw?$AAi?$AAn?$AA?9?$AAc?$AAo?$AAr?$AAe@ 10022a10     libucrt:winapi_thunks.obj
 0002:00002a50       ??_C@_1DI@IJCEHOCB@?$AAa?$AAp?$AAi?$AA?9?$AAm?$AAs?$AA?9?$AAw?$AAi?$AAn?$AA?9?$AAc?$AAo?$AAr?$AAe@ 10022a50     libucrt:winapi_thunks.obj
 0002:00002a88       ??_C@_1EI@MPIAOHOC@?$AAa?$AAp?$AAi?$AA?9?$AAm?$AAs?$AA?9?$AAw?$AAi?$AAn?$AA?9?$AAc?$AAo?$AAr?$AAe@ 10022a88     libucrt:winapi_thunks.obj
 0002:00002ad0       ??_C@_1FK@FPHCKFIE@?$AAa?$AAp?$AAi?$AA?9?$AAm?$AAs?$AA?9?$AAw?$AAi?$AAn?$AA?9?$AAc?$AAo?$AAr?$AAe@ 10022ad0     libucrt:winapi_thunks.obj
 0002:00002b30       ??_C@_1EM@DILCGIIO@?$AAa?$AAp?$AAi?$AA?9?$AAm?$AAs?$AA?9?$AAw?$AAi?$AAn?$AA?9?$AAc?$AAo?$AAr?$AAe@ 10022b30     libucrt:winapi_thunks.obj
 0002:00002b7c       ??_C@_1DM@LNCGDDPN@?$AAa?$AAp?$AAi?$AA?9?$AAm?$AAs?$AA?9?$AAw?$AAi?$AAn?$AA?9?$AAc?$AAo?$AAr?$AAe@ 10022b7c     libucrt:winapi_thunks.obj
 0002:00002bb8       ??_C@_1DO@FPAPJEMD@?$AAa?$AAp?$AAi?$AA?9?$AAm?$AAs?$AA?9?$AAw?$AAi?$AAn?$AA?9?$AAc?$AAo?$AAr?$AAe@ 10022bb8     libucrt:winapi_thunks.obj
 0002:00002bf8       ??_C@_1DK@NDHNAHIO@?$AAa?$AAp?$AAi?$AA?9?$AAm?$AAs?$AA?9?$AAw?$AAi?$AAn?$AA?9?$AAc?$AAo?$AAr?$AAe@ 10022bf8     libucrt:winapi_thunks.obj
 0002:00002c34       ??_C@_1DM@KGHDGBCM@?$AAa?$AAp?$AAi?$AA?9?$AAm?$AAs?$AA?9?$AAw?$AAi?$AAn?$AA?9?$AAc?$AAo?$AAr?$AAe@ 10022c34     libucrt:winapi_thunks.obj
 0002:00002c70       ??_C@_1EO@IJIOEFOH@?$AAa?$AAp?$AAi?$AA?9?$AAm?$AAs?$AA?9?$AAw?$AAi?$AAn?$AA?9?$AAr?$AAt?$AAc?$AAo@ 10022c70     libucrt:winapi_thunks.obj
 0002:00002cc0       ??_C@_1FG@HHGEKANL@?$AAa?$AAp?$AAi?$AA?9?$AAm?$AAs?$AA?9?$AAw?$AAi?$AAn?$AA?9?$AAs?$AAe?$AAc?$AAu@ 10022cc0     libucrt:winapi_thunks.obj
 0002:00002d18       ??_C@_1EG@DBIOJECG@?$AAe?$AAx?$AAt?$AA?9?$AAm?$AAs?$AA?9?$AAw?$AAi?$AAn?$AA?9?$AAn?$AAt?$AAu?$AAs@ 10022d18     libucrt:winapi_thunks.obj
 0002:00002d60       ??_C@_1EO@FIHMJCLF@?$AAe?$AAx?$AAt?$AA?9?$AAm?$AAs?$AA?9?$AAw?$AAi?$AAn?$AA?9?$AAn?$AAt?$AAu?$AAs@ 10022d60     libucrt:winapi_thunks.obj
 0002:00002db0       ??_C@_1BC@DNHGCMLG@?$AAa?$AAd?$AAv?$AAa?$AAp?$AAi?$AA3?$AA2@ 10022db0     libucrt:winapi_thunks.obj
 0002:00002dc4       ??_C@_1M@OAIMIKLP@?$AAn?$AAt?$AAd?$AAl?$AAl@ 10022dc4     libucrt:winapi_thunks.obj
 0002:00002dd0       ??_C@_1EG@DPGNFKGC@?$AAa?$AAp?$AAi?$AA?9?$AAm?$AAs?$AA?9?$AAw?$AAi?$AAn?$AA?9?$AAa?$AAp?$AAp?$AAm@ 10022dd0     libucrt:winapi_thunks.obj
 0002:00002e18       ??_C@_1O@BCCLBEOE@?$AAu?$AAs?$AAe?$AAr?$AA3?$AA2@ 10022e18     libucrt:winapi_thunks.obj
 0002:00002e28       ??_C@_1BA@IAIFMGEF@?$AAe?$AAx?$AAt?$AA?9?$AAm?$AAs?$AA?9@ 10022e28     libucrt:winapi_thunks.obj
 0002:00002e3c       ??_C@_0BA@FHFNEAED@AreFileApisANSI@ 10022e3c     libucrt:winapi_thunks.obj
 0002:00002e7c       ??_C@_0O@KKBNKAPF@LCMapStringEx@ 10022e7c     libucrt:winapi_thunks.obj
 0002:00002e94       ??_C@_0BB@HBDEELFH@LocaleNameToLCID@ 10022e94     libucrt:winapi_thunks.obj
 0002:00002eac       ??_C@_0CF@OJOFEIGO@AppPolicyGetProcessTerminationM@ 10022eac     libucrt:winapi_thunks.obj
 0002:00002edc       ??_C@_0BI@BKLFFAPO@SetThreadStackGuarantee@ 10022edc     libucrt:winapi_thunks.obj
 0002:00002f38       ??_C@_03OEIAHPBN@INF@      10022f38     libucrt:cvt.obj
 0002:00002f3c       ??_C@_03OJHLLCGB@inf@      10022f3c     libucrt:cvt.obj
 0002:00002f40       ??_C@_03LKNCIKJB@NAN@      10022f40     libucrt:cvt.obj
 0002:00002f44       ??_C@_03LHCJEHON@nan@      10022f44     libucrt:cvt.obj
 0002:00002f48       ??_C@_09OFJJIMPC@NAN?$CISNAN?$CJ@ 10022f48     libucrt:cvt.obj
 0002:00002f54       ??_C@_09IPFBKMDL@nan?$CIsnan?$CJ@ 10022f54     libucrt:cvt.obj
 0002:00002f60       ??_C@_08IKHNHAJ@NAN?$CIIND?$CJ@ 10022f60     libucrt:cvt.obj
 0002:00002f6c       ??_C@_08OFCDMILK@nan?$CIind?$CJ@ 10022f6c     libucrt:cvt.obj
 0002:00002f78       ??_C@_05KLBDPFGC@e?$CL000@ 10022f78     libucrt:cvt.obj
 0002:00002f80       ___lc_time_c               10022f80     libucrt:nlsdata.obj
 0002:000030e4       ??_C@_03KOEHGMDN@Sun@      100230e4     libucrt:nlsdata.obj
 0002:000030e8       ??_C@_03PDAGKDH@Mon@       100230e8     libucrt:nlsdata.obj
 0002:000030ec       ??_C@_03NAGEINEP@Tue@      100230ec     libucrt:nlsdata.obj
 0002:000030f0       ??_C@_03MHOMLAJA@Wed@      100230f0     libucrt:nlsdata.obj
 0002:000030f4       ??_C@_03IOFIKPDN@Thu@      100230f4     libucrt:nlsdata.obj
 0002:000030f8       ??_C@_03IDIOELNC@Fri@      100230f8     libucrt:nlsdata.obj
 0002:000030fc       ??_C@_03FEFJNEK@Sat@       100230fc     libucrt:nlsdata.obj
 0002:00003100       ??_C@_06OOPIFAJ@Sunday@    10023100     libucrt:nlsdata.obj
 0002:00003108       ??_C@_06JLEDEDGH@Monday@   10023108     libucrt:nlsdata.obj
 0002:00003110       ??_C@_07BAAGCFCM@Tuesday@  10023110     libucrt:nlsdata.obj
 0002:00003118       ??_C@_09DLIGFAKA@Wednesday@ 10023118     libucrt:nlsdata.obj
 0002:00003124       ??_C@_08HACCIKIA@Thursday@ 10023124     libucrt:nlsdata.obj
 0002:00003130       ??_C@_06JECMNKMI@Friday@   10023130     libucrt:nlsdata.obj
 0002:00003138       ??_C@_08INBOOONO@Saturday@ 10023138     libucrt:nlsdata.obj
 0002:00003144       ??_C@_03JIHJHPIE@Jan@      10023144     libucrt:nlsdata.obj
 0002:00003148       ??_C@_03HJBDCHOM@Feb@      10023148     libucrt:nlsdata.obj
 0002:0000314c       ??_C@_03ODNJBKGA@Mar@      1002314c     libucrt:nlsdata.obj
 0002:00003150       ??_C@_03LEOLGMJP@Apr@      10023150     libucrt:nlsdata.obj
 0002:00003154       ??_C@_03CNMDKL@May@        10023154     libucrt:nlsdata.obj
 0002:00003158       ??_C@_03IDFGHECI@Jun@      10023158     libucrt:nlsdata.obj
 0002:0000315c       ??_C@_03LBGABGKK@Jul@      1002315c     libucrt:nlsdata.obj
 0002:00003160       ??_C@_03IFJFEIGA@Aug@      10023160     libucrt:nlsdata.obj
 0002:00003164       ??_C@_03GGCAPAJC@Sep@      10023164     libucrt:nlsdata.obj
 0002:00003168       ??_C@_03BMAOKBAD@Oct@      10023168     libucrt:nlsdata.obj
 0002:0000316c       ??_C@_03JPJOFNIA@Nov@      1002316c     libucrt:nlsdata.obj
 0002:00003170       ??_C@_03MKABNOCG@Dec@      10023170     libucrt:nlsdata.obj
 0002:00003174       ??_C@_07CGJPFGJA@January@  10023174     libucrt:nlsdata.obj
 0002:0000317c       ??_C@_08GNJGEPFN@February@ 1002317c     libucrt:nlsdata.obj
 0002:00003188       ??_C@_05HPCKOFNC@March@    10023188     libucrt:nlsdata.obj
 0002:00003190       ??_C@_05DMJDNLEJ@April@    10023190     libucrt:nlsdata.obj
 0002:00003198       ??_C@_04CNLMGBGM@June@     10023198     libucrt:nlsdata.obj
 0002:000031a0       ??_C@_04MIEPOIFP@July@     100231a0     libucrt:nlsdata.obj
 0002:000031a8       ??_C@_06LBBHFDDG@August@   100231a8     libucrt:nlsdata.obj
 0002:000031b0       ??_C@_09BHHEALKD@September@ 100231b0     libucrt:nlsdata.obj
 0002:000031bc       ??_C@_07JJNFCEND@October@  100231bc     libucrt:nlsdata.obj
 0002:000031c4       ??_C@_08HCHEGEOA@November@ 100231c4     libucrt:nlsdata.obj
 0002:000031d0       ??_C@_08EDHMEBNP@December@ 100231d0     libucrt:nlsdata.obj
 0002:000031dc       ??_C@_02DEDBPAFC@AM@       100231dc     libucrt:nlsdata.obj
 0002:000031e0       ??_C@_02CJNFDJBF@PM@       100231e0     libucrt:nlsdata.obj
 0002:000031e4       ??_C@_08BPBNCDIB@MM?1dd?1yy@ 100231e4     libucrt:nlsdata.obj
 0002:000031f0       ??_C@_0BE@CKGJFCPC@dddd?0?5MMMM?5dd?0?5yyyy@ 100231f0     libucrt:nlsdata.obj
 0002:00003204       ??_C@_08JCCMCCIL@HH?3mm?3ss@ 10023204     libucrt:nlsdata.obj
 0002:00003210       ??_C@_17MBGCMIPB@?$AAS?$AAu?$AAn@ 10023210     libucrt:nlsdata.obj
 0002:00003218       ??_C@_17KBOMKBF@?$AAM?$AAo?$AAn@ 10023218     libucrt:nlsdata.obj
 0002:00003220       ??_C@_17BMKGEGOJ@?$AAT?$AAu?$AAe@ 10023220     libucrt:nlsdata.obj
 0002:00003228       ??_C@_17CJEDCEPE@?$AAW?$AAe?$AAd@ 10023228     libucrt:nlsdata.obj
 0002:00003230       ??_C@_17PDPHAADD@?$AAT?$AAh?$AAu@ 10023230     libucrt:nlsdata.obj
 0002:00003238       ??_C@_17HFOLPPLP@?$AAF?$AAr?$AAi@ 10023238     libucrt:nlsdata.obj
 0002:00003240       ??_C@_17GGIBDPIH@?$AAS?$AAa?$AAt@ 10023240     libucrt:nlsdata.obj
 0002:00003248       ??_C@_1O@IHNHDHPB@?$AAS?$AAu?$AAn?$AAd?$AAa?$AAy@ 10023248     libucrt:nlsdata.obj
 0002:00003258       ??_C@_1O@MMNBFLIA@?$AAM?$AAo?$AAn?$AAd?$AAa?$AAy@ 10023258     libucrt:nlsdata.obj
 0002:00003268       ??_C@_1BA@ENFBFFEK@?$AAT?$AAu?$AAe?$AAs?$AAd?$AAa?$AAy@ 10023268     libucrt:nlsdata.obj
 0002:00003278       ??_C@_1BE@EBOGMDOH@?$AAW?$AAe?$AAd?$AAn?$AAe?$AAs?$AAd?$AAa?$AAy@ 10023278     libucrt:nlsdata.obj
 0002:0000328c       ??_C@_1BC@HHMNLIHE@?$AAT?$AAh?$AAu?$AAr?$AAs?$AAd?$AAa?$AAy@ 1002328c     libucrt:nlsdata.obj
 0002:000032a0       ??_C@_1O@PDICJHAG@?$AAF?$AAr?$AAi?$AAd?$AAa?$AAy@ 100232a0     libucrt:nlsdata.obj
 0002:000032b0       ??_C@_1BC@ENMNNPAJ@?$AAS?$AAa?$AAt?$AAu?$AAr?$AAd?$AAa?$AAy@ 100232b0     libucrt:nlsdata.obj
 0002:000032c4       ??_C@_17DKNBKCHM@?$AAJ?$AAa?$AAn@ 100232c4     libucrt:nlsdata.obj
 0002:000032cc       ??_C@_17LMDJEKJN@?$AAF?$AAe?$AAb@ 100232cc     libucrt:nlsdata.obj
 0002:000032d4       ??_C@_17CKNLEDEC@?$AAM?$AAa?$AAr@ 100232d4     libucrt:nlsdata.obj
 0002:000032dc       ??_C@_17LFPOIHDD@?$AAA?$AAp?$AAr@ 100232dc     libucrt:nlsdata.obj
 0002:000032e4       ??_C@_17PNNKMEED@?$AAM?$AAa?$AAy@ 100232e4     libucrt:nlsdata.obj
 0002:000032ec       ??_C@_17KCJGOCPB@?$AAJ?$AAu?$AAn@ 100232ec     libucrt:nlsdata.obj
 0002:000032f4       ??_C@_17IJPCKHK@?$AAJ?$AAu?$AAl@ 100232f4     libucrt:nlsdata.obj
 0002:000032fc       ??_C@_17ICPELBCN@?$AAA?$AAu?$AAg@ 100232fc     libucrt:nlsdata.obj
 0002:00003304       ??_C@_17HCHCOKMG@?$AAS?$AAe?$AAp@ 10023304     libucrt:nlsdata.obj
 0002:0000330c       ??_C@_17FNLKOI@?$AAO?$AAc?$AAt@ 1002330c     libucrt:nlsdata.obj
 0002:00003314       ??_C@_17BBDMLCIG@?$AAN?$AAo?$AAv@ 10023314     libucrt:nlsdata.obj
 0002:0000331c       ??_C@_17EGKACKIF@?$AAD?$AAe?$AAc@ 1002331c     libucrt:nlsdata.obj
 0002:00003324       ??_C@_1BA@EFMEIEBA@?$AAJ?$AAa?$AAn?$AAu?$AAa?$AAr?$AAy@ 10023324     libucrt:nlsdata.obj
 0002:00003334       ??_C@_1BC@JGDDFFAM@?$AAF?$AAe?$AAb?$AAr?$AAu?$AAa?$AAr?$AAy@ 10023334     libucrt:nlsdata.obj
 0002:00003348       ??_C@_1M@IKEENEDF@?$AAM?$AAa?$AAr?$AAc?$AAh@ 10023348     libucrt:nlsdata.obj
 0002:00003354       ??_C@_1M@GJNLMHFD@?$AAA?$AAp?$AAr?$AAi?$AAl@ 10023354     libucrt:nlsdata.obj
 0002:00003360       ??_C@_19EPFLPGAP@?$AAJ?$AAu?$AAn?$AAe@ 10023360     libucrt:nlsdata.obj
 0002:0000336c       ??_C@_19BIFMLPCD@?$AAJ?$AAu?$AAl?$AAy@ 1002336c     libucrt:nlsdata.obj
 0002:00003378       ??_C@_1O@PAHLKOAC@?$AAA?$AAu?$AAg?$AAu?$AAs?$AAt@ 10023378     libucrt:nlsdata.obj
 0002:00003388       ??_C@_1BE@DKAAMBJL@?$AAS?$AAe?$AAp?$AAt?$AAe?$AAm?$AAb?$AAe?$AAr@ 10023388     libucrt:nlsdata.obj
 0002:0000339c       ??_C@_1BA@EPANDLNG@?$AAO?$AAc?$AAt?$AAo?$AAb?$AAe?$AAr@ 1002339c     libucrt:nlsdata.obj
 0002:000033ac       ??_C@_1BC@BGLIFPF@?$AAN?$AAo?$AAv?$AAe?$AAm?$AAb?$AAe?$AAr@ 100233ac     libucrt:nlsdata.obj
 0002:000033c0       ??_C@_1BC@FEMKIFH@?$AAD?$AAe?$AAc?$AAe?$AAm?$AAb?$AAe?$AAr@ 100233c0     libucrt:nlsdata.obj
 0002:000033d4       ??_C@_15ODEHAHHF@?$AAA?$AAM@ 100233d4     libucrt:nlsdata.obj
 0002:000033dc       ??_C@_15CLMNNGEL@?$AAP?$AAM@ 100233dc     libucrt:nlsdata.obj
 0002:000033e4       ??_C@_1BC@IEBCMHCM@?$AAM?$AAM?$AA?1?$AAd?$AAd?$AA?1?$AAy?$AAy@ 100233e4     libucrt:nlsdata.obj
 0002:000033f8       ??_C@_1CI@KNAKOEBC@?$AAd?$AAd?$AAd?$AAd?$AA?0?$AA?5?$AAM?$AAM?$AAM?$AAM?$AA?5?$AAd?$AAd?$AA?0?$AA?5@ 100233f8     libucrt:nlsdata.obj
 0002:00003420       ??_C@_1BC@GDGBMEMK@?$AAH?$AAH?$AA?3?$AAm?$AAm?$AA?3?$AAs?$AAs@ 10023420     libucrt:nlsdata.obj
 0002:00003434       ??_C@_1M@BMHNFIME@?$AAe?$AAn?$AA?9?$AAU?$AAS@ 10023434     libucrt:nlsdata.obj
 0002:00003450       ??_C@_1M@HPNHIDJI@?$AAj?$AAa?$AA?9?$AAJ?$AAP@ 10023450     libucrt:mbctype.obj
 0002:0000345c       ??_C@_1M@BIBDDEMK@?$AAz?$AAh?$AA?9?$AAC?$AAN@ 1002345c     libucrt:mbctype.obj
 0002:00003468       ??_C@_1M@JLOOOEGK@?$AAk?$AAo?$AA?9?$AAK?$AAR@ 10023468     libucrt:mbctype.obj
 0002:00003474       ??_C@_1M@CLNBBOPM@?$AAz?$AAh?$AA?9?$AAT?$AAW@ 10023474     libucrt:mbctype.obj
 0002:00003480       ___newctype                10023480     libucrt:ctype.obj
 0002:00003780       ___newclmap                10023780     libucrt:ctype.obj
 0002:00003900       ___newcumap                10023900     libucrt:ctype.obj
 0002:00003a80       __wctype                   10023a80     libucrt:ctype.obj
 0002:000043a8       ??_C@_15EMKDOKLE@?$AAa?$AAr@ 100243a8     libucrt:lcidtoname_downlevel.obj
 0002:000043b0       ??_C@_15KNPADPLH@?$AAb?$AAg@ 100243b0     libucrt:lcidtoname_downlevel.obj
 0002:000043b8       ??_C@_15EDMHLDMO@?$AAc?$AAa@ 100243b8     libucrt:lcidtoname_downlevel.obj
 0002:000043c0       ??_C@_1O@BPEAJADD@?$AAz?$AAh?$AA?9?$AAC?$AAH?$AAS@ 100243c0     libucrt:lcidtoname_downlevel.obj
 0002:000043d0       ??_C@_15LJNHCMNK@?$AAc?$AAs@ 100243d0     libucrt:lcidtoname_downlevel.obj
 0002:000043d8       ??_C@_15FOMCIDHG@?$AAd?$AAa@ 100243d8     libucrt:lcidtoname_downlevel.obj
 0002:000043e0       ??_C@_15NBKABECB@?$AAd?$AAe@ 100243e0     libucrt:lcidtoname_downlevel.obj
 0002:000043e8       ??_C@_15GHPEIIAO@?$AAe?$AAl@ 100243e8     libucrt:lcidtoname_downlevel.obj
 0002:000043f0       ??_C@_15MNPNEAIF@?$AAe?$AAn@ 100243f0     libucrt:lcidtoname_downlevel.obj
 0002:000043f8       ??_C@_15GPIOMPMH@?$AAe?$AAs@ 100243f8     libucrt:lcidtoname_downlevel.obj
 0002:00004400       ??_C@_15NGLOAKJC@?$AAf?$AAi@ 10024400     libucrt:lcidtoname_downlevel.obj
 0002:00004408       ??_C@_15FBKGNKAM@?$AAf?$AAr@ 10024408     libucrt:lcidtoname_downlevel.obj
 0002:00004410       ??_C@_15KGGCNEFK@?$AAh?$AAe@ 10024410     libucrt:lcidtoname_downlevel.obj
 0002:00004418       ??_C@_15PGHLIDMF@?$AAh?$AAu@ 10024418     libucrt:lcidtoname_downlevel.obj
 0002:00004420       ??_C@_15BIEMAPLM@?$AAi?$AAs@ 10024420     libucrt:lcidtoname_downlevel.obj
 0002:00004428       ??_C@_15IFJLDHAF@?$AAi?$AAt@ 10024428     libucrt:lcidtoname_downlevel.obj
 0002:00004430       ??_C@_15GEMIOCAG@?$AAj?$AAa@ 10024430     libucrt:lcidtoname_downlevel.obj
 0002:00004438       ??_C@_15EPELEGJA@?$AAk?$AAo@ 10024438     libucrt:lcidtoname_downlevel.obj
 0002:00004440       ??_C@_15NDDHIMN@?$AAn?$AAl@ 10024440     libucrt:lcidtoname_downlevel.obj
 0002:00004448       ??_C@_15BPIGNHCD@?$AAn?$AAo@ 10024448     libucrt:lcidtoname_downlevel.obj
 0002:00004450       ??_C@_15DEOPBLCG@?$AAp?$AAl@ 10024450     libucrt:lcidtoname_downlevel.obj
 0002:00004458       ??_C@_15KBECGEFG@?$AAp?$AAt@ 10024458     libucrt:lcidtoname_downlevel.obj
 0002:00004460       ??_C@_15GLJCBFMD@?$AAr?$AAo@ 10024460     libucrt:lcidtoname_downlevel.obj
 0002:00004468       ??_C@_15FEDGKCDI@?$AAr?$AAu@ 10024468     libucrt:lcidtoname_downlevel.obj
 0002:00004470       ??_C@_15GLKMLLHM@?$AAh?$AAr@ 10024470     libucrt:lcidtoname_downlevel.obj
 0002:00004478       ??_C@_15CPKMFBDB@?$AAs?$AAk@ 10024478     libucrt:lcidtoname_downlevel.obj
 0002:00004480       ??_C@_15BAAIOGMK@?$AAs?$AAq@ 10024480     libucrt:lcidtoname_downlevel.obj
 0002:00004488       ??_C@_15INNPNOHD@?$AAs?$AAv@ 10024488     libucrt:lcidtoname_downlevel.obj
 0002:00004490       ??_C@_15CABMMOGH@?$AAt?$AAh@ 10024490     libucrt:lcidtoname_downlevel.obj
 0002:00004498       ??_C@_15BPLIHJJM@?$AAt?$AAr@ 10024498     libucrt:lcidtoname_downlevel.obj
 0002:000044a0       ??_C@_15NEOEKKDJ@?$AAu?$AAr@ 100244a0     libucrt:lcidtoname_downlevel.obj
 0002:000044a8       ??_C@_15NFICGAJK@?$AAi?$AAd@ 100244a8     libucrt:lcidtoname_downlevel.obj
 0002:000044b0       ??_C@_15PJPFLCCM@?$AAu?$AAk@ 100244b0     libucrt:lcidtoname_downlevel.obj
 0002:000044b8       ??_C@_15HPJPHDM@?$AAb?$AAe@ 100244b8     libucrt:lcidtoname_downlevel.obj
 0002:000044c0       ??_C@_15LCHLGJII@?$AAs?$AAl@ 100244c0     libucrt:lcidtoname_downlevel.obj
 0002:000044c8       ??_C@_15PCFJPHHO@?$AAe?$AAt@ 100244c8     libucrt:lcidtoname_downlevel.obj
 0002:000044d0       ??_C@_15HPFPGODN@?$AAl?$AAv@ 100244d0     libucrt:lcidtoname_downlevel.obj
 0002:000044d8       ??_C@_15NFFGKGLG@?$AAl?$AAt@ 100244d8     libucrt:lcidtoname_downlevel.obj
 0002:000044e0       ??_C@_15BDAKCCHN@?$AAf?$AAa@ 100244e0     libucrt:lcidtoname_downlevel.obj
 0002:000044e8       ??_C@_15NFGIAIAJ@?$AAv?$AAi@ 100244e8     libucrt:lcidtoname_downlevel.obj
 0002:000044f0       ??_C@_15LMKNDMHN@?$AAh?$AAy@ 100244f0     libucrt:lcidtoname_downlevel.obj
 0002:000044f8       ??_C@_15IJBHMCFL@?$AAa?$AAz@ 100244f8     libucrt:lcidtoname_downlevel.obj
 0002:00004500       ??_C@_15EKOFJABL@?$AAe?$AAu@ 10024500     libucrt:lcidtoname_downlevel.obj
 0002:00004508       ??_C@_15BGHADCNK@?$AAm?$AAk@ 10024508     libucrt:lcidtoname_downlevel.obj
 0002:00004510       ??_C@_15JDNICKHM@?$AAa?$AAf@ 10024510     libucrt:lcidtoname_downlevel.obj
 0002:00004518       ??_C@_15KPJEDBKD@?$AAk?$AAa@ 10024518     libucrt:lcidtoname_downlevel.obj
 0002:00004520       ??_C@_15PDNFFFEO@?$AAf?$AAo@ 10024520     libucrt:lcidtoname_downlevel.obj
 0002:00004528       ??_C@_15OMLEGLOC@?$AAh?$AAi@ 10024528     libucrt:lcidtoname_downlevel.obj
 0002:00004530       ??_C@_15IDNNENKK@?$AAm?$AAs@ 10024530     libucrt:lcidtoname_downlevel.obj
 0002:00004538       ??_C@_15MACJNBMH@?$AAk?$AAk@ 10024538     libucrt:lcidtoname_downlevel.obj
 0002:00004540       ??_C@_15DKDJEOND@?$AAk?$AAy@ 10024540     libucrt:lcidtoname_downlevel.obj
 0002:00004548       ??_C@_15DFGDLJBG@?$AAs?$AAw@ 10024548     libucrt:lcidtoname_downlevel.obj
 0002:00004550       ??_C@_15BBFAICNG@?$AAu?$AAz@ 10024550     libucrt:lcidtoname_downlevel.obj
 0002:00004558       ??_C@_15DKNDCGEA@?$AAt?$AAt@ 10024558     libucrt:lcidtoname_downlevel.obj
 0002:00004560       ??_C@_15MGIFMDPL@?$AAp?$AAa@ 10024560     libucrt:lcidtoname_downlevel.obj
 0002:00004568       ??_C@_15HCNDBBA@?$AAg?$AAu@ 10024568     libucrt:lcidtoname_downlevel.obj
 0002:00004570       ??_C@_15FNBEIBON@?$AAt?$AAa@ 10024570     libucrt:lcidtoname_downlevel.obj
 0002:00004578       ??_C@_15NCHGBGLK@?$AAt?$AAe@ 10024578     libucrt:lcidtoname_downlevel.obj
 0002:00004580       ??_C@_15PHPHCBPF@?$AAk?$AAn@ 10024580     libucrt:lcidtoname_downlevel.obj
 0002:00004588       ??_C@_15DLGBCKMP@?$AAm?$AAr@ 10024588     libucrt:lcidtoname_downlevel.obj
 0002:00004590       ??_C@_15EABBLBFF@?$AAs?$AAa@ 10024590     libucrt:lcidtoname_downlevel.obj
 0002:00004598       ??_C@_15CBKOMCOI@?$AAm?$AAn@ 10024598     libucrt:lcidtoname_downlevel.obj
 0002:000045a0       ??_C@_15CKDMCJAF@?$AAg?$AAl@ 100245a0     libucrt:lcidtoname_downlevel.obj
 0002:000045a8       ??_C@_17CNJFBPG@?$AAk?$AAo?$AAk@ 100245a8     libucrt:lcidtoname_downlevel.obj
 0002:000045b0       ??_C@_17FFBJICPL@?$AAs?$AAy?$AAr@ 100245b0     libucrt:lcidtoname_downlevel.obj
 0002:000045b8       ??_C@_17KPNDCPAF@?$AAd?$AAi?$AAv@ 100245b8     libucrt:lcidtoname_downlevel.obj
 0002:000045c0       ??_C@_1M@OKAHONE@?$AAa?$AAr?$AA?9?$AAS?$AAA@ 100245c0     libucrt:lcidtoname_downlevel.obj
 0002:000045cc       ??_C@_1M@FFFIGIGK@?$AAb?$AAg?$AA?9?$AAB?$AAG@ 100245cc     libucrt:lcidtoname_downlevel.obj
 0002:000045d8       ??_C@_1M@BJNKEDC@?$AAc?$AAa?$AA?9?$AAE?$AAS@ 100245d8     libucrt:lcidtoname_downlevel.obj
 0002:000045e4       ??_C@_1M@IJJHFJHA@?$AAc?$AAs?$AA?9?$AAC?$AAZ@ 100245e4     libucrt:lcidtoname_downlevel.obj
 0002:000045f0       ??_C@_1M@CLPEOBGI@?$AAd?$AAa?$AA?9?$AAD?$AAK@ 100245f0     libucrt:lcidtoname_downlevel.obj
 0002:000045fc       ??_C@_1M@MCMADGCB@?$AAd?$AAe?$AA?9?$AAD?$AAE@ 100245fc     libucrt:lcidtoname_downlevel.obj
 0002:00004608       ??_C@_1M@OOCKEMAM@?$AAe?$AAl?$AA?9?$AAG?$AAR@ 10024608     libucrt:lcidtoname_downlevel.obj
 0002:00004614       ??_C@_1M@DDNJFGID@?$AAf?$AAi?$AA?9?$AAF?$AAI@ 10024614     libucrt:lcidtoname_downlevel.obj
 0002:00004620       ??_C@_1M@GLIPPMAC@?$AAf?$AAr?$AA?9?$AAF?$AAR@ 10024620     libucrt:lcidtoname_downlevel.obj
 0002:0000462c       ??_C@_1M@GFMCHPE@?$AAh?$AAe?$AA?9?$AAI?$AAL@ 1002462c     libucrt:lcidtoname_downlevel.obj
 0002:00004638       ??_C@_1M@MHLPGNKM@?$AAh?$AAu?$AA?9?$AAH?$AAU@ 10024638     libucrt:lcidtoname_downlevel.obj
 0002:00004644       ??_C@_1M@LPDDNNPN@?$AAi?$AAs?$AA?9?$AAI?$AAS@ 10024644     libucrt:lcidtoname_downlevel.obj
 0002:00004650       ??_C@_1M@MADIPODN@?$AAi?$AAt?$AA?9?$AAI?$AAT@ 10024650     libucrt:lcidtoname_downlevel.obj
 0002:0000465c       ??_C@_1M@IHBJJGG@?$AAn?$AAl?$AA?9?$AAN?$AAL@ 1002465c     libucrt:lcidtoname_downlevel.obj
 0002:00004668       ??_C@_1M@EANAGDL@?$AAn?$AAb?$AA?9?$AAN?$AAO@ 10024668     libucrt:lcidtoname_downlevel.obj
 0002:00004674       ??_C@_1M@NEIEMEGP@?$AAp?$AAl?$AA?9?$AAP?$AAL@ 10024674     libucrt:lcidtoname_downlevel.obj
 0002:00004680       ??_C@_1M@BOCFIGEP@?$AAp?$AAt?$AA?9?$AAB?$AAR@ 10024680     libucrt:lcidtoname_downlevel.obj
 0002:0000468c       ??_C@_1M@IMPFOPBG@?$AAr?$AAo?$AA?9?$AAR?$AAO@ 1002468c     libucrt:lcidtoname_downlevel.obj
 0002:00004698       ??_C@_1M@IDNNEJMM@?$AAr?$AAu?$AA?9?$AAR?$AAU@ 10024698     libucrt:lcidtoname_downlevel.obj
 0002:000046a4       ??_C@_1M@LILEEOGM@?$AAh?$AAr?$AA?9?$AAH?$AAR@ 100246a4     libucrt:lcidtoname_downlevel.obj
 0002:000046b0       ??_C@_1M@FKIFEHPB@?$AAs?$AAk?$AA?9?$AAS?$AAK@ 100246b0     libucrt:lcidtoname_downlevel.obj
 0002:000046bc       ??_C@_1M@LJMAMNPJ@?$AAs?$AAq?$AA?9?$AAA?$AAL@ 100246bc     libucrt:lcidtoname_downlevel.obj
 0002:000046c8       ??_C@_1M@GIAKDKJK@?$AAs?$AAv?$AA?9?$AAS?$AAE@ 100246c8     libucrt:lcidtoname_downlevel.obj
 0002:000046d4       ??_C@_1M@MKJKIKCL@?$AAt?$AAh?$AA?9?$AAT?$AAH@ 100246d4     libucrt:lcidtoname_downlevel.obj
 0002:000046e0       ??_C@_1M@MFLCCMPB@?$AAt?$AAr?$AA?9?$AAT?$AAR@ 100246e0     libucrt:lcidtoname_downlevel.obj
 0002:000046ec       ??_C@_1M@OIJHDKJN@?$AAu?$AAr?$AA?9?$AAP?$AAK@ 100246ec     libucrt:lcidtoname_downlevel.obj
 0002:000046f8       ??_C@_1M@LHIPCIEK@?$AAi?$AAd?$AA?9?$AAI?$AAD@ 100246f8     libucrt:lcidtoname_downlevel.obj
 0002:00004704       ??_C@_1M@MFMOBGI@?$AAu?$AAk?$AA?9?$AAU?$AAA@ 10024704     libucrt:lcidtoname_downlevel.obj
 0002:00004710       ??_C@_1M@OBGLJIPL@?$AAb?$AAe?$AA?9?$AAB?$AAY@ 10024710     libucrt:lcidtoname_downlevel.obj
 0002:0000471c       ??_C@_1M@BCFAJEAD@?$AAs?$AAl?$AA?9?$AAS?$AAI@ 1002471c     libucrt:lcidtoname_downlevel.obj
 0002:00004728       ??_C@_1M@FKFFEDDN@?$AAe?$AAt?$AA?9?$AAE?$AAE@ 10024728     libucrt:lcidtoname_downlevel.obj
 0002:00004734       ??_C@_1M@KGKKAACI@?$AAl?$AAv?$AA?9?$AAL?$AAV@ 10024734     libucrt:lcidtoname_downlevel.obj
 0002:00004740       ??_C@_1M@IFGBIJO@?$AAl?$AAt?$AA?9?$AAL?$AAT@ 10024740     libucrt:lcidtoname_downlevel.obj
 0002:0000474c       ??_C@_1M@FGEAHEDM@?$AAf?$AAa?$AA?9?$AAI?$AAR@ 1002474c     libucrt:lcidtoname_downlevel.obj
 0002:00004758       ??_C@_1M@KBMAIBFN@?$AAv?$AAi?$AA?9?$AAV?$AAN@ 10024758     libucrt:lcidtoname_downlevel.obj
 0002:00004764       ??_C@_1M@GPCBKDJK@?$AAh?$AAy?$AA?9?$AAA?$AAM@ 10024764     libucrt:lcidtoname_downlevel.obj
 0002:00004770       ??_C@_1BG@BECMDDJB@?$AAa?$AAz?$AA?9?$AAA?$AAZ?$AA?9?$AAL?$AAa?$AAt?$AAn@ 10024770     libucrt:lcidtoname_downlevel.obj
 0002:00004788       ??_C@_1M@MAOFCAEA@?$AAe?$AAu?$AA?9?$AAE?$AAS@ 10024788     libucrt:lcidtoname_downlevel.obj
 0002:00004794       ??_C@_1M@IGHABKPI@?$AAm?$AAk?$AA?9?$AAM?$AAK@ 10024794     libucrt:lcidtoname_downlevel.obj
 0002:000047a0       ??_C@_1M@IAIGNEJG@?$AAt?$AAn?$AA?9?$AAZ?$AAA@ 100247a0     libucrt:lcidtoname_downlevel.obj
 0002:000047ac       ??_C@_1M@IIJCOJFA@?$AAx?$AAh?$AA?9?$AAZ?$AAA@ 100247ac     libucrt:lcidtoname_downlevel.obj
 0002:000047b8       ??_C@_1M@LGPJHNJH@?$AAz?$AAu?$AA?9?$AAZ?$AAA@ 100247b8     libucrt:lcidtoname_downlevel.obj
 0002:000047c4       ??_C@_1M@HOKAOIO@?$AAa?$AAf?$AA?9?$AAZ?$AAA@ 100247c4     libucrt:lcidtoname_downlevel.obj
 0002:000047d0       ??_C@_1M@DPCLHLIE@?$AAk?$AAa?$AA?9?$AAG?$AAE@ 100247d0     libucrt:lcidtoname_downlevel.obj
 0002:000047dc       ??_C@_1M@BLKMHJBI@?$AAf?$AAo?$AA?9?$AAF?$AAO@ 100247dc     libucrt:lcidtoname_downlevel.obj
 0002:000047e8       ??_C@_1M@LGGJAPPB@?$AAh?$AAi?$AA?9?$AAI?$AAN@ 100247e8     libucrt:lcidtoname_downlevel.obj
 0002:000047f4       ??_C@_1M@FIKPIHFE@?$AAm?$AAt?$AA?9?$AAM?$AAT@ 100247f4     libucrt:lcidtoname_downlevel.obj
 0002:00004800       ??_C@_1M@HEGGPBFA@?$AAs?$AAe?$AA?9?$AAN?$AAO@ 10024800     libucrt:lcidtoname_downlevel.obj
 0002:0000480c       ??_C@_1M@EIBJEEPA@?$AAm?$AAs?$AA?9?$AAM?$AAY@ 1002480c     libucrt:lcidtoname_downlevel.obj
 0002:00004818       ??_C@_1M@FHLBGMPP@?$AAk?$AAk?$AA?9?$AAK?$AAZ@ 10024818     libucrt:lcidtoname_downlevel.obj
 0002:00004824       ??_C@_1M@NGJJLCGI@?$AAk?$AAy?$AA?9?$AAK?$AAG@ 10024824     libucrt:lcidtoname_downlevel.obj
 0002:00004830       ??_C@_1M@GIENNBFC@?$AAs?$AAw?$AA?9?$AAK?$AAE@ 10024830     libucrt:lcidtoname_downlevel.obj
 0002:0000483c       ??_C@_1BG@NDGMJIMJ@?$AAu?$AAz?$AA?9?$AAU?$AAZ?$AA?9?$AAL?$AAa?$AAt?$AAn@ 1002483c     libucrt:lcidtoname_downlevel.obj
 0002:00004854       ??_C@_1M@IDCCIHBC@?$AAt?$AAt?$AA?9?$AAR?$AAU@ 10024854     libucrt:lcidtoname_downlevel.obj
 0002:00004860       ??_C@_1M@LOICPMOJ@?$AAb?$AAn?$AA?9?$AAI?$AAN@ 10024860     libucrt:lcidtoname_downlevel.obj
 0002:0000486c       ??_C@_1M@KPKKNEAH@?$AAp?$AAa?$AA?9?$AAI?$AAN@ 1002486c     libucrt:lcidtoname_downlevel.obj
 0002:00004878       ??_C@_1M@PJGPPBOG@?$AAg?$AAu?$AA?9?$AAI?$AAN@ 10024878     libucrt:lcidtoname_downlevel.obj
 0002:00004884       ??_C@_1M@KMKMOPHI@?$AAt?$AAa?$AA?9?$AAI?$AAN@ 10024884     libucrt:lcidtoname_downlevel.obj
 0002:00004890       ??_C@_1M@KFEHEPAC@?$AAt?$AAe?$AA?9?$AAI?$AAN@ 10024890     libucrt:lcidtoname_downlevel.obj
 0002:0000489c       ??_C@_1M@CDCLMGHI@?$AAk?$AAn?$AA?9?$AAI?$AAN@ 1002489c     libucrt:lcidtoname_downlevel.obj
 0002:000048a8       ??_C@_1M@MIODLDKF@?$AAm?$AAl?$AA?9?$AAI?$AAN@ 100248a8     libucrt:lcidtoname_downlevel.obj
 0002:000048b4       ??_C@_1M@PBIEACPO@?$AAm?$AAr?$AA?9?$AAI?$AAN@ 100248b4     libucrt:lcidtoname_downlevel.obj
 0002:000048c0       ??_C@_1M@NIDEAGPH@?$AAs?$AAa?$AA?9?$AAI?$AAN@ 100248c0     libucrt:lcidtoname_downlevel.obj
 0002:000048cc       ??_C@_1M@FHIHCBIO@?$AAm?$AAn?$AA?9?$AAM?$AAN@ 100248cc     libucrt:lcidtoname_downlevel.obj
 0002:000048d8       ??_C@_1M@JAIJPENP@?$AAc?$AAy?$AA?9?$AAG?$AAB@ 100248d8     libucrt:lcidtoname_downlevel.obj
 0002:000048e4       ??_C@_1M@PHGFBEPN@?$AAg?$AAl?$AA?9?$AAE?$AAS@ 100248e4     libucrt:lcidtoname_downlevel.obj
 0002:000048f0       ??_C@_1O@KPIPDNCP@?$AAk?$AAo?$AAk?$AA?9?$AAI?$AAN@ 100248f0     libucrt:lcidtoname_downlevel.obj
 0002:00004900       ??_C@_1O@KNHJLDJA@?$AAs?$AAy?$AAr?$AA?9?$AAS?$AAY@ 10024900     libucrt:lcidtoname_downlevel.obj
 0002:00004910       ??_C@_1O@MKEKBLAH@?$AAd?$AAi?$AAv?$AA?9?$AAM?$AAV@ 10024910     libucrt:lcidtoname_downlevel.obj
 0002:00004920       ??_C@_1O@OHDCKDDF@?$AAq?$AAu?$AAz?$AA?9?$AAB?$AAO@ 10024920     libucrt:lcidtoname_downlevel.obj
 0002:00004930       ??_C@_1M@LEPJNLFD@?$AAn?$AAs?$AA?9?$AAZ?$AAA@ 10024930     libucrt:lcidtoname_downlevel.obj
 0002:0000493c       ??_C@_1M@OMLEIIJB@?$AAm?$AAi?$AA?9?$AAN?$AAZ@ 1002493c     libucrt:lcidtoname_downlevel.obj
 0002:00004948       ??_C@_1M@PMPEAILG@?$AAa?$AAr?$AA?9?$AAI?$AAQ@ 10024948     libucrt:lcidtoname_downlevel.obj
 0002:00004954       ??_C@_1M@CNKPNOEE@?$AAd?$AAe?$AA?9?$AAC?$AAH@ 10024954     libucrt:lcidtoname_downlevel.obj
 0002:00004960       ??_C@_1M@LKMGMLKO@?$AAe?$AAn?$AA?9?$AAG?$AAB@ 10024960     libucrt:lcidtoname_downlevel.obj
 0002:0000496c       ??_C@_1M@PGKJFFGL@?$AAe?$AAs?$AA?9?$AAM?$AAX@ 1002496c     libucrt:lcidtoname_downlevel.obj
 0002:00004978       ??_C@_1M@DNNANBDC@?$AAf?$AAr?$AA?9?$AAB?$AAE@ 10024978     libucrt:lcidtoname_downlevel.obj
 0002:00004984       ??_C@_1M@HLGMDFHM@?$AAi?$AAt?$AA?9?$AAC?$AAH@ 10024984     libucrt:lcidtoname_downlevel.obj
 0002:00004990       ??_C@_1M@CLLBGJH@?$AAn?$AAl?$AA?9?$AAB?$AAE@ 10024990     libucrt:lcidtoname_downlevel.obj
 0002:0000499c       ??_C@_1M@BODBOGLF@?$AAn?$AAn?$AA?9?$AAN?$AAO@ 1002499c     libucrt:lcidtoname_downlevel.obj
 0002:000049a8       ??_C@_1M@HFFAHKAD@?$AAp?$AAt?$AA?9?$AAP?$AAT@ 100249a8     libucrt:lcidtoname_downlevel.obj
 0002:000049b4       ??_C@_1BG@LNOAKHIE@?$AAs?$AAr?$AA?9?$AAS?$AAP?$AA?9?$AAL?$AAa?$AAt?$AAn@ 100249b4     libucrt:lcidtoname_downlevel.obj
 0002:000049cc       ??_C@_1M@HBMHBGAK@?$AAs?$AAv?$AA?9?$AAF?$AAI@ 100249cc     libucrt:lcidtoname_downlevel.obj
 0002:000049d8       ??_C@_1BG@DGCJGJBE@?$AAa?$AAz?$AA?9?$AAA?$AAZ?$AA?9?$AAC?$AAy?$AAr?$AAl@ 100249d8     libucrt:lcidtoname_downlevel.obj
 0002:000049f0       ??_C@_1M@KEJDAAHB@?$AAs?$AAe?$AA?9?$AAS?$AAE@ 100249f0     libucrt:lcidtoname_downlevel.obj
 0002:000049fc       ??_C@_1M@HEIBJJAD@?$AAm?$AAs?$AA?9?$AAB?$AAN@ 100249fc     libucrt:lcidtoname_downlevel.obj
 0002:00004a08       ??_C@_1BG@PBGJMCEM@?$AAu?$AAz?$AA?9?$AAU?$AAZ?$AA?9?$AAC?$AAy?$AAr?$AAl@ 10024a08     libucrt:lcidtoname_downlevel.obj
 0002:00004a20       ??_C@_1O@LAOBCMDF@?$AAq?$AAu?$AAz?$AA?9?$AAE?$AAC@ 10024a20     libucrt:lcidtoname_downlevel.obj
 0002:00004a30       ??_C@_1M@POEEMAIO@?$AAa?$AAr?$AA?9?$AAE?$AAG@ 10024a30     libucrt:lcidtoname_downlevel.obj
 0002:00004a3c       ??_C@_1M@EFAKDEDL@?$AAz?$AAh?$AA?9?$AAH?$AAK@ 10024a3c     libucrt:lcidtoname_downlevel.obj
 0002:00004a48       ??_C@_1M@HKKIJHGI@?$AAd?$AAe?$AA?9?$AAA?$AAT@ 10024a48     libucrt:lcidtoname_downlevel.obj
 0002:00004a54       ??_C@_1M@KBFBEHJF@?$AAe?$AAn?$AA?9?$AAA?$AAU@ 10024a54     libucrt:lcidtoname_downlevel.obj
 0002:00004a60       ??_C@_1M@MNPLFAAH@?$AAe?$AAs?$AA?9?$AAE?$AAS@ 10024a60     libucrt:lcidtoname_downlevel.obj
 0002:00004a6c       ??_C@_1M@HJOOJFMA@?$AAf?$AAr?$AA?9?$AAC?$AAA@ 10024a6c     libucrt:lcidtoname_downlevel.obj
 0002:00004a78       ??_C@_1BG@JPOFPNAB@?$AAs?$AAr?$AA?9?$AAS?$AAP?$AA?9?$AAC?$AAy?$AAr?$AAl@ 10024a78     libucrt:lcidtoname_downlevel.obj
 0002:00004a90       ??_C@_1M@LNFOCMOB@?$AAs?$AAe?$AA?9?$AAF?$AAI@ 10024a90     libucrt:lcidtoname_downlevel.obj
 0002:00004a9c       ??_C@_1O@MGJBOAMB@?$AAq?$AAu?$AAz?$AA?9?$AAP?$AAE@ 10024a9c     libucrt:lcidtoname_downlevel.obj
 0002:00004aac       ??_C@_1M@GJINLBOK@?$AAa?$AAr?$AA?9?$AAL?$AAY@ 10024aac     libucrt:lcidtoname_downlevel.obj
 0002:00004ab8       ??_C@_1M@GGMNHJNL@?$AAz?$AAh?$AA?9?$AAS?$AAG@ 10024ab8     libucrt:lcidtoname_downlevel.obj
 0002:00004ac4       ??_C@_1M@HOIKODND@?$AAd?$AAe?$AA?9?$AAL?$AAU@ 10024ac4     libucrt:lcidtoname_downlevel.obj
 0002:00004ad0       ??_C@_1M@DDOCCGFG@?$AAe?$AAn?$AA?9?$AAC?$AAA@ 10024ad0     libucrt:lcidtoname_downlevel.obj
 0002:00004adc       ??_C@_1M@BNOEMJLF@?$AAe?$AAs?$AA?9?$AAG?$AAT@ 10024adc     libucrt:lcidtoname_downlevel.obj
 0002:00004ae8       ??_C@_1M@EOGNKEK@?$AAf?$AAr?$AA?9?$AAC?$AAH@ 10024ae8     libucrt:lcidtoname_downlevel.obj
 0002:00004af4       ??_C@_1M@FLIDJFHL@?$AAh?$AAr?$AA?9?$AAB?$AAA@ 10024af4     libucrt:lcidtoname_downlevel.obj
 0002:00004b00       ??_C@_1O@FMCELNAJ@?$AAs?$AAm?$AAj?$AA?9?$AAN?$AAO@ 10024b00     libucrt:lcidtoname_downlevel.obj
 0002:00004b10       ??_C@_1M@JHGLJMGJ@?$AAa?$AAr?$AA?9?$AAD?$AAZ@ 10024b10     libucrt:lcidtoname_downlevel.obj
 0002:00004b1c       ??_C@_1M@JKKFDCNP@?$AAz?$AAh?$AA?9?$AAM?$AAO@ 10024b1c     libucrt:lcidtoname_downlevel.obj
 0002:00004b28       ??_C@_1M@GEEFALPE@?$AAd?$AAe?$AA?9?$AAL?$AAI@ 10024b28     libucrt:lcidtoname_downlevel.obj
 0002:00004b34       ??_C@_1M@IGEOFBG@?$AAe?$AAn?$AA?9?$AAN?$AAZ@ 10024b34     libucrt:lcidtoname_downlevel.obj
 0002:00004b40       ??_C@_1M@KDBONEHP@?$AAe?$AAs?$AA?9?$AAC?$AAR@ 10024b40     libucrt:lcidtoname_downlevel.obj
 0002:00004b4c       ??_C@_1M@FHMDOHNN@?$AAf?$AAr?$AA?9?$AAL?$AAU@ 10024b4c     libucrt:lcidtoname_downlevel.obj
 0002:00004b58       ??_C@_1BG@NFKKMAFG@?$AAb?$AAs?$AA?9?$AAB?$AAA?$AA?9?$AAL?$AAa?$AAt?$AAn@ 10024b58     libucrt:lcidtoname_downlevel.obj
 0002:00004b70       ??_C@_1O@IMNBEMCI@?$AAs?$AAm?$AAj?$AA?9?$AAS?$AAE@ 10024b70     libucrt:lcidtoname_downlevel.obj
 0002:00004b80       ??_C@_1M@DHHMBNDP@?$AAa?$AAr?$AA?9?$AAM?$AAA@ 10024b80     libucrt:lcidtoname_downlevel.obj
 0002:00004b8c       ??_C@_1M@BNBLJCGH@?$AAe?$AAn?$AA?9?$AAI?$AAE@ 10024b8c     libucrt:lcidtoname_downlevel.obj
 0002:00004b98       ??_C@_1M@GEPAFMDL@?$AAe?$AAs?$AA?9?$AAP?$AAA@ 10024b98     libucrt:lcidtoname_downlevel.obj
 0002:00004ba4       ??_C@_1M@OJONDMDL@?$AAf?$AAr?$AA?9?$AAM?$AAC@ 10024ba4     libucrt:lcidtoname_downlevel.obj
 0002:00004bb0       ??_C@_1BG@OBCNFJB@?$AAs?$AAr?$AA?9?$AAB?$AAA?$AA?9?$AAL?$AAa?$AAt?$AAn@ 10024bb0     libucrt:lcidtoname_downlevel.obj
 0002:00004bc8       ??_C@_1O@KEMEEGPO@?$AAs?$AAm?$AAa?$AA?9?$AAN?$AAO@ 10024bc8     libucrt:lcidtoname_downlevel.obj
 0002:00004bd8       ??_C@_1M@ELMGFODK@?$AAa?$AAr?$AA?9?$AAT?$AAN@ 10024bd8     libucrt:lcidtoname_downlevel.obj
 0002:00004be4       ??_C@_1M@BHDLHFAF@?$AAe?$AAn?$AA?9?$AAZ?$AAA@ 10024be4     libucrt:lcidtoname_downlevel.obj
 0002:00004bf0       ??_C@_1M@BMGIGLIF@?$AAe?$AAs?$AA?9?$AAD?$AAO@ 10024bf0     libucrt:lcidtoname_downlevel.obj
 0002:00004bfc       ??_C@_1BG@CMBHIPBE@?$AAs?$AAr?$AA?9?$AAB?$AAA?$AA?9?$AAC?$AAy?$AAr?$AAl@ 10024bfc     libucrt:lcidtoname_downlevel.obj
 0002:00004c14       ??_C@_1O@HEDBLHNP@?$AAs?$AAm?$AAa?$AA?9?$AAS?$AAE@ 10024c14     libucrt:lcidtoname_downlevel.obj
 0002:00004c24       ??_C@_1M@DAGCADIM@?$AAa?$AAr?$AA?9?$AAO?$AAM@ 10024c24     libucrt:lcidtoname_downlevel.obj
 0002:00004c30       ??_C@_1M@FODLMICG@?$AAe?$AAn?$AA?9?$AAJ?$AAM@ 10024c30     libucrt:lcidtoname_downlevel.obj
 0002:00004c3c       ??_C@_1M@DNMLCIHB@?$AAe?$AAs?$AA?9?$AAV?$AAE@ 10024c3c     libucrt:lcidtoname_downlevel.obj
 0002:00004c48       ??_C@_1O@EOKHMKJK@?$AAs?$AAm?$AAs?$AA?9?$AAF?$AAI@ 10024c48     libucrt:lcidtoname_downlevel.obj
 0002:00004c58       ??_C@_1M@CAFJMKOF@?$AAa?$AAr?$AA?9?$AAY?$AAE@ 10024c58     libucrt:lcidtoname_downlevel.obj
 0002:00004c64       ??_C@_1M@CBFHIJLI@?$AAe?$AAn?$AA?9?$AAC?$AAB@ 10024c64     libucrt:lcidtoname_downlevel.obj
 0002:00004c70       ??_C@_1M@BGNFLDN@?$AAe?$AAs?$AA?9?$AAC?$AAO@ 10024c70     libucrt:lcidtoname_downlevel.obj
 0002:00004c7c       ??_C@_1O@JMPHMAMC@?$AAs?$AAm?$AAn?$AA?9?$AAF?$AAI@ 10024c7c     libucrt:lcidtoname_downlevel.obj
 0002:00004c8c       ??_C@_1M@JLANABKE@?$AAa?$AAr?$AA?9?$AAS?$AAY@ 10024c8c     libucrt:lcidtoname_downlevel.obj
 0002:00004c98       ??_C@_1M@HPKGCFGN@?$AAe?$AAn?$AA?9?$AAB?$AAZ@ 10024c98     libucrt:lcidtoname_downlevel.obj
 0002:00004ca4       ??_C@_1M@OLJCMLGM@?$AAe?$AAs?$AA?9?$AAP?$AAE@ 10024ca4     libucrt:lcidtoname_downlevel.obj
 0002:00004cb0       ??_C@_1M@MKKGFKLE@?$AAa?$AAr?$AA?9?$AAJ?$AAO@ 10024cb0     libucrt:lcidtoname_downlevel.obj
 0002:00004cbc       ??_C@_1M@EKPGLDNI@?$AAe?$AAn?$AA?9?$AAT?$AAT@ 10024cbc     libucrt:lcidtoname_downlevel.obj
 0002:00004cc8       ??_C@_1M@OONGHFHE@?$AAe?$AAs?$AA?9?$AAA?$AAR@ 10024cc8     libucrt:lcidtoname_downlevel.obj
 0002:00004cd4       ??_C@_1M@OOJFGBHE@?$AAa?$AAr?$AA?9?$AAL?$AAB@ 10024cd4     libucrt:lcidtoname_downlevel.obj
 0002:00004ce0       ??_C@_1M@GCEJHNEG@?$AAe?$AAn?$AA?9?$AAZ?$AAW@ 10024ce0     libucrt:lcidtoname_downlevel.obj
 0002:00004cec       ??_C@_1M@JNOCAHJI@?$AAe?$AAs?$AA?9?$AAE?$AAC@ 10024cec     libucrt:lcidtoname_downlevel.obj
 0002:00004cf8       ??_C@_1M@JEFHPGGB@?$AAa?$AAr?$AA?9?$AAK?$AAW@ 10024cf8     libucrt:lcidtoname_downlevel.obj
 0002:00004d04       ??_C@_1M@MLKIBJOJ@?$AAe?$AAn?$AA?9?$AAP?$AAH@ 10024d04     libucrt:lcidtoname_downlevel.obj
 0002:00004d10       ??_C@_1M@BDNIPEND@?$AAe?$AAs?$AA?9?$AAC?$AAL@ 10024d10     libucrt:lcidtoname_downlevel.obj
 0002:00004d1c       ??_C@_1M@MPNMEKBD@?$AAa?$AAr?$AA?9?$AAA?$AAE@ 10024d1c     libucrt:lcidtoname_downlevel.obj
 0002:00004d28       ??_C@_1M@KBJALCPI@?$AAe?$AAs?$AA?9?$AAU?$AAY@ 10024d28     libucrt:lcidtoname_downlevel.obj
 0002:00004d34       ??_C@_1M@LLCCOAGA@?$AAa?$AAr?$AA?9?$AAB?$AAH@ 10024d34     libucrt:lcidtoname_downlevel.obj
 0002:00004d40       ??_C@_1M@PBFNCDEL@?$AAe?$AAs?$AA?9?$AAP?$AAY@ 10024d40     libucrt:lcidtoname_downlevel.obj
 0002:00004d4c       ??_C@_1M@EDGINPNP@?$AAa?$AAr?$AA?9?$AAQ?$AAA@ 10024d4c     libucrt:lcidtoname_downlevel.obj
 0002:00004d58       ??_C@_1M@MKDBIIJI@?$AAe?$AAs?$AA?9?$AAB?$AAO@ 10024d58     libucrt:lcidtoname_downlevel.obj
 0002:00004d64       ??_C@_1M@CPKKEBLD@?$AAe?$AAs?$AA?9?$AAS?$AAV@ 10024d64     libucrt:lcidtoname_downlevel.obj
 0002:00004d70       ??_C@_1M@NDBGMMJL@?$AAe?$AAs?$AA?9?$AAH?$AAN@ 10024d70     libucrt:lcidtoname_downlevel.obj
 0002:00004d7c       ??_C@_1M@JIJIBHDP@?$AAe?$AAs?$AA?9?$AAN?$AAI@ 10024d7c     libucrt:lcidtoname_downlevel.obj
 0002:00004d88       ??_C@_1M@CGFMKEEK@?$AAe?$AAs?$AA?9?$AAP?$AAR@ 10024d88     libucrt:lcidtoname_downlevel.obj
 0002:00004d94       ??_C@_1O@ICJHKIIK@?$AAz?$AAh?$AA?9?$AAC?$AAH?$AAT@ 10024d94     libucrt:lcidtoname_downlevel.obj
 0002:00004da4       ??_C@_15CLNEJCE@?$AAs?$AAr@ 10024da4     libucrt:lcidtoname_downlevel.obj
 0002:000054d0       ??_C@_1M@KAHEKEIG@?$AAa?$AAf?$AA?9?$AAz?$AAa@ 100254d0     libucrt:lcidtoname_downlevel.obj
 0002:000054dc       ??_C@_1M@GIECOABL@?$AAa?$AAr?$AA?9?$AAa?$AAe@ 100254dc     libucrt:lcidtoname_downlevel.obj
 0002:000054e8       ??_C@_1M@BMLMEKGI@?$AAa?$AAr?$AA?9?$AAb?$AAh@ 100254e8     libucrt:lcidtoname_downlevel.obj
 0002:000054f4       ??_C@_1M@DAPFDGGB@?$AAa?$AAr?$AA?9?$AAd?$AAz@ 100254f4     libucrt:lcidtoname_downlevel.obj
 0002:00005500       ??_C@_1M@FJNKGKIG@?$AAa?$AAr?$AA?9?$AAe?$AAg@ 10025500     libucrt:lcidtoname_downlevel.obj
 0002:0000550c       ??_C@_1M@FLGKKCLO@?$AAa?$AAr?$AA?9?$AAi?$AAq@ 1002550c     libucrt:lcidtoname_downlevel.obj
 0002:00005518       ??_C@_1M@GNDIPALM@?$AAa?$AAr?$AA?9?$AAj?$AAo@ 10025518     libucrt:lcidtoname_downlevel.obj
 0002:00005524       ??_C@_1M@DDMJFMGJ@?$AAa?$AAr?$AA?9?$AAk?$AAw@ 10025524     libucrt:lcidtoname_downlevel.obj
 0002:00005530       ??_C@_1M@EJALMLHM@?$AAa?$AAr?$AA?9?$AAl?$AAb@ 10025530     libucrt:lcidtoname_downlevel.obj
 0002:0000553c       ??_C@_1M@MOBDBLOC@?$AAa?$AAr?$AA?9?$AAl?$AAy@ 1002553c     libucrt:lcidtoname_downlevel.obj
 0002:00005548       ??_C@_1M@JAOCLHDH@?$AAa?$AAr?$AA?9?$AAm?$AAa@ 10025548     libucrt:lcidtoname_downlevel.obj
 0002:00005554       ??_C@_1M@JHPMKJIE@?$AAa?$AAr?$AA?9?$AAo?$AAm@ 10025554     libucrt:lcidtoname_downlevel.obj
 0002:00005560       ??_C@_1M@OEPGHFNH@?$AAa?$AAr?$AA?9?$AAq?$AAa@ 10025560     libucrt:lcidtoname_downlevel.obj
 0002:0000556c       ??_C@_1M@KJDONENM@?$AAa?$AAr?$AA?9?$AAs?$AAa@ 1002556c     libucrt:lcidtoname_downlevel.obj
 0002:00005578       ??_C@_1M@DMJDKLKM@?$AAa?$AAr?$AA?9?$AAs?$AAy@ 10025578     libucrt:lcidtoname_downlevel.obj
 0002:00005584       ??_C@_1M@OMFIPEDC@?$AAa?$AAr?$AA?9?$AAt?$AAn@ 10025584     libucrt:lcidtoname_downlevel.obj
 0002:00005590       ??_C@_1M@IHMHGAON@?$AAa?$AAr?$AA?9?$AAy?$AAe@ 10025590     libucrt:lcidtoname_downlevel.obj
 0002:0000559c       ??_C@_1BG@KDCPGJGB@?$AAa?$AAz?$AA?9?$AAa?$AAz?$AA?9?$AAc?$AAy?$AAr?$AAl@ 1002559c     libucrt:lcidtoname_downlevel.obj
 0002:000055b4       ??_C@_1BG@IBCKDDOE@?$AAa?$AAz?$AA?9?$AAa?$AAz?$AA?9?$AAl?$AAa?$AAt?$AAn@ 100255b4     libucrt:lcidtoname_downlevel.obj
 0002:000055cc       ??_C@_1M@EGPFDCPD@?$AAb?$AAe?$AA?9?$AAb?$AAy@ 100255cc     libucrt:lcidtoname_downlevel.obj
 0002:000055d8       ??_C@_1M@PCMGMCGC@?$AAb?$AAg?$AA?9?$AAb?$AAg@ 100255d8     libucrt:lcidtoname_downlevel.obj
 0002:000055e4       ??_C@_1M@BJBMFGOB@?$AAb?$AAn?$AA?9?$AAi?$AAn@ 100255e4     libucrt:lcidtoname_downlevel.obj
 0002:000055f0       ??_C@_1BG@EAKMMACD@?$AAb?$AAs?$AA?9?$AAb?$AAa?$AA?9?$AAl?$AAa?$AAt?$AAn@ 100255f0     libucrt:lcidtoname_downlevel.obj
 0002:00005608       ??_C@_1M@KGADAODK@?$AAc?$AAa?$AA?9?$AAe?$AAs@ 10025608     libucrt:lcidtoname_downlevel.obj
 0002:00005614       ??_C@_1M@COAJPDHI@?$AAc?$AAs?$AA?9?$AAc?$AAz@ 10025614     libucrt:lcidtoname_downlevel.obj
 0002:00005620       ??_C@_1M@DHBHFONH@?$AAc?$AAy?$AA?9?$AAg?$AAb@ 10025620     libucrt:lcidtoname_downlevel.obj
 0002:0000562c       ??_C@_1M@IMGKELGA@?$AAd?$AAa?$AA?9?$AAd?$AAk@ 1002562c     libucrt:lcidtoname_downlevel.obj
 0002:00005638       ??_C@_1M@NNDGDNGA@?$AAd?$AAe?$AA?9?$AAa?$AAt@ 10025638     libucrt:lcidtoname_downlevel.obj
 0002:00005644       ??_C@_1M@IKDBHEEM@?$AAd?$AAe?$AA?9?$AAc?$AAh@ 10025644     libucrt:lcidtoname_downlevel.obj
 0002:00005650       ??_C@_1M@GFFOJMCJ@?$AAd?$AAe?$AA?9?$AAd?$AAe@ 10025650     libucrt:lcidtoname_downlevel.obj
 0002:0000565c       ??_C@_1M@MDNLKBPM@?$AAd?$AAe?$AA?9?$AAl?$AAi@ 1002565c     libucrt:lcidtoname_downlevel.obj
 0002:00005668       ??_C@_1M@NJBEEJNL@?$AAd?$AAe?$AA?9?$AAl?$AAu@ 10025668     libucrt:lcidtoname_downlevel.obj
 0002:00005674       ??_C@_1O@GNNELBAP@?$AAd?$AAi?$AAv?$AA?9?$AAm?$AAv@ 10025674     libucrt:lcidtoname_downlevel.obj
 0002:00005684       ??_C@_1M@EJLEOGAE@?$AAe?$AAl?$AA?9?$AAg?$AAr@ 10025684     libucrt:lcidtoname_downlevel.obj
 0002:00005690       ??_C@_1M@GMPONJN@?$AAe?$AAn?$AA?9?$AAa?$AAu@ 10025690     libucrt:lcidtoname_downlevel.obj
 0002:0000569c       ??_C@_1M@NIDIIPGF@?$AAe?$AAn?$AA?9?$AAb?$AAz@ 1002569c     libucrt:lcidtoname_downlevel.obj
 0002:000056a8       ??_C@_1M@JEHMIMFO@?$AAe?$AAn?$AA?9?$AAc?$AAa@ 100256a8     libucrt:lcidtoname_downlevel.obj
 0002:000056b4       ??_C@_1M@IGMJCDLA@?$AAe?$AAn?$AA?9?$AAc?$AAb@ 100256b4     libucrt:lcidtoname_downlevel.obj
 0002:000056c0       ??_C@_1M@BNFIGBKG@?$AAe?$AAn?$AA?9?$AAg?$AAb@ 100256c0     libucrt:lcidtoname_downlevel.obj
 0002:000056cc       ??_C@_1M@LKIFDIGP@?$AAe?$AAn?$AA?9?$AAi?$AAe@ 100256cc     libucrt:lcidtoname_downlevel.obj
 0002:000056d8       ??_C@_1M@PJKFGCCO@?$AAe?$AAn?$AA?9?$AAj?$AAm@ 100256d8     libucrt:lcidtoname_downlevel.obj
 0002:000056e4       ??_C@_1M@KPPKEPBO@?$AAe?$AAn?$AA?9?$AAn?$AAz@ 100256e4     libucrt:lcidtoname_downlevel.obj
 0002:000056f0       ??_C@_1M@GMDGLDOB@?$AAe?$AAn?$AA?9?$AAp?$AAh@ 100256f0     libucrt:lcidtoname_downlevel.obj
 0002:000056fc       ??_C@_1M@ONGIBJNA@?$AAe?$AAn?$AA?9?$AAt?$AAt@ 100256fc     libucrt:lcidtoname_downlevel.obj
 0002:00005708       ??_C@_1M@LLODPCMM@?$AAe?$AAn?$AA?9?$AAu?$AAs@ 10025708     libucrt:lcidtoname_downlevel.obj
 0002:00005714       ??_C@_1M@LAKFNPAN@?$AAe?$AAn?$AA?9?$AAz?$AAa@ 10025714     libucrt:lcidtoname_downlevel.obj
 0002:00005720       ??_C@_1M@MFNHNHEO@?$AAe?$AAn?$AA?9?$AAz?$AAw@ 10025720     libucrt:lcidtoname_downlevel.obj
 0002:0000572c       ??_C@_1M@EJEINPHM@?$AAe?$AAs?$AA?9?$AAa?$AAr@ 1002572c     libucrt:lcidtoname_downlevel.obj
 0002:00005738       ??_C@_1M@GNKPCCJA@?$AAe?$AAs?$AA?9?$AAb?$AAo@ 10025738     libucrt:lcidtoname_downlevel.obj
 0002:00005744       ??_C@_1M@LEEGFONL@?$AAe?$AAs?$AA?9?$AAc?$AAl@ 10025744     libucrt:lcidtoname_downlevel.obj
 0002:00005750       ??_C@_1M@KGPDPBDF@?$AAe?$AAs?$AA?9?$AAc?$AAo@ 10025750     libucrt:lcidtoname_downlevel.obj
 0002:0000575c       ??_C@_1M@EIAHOHH@?$AAe?$AAs?$AA?9?$AAc?$AAr@ 1002575c     libucrt:lcidtoname_downlevel.obj
 0002:00005768       ??_C@_1M@LLPGMBIN@?$AAe?$AAs?$AA?9?$AAd?$AAo@ 10025768     libucrt:lcidtoname_downlevel.obj
 0002:00005774       ??_C@_1M@DKHMKNJA@?$AAe?$AAs?$AA?9?$AAe?$AAc@ 10025774     libucrt:lcidtoname_downlevel.obj
 0002:00005780       ??_C@_1M@GKGFPKAP@?$AAe?$AAs?$AA?9?$AAe?$AAs@ 10025780     libucrt:lcidtoname_downlevel.obj
 0002:0000578c       ??_C@_1M@LKHKGDLN@?$AAe?$AAs?$AA?9?$AAg?$AAt@ 1002578c     libucrt:lcidtoname_downlevel.obj
 0002:00005798       ??_C@_1M@HEIIGGJD@?$AAe?$AAs?$AA?9?$AAh?$AAn@ 10025798     libucrt:lcidtoname_downlevel.obj
 0002:000057a4       ??_C@_1M@FBDHPPGD@?$AAe?$AAs?$AA?9?$AAm?$AAx@ 100257a4     libucrt:lcidtoname_downlevel.obj
 0002:000057b0       ??_C@_1M@DPAGLNDH@?$AAe?$AAs?$AA?9?$AAn?$AAi@ 100257b0     libucrt:lcidtoname_downlevel.obj
 0002:000057bc       ??_C@_1M@MDGOPGDD@?$AAe?$AAs?$AA?9?$AAp?$AAa@ 100257bc     libucrt:lcidtoname_downlevel.obj
 0002:000057c8       ??_C@_1M@EMAMGBGE@?$AAe?$AAs?$AA?9?$AAp?$AAe@ 100257c8     libucrt:lcidtoname_downlevel.obj
 0002:000057d4       ??_C@_1M@IBMCAOEC@?$AAe?$AAs?$AA?9?$AAp?$AAr@ 100257d4     libucrt:lcidtoname_downlevel.obj
 0002:000057e0       ??_C@_1M@FGMDIJED@?$AAe?$AAs?$AA?9?$AAp?$AAy@ 100257e0     libucrt:lcidtoname_downlevel.obj
 0002:000057ec       ??_C@_1M@IIDEOLLL@?$AAe?$AAs?$AA?9?$AAs?$AAv@ 100257ec     libucrt:lcidtoname_downlevel.obj
 0002:000057f8       ??_C@_1M@GAOBIPA@?$AAe?$AAs?$AA?9?$AAu?$AAy@ 100257f8     libucrt:lcidtoname_downlevel.obj
 0002:00005804       ??_C@_1M@JKFFICHJ@?$AAe?$AAs?$AA?9?$AAv?$AAe@ 10025804     libucrt:lcidtoname_downlevel.obj
 0002:00005810       ??_C@_1M@PNMLOJDF@?$AAe?$AAt?$AA?9?$AAe?$AAe@ 10025810     libucrt:lcidtoname_downlevel.obj
 0002:0000581c       ??_C@_1M@GHHLIKEI@?$AAe?$AAu?$AA?9?$AAe?$AAs@ 1002581c     libucrt:lcidtoname_downlevel.obj
 0002:00005828       ??_C@_1M@PBNONODE@?$AAf?$AAa?$AA?9?$AAi?$AAr@ 10025828     libucrt:lcidtoname_downlevel.obj
 0002:00005834       ??_C@_1M@JEEHPMIL@?$AAf?$AAi?$AA?9?$AAf?$AAi@ 10025834     libucrt:lcidtoname_downlevel.obj
 0002:00005840       ??_C@_1M@LMDCNDBA@?$AAf?$AAo?$AA?9?$AAf?$AAo@ 10025840     libucrt:lcidtoname_downlevel.obj
 0002:0000584c       ??_C@_1M@JKEOHLDK@?$AAf?$AAr?$AA?9?$AAb?$AAe@ 1002584c     libucrt:lcidtoname_downlevel.obj
 0002:00005858       ??_C@_1M@NOHADPMI@?$AAf?$AAr?$AA?9?$AAc?$AAa@ 10025858     libucrt:lcidtoname_downlevel.obj
 0002:00005864       ??_C@_1M@KDHIHAEC@?$AAf?$AAr?$AA?9?$AAc?$AAh@ 10025864     libucrt:lcidtoname_downlevel.obj
 0002:00005870       ??_C@_1M@MMBBFGAK@?$AAf?$AAr?$AA?9?$AAf?$AAr@ 10025870     libucrt:lcidtoname_downlevel.obj
 0002:0000587c       ??_C@_1M@PAFNENNF@?$AAf?$AAr?$AA?9?$AAl?$AAu@ 1002587c     libucrt:lcidtoname_downlevel.obj
 0002:00005888       ??_C@_1M@EOHDJGDD@?$AAf?$AAr?$AA?9?$AAm?$AAc@ 10025888     libucrt:lcidtoname_downlevel.obj
 0002:00005894       ??_C@_1M@FAPLLOPF@?$AAg?$AAl?$AA?9?$AAe?$AAs@ 10025894     libucrt:lcidtoname_downlevel.obj
 0002:000058a0       ??_C@_1M@FOPBFLOO@?$AAg?$AAu?$AA?9?$AAi?$AAn@ 100258a0     libucrt:lcidtoname_downlevel.obj
 0002:000058ac       ??_C@_1M@KBMCINPM@?$AAh?$AAe?$AA?9?$AAi?$AAl@ 100258ac     libucrt:lcidtoname_downlevel.obj
 0002:000058b8       ??_C@_1M@BBPHKFPJ@?$AAh?$AAi?$AA?9?$AAi?$AAn@ 100258b8     libucrt:lcidtoname_downlevel.obj
 0002:000058c4       ??_C@_1M@PMBNDPHD@?$AAh?$AAr?$AA?9?$AAb?$AAa@ 100258c4     libucrt:lcidtoname_downlevel.obj
 0002:000058d0       ??_C@_1M@BPCKOEGE@?$AAh?$AAr?$AA?9?$AAh?$AAr@ 100258d0     libucrt:lcidtoname_downlevel.obj
 0002:000058dc       ??_C@_1M@GACBMHKE@?$AAh?$AAu?$AA?9?$AAh?$AAu@ 100258dc     libucrt:lcidtoname_downlevel.obj
 0002:000058e8       ??_C@_1M@MILPAJJC@?$AAh?$AAy?$AA?9?$AAa?$AAm@ 100258e8     libucrt:lcidtoname_downlevel.obj
 0002:000058f4       ??_C@_1M@BABBICEC@?$AAi?$AAd?$AA?9?$AAi?$AAd@ 100258f4     libucrt:lcidtoname_downlevel.obj
 0002:00005900       ??_C@_1M@BIKNHHPF@?$AAi?$AAs?$AA?9?$AAi?$AAs@ 10025900     libucrt:lcidtoname_downlevel.obj
 0002:0000590c       ??_C@_1M@NMPCJPHE@?$AAi?$AAt?$AA?9?$AAc?$AAh@ 1002590c     libucrt:lcidtoname_downlevel.obj
 0002:00005918       ??_C@_1M@GHKGFEDF@?$AAi?$AAt?$AA?9?$AAi?$AAt@ 10025918     libucrt:lcidtoname_downlevel.obj
 0002:00005924       ??_C@_1M@NIEJCJJA@?$AAj?$AAa?$AA?9?$AAj?$AAp@ 10025924     libucrt:lcidtoname_downlevel.obj
 0002:00005930       ??_C@_1M@JILFNBIM@?$AAk?$AAa?$AA?9?$AAg?$AAe@ 10025930     libucrt:lcidtoname_downlevel.obj
 0002:0000593c       ??_C@_1M@PACPMGPH@?$AAk?$AAk?$AA?9?$AAk?$AAz@ 1002593c     libucrt:lcidtoname_downlevel.obj
 0002:00005948       ??_C@_1M@IELFGMHA@?$AAk?$AAn?$AA?9?$AAi?$AAn@ 10025948     libucrt:lcidtoname_downlevel.obj
 0002:00005954       ??_C@_1O@IBBJHCH@?$AAk?$AAo?$AAk?$AA?9?$AAi?$AAn@ 10025954     libucrt:lcidtoname_downlevel.obj
 0002:00005964       ??_C@_1M@DMHAEOGC@?$AAk?$AAo?$AA?9?$AAk?$AAr@ 10025964     libucrt:lcidtoname_downlevel.obj
 0002:00005970       ??_C@_1M@HBAHBIGA@?$AAk?$AAy?$AA?9?$AAk?$AAg@ 10025970     libucrt:lcidtoname_downlevel.obj
 0002:0000597c       ??_C@_1M@KPMILCJG@?$AAl?$AAt?$AA?9?$AAl?$AAt@ 1002597c     libucrt:lcidtoname_downlevel.obj
 0002:00005988       ??_C@_1M@BDEKKCA@?$AAl?$AAv?$AA?9?$AAl?$AAv@ 10025988     libucrt:lcidtoname_downlevel.obj
 0002:00005994       ??_C@_1M@ELCKCCJJ@?$AAm?$AAi?$AA?9?$AAn?$AAz@ 10025994     libucrt:lcidtoname_downlevel.obj
 0002:000059a0       ??_C@_1M@CBOOLAPA@?$AAm?$AAk?$AA?9?$AAm?$AAk@ 100259a0     libucrt:lcidtoname_downlevel.obj
 0002:000059ac       ??_C@_1M@GPHNBJKN@?$AAm?$AAl?$AA?9?$AAi?$AAn@ 100259ac     libucrt:lcidtoname_downlevel.obj
 0002:000059b8       ??_C@_1M@PABJILIG@?$AAm?$AAn?$AA?9?$AAm?$AAn@ 100259b8     libucrt:lcidtoname_downlevel.obj
 0002:000059c4       ??_C@_1M@FGBKKIPG@?$AAm?$AAr?$AA?9?$AAi?$AAn@ 100259c4     libucrt:lcidtoname_downlevel.obj
 0002:000059d0       ??_C@_1M@NDBPDDAL@?$AAm?$AAs?$AA?9?$AAb?$AAn@ 100259d0     libucrt:lcidtoname_downlevel.obj
 0002:000059dc       ??_C@_1M@OPIHOOPI@?$AAm?$AAs?$AA?9?$AAm?$AAy@ 100259dc     libucrt:lcidtoname_downlevel.obj
 0002:000059e8       ??_C@_1M@PPDBCNFM@?$AAm?$AAt?$AA?9?$AAm?$AAt@ 100259e8     libucrt:lcidtoname_downlevel.obj
 0002:000059f4       ??_C@_1M@KDJDKMDD@?$AAn?$AAb?$AA?9?$AAn?$AAo@ 100259f4     libucrt:lcidtoname_downlevel.obj
 0002:00005a00       ??_C@_1M@KFCFLMJP@?$AAn?$AAl?$AA?9?$AAb?$AAe@ 10025a00     libucrt:lcidtoname_downlevel.obj
 0002:00005a0c       ??_C@_1M@KPOPDDGO@?$AAn?$AAl?$AA?9?$AAn?$AAl@ 10025a0c     libucrt:lcidtoname_downlevel.obj
 0002:00005a18       ??_C@_1M@LJKPEMLN@?$AAn?$AAn?$AA?9?$AAn?$AAo@ 10025a18     libucrt:lcidtoname_downlevel.obj
 0002:00005a24       ??_C@_1M@BDGHHBFL@?$AAn?$AAs?$AA?9?$AAz?$AAa@ 10025a24     libucrt:lcidtoname_downlevel.obj
 0002:00005a30       ??_C@_1M@IDEHOAP@?$AAp?$AAa?$AA?9?$AAi?$AAn@ 10025a30     libucrt:lcidtoname_downlevel.obj
 0002:00005a3c       ??_C@_1M@HDBKGOGH@?$AAp?$AAl?$AA?9?$AAp?$AAl@ 10025a3c     libucrt:lcidtoname_downlevel.obj
 0002:00005a48       ??_C@_1M@LJLLCMEH@?$AAp?$AAt?$AA?9?$AAb?$AAr@ 10025a48     libucrt:lcidtoname_downlevel.obj
 0002:00005a54       ??_C@_1M@NCMONAAL@?$AAp?$AAt?$AA?9?$AAp?$AAt@ 10025a54     libucrt:lcidtoname_downlevel.obj
 0002:00005a60       ??_C@_1O@EAKMAJDN@?$AAq?$AAu?$AAz?$AA?9?$AAb?$AAo@ 10025a60     libucrt:lcidtoname_downlevel.obj
 0002:00005a70       ??_C@_1O@BHHPIGDN@?$AAq?$AAu?$AAz?$AA?9?$AAe?$AAc@ 10025a70     libucrt:lcidtoname_downlevel.obj
 0002:00005a80       ??_C@_1O@GBAPEKMJ@?$AAq?$AAu?$AAz?$AA?9?$AAp?$AAe@ 10025a80     libucrt:lcidtoname_downlevel.obj
 0002:00005a90       ??_C@_1M@CLGLEFBO@?$AAr?$AAo?$AA?9?$AAr?$AAo@ 10025a90     libucrt:lcidtoname_downlevel.obj
 0002:00005a9c       ??_C@_1M@CEEDODME@?$AAr?$AAu?$AA?9?$AAr?$AAu@ 10025a9c     libucrt:lcidtoname_downlevel.obj
 0002:00005aa8       ??_C@_1M@HPKKKMPP@?$AAs?$AAa?$AA?9?$AAi?$AAn@ 10025aa8     libucrt:lcidtoname_downlevel.obj
 0002:00005ab4       ??_C@_1M@BKMAIGOJ@?$AAs?$AAe?$AA?9?$AAf?$AAi@ 10025ab4     libucrt:lcidtoname_downlevel.obj
 0002:00005ac0       ??_C@_1M@NDPIFLFI@?$AAs?$AAe?$AA?9?$AAn?$AAo@ 10025ac0     libucrt:lcidtoname_downlevel.obj
 0002:00005acc       ??_C@_1M@DANKKHJ@?$AAs?$AAe?$AA?9?$AAs?$AAe@ 10025acc     libucrt:lcidtoname_downlevel.obj
 0002:00005ad8       ??_C@_1M@PNBLONPJ@?$AAs?$AAk?$AA?9?$AAs?$AAk@ 10025ad8     libucrt:lcidtoname_downlevel.obj
 0002:00005ae4       ??_C@_1M@LFMODOAL@?$AAs?$AAl?$AA?9?$AAs?$AAi@ 10025ae4     libucrt:lcidtoname_downlevel.obj
 0002:00005af0       ??_C@_1O@DFKOMPG@?$AAs?$AAm?$AAa?$AA?9?$AAn?$AAo@ 10025af0     libucrt:lcidtoname_downlevel.obj
 0002:00005b00       ??_C@_1O@NDKPBNNH@?$AAs?$AAm?$AAa?$AA?9?$AAs?$AAe@ 10025b00     libucrt:lcidtoname_downlevel.obj
 0002:00005b10       ??_C@_1O@PLLKBHAB@?$AAs?$AAm?$AAj?$AA?9?$AAn?$AAo@ 10025b10     libucrt:lcidtoname_downlevel.obj
 0002:00005b20       ??_C@_1O@CLEPOGCA@?$AAs?$AAm?$AAj?$AA?9?$AAs?$AAe@ 10025b20     libucrt:lcidtoname_downlevel.obj
 0002:00005b30       ??_C@_1O@DLGJGKMK@?$AAs?$AAm?$AAn?$AA?9?$AAf?$AAi@ 10025b30     libucrt:lcidtoname_downlevel.obj
 0002:00005b40       ??_C@_1O@OJDJGAJC@?$AAs?$AAm?$AAs?$AA?9?$AAf?$AAi@ 10025b40     libucrt:lcidtoname_downlevel.obj
 0002:00005b50       ??_C@_1M@BOFOGHPB@?$AAs?$AAq?$AA?9?$AAa?$AAl@ 10025b50     libucrt:lcidtoname_downlevel.obj
 0002:00005b5c       ??_C@_1BG@LJBBIPGB@?$AAs?$AAr?$AA?9?$AAb?$AAa?$AA?9?$AAc?$AAy?$AAr?$AAl@ 10025b5c     libucrt:lcidtoname_downlevel.obj
 0002:00005b74       ??_C@_1BG@JLBENFOE@?$AAs?$AAr?$AA?9?$AAb?$AAa?$AA?9?$AAl?$AAa?$AAt?$AAn@ 10025b74     libucrt:lcidtoname_downlevel.obj
 0002:00005b8c       ??_C@_1BG@KODPNHE@?$AAs?$AAr?$AA?9?$AAs?$AAp?$AA?9?$AAc?$AAy?$AAr?$AAl@ 10025b8c     libucrt:lcidtoname_downlevel.obj
 0002:00005ba4       ??_C@_1BG@CIOGKHPB@?$AAs?$AAr?$AA?9?$AAs?$AAp?$AA?9?$AAl?$AAa?$AAt?$AAn@ 10025ba4     libucrt:lcidtoname_downlevel.obj
 0002:00005bbc       ??_C@_1M@NGFJLMAC@?$AAs?$AAv?$AA?9?$AAf?$AAi@ 10025bbc     libucrt:lcidtoname_downlevel.obj
 0002:00005bc8       ??_C@_1M@MPJEJAJC@?$AAs?$AAv?$AA?9?$AAs?$AAe@ 10025bc8     libucrt:lcidtoname_downlevel.obj
 0002:00005bd4       ??_C@_1M@MPNDHLFK@?$AAs?$AAw?$AA?9?$AAk?$AAe@ 10025bd4     libucrt:lcidtoname_downlevel.obj
 0002:00005be0       ??_C@_1O@KOHBJJI@?$AAs?$AAy?$AAr?$AA?9?$AAs?$AAy@ 10025be0     libucrt:lcidtoname_downlevel.obj
 0002:00005bf0       ??_C@_1M@LDCEFHA@?$AAt?$AAa?$AA?9?$AAi?$AAn@ 10025bf0     libucrt:lcidtoname_downlevel.obj
 0002:00005bfc       ??_C@_1M@CNJOFAK@?$AAt?$AAe?$AA?9?$AAi?$AAn@ 10025bfc     libucrt:lcidtoname_downlevel.obj
 0002:00005c08       ??_C@_1M@GNAECACD@?$AAt?$AAh?$AA?9?$AAt?$AAh@ 10025c08     libucrt:lcidtoname_downlevel.obj
 0002:00005c14       ??_C@_1M@CHBIHOJO@?$AAt?$AAn?$AA?9?$AAz?$AAa@ 10025c14     libucrt:lcidtoname_downlevel.obj
 0002:00005c20       ??_C@_1M@GCCMIGPJ@?$AAt?$AAr?$AA?9?$AAt?$AAr@ 10025c20     libucrt:lcidtoname_downlevel.obj
 0002:00005c2c       ??_C@_1M@CELMCNBK@?$AAt?$AAt?$AA?9?$AAr?$AAu@ 10025c2c     libucrt:lcidtoname_downlevel.obj
 0002:00005c38       ??_C@_1M@KLMCELGA@?$AAu?$AAk?$AA?9?$AAu?$AAa@ 10025c38     libucrt:lcidtoname_downlevel.obj
 0002:00005c44       ??_C@_1M@EPAJJAJF@?$AAu?$AAr?$AA?9?$AAp?$AAk@ 10025c44     libucrt:lcidtoname_downlevel.obj
 0002:00005c50       ??_C@_1BG@GEGPMCDJ@?$AAu?$AAz?$AA?9?$AAu?$AAz?$AA?9?$AAc?$AAy?$AAr?$AAl@ 10025c50     libucrt:lcidtoname_downlevel.obj
 0002:00005c68       ??_C@_1BG@EGGKJILM@?$AAu?$AAz?$AA?9?$AAu?$AAz?$AA?9?$AAl?$AAa?$AAt?$AAn@ 10025c68     libucrt:lcidtoname_downlevel.obj
 0002:00005c80       ??_C@_1M@GFOCLFF@?$AAv?$AAi?$AA?9?$AAv?$AAn@ 10025c80     libucrt:lcidtoname_downlevel.obj
 0002:00005c8c       ??_C@_1M@CPAMEDFI@?$AAx?$AAh?$AA?9?$AAz?$AAa@ 10025c8c     libucrt:lcidtoname_downlevel.obj
 0002:00005c98       ??_C@_1O@EBKIFIGN@?$AAz?$AAh?$AA?9?$AAc?$AAh?$AAs@ 10025c98     libucrt:lcidtoname_downlevel.obj
 0002:00005ca8       ??_C@_1O@NMHPGANE@?$AAz?$AAh?$AA?9?$AAc?$AAh?$AAt@ 10025ca8     libucrt:lcidtoname_downlevel.obj
 0002:00005cb8       ??_C@_1M@LPINJOMC@?$AAz?$AAh?$AA?9?$AAc?$AAn@ 10025cb8     libucrt:lcidtoname_downlevel.obj
 0002:00005cc4       ??_C@_1M@OCJEJODD@?$AAz?$AAh?$AA?9?$AAh?$AAk@ 10025cc4     libucrt:lcidtoname_downlevel.obj
 0002:00005cd0       ??_C@_1M@DNDLJINH@?$AAz?$AAh?$AA?9?$AAm?$AAo@ 10025cd0     libucrt:lcidtoname_downlevel.obj
 0002:00005cdc       ??_C@_1M@MBFDNDND@?$AAz?$AAh?$AA?9?$AAs?$AAg@ 10025cdc     libucrt:lcidtoname_downlevel.obj
 0002:00005ce8       ??_C@_1M@IMEPLEPE@?$AAz?$AAh?$AA?9?$AAt?$AAw@ 10025ce8     libucrt:lcidtoname_downlevel.obj
 0002:00005cf4       ??_C@_1M@BBGHNHJP@?$AAz?$AAu?$AA?9?$AAz?$AAa@ 10025cf4     libucrt:lcidtoname_downlevel.obj
 0002:00005d00       ?large_power_data@?1??multiply_by_power_of_ten@__crt_strtox@@YA_NAAUbig_integer@2@I@Z@4QBIB 10025d00     libucrt:cfout.obj
 0002:000066a0       ?small_powers_of_ten@?1??multiply_by_power_of_ten@__crt_strtox@@YA_NAAUbig_integer@2@I@Z@4QBIB 100266a0     libucrt:cfout.obj
 0002:000066c4       ??_C@_01GBGANLPD@0@        100266c4     libucrt:cfout.obj
 0002:000066c8       ??_C@_05DNEBIAHO@1?$CDINF@ 100266c8     libucrt:cfout.obj
 0002:000066d0       ??_C@_06IMKFLFPG@1?$CDQNAN@ 100266d0     libucrt:cfout.obj
 0002:000066d8       ??_C@_06PGGFOGJG@1?$CDSNAN@ 100266d8     libucrt:cfout.obj
 0002:000066e0       ??_C@_05PHHOCPM@1?$CDIND@  100266e0     libucrt:cfout.obj
 0002:00006850       __infinity                 10026850     libucrt:87tran.obj
 0002:0000685a       __minfinity                1002685a     libucrt:87tran.obj
 0002:00006864       __logemax                  10026864     libucrt:87tran.obj
 0002:0000688a       __OP_EXPjmptab             1002688a     libucrt:87tran.obj
 0002:000068b0       __indefinite               100268b0     libucrt:87disp.obj
 0002:000068ba       __piby2                    100268ba     libucrt:87disp.obj
 0002:000068c4       __piby4                    100268c4     libucrt:87disp.obj
 0002:000068f8       __DEFAULT_CW_in_mem        100268f8     libucrt:common.obj
 0002:000068fa       __pi_by_2_to_61            100268fa     libucrt:common.obj
 0002:00006934       ??_C@_03MGHMBJCF@log@      10026934     libucrt:libm_error.obj
 0002:00006938       ??_C@_05HGHHAHAP@log10@    10026938     libucrt:libm_error.obj
 0002:00006940       ??_C@_03KHJOGHMM@exp@      10026940     libucrt:libm_error.obj
 0002:00006944       ??_C@_03JGHBODFD@pow@      10026944     libucrt:libm_error.obj
 0002:00006948       ??_C@_04FIHNOPOL@asin@     10026948     libucrt:libm_error.obj
 0002:00006950       ??_C@_04PDIFKINK@acos@     10026950     libucrt:libm_error.obj
 0002:00006958       ??_C@_04EIAKFFMI@sqrt@     10026958     libucrt:libm_error.obj
 0002:00006960       __real@3ff0000000000000    10026960     libucrt:libm_error.obj
 0002:00006968       ??_C@_1BA@BALFACEM@?$AAC?$AAO?$AAN?$AAO?$AAU?$AAT?$AA$@ 10026968     libucrt:initcon.obj
 0002:00006990       ___acrt_log10_table_t      10026990     libucrt:log10_tables.obj
 0002:00006da0       ___acrt_log10_table_cb     10026da0     libucrt:log10_tables.obj
 0002:000071b0       __real@3fe0000000000000    100271b0     libucrt:powhlp.obj
 0002:000072a0       ??_C@_04COOMCNPB@sinh@     100272a0     libucrt:fpexcept.obj
 0002:000072a8       ??_C@_04HPJJNFIM@cosh@     100272a8     libucrt:fpexcept.obj
 0002:000072b0       ??_C@_04FJHINJAO@tanh@     100272b0     libucrt:fpexcept.obj
 0002:000072b8       ??_C@_04MLLJIGOK@atan@     100272b8     libucrt:fpexcept.obj
 0002:000072c0       ??_C@_05KNGEOGJB@atan2@    100272c0     libucrt:fpexcept.obj
 0002:000072c8       ??_C@_03BLEJJJBH@sin@      100272c8     libucrt:fpexcept.obj
 0002:000072cc       ??_C@_03LALBNOCG@cos@      100272cc     libucrt:fpexcept.obj
 0002:000072d0       ??_C@_03IIINPABG@tan@      100272d0     libucrt:fpexcept.obj
 0002:000072d4       ??_C@_04GFPJNGEK@ceil@     100272d4     libucrt:fpexcept.obj
 0002:000072dc       ??_C@_05PBJFFIGL@floor@    100272dc     libucrt:fpexcept.obj
 0002:000072e4       ??_C@_04ODHECPBC@fabs@     100272e4     libucrt:fpexcept.obj
 0002:000072ec       ??_C@_04EHEDPDJG@modf@     100272ec     libucrt:fpexcept.obj
 0002:000072f4       ??_C@_05CEJMAHNP@ldexp@    100272f4     libucrt:fpexcept.obj
 0002:000072fc       ??_C@_05KBKMEMPO@_cabs@    100272fc     libucrt:fpexcept.obj
 0002:00007304       ??_C@_06MEIMCGCF@_hypot@   10027304     libucrt:fpexcept.obj
 0002:0000730c       ??_C@_04KEPJIHGP@fmod@     1002730c     libucrt:fpexcept.obj
 0002:00007314       ??_C@_05GKKHEGJL@frexp@    10027314     libucrt:fpexcept.obj
 0002:0000731c       ??_C@_03MJLDFKDL@_y0@      1002731c     libucrt:fpexcept.obj
 0002:00007320       ??_C@_03NAKIGLHK@_y1@      10027320     libucrt:fpexcept.obj
 0002:00007324       ??_C@_03ONILCKOB@_yn@      10027324     libucrt:fpexcept.obj
 0002:00007328       ??_C@_05JGDBENOH@_logb@    10027328     libucrt:fpexcept.obj
 0002:00007330       ??_C@_0L@KDOEJCKC@_nextafter@ 10027330     libucrt:fpexcept.obj
 0002:00007340       __d_inf                    10027340     libucrt:util.obj
 0002:00007348       __d_max                    10027348     libucrt:util.obj
 0002:00007350       __d_mzero                  10027350     libucrt:util.obj
 0002:000073c8       __load_config_used         100273c8     LIBCMT:loadcfg.obj
 0002:0000746c       __tls_used                 1002746c     LIBCMT:tlssup.obj
 0002:00007484       ??_R4exception@std@@6B@    10027484     LIBCMT:throw_bad_alloc.obj
 0002:00007498       ??_R3exception@std@@8      10027498     LIBCMT:throw_bad_alloc.obj
 0002:000074a8       ??_R2exception@std@@8      100274a8     LIBCMT:throw_bad_alloc.obj
 0002:000074b0       ??_R1A@?0A@EA@exception@std@@8 100274b0     LIBCMT:throw_bad_alloc.obj
 0002:000074cc       ??_R4bad_alloc@std@@6B@    100274cc     LIBCMT:throw_bad_alloc.obj
 0002:000074e0       ??_R3bad_alloc@std@@8      100274e0     LIBCMT:throw_bad_alloc.obj
 0002:000074f0       ??_R2bad_alloc@std@@8      100274f0     LIBCMT:throw_bad_alloc.obj
 0002:000074fc       ??_R1A@?0A@EA@bad_alloc@std@@8 100274fc     LIBCMT:throw_bad_alloc.obj
 0002:00007518       ??_R4bad_array_new_length@std@@6B@ 10027518     LIBCMT:throw_bad_alloc.obj
 0002:0000752c       ??_R3bad_array_new_length@std@@8 1002752c     LIBCMT:throw_bad_alloc.obj
 0002:0000753c       ??_R2bad_array_new_length@std@@8 1002753c     LIBCMT:throw_bad_alloc.obj
 0002:0000754c       ??_R1A@?0A@EA@bad_array_new_length@std@@8 1002754c     LIBCMT:throw_bad_alloc.obj
 0002:00007568       ??_R4type_info@@6B@        10027568     LIBCMT:std_type_info_static.obj
 0002:0000757c       ??_R3type_info@@8          1002757c     LIBCMT:std_type_info_static.obj
 0002:0000758c       ??_R2type_info@@8          1002758c     LIBCMT:std_type_info_static.obj
 0002:00007594       ??_R1A@?0A@EA@type_info@@8 10027594     LIBCMT:std_type_info_static.obj
 0002:000075b0       ??_R4bad_exception@std@@6B@ 100275b0     libvcruntime:frame.obj
 0002:000075c4       ??_R3bad_exception@std@@8  100275c4     libvcruntime:frame.obj
 0002:000075d4       ??_R2bad_exception@std@@8  100275d4     libvcruntime:frame.obj
 0002:000075e0       ??_R1A@?0A@EA@bad_exception@std@@8 100275e0     libvcruntime:frame.obj
 0002:00007600       ___safe_se_handler_table   10027600     <linker-defined>
 0002:000079fc       ___rtc_iaa                 100279fc     LIBCMT:initsect.obj
 0002:00007a00       ___rtc_izz                 10027a00     LIBCMT:initsect.obj
 0002:00007a04       ___rtc_taa                 10027a04     LIBCMT:initsect.obj
 0002:00007a08       ___rtc_tzz                 10027a08     LIBCMT:initsect.obj
 0002:00007a0c       __tls_start                10027a0c     LIBCMT:tlssup.obj
 0002:00007a10       __Init_thread_epoch        10027a10     LIBCMT:thread_safe_statics.obj
 0002:00007a14       __tls_end                  10027a14     LIBCMT:tlssup.obj
 0002:00007b14       __TI2?AVbad_alloc@std@@    10027b14     LIBCMT:throw_bad_alloc.obj
 0002:00007b24       __CTA2?AVbad_alloc@std@@   10027b24     LIBCMT:throw_bad_alloc.obj
 0002:00007b30       __CT??_R0?AVbad_alloc@std@@@8??0bad_alloc@std@@QAE@ABV01@@Z12 10027b30     LIBCMT:throw_bad_alloc.obj
 0002:00007b4c       __CT??_R0?AVexception@std@@@8??0exception@std@@QAE@ABV01@@Z12 10027b4c     LIBCMT:throw_bad_alloc.obj
 0002:00007b68       __TI3?AVbad_array_new_length@std@@ 10027b68     LIBCMT:throw_bad_alloc.obj
 0002:00007b78       __CTA3?AVbad_array_new_length@std@@ 10027b78     LIBCMT:throw_bad_alloc.obj
 0002:00007b88       __CT??_R0?AVbad_array_new_length@std@@@8??0bad_array_new_length@std@@QAE@ABV01@@Z12 10027b88     LIBCMT:throw_bad_alloc.obj
 0002:00007cac       __TI2?AVbad_exception@std@@ 10027cac     libvcruntime:frame.obj
 0002:00007cbc       __CTA2?AVbad_exception@std@@ 10027cbc     libvcruntime:frame.obj
 0002:00007cc8       __CT??_R0?AVbad_exception@std@@@8??0bad_exception@std@@QAE@ABV01@@Z12 10027cc8     libvcruntime:frame.obj
 0002:00008024       ___pobjMapEntryFirst       10028024     OposVariant.obj
 0002:00008028       ___pobjMapEntryLast        10028028     OposVariant.obj
 0002:000080dc       __IMPORT_DESCRIPTOR_KERNEL32 100280dc     kernel32:KERNEL32.dll
 0002:000080f0       __IMPORT_DESCRIPTOR_USER32 100280f0     user32:USER32.dll
 0002:00008104       __IMPORT_DESCRIPTOR_GDI32  10028104     gdi32:GDI32.dll
 0002:00008118       __IMPORT_DESCRIPTOR_ADVAPI32 10028118     advapi32:ADVAPI32.dll
 0002:0000812c       __IMPORT_DESCRIPTOR_ole32  1002812c     ole32:ole32.dll
 0002:00008140       __IMPORT_DESCRIPTOR_OLEAUT32 10028140     oleaut32:OLEAUT32.dll
 0002:00008154       __NULL_IMPORT_DESCRIPTOR   10028154     kernel32:KERNEL32.dll
 0003:00000000       ?s_Claim@?7??GetIDsOfNames@CComTypeInfoHolder@ATL@@QAEJABU_GUID@@PAPA_WIKPAJ@Z@4PA_WA 1002a000     LineDisplay.obj
 0003:00000018       ?s_Release@?7??GetIDsOfNames@CComTypeInfoHolder@ATL@@QAEJABU_GUID@@PAPA_WIKPAJ@Z@4PA_WA 1002a018     LineDisplay.obj
 0003:00000034       ?_tih@?$IDispatchImpl@UIOPOSLineDisplay@@$1?IID_IOPOSLineDisplay@@3U_GUID@@B$1?LIBID_OposLineDisplay_CCO@@3U3@B$00$0A@VCComTypeInfoHolder@ATL@@@ATL@@1VCComTypeInfoHolder@2@A 1002a034     LineDisplay.obj
 0003:00000050       ?_tih@?$IProvideClassInfo2Impl@$1?CLSID_OPOSLineDisplay@@3U_GUID@@B$1?DIID__IOPOSLineDisplayEvents@@3U2@B$1?LIBID_OposLineDisplay_CCO@@3U2@B$00$0A@VCComTypeInfoHolder@ATL@@@ATL@@1VCComTypeInfoHolder@2@A 1002a050     LineDisplay.obj
 0003:0000006c       ?vszContents@?6??Save@?$IPersistStorageImpl@VCOPOSLineDisplay@@@ATL@@UAGJPAUIStorage@@H@Z@4PB_WB 1002a06c     LineDisplay.obj
 0003:00000070       ?wc@?1??GetWndClassInfo@?$CWindowImpl@VCOPOSLineDisplay@@VCWindow@ATL@@V?$CWinTraits@$0FGAAAAAA@$0A@@3@@ATL@@SAAAU_ATL_WNDCLASSINFOW@3@XZ@4U43@A 1002a070     LineDisplay.obj
 0003:000000fc       ?rcDefault@CWindow@ATL@@2UtagRECT@@A 1002a0fc     LineDisplay.obj
 0003:00000158       ?g_WindowName@@3PA_WA      1002a158     LineDisplayImpl.obj
 0003:00000180       ?g_ControlDescription@@3PADA 1002a180     LineDisplayImpl.obj
 0003:000001cc       ?g_ControlVersion@@3JA     1002a1cc     LineDisplayImpl.obj
 0003:00000270       ___scrt_native_dllmain_reason 1002a270     LIBCMT:utility.obj
 0003:00000274       __Init_global_epoch        1002a274     LIBCMT:thread_safe_statics.obj
 0003:00000280       ___security_cookie_complement 1002a280     LIBCMT:gs_cookie.obj
 0003:00000284       ___security_cookie         1002a284     LIBCMT:gs_cookie.obj
 0003:00000288       ___isa_enabled             1002a288     LIBCMT:cpu_disp.obj
 0003:000002a0       __NLG_Destination          1002a2a0     libvcruntime:exsup.obj
 0003:000002b8       ___abort_behavior          1002a2b8     libucrt:abort.obj
 0003:000002c8       __iob                      1002a2c8     libucrt:_file.obj
 0003:00000370       ___acrt_initial_locale_data 1002a370     libucrt:nlsdata.obj
 0003:00000428       ___acrt_initial_locale_pointers 1002a428     libucrt:nlsdata.obj
 0003:00000430       ___acrt_wide_c_locale_string 1002a430     libucrt:nlsdata.obj
 0003:00000438       ___acrt_initial_multibyte_data 1002a438     libucrt:mbctype.obj
 0003:00000958       __pwctype                  1002a958     libucrt:ctype.obj
 0003:0000095c       ___globallocalestatus      1002a95c     libucrt:glstatus.obj
 0003:00000960       ___acrt_lconv_c            1002a960     libucrt:localeconv.obj
 0003:000009b0       ___acrt_lconv_static_decimal 1002a9b0     libucrt:localeconv.obj
 0003:000009b4       ___acrt_lconv_static_W_decimal 1002a9b4     libucrt:localeconv.obj
 0003:000009c0       __lookuptrailbytes         1002a9c0     libucrt:read.obj
 0003:00000ad0       __fltused                  1002aad0     LIBCMT:fltused.obj
 0003:00000ae0       ??_R0?AVbad_alloc@std@@@8  1002aae0     LIBCMT:throw_bad_alloc.obj
 0003:00000afc       ??_R0?AVexception@std@@@8  1002aafc     LIBCMT:throw_bad_alloc.obj
 0003:00000b18       ??_R0?AVbad_array_new_length@std@@@8 1002ab18     LIBCMT:throw_bad_alloc.obj
 0003:00000b40       ??_R0?AVtype_info@@@8      1002ab40     LIBCMT:std_type_info_static.obj
 0003:00000b58       ??_R0?AVbad_exception@std@@@8 1002ab58     libvcruntime:frame.obj
 0003:00000b78       ?_pPerfRegFunc@ATL@@3P6AJPAUHINSTANCE__@@@ZA 1002ab78     OposVariant.obj
 0003:00000b7c       ?_pPerfUnRegFunc@ATL@@3P6AJXZA 1002ab7c     OposVariant.obj
 0003:00000b80       ?_AtlRegisterPerUser@ATL@@3_NA 1002ab80     OposVariant.obj
 0003:00000b84       ?_pAtlModule@ATL@@3PAVCAtlModule@1@A 1002ab84     OposVariant.obj
 0003:00000b88       ?_pModule@ATL@@3PAVCComModule@1@A 1002ab88     OposVariant.obj
 0003:00000b8c       ?m_bInitFailed@CAtlBaseModule@ATL@@2_NA 1002ab8c     OposVariant.obj
 0003:00000b90       ?_AtlComModule@ATL@@3VCAtlComModule@1@A 1002ab90     OposVariant.obj
 0003:00000bb8       ?_AtlWinModule@ATL@@3VCAtlWinModule@1@A 1002abb8     OposVariant.obj
 0003:00000be4       ?m_libid@CAtlModule@ATL@@2U_GUID@@A 1002abe4     LineDisplay.obj
 0003:00000bf4       ?_entries@?1??GetConnMap@COPOSLineDisplay@@SAPBU_ATL_CONNMAP_ENTRY@ATL@@PAH@Z@4QBU34@B 1002abf4     LineDisplay.obj
 0003:00000c00       ?$TSS0@?1??GetConnMap@COPOSLineDisplay@@SAPBU_ATL_CONNMAP_ENTRY@ATL@@PAH@Z@4HA 1002ac00     LineDisplay.obj
 0003:00000c08       ?_OptionsStorage@?1??__local_stdio_printf_options@@9@4_KA 1002ac08     LineDisplay.obj
 0003:00000c10       ?pfnRegDeleteKeyEx@?1??DeleteSubKey@CRegKey@ATL@@QAEJPB_W@Z@4P6GJPAUHKEY__@@0KK@ZA 1002ac10     LineDisplay.obj
 0003:00000c14       ?bInitialized@?1??DeleteSubKey@CRegKey@ATL@@QAEJPB_W@Z@4_NA 1002ac14     LineDisplay.obj
 0003:00000c18       ?_Module@@3VCComModule@ATL@@A 1002ac18     LineDisplay.obj
 0003:00000c48       ?pConnMap@?$IConnectionPointContainerImpl@VCOPOSLineDisplay@@@ATL@@0PBU_ATL_CONNMAP_ENTRY@2@B 1002ac48     LineDisplay.obj
 0003:00000c4c       ?s_nInstances@COPOSLineDisplay@@1HA 1002ac4c     LineDisplayImpl.obj
 0003:00000c50       ___scrt_current_native_startup_state 1002ac50     LIBCMT:utility.obj
 0003:00000c54       ___scrt_native_startup_lock 1002ac54     LIBCMT:utility.obj
 0003:00000fbc       __tls_index                1002afbc     LIBCMT:tlssup.obj
 0003:00000fc4       ___isa_available           1002afc4     LIBCMT:cpu_disp.obj
 0003:00000fc8       ___favor                   1002afc8     LIBCMT:cpu_disp.obj
 0003:00000fcc       ___scrt_debugger_hook_flag 1002afcc     LIBCMT:utility_desktop.obj
 0003:00000fd0       ?__type_info_root_node@@3U__type_info_node@@A 1002afd0     LIBCMT:tncleanup.obj
 0003:00000fd8       ?_OptionsStorage@?1??__local_stdio_scanf_options@@9@4_KA 1002afd8     LIBCMT:default_local_stdio_options.obj
 0003:00000fe0       ?_AtlBaseModule@ATL@@3VCAtlBaseModule@1@A 1002afe0     atls:atlbase.obj
 0003:00001018       ?__AtlThunkPool@@3PAT_SLIST_HEADER@@A 1002b018     atls:atlthunk.obj
 0003:00001030       ___@@_PchSym_@00@UztvmgUPdlipUGUhUrmgvinvwrzgvUexgllohUzgohOmzgrevkilqPBACIAJCBDBUlyqiUcIGUhgwzucOlyq@4B2008FD98C1DD4 1002b030     atls:stdafx.obj
 0003:00001034       ?__WinRTOutOfMemoryExceptionCallback@@3P6GPAXXZA 1002b034     libvcruntime:ehhelpers.obj
 0003:00001038       ___pPurecall               1002b038     libvcruntime:purevirt_data.obj
 0003:00001080       ?pArgList@UnDecorator@@0PAVReplicator@@A 1002b080     libvcruntime:undname.obj
 0003:00001084       ?pZNameList@UnDecorator@@0PAVReplicator@@A 1002b084     libvcruntime:undname.obj
 0003:00001088       ?pTemplateArgList@UnDecorator@@0PAVReplicator@@A 1002b088     libvcruntime:undname.obj
 0003:0000108c       ?gName@UnDecorator@@0PBDB  1002b08c     libvcruntime:undname.obj
 0003:00001090       ?name@UnDecorator@@0PBDB   1002b090     libvcruntime:undname.obj
 0003:00001094       ?disableFlags@UnDecorator@@0KA 1002b094     libvcruntime:undname.obj
 0003:00001098       ?fExplicitTemplateParams@UnDecorator@@0_NA 1002b098     libvcruntime:undname.obj
 0003:00001099       ?fGetTemplateArgumentList@UnDecorator@@0_NA 1002b099     libvcruntime:undname.obj
 0003:0000109c       ?m_pGetParameter@UnDecorator@@0P6APADJ@ZA 1002b09c     libvcruntime:undname.obj
 0003:000010a0       ?m_CHPENameOffset@UnDecorator@@0KA 1002b0a0     libvcruntime:undname.obj
 0003:000010a4       ?m_recursionLevel@UnDecorator@@0KA 1002b0a4     libvcruntime:undname.obj
 0003:000010e8       ?c_exit_complete@?1???R<lambda_6e4b09c48022b2350581041d5f6b0c4c>@@QBE@XZ@4_NA 1002b0e8     libucrt:exit.obj
 0003:000011f8       __environ_table            1002b1f8     libucrt:environment_initialization.obj
 0003:000011fc       __wenviron_table           1002b1fc     libucrt:environment_initialization.obj
 0003:00001200       ___dcrt_initial_wide_environment 1002b200     libucrt:environment_initialization.obj
 0003:00001204       ___dcrt_initial_narrow_environment 1002b204     libucrt:environment_initialization.obj
 0003:00001208       ___acrt_atexit_table       1002b208     libucrt:onexit.obj
 0003:00001214       ___acrt_at_quick_exit_table 1002b214     libucrt:onexit.obj
 0003:00001308       __nstream                  1002b308     libucrt:_file.obj
 0003:0000130c       ___piob                    1002b30c     libucrt:_file.obj
 0003:00001314       ___acrt_stdout_buffer      1002b314     libucrt:_sftbuf.obj
 0003:00001318       ___acrt_stderr_buffer      1002b318     libucrt:_sftbuf.obj
 0003:0000131c       ___acrt_locale_changed_data 1002b31c     libucrt:wsetlocale.obj
 0003:00001320       ___acrt_current_locale_data 1002b320     libucrt:nlsdata.obj
 0003:00001328       ___pioinfo                 1002b328     libucrt:ioinit.obj
 0003:00001528       __nhandle                  1002b528     libucrt:ioinit.obj
 0003:00001684       __mbctype                  1002b684     libucrt:mbctype.obj
 0003:00001688       __mbcasemap                1002b688     libucrt:mbctype.obj
 0003:0000168c       ___acrt_current_multibyte_data 1002b68c     libucrt:mbctype.obj
 0003:00001698       __pgmptr                   1002b698     libucrt:argv_data.obj
 0003:0000169c       ___argc                    1002b69c     libucrt:argv_data.obj
 0003:000016a0       ___argv                    1002b6a0     libucrt:argv_data.obj
 0003:000016a4       ___wargv                   1002b6a4     libucrt:argv_data.obj
 0003:000016a8       __acmdln                   1002b6a8     libucrt:argv_data.obj
 0003:000016ac       __wcmdln                   1002b6ac     libucrt:argv_data.obj
 0003:000016b0       ___acrt_heap               1002b6b0     libucrt:heap_handle.obj
 0003:000016cc       ___acrt_lconv_static_null  1002b6cc     libucrt:localeconv.obj
 0003:000016d0       ___acrt_lconv_static_W_null 1002b6d0     libucrt:localeconv.obj
 0003:000016e0       ___fastflag                1002b6e0     libucrt:fp_flags.obj
 0003:000016e8       ___dyn_tls_init_callback   1002b6e8     <common>
 0003:000016ec       ___scrt_ucrt_dll_is_in_use 1002b6ec     <common>
 0003:000016f0       __pmatherr                 1002b6f0     <common>
 0003:000016f4       ___use_sse2_mathfcns       1002b6f4     <common>

 entry point at        0001:0000c3e8

 Static symbols

 0000:fffcc000       .debug$S                   10000000     OPOSLineDisplay.exp
 0000:fffcc000       .debug$S                   10000000     advapi32:ADVAPI32.dll
 0000:fffcc000       .debug$S                   10000000     advapi32:ADVAPI32.dll
 0000:fffcc000       .debug$S                   10000000     advapi32:ADVAPI32.dll
 0000:fffcc000       .debug$S                   10000000     advapi32:ADVAPI32.dll
 0000:fffcc000       .debug$S                   10000000     advapi32:ADVAPI32.dll
 0000:fffcc000       .debug$S                   10000000     advapi32:ADVAPI32.dll
 0000:fffcc000       .debug$S                   10000000     advapi32:ADVAPI32.dll
 0000:fffcc000       .debug$S                   10000000     advapi32:ADVAPI32.dll
 0000:fffcc000       .debug$S                   10000000     advapi32:ADVAPI32.dll
 0000:fffcc000       .debug$S                   10000000     gdi32:GDI32.dll
 0000:fffcc000       .debug$S                   10000000     gdi32:GDI32.dll
 0000:fffcc000       .debug$S                   10000000     gdi32:GDI32.dll
 0000:fffcc000       .debug$S                   10000000     gdi32:GDI32.dll
 0000:fffcc000       .debug$S                   10000000     gdi32:GDI32.dll
 0000:fffcc000       .debug$S                   10000000     gdi32:GDI32.dll
 0000:fffcc000       .debug$S                   10000000     gdi32:GDI32.dll
 0000:fffcc000       .debug$S                   10000000     gdi32:GDI32.dll
 0000:fffcc000       .debug$S                   10000000     gdi32:GDI32.dll
 0000:fffcc000       .debug$S                   10000000     gdi32:GDI32.dll
 0000:fffcc000       .debug$S                   10000000     gdi32:GDI32.dll
 0000:fffcc000       .debug$S                   10000000     gdi32:GDI32.dll
 0000:fffcc000       .debug$S                   10000000     gdi32:GDI32.dll
 0000:fffcc000       .debug$S                   10000000     gdi32:GDI32.dll
 0000:fffcc000       .debug$S                   10000000     gdi32:GDI32.dll
 0000:fffcc000       .debug$S                   10000000     gdi32:GDI32.dll
 0000:fffcc000       .debug$S                   10000000     gdi32:GDI32.dll
 0000:fffcc000       .debug$S                   10000000     gdi32:GDI32.dll
 0000:fffcc000       .debug$S                   10000000     gdi32:GDI32.dll
 0000:fffcc000       .debug$S                   10000000     kernel32:KERNEL32.dll
 0000:fffcc000       .debug$S                   10000000     kernel32:KERNEL32.dll
 0000:fffcc000       .debug$S                   10000000     kernel32:KERNEL32.dll
 0000:fffcc000       .debug$S                   10000000     kernel32:KERNEL32.dll
 0000:fffcc000       .debug$S                   10000000     kernel32:KERNEL32.dll
 0000:fffcc000       .debug$S                   10000000     kernel32:KERNEL32.dll
 0000:fffcc000       .debug$S                   10000000     kernel32:KERNEL32.dll
 0000:fffcc000       .debug$S                   10000000     kernel32:KERNEL32.dll
 0000:fffcc000       .debug$S                   10000000     kernel32:KERNEL32.dll
 0000:fffcc000       .debug$S                   10000000     kernel32:KERNEL32.dll
 0000:fffcc000       .debug$S                   10000000     kernel32:KERNEL32.dll
 0000:fffcc000       .debug$S                   10000000     kernel32:KERNEL32.dll
 0000:fffcc000       .debug$S                   10000000     kernel32:KERNEL32.dll
 0000:fffcc000       .debug$S                   10000000     kernel32:KERNEL32.dll
 0000:fffcc000       .debug$S                   10000000     kernel32:KERNEL32.dll
 0000:fffcc000       .debug$S                   10000000     kernel32:KERNEL32.dll
 0000:fffcc000       .debug$S                   10000000     kernel32:KERNEL32.dll
 0000:fffcc000       .debug$S                   10000000     kernel32:KERNEL32.dll
 0000:fffcc000       .debug$S                   10000000     kernel32:KERNEL32.dll
 0000:fffcc000       .debug$S                   10000000     kernel32:KERNEL32.dll
 0000:fffcc000       .debug$S                   10000000     kernel32:KERNEL32.dll
 0000:fffcc000       .debug$S                   10000000     kernel32:KERNEL32.dll
 0000:fffcc000       .debug$S                   10000000     kernel32:KERNEL32.dll
 0000:fffcc000       .debug$S                   10000000     kernel32:KERNEL32.dll
 0000:fffcc000       .debug$S                   10000000     kernel32:KERNEL32.dll
 0000:fffcc000       .debug$S                   10000000     kernel32:KERNEL32.dll
 0000:fffcc000       .debug$S                   10000000     kernel32:KERNEL32.dll
 0000:fffcc000       .debug$S                   10000000     kernel32:KERNEL32.dll
 0000:fffcc000       .debug$S                   10000000     kernel32:KERNEL32.dll
 0000:fffcc000       .debug$S                   10000000     kernel32:KERNEL32.dll
 0000:fffcc000       .debug$S                   10000000     kernel32:KERNEL32.dll
 0000:fffcc000       .debug$S                   10000000     kernel32:KERNEL32.dll
 0000:fffcc000       .debug$S                   10000000     kernel32:KERNEL32.dll
 0000:fffcc000       .debug$S                   10000000     kernel32:KERNEL32.dll
 0000:fffcc000       .debug$S                   10000000     kernel32:KERNEL32.dll
 0000:fffcc000       .debug$S                   10000000     kernel32:KERNEL32.dll
 0000:fffcc000       .debug$S                   10000000     kernel32:KERNEL32.dll
 0000:fffcc000       .debug$S                   10000000     kernel32:KERNEL32.dll
 0000:fffcc000       .debug$S                   10000000     kernel32:KERNEL32.dll
 0000:fffcc000       .debug$S                   10000000     kernel32:KERNEL32.dll
 0000:fffcc000       .debug$S                   10000000     kernel32:KERNEL32.dll
 0000:fffcc000       .debug$S                   10000000     kernel32:KERNEL32.dll
 0000:fffcc000       .debug$S                   10000000     kernel32:KERNEL32.dll
 0000:fffcc000       .debug$S                   10000000     kernel32:KERNEL32.dll
 0000:fffcc000       .debug$S                   10000000     kernel32:KERNEL32.dll
 0000:fffcc000       .debug$S                   10000000     kernel32:KERNEL32.dll
 0000:fffcc000       .debug$S                   10000000     kernel32:KERNEL32.dll
 0000:fffcc000       .debug$S                   10000000     kernel32:KERNEL32.dll
 0000:fffcc000       .debug$S                   10000000     kernel32:KERNEL32.dll
 0000:fffcc000       .debug$S                   10000000     kernel32:KERNEL32.dll
 0000:fffcc000       .debug$S                   10000000     kernel32:KERNEL32.dll
 0000:fffcc000       .debug$S                   10000000     kernel32:KERNEL32.dll
 0000:fffcc000       .debug$S                   10000000     kernel32:KERNEL32.dll
 0000:fffcc000       .debug$S                   10000000     kernel32:KERNEL32.dll
 0000:fffcc000       .debug$S                   10000000     kernel32:KERNEL32.dll
 0000:fffcc000       .debug$S                   10000000     kernel32:KERNEL32.dll
 0000:fffcc000       .debug$S                   10000000     kernel32:KERNEL32.dll
 0000:fffcc000       .debug$S                   10000000     kernel32:KERNEL32.dll
 0000:fffcc000       .debug$S                   10000000     kernel32:KERNEL32.dll
 0000:fffcc000       .debug$S                   10000000     kernel32:KERNEL32.dll
 0000:fffcc000       .debug$S                   10000000     kernel32:KERNEL32.dll
 0000:fffcc000       .debug$S                   10000000     kernel32:KERNEL32.dll
 0000:fffcc000       .debug$S                   10000000     kernel32:KERNEL32.dll
 0000:fffcc000       .debug$S                   10000000     kernel32:KERNEL32.dll
 0000:fffcc000       .debug$S                   10000000     kernel32:KERNEL32.dll
 0000:fffcc000       .debug$S                   10000000     kernel32:KERNEL32.dll
 0000:fffcc000       .debug$S                   10000000     kernel32:KERNEL32.dll
 0000:fffcc000       .debug$S                   10000000     kernel32:KERNEL32.dll
 0000:fffcc000       .debug$S                   10000000     kernel32:KERNEL32.dll
 0000:fffcc000       .debug$S                   10000000     kernel32:KERNEL32.dll
 0000:fffcc000       .debug$S                   10000000     kernel32:KERNEL32.dll
 0000:fffcc000       .debug$S                   10000000     kernel32:KERNEL32.dll
 0000:fffcc000       .debug$S                   10000000     kernel32:KERNEL32.dll
 0000:fffcc000       .debug$S                   10000000     kernel32:KERNEL32.dll
 0000:fffcc000       .debug$S                   10000000     kernel32:KERNEL32.dll
 0000:fffcc000       .debug$S                   10000000     kernel32:KERNEL32.dll
 0000:fffcc000       .debug$S                   10000000     kernel32:KERNEL32.dll
 0000:fffcc000       .debug$S                   10000000     kernel32:KERNEL32.dll
 0000:fffcc000       .debug$S                   10000000     kernel32:KERNEL32.dll
 0000:fffcc000       .debug$S                   10000000     kernel32:KERNEL32.dll
 0000:fffcc000       .debug$S                   10000000     kernel32:KERNEL32.dll
 0000:fffcc000       .debug$S                   10000000     kernel32:KERNEL32.dll
 0000:fffcc000       .debug$S                   10000000     kernel32:KERNEL32.dll
 0000:fffcc000       .debug$S                   10000000     kernel32:KERNEL32.dll
 0000:fffcc000       .debug$S                   10000000     kernel32:KERNEL32.dll
 0000:fffcc000       .debug$S                   10000000     kernel32:KERNEL32.dll
 0000:fffcc000       .debug$S                   10000000     kernel32:KERNEL32.dll
 0000:fffcc000       .debug$S                   10000000     kernel32:KERNEL32.dll
 0000:fffcc000       .debug$S                   10000000     kernel32:KERNEL32.dll
 0000:fffcc000       .debug$S                   10000000     kernel32:KERNEL32.dll
 0000:fffcc000       .debug$S                   10000000     kernel32:KERNEL32.dll
 0000:fffcc000       .debug$S                   10000000     kernel32:KERNEL32.dll
 0000:fffcc000       .debug$S                   10000000     kernel32:KERNEL32.dll
 0000:fffcc000       .debug$S                   10000000     kernel32:KERNEL32.dll
 0000:fffcc000       .debug$S                   10000000     kernel32:KERNEL32.dll
 0000:fffcc000       .debug$S                   10000000     kernel32:KERNEL32.dll
 0000:fffcc000       .debug$S                   10000000     kernel32:KERNEL32.dll
 0000:fffcc000       .debug$S                   10000000     kernel32:KERNEL32.dll
 0000:fffcc000       .debug$S                   10000000     kernel32:KERNEL32.dll
 0000:fffcc000       .debug$S                   10000000     kernel32:KERNEL32.dll
 0000:fffcc000       .debug$S                   10000000     kernel32:KERNEL32.dll
 0000:fffcc000       .debug$S                   10000000     kernel32:KERNEL32.dll
 0000:fffcc000       .debug$S                   10000000     kernel32:KERNEL32.dll
 0000:fffcc000       .debug$S                   10000000     kernel32:KERNEL32.dll
 0000:fffcc000       .debug$S                   10000000     kernel32:KERNEL32.dll
 0000:fffcc000       .debug$S                   10000000     kernel32:KERNEL32.dll
 0000:fffcc000       .debug$S                   10000000     ole32:ole32.dll
 0000:fffcc000       .debug$S                   10000000     ole32:ole32.dll
 0000:fffcc000       .debug$S                   10000000     ole32:ole32.dll
 0000:fffcc000       .debug$S                   10000000     ole32:ole32.dll
 0000:fffcc000       .debug$S                   10000000     ole32:ole32.dll
 0000:fffcc000       .debug$S                   10000000     ole32:ole32.dll
 0000:fffcc000       .debug$S                   10000000     ole32:ole32.dll
 0000:fffcc000       .debug$S                   10000000     ole32:ole32.dll
 0000:fffcc000       .debug$S                   10000000     ole32:ole32.dll
 0000:fffcc000       .debug$S                   10000000     ole32:ole32.dll
 0000:fffcc000       .debug$S                   10000000     ole32:ole32.dll
 0000:fffcc000       .debug$S                   10000000     ole32:ole32.dll
 0000:fffcc000       .debug$S                   10000000     ole32:ole32.dll
 0000:fffcc000       .debug$S                   10000000     ole32:ole32.dll
 0000:fffcc000       .debug$S                   10000000     oleaut32:OLEAUT32.dll
 0000:fffcc000       .debug$S                   10000000     oleaut32:OLEAUT32.dll
 0000:fffcc000       .debug$S                   10000000     oleaut32:OLEAUT32.dll
 0000:fffcc000       .debug$S                   10000000     oleaut32:OLEAUT32.dll
 0000:fffcc000       .debug$S                   10000000     oleaut32:OLEAUT32.dll
 0000:fffcc000       .debug$S                   10000000     oleaut32:OLEAUT32.dll
 0000:fffcc000       .debug$S                   10000000     oleaut32:OLEAUT32.dll
 0000:fffcc000       .debug$S                   10000000     oleaut32:OLEAUT32.dll
 0000:fffcc000       .debug$S                   10000000     oleaut32:OLEAUT32.dll
 0000:fffcc000       .debug$S                   10000000     oleaut32:OLEAUT32.dll
 0000:fffcc000       .debug$S                   10000000     oleaut32:OLEAUT32.dll
 0000:fffcc000       .debug$S                   10000000     oleaut32:OLEAUT32.dll
 0000:fffcc000       .debug$S                   10000000     oleaut32:OLEAUT32.dll
 0000:fffcc000       .debug$S                   10000000     oleaut32:OLEAUT32.dll
 0000:fffcc000       .debug$S                   10000000     oleaut32:OLEAUT32.dll
 0000:fffcc000       .debug$S                   10000000     oleaut32:OLEAUT32.dll
 0000:fffcc000       .debug$S                   10000000     user32:USER32.dll
 0000:fffcc000       .debug$S                   10000000     user32:USER32.dll
 0000:fffcc000       .debug$S                   10000000     user32:USER32.dll
 0000:fffcc000       .debug$S                   10000000     user32:USER32.dll
 0000:fffcc000       .debug$S                   10000000     user32:USER32.dll
 0000:fffcc000       .debug$S                   10000000     user32:USER32.dll
 0000:fffcc000       .debug$S                   10000000     user32:USER32.dll
 0000:fffcc000       .debug$S                   10000000     user32:USER32.dll
 0000:fffcc000       .debug$S                   10000000     user32:USER32.dll
 0000:fffcc000       .debug$S                   10000000     user32:USER32.dll
 0000:fffcc000       .debug$S                   10000000     user32:USER32.dll
 0000:fffcc000       .debug$S                   10000000     user32:USER32.dll
 0000:fffcc000       .debug$S                   10000000     user32:USER32.dll
 0000:fffcc000       .debug$S                   10000000     user32:USER32.dll
 0000:fffcc000       .debug$S                   10000000     user32:USER32.dll
 0000:fffcc000       .debug$S                   10000000     user32:USER32.dll
 0000:fffcc000       .debug$S                   10000000     user32:USER32.dll
 0000:fffcc000       .debug$S                   10000000     user32:USER32.dll
 0000:fffcc000       .debug$S                   10000000     user32:USER32.dll
 0000:fffcc000       .debug$S                   10000000     user32:USER32.dll
 0000:fffcc000       .debug$S                   10000000     user32:USER32.dll
 0000:fffcc000       .debug$S                   10000000     user32:USER32.dll
 0000:fffcc000       .debug$S                   10000000     user32:USER32.dll
 0000:fffcc000       .debug$S                   10000000     user32:USER32.dll
 0000:fffcc000       .debug$S                   10000000     user32:USER32.dll
 0000:fffcc000       .debug$S                   10000000     user32:USER32.dll
 0000:fffcc000       .debug$S                   10000000     user32:USER32.dll
 0000:fffcc000       .debug$S                   10000000     user32:USER32.dll
 0000:fffcc000       .debug$S                   10000000     user32:USER32.dll
 0000:fffcc000       .debug$S                   10000000     user32:USER32.dll
 0000:fffcc000       .debug$S                   10000000     user32:USER32.dll
 0000:fffcc000       .debug$S                   10000000     user32:USER32.dll
 0000:fffcc000       .debug$S                   10000000     user32:USER32.dll
 0000:fffcc000       .debug$S                   10000000     user32:USER32.dll
 0000:fffcc000       .debug$S                   10000000     user32:USER32.dll
 0001:00000000       ??__E_AtlComModule@ATL@@YAXXZ 10001000 f   OposVariant.obj
 0001:00000016       ??__E_AtlWinModule@ATL@@YAXXZ 10001016 f   OposVariant.obj
 0001:0000002c       ??__E?pConnMap@?$IConnectionPointContainerImpl@VCOPOSLineDisplay@@@ATL@@0PBU_ATL_CONNMAP_ENTRY@2@B@@YAXXZ 1000102c f   LineDisplay.obj
 0001:0000003a       ??__E_Module@@YAXXZ        1000103a f   LineDisplay.obj
 0001:00000064       ??__E_AtlBaseModule@ATL@@YAXXZ 10001064 f   atls:atlbase.obj
 0001:00000dd1       $LN24                      10001dd1     LineDisplay.obj
 0001:000056ab       $LN47                      100066ab     LineDisplay.obj
 0001:000056c3       $LN46                      100066c3     LineDisplay.obj
 0001:00007890       $LN37                      10008890     LineDisplay.obj
 0001:000078a8       $LN36                      100088a8     LineDisplay.obj
 0001:00008f84       $LN76                      10009f84     LineDisplay.obj
 0001:00008f9c       $LN75                      10009f9c     LineDisplay.obj
 0001:00009355       _memcpy_s                  1000a355 f   LineDisplay.obj
 0001:0000b884       ?find_pe_section@@YAPAU_IMAGE_SECTION_HEADER@@QAEI@Z 1000c884 f   LIBCMT:utility.obj
 0001:0000bba3       ?__scrt_initialize_thread_safe_statics@@YAHXZ 1000cba3 f   LIBCMT:thread_safe_statics.obj
 0001:0000bbca       ?__scrt_initialize_thread_safe_statics_platform_specific@@YAXXZ 1000cbca f   LIBCMT:thread_safe_statics.obj
 0001:0000bc4c       ?__scrt_uninitialize_thread_safe_statics@@YAXXZ 1000cc4c f   LIBCMT:thread_safe_statics.obj
 0001:0000bfbb       __catch$??2@YAPAXIABUnothrow_t@std@@@Z$0 1000cfbb f   LIBCMT:new_scalar_nothrow.obj
 0001:0000bff0       $$000000                   1000cff0     LIBCMT:sehprolg4gs.obj
 0001:0000c050       $$000000                   1000d050     LIBCMT:alloca16.obj
 0001:0000c080       $$000000                   1000d080     LIBCMT:chkstk.obj
 0001:0000c0ad       ?dllmain_crt_dispatch@@YGHQAUHINSTANCE__@@KQAX@Z 1000d0ad f   LIBCMT:dll_dllmain.obj
 0001:0000c100       ?dllmain_crt_process_attach@@YAHQAUHINSTANCE__@@QAX@Z 1000d100 f   LIBCMT:dll_dllmain.obj
 0001:0000c207       ?dllmain_crt_process_detach@@YAH_N@Z 1000d207 f   LIBCMT:dll_dllmain.obj
 0001:0000c2b7       ?dllmain_dispatch@@YAHQAUHINSTANCE__@@KQAX@Z 1000d2b7 f   LIBCMT:dll_dllmain.obj
 0001:0000c3bd       ?dllmain_raw@@YGHQAUHINSTANCE__@@KQAX@Z 1000d3bd f   LIBCMT:dll_dllmain.obj
 0001:0000c740       $$000000                   1000d740     LIBCMT:sehprolg4.obj
 0001:0000c79c       ___get_entropy             1000d79c f   LIBCMT:gs_support.obj
 0001:0000ca93       ??$GetProcAddressAll@P6GP6GJPAUHWND__@@IIJ@ZPAUAtlThunkData_t@@@Z@@YAP6GP6GJPAUHWND__@@IIJ@ZPAUAtlThunkData_t@@@ZPAP6GP6GJ0IIJ@Z1@Z@Z 1000da93 f   atls:atlthunk.obj
 0001:0000ca93       ??$GetProcAddressAll@P6GPAUAtlThunkData_t@@XZ@@YAP6GPAUAtlThunkData_t@@XZPAP6GPAU0@XZ@Z 1000da93 f   atls:atlthunk.obj
 0001:0000ca93       ??$GetProcAddressAll@P6GXPAUAtlThunkData_t@@@Z@@YAP6GXPAUAtlThunkData_t@@@ZPAP6GX0@Z@Z 1000da93 f   atls:atlthunk.obj
 0001:0000ca93       ??$GetProcAddressAll@P6GXPAUAtlThunkData_t@@PAXI@Z@@YAP6GXPAUAtlThunkData_t@@PAXI@ZPAP6GX01I@Z@Z 1000da93 f   atls:atlthunk.obj
 0001:0000cb43       ?GetProcAddressSingle@@YA_NPAUHINSTANCE__@@PBDPAPAX@Z 1000db43 f   atls:atlthunk.obj
 0001:0000cc95       ?__InitializeThunkPool@@YAHXZ 1000dc95 f   atls:atlthunk.obj
 0001:0000d0f0       _ValidateLocalCookies      1000e0f0 f   libvcruntime:chandler4.obj
 0001:0000e1b2       $LN1241                    1000f1b2     libvcruntime:memcmp.obj
 0001:0000e240       $$000000                   1000f240     libvcruntime:memcpy.obj
 0001:0000e4a4       TrailingUpVec              1000f4a4     libvcruntime:memcpy.obj
 0001:0000e550       TrailingDownVec            1000f550     libvcruntime:memcpy.obj
 0001:0000e7c0       $$000000                   1000f7c0     libvcruntime:memset.obj
 0001:0000edc3       ?_FilterSetCurrentException@@YAKPAU_EXCEPTION_POINTERS@@E@Z 1000fdc3 f   libvcruntime:ehhelpers.obj
 0001:0000f010       $$000000                   10010010     libvcruntime:memmove.obj
 0001:0000f274       TrailingUpVec              10010274     libvcruntime:memmove.obj
 0001:0000f320       TrailingDownVec            10010320     libvcruntime:memmove.obj
 0001:0000f590       $$000000                   10010590     libvcruntime:exsup4.obj
 0001:0000f620       __unwind_handler4          10010620 f   libvcruntime:exsup4.obj
 0001:0000f8ff       ??$BuildCatchObjectHelperInternal@V__FrameHandler3@@@@YAHPAUEHExceptionRecord@@PAXPBU_s_HandlerType@@PBU_s_CatchableType@@@Z 100108ff f   libvcruntime:frame.obj
 0001:0000fa3d       ??$BuildCatchObjectInternal@V__FrameHandler3@@@@YAXPAUEHExceptionRecord@@PAXPBU_s_HandlerType@@PBU_s_CatchableType@@@Z 10010a3d f   libvcruntime:frame.obj
 0001:0000fad6       ??$CatchIt@V__FrameHandler3@@@@YAXPAUEHExceptionRecord@@PAUEHRegistrationNode@@PAU_CONTEXT@@PAXPBU_s_FuncInfo@@PBU_s_HandlerType@@PBU_s_CatchableType@@PBU_s_TryBlockMapEntry@@H1EE@Z 10010ad6 f   libvcruntime:frame.obj
 0001:0000fb56       ??$FindHandler@V__FrameHandler3@@@@YAXPAUEHExceptionRecord@@PAUEHRegistrationNode@@PAU_CONTEXT@@PAXPBU_s_FuncInfo@@EH1@Z 10010b56 f   libvcruntime:frame.obj
 0001:0000ff0c       ??$FindHandlerForForeignException@V__FrameHandler3@@@@YAXPAUEHExceptionRecord@@PAUEHRegistrationNode@@PAU_CONTEXT@@PAXPBU_s_FuncInfo@@HH1@Z 10010f0c f   libvcruntime:frame.obj
 0001:00010224       ?CallCatchBlock@@YAPAXPAUEHExceptionRecord@@PAUEHRegistrationNode@@PAU_CONTEXT@@PBU_s_FuncInfo@@PAXHK@Z 10011224 f   libvcruntime:frame.obj
 0001:000103e8       ?CallUnexpected@@YAXPBU_s_ESTypeList@@@Z 100113e8 f   libvcruntime:frame.obj
 0001:00010408       __catch$?CallUnexpected@@YAXPBU_s_ESTypeList@@@Z$0 10011408 f   libvcruntime:frame.obj
 0001:00010422       ?ExFilterRethrow@@YAHPAU_EXCEPTION_POINTERS@@@Z 10011422 f   libvcruntime:frame.obj
 0001:0001056c       ?IsInExceptionSpec@@YAEPAUEHExceptionRecord@@PBU_s_ESTypeList@@@Z 1001156c f   libvcruntime:frame.obj
 0001:00010640       $$000000                   10011640     libvcruntime:lowhelpr.obj
 0001:00010690       $$000000                   10011690     libvcruntime:exsup.obj
 0001:000106b1       __unwind_handler           100116b1 f   libvcruntime:exsup.obj
 0001:000107ce       ?try_get_first_available_module@@YAPAUHINSTANCE__@@QBW4module_id@?A0x1172487b@@0@Z 100117ce f   libvcruntime:winapi_downlevel.obj
 0001:0001087a       ?try_get_function@@YAPAXW4function_id@?A0x1172487b@@QBDQBW4module_id@2@2@Z 1001187a f   libvcruntime:winapi_downlevel.obj
 0001:00010f04       ??$common_tcsncpy_s@_W@@YAHQA_WIQB_WI@Z 10011f04 f   libucrt:wcsncpy_s.obj
 0001:00010fda       ??$common_vsprintf@Vformat_validation_base@__crt_stdio_output@@_W@@YAH_KQA_WIQB_WQAU__crt_locale_pointers@@QAD@Z 10011fda f   libucrt:output.obj
 0001:00011161       ??$common_vsprintf_s@_W@@YAH_KQA_WIQB_WQAU__crt_locale_pointers@@QAD@Z 10012161 f   libucrt:output.obj
 0001:00011890       $LN51                      10012890     libucrt:output.obj
 0001:00011d8b       $LN20                      10012d8b     libucrt:output.obj
 0001:00011d9f       $LN17                      10012d9f     libucrt:output.obj
 0001:000125fe       ??$?RV<lambda_03b1d95aef87969028cfba75ccab2455>@@AAV<lambda_6e4b09c48022b2350581041d5f6b0c4c>@@V<lambda_22bdf7517842c4b3e53723af5aa32b9e>@@@?$__crt_seh_guarded_call@X@@QAEX$$QAV<lambda_03b1d95aef87969028cfba75ccab2455>@@AAV<lambda_6e4b09c48022b2350581041d5f6b0c4c>@@$$QAV<lambda_22bdf7517842c4b3e53723af5aa32b9e>@@@Z 100135fe f   libucrt:exit.obj
 0001:0001264b       ??R<lambda_6e4b09c48022b2350581041d5f6b0c4c>@@QBE@XZ 1001364b f   libucrt:exit.obj
 0001:00012725       ?atexit_exception_filter@@YAHK@Z 10013725 f   libucrt:exit.obj
 0001:00012738       ?common_exit@@YAXHW4_crt_exit_cleanup_mode@@W4_crt_exit_return_mode@@@Z 10013738 f   libucrt:exit.obj
 0001:0001279c       ?exit_or_terminate_process@@YAXI@Z 1001379c f   libucrt:exit.obj
 0001:000127de       ?is_managed_app@@YA_NXZ    100137de f   libucrt:exit.obj
 0001:00012821       ?try_cor_exit_process@@YAXI@Z 10013821 f   libucrt:exit.obj
 0001:000128af       ??$common_configure_argv@D@@YAHW4_crt_argv_mode@@@Z 100138af f   libucrt:argv_parsing.obj
 0001:000129e5       ??$parse_command_line@D@@YAXPADPAPAD0PAI2@Z 100139e5 f   libucrt:argv_parsing.obj
 0001:00012bb6       ??$common_initialize_environment_nolock@D@@YAHXZ 10013bb6 f   libucrt:environment_initialization.obj
 0001:00012c09       ??$create_environment@D@@YAQAPADQAD@Z 10013c09 f   libucrt:environment_initialization.obj
 0001:00012cd9       ??$free_environment@D@@YAXQAPAD@Z 10013cd9 f   libucrt:environment_initialization.obj
 0001:00012cd9       ??$free_environment@_W@@YAXQAPA_W@Z 10013cd9 f   libucrt:environment_initialization.obj
 0001:00012d31       ??$uninitialize_environment_internal@D@@YAXAAPAPAD@Z 10013d31 f   libucrt:environment_initialization.obj
 0001:00012d4c       ??$uninitialize_environment_internal@_W@@YAXAAPAPA_W@Z 10013d4c f   libucrt:environment_initialization.obj
 0001:00012da3       ??$?RV<lambda_69a2805e680e0e292e8ba93315fe43a8>@@AAV<lambda_f03950bc5685219e0bcd2087efbe011e>@@V<lambda_03fcd07e894ec930e3f35da366ca99d6>@@@?$__crt_seh_guarded_call@H@@QAEH$$QAV<lambda_69a2805e680e0e292e8ba93315fe43a8>@@AAV<lambda_f03950bc5685219e0bcd2087efbe011e>@@$$QAV<lambda_03fcd07e894ec930e3f35da366ca99d6>@@@Z 10013da3 f   libucrt:onexit.obj
 0001:00012dfe       ??$?RV<lambda_8e746cf0007f6ed984d6f78af1fec997>@@AAV<lambda_22ebabd17bc4fa466a2aca6d8deb888d>@@V<lambda_18ed0c0b38a6dc0daf1e7ac6d6adf05e>@@@?$__crt_seh_guarded_call@H@@QAEH$$QAV<lambda_8e746cf0007f6ed984d6f78af1fec997>@@AAV<lambda_22ebabd17bc4fa466a2aca6d8deb888d>@@$$QAV<lambda_18ed0c0b38a6dc0daf1e7ac6d6adf05e>@@@Z 10013dfe f   libucrt:onexit.obj
 0001:00012e78       ??R<lambda_22ebabd17bc4fa466a2aca6d8deb888d>@@QBEHXZ 10013e78 f   libucrt:onexit.obj
 0001:00012fa1       ??R<lambda_f03950bc5685219e0bcd2087efbe011e>@@QBEHXZ 10013fa1 f   libucrt:onexit.obj
 0001:0001311a       _initialize_environment    1001411a f   libucrt:initialization.obj
 0001:0001311a       _initialize_global_state_isolation 1001411a f   libucrt:initialization.obj
 0001:0001311a       _report_memory_leaks       1001411a f   libucrt:initialization.obj
 0001:0001311a       _uninitialize_c            1001411a f   libucrt:initialization.obj
 0001:0001311a       _uninitialize_global_state_isolation 1001411a f   libucrt:initialization.obj
 0001:0001311d       _initialize_global_variables 1001411d f   libucrt:initialization.obj
 0001:0001312a       _initialize_c              1001412a f   libucrt:initialization.obj
 0001:00013144       _uninitialize_environment  10014144 f   libucrt:initialization.obj
 0001:0001314c       _initialize_pointers       1001414c f   libucrt:initialization.obj
 0001:0001317a       _uninitialize_vcruntime    1001417a f   libucrt:initialization.obj
 0001:00013183       _uninitialize_allocated_memory 10014183 f   libucrt:initialization.obj
 0001:0001319a       _uninitialize_allocated_io_buffers 1001419a f   libucrt:initialization.obj
 0001:000131ea       ??R<lambda_af42a3ee9806e9a7305d451646e05244>@@QBEXAAPAU__crt_multibyte_data@@@Z 100141ea f   libucrt:initialization.obj
 0001:00013ad0       $$000000                   10014ad0     libucrt:strncmp.obj
 0001:00013bbc       ??$?RV<lambda_15ade71b0218206bbe3333a0c9b79046>@@AAV<lambda_da44e0f8b0f19ba52fefafb335991732>@@V<lambda_207f2d024fc103971653565357d6cd41>@@@?$__crt_seh_guarded_call@X@@QAEX$$QAV<lambda_15ade71b0218206bbe3333a0c9b79046>@@AAV<lambda_da44e0f8b0f19ba52fefafb335991732>@@$$QAV<lambda_207f2d024fc103971653565357d6cd41>@@@Z 10014bbc f   libucrt:per_thread_data.obj
 0001:00013c0e       ??$?RV<lambda_38edbb1296d33220d7e4dd0ed76b244a>@@AAV<lambda_5ce1d447e08cb34b2473517608e21441>@@V<lambda_fb385d3da700c9147fc39e65dd577a8c>@@@?$__crt_seh_guarded_call@X@@QAEX$$QAV<lambda_38edbb1296d33220d7e4dd0ed76b244a>@@AAV<lambda_5ce1d447e08cb34b2473517608e21441>@@$$QAV<lambda_fb385d3da700c9147fc39e65dd577a8c>@@@Z 10014c0e f   libucrt:per_thread_data.obj
 0001:00013c79       ??$?RV<lambda_6affb1475c98b40b75cdec977db92e3c>@@AAV<lambda_b8d4b9c228a6ecc3f80208dbb4b4a104>@@V<lambda_608742c3c92a14382c1684fc64f96c88>@@@?$__crt_seh_guarded_call@X@@QAEX$$QAV<lambda_6affb1475c98b40b75cdec977db92e3c>@@AAV<lambda_b8d4b9c228a6ecc3f80208dbb4b4a104>@@$$QAV<lambda_608742c3c92a14382c1684fc64f96c88>@@@Z 10014c79 f   libucrt:per_thread_data.obj
 0001:00013cce       ??$?RV<lambda_a7e850c220f1c8d1e6efeecdedd162c6>@@AAV<lambda_46720907175c18b6c9d2717bc0d2d362>@@V<lambda_9048902d66e8d99359bc9897bbb930a8>@@@?$__crt_seh_guarded_call@X@@QAEX$$QAV<lambda_a7e850c220f1c8d1e6efeecdedd162c6>@@AAV<lambda_46720907175c18b6c9d2717bc0d2d362>@@$$QAV<lambda_9048902d66e8d99359bc9897bbb930a8>@@@Z 10014cce f   libucrt:per_thread_data.obj
 0001:00013d28       ?construct_ptd@@YAXQAU__acrt_ptd@@QAPAU__crt_locale_data@@@Z 10014d28 f   libucrt:per_thread_data.obj
 0001:00013dc1       ?destroy_fls@@YGXPAX@Z     10014dc1 f   libucrt:per_thread_data.obj
 0001:00013de2       ?destroy_ptd@@YAXQAU__acrt_ptd@@@Z 10014de2 f   libucrt:per_thread_data.obj
 0001:00013eaf       ?replace_current_thread_locale_nolock@@YAXQAU__acrt_ptd@@QAU__crt_locale_data@@@Z 10014eaf f   libucrt:per_thread_data.obj
 0001:000142bf       ?try_get_AreFileApisANSI@@YAP6GHXZXZ 100152bf f   libucrt:winapi_thunks.obj
 0001:000142d9       ?try_get_LCMapStringEx@@YAP6GHPB_WK0HPA_WHPAU_nlsversioninfo@@PAXJ@ZXZ 100152d9 f   libucrt:winapi_thunks.obj
 0001:000142f3       ?try_get_LocaleNameToLCID@@YAP6GKPB_WK@ZXZ 100152f3 f   libucrt:winapi_thunks.obj
 0001:0001430d       ?try_get_first_available_module@@YAPAUHINSTANCE__@@QBW4module_id@?A0x391cf84c@@0@Z 1001530d f   libucrt:winapi_thunks.obj
 0001:000143d4       ?try_get_function@@YAPAXW4function_id@?A0x391cf84c@@QBDQBW4module_id@2@2@Z 100153d4 f   libucrt:winapi_thunks.obj
 0001:00014b37       ?fp_format_a@@YAHQBNPADIQADIH_NIQAU__crt_locale_pointers@@@Z 10015b37 f   libucrt:cvt.obj
 0001:00014e50       ?fp_format_e@@YAHQBNQADI1IH_NIQAU__crt_locale_pointers@@@Z 10015e50 f   libucrt:cvt.obj
 0001:00014ef2       ?fp_format_e_internal@@YAHQADIH_NIQAU_strflt@@1QAU__crt_locale_pointers@@@Z 10015ef2 f   libucrt:cvt.obj
 0001:0001503a       ?fp_format_f@@YAHQBNQADI1IHQAU__crt_locale_pointers@@@Z 1001603a f   libucrt:cvt.obj
 0001:000150c5       ?fp_format_f_internal@@YAHQADIHQAU_strflt@@_NQAU__crt_locale_pointers@@@Z 100160c5 f   libucrt:cvt.obj
 0001:00015196       ?fp_format_g@@YAHQBNQADI1IH_NIQAU__crt_locale_pointers@@@Z 10016196 f   libucrt:cvt.obj
 0001:00015257       ?fp_format_nan_or_infinity@@YAHW4__acrt_fp_class@@_NPADI1@Z 10016257 f   libucrt:cvt.obj
 0001:000152ec       ?shift_bytes@@YAXQADI0H@Z  100162ec f   libucrt:cvt.obj
 0001:000155d3       ??$?RV<lambda_e5124f882df8998aaf41531e079ba474>@@AAV<lambda_3e16ef9562a7dcce91392c22ab16ea36>@@V<lambda_e25ca0880e6ef98be67edffd8c599615>@@@?$__crt_seh_guarded_call@X@@QAEX$$QAV<lambda_e5124f882df8998aaf41531e079ba474>@@AAV<lambda_3e16ef9562a7dcce91392c22ab16ea36>@@$$QAV<lambda_e25ca0880e6ef98be67edffd8c599615>@@@Z 100165d3 f   libucrt:wsetlocale.obj
 0001:00015673       ?initialize_inherited_file_handles_nolock@@YAXXZ 10016673 f   libucrt:ioinit.obj
 0001:00015729       ?initialize_stdio_handles_nolock@@YAXXZ 10016729 f   libucrt:ioinit.obj
 0001:0001593a       ?<lambda_invoker_cdecl>@<lambda_838c7f62c73c983481e27c09e84b0b5d>@@CAHPBX0@Z 1001693a f   libucrt:argv_wildcards.obj
 0001:00015952       ??$__acrt_convert_wcs_mbs_cp@D_WV<lambda_62f6974d9771e494a5ea317cc32e971c>@@U__crt_win32_buffer_internal_dynamic_resizing@@@@YAHQBDAAV?$__crt_win32_buffer@_WU__crt_win32_buffer_internal_dynamic_resizing@@@@ABV<lambda_62f6974d9771e494a5ea317cc32e971c>@@I@Z 10016952 f   libucrt:argv_wildcards.obj
 0001:00015a04       ??$__acrt_convert_wcs_mbs_cp@_WDV<lambda_28bda7af82a03b66c1cb3803a755f95d>@@U__crt_win32_buffer_internal_dynamic_resizing@@@@YAHQB_WAAV?$__crt_win32_buffer@DU__crt_win32_buffer_internal_dynamic_resizing@@@@ABV<lambda_28bda7af82a03b66c1cb3803a755f95d>@@I@Z 10016a04 f   libucrt:argv_wildcards.obj
 0001:00015af0       ??$common_expand_argv_wildcards@D@@YAHQAPADQAPAPAD@Z 10016af0 f   libucrt:argv_wildcards.obj
 0001:00015cdf       ??$copy_and_add_argument_to_buffer@D@@YAHQBD0IAAV?$argument_list@D@?A0x5f5c8891@@@Z 10016cdf f   libucrt:argv_wildcards.obj
 0001:00015d90       ??$expand_argument_wildcards@D@@YAHQAD0AAV?$argument_list@D@?A0x5f5c8891@@@Z 10016d90 f   libucrt:argv_wildcards.obj
 0001:000160da       ?expand_if_necessary@?$argument_list@D@?A0x5f5c8891@@AAEHXZ 100170da f   libucrt:argv_wildcards.obj
 0001:0001616c       ??$__acrt_convert_wcs_mbs_cp@_WDV<lambda_0fec1a7b3f42a53036604e18c2d5e07e>@@U__crt_win32_buffer_no_resizing@@@@YAHQB_WAAV?$__crt_win32_buffer@DU__crt_win32_buffer_no_resizing@@@@ABV<lambda_0fec1a7b3f42a53036604e18c2d5e07e>@@I@Z 1001716c f   libucrt:getmodulefilenamea.obj
 0001:0001630f       ??$?RV<lambda_ceb1ee4838e85a9d631eb091e2fbe199>@@AAV<lambda_ae742caa10f662c28703da3d2ea5e57e>@@V<lambda_cd08b5d6af4937fe54fc07d0c9bf6b37>@@@?$__crt_seh_guarded_call@X@@QAEX$$QAV<lambda_ceb1ee4838e85a9d631eb091e2fbe199>@@AAV<lambda_ae742caa10f662c28703da3d2ea5e57e>@@$$QAV<lambda_cd08b5d6af4937fe54fc07d0c9bf6b37>@@@Z 1001730f f   libucrt:mbctype.obj
 0001:0001635c       ??R<lambda_ae742caa10f662c28703da3d2ea5e57e>@@QBEXXZ 1001735c f   libucrt:mbctype.obj
 0001:000163df       ?CPtoLocaleName@@YAPB_WH@Z 100173df f   libucrt:mbctype.obj
 0001:0001641d       ?getSystemCP@@YAHH@Z       1001741d f   libucrt:mbctype.obj
 0001:0001648e       ?setSBCS@@YAXPAU__crt_multibyte_data@@@Z 1001748e f   libucrt:mbctype.obj
 0001:000164f3       ?setSBUpLow@@YAXPAU__crt_multibyte_data@@@Z 100174f3 f   libucrt:mbctype.obj
 0001:00016674       ?setmbcp_internal@@YAHH_NQAU__acrt_ptd@@QAPAU__crt_multibyte_data@@@Z 10017674 f   libucrt:mbctype.obj
 0001:0001678d       ?update_thread_multibyte_data_internal@@YAPAU__crt_multibyte_data@@QAU__acrt_ptd@@QAPAU1@@Z 1001778d f   libucrt:mbctype.obj
 0001:00016a7b       _memcpy_s                  10017a7b f   libucrt:cfout.obj
 0001:00016a7b       _memcpy_s                  10017a7b f   libucrt:mbctype.obj
 0001:00016afc       ?x_ismbbtype_l@@YAHPAU__crt_locale_pointers@@IHH@Z 10017afc f   libucrt:ismbbyte.obj
 0001:00016cad       ?find_end_of_double_null_terminated_sequence@@YAPB_WQB_W@Z 10017cad f   libucrt:get_environment_from_os.obj
 0001:00016e1c       ??$?RV<lambda_cbab9ec6f41b0180b23cc171c22676b0>@@AAV<lambda_44731a7d0e6d81c3e6aa82d741081786>@@V<lambda_4b292cb8dd18144e164572427af410ab>@@@?$__crt_seh_guarded_call@P6AXH@Z@@QAEP6AXH@Z$$QAV<lambda_cbab9ec6f41b0180b23cc171c22676b0>@@AAV<lambda_44731a7d0e6d81c3e6aa82d741081786>@@$$QAV<lambda_4b292cb8dd18144e164572427af410ab>@@@Z 10017e1c f   libucrt:signal.obj
 0001:00016e80       ?get_global_action_nolock@@YAPAP6AXH@ZH@Z 10017e80 f   libucrt:signal.obj
 0001:00016ec2       ?siglookup@@YAPAU__crt_signal_action_t@@HQAU1@@Z 10017ec2 f   libucrt:signal.obj
 0001:0001718c       ??$?RV<lambda_2866be3712abc81a800a822484c830d8>@@AAV<lambda_39ca0ed439415581b5b15c265174cece>@@V<lambda_2b24c74d71094a6cd0cb82e44167d71b>@@@?$__crt_seh_guarded_call@X@@QAEX$$QAV<lambda_2866be3712abc81a800a822484c830d8>@@AAV<lambda_39ca0ed439415581b5b15c265174cece>@@$$QAV<lambda_2b24c74d71094a6cd0cb82e44167d71b>@@@Z 1001818c f   libucrt:fflush.obj
 0001:00017218       ??$?RV<lambda_2cc53f568c5a2bb6f192f930a45d44ea>@@AAV<lambda_ab61a845afdef5b7c387490eaf3616ee>@@V<lambda_c2ffc0b7726aa6be21d5f0026187e748>@@@?$__crt_seh_guarded_call@X@@QAEX$$QAV<lambda_2cc53f568c5a2bb6f192f930a45d44ea>@@AAV<lambda_ab61a845afdef5b7c387490eaf3616ee>@@$$QAV<lambda_c2ffc0b7726aa6be21d5f0026187e748>@@@Z 10018218 f   libucrt:fflush.obj
 0001:000172c4       ?common_flush_all@@YAH_N@Z 100182c4 f   libucrt:fflush.obj
 0001:00017311       ?common_flush_all_should_try_to_flush_stream@@YA_NV__crt_stdio_stream@@QAH@Z 10018311 f   libucrt:fflush.obj
 0001:00017344       ?is_stream_flushable_or_commitable@@YA_NJ@Z 10018344 f   libucrt:fflush.obj
 0001:0001784d       ?GetTableIndexFromLocaleName@@YAHPB_W@Z 1001884d f   libucrt:lcidtoname_downlevel.obj
 0001:00017903       ??R<lambda_3d301b9e52f5099be73030e1f0bf487e>@@QBEIPBD@Z 10018903 f   libucrt:mbrtowc.obj
 0001:000195da       ?free_crt_array_internal@@YAXQAPBXI@Z 1001a5da f   libucrt:inittime.obj
 0001:00019ab0       ?swap@@YAXPAD0I@Z          1001aab0 f   libucrt:qsort.obj
 0001:00019f34       ??$common_tcsncpy_s@D@@YAHQADIQBDI@Z 1001af34 f   libucrt:strncpy_s.obj
 0001:0001a000       $$000000                   1001b000     libucrt:strpbrk.obj
 0001:0001a0e4       ?__acrt_LCMapStringA_stat@@YAHPAU__crt_locale_pointers@@PB_WKPBDHPADHHH@Z 1001b0e4 f   libucrt:lcmapstringa.obj
 0001:0001a317       ?initialize_multibyte@@YAHXZ 1001b317 f   libucrt:multibyte_initializer.obj
 0001:0001a326       ??$?RV<lambda_9e9de3de5fa147e2223d7db92bc10aa6>@@AAV<lambda_38ce7e780aa69e748d6df282ebc68efe>@@V<lambda_8ca6da459f0f6780f1cff60fdc3d00e5>@@@?$__crt_seh_guarded_call@H@@QAEH$$QAV<lambda_9e9de3de5fa147e2223d7db92bc10aa6>@@AAV<lambda_38ce7e780aa69e748d6df282ebc68efe>@@$$QAV<lambda_8ca6da459f0f6780f1cff60fdc3d00e5>@@@Z 1001b326 f   libucrt:commit.obj
 0001:0001a445       ?write_double_translated_ansi_nolock@@YA?AUwrite_result@?A0x17268360@@HQBDI@Z 1001b445 f   libucrt:write.obj
 0001:0001a7ef       ?write_double_translated_unicode_nolock@@YA?AUwrite_result@?A0x17268360@@QBDI@Z 1001b7ef f   libucrt:write.obj
 0001:0001a857       ?write_requires_double_translation_nolock@@YA_NH@Z 1001b857 f   libucrt:write.obj
 0001:0001a8c8       ?write_text_ansi_nolock@@YA?AUwrite_result@?A0x17268360@@HQBDI@Z 1001b8c8 f   libucrt:write.obj
 0001:0001a9a3       ?write_text_utf16le_nolock@@YA?AUwrite_result@?A0x17268360@@HQBDI@Z 1001b9a3 f   libucrt:write.obj
 0001:0001aa8c       ?write_text_utf8_nolock@@YA?AUwrite_result@?A0x17268360@@HQBDI@Z 1001ba8c f   libucrt:write.obj
 0001:0001b160       $$000000                   1001c160     libucrt:log10_impl.obj
 0001:0001b270       $$000000                   1001c270     libucrt:ceil_pentium4.obj
 0001:0001b38d       ??$common_lseek_nolock@_J@@YA_JH_JH@Z 1001c38d f   libucrt:lseek.obj
 0001:0001b573       ?to_abstract_control@@YA?AW4__acrt_fenv_abstract_control@@W4__acrt_fenv_machine_sse_control@@@Z 1001c573 f   libucrt:_fenvutils.obj
 0001:0001b62f       ?to_abstract_control@@YA?AW4__acrt_fenv_abstract_control@@W4__acrt_fenv_machine_x87_control@@@Z 1001c62f f   libucrt:_fenvutils.obj
 0001:0001b6e8       ?to_machine_sse_control@@YA?AW4__acrt_fenv_machine_sse_control@@W4__acrt_fenv_abstract_control@@@Z 1001c6e8 f   libucrt:_fenvutils.obj
 0001:0001b7b5       ?to_machine_x87_control@@YA?AW4__acrt_fenv_machine_x87_control@@W4__acrt_fenv_abstract_control@@@Z 1001c7b5 f   libucrt:_fenvutils.obj
 0001:0001bc10       $$000000                   1001cc10     libucrt:log10_pentium4.obj
 0001:0001bea0       $$000000                   1001cea0     libucrt:87tran.obj
 0001:0001c0b0       $$000000                   1001d0b0     libucrt:87disp.obj
 0001:0001c310       $$000000                   1001d310     libucrt:common.obj
 0001:0001c4a0       $$000000                   1001d4a0     libucrt:genexcep.obj
 0001:0001c79c       ??$?RV<lambda_218ce3db14220d0be481dae8ef3383b6>@@AAV<lambda_628dfdc04ba53c8bfc02c9951375f3f5>@@V<lambda_57dc472bd5c9d5f3b2cbca59b8a843ae>@@@?$__crt_seh_guarded_call@H@@QAEH$$QAV<lambda_218ce3db14220d0be481dae8ef3383b6>@@AAV<lambda_628dfdc04ba53c8bfc02c9951375f3f5>@@$$QAV<lambda_57dc472bd5c9d5f3b2cbca59b8a843ae>@@@Z 1001d79c f   libucrt:close.obj
 0001:0001c990       $$000000                   1001d990     libucrt:_strnicm.obj
 0001:0001c9f1       ?__dcrt_lowio_initialize_console_output@@YAXXZ 1001d9f1 f   libucrt:initcon.obj
 0001:0001d850       $$000000                   1001e850     LIBCMT:ulldvrm.obj
 0001:0001d8f0       $$000000                   1001e8f0     LIBCMT:llmul.obj
 0001:0001d930       $$000000                   1001e930     LIBCMT:lldvrm.obj
 0001:0001da10       $$000000                   1001ea10     LIBCMT:ullshr.obj
 0001:0001da30       $$000000                   1001ea30     LIBCMT:llshl.obj
 0001:0001da50       $$000000                   1001ea50     LIBCMT:ftol2.obj
 0001:0001dcf0       $$000000                   1001ecf0     libvcruntime:strrchr.obj
 0001:0001de30       $$000000                   1001ee30     libvcruntime:strchr.obj
 0001:0001dfd3       __ehhandler$??2@YAPAXIABUnothrow_t@std@@@Z 1001efd3 f   LIBCMT:new_scalar_nothrow.obj
 0001:0001dfee       __ehhandler$?CallUnexpected@@YAXPBU_s_ESTypeList@@@Z 1001efee f   libvcruntime:frame.obj
 0001:0001e009       ??__F_AtlComModule@ATL@@YAXXZ 1001f009 f   OposVariant.obj
 0001:0001e013       ??__F_AtlWinModule@ATL@@YAXXZ 1001f013 f   OposVariant.obj
 0001:0001e02d       ??__F_Module@@YAXXZ        1001f02d f   LineDisplay.obj
 0001:0001e041       ??__F_AtlBaseModule@ATL@@YAXXZ 1001f041 f   atls:atlbase.obj
 0002:00000304       ?_AtlBaseModule$initializer$@ATL@@3P6AXXZA 10020304     atls:atlbase.obj
 0002:00000308       ?_AtlComModule$initializer$@ATL@@3P6AXXZA 10020308     OposVariant.obj
 0002:0000030c       ?_AtlWinModule$initializer$@ATL@@3P6AXXZA 1002030c     OposVariant.obj
 0002:00000310       ?_Module$initializer$@@3P6AXXZA 10020310     LineDisplay.obj
 0002:00000314       ??pConnMap$initializer$@?$IConnectionPointContainerImpl@VCOPOSLineDisplay@@@ATL@@0P6AXXZA@@3P6AXXZA 10020314     LineDisplay.obj
 0002:00000320       ?__scrt_initialize_tss_var@@3P6AHXZA 10020320     LIBCMT:thread_safe_statics.obj
 0002:00001a50       _GS_ExceptionPointers      10021a50     LIBCMT:gs_report.obj
 0002:00001be0       ?tokenTable@@3QBUStringLiteral@@B 10021be0     libvcruntime:undname.obj
 0002:00001c60       ?nameTable@@3QBUStringLiteral@@B 10021c60     libvcruntime:undname.obj
 0002:00001ef8       ?rttiTable@@3QBUStringLiteral@@B 10021ef8     libvcruntime:undname.obj
 0002:00001f20       ?IndirectionName@@3QBUStringLiteral@@B 10021f20     libvcruntime:undname.obj
 0002:00001f50       ?PrefixName@@3QBUStringLiteral@@B 10021f50     libvcruntime:undname.obj
 0002:00002580       ?module_names@?A0x1172487b@@3QBQB_WB 10022580     libvcruntime:winapi_downlevel.obj
 0002:00002628       ?candidate_modules@?1??try_get_FlsAlloc@@YAP6GKP6GXPAX@Z@ZXZ@4QBW4module_id@?A0x1172487b@@B 10022628     libvcruntime:winapi_downlevel.obj
 0002:0000263c       ?candidate_modules@?1??try_get_FlsFree@@YAP6GHK@ZXZ@4QBW4module_id@?A0x1172487b@@B 1002263c     libvcruntime:winapi_downlevel.obj
 0002:0000264c       ?candidate_modules@?1??try_get_FlsGetValue@@YAP6GPAXK@ZXZ@4QBW4module_id@?A0x1172487b@@B 1002264c     libvcruntime:winapi_downlevel.obj
 0002:00002660       ?candidate_modules@?1??try_get_FlsSetValue@@YAP6GHKPAX@ZXZ@4QBW4module_id@?A0x1172487b@@B 10022660     libvcruntime:winapi_downlevel.obj
 0002:00002674       ?candidate_modules@?1??try_get_InitializeCriticalSectionEx@@YAP6GHPAU_RTL_CRITICAL_SECTION@@KK@ZXZ@4QBW4module_id@?A0x1172487b@@B 10022674     libvcruntime:winapi_downlevel.obj
 0002:00002698       ?errtable@@3QBUerrentry@?A0x31fdb9ec@@B 10022698     libucrt:errno.obj
 0002:00002940       ___acrt_initializers       10022940     libucrt:initialization.obj
 0002:000029c0       ?module_names@?A0x391cf84c@@3QBQB_WB 100229c0     libucrt:winapi_thunks.obj
 0002:00002e38       ?candidate_modules@?1??try_get_AreFileApisANSI@@YAP6GHXZXZ@4QBW4module_id@?A0x391cf84c@@B 10022e38     libucrt:winapi_thunks.obj
 0002:00002e4c       ?candidate_modules@?1??try_get_FlsAlloc@@YAP6GKP6GXPAX@Z@ZXZ@4QBW4module_id@?A0x391cf84c@@B 10022e4c     libucrt:winapi_thunks.obj
 0002:00002e54       ?candidate_modules@?1??try_get_FlsFree@@YAP6GHK@ZXZ@4QBW4module_id@?A0x391cf84c@@B 10022e54     libucrt:winapi_thunks.obj
 0002:00002e5c       ?candidate_modules@?1??try_get_FlsGetValue@@YAP6GPAXK@ZXZ@4QBW4module_id@?A0x391cf84c@@B 10022e5c     libucrt:winapi_thunks.obj
 0002:00002e64       ?candidate_modules@?1??try_get_FlsSetValue@@YAP6GHKPAX@ZXZ@4QBW4module_id@?A0x391cf84c@@B 10022e64     libucrt:winapi_thunks.obj
 0002:00002e6c       ?candidate_modules@?1??try_get_InitializeCriticalSectionEx@@YAP6GHPAU_RTL_CRITICAL_SECTION@@KK@ZXZ@4QBW4module_id@?A0x391cf84c@@B 10022e6c     libucrt:winapi_thunks.obj
 0002:00002e74       ?candidate_modules@?1??try_get_LCMapStringEx@@YAP6GHPB_WK0HPA_WHPAU_nlsversioninfo@@PAXJ@ZXZ@4QBW4module_id@?A0x391cf84c@@B 10022e74     libucrt:winapi_thunks.obj
 0002:00002e8c       ?candidate_modules@?1??try_get_LocaleNameToLCID@@YAP6GKPB_WK@ZXZ@4QBW4module_id@?A0x391cf84c@@B 10022e8c     libucrt:winapi_thunks.obj
 0002:00002ea8       ?candidate_modules@?1??try_get_AppPolicyGetProcessTerminationMethod@@YAP6GJPAXPAW4AppPolicyProcessTerminationMethod@@@ZXZ@4QBW4module_id@?A0x391cf84c@@B 10022ea8     libucrt:winapi_thunks.obj
 0002:00002ed4       ?candidate_modules@?1??try_get_SetThreadStackGuarantee@@YAP6GHPAK@ZXZ@4QBW4module_id@?A0x391cf84c@@B 10022ed4     libucrt:winapi_thunks.obj
 0002:00002ef8       ?strings@?1??fp_format_nan_or_infinity@@YAHW4__acrt_fp_class@@_NPADI1@Z@4QAY03QBDA 10022ef8     libucrt:cvt.obj
 0002:00003440       ?_mb_locale_names@@3QBQB_WB 10023440     libucrt:mbctype.obj
 0002:00003c88       ?LcidToLocaleNameTable@?A0x881e4c05@@3QBULcidToLocaleName@1@B 10023c88     libucrt:lcidtoname_downlevel.obj
 0002:00004db0       ?LocaleNameToIndexTable@?A0x881e4c05@@3QBULocaleNameIndex@1@B 10024db0     libucrt:lcidtoname_downlevel.obj
 0002:00006608       ?large_power_indices@?1??multiply_by_power_of_ten@__crt_strtox@@YA_NAAUbig_integer@2@I@Z@4QBUunpack_index@?1??12@YA_N0I@Z@B 10026608     libucrt:cfout.obj
 0002:000066f0       LOG_name                   100266f0     libucrt:log10_impl.obj
 0002:00006700       _One                       10026700     libucrt:ceil_pentium4.obj
 0002:00006710       _Bns                       10026710     libucrt:ceil_pentium4.obj
 0002:00006720       _Zero                      10026720     libucrt:ceil_pentium4.obj
 0002:00006730       _S                         10026730     libucrt:ceil_pentium4.obj
 0002:00006740       _NegZero                   10026740     libucrt:ceil_pentium4.obj
 0002:00006750       emask                      10026750     libucrt:log10_pentium4.obj
 0002:00006760       CC                         10026760     libucrt:log10_pentium4.obj
 0002:00006770       Magic                      10026770     libucrt:log10_pentium4.obj
 0002:00006780       hi_mask                    10026780     libucrt:log10_pentium4.obj
 0002:00006790       LOG10_2                    10026790     libucrt:log10_pentium4.obj
 0002:000067a0       place_L                    100267a0     libucrt:log10_pentium4.obj
 0002:000067c0       One                        100267c0     libucrt:log10_pentium4.obj
 0002:000067d0       Zero                       100267d0     libucrt:log10_pentium4.obj
 0002:000067e0       Two52                      100267e0     libucrt:log10_pentium4.obj
 0002:000067f0       Infs                       100267f0     libucrt:log10_pentium4.obj
 0002:00006800       NaN                        10026800     libucrt:log10_pentium4.obj
 0002:00006810       coeff                      10026810     libucrt:log10_pentium4.obj
 0002:0000686e       _log2max                   1002686e     libucrt:87tran.obj
 0002:00006878       _smallarg                  10026878     libucrt:87tran.obj
 0002:00006882       _half                      10026882     libucrt:87tran.obj
 0002:000068ce       One                        100268ce     libucrt:87disp.obj
 0002:000068d6       Three                      100268d6     libucrt:87disp.obj
 0002:000068de       XAMtoTagTab                100268de     libucrt:87disp.obj
 0002:000068f0       One                        100268f0     libucrt:common.obj
 0002:00006904       DblMax                     10026904     libucrt:common.obj
 0002:0000690c       DblMin                     1002690c     libucrt:common.obj
 0002:00006914       IeeeAdjO                   10026914     libucrt:common.obj
 0002:0000691c       IeeeAdjU                   1002691c     libucrt:common.obj
 0002:00006924       _infinity                  10026924     libucrt:common.obj
 0002:0000692c       _zero                      1002692c     libucrt:common.obj
 0002:00006978       _over                      10026978     libucrt:fpctrl.obj
 0002:00006984       _under                     10026984     libucrt:fpctrl.obj
 0002:000071b8       ?_names@?1??_get_fname@@9@9 100271b8     libucrt:fpexcept.obj
 0002:00007360       two32                      10027360     LIBCMT:ftol2.obj
 0002:00007364       two63                      10027364     LIBCMT:ftol2.obj
 0002:00007368       _NaN                       10027368     LIBCMT:ftol2.obj
 0002:00007a18       __sehtable$?_AtlVerifyStackAvailable@_ATL_SAFE_ALLOCA_IMPL@ATL@@YA_NK@Z 10027a18     LineDisplay.obj
 0002:00007a38       __sehtable$___scrt_is_nonwritable_in_current_image 10027a38     LIBCMT:utility.obj
 0002:00007a54       __catchsym$??2@YAPAXIABUnothrow_t@std@@@Z$2 10027a54     LIBCMT:new_scalar_nothrow.obj
 0002:00007a64       __unwindtable$??2@YAPAXIABUnothrow_t@std@@@Z 10027a64     LIBCMT:new_scalar_nothrow.obj
 0002:00007a74       __tryblocktable$??2@YAPAXIABUnothrow_t@std@@@Z 10027a74     LIBCMT:new_scalar_nothrow.obj
 0002:00007a88       __ehfuncinfo$??2@YAPAXIABUnothrow_t@std@@@Z 10027a88     LIBCMT:new_scalar_nothrow.obj
 0002:00007ab0       __sehtable$?dllmain_crt_process_attach@@YAHQAUHINSTANCE__@@QAX@Z 10027ab0     LIBCMT:dll_dllmain.obj
 0002:00007ad0       __sehtable$?dllmain_crt_process_detach@@YAH_N@Z 10027ad0     LIBCMT:dll_dllmain.obj
 0002:00007af8       __sehtable$?dllmain_dispatch@@YAHQAUHINSTANCE__@@KQAX@Z 10027af8     LIBCMT:dll_dllmain.obj
 0002:00007ba8       __sehtable$___DestructExceptionObject 10027ba8     libvcruntime:ehhelpers.obj
 0002:00007bc8       __sehtable$?FrameUnwindToState@__FrameHandler3@@SAXPAUEHRegistrationNode@@PAXPBU_s_FuncInfo@@H@Z 10027bc8     libvcruntime:frame.obj
 0002:00007bf0       __sehtable$?CallCatchBlock@@YAPAXPAUEHExceptionRecord@@PAUEHRegistrationNode@@PAU_CONTEXT@@PBU_s_FuncInfo@@PAXHK@Z 10027bf0     libvcruntime:frame.obj
 0002:00007c18       __catchsym$?CallUnexpected@@YAXPBU_s_ESTypeList@@@Z$2 10027c18     libvcruntime:frame.obj
 0002:00007c28       __unwindtable$?CallUnexpected@@YAXPBU_s_ESTypeList@@@Z 10027c28     libvcruntime:frame.obj
 0002:00007c38       __tryblocktable$?CallUnexpected@@YAXPBU_s_ESTypeList@@@Z 10027c38     libvcruntime:frame.obj
 0002:00007c4c       __ehfuncinfo$?CallUnexpected@@YAXPBU_s_ESTypeList@@@Z 10027c4c     libvcruntime:frame.obj
 0002:00007c70       __sehtable$??$BuildCatchObjectHelperInternal@V__FrameHandler3@@@@YAHPAUEHExceptionRecord@@PAXPBU_s_HandlerType@@PBU_s_CatchableType@@@Z 10027c70     libvcruntime:frame.obj
 0002:00007c90       __sehtable$??$BuildCatchObjectInternal@V__FrameHandler3@@@@YAXPAUEHExceptionRecord@@PAXPBU_s_HandlerType@@PBU_s_CatchableType@@@Z 10027c90     libvcruntime:frame.obj
 0002:00007ce8       __sehtable$??R<lambda_6e4b09c48022b2350581041d5f6b0c4c>@@QBE@XZ 10027ce8     libucrt:exit.obj
 0002:00007d08       __sehtable$??$?RV<lambda_03b1d95aef87969028cfba75ccab2455>@@AAV<lambda_6e4b09c48022b2350581041d5f6b0c4c>@@V<lambda_22bdf7517842c4b3e53723af5aa32b9e>@@@?$__crt_seh_guarded_call@X@@QAEX$$QAV<lambda_03b1d95aef87969028cfba75ccab2455>@@AAV<lambda_6e4b09c48022b2350581041d5f6b0c4c>@@$$QAV<lambda_22bdf7517842c4b3e53723af5aa32b9e>@@@Z 10027d08     libucrt:exit.obj
 0002:00007d28       __sehtable$??$?RV<lambda_8e746cf0007f6ed984d6f78af1fec997>@@AAV<lambda_22ebabd17bc4fa466a2aca6d8deb888d>@@V<lambda_18ed0c0b38a6dc0daf1e7ac6d6adf05e>@@@?$__crt_seh_guarded_call@H@@QAEH$$QAV<lambda_8e746cf0007f6ed984d6f78af1fec997>@@AAV<lambda_22ebabd17bc4fa466a2aca6d8deb888d>@@$$QAV<lambda_18ed0c0b38a6dc0daf1e7ac6d6adf05e>@@@Z 10027d28     libucrt:onexit.obj
 0002:00007d48       __sehtable$??$?RV<lambda_69a2805e680e0e292e8ba93315fe43a8>@@AAV<lambda_f03950bc5685219e0bcd2087efbe011e>@@V<lambda_03fcd07e894ec930e3f35da366ca99d6>@@@?$__crt_seh_guarded_call@H@@QAEH$$QAV<lambda_69a2805e680e0e292e8ba93315fe43a8>@@AAV<lambda_f03950bc5685219e0bcd2087efbe011e>@@$$QAV<lambda_03fcd07e894ec930e3f35da366ca99d6>@@@Z 10027d48     libucrt:onexit.obj
 0002:00007d68       __sehtable$__query_new_handler 10027d68     libucrt:new_handler.obj
 0002:00007d88       __sehtable$_terminate      10027d88     libucrt:terminate.obj
 0002:00007da8       __sehtable$??$?RV<lambda_15ade71b0218206bbe3333a0c9b79046>@@AAV<lambda_da44e0f8b0f19ba52fefafb335991732>@@V<lambda_207f2d024fc103971653565357d6cd41>@@@?$__crt_seh_guarded_call@X@@QAEX$$QAV<lambda_15ade71b0218206bbe3333a0c9b79046>@@AAV<lambda_da44e0f8b0f19ba52fefafb335991732>@@$$QAV<lambda_207f2d024fc103971653565357d6cd41>@@@Z 10027da8     libucrt:per_thread_data.obj
 0002:00007dc8       __sehtable$??$?RV<lambda_a7e850c220f1c8d1e6efeecdedd162c6>@@AAV<lambda_46720907175c18b6c9d2717bc0d2d362>@@V<lambda_9048902d66e8d99359bc9897bbb930a8>@@@?$__crt_seh_guarded_call@X@@QAEX$$QAV<lambda_a7e850c220f1c8d1e6efeecdedd162c6>@@AAV<lambda_46720907175c18b6c9d2717bc0d2d362>@@$$QAV<lambda_9048902d66e8d99359bc9897bbb930a8>@@@Z 10027dc8     libucrt:per_thread_data.obj
 0002:00007de8       __sehtable$??$?RV<lambda_38edbb1296d33220d7e4dd0ed76b244a>@@AAV<lambda_5ce1d447e08cb34b2473517608e21441>@@V<lambda_fb385d3da700c9147fc39e65dd577a8c>@@@?$__crt_seh_guarded_call@X@@QAEX$$QAV<lambda_38edbb1296d33220d7e4dd0ed76b244a>@@AAV<lambda_5ce1d447e08cb34b2473517608e21441>@@$$QAV<lambda_fb385d3da700c9147fc39e65dd577a8c>@@@Z 10027de8     libucrt:per_thread_data.obj
 0002:00007e08       __sehtable$??$?RV<lambda_6affb1475c98b40b75cdec977db92e3c>@@AAV<lambda_b8d4b9c228a6ecc3f80208dbb4b4a104>@@V<lambda_608742c3c92a14382c1684fc64f96c88>@@@?$__crt_seh_guarded_call@X@@QAEX$$QAV<lambda_6affb1475c98b40b75cdec977db92e3c>@@AAV<lambda_b8d4b9c228a6ecc3f80208dbb4b4a104>@@$$QAV<lambda_608742c3c92a14382c1684fc64f96c88>@@@Z 10027e08     libucrt:per_thread_data.obj
 0002:00007e28       __sehtable$??$?RV<lambda_e5124f882df8998aaf41531e079ba474>@@AAV<lambda_3e16ef9562a7dcce91392c22ab16ea36>@@V<lambda_e25ca0880e6ef98be67edffd8c599615>@@@?$__crt_seh_guarded_call@X@@QAEX$$QAV<lambda_e5124f882df8998aaf41531e079ba474>@@AAV<lambda_3e16ef9562a7dcce91392c22ab16ea36>@@$$QAV<lambda_e25ca0880e6ef98be67edffd8c599615>@@@Z 10027e28     libucrt:wsetlocale.obj
 0002:00007e48       __sehtable$___acrt_initialize_lowio 10027e48     libucrt:ioinit.obj
 0002:00007e68       __sehtable$?update_thread_multibyte_data_internal@@YAPAU__crt_multibyte_data@@QAU__acrt_ptd@@QAPAU1@@Z 10027e68     libucrt:mbctype.obj
 0002:00007e88       __sehtable$??$?RV<lambda_ceb1ee4838e85a9d631eb091e2fbe199>@@AAV<lambda_ae742caa10f662c28703da3d2ea5e57e>@@V<lambda_cd08b5d6af4937fe54fc07d0c9bf6b37>@@@?$__crt_seh_guarded_call@X@@QAEX$$QAV<lambda_ceb1ee4838e85a9d631eb091e2fbe199>@@AAV<lambda_ae742caa10f662c28703da3d2ea5e57e>@@$$QAV<lambda_cd08b5d6af4937fe54fc07d0c9bf6b37>@@@Z 10027e88     libucrt:mbctype.obj
 0002:00007ea8       __sehtable$_raise          10027ea8     libucrt:signal.obj
 0002:00007ec8       __sehtable$??$?RV<lambda_cbab9ec6f41b0180b23cc171c22676b0>@@AAV<lambda_44731a7d0e6d81c3e6aa82d741081786>@@V<lambda_4b292cb8dd18144e164572427af410ab>@@@?$__crt_seh_guarded_call@P6AXH@Z@@QAEP6AXH@Z$$QAV<lambda_cbab9ec6f41b0180b23cc171c22676b0>@@AAV<lambda_44731a7d0e6d81c3e6aa82d741081786>@@$$QAV<lambda_4b292cb8dd18144e164572427af410ab>@@@Z 10027ec8     libucrt:signal.obj
 0002:00007ee8       __sehtable$??$?RV<lambda_2866be3712abc81a800a822484c830d8>@@AAV<lambda_39ca0ed439415581b5b15c265174cece>@@V<lambda_2b24c74d71094a6cd0cb82e44167d71b>@@@?$__crt_seh_guarded_call@X@@QAEX$$QAV<lambda_2866be3712abc81a800a822484c830d8>@@AAV<lambda_39ca0ed439415581b5b15c265174cece>@@$$QAV<lambda_2b24c74d71094a6cd0cb82e44167d71b>@@@Z 10027ee8     libucrt:fflush.obj
 0002:00007f08       __sehtable$??$?RV<lambda_2cc53f568c5a2bb6f192f930a45d44ea>@@AAV<lambda_ab61a845afdef5b7c387490eaf3616ee>@@V<lambda_c2ffc0b7726aa6be21d5f0026187e748>@@@?$__crt_seh_guarded_call@X@@QAEX$$QAV<lambda_2cc53f568c5a2bb6f192f930a45d44ea>@@AAV<lambda_ab61a845afdef5b7c387490eaf3616ee>@@$$QAV<lambda_c2ffc0b7726aa6be21d5f0026187e748>@@@Z 10027f08     libucrt:fflush.obj
 0002:00007f28       __sehtable$___acrt_update_thread_locale_data 10027f28     libucrt:locale_refcounting.obj
 0002:00007f48       __sehtable$__fcloseall     10027f48     libucrt:closeall.obj
 0002:00007f68       __sehtable$___acrt_lowio_ensure_fh_exists 10027f68     libucrt:osfinfo.obj
 0002:00007f88       __sehtable$??$?RV<lambda_9e9de3de5fa147e2223d7db92bc10aa6>@@AAV<lambda_38ce7e780aa69e748d6df282ebc68efe>@@V<lambda_8ca6da459f0f6780f1cff60fdc3d00e5>@@@?$__crt_seh_guarded_call@H@@QAEH$$QAV<lambda_9e9de3de5fa147e2223d7db92bc10aa6>@@AAV<lambda_38ce7e780aa69e748d6df282ebc68efe>@@$$QAV<lambda_8ca6da459f0f6780f1cff60fdc3d00e5>@@@Z 10027f88     libucrt:commit.obj
 0002:00007fa8       __sehtable$__write         10027fa8     libucrt:write.obj
 0002:00007fc8       __sehtable$_fclose         10027fc8     libucrt:fclose.obj
 0002:00007fe8       __sehtable$??$?RV<lambda_218ce3db14220d0be481dae8ef3383b6>@@AAV<lambda_628dfdc04ba53c8bfc02c9951375f3f5>@@V<lambda_57dc472bd5c9d5f3b2cbca59b8a843ae>@@@?$__crt_seh_guarded_call@H@@QAEH$$QAV<lambda_218ce3db14220d0be481dae8ef3383b6>@@AAV<lambda_628dfdc04ba53c8bfc02c9951375f3f5>@@$$QAV<lambda_57dc472bd5c9d5f3b2cbca59b8a843ae>@@@Z 10027fe8     libucrt:close.obj
 0002:00008008       __sehtable$__IsNonwritableInCurrentImage 10028008     LIBCMT:pesect.obj
 0002:00008030       .edata                     10028030     OPOSLineDisplay.exp
 0002:00008058       rgpv                       10028058     OPOSLineDisplay.exp
 0002:00008068       rgszName                   10028068     OPOSLineDisplay.exp
 0002:00008078       rgwOrd                     10028078     OPOSLineDisplay.exp
 0002:00008080       szName                     10028080     OPOSLineDisplay.exp
 0002:00008094       $N00001                    10028094     OPOSLineDisplay.exp
 0002:000080a4       $N00002                    100280a4     OPOSLineDisplay.exp
 0002:000080b6       $N00003                    100280b6     OPOSLineDisplay.exp
 0002:000080c8       $N00004                    100280c8     OPOSLineDisplay.exp
 0002:000086d6       .idata$6                   100286d6     kernel32:KERNEL32.dll
 0002:000088ea       .idata$6                   100288ea     user32:USER32.dll
 0002:00008a1e       .idata$6                   10028a1e     gdi32:GDI32.dll
 0002:00008ac4       .idata$6                   10028ac4     advapi32:ADVAPI32.dll
 0002:00008be0       .idata$6                   10028be0     ole32:ole32.dll
 0002:00008bea       .idata$6                   10028bea     oleaut32:OLEAUT32.dll
 0003:00000110       ?ObjectMap@@3PAU_ATL_OBJMAP_ENTRY30@ATL@@A 1002a110     LineDisplay.obj
 0003:000001d0       ?s_SOMethodNames@@3PAPADA  1002a1d0     LineDisplayImpl.obj
 0003:00000248       ?s_RequiredMethodsPerRelease@@3PAHA 1002a248     LineDisplayImpl.obj
 0003:00000290       ?__vcrt_flsindex@@3KA      1002a290     libvcruntime:per_thread_data.obj
 0003:000002b0       ?errno_no_memory@@3HA      1002a2b0     libucrt:errno.obj
 0003:000002b4       ?doserrno_no_memory@@3KA   1002a2b4     libucrt:errno.obj
 0003:000002c0       ?__acrt_flsindex@@3KA      1002a2c0     libucrt:per_thread_data.obj
 0003:00000658       __mbctypes                 1002a658     libucrt:mbctype.obj
 0003:00000760       __mbcasemaps               1002a760     libucrt:mbctype.obj
 0003:00000860       ?__rgctypeflag@@3PADA      1002a860     libucrt:mbctype.obj
 0003:00000868       ?__rgcode_page_info@@3PAUcode_page_info@@A 1002a868     libucrt:mbctype.obj
 0003:00000ac0       ?__dcrt_lowio_console_output_handle@@3PAXA 1002aac0     libucrt:initcon.obj
 0003:00000c58       ?is_initialized_as_dll@@3_NA 1002ac58     LIBCMT:utility.obj
 0003:00000c59       ?module_local_atexit_table_initialized@@3_NA 1002ac59     LIBCMT:utility.obj
 0003:00000c5c       ?module_local_atexit_table@@3U_onexit_table_t@@A 1002ac5c     LIBCMT:utility.obj
 0003:00000c68       ?module_local_at_quick_exit_table@@3U_onexit_table_t@@A 1002ac68     LIBCMT:utility.obj
 0003:00000c74       ?g_tss_cv@@3U_RTL_CONDITION_VARIABLE@@A 1002ac74     LIBCMT:thread_safe_statics.obj
 0003:00000c78       ?g_tss_event@@3PAXA        1002ac78     LIBCMT:thread_safe_statics.obj
 0003:00000c7c       ?g_tss_mutex@@3U_RTL_CRITICAL_SECTION@@A 1002ac7c     LIBCMT:thread_safe_statics.obj
 0003:00000c94       ?g_sleep_condition_variable_cs@@3P6GHPAU_RTL_CONDITION_VARIABLE@@PAU_RTL_CRITICAL_SECTION@@K@ZA 1002ac94     LIBCMT:thread_safe_statics.obj
 0003:00000c98       ?g_wake_all_condition_variable@@3P6GXPAU_RTL_CONDITION_VARIABLE@@@ZA 1002ac98     LIBCMT:thread_safe_statics.obj
 0003:00000ca0       _GS_ExceptionRecord        1002aca0     LIBCMT:gs_report.obj
 0003:00000cf0       _GS_ContextRecord          1002acf0     LIBCMT:gs_report.obj
 0003:00000fc0       ?__proc_attached@@3HA      1002afc0     LIBCMT:dll_dllmain.obj
 0003:0000101c       ?AllocateData@@3P6GPAUAtlThunkData_t@@XZA 1002b01c     atls:atlthunk.obj
 0003:00001020       ?InitData@@3P6GXPAUAtlThunkData_t@@PAXI@ZA 1002b020     atls:atlthunk.obj
 0003:00001024       ?DataToCode@@3P6GP6GJPAUHWND__@@IIJ@ZPAUAtlThunkData_t@@@ZA 1002b024     atls:atlthunk.obj
 0003:00001028       ?FreeData@@3P6GXPAUAtlThunkData_t@@@ZA 1002b028     atls:atlthunk.obj
 0003:0000102c       ?Initialized@@3_NA         1002b02c     atls:atlthunk.obj
 0003:0000103c       ?__vcrt_startup_thread_ptd@@3U__vcrt_ptd@@A 1002b03c     libvcruntime:per_thread_data.obj
 0003:00001064       ___vcrt_lock_table         1002b064     libvcruntime:locks.obj
 0003:0000107c       ___vcrt_locks_initialized  1002b07c     libvcruntime:locks.obj
 0003:000010a8       ?heap@@3V_HeapManager@@A   1002b0a8     libvcruntime:undname.obj
 0003:000010bc       ?module_handles@@3PAPAUHINSTANCE__@@A 1002b0bc     libvcruntime:winapi_downlevel.obj
 0003:000010c8       ?function_pointers@@3PAPAXA 1002b0c8     libvcruntime:winapi_downlevel.obj
 0003:000010dc       ?__acrt_invalid_parameter_handler@@3V?$dual_state_global@P6AXPB_W00II@Z@__crt_state_management@@A 1002b0dc     libucrt:invalid_parameter.obj
 0003:000010e0       ?c_termination_complete@@3JA 1002b0e0     libucrt:exit.obj
 0003:000010e4       ?thread_local_exit_callback_func@@3P6GXPAXK0@ZA 1002b0e4     libucrt:exit.obj
 0003:000010f0       ?program_name@?1???$common_configure_argv@D@@YAHW4_crt_argv_mode@@@Z@4PADA 1002b0f0     libucrt:argv_parsing.obj
 0003:00001220       ?__acrt_new_handler@@3V?$dual_state_global@P6AHI@Z@__crt_state_management@@A 1002b220     libucrt:new_handler.obj
 0003:00001228       ?module_handles@@3PAPAUHINSTANCE__@@A 1002b228     libucrt:winapi_thunks.obj
 0003:00001278       ?encoded_function_pointers@@3PAPAXA 1002b278     libucrt:winapi_thunks.obj
 0003:00001300       ?internal_state@?1??_mbtowc_l@@9@4U_Mbstatet@@A 1002b300     libucrt:mbtowc.obj
 0003:00001310       ?enable_percent_n@@3IA     1002b310     libucrt:printf_count_output.obj
 0003:00001530       ?__acrt_lock_table@@3PAU_RTL_CRITICAL_SECTION@@A 1002b530     libucrt:locks.obj
 0003:00001680       ?__acrt_locks_initialized@@3IA 1002b680     libucrt:locks.obj
 0003:00001690       ?fSystemSet@@3HA           1002b690     libucrt:mbctype.obj
 0003:00001694       ?initialized@?1??__acrt_initialize_multibyte@@9@4_NA 1002b694     libucrt:mbctype.obj
 0003:000016b4       ?ctrlc_action@@3V?$dual_state_global@P6AXH@Z@__crt_state_management@@A 1002b6b4     libucrt:signal.obj
 0003:000016b8       ?ctrlbreak_action@@3V?$dual_state_global@P6AXH@Z@__crt_state_management@@A 1002b6b8     libucrt:signal.obj
 0003:000016bc       ?abort_action@@3V?$dual_state_global@P6AXH@Z@__crt_state_management@@A 1002b6bc     libucrt:signal.obj
 0003:000016c0       ?term_action@@3V?$dual_state_global@P6AXH@Z@__crt_state_management@@A 1002b6c0     libucrt:signal.obj
 0003:000016c4       ?user_matherr@@3V?$dual_state_global@P6AHPAU_exception@@@Z@__crt_state_management@@A 1002b6c4     libucrt:matherr.obj
 0003:000016c8       ?__acrt_global_new_mode@@3V?$dual_state_global@J@__crt_state_management@@A 1002b6c8     libucrt:new_mode.obj
 0003:000016d4       ?internal_pst@?1??__mbrtoc32_utf8@__crt_mbstring@@YAIPA_UPBDIPAU_Mbstatet@@@Z@4U3@A 1002b6d4     libucrt:mbrtoc32.obj
 0003:000016dc       ?__acrt_app_type@@3W4_crt_app_type@@A 1002b6dc     libucrt:report_runtime_error.obj
 0003:000016e4       __pmatherr_set             1002b6e4     libucrt:libm_error.obj
 0004:00000220       $R000000                   1002c220     LineDisplay.res
 0004:00000bc0       $R0009A0                   1002cbc0     LineDisplay.res
 0004:00000ca8       $R000A88                   1002cca8     LineDisplay.res
 0004:00000f10       $R000CF0                   1002cf10     LineDisplay.res
 0004:000014b8       $R001298                   1002d4b8     LineDisplay.res
 0004:00005970       $R005750                   10031970     LineDisplay.res
 0004:000059a8       $R005788                   100319a8     LineDisplay.res
