 OPOSItemDispenser

 Timestamp is 5b863db2 (Wed Aug 29 15:31:14 2018)

 Preferred load address is 10000000

 Start         Length     Name                   Class
 0001:00000000 00000080H .text$di                CODE
 0001:00000080 0001ccfbH .text$mn                CODE
 0001:0001cd7b 00000051H .text$x                 CODE
 0001:0001cdcc 00000042H .text$yd                CODE
 0002:00000000 000002fcH .idata$5                DATA
 0002:000002fc 00000004H .00cfg                  DATA
 0002:00000300 00000004H .CRT$XCA                DATA
 0002:00000304 00000004H .CRT$XCL                DATA
 0002:00000308 00000010H .CRT$XCU                DATA
 0002:00000318 00000004H .CRT$XCZ                DATA
 0002:0000031c 00000004H .CRT$XIA                DATA
 0002:00000320 00000010H .CRT$XIC                DATA
 0002:00000330 00000004H .CRT$XIZ                DATA
 0002:00000334 00000004H .CRT$XLA                DATA
 0002:00000338 00000004H .CRT$XLZ                DATA
 0002:0000033c 00000004H .CRT$XPA                DATA
 0002:00000340 00000008H .CRT$XPX                DATA
 0002:00000348 00000004H .CRT$XPXA               DATA
 0002:0000034c 00000004H .CRT$XPZ                DATA
 0002:00000350 00000004H .CRT$XTA                DATA
 0002:00000354 0000000cH .CRT$XTZ                DATA
 0002:00000358 00000000H .gfids$y                DATA
 0002:00000360 00006ca8H .rdata                  DATA
 0002:00007008 00000018H .rdata$T                DATA
 0002:00007020 00000180H .rdata$r                DATA
 0002:000071a0 00000020H .rdata$sxdata           DATA
 0002:000071c0 000003e0H .rdata$zzzdbg           DATA
 0002:000075a0 00000004H .rtc$IAA                DATA
 0002:000075a4 00000004H .rtc$IZZ                DATA
 0002:000075a8 00000004H .rtc$TAA                DATA
 0002:000075ac 00000004H .rtc$TZZ                DATA
 0002:000075b0 00000004H .tls                    DATA
 0002:000075b4 00000004H .tls$                   DATA
 0002:000075b8 00000008H .tls$ZZZ                DATA
 0002:000075c0 00000624H .xdata$x                DATA
 0002:00007be4 00000004H ATL$__a                 DATA
 0002:00007be8 00000008H ATL$__z                 DATA
 0002:00007bf0 000000b0H .edata                  DATA
 0002:00007ca0 00000078H .idata$2                DATA
 0002:00007d18 00000014H .idata$3                DATA
 0002:00007d2c 000002fcH .idata$4                DATA
 0002:00008028 00000bc0H .idata$6                DATA
 0003:00000000 00000990H .data                   DATA
 0003:00000990 00000098H .data$r                 DATA
 0003:00000a28 00000b68H .bss                    DATA
 0004:00000000 00000220H .rsrc$01                DATA
 0004:00000220 000038c0H .rsrc$02                DATA

  Address         Publics by Value              Rva+Base       Lib:Object

 0000:00000000       ___guard_iat_count         00000000     <absolute>
 0000:00000000       ___guard_longjmp_count     00000000     <absolute>
 0000:00000000       ___guard_fids_count        00000000     <absolute>
 0000:00000000       ___guard_longjmp_table     00000000     <absolute>
 0000:00000000       ___hybrid_code_map_count   00000000     <absolute>
 0000:00000000       __except_list              00000000     <absolute>
 0000:00000000       ___guard_fids_table        00000000     <absolute>
 0000:00000000       ___hybrid_auxiliary_iat    00000000     <absolute>
 0000:00000000       ___dynamic_value_reloc_table 00000000     <absolute>
 0000:00000000       ___guard_iat_table         00000000     <absolute>
 0000:00000000       ___volatile_metadata       00000000     <absolute>
 0000:00000000       ___enclave_config          00000000     <absolute>
 0000:00000000       ___hybrid_code_map         00000000     <absolute>
 0000:00000008       ___safe_se_handler_count   00000008     <absolute>
 0000:0000002c       __tls_array                0000002c     <absolute>
 0000:00000100       ___guard_flags             00000100     <absolute>
 0000:00000000       ___ImageBase               10000000     <linker-defined>
 0001:00000080       ?DupWide@_CW@@AAEXXZ       10001080 f   CWString.obj
 0001:0000009c       ?cw_dup@@YGXPBDAAHAAPA_W1@Z 1000109c f   CWString.obj
 0001:0000010b       ?cw_memcpy@@YGHPA_WPBDH@Z  1000110b f   CWString.obj
 0001:00000137       ?cw_strcpy@@YAHPA_WPBD@Z   10001137 f   CWString.obj
 0001:0000014a       ?cw_strlen@@YAHPBD@Z       1000114a f   CWString.obj
 0001:00000163       ??0CAtlComModule@ATL@@QAE@XZ 10001163 f i OposVariant.obj
 0001:000001a8       ??0CAtlWinModule@ATL@@QAE@XZ 100011a8 f i OposVariant.obj
 0001:000001df       ??0OposDispParms@@QAE@PAVOposVariant@@H@Z 100011df f   OposVariant.obj
 0001:00000250       ??1OposDispParms@@QAE@XZ   10001250 f   OposVariant.obj
 0001:0000025e       ??A?$CSimpleArray@GV?$CSimpleArrayEqualHelper@G@ATL@@@ATL@@QAEAAGH@Z 1000125e f i OposVariant.obj
 0001:00000283       ??_Estringdispid@CComTypeInfoHolder@ATL@@QAEPAXI@Z 10001283 f i OposVariant.obj
 0001:000002ef       ?AtlWinModuleInit@ATL@@YGJPAU_ATL_WIN_MODULE70@1@@Z 100012ef f i OposVariant.obj
 0001:00000315       ?AtlWinModuleTerm@ATL@@YGJPAU_ATL_WIN_MODULE70@1@PAUHINSTANCE__@@@Z 10001315 f i OposVariant.obj
 0001:00000378       ?ChangeBSTR@OposVariant@@QAEXPAPA_WAAJ@Z 10001378 f   OposVariant.obj
 0001:000003b9       ?ChangeLONG@OposVariant@@QAEXPAJAAJ@Z 100013b9 f   OposVariant.obj
 0001:000003fa       ?GetLONG@OposVariant@@QAEJXZ 100013fa f   OposVariant.obj
 0001:00000415       ?Init@CComCriticalSection@ATL@@QAEJXZ 10001415 f i OposVariant.obj
 0001:0000043c       ?RemoveAll@?$CSimpleArray@PAUHINSTANCE__@@V?$CSimpleArrayEqualHelper@PAUHINSTANCE__@@@ATL@@@ATL@@QAEXXZ 1000143c f i atls:atlbase.obj
 0001:0000043c       ?RemoveAll@?$CSimpleArray@GV?$CSimpleArrayEqualHelper@G@ATL@@@ATL@@QAEXXZ 1000143c f i OposVariant.obj
 0001:00000459       ?SetBSTR@OposVariant@@QAEXPA_WAAJ@Z 10001459 f   OposVariant.obj
 0001:0000048d       ?SetBSTR_Copy@OposVariant@@QAEXPA_WAAJ@Z 1000148d f   OposVariant.obj
 0001:000004dd       ?SetBSTR_InOutPtr@OposVariant@@QAE_NPAPA_WAAJ@Z 100014dd f   OposVariant.obj
 0001:00000514       ?SetDispatch_Ptr@OposVariant@@QAEXPAUIDispatch@@AAJ@Z 10001514 f   OposVariant.obj
 0001:0000054f       ?SetLONG@OposVariant@@QAEXJ@Z 1000154f f   OposVariant.obj
 0001:00000571       ?SetLONG_Ptr@OposVariant@@QAEXPAJAAJ@Z 10001571 f   OposVariant.obj
 0001:000005a4       ?SetString@OposVariant@@QAEXPB_WAAJ@Z 100015a4 f   OposVariant.obj
 0001:000005ea       ?SetVARIANT_BOOL@OposVariant@@QAEXF@Z 100015ea f   OposVariant.obj
 0001:00000614       ?Term@CAtlComModule@ATL@@QAEXXZ 10001614 f i OposVariant.obj
 0001:0000065e       ?_AtlRaiseException@ATL@@YAXKK@Z 1000165e f i OposVariant.obj
 0001:00000673       ?SetObjectRects@?$IOleInPlaceObjectWindowlessImpl@VCOPOSItemDispenser@@@ATL@@UAGJPBUtagRECT@@0@Z 10001673 f i ItemDispenser.obj
 0001:00000693       ?ReactivateAndUndo@?$IOleInPlaceObjectWindowlessImpl@VCOPOSItemDispenser@@@ATL@@UAGJXZ 10001693 f i ItemDispenser.obj
 0001:0000069b       ?OnWindowMessage@?$IOleInPlaceObjectWindowlessImpl@VCOPOSItemDispenser@@@ATL@@UAGJIIJPAJ@Z 1000169b f i ItemDispenser.obj
 0001:0000070b       ?SODataDummy@COPOSItemDispenser@@MAGJJ@Z 1000170b f i ItemDispenser.obj
 0001:0000070b       ?ContextSensitiveHelp@?$IOleInPlaceObjectWindowlessImpl@VCOPOSItemDispenser@@@ATL@@UAGJH@Z 1000170b f i ItemDispenser.obj
 0001:0000070b       ?OnMnemonic@?$IOleControlImpl@VCOPOSItemDispenser@@@ATL@@UAGJPAUtagMSG@@@Z 1000170b f i ItemDispenser.obj
 0001:0000070b       ?ContextSensitiveHelp@?$IOleInPlaceActiveObjectImpl@VCOPOSItemDispenser@@@ATL@@UAGJH@Z 1000170b f i ItemDispenser.obj
 0001:0000070b       ?GetControlInfo@?$IOleControlImpl@VCOPOSItemDispenser@@@ATL@@UAGJPAUtagCONTROLINFO@@@Z 1000170b f i ItemDispenser.obj
 0001:0000070b       ?SetColorScheme@?$IOleObjectImpl@VCOPOSItemDispenser@@@ATL@@UAGJPAUtagLOGPALETTE@@@Z 1000170b f i ItemDispenser.obj
 0001:0000070b       ?QueryGetData@?$IDataObjectImpl@VCOPOSItemDispenser@@@ATL@@UAGJPAUtagFORMATETC@@@Z 1000170b f i ItemDispenser.obj
 0001:0000070b       ?Unfreeze@?$IViewObjectExImpl@VCOPOSItemDispenser@@@ATL@@UAGJK@Z 1000170b f i ItemDispenser.obj
 0001:0000070b       ?GetDropTarget@?$IOleInPlaceObjectWindowlessImpl@VCOPOSItemDispenser@@@ATL@@UAGJPAPAUIDropTarget@@@Z 1000170b f i ItemDispenser.obj
 0001:0000070b       ?SOOutputCompleteDummy@COPOSItemDispenser@@MAGJJ@Z 1000170b f i ItemDispenser.obj
 0001:00000713       ?EnumConnectionPoints@?$IConnectionPointContainerImpl@VCOPOSItemDispenser@@@ATL@@UAGJPAPAUIEnumConnectionPoints@@@Z 10001713 f i ItemDispenser.obj
 0001:0000088d       ?FindConnectionPoint@?$IConnectionPointContainerImpl@VCOPOSItemDispenser@@@ATL@@UAGJABU_GUID@@PAPAUIConnectionPoint@@@Z 1000188d f i ItemDispenser.obj
 0001:00000930       ?GetClassID@?$IPersistStorageImpl@VCOPOSItemDispenser@@@ATL@@UAGJPAU_GUID@@@Z 10001930 f i ItemDispenser.obj
 0001:00000930       ?GetUserClassID@?$IOleObjectImpl@VCOPOSItemDispenser@@@ATL@@UAGJPAU_GUID@@@Z 10001930 f i ItemDispenser.obj
 0001:00000930       ?GetClassID@?$IPersistStreamInitImpl@VCOPOSItemDispenser@@@ATL@@UAGJPAU_GUID@@@Z 10001930 f i ItemDispenser.obj
 0001:00000954       ?IsDirty@?$IPersistStorageImpl@VCOPOSItemDispenser@@@ATL@@UAGJXZ 10001954 f i ItemDispenser.obj
 0001:00000988       ?InitNew@?$IPersistStorageImpl@VCOPOSItemDispenser@@@ATL@@UAGJPAUIStorage@@@Z 10001988 f i ItemDispenser.obj
 0001:000009bc       ?Load@?$IPersistStorageImpl@VCOPOSItemDispenser@@@ATL@@UAGJPAUIStorage@@@Z 100019bc f i ItemDispenser.obj
 0001:00000a28       ?Save@?$IPersistStorageImpl@VCOPOSItemDispenser@@@ATL@@UAGJPAUIStorage@@H@Z 10001a28 f i ItemDispenser.obj
 0001:00000a9b       ?OnFrameWindowActivate@?$IOleInPlaceActiveObjectImpl@VCOPOSItemDispenser@@@ATL@@UAGJH@Z 10001a9b f i ItemDispenser.obj
 0001:00000a9b       ?EnableModeless@?$IOleInPlaceActiveObjectImpl@VCOPOSItemDispenser@@@ATL@@UAGJH@Z 10001a9b f i ItemDispenser.obj
 0001:00000a9b       ?OnAmbientPropertyChange@?$IOleControlImpl@VCOPOSItemDispenser@@@ATL@@UAGJJ@Z 10001a9b f i ItemDispenser.obj
 0001:00000a9b       ?SaveCompleted@?$IPersistStorageImpl@VCOPOSItemDispenser@@@ATL@@UAGJPAUIStorage@@@Z 10001a9b f i ItemDispenser.obj
 0001:00000aa0       ?HandsOffStorage@?$IPersistStorageImpl@VCOPOSItemDispenser@@@ATL@@UAGJXZ 10001aa0 f i ItemDispenser.obj
 0001:00000aa0       ?Release@CRegObject@ATL@@UAGKXZ 10001aa0 f i ItemDispenser.obj
 0001:00000aa0       ?IsUpToDate@?$IOleObjectImpl@VCOPOSItemDispenser@@@ATL@@UAGJXZ 10001aa0 f i ItemDispenser.obj
 0001:00000aa0       ?Update@?$IOleObjectImpl@VCOPOSItemDispenser@@@ATL@@UAGJXZ 10001aa0 f i ItemDispenser.obj
 0001:00000aa5       ?GetPages@?$ISpecifyPropertyPagesImpl@VCOPOSItemDispenser@@@ATL@@UAGJPAUtagCAUUID@@@Z 10001aa5 f i ItemDispenser.obj
 0001:00000abc       ?QuickActivate@?$IQuickActivateImpl@VCOPOSItemDispenser@@@ATL@@UAGJPAUtagQACONTAINER@@PAUtagQACONTROL@@@Z 10001abc f i ItemDispenser.obj
 0001:00000adf       ?SetContentExtent@?$IQuickActivateImpl@VCOPOSItemDispenser@@@ATL@@UAGJPAUtagSIZE@@@Z 10001adf f i ItemDispenser.obj
 0001:00000b0b       ?GetContentExtent@?$IQuickActivateImpl@VCOPOSItemDispenser@@@ATL@@UAGJPAUtagSIZE@@@Z 10001b0b f i ItemDispenser.obj
 0001:00000b2b       ?GetData@?$IDataObjectImpl@VCOPOSItemDispenser@@@ATL@@UAGJPAUtagFORMATETC@@PAUtagSTGMEDIUM@@@Z 10001b2b f i ItemDispenser.obj
 0001:00000b4e       ?GetDataHere@?$IDataObjectImpl@VCOPOSItemDispenser@@@ATL@@UAGJPAUtagFORMATETC@@PAUtagSTGMEDIUM@@@Z 10001b4e f i ItemDispenser.obj
 0001:00000b4e       ?EnumFormatEtc@?$IDataObjectImpl@VCOPOSItemDispenser@@@ATL@@UAGJKPAPAUIEnumFORMATETC@@@Z 10001b4e f i ItemDispenser.obj
 0001:00000b4e       ?GetRect@?$IViewObjectExImpl@VCOPOSItemDispenser@@@ATL@@UAGJKPAU_RECTL@@@Z 10001b4e f i ItemDispenser.obj
 0001:00000b4e       ?GetClipboardData@?$IOleObjectImpl@VCOPOSItemDispenser@@@ATL@@UAGJKPAPAUIDataObject@@@Z 10001b4e f i ItemDispenser.obj
 0001:00000b4e       ?GetCanonicalFormatEtc@?$IDataObjectImpl@VCOPOSItemDispenser@@@ATL@@UAGJPAUtagFORMATETC@@0@Z 10001b4e f i ItemDispenser.obj
 0001:00000b4e       ?SetMoniker@?$IOleObjectImpl@VCOPOSItemDispenser@@@ATL@@UAGJKPAUIMoniker@@@Z 10001b4e f i ItemDispenser.obj
 0001:00000b4e       ?QueryInterface@CRegObject@ATL@@UAGJABU_GUID@@PAPAX@Z 10001b4e f i ItemDispenser.obj
 0001:00000b56       ?InitFromData@?$IOleObjectImpl@VCOPOSItemDispenser@@@ATL@@UAGJPAUIDataObject@@HK@Z 10001b56 f i ItemDispenser.obj
 0001:00000b56       ?SetData@?$IDataObjectImpl@VCOPOSItemDispenser@@@ATL@@UAGJPAUtagFORMATETC@@PAUtagSTGMEDIUM@@H@Z 10001b56 f i ItemDispenser.obj
 0001:00000b56       ?GetMoniker@?$IOleObjectImpl@VCOPOSItemDispenser@@@ATL@@UAGJKKPAPAUIMoniker@@@Z 10001b56 f i ItemDispenser.obj
 0001:00000b5e       ?DAdvise@?$IDataObjectImpl@VCOPOSItemDispenser@@@ATL@@UAGJPAUtagFORMATETC@@KPAUIAdviseSink@@PAK@Z 10001b5e f i ItemDispenser.obj
 0001:00000b9f       ?DUnadvise@?$IDataObjectImpl@VCOPOSItemDispenser@@@ATL@@UAGJK@Z 10001b9f f i ItemDispenser.obj
 0001:00000bcd       ?EnumDAdvise@?$IDataObjectImpl@VCOPOSItemDispenser@@@ATL@@UAGJPAPAUIEnumSTATDATA@@@Z 10001bcd f i ItemDispenser.obj
 0001:00000c0c       ?GetClassInfoW@?$IProvideClassInfo2Impl@$1?CLSID_OPOSItemDispenser@@3U_GUID@@B$1?DIID__IOPOSItemDispenserEvents@@3U2@B$1?LIBID_OposItemDispenser_CCO@@3U2@B$00$0A@VCComTypeInfoHolder@ATL@@@ATL@@UAGJPAPAUITypeInfo@@@Z 10001c0c f i ItemDispenser.obj
 0001:00000c22       ?GetGUID@?$IProvideClassInfo2Impl@$1?CLSID_OPOSItemDispenser@@3U_GUID@@B$1?DIID__IOPOSItemDispenserEvents@@3U2@B$1?LIBID_OposItemDispenser_CCO@@3U2@B$00$0A@VCComTypeInfoHolder@ATL@@@ATL@@UAGJKPAU_GUID@@@Z 10001c22 f i ItemDispenser.obj
 0001:00000c60       ?FAccessAllowed@?$IObjectSafetyImpl@VCOPOSItemDispenser@@$02@ATL@@MAEHXZ 10001c60 f i ItemDispenser.obj
 0001:00000c60       __get_startup_argv_mode    10001c60 f i LIBCMT:argv_mode.obj
 0001:00000c64       ?GetInterfaceSafetyOptions@?$IObjectSafetyImpl@VCOPOSItemDispenser@@$02@ATL@@UAGJABU_GUID@@PAK1@Z 10001c64 f i ItemDispenser.obj
 0001:00000cd8       ?SetInterfaceSafetyOptions@?$IObjectSafetyImpl@VCOPOSItemDispenser@@$02@ATL@@UAGJABU_GUID@@KK@Z 10001cd8 f i ItemDispenser.obj
 0001:00000d52       ?_LocCPQueryInterface@?$IConnectionPointImpl@VCOPOSItemDispenser@@$1?IID_IPropertyNotifySink@@3U_GUID@@BVCComDynamicUnkArray@ATL@@@ATL@@UAGJABU_GUID@@PAPAX@Z 10001d52 f i ItemDispenser.obj
 0001:00000d52       ?_LocCPQueryInterface@?$IConnectionPointImpl@VCOPOSItemDispenser@@$1?DIID__IOPOSItemDispenserEvents@@3U_GUID@@BVCComDynamicUnkArray@ATL@@@ATL@@UAGJABU_GUID@@PAPAX@Z 10001d52 f i ItemDispenser.obj
 0001:00000d9f       ?GetConnectionInterface@?$IConnectionPointImpl@VCOPOSItemDispenser@@$1?IID_IPropertyNotifySink@@3U_GUID@@BVCComDynamicUnkArray@ATL@@@ATL@@UAGJPAU_GUID@@@Z 10001d9f f i ItemDispenser.obj
 0001:00000dc3       ?GetConnectionPointContainer@?$IConnectionPointImpl@VCOPOSItemDispenser@@$1?IID_IPropertyNotifySink@@3U_GUID@@BVCComDynamicUnkArray@ATL@@@ATL@@UAGJPAPAUIConnectionPointContainer@@@Z 10001dc3 f i ItemDispenser.obj
 0001:00000de6       ?Advise@?$IConnectionPointImpl@VCOPOSItemDispenser@@$1?DIID__IOPOSItemDispenserEvents@@3U_GUID@@BVCComDynamicUnkArray@ATL@@@ATL@@UAGJPAUIUnknown@@PAK@Z 10001de6 f i ItemDispenser.obj
 0001:00000de6       ?Advise@?$IConnectionPointImpl@VCOPOSItemDispenser@@$1?IID_IPropertyNotifySink@@3U_GUID@@BVCComDynamicUnkArray@ATL@@@ATL@@UAGJPAUIUnknown@@PAK@Z 10001de6 f i ItemDispenser.obj
 0001:00000e87       ?Unadvise@?$IConnectionPointImpl@VCOPOSItemDispenser@@$1?DIID__IOPOSItemDispenserEvents@@3U_GUID@@BVCComDynamicUnkArray@ATL@@@ATL@@UAGJK@Z 10001e87 f i ItemDispenser.obj
 0001:00000e87       ?Unadvise@?$IConnectionPointImpl@VCOPOSItemDispenser@@$1?IID_IPropertyNotifySink@@3U_GUID@@BVCComDynamicUnkArray@ATL@@@ATL@@UAGJK@Z 10001e87 f i ItemDispenser.obj
 0001:00000ec7       ?EnumConnections@?$IConnectionPointImpl@VCOPOSItemDispenser@@$1?DIID__IOPOSItemDispenserEvents@@3U_GUID@@BVCComDynamicUnkArray@ATL@@@ATL@@UAGJPAPAUIEnumConnections@@@Z 10001ec7 f i ItemDispenser.obj
 0001:00000ec7       ?EnumConnections@?$IConnectionPointImpl@VCOPOSItemDispenser@@$1?IID_IPropertyNotifySink@@3U_GUID@@BVCComDynamicUnkArray@ATL@@@ATL@@UAGJPAPAUIEnumConnections@@@Z 10001ec7 f i ItemDispenser.obj
 0001:00000fcd       ?GetCategoryMap@CComObjectRootBase@ATL@@SAPBU_ATL_CATMAP_ENTRY@2@XZ 10001fcd f i ItemDispenser.obj
 0001:00000fcd       ?GetObjectDescription@?$CComCoClass@VCOPOSItemDispenser@@$1?CLSID_OPOSItemDispenser@@3U_GUID@@B@ATL@@SGPB_WXZ 10001fcd f i ItemDispenser.obj
 0001:00000fd0       ?GetConnectionInterface@?$IConnectionPointImpl@VCOPOSItemDispenser@@$1?DIID__IOPOSItemDispenserEvents@@3U_GUID@@BVCComDynamicUnkArray@ATL@@@ATL@@UAGJPAU_GUID@@@Z 10001fd0 f i ItemDispenser.obj
 0001:00000ff4       ?GetConnectionPointContainer@?$IConnectionPointImpl@VCOPOSItemDispenser@@$1?DIID__IOPOSItemDispenserEvents@@3U_GUID@@BVCComDynamicUnkArray@ATL@@@ATL@@UAGJPAPAUIConnectionPointContainer@@@Z 10001ff4 f i ItemDispenser.obj
 0001:00001017       ?UpdateRegistry@COPOSItemDispenser@@SGJH@Z 10002017 f i ItemDispenser.obj
 0001:0000102f       ?ProcessWindowMessage@COPOSItemDispenser@@UAEHPAUHWND__@@IIJAAJK@Z 1000202f f i ItemDispenser.obj
 0001:00001078       ?SODirectIO@COPOSItemDispenser@@MAGJJPAJPAPA_W@Z 10002078 f i ItemDispenser.obj
 0001:000010c1       ?Freeze@?$IViewObjectExImpl@VCOPOSItemDispenser@@@ATL@@UAGJKJPAXPAK@Z 100020c1 f i ItemDispenser.obj
 0001:000010c1       ?SOErrorDummy@COPOSItemDispenser@@MAGJJJJPAJ@Z 100020c1 f i ItemDispenser.obj
 0001:000010c9       ?SOStatusUpdate@COPOSItemDispenser@@MAGJJ@Z 100020c9 f i ItemDispenser.obj
 0001:00001102       ?CreateInstance@?$CComCreator@V?$CComObjectCached@VCComClassFactory@ATL@@@ATL@@@ATL@@SGJPAXABU_GUID@@PAPAX@Z 10002102 f i ItemDispenser.obj
 0001:00001195       ?CreateInstance@?$CComCreator2@V?$CComCreator@V?$CComObject@VCOPOSItemDispenser@@@ATL@@@ATL@@V?$CComCreator@V?$CComAggObject@VCOPOSItemDispenser@@@ATL@@@2@@ATL@@SGJPAXABU_GUID@@PAPAX@Z 10002195 f i ItemDispenser.obj
 0001:000011b5       ?AddRef@CRegObject@ATL@@UAGKXZ 100021b5 f i ItemDispenser.obj
 0001:000011bb       ?AddReplacement@CRegObject@ATL@@UAGJPB_W0@Z 100021bb f i ItemDispenser.obj
 0001:000011f4       ?ClearReplacements@CRegObject@ATL@@UAGJXZ 100021f4 f i ItemDispenser.obj
 0001:00001206       ??_ECRegObject@ATL@@UAEPAXI@Z 10002206 f i ItemDispenser.obj
 0001:00001206       ??_GCRegObject@ATL@@UAEPAXI@Z 10002206 f i ItemDispenser.obj
 0001:00001228       ?Next@?$CComEnumImpl@UIEnumConnectionPoints@@$1?_GUID_b196b285_bab4_101a_b69c_00aa00341d07@@3U__s_GUID@@BPAUIConnectionPoint@@V?$_CopyInterface@UIConnectionPoint@@@ATL@@@ATL@@UAGJKPAPAUIConnectionPoint@@PAK@Z 10002228 f i ItemDispenser.obj
 0001:000012ff       ?Skip@?$CComEnumImpl@UIEnumConnectionPoints@@$1?_GUID_b196b285_bab4_101a_b69c_00aa00341d07@@3U__s_GUID@@BPAUIConnectionPoint@@V?$_CopyInterface@UIConnectionPoint@@@ATL@@@ATL@@UAGJK@Z 100022ff f i ItemDispenser.obj
 0001:0000132c       ?Reset@?$CComEnumImpl@UIEnumConnectionPoints@@$1?_GUID_b196b285_bab4_101a_b69c_00aa00341d07@@3U__s_GUID@@BPAUIConnectionPoint@@V?$_CopyInterface@UIConnectionPoint@@@ATL@@@ATL@@UAGJXZ 1000232c f i ItemDispenser.obj
 0001:0000132c       ?Reset@?$CComEnumImpl@UIEnumConnections@@$1?_GUID_b196b287_bab4_101a_b69c_00aa00341d07@@3U__s_GUID@@BUtagCONNECTDATA@@V?$_Copy@UtagCONNECTDATA@@@ATL@@@ATL@@UAGJXZ 1000232c f i ItemDispenser.obj
 0001:0000133e       ?Clone@?$CComEnumImpl@UIEnumConnectionPoints@@$1?_GUID_b196b285_bab4_101a_b69c_00aa00341d07@@3U__s_GUID@@BPAUIConnectionPoint@@V?$_CopyInterface@UIConnectionPoint@@@ATL@@@ATL@@UAGJPAPAUIEnumConnectionPoints@@@Z 1000233e f i ItemDispenser.obj
 0001:0000141d       ?AddRef@?$CComObject@V?$CComEnum@UIEnumConnectionPoints@@$1?_GUID_b196b285_bab4_101a_b69c_00aa00341d07@@3U__s_GUID@@BPAUIConnectionPoint@@V?$_CopyInterface@UIConnectionPoint@@@ATL@@VCComSingleThreadModel@6@@ATL@@@ATL@@UAGKXZ 1000241d f i ItemDispenser.obj
 0001:0000141d       ?AddRef@?$CComObject@V?$CComEnum@UIEnumConnections@@$1?_GUID_b196b287_bab4_101a_b69c_00aa00341d07@@3U__s_GUID@@BUtagCONNECTDATA@@V?$_Copy@UtagCONNECTDATA@@@ATL@@VCComSingleThreadModel@6@@ATL@@@ATL@@UAGKXZ 1000241d f i ItemDispenser.obj
 0001:0000142e       ?Release@?$CComObject@V?$CComEnum@UIEnumConnectionPoints@@$1?_GUID_b196b285_bab4_101a_b69c_00aa00341d07@@3U__s_GUID@@BPAUIConnectionPoint@@V?$_CopyInterface@UIConnectionPoint@@@ATL@@VCComSingleThreadModel@6@@ATL@@@ATL@@UAGKXZ 1000242e f i ItemDispenser.obj
 0001:0000142e       ?Release@?$CComObject@V?$CComEnum@UIEnumConnections@@$1?_GUID_b196b287_bab4_101a_b69c_00aa00341d07@@3U__s_GUID@@BUtagCONNECTDATA@@V?$_Copy@UtagCONNECTDATA@@@ATL@@VCComSingleThreadModel@6@@ATL@@@ATL@@UAGKXZ 1000242e f i ItemDispenser.obj
 0001:0000146a       ?QueryInterface@?$CComObject@V?$CComEnum@UIEnumConnectionPoints@@$1?_GUID_b196b285_bab4_101a_b69c_00aa00341d07@@3U__s_GUID@@BPAUIConnectionPoint@@V?$_CopyInterface@UIConnectionPoint@@@ATL@@VCComSingleThreadModel@6@@ATL@@@ATL@@UAGJABU_GUID@@PAPAX@Z 1000246a f i ItemDispenser.obj
 0001:00001484       ??_E?$CComObject@V?$CComEnum@UIEnumConnectionPoints@@$1?_GUID_b196b285_bab4_101a_b69c_00aa00341d07@@3U__s_GUID@@BPAUIConnectionPoint@@V?$_CopyInterface@UIConnectionPoint@@@ATL@@VCComSingleThreadModel@6@@ATL@@@ATL@@UAEPAXI@Z 10002484 f i ItemDispenser.obj
 0001:00001484       ??_G?$CComObject@V?$CComEnum@UIEnumConnectionPoints@@$1?_GUID_b196b285_bab4_101a_b69c_00aa00341d07@@3U__s_GUID@@BPAUIConnectionPoint@@V?$_CopyInterface@UIConnectionPoint@@@ATL@@VCComSingleThreadModel@6@@ATL@@@ATL@@UAEPAXI@Z 10002484 f i ItemDispenser.obj
 0001:000014a6       ?AddRef@?$CComObjectCached@VCComClassFactory@ATL@@@ATL@@UAGKXZ 100024a6 f i ItemDispenser.obj
 0001:000014cd       ?Release@?$CComObjectCached@VCComClassFactory@ATL@@@ATL@@UAGKXZ 100024cd f i ItemDispenser.obj
 0001:00001503       ?QueryInterface@?$CComObjectCached@VCComClassFactory@ATL@@@ATL@@UAGJABU_GUID@@PAPAX@Z 10002503 f i ItemDispenser.obj
 0001:0000151d       ??_G?$CComObjectCached@VCComClassFactory@ATL@@@ATL@@UAEPAXI@Z 1000251d f i ItemDispenser.obj
 0001:0000151d       ??_E?$CComObjectCached@VCComClassFactory@ATL@@@ATL@@UAEPAXI@Z 1000251d f i ItemDispenser.obj
 0001:0000153f       ?AddRef@?$CComAggObject@VCOPOSItemDispenser@@@ATL@@UAGKXZ 1000253f f i ItemDispenser.obj
 0001:00001550       ?Release@?$CComAggObject@VCOPOSItemDispenser@@@ATL@@UAGKXZ 10002550 f i ItemDispenser.obj
 0001:0000158c       ?QueryInterface@?$CComAggObject@VCOPOSItemDispenser@@@ATL@@UAGJABU_GUID@@PAPAX@Z 1000258c f i ItemDispenser.obj
 0001:000015db       ?AddRef@?$CComContainedObject@VCOPOSItemDispenser@@@ATL@@UAGKXZ 100025db f i ItemDispenser.obj
 0001:000015f1       ?Release@?$CComContainedObject@VCOPOSItemDispenser@@@ATL@@UAGKXZ 100025f1 f i ItemDispenser.obj
 0001:00001607       ?QueryInterface@?$CComContainedObject@VCOPOSItemDispenser@@@ATL@@UAGJABU_GUID@@PAPAX@Z 10002607 f i ItemDispenser.obj
 0001:00001622       ??_E?$CComAggObject@VCOPOSItemDispenser@@@ATL@@UAEPAXI@Z 10002622 f i ItemDispenser.obj
 0001:00001622       ??_G?$CComAggObject@VCOPOSItemDispenser@@@ATL@@UAEPAXI@Z 10002622 f i ItemDispenser.obj
 0001:00001647       ?AddRef@?$CComObject@VCOPOSItemDispenser@@@ATL@@UAGKXZ 10002647 f i ItemDispenser.obj
 0001:0000165e       ?Release@?$CComObject@VCOPOSItemDispenser@@@ATL@@UAGKXZ 1000265e f i ItemDispenser.obj
 0001:000016a0       ?QueryInterface@?$CComObject@VCOPOSItemDispenser@@@ATL@@UAGJABU_GUID@@PAPAX@Z 100026a0 f i ItemDispenser.obj
 0001:000016ba       ?OnFinalMessage@?$CWindowImplBaseT@VCWindow@ATL@@V?$CWinTraits@$0FGAAAAAA@$0A@@2@@ATL@@UAEXPAUHWND__@@@Z 100026ba f i ItemDispenser.obj
 0001:000016ba       ?ObjectMain@CComObjectRootBase@ATL@@SGX_N@Z 100026ba f i ItemDispenser.obj
 0001:000016bd       ?OnDrawAdvanced@CComControlBase@ATL@@UAEJAAUATL_DRAWINFO@@@Z 100026bd f i ItemDispenser.obj
 0001:000017ac       ?CreateInstance@CComClassFactory@ATL@@UAGJPAUIUnknown@@ABU_GUID@@PAPAX@Z 100027ac f i ItemDispenser.obj
 0001:000017ea       ?LockServer@CComClassFactory@ATL@@UAGJH@Z 100027ea f i ItemDispenser.obj
 0001:00001809       ??_ECComClassFactory@ATL@@UAEPAXI@Z 10002809 f i ItemDispenser.obj
 0001:00001809       ??_GCComClassFactory@ATL@@UAEPAXI@Z 10002809 f i ItemDispenser.obj
 0001:00001834       ?Next@?$CComEnumImpl@UIEnumConnections@@$1?_GUID_b196b287_bab4_101a_b69c_00aa00341d07@@3U__s_GUID@@BUtagCONNECTDATA@@V?$_Copy@UtagCONNECTDATA@@@ATL@@@ATL@@UAGJKPAUtagCONNECTDATA@@PAK@Z 10002834 f i ItemDispenser.obj
 0001:0000190b       ?Skip@?$CComEnumImpl@UIEnumConnections@@$1?_GUID_b196b287_bab4_101a_b69c_00aa00341d07@@3U__s_GUID@@BUtagCONNECTDATA@@V?$_Copy@UtagCONNECTDATA@@@ATL@@@ATL@@UAGJK@Z 1000290b f i ItemDispenser.obj
 0001:00001938       ?Clone@?$CComEnumImpl@UIEnumConnections@@$1?_GUID_b196b287_bab4_101a_b69c_00aa00341d07@@3U__s_GUID@@BUtagCONNECTDATA@@V?$_Copy@UtagCONNECTDATA@@@ATL@@@ATL@@UAGJPAPAUIEnumConnections@@@Z 10002938 f i ItemDispenser.obj
 0001:00001a17       ?QueryInterface@?$CComObject@V?$CComEnum@UIEnumConnections@@$1?_GUID_b196b287_bab4_101a_b69c_00aa00341d07@@3U__s_GUID@@BUtagCONNECTDATA@@V?$_Copy@UtagCONNECTDATA@@@ATL@@VCComSingleThreadModel@6@@ATL@@@ATL@@UAGJABU_GUID@@PAPAX@Z 10002a17 f i ItemDispenser.obj
 0001:00001a31       ??_E?$CComObject@V?$CComEnum@UIEnumConnections@@$1?_GUID_b196b287_bab4_101a_b69c_00aa00341d07@@3U__s_GUID@@BUtagCONNECTDATA@@V?$_Copy@UtagCONNECTDATA@@@ATL@@VCComSingleThreadModel@6@@ATL@@@ATL@@UAEPAXI@Z 10002a31 f i ItemDispenser.obj
 0001:00001a31       ??_G?$CComObject@V?$CComEnum@UIEnumConnections@@$1?_GUID_b196b287_bab4_101a_b69c_00aa00341d07@@3U__s_GUID@@BUtagCONNECTDATA@@V?$_Copy@UtagCONNECTDATA@@@ATL@@VCComSingleThreadModel@6@@ATL@@@ATL@@UAEPAXI@Z 10002a31 f i ItemDispenser.obj
 0001:00001a53       ??_E?$CComObject@VCOPOSItemDispenser@@@ATL@@W3AEPAXI@Z 10002a53 f i ItemDispenser.obj
 0001:00001a5b       ??_E?$CComObject@VCOPOSItemDispenser@@@ATL@@WEM@AEPAXI@Z 10002a5b f i ItemDispenser.obj
 0001:00001a63       ?QueryInterface@?$CComObject@VCOPOSItemDispenser@@@ATL@@WHA@AGJABU_GUID@@PAPAX@Z 10002a63 f i ItemDispenser.obj
 0001:00001a6d       ?AddRef@?$CComObject@VCOPOSItemDispenser@@@ATL@@WHA@AGKXZ 10002a6d f i ItemDispenser.obj
 0001:00001a77       ?Release@?$CComObject@VCOPOSItemDispenser@@@ATL@@WHA@AGKXZ 10002a77 f i ItemDispenser.obj
 0001:00001a81       ?QueryInterface@?$CComObject@VCOPOSItemDispenser@@@ATL@@WHE@AGJABU_GUID@@PAPAX@Z 10002a81 f i ItemDispenser.obj
 0001:00001a8b       ?AddRef@?$CComObject@VCOPOSItemDispenser@@@ATL@@WHE@AGKXZ 10002a8b f i ItemDispenser.obj
 0001:00001a95       ?Release@?$CComObject@VCOPOSItemDispenser@@@ATL@@WHE@AGKXZ 10002a95 f i ItemDispenser.obj
 0001:00001a9f       ?QueryInterface@?$CComObject@VCOPOSItemDispenser@@@ATL@@WHI@AGJABU_GUID@@PAPAX@Z 10002a9f f i ItemDispenser.obj
 0001:00001aa9       ?AddRef@?$CComObject@VCOPOSItemDispenser@@@ATL@@WHI@AGKXZ 10002aa9 f i ItemDispenser.obj
 0001:00001ab3       ?Release@?$CComObject@VCOPOSItemDispenser@@@ATL@@WHI@AGKXZ 10002ab3 f i ItemDispenser.obj
 0001:00001abd       ?QueryInterface@?$CComObject@VCOPOSItemDispenser@@@ATL@@WHM@AGJABU_GUID@@PAPAX@Z 10002abd f i ItemDispenser.obj
 0001:00001ac7       ?AddRef@?$CComObject@VCOPOSItemDispenser@@@ATL@@WHM@AGKXZ 10002ac7 f i ItemDispenser.obj
 0001:00001ad1       ?Release@?$CComObject@VCOPOSItemDispenser@@@ATL@@WHM@AGKXZ 10002ad1 f i ItemDispenser.obj
 0001:00001adb       ?QueryInterface@?$CComObject@VCOPOSItemDispenser@@@ATL@@WIA@AGJABU_GUID@@PAPAX@Z 10002adb f i ItemDispenser.obj
 0001:00001ae8       ?AddRef@?$CComObject@VCOPOSItemDispenser@@@ATL@@WIA@AGKXZ 10002ae8 f i ItemDispenser.obj
 0001:00001af5       ?Release@?$CComObject@VCOPOSItemDispenser@@@ATL@@WIA@AGKXZ 10002af5 f i ItemDispenser.obj
 0001:00001b02       ?QueryInterface@?$CComObject@VCOPOSItemDispenser@@@ATL@@WIE@AGJABU_GUID@@PAPAX@Z 10002b02 f i ItemDispenser.obj
 0001:00001b0f       ?AddRef@?$CComObject@VCOPOSItemDispenser@@@ATL@@WIE@AGKXZ 10002b0f f i ItemDispenser.obj
 0001:00001b1c       ?Release@?$CComObject@VCOPOSItemDispenser@@@ATL@@WIE@AGKXZ 10002b1c f i ItemDispenser.obj
 0001:00001b29       ?QueryInterface@?$CComObject@VCOPOSItemDispenser@@@ATL@@WII@AGJABU_GUID@@PAPAX@Z 10002b29 f i ItemDispenser.obj
 0001:00001b36       ?AddRef@?$CComObject@VCOPOSItemDispenser@@@ATL@@WII@AGKXZ 10002b36 f i ItemDispenser.obj
 0001:00001b43       ?Release@?$CComObject@VCOPOSItemDispenser@@@ATL@@WII@AGKXZ 10002b43 f i ItemDispenser.obj
 0001:00001b50       ?QueryInterface@?$CComObject@VCOPOSItemDispenser@@@ATL@@WIM@AGJABU_GUID@@PAPAX@Z 10002b50 f i ItemDispenser.obj
 0001:00001b5d       ?AddRef@?$CComObject@VCOPOSItemDispenser@@@ATL@@WIM@AGKXZ 10002b5d f i ItemDispenser.obj
 0001:00001b6a       ?Release@?$CComObject@VCOPOSItemDispenser@@@ATL@@WIM@AGKXZ 10002b6a f i ItemDispenser.obj
 0001:00001b77       ?QueryInterface@?$CComObject@VCOPOSItemDispenser@@@ATL@@WJA@AGJABU_GUID@@PAPAX@Z 10002b77 f i ItemDispenser.obj
 0001:00001b84       ?AddRef@?$CComObject@VCOPOSItemDispenser@@@ATL@@WJA@AGKXZ 10002b84 f i ItemDispenser.obj
 0001:00001b91       ?Release@?$CComObject@VCOPOSItemDispenser@@@ATL@@WJA@AGKXZ 10002b91 f i ItemDispenser.obj
 0001:00001b9e       ?QueryInterface@?$CComObject@VCOPOSItemDispenser@@@ATL@@WJE@AGJABU_GUID@@PAPAX@Z 10002b9e f i ItemDispenser.obj
 0001:00001bab       ?AddRef@?$CComObject@VCOPOSItemDispenser@@@ATL@@WJE@AGKXZ 10002bab f i ItemDispenser.obj
 0001:00001bb8       ?Release@?$CComObject@VCOPOSItemDispenser@@@ATL@@WJE@AGKXZ 10002bb8 f i ItemDispenser.obj
 0001:00001bc5       ?QueryInterface@?$CComObject@VCOPOSItemDispenser@@@ATL@@WJI@AGJABU_GUID@@PAPAX@Z 10002bc5 f i ItemDispenser.obj
 0001:00001bd2       ?AddRef@?$CComObject@VCOPOSItemDispenser@@@ATL@@WJI@AGKXZ 10002bd2 f i ItemDispenser.obj
 0001:00001bdf       ?Release@?$CComObject@VCOPOSItemDispenser@@@ATL@@WJI@AGKXZ 10002bdf f i ItemDispenser.obj
 0001:00001bec       ?QueryInterface@?$CComObject@VCOPOSItemDispenser@@@ATL@@WJM@AGJABU_GUID@@PAPAX@Z 10002bec f i ItemDispenser.obj
 0001:00001bf9       ?AddRef@?$CComObject@VCOPOSItemDispenser@@@ATL@@WJM@AGKXZ 10002bf9 f i ItemDispenser.obj
 0001:00001c06       ?Release@?$CComObject@VCOPOSItemDispenser@@@ATL@@WJM@AGKXZ 10002c06 f i ItemDispenser.obj
 0001:00001c13       ?QueryInterface@?$CComObject@VCOPOSItemDispenser@@@ATL@@WKA@AGJABU_GUID@@PAPAX@Z 10002c13 f i ItemDispenser.obj
 0001:00001c20       ?AddRef@?$CComObject@VCOPOSItemDispenser@@@ATL@@WKA@AGKXZ 10002c20 f i ItemDispenser.obj
 0001:00001c2d       ?Release@?$CComObject@VCOPOSItemDispenser@@@ATL@@WKA@AGKXZ 10002c2d f i ItemDispenser.obj
 0001:00001c3a       ?AddRef@?$CComObject@VCOPOSItemDispenser@@@ATL@@WKI@AGKXZ 10002c3a f i ItemDispenser.obj
 0001:00001c47       ?Release@?$CComObject@VCOPOSItemDispenser@@@ATL@@WKI@AGKXZ 10002c47 f i ItemDispenser.obj
 0001:00001c54       ?AddRef@?$CComObject@VCOPOSItemDispenser@@@ATL@@WLE@AGKXZ 10002c54 f i ItemDispenser.obj
 0001:00001c61       ?Release@?$CComObject@VCOPOSItemDispenser@@@ATL@@WLE@AGKXZ 10002c61 f i ItemDispenser.obj
 0001:00001c6e       ??_E?$CComContainedObject@VCOPOSItemDispenser@@@ATL@@W3AEPAXI@Z 10002c6e f i ItemDispenser.obj
 0001:00001c76       ??_E?$CComContainedObject@VCOPOSItemDispenser@@@ATL@@WEM@AEPAXI@Z 10002c76 f i ItemDispenser.obj
 0001:00001c7e       ?QueryInterface@?$CComContainedObject@VCOPOSItemDispenser@@@ATL@@WHA@AGJABU_GUID@@PAPAX@Z 10002c7e f i ItemDispenser.obj
 0001:00001c88       ?AddRef@?$CComContainedObject@VCOPOSItemDispenser@@@ATL@@WHA@AGKXZ 10002c88 f i ItemDispenser.obj
 0001:00001c92       ?Release@?$CComContainedObject@VCOPOSItemDispenser@@@ATL@@WHA@AGKXZ 10002c92 f i ItemDispenser.obj
 0001:00001c9c       ?QueryInterface@?$CComContainedObject@VCOPOSItemDispenser@@@ATL@@WHE@AGJABU_GUID@@PAPAX@Z 10002c9c f i ItemDispenser.obj
 0001:00001ca6       ?AddRef@?$CComContainedObject@VCOPOSItemDispenser@@@ATL@@WHE@AGKXZ 10002ca6 f i ItemDispenser.obj
 0001:00001cb0       ?Release@?$CComContainedObject@VCOPOSItemDispenser@@@ATL@@WHE@AGKXZ 10002cb0 f i ItemDispenser.obj
 0001:00001cba       ?QueryInterface@?$CComContainedObject@VCOPOSItemDispenser@@@ATL@@WHI@AGJABU_GUID@@PAPAX@Z 10002cba f i ItemDispenser.obj
 0001:00001cc4       ?AddRef@?$CComContainedObject@VCOPOSItemDispenser@@@ATL@@WHI@AGKXZ 10002cc4 f i ItemDispenser.obj
 0001:00001cce       ?Release@?$CComContainedObject@VCOPOSItemDispenser@@@ATL@@WHI@AGKXZ 10002cce f i ItemDispenser.obj
 0001:00001cd8       ?QueryInterface@?$CComContainedObject@VCOPOSItemDispenser@@@ATL@@WHM@AGJABU_GUID@@PAPAX@Z 10002cd8 f i ItemDispenser.obj
 0001:00001ce2       ?AddRef@?$CComContainedObject@VCOPOSItemDispenser@@@ATL@@WHM@AGKXZ 10002ce2 f i ItemDispenser.obj
 0001:00001cec       ?Release@?$CComContainedObject@VCOPOSItemDispenser@@@ATL@@WHM@AGKXZ 10002cec f i ItemDispenser.obj
 0001:00001cf6       ?QueryInterface@?$CComContainedObject@VCOPOSItemDispenser@@@ATL@@WIA@AGJABU_GUID@@PAPAX@Z 10002cf6 f i ItemDispenser.obj
 0001:00001d03       ?AddRef@?$CComContainedObject@VCOPOSItemDispenser@@@ATL@@WIA@AGKXZ 10002d03 f i ItemDispenser.obj
 0001:00001d10       ?Release@?$CComContainedObject@VCOPOSItemDispenser@@@ATL@@WIA@AGKXZ 10002d10 f i ItemDispenser.obj
 0001:00001d1d       ?QueryInterface@?$CComContainedObject@VCOPOSItemDispenser@@@ATL@@WIE@AGJABU_GUID@@PAPAX@Z 10002d1d f i ItemDispenser.obj
 0001:00001d2a       ?AddRef@?$CComContainedObject@VCOPOSItemDispenser@@@ATL@@WIE@AGKXZ 10002d2a f i ItemDispenser.obj
 0001:00001d37       ?Release@?$CComContainedObject@VCOPOSItemDispenser@@@ATL@@WIE@AGKXZ 10002d37 f i ItemDispenser.obj
 0001:00001d44       ?QueryInterface@?$CComContainedObject@VCOPOSItemDispenser@@@ATL@@WII@AGJABU_GUID@@PAPAX@Z 10002d44 f i ItemDispenser.obj
 0001:00001d51       ?AddRef@?$CComContainedObject@VCOPOSItemDispenser@@@ATL@@WII@AGKXZ 10002d51 f i ItemDispenser.obj
 0001:00001d5e       ?Release@?$CComContainedObject@VCOPOSItemDispenser@@@ATL@@WII@AGKXZ 10002d5e f i ItemDispenser.obj
 0001:00001d6b       ?QueryInterface@?$CComContainedObject@VCOPOSItemDispenser@@@ATL@@WIM@AGJABU_GUID@@PAPAX@Z 10002d6b f i ItemDispenser.obj
 0001:00001d78       ?AddRef@?$CComContainedObject@VCOPOSItemDispenser@@@ATL@@WIM@AGKXZ 10002d78 f i ItemDispenser.obj
 0001:00001d85       ?Release@?$CComContainedObject@VCOPOSItemDispenser@@@ATL@@WIM@AGKXZ 10002d85 f i ItemDispenser.obj
 0001:00001d92       ?QueryInterface@?$CComContainedObject@VCOPOSItemDispenser@@@ATL@@WJA@AGJABU_GUID@@PAPAX@Z 10002d92 f i ItemDispenser.obj
 0001:00001d9f       ?AddRef@?$CComContainedObject@VCOPOSItemDispenser@@@ATL@@WJA@AGKXZ 10002d9f f i ItemDispenser.obj
 0001:00001dac       ?Release@?$CComContainedObject@VCOPOSItemDispenser@@@ATL@@WJA@AGKXZ 10002dac f i ItemDispenser.obj
 0001:00001db9       ?QueryInterface@?$CComContainedObject@VCOPOSItemDispenser@@@ATL@@WJE@AGJABU_GUID@@PAPAX@Z 10002db9 f i ItemDispenser.obj
 0001:00001dc6       ?AddRef@?$CComContainedObject@VCOPOSItemDispenser@@@ATL@@WJE@AGKXZ 10002dc6 f i ItemDispenser.obj
 0001:00001dd3       ?Release@?$CComContainedObject@VCOPOSItemDispenser@@@ATL@@WJE@AGKXZ 10002dd3 f i ItemDispenser.obj
 0001:00001de0       ?QueryInterface@?$CComContainedObject@VCOPOSItemDispenser@@@ATL@@WJI@AGJABU_GUID@@PAPAX@Z 10002de0 f i ItemDispenser.obj
 0001:00001ded       ?AddRef@?$CComContainedObject@VCOPOSItemDispenser@@@ATL@@WJI@AGKXZ 10002ded f i ItemDispenser.obj
 0001:00001dfa       ?Release@?$CComContainedObject@VCOPOSItemDispenser@@@ATL@@WJI@AGKXZ 10002dfa f i ItemDispenser.obj
 0001:00001e07       ?QueryInterface@?$CComContainedObject@VCOPOSItemDispenser@@@ATL@@WJM@AGJABU_GUID@@PAPAX@Z 10002e07 f i ItemDispenser.obj
 0001:00001e14       ?AddRef@?$CComContainedObject@VCOPOSItemDispenser@@@ATL@@WJM@AGKXZ 10002e14 f i ItemDispenser.obj
 0001:00001e21       ?Release@?$CComContainedObject@VCOPOSItemDispenser@@@ATL@@WJM@AGKXZ 10002e21 f i ItemDispenser.obj
 0001:00001e2e       ?QueryInterface@?$CComContainedObject@VCOPOSItemDispenser@@@ATL@@WKA@AGJABU_GUID@@PAPAX@Z 10002e2e f i ItemDispenser.obj
 0001:00001e3b       ?AddRef@?$CComContainedObject@VCOPOSItemDispenser@@@ATL@@WKA@AGKXZ 10002e3b f i ItemDispenser.obj
 0001:00001e48       ?Release@?$CComContainedObject@VCOPOSItemDispenser@@@ATL@@WKA@AGKXZ 10002e48 f i ItemDispenser.obj
 0001:00001e55       ?AddRef@?$CComContainedObject@VCOPOSItemDispenser@@@ATL@@WKI@AGKXZ 10002e55 f i ItemDispenser.obj
 0001:00001e62       ?Release@?$CComContainedObject@VCOPOSItemDispenser@@@ATL@@WKI@AGKXZ 10002e62 f i ItemDispenser.obj
 0001:00001e6f       ?AddRef@?$CComContainedObject@VCOPOSItemDispenser@@@ATL@@WLE@AGKXZ 10002e6f f i ItemDispenser.obj
 0001:00001e7c       ?Release@?$CComContainedObject@VCOPOSItemDispenser@@@ATL@@WLE@AGKXZ 10002e7c f i ItemDispenser.obj
 0001:00001e89       ?Lock@CAtlModule@ATL@@UAEJXZ 10002e89 f i ItemDispenser.obj
 0001:00001e93       ?Unlock@CAtlModule@ATL@@UAEJXZ 10002e93 f i ItemDispenser.obj
 0001:00001e9d       ?GetLockCount@CAtlModule@ATL@@UAEJXZ 10002e9d f i ItemDispenser.obj
 0001:00001ea1       ?GetGITPtr@CAtlModule@ATL@@UAEJPAPAUIGlobalInterfaceTable@@@Z 10002ea1 f i ItemDispenser.obj
 0001:00001eed       ?GetWindowProc@?$CWindowImplBaseT@VCWindow@ATL@@V?$CWinTraits@$0FGAAAAAA@$0A@@2@@ATL@@UAEP6GJPAUHWND__@@IIJ@ZXZ 10002eed f i ItemDispenser.obj
 0001:00001ef3       ?StartWindowProc@?$CWindowImplBaseT@VCWindow@ATL@@V?$CWinTraits@$0FGAAAAAA@$0A@@2@@ATL@@SGJPAUHWND__@@IIJ@Z 10002ef3 f i ItemDispenser.obj
 0001:00001f47       ?GetTypeInfoCount@?$IDispatchImpl@UIOPOSItemDispenser@@$1?IID_IOPOSItemDispenser@@3U_GUID@@B$1?LIBID_OposItemDispenser_CCO@@3U3@B$00$0A@VCComTypeInfoHolder@ATL@@@ATL@@UAGJPAI@Z 10002f47 f i ItemDispenser.obj
 0001:00001f64       ?GetTypeInfo@?$IDispatchImpl@UIOPOSItemDispenser@@$1?IID_IOPOSItemDispenser@@3U_GUID@@B$1?LIBID_OposItemDispenser_CCO@@3U3@B$00$0A@VCComTypeInfoHolder@ATL@@@ATL@@UAGJIKPAPAUITypeInfo@@@Z 10002f64 f i ItemDispenser.obj
 0001:00001f88       ?GetIDsOfNames@?$IDispatchImpl@UIOPOSItemDispenser@@$1?IID_IOPOSItemDispenser@@3U_GUID@@B$1?LIBID_OposItemDispenser_CCO@@3U3@B$00$0A@VCComTypeInfoHolder@ATL@@@ATL@@UAGJABU_GUID@@PAPA_WIKPAJ@Z 10002f88 f i ItemDispenser.obj
 0001:00001fa8       ?AddCommonRGSReplacements@?$CAtlModuleT@VCComModule@ATL@@@ATL@@UAEJPAUIRegistrarBase@@@Z 10002fa8 f i ItemDispenser.obj
 0001:00001fc2       ?Invoke@?$IDispatchImpl@UIOPOSItemDispenser@@$1?IID_IOPOSItemDispenser@@3U_GUID@@B$1?LIBID_OposItemDispenser_CCO@@3U3@B$00$0A@VCComTypeInfoHolder@ATL@@@ATL@@UAGJJABU_GUID@@KGPAUtagDISPPARAMS@@PAUtagVARIANT@@PAUtagEXCEPINFO@@PAI@Z 10002fc2 f i ItemDispenser.obj
 0001:00001fd0       ?CreateControlWindow@?$CComControl@VCOPOSItemDispenser@@V?$CWindowImpl@VCOPOSItemDispenser@@VCWindow@ATL@@V?$CWinTraits@$0FGAAAAAA@$0A@@3@@ATL@@@ATL@@UAEPAUHWND__@@PAU3@AAUtagRECT@@@Z 10002fd0 f i ItemDispenser.obj
 0001:00001fff       ?ControlQueryInterface@?$CComControl@VCOPOSItemDispenser@@V?$CWindowImpl@VCOPOSItemDispenser@@VCWindow@ATL@@V?$CWinTraits@$0FGAAAAAA@$0A@@3@@ATL@@@ATL@@UAEJABU_GUID@@PAPAX@Z 10002fff f i ItemDispenser.obj
 0001:0000201a       ?UpdateRegistryFromResourceD@CComModule@ATL@@UAGJIHPAU_ATL_REGMAP_ENTRY@2@@Z 1000301a f i ItemDispenser.obj
 0001:0000201a       ?UpdateRegistryFromResourceD@CComModule@ATL@@UAGJPB_WHPAU_ATL_REGMAP_ENTRY@2@@Z 1000301a f i ItemDispenser.obj
 0001:00002022       ?UpdateRegistryFromResource@CComModule@ATL@@UAGJPB_WHPAU_ATL_REGMAP_ENTRY@2@@Z 10003022 f i ItemDispenser.obj
 0001:0000202b       ?UpdateRegistryFromResource@CComModule@ATL@@UAGJIHPAU_ATL_REGMAP_ENTRY@2@@Z 1000302b f i ItemDispenser.obj
 0001:00002034       ?IsDirty@?$IPersistStreamInitImpl@VCOPOSItemDispenser@@@ATL@@UAGJXZ 10003034 f i ItemDispenser.obj
 0001:00002053       ?Load@?$IPersistStreamInitImpl@VCOPOSItemDispenser@@@ATL@@UAGJPAUIStream@@@Z 10003053 f i ItemDispenser.obj
 0001:00002072       ?Save@?$IPersistStreamInitImpl@VCOPOSItemDispenser@@@ATL@@UAGJPAUIStream@@H@Z 10003072 f i ItemDispenser.obj
 0001:00002094       ?GetSizeMax@?$IPersistStreamInitImpl@VCOPOSItemDispenser@@@ATL@@UAGJPAT_ULARGE_INTEGER@@@Z 10003094 f i ItemDispenser.obj
 0001:00002249       ?InitNew@?$IPersistStreamInitImpl@VCOPOSItemDispenser@@@ATL@@UAGJXZ 10003249 f i ItemDispenser.obj
 0001:00002266       ?SetClientSite@?$IOleObjectImpl@VCOPOSItemDispenser@@@ATL@@UAGJPAUIOleClientSite@@@Z 10003266 f i ItemDispenser.obj
 0001:00002283       ?GetClientSite@?$IOleObjectImpl@VCOPOSItemDispenser@@@ATL@@UAGJPAPAUIOleClientSite@@@Z 10003283 f i ItemDispenser.obj
 0001:000022a0       ?SetHostNames@?$IOleObjectImpl@VCOPOSItemDispenser@@@ATL@@UAGJPB_W0@Z 100032a0 f i ItemDispenser.obj
 0001:000022a5       ?Close@?$IOleObjectImpl@VCOPOSItemDispenser@@@ATL@@UAGJK@Z 100032a5 f i ItemDispenser.obj
 0001:000022c2       ??_GCComModule@ATL@@UAEPAXI@Z 100032c2 f i ItemDispenser.obj
 0001:000022c2       ??_ECComModule@ATL@@UAEPAXI@Z 100032c2 f i ItemDispenser.obj
 0001:000022ea       ?DoVerb@?$IOleObjectImpl@VCOPOSItemDispenser@@@ATL@@UAGJJPAUtagMSG@@PAUIOleClientSite@@JPAUHWND__@@PBUtagRECT@@@Z 100032ea f i ItemDispenser.obj
 0001:00002402       ?EnumVerbs@?$IOleObjectImpl@VCOPOSItemDispenser@@@ATL@@UAGJPAPAUIEnumOLEVERB@@@Z 10003402 f i ItemDispenser.obj
 0001:00002424       ?GetUserType@?$IOleObjectImpl@VCOPOSItemDispenser@@@ATL@@UAGJKPAPA_W@Z 10003424 f i ItemDispenser.obj
 0001:0000243c       ?SetExtent@?$IOleObjectImpl@VCOPOSItemDispenser@@@ATL@@UAGJKPAUtagSIZE@@@Z 1000343c f i ItemDispenser.obj
 0001:0000245c       ?GetExtent@?$IOleObjectImpl@VCOPOSItemDispenser@@@ATL@@UAGJKPAUtagSIZE@@@Z 1000345c f i ItemDispenser.obj
 0001:0000249a       ?Advise@?$IOleObjectImpl@VCOPOSItemDispenser@@@ATL@@UAGJPAUIAdviseSink@@PAK@Z 1000349a f i ItemDispenser.obj
 0001:000024ba       ?Unadvise@?$IOleObjectImpl@VCOPOSItemDispenser@@@ATL@@UAGJK@Z 100034ba f i ItemDispenser.obj
 0001:000024e9       ?EnumAdvise@?$IOleObjectImpl@VCOPOSItemDispenser@@@ATL@@UAGJPAPAUIEnumSTATDATA@@@Z 100034e9 f i ItemDispenser.obj
 0001:00002529       ?GetMiscStatus@?$IOleObjectImpl@VCOPOSItemDispenser@@@ATL@@UAGJKPAK@Z 10003529 f i ItemDispenser.obj
 0001:00002541       ?GetWindow@?$IOleInPlaceActiveObjectImpl@VCOPOSItemDispenser@@@ATL@@UAGJPAPAUHWND__@@@Z 10003541 f i ItemDispenser.obj
 0001:0000258e       ?TranslateAcceleratorW@?$IOleInPlaceActiveObjectImpl@VCOPOSItemDispenser@@@ATL@@UAGJPAUtagMSG@@@Z 1000358e f i ItemDispenser.obj
 0001:0000262c       ?OnDocWindowActivate@?$IOleInPlaceActiveObjectImpl@VCOPOSItemDispenser@@@ATL@@UAGJH@Z 1000362c f i ItemDispenser.obj
 0001:0000264e       ?ResizeBorder@?$IOleInPlaceActiveObjectImpl@VCOPOSItemDispenser@@@ATL@@UAGJPBUtagRECT@@PAUIOleInPlaceUIWindow@@H@Z 1000364e f i ItemDispenser.obj
 0001:00002653       ?Draw@?$IViewObjectExImpl@VCOPOSItemDispenser@@@ATL@@UAGJKJPAXPAUtagDVTARGETDEVICE@@PAUHDC__@@2PBU_RECTL@@3P6GHK@ZK@Z 10003653 f i ItemDispenser.obj
 0001:00002685       ?GetColorSet@?$IViewObjectExImpl@VCOPOSItemDispenser@@@ATL@@UAGJKJPAXPAUtagDVTARGETDEVICE@@PAUHDC__@@PAPAUtagLOGPALETTE@@@Z 10003685 f i ItemDispenser.obj
 0001:0000268d       ?SetAdvise@?$IViewObjectExImpl@VCOPOSItemDispenser@@@ATL@@UAGJKKPAUIAdviseSink@@@Z 1000368d f i ItemDispenser.obj
 0001:000026ac       ?GetAdvise@?$IViewObjectExImpl@VCOPOSItemDispenser@@@ATL@@UAGJPAK0PAPAUIAdviseSink@@@Z 100036ac f i ItemDispenser.obj
 0001:000026e1       ?GetExtent@?$IViewObjectExImpl@VCOPOSItemDispenser@@@ATL@@UAGJKJPAUtagDVTARGETDEVICE@@PAUtagSIZE@@@Z 100036e1 f i ItemDispenser.obj
 0001:00002712       ?GetViewStatus@?$IViewObjectExImpl@VCOPOSItemDispenser@@@ATL@@UAGJPAK@Z 10003712 f i ItemDispenser.obj
 0001:0000272f       ?QueryHitPoint@?$IViewObjectExImpl@VCOPOSItemDispenser@@@ATL@@UAGJKPBUtagRECT@@UtagPOINT@@JPAK@Z 1000372f f i ItemDispenser.obj
 0001:00002770       ?QueryHitRect@?$IViewObjectExImpl@VCOPOSItemDispenser@@@ATL@@UAGJKPBUtagRECT@@0JPAK@Z 10003770 f i ItemDispenser.obj
 0001:000027cb       ?GetNaturalExtent@?$IViewObjectExImpl@VCOPOSItemDispenser@@@ATL@@UAGJKJPAUtagDVTARGETDEVICE@@PAUHDC__@@PAUtagExtentInfo@@PAUtagSIZE@@@Z 100037cb f i ItemDispenser.obj
 0001:00002816       ?GetWindow@?$IOleInPlaceObjectWindowlessImpl@VCOPOSItemDispenser@@@ATL@@UAGJPAPAUHWND__@@@Z 10003816 f i ItemDispenser.obj
 0001:00002863       ?InPlaceDeactivate@?$IOleInPlaceObjectWindowlessImpl@VCOPOSItemDispenser@@@ATL@@UAGJXZ 10003863 f i ItemDispenser.obj
 0001:0000287d       ?UIDeactivate@?$IOleInPlaceObjectWindowlessImpl@VCOPOSItemDispenser@@@ATL@@UAGJXZ 1000387d f i ItemDispenser.obj
 0001:00002897       ??$?4UITypeInfo2@@@?$CComPtr@UITypeInfo@@@ATL@@QAEPAUITypeInfo@@ABV?$CComPtr@UITypeInfo2@@@1@@Z 10003897 f i ItemDispenser.obj
 0001:000028c4       ??$AtlAdd@K@ATL@@YAJPAKKK@Z 100038c4 f i ItemDispenser.obj
 0001:000028e7       ??$AtlAdd@_K@ATL@@YAJPA_K_K1@Z 100038e7 f i ItemDispenser.obj
 0001:0000291f       ??$AtlAddThrow@K@ATL@@YAKKK@Z 1000391f f i ItemDispenser.obj
 0001:00002945       ??$AtlModuleRegisterWndClassInfoT@VAtlModuleRegisterWndClassInfoParamW@ATL@@@ATL@@YAGPAU_ATL_BASE_MODULE70@0@PAU_ATL_WIN_MODULE70@0@PAU_ATL_WNDCLASSINFOW@0@PAP6GJPAUHWND__@@IIJ@ZVAtlModuleRegisterWndClassInfoParamW@0@@Z 10003945 f i ItemDispenser.obj
 0001:00002a93       ??$AtlMultiply@H@ATL@@YAJPAHHH@Z 10003a93 f i ItemDispenser.obj
 0001:00002acb       ??$AtlMultiply@I@ATL@@YAJPAIII@Z 10003acb f i ItemDispenser.obj
 0001:00002acb       ??$AtlMultiply@K@ATL@@YAJPAKKK@Z 10003acb f i ItemDispenser.obj
 0001:00002aed       ??$AtlMultiplyThrow@I@ATL@@YAIII@Z 10003aed f i ItemDispenser.obj
 0001:00002b13       ??0?$CComAggObject@VCOPOSItemDispenser@@@ATL@@QAE@PAX@Z 10003b13 f i ItemDispenser.obj
 0001:00002b40       ??0?$CComContainedObject@VCOPOSItemDispenser@@@ATL@@QAE@PAX@Z 10003b40 f i ItemDispenser.obj
 0001:00002bf9       ??0?$CComObject@V?$CComEnum@UIEnumConnectionPoints@@$1?_GUID_b196b285_bab4_101a_b69c_00aa00341d07@@3U__s_GUID@@BPAUIConnectionPoint@@V?$_CopyInterface@UIConnectionPoint@@@ATL@@VCComSingleThreadModel@6@@ATL@@@ATL@@QAE@PAX@Z 10003bf9 f i ItemDispenser.obj
 0001:00002c27       ??0?$CComObject@V?$CComEnum@UIEnumConnections@@$1?_GUID_b196b287_bab4_101a_b69c_00aa00341d07@@3U__s_GUID@@BUtagCONNECTDATA@@V?$_Copy@UtagCONNECTDATA@@@ATL@@VCComSingleThreadModel@6@@ATL@@@ATL@@QAE@PAX@Z 10003c27 f i ItemDispenser.obj
 0001:00002c55       ??0?$CComObject@VCOPOSItemDispenser@@@ATL@@QAE@PAX@Z 10003c55 f i ItemDispenser.obj
 0001:00002d0c       ??0?$CComQIPtr@UIOleControlSite@@$1?_GUID_b196b289_bab4_101a_b69c_00aa00341d07@@3U__s_GUID@@B@ATL@@QAE@PAUIUnknown@@@Z 10003d0c f i ItemDispenser.obj
 0001:00002d35       ??0CAtlModule@ATL@@QAE@XZ  10003d35 f i ItemDispenser.obj
 0001:00002d76       ??0CParseBuffer@CRegParser@ATL@@QAE@H@Z 10003d76 f i ItemDispenser.obj
 0001:00002dac       ??0_ATL_MSG@ATL@@QAE@PAUHWND__@@IIJH@Z 10003dac f i ItemDispenser.obj
 0001:00002de4       ??1?$CComAggObject@VCOPOSItemDispenser@@@ATL@@UAE@XZ 10003de4 f i ItemDispenser.obj
 0001:00002e08       ??1?$CComEnumImpl@UIEnumConnectionPoints@@$1?_GUID_b196b285_bab4_101a_b69c_00aa00341d07@@3U__s_GUID@@BPAUIConnectionPoint@@V?$_CopyInterface@UIConnectionPoint@@@ATL@@@ATL@@UAE@XZ 10003e08 f i ItemDispenser.obj
 0001:00002e48       ??1?$CComEnumImpl@UIEnumConnections@@$1?_GUID_b196b287_bab4_101a_b69c_00aa00341d07@@3U__s_GUID@@BUtagCONNECTDATA@@V?$_Copy@UtagCONNECTDATA@@@ATL@@@ATL@@UAE@XZ 10003e48 f i ItemDispenser.obj
 0001:00002e88       ??1?$CComObject@V?$CComEnum@UIEnumConnectionPoints@@$1?_GUID_b196b285_bab4_101a_b69c_00aa00341d07@@3U__s_GUID@@BPAUIConnectionPoint@@V?$_CopyInterface@UIConnectionPoint@@@ATL@@VCComSingleThreadModel@6@@ATL@@@ATL@@UAE@XZ 10003e88 f i ItemDispenser.obj
 0001:00002eab       ??1?$CComObject@V?$CComEnum@UIEnumConnections@@$1?_GUID_b196b287_bab4_101a_b69c_00aa00341d07@@3U__s_GUID@@BUtagCONNECTDATA@@V?$_Copy@UtagCONNECTDATA@@@ATL@@VCComSingleThreadModel@6@@ATL@@@ATL@@UAE@XZ 10003eab f i ItemDispenser.obj
 0001:00002ece       ??1?$CComObject@VCOPOSItemDispenser@@@ATL@@UAE@XZ 10003ece f i ItemDispenser.obj
 0001:00002f8c       ??1?$CComObjectCached@VCComClassFactory@ATL@@@ATL@@UAE@XZ 10003f8c f i ItemDispenser.obj
 0001:00002fa2       ??1?$CComObjectRootEx@VCComMultiThreadModel@ATL@@@ATL@@QAE@XZ 10003fa2 f i ItemDispenser.obj
 0001:00002fb7       ??1CRegObject@ATL@@UAE@XZ  10003fb7 f i ItemDispenser.obj
 0001:00002fd7       ??4?$CComPtr@UIUnknown@@@ATL@@QAEPAUIUnknown@@PAU2@@Z 10003fd7 f i ItemDispenser.obj
 0001:00002fd7       ??4?$CComPtr@UIOleClientSite@@@ATL@@QAEPAUIOleClientSite@@PAU2@@Z 10003fd7 f i ItemDispenser.obj
 0001:00002fd7       ??4?$CComPtr@UIAdviseSink@@@ATL@@QAEPAUIAdviseSink@@PAU2@@Z 10003fd7 f i ItemDispenser.obj
 0001:0000300b       ??4?$CComQIPtr@UIOleObject@@$1?_GUID_00000112_0000_0000_c000_000000000046@@3U__s_GUID@@B@ATL@@QAEPAUIOleObject@@PAUIUnknown@@@Z 1000400b f i ItemDispenser.obj
 0001:00003030       ??4?$CComQIPtr@UISpecifyPropertyPages@@$1?_GUID_b196b28b_bab4_101a_b69c_00aa00341d07@@3U__s_GUID@@B@ATL@@QAEPAUISpecifyPropertyPages@@PAUIUnknown@@@Z 10004030 f i ItemDispenser.obj
 0001:00003055       ??_E?$CComContainedObject@VCOPOSItemDispenser@@@ATL@@UAEPAXI@Z 10004055 f i ItemDispenser.obj
 0001:00003055       ??_G?$CComContainedObject@VCOPOSItemDispenser@@@ATL@@UAEPAXI@Z 10004055 f i ItemDispenser.obj
 0001:0000307a       ??_G?$CComObject@VCOPOSItemDispenser@@@ATL@@UAEPAXI@Z 1000407a f i ItemDispenser.obj
 0001:0000307a       ??_E?$CComObject@VCOPOSItemDispenser@@@ATL@@UAEPAXI@Z 1000407a f i ItemDispenser.obj
 0001:0000309f       ?Add@?$CSimpleArray@GV?$CSimpleArrayEqualHelper@G@ATL@@@ATL@@QAEHABG@Z 1000409f f i ItemDispenser.obj
 0001:00003123       ?Add@?$CSimpleMap@PA_WPA_WVCExpansionVectorEqualHelper@ATL@@@ATL@@QAEHABQA_W0@Z 10004123 f i ItemDispenser.obj
 0001:00003178       ?Add@CComDynamicUnkArray@ATL@@QAEKPAUIUnknown@@@Z 10004178 f i ItemDispenser.obj
 0001:00003233       ?Add@CExpansionVector@ATL@@QAEHPB_W0@Z 10004233 f i ItemDispenser.obj
 0001:00003337       ?AddString@CParseBuffer@CRegParser@ATL@@QAEHPB_W@Z 10004337 f i ItemDispenser.obj
 0001:0000336c       ?AddValue@CRegParser@ATL@@IAEJAAVCRegKey@2@PB_WPA_W@Z 1000436c f i ItemDispenser.obj
 0001:0000368d       ?Allocate@?$CAtlSafeAllocBufferManager@VCCRTAllocator@ATL@@@_ATL_SAFE_ALLOCA_IMPL@ATL@@QAEPAXK@Z 1000468d f i ItemDispenser.obj
 0001:000036ba       ?Allocate@?$CTempBuffer@E$0BAA@VCCRTAllocator@ATL@@@ATL@@QAEPAEI@Z 100046ba f i ItemDispenser.obj
 0001:000036e9       ?Allocate@?$CTempBuffer@_W$0BAA@VCCRTAllocator@ATL@@@ATL@@QAEPA_WI@Z 100046e9 f i ItemDispenser.obj
 0001:00003718       ?Allocate@?$CTempBuffer@_W$0EAA@VCCRTAllocator@ATL@@@ATL@@QAEPA_WI@Z 10004718 f i ItemDispenser.obj
 0001:00003747       ?AllocateHeap@?$CTempBuffer@_W$0EAA@VCCRTAllocator@ATL@@@ATL@@AAEXI@Z 10004747 f i ItemDispenser.obj
 0001:00003747       ?AllocateHeap@?$CTempBuffer@E$0BAA@VCCRTAllocator@ATL@@@ATL@@AAEXI@Z 10004747 f i ItemDispenser.obj
 0001:00003747       ?AllocateHeap@?$CTempBuffer@_W$0BAA@VCCRTAllocator@ATL@@@ATL@@AAEXI@Z 10004747 f i ItemDispenser.obj
 0001:0000376c       ?Append@CParseBuffer@CRegParser@ATL@@QAEHPB_WH@Z 1000476c f i ItemDispenser.obj
 0001:000037fa       ?AtlCallTermFunc@ATL@@YGXPAU_ATL_MODULE70@1@@Z 100047fa f i ItemDispenser.obj
 0001:0000383e       ?AtlCoTaskMemCAlloc@ATL@@YAPAXKK@Z 1000483e f i ItemDispenser.obj
 0001:0000386b       ?AtlCoTaskMemRecalloc@ATL@@YAPAXPAXKK@Z 1000486b f i ItemDispenser.obj
 0001:0000389b       ?AtlComModuleGetClassObject@ATL@@YGJPAU_ATL_COM_MODULE70@1@ABU_GUID@@1PAPAX@Z 1000489b f i ItemDispenser.obj
 0001:0000398e       ?AtlComModuleRegisterServer@ATL@@YGJPAU_ATL_COM_MODULE70@1@HPBU_GUID@@@Z 1000498e f i ItemDispenser.obj
 0001:00003a16       ?AtlComModuleUnregisterServer@ATL@@YGJPAU_ATL_COM_MODULE70@1@HPBU_GUID@@@Z 10004a16 f i ItemDispenser.obj
 0001:00003a9e       ?AtlComQIPtrAssign2@ATL@@YAXPAPAUIUnknown@@PAU2@ABU_GUID@@@Z 10004a9e f i ItemDispenser.obj
 0001:00003acd       ?AtlCreateTargetDC@ATL@@YGPAUHDC__@@PAU2@PAUtagDVTARGETDEVICE@@@Z 10004acd f i ItemDispenser.obj
 0001:00003b36       ?AtlCrtErrorCheck@ATL@@YAHH@Z 10004b36 f i ItemDispenser.obj
 0001:00003b71       ?AtlHiMetricToPixel@ATL@@YGXPBUtagSIZE@@PAU2@@Z 10004b71 f i ItemDispenser.obj
 0001:00003be6       ?AtlHresultFromLastError@ATL@@YAJXZ 10004be6 f i ItemDispenser.obj
 0001:00003bfd       ?AtlHresultFromWin32@ATL@@YAJK@Z 10004bfd f i ItemDispenser.obj
 0001:00003c12       ?AtlIPersistStreamInit_Load@ATL@@YGJPAUIStream@@PBUATL_PROPMAP_ENTRY@1@PAXPAUIUnknown@@@Z 10004c12 f i ItemDispenser.obj
 0001:00003df2       ?AtlIPersistStreamInit_Save@ATL@@YGJPAUIStream@@HPBUATL_PROPMAP_ENTRY@1@PAXPAUIUnknown@@@Z 10004df2 f i ItemDispenser.obj
 0001:00003f8a       ?AtlInternalOleLoadFromStream@ATL@@YAJPAUIStream@@ABU_GUID@@PAPAXTClassesAllowedInStream@1@K@Z 10004f8a f i ItemDispenser.obj
 0001:000040b0       ?AtlInternalQueryInterface@ATL@@YGJPAXPBU_ATL_INTMAP_ENTRY@1@ABU_GUID@@PAPAX@Z 100050b0 f i ItemDispenser.obj
 0001:00004153       ?AtlLoadTypeLib@ATL@@YGJPAUHINSTANCE__@@PB_WPAPA_WPAPAUITypeLib@@@Z 10005153 f i ItemDispenser.obj
 0001:00004331       ?AtlModuleAddTermFunc@ATL@@YGJPAU_ATL_MODULE70@1@P6GXK@ZK@Z 10005331 f i ItemDispenser.obj
 0001:0000438e       ?AtlRegisterClassCategoriesHelper@ATL@@YGJABU_GUID@@PBU_ATL_CATMAP_ENTRY@1@H@Z 1000538e f i ItemDispenser.obj
 0001:0000466e       ?AtlRegisterTypeLib@ATL@@YGJPAUHINSTANCE__@@PB_W@Z 1000566e f i ItemDispenser.obj
 0001:000047f6       ?AtlThrowImpl@ATL@@YGXJ@Z  100057f6 f i ItemDispenser.obj
 0001:00004814       ?AtlUnRegisterTypeLib@ATL@@YGJPAUHINSTANCE__@@PB_W@Z 10005814 f i ItemDispenser.obj
 0001:000048bf       ?AtlWinModuleAddCreateWndData@ATL@@YGXPAU_ATL_WIN_MODULE70@1@PAU_AtlCreateWndData@1@PAX@Z 100058bf f i ItemDispenser.obj
 0001:00004913       ?AtlWinModuleExtractCreateWndData@ATL@@YGPAXPAU_ATL_WIN_MODULE70@1@@Z 10005913 f i ItemDispenser.obj
 0001:00004976       ?AtlWinModuleRegisterClassExW@ATL@@YGGPAU_ATL_WIN_MODULE70@1@PBUtagWNDCLASSEXW@@@Z 10005976 f i ItemDispenser.obj
 0001:000049b5       ?CanForceRemoveKey@CRegParser@ATL@@IAEHPB_W@Z 100059b5 f i ItemDispenser.obj
 0001:000049e4       ?ChToByte@CRegParser@ATL@@KAE_W@Z 100059e4 f i ItemDispenser.obj
 0001:00004a17       ?Cleanup@CComTypeInfoHolder@ATL@@SGXK@Z 10005a17 f i ItemDispenser.obj
 0001:00004a4a       ?ClearReplacements@CExpansionVector@ATL@@QAEJXZ 10005a4a f i ItemDispenser.obj
 0001:00004a87       ?Close@CRegKey@ATL@@QAEJXZ 10005a87 f i ItemDispenser.obj
 0001:00004aa1       ?Create@?$CWindowImpl@VCOPOSItemDispenser@@VCWindow@ATL@@V?$CWinTraits@$0FGAAAAAA@$0A@@3@@ATL@@QAEPAUHWND__@@PAU3@V_U_RECT@2@PB_WKKV_U_MENUorID@2@PAX@Z 10005aa1 f i ItemDispenser.obj
 0001:00004ae5       ?Create@?$CWindowImplBaseT@VCWindow@ATL@@V?$CWinTraits@$0FGAAAAAA@$0A@@2@@ATL@@QAEPAUHWND__@@PAU3@V_U_RECT@2@PB_WKKV_U_MENUorID@2@GPAX@Z 10005ae5 f i ItemDispenser.obj
 0001:00004b81       ?Create@CRegKey@ATL@@QAEJPAUHKEY__@@PB_WPA_WKKPAU_SECURITY_ATTRIBUTES@@PAK@Z 10005b81 f i ItemDispenser.obj
 0001:00004be4       ?CreateInstance@?$CComCreator@V?$CComAggObject@VCOPOSItemDispenser@@@ATL@@@ATL@@SGJPAXABU_GUID@@PAPAX@Z 10005be4 f i ItemDispenser.obj
 0001:00004c5a       ?CreateInstance@?$CComCreator@V?$CComObject@VCOPOSItemDispenser@@@ATL@@@ATL@@SGJPAXABU_GUID@@PAPAX@Z 10005c5a f i ItemDispenser.obj
 0001:00004cdb       ?CreateInstance@?$CComObject@V?$CComEnum@UIEnumConnectionPoints@@$1?_GUID_b196b285_bab4_101a_b69c_00aa00341d07@@3U__s_GUID@@BPAUIConnectionPoint@@V?$_CopyInterface@UIConnectionPoint@@@ATL@@VCComSingleThreadModel@6@@ATL@@@ATL@@SGJPAPAV12@@Z 10005cdb f i ItemDispenser.obj
 0001:00004d22       ?CreateInstance@?$CComObject@V?$CComEnum@UIEnumConnections@@$1?_GUID_b196b287_bab4_101a_b69c_00aa00341d07@@3U__s_GUID@@BUtagCONNECTDATA@@V?$_Copy@UtagCONNECTDATA@@@ATL@@VCComSingleThreadModel@6@@ATL@@@ATL@@SGJPAPAV12@@Z 10005d22 f i ItemDispenser.obj
 0001:00004d69       ?DefaultReflectionHandler@?$CWindowImplRoot@VCWindow@ATL@@@ATL@@SAHPAUHWND__@@IIJAAJ@Z 10005d69 f i ItemDispenser.obj
 0001:00004ddc       ?DeleteSubKey@CRegKey@ATL@@QAEJPB_W@Z 10005ddc f i ItemDispenser.obj
 0001:00004dff       ?DoEvent@COPOSItemDispenser@@IAEXIIJ@Z 10005dff f i ItemDispenser.obj
 0001:00004e7f       ?DoVerbHide@?$IOleObjectImpl@VCOPOSItemDispenser@@@ATL@@QAEJPBUtagRECT@@PAUHWND__@@@Z 10005e7f f i ItemDispenser.obj
 0001:00004eb5       ?DoVerbInPlaceActivate@?$IOleObjectImpl@VCOPOSItemDispenser@@@ATL@@QAEJPBUtagRECT@@PAUHWND__@@@Z 10005eb5 f i ItemDispenser.obj
 0001:00004ee8       ?DoVerbPrimary@?$IOleObjectImpl@VCOPOSItemDispenser@@@ATL@@QAEJPBUtagRECT@@PAUHWND__@@@Z 10005ee8 f i ItemDispenser.obj
 0001:00004f74       ?DoVerbProperties@CComControlBase@ATL@@QAEJPBUtagRECT@@PAUHWND__@@@Z 10005f74 f i ItemDispenser.obj
 0001:0000509b       ?DoVerbShow@?$IOleObjectImpl@VCOPOSItemDispenser@@@ATL@@QAEJPBUtagRECT@@PAUHWND__@@@Z 1000609b f i ItemDispenser.obj
 0001:000050c0       ?DoVerbUIActivate@?$IOleObjectImpl@VCOPOSItemDispenser@@@ATL@@QAEJPBUtagRECT@@PAUHWND__@@@Z 100060c0 f i ItemDispenser.obj
 0001:000050fd       ?DoesVerbActivate@CComControlBase@ATL@@QAEHJ@Z 100060fd f i ItemDispenser.obj
 0001:0000511e       ?DoesVerbUIActivate@CComControlBase@ATL@@QAEHJ@Z 1000611e f i ItemDispenser.obj
 0001:00005153       ?EndOfVar@CRegParser@ATL@@IAEHXZ 10006153 f i ItemDispenser.obj
 0001:00005173       ?EscapeSingleQuote@CAtlModule@ATL@@SAXPA_WIPB_W@Z 10006173 f i ItemDispenser.obj
 0001:000051c2       ?FindKey@?$CSimpleMap@PA_WPA_WVCExpansionVectorEqualHelper@ATL@@@ATL@@QBEHABQA_W@Z 100061c2 f i ItemDispenser.obj
 0001:000051f9       ?FireTheEvent@?$CProxy_IOPOSEvents@VCOPOSItemDispenser@@@@IAEXPAVOposVariant@@IAAJPB_WJ@Z 100061f9 f i ItemDispenser.obj
 0001:0000528b       ?FireViewChange@CComControlBase@ATL@@QAEJXZ 1000628b f i ItemDispenser.obj
 0001:000052d4       ?Fire_DirectIOEvent@?$CProxy_IOPOSEvents@VCOPOSItemDispenser@@@@QAEXJPAJPAPA_W@Z 100062d4 f i ItemDispenser.obj
 0001:000053ba       ?Fire_StatusUpdateEvent@?$CProxy_IOPOSEvents@VCOPOSItemDispenser@@@@QAEXJ@Z 100063ba f i ItemDispenser.obj
 0001:00005446       ?FreeHeap@?$CTempBuffer@E$0BAA@VCCRTAllocator@ATL@@@ATL@@AAEXXZ 10006446 f i ItemDispenser.obj
 0001:00005446       ?FreeHeap@?$CTempBuffer@_W$0EAA@VCCRTAllocator@ATL@@@ATL@@AAEXXZ 10006446 f i ItemDispenser.obj
 0001:00005446       ?FreeHeap@?$CTempBuffer@_W$0BAA@VCCRTAllocator@ATL@@@ATL@@AAEXXZ 10006446 f i ItemDispenser.obj
 0001:0000544f       ?GetAmbientLocaleID@CComControlBase@ATL@@QAEJAAK@Z 1000644f f i ItemDispenser.obj
 0001:000054ab       ?GetAmbientUserMode@CComControlBase@ATL@@QAEJAAH@Z 100064ab f i ItemDispenser.obj
 0001:0000551b       ?GetAt@CComDynamicUnkArray@ATL@@QAEPAUIUnknown@@H@Z 1000651b f i ItemDispenser.obj
 0001:00005537       ?GetClassObject@CComModule@ATL@@QAEJABU_GUID@@0PAPAX@Z 10006537 f i ItemDispenser.obj
 0001:000055d9       ?GetConnMap@COPOSItemDispenser@@SAPBU_ATL_CONNMAP_ENTRY@ATL@@PAH@Z 100065d9 f i ItemDispenser.obj
 0001:00005649       ?GetCookie@CComDynamicUnkArray@ATL@@QAGKPAPAUIUnknown@@@Z 10006649 f i ItemDispenser.obj
 0001:00005681       ?GetIDsOfNames@CComTypeInfoHolder@ATL@@QAEJABU_GUID@@PAPA_WIKPAJ@Z 10006681 f i ItemDispenser.obj
 0001:0000578f       ?GetKeyAt@?$CSimpleMap@PA_WPA_WVCExpansionVectorEqualHelper@ATL@@@ATL@@QBEAAPA_WH@Z 1000678f f i ItemDispenser.obj
 0001:000057b4       ?GetPagesHelper@?$ISpecifyPropertyPagesImpl@VCOPOSItemDispenser@@@ATL@@IAEJPAUtagCAUUID@@PBUATL_PROPMAP_ENTRY@2@@Z 100067b4 f i ItemDispenser.obj
 0001:000058db       ?GetProperty@?$CComPtr@UIDispatch@@@ATL@@SAJPAUIDispatch@@JPAUtagVARIANT@@@Z 100068db f i ItemDispenser.obj
 0001:0000592a       ?GetSizeMax@CComVariant@ATL@@QBEJPAT_ULARGE_INTEGER@@@Z 1000692a f i ItemDispenser.obj
 0001:00005ae4       ?GetStreamSize@CComBSTR@ATL@@SAKPA_W@Z 10006ae4 f i ItemDispenser.obj
 0001:00005afe       ?GetTI@CComTypeInfoHolder@ATL@@QAEJK@Z 10006afe f i ItemDispenser.obj
 0001:00005ce7       ?GetTI@CComTypeInfoHolder@ATL@@QAEJKPAPAUITypeInfo@@@Z 10006ce7 f i ItemDispenser.obj
 0001:00005d29       ?GetUnknown@CComDynamicUnkArray@ATL@@QAGPAUIUnknown@@K@Z 10006d29 f i ItemDispenser.obj
 0001:00005d4a       ?GetValueAt@?$CSimpleMap@PA_WPA_WVCExpansionVectorEqualHelper@ATL@@@ATL@@QBEAAPA_WH@Z 10006d4a f i ItemDispenser.obj
 0001:00005d70       ?GetZoomInfo@CComControlBase@ATL@@QAEXAAUATL_DRAWINFO@@@Z 10006d70 f i ItemDispenser.obj
 0001:00005e03       ?HKeyFromString@CRegParser@ATL@@KAPAUHKEY__@@PA_W@Z 10006e03 f i ItemDispenser.obj
 0001:00005e31       ?HasSubKeys@CRegParser@ATL@@IAEHPAUHKEY__@@@Z 10006e31 f i ItemDispenser.obj
 0001:00005e66       ?IDataObject_GetData@CComControlBase@ATL@@QAEJPAUtagFORMATETC@@PAUtagSTGMEDIUM@@@Z 10006e66 f i ItemDispenser.obj
 0001:0000600c       ?IOleInPlaceObject_InPlaceDeactivate@CComControlBase@ATL@@QAEJXZ 1000700c f i ItemDispenser.obj
 0001:00006093       ?IOleInPlaceObject_SetObjectRects@CComControlBase@ATL@@QAEJPBUtagRECT@@0@Z 10007093 f i ItemDispenser.obj
 0001:00006160       ?IOleInPlaceObject_UIDeactivate@CComControlBase@ATL@@QAEJXZ 10007160 f i ItemDispenser.obj
 0001:00006222       ?IOleObject_Advise@CComControlBase@ATL@@QAEJPAUIAdviseSink@@PAK@Z 10007222 f i ItemDispenser.obj
 0001:0000624c       ?IOleObject_Close@CComControlBase@ATL@@QAEJK@Z 1000724c f i ItemDispenser.obj
 0001:00006330       ?IOleObject_GetClientSite@CComControlBase@ATL@@QAEJPAPAUIOleClientSite@@@Z 10007330 f i ItemDispenser.obj
 0001:00006359       ?IOleObject_SetClientSite@CComControlBase@ATL@@QAEJPAUIOleClientSite@@@Z 10007359 f i ItemDispenser.obj
 0001:00006398       ?IOleObject_SetExtent@CComControlBase@ATL@@QAEJKPAUtagSIZE@@@Z 10007398 f i ItemDispenser.obj
 0001:0000644c       ?IPSI_GetIPersistStreamInit@?$IPersistStorageImpl@VCOPOSItemDispenser@@@ATL@@AAEPAUIPersistStreamInit@@XZ 1000744c f i ItemDispenser.obj
 0001:0000648e       ?IPersistStreamInit_Load@?$IPersistStreamInitImpl@VCOPOSItemDispenser@@@ATL@@QAEJPAUIStream@@PBUATL_PROPMAP_ENTRY@2@@Z 1000748e f i ItemDispenser.obj
 0001:000064ba       ?IPersistStreamInit_Save@?$IPersistStreamInitImpl@VCOPOSItemDispenser@@@ATL@@QAEJPAUIStream@@HPBUATL_PROPMAP_ENTRY@2@@Z 100074ba f i ItemDispenser.obj
 0001:000064ef       ?IQuickActivate_QuickActivate@CComControlBase@ATL@@QAEJPAUtagQACONTAINER@@PAUtagQACONTROL@@@Z 100074ef f i ItemDispenser.obj
 0001:00006731       ?IViewObject_Draw@CComControlBase@ATL@@QAEJKJPAXPAUtagDVTARGETDEVICE@@PAUHDC__@@2PBU_RECTL@@3@Z 10007731 f i ItemDispenser.obj
 0001:000067d9       ?InPlaceActivate@CComControlBase@ATL@@QAEJJPBUtagRECT@@@Z 100077d9 f i ItemDispenser.obj
 0001:00006a4a       ?Init@?$CComEnumImpl@UIEnumConnectionPoints@@$1?_GUID_b196b285_bab4_101a_b69c_00aa00341d07@@3U__s_GUID@@BPAUIConnectionPoint@@V?$_CopyInterface@UIConnectionPoint@@@ATL@@@ATL@@QAEJPAPAUIConnectionPoint@@0PAUIUnknown@@W4CComEnumFlags@2@@Z 10007a4a f i ItemDispenser.obj
 0001:00006b29       ?Init@?$CComEnumImpl@UIEnumConnections@@$1?_GUID_b196b287_bab4_101a_b69c_00aa00341d07@@3U__s_GUID@@BUtagCONNECTDATA@@V?$_Copy@UtagCONNECTDATA@@@ATL@@@ATL@@QAEJPAUtagCONNECTDATA@@0PAUIUnknown@@W4CComEnumFlags@2@@Z 10007b29 f i ItemDispenser.obj
 0001:00006c08       ?Init@CComModule@ATL@@QAEJPAU_ATL_OBJMAP_ENTRY30@2@PAUHINSTANCE__@@PBU_GUID@@@Z 10007c08 f i ItemDispenser.obj
 0001:00006c67       ?Init@CDynamicStdCallThunk2@ATL@@QAEHKPAX@Z 10007c67 f i ItemDispenser.obj
 0001:00006c92       ?InlineIsEqualUnknown@ATL@@YGHABU_GUID@@@Z 10007c92 f i ItemDispenser.obj
 0001:00006cba       ?InternalGetSite@CComControlBase@ATL@@QAEJABU_GUID@@PAPAX@Z 10007cba f i ItemDispenser.obj
 0001:00006ce8       ?InternalSetAtIndex@?$CSimpleMap@PA_WPA_WVCExpansionVectorEqualHelper@ATL@@@ATL@@QAEXHABQA_W0@Z 10007ce8 f i ItemDispenser.obj
 0001:00006d12       ?Invoke@CComTypeInfoHolder@ATL@@QAEJPAUIDispatch@@JABU_GUID@@KGPAUtagDISPPARAMS@@PAUtagVARIANT@@PAUtagEXCEPINFO@@PAI@Z 10007d12 f i ItemDispenser.obj
 0001:00006d55       ?IsEqualObject@?$CComPtrBase@UITypeInfo@@@ATL@@QAE_NPAUIUnknown@@@Z 10007d55 f i ItemDispenser.obj
 0001:00006d55       ?IsEqualObject@?$CComPtrBase@UIOleClientSite@@@ATL@@QAE_NPAUIUnknown@@@Z 10007d55 f i ItemDispenser.obj
 0001:00006dc2       ?IsSpace@CRegParser@ATL@@IAEH_W@Z 10007dc2 f i ItemDispenser.obj
 0001:00006dec       ?LoadNameCache@CComTypeInfoHolder@ATL@@QAEJPAUITypeInfo@@@Z 10007dec f i ItemDispenser.obj
 0001:00006f3a       ?Lookup@?$CSimpleMap@PA_WPA_WVCExpansionVectorEqualHelper@ATL@@@ATL@@QBEPA_WABQA_W@Z 10007f3a f i ItemDispenser.obj
 0001:00006f60       ?NextToken@CRegParser@ATL@@IAEJPA_W@Z 10007f60 f i ItemDispenser.obj
 0001:00007098       ?OnKillFocus@CComControlBase@ATL@@QAEJIIJAAH@Z 10008098 f i ItemDispenser.obj
 0001:000070f3       ?OnMouseActivate@CComControlBase@ATL@@QAEJIIJAAH@Z 100080f3 f i ItemDispenser.obj
 0001:00007161       ?OnPaint@CComControlBase@ATL@@QAEJIIJAAH@Z 10008161 f i ItemDispenser.obj
 0001:00007213       ?OnSetFocus@CComControlBase@ATL@@QAEJIIJAAH@Z 10008213 f i ItemDispenser.obj
 0001:0000729c       ?Open@CRegKey@ATL@@QAEJPAUHKEY__@@PB_WK@Z 1000829c f i ItemDispenser.obj
 0001:000072e5       ?PreProcessBuffer@CRegParser@ATL@@QAEJPA_WPAPA_W@Z 100082e5 f i ItemDispenser.obj
 0001:0000754f       ?ProcessWindowMessage@?$CComControl@VCOPOSItemDispenser@@V?$CWindowImpl@VCOPOSItemDispenser@@VCWindow@ATL@@V?$CWinTraits@$0FGAAAAAA@$0A@@3@@ATL@@@ATL@@UAEHPAUHWND__@@IIJAAJK@Z 1000854f f i ItemDispenser.obj
 0001:000075ee       ?PutProperty@?$CComPtr@UIDispatch@@@ATL@@SAJPAUIDispatch@@JPAUtagVARIANT@@@Z 100085ee f i ItemDispenser.obj
 0001:00007680       ?ReadFromStream@CComBSTR@ATL@@QAEJPAUIStream@@@Z 10008680 f i ItemDispenser.obj
 0001:000077ae       ?ReadFromStream@CComVariant@ATL@@QAEJPAUIStream@@GTClassesAllowedInStream@2@K@Z 100087ae f i ItemDispenser.obj
 0001:00007934       ?RecurseDeleteKey@CRegKey@ATL@@QAEJPB_W@Z 10008934 f i ItemDispenser.obj
 0001:000079f6       ?RegCreateKeyExW@CAtlTransactionManager@ATL@@QAEJPAUHKEY__@@PB_WKPA_WKKQAU_SECURITY_ATTRIBUTES@@PAPAU3@PAK@Z 100089f6 f i ItemDispenser.obj
 0001:00007a59       ?RegDeleteKeyW@CAtlTransactionManager@ATL@@QAEJPAUHKEY__@@PB_W@Z 10008a59 f i ItemDispenser.obj
 0001:00007aab       ?RegOpenKeyExW@CAtlTransactionManager@ATL@@QAEJPAUHKEY__@@PB_WKKPAPAU3@@Z 10008aab f i ItemDispenser.obj
 0001:00007b02       ?Register@_ATL_WNDCLASSINFOW@ATL@@QAEGPAP6GJPAUHWND__@@IIJ@Z@Z 10008b02 f i ItemDispenser.obj
 0001:00007b22       ?RegisterBuffer@CRegParser@ATL@@QAEJPA_WH@Z 10008b22 f i ItemDispenser.obj
 0001:00007c5b       ?RegisterFromResource@CRegObject@ATL@@IAEJPB_W00H@Z 10008c5b f i ItemDispenser.obj
 0001:00007d91       ?RegisterServer@?$CAtlModuleT@VCComModule@ATL@@@ATL@@QAEJHPBU_GUID@@@Z 10008d91 f i ItemDispenser.obj
 0001:00007dbf       ?RegisterServer@CComModule@ATL@@QAEJHPBU_GUID@@@Z 10008dbf f i ItemDispenser.obj
 0001:00007e35       ?RegisterSubkeys@CRegParser@ATL@@IAEJPA_WPAUHKEY__@@HH@Z 10008e35 f i ItemDispenser.obj
 0001:00008404       ?Remove@CComDynamicUnkArray@ATL@@QAEHK@Z 10009404 f i ItemDispenser.obj
 0001:0000842d       ?RemoveAll@?$CSimpleMap@PA_WPA_WVCExpansionVectorEqualHelper@ATL@@@ATL@@QAEXXZ 1000942d f i ItemDispenser.obj
 0001:00008459       ?ResourceRegisterSz@CRegObject@ATL@@QAGJPB_W00@Z 10009459 f i ItemDispenser.obj
 0001:00008486       ?ResourceUnregisterSz@CRegObject@ATL@@QAGJPB_W00@Z 10009486 f i ItemDispenser.obj
 0001:000084b3       ?SendOnDataChange@CComControlBase@ATL@@QAEJK@Z 100094b3 f i ItemDispenser.obj
 0001:00008500       ?SetControlFocus@CComControlBase@ATL@@QAEHH@Z 10009500 f i ItemDispenser.obj
 0001:0000859d       ?SetMultiStringValue@CRegKey@ATL@@QAEJPB_W0@Z 1000959d f i ItemDispenser.obj
 0001:000085f9       ?SetStringValue@CRegKey@ATL@@QAEJPB_W0K@Z 100095f9 f i ItemDispenser.obj
 0001:00008642       ?SkipAssignment@CRegParser@ATL@@IAEJPA_W@Z 10009642 f i ItemDispenser.obj
 0001:000086a7       ?SkipWhiteSpace@CRegParser@ATL@@IAEXXZ 100096a7 f i ItemDispenser.obj
 0001:000086c9       ?StrChrW@CRegParser@ATL@@KAPA_WPA_W_W@Z 100096c9 f i ItemDispenser.obj
 0001:00008706       ?Term@CAtlModule@ATL@@QAEXXZ 10009706 f i ItemDispenser.obj
 0001:0000873f       ?Term@CComModule@ATL@@QAEXXZ 1000973f f i ItemDispenser.obj
 0001:00008797       ?UnregisterServer@?$CAtlModuleT@VCComModule@ATL@@@ATL@@QAEJHPBU_GUID@@@Z 10009797 f i ItemDispenser.obj
 0001:000087bd       ?UnregisterServer@CComModule@ATL@@QAEJHPBU_GUID@@@Z 100097bd f i ItemDispenser.obj
 0001:00008833       ?UpdateRegistryFromResource@CAtlModule@ATL@@QAGJIHPAU_ATL_REGMAP_ENTRY@2@@Z 10009833 f i ItemDispenser.obj
 0001:000089fe       ?UpdateRegistryFromResource@CAtlModule@ATL@@QAGJPB_WHPAU_ATL_REGMAP_ENTRY@2@@Z 100099fe f i ItemDispenser.obj
 0001:00008bcf       ?VTFromRegType@CRegParser@ATL@@KAHPB_WAAG@Z 10009bcf f i ItemDispenser.obj
 0001:00008c3c       ?WindowProc@?$CWindowImplBaseT@VCWindow@ATL@@V?$CWinTraits@$0FGAAAAAA@$0A@@2@@ATL@@SGJPAUHWND__@@IIJ@Z 10009c3c f i ItemDispenser.obj
 0001:00008d2e       ?WriteToStream@CComBSTR@ATL@@QAEJPAUIStream@@@Z 10009d2e f i ItemDispenser.obj
 0001:00008d85       ?WriteToStream@CComVariant@ATL@@QAEJPAUIStream@@@Z 10009d85 f i ItemDispenser.obj
 0001:00008eff       ?WriteToStream@CComVariant@ATL@@QAEJPAUIStream@@G@Z 10009eff f i ItemDispenser.obj
 0001:00008f68       ?_AtlInitialConstruct@?$CComObjectRootEx@VCComMultiThreadModel@ATL@@@ATL@@QAEJXZ 10009f68 f i ItemDispenser.obj
 0001:00008f7d       ?_AtlVerifyStackAvailable@_ATL_SAFE_ALLOCA_IMPL@ATL@@YA_NK@Z 10009f7d f i ItemDispenser.obj
 0001:00008ffb       ?copy@?$_Copy@UtagCONNECTDATA@@@ATL@@SAJPAUtagCONNECTDATA@@PBU3@@Z 10009ffb f i ItemDispenser.obj
 0001:00009031       ?copy@?$_CopyInterface@UIConnectionPoint@@@ATL@@SAJPAPAUIConnectionPoint@@PBQAU3@@Z 1000a031 f i ItemDispenser.obj
 0001:0000905f       ?memcpy_s@Checked@ATL@@YAXPAXIPBXI@Z 1000a05f f i ItemDispenser.obj
 0001:0000907e       ?ocscpy_s@@YA_NPA_WIPB_W@Z 1000a07e f i ItemDispenser.obj
 0001:000090ad       ?ocslen@@YAHPB_W@Z         1000a0ad f i ItemDispenser.obj
 0001:000090cd       ?wcscpy_s@Checked@ATL@@YAXPA_WIPB_W@Z 1000a0cd f i ItemDispenser.obj
 0001:000090e9       _DllCanUnloadNow@0         1000a0e9 f   ItemDispenser.obj
 0001:000090f5       _DllGetClassObject@12      1000a0f5 f   ItemDispenser.obj
 0001:00009103       _DllMain@12                1000a103 f   ItemDispenser.obj
 0001:00009145       _DllRegisterServer@0       1000a145 f   ItemDispenser.obj
 0001:00009154       _DllUnregisterServer@0     1000a154 f   ItemDispenser.obj
 0001:00009163       _InlineIsEqualGUID         1000a163 f i ItemDispenser.obj
 0001:00009193       ___local_stdio_printf_options 1000a193 f i ItemDispenser.obj
 0001:00009199       __vswprintf_s_l            1000a199 f i ItemDispenser.obj
 0001:00009246       _swprintf_s                1000a246 f i ItemDispenser.obj
 0001:00009262       ??0?$CComControl@VCOPOSItemDispenser@@V?$CWindowImpl@VCOPOSItemDispenser@@VCWindow@ATL@@V?$CWinTraits@$0FGAAAAAA@$0A@@3@@ATL@@@ATL@@QAE@XZ 1000a262 f i ItemDispenserImpl.obj
 0001:00009289       ??0CComControlBase@ATL@@QAE@AAPAUHWND__@@@Z 1000a289 f i ItemDispenserImpl.obj
 0001:000092d3       ??0COPOSItemDispenser@@QAE@XZ 1000a2d3 f   ItemDispenserImpl.obj
 0001:00009322       ??1?$CComControl@VCOPOSItemDispenser@@V?$CWindowImpl@VCOPOSItemDispenser@@VCWindow@ATL@@V?$CWinTraits@$0FGAAAAAA@$0A@@3@@ATL@@@ATL@@UAE@XZ 1000a322 f i ItemDispenserImpl.obj
 0001:0000933b       ??1?$IConnectionPointImpl@VCOPOSItemDispenser@@$1?IID_IPropertyNotifySink@@3U_GUID@@BVCComDynamicUnkArray@ATL@@@ATL@@QAE@XZ 1000a33b f i ItemDispenserImpl.obj
 0001:0000933b       ??1?$IConnectionPointImpl@VCOPOSItemDispenser@@$1?DIID__IOPOSItemDispenserEvents@@3U_GUID@@BVCComDynamicUnkArray@ATL@@@ATL@@QAE@XZ 1000a33b f i ItemDispenserImpl.obj
 0001:00009378       ??1CComControlBase@ATL@@UAE@XZ 1000a378 f i ItemDispenserImpl.obj
 0001:000093db       ??1COPOSItemDispenser@@UAE@XZ 1000a3db f   ItemDispenserImpl.obj
 0001:00009423       ??1OposVariantResult@@QAE@XZ 1000a423 f i ItemDispenserImpl.obj
 0001:00009444       ??1_CW@@QAE@XZ             1000a444 f i ItemDispenserImpl.obj
 0001:0000945d       ?AdjustItemCount@COPOSItemDispenser@@UAGJJJPAJ@Z 1000a45d f   ItemDispenserImpl.obj
 0001:000094d1       ?CheckHealth@COPOSItemDispenser@@UAGJJPAJ@Z 1000a4d1 f   ItemDispenserImpl.obj
 0001:00009520       ?ClaimDevice@COPOSItemDispenser@@UAGJJPAJ@Z 1000a520 f   ItemDispenserImpl.obj
 0001:00009595       ?Close@COPOSItemDispenser@@UAGJPAJ@Z 1000a595 f   ItemDispenserImpl.obj
 0001:00009603       ?CompareFirmwareVersion@COPOSItemDispenser@@UAGJPA_WPAJ1@Z 1000a603 f   ItemDispenserImpl.obj
 0001:00009683       ?DirectIO@COPOSItemDispenser@@UAGJJPAJPAPA_W0@Z 1000a683 f   ItemDispenserImpl.obj
 0001:00009731       ?DispenseItem@COPOSItemDispenser@@UAGJPAJJ0@Z 1000a731 f   ItemDispenserImpl.obj
 0001:000097ad       ?DoInvoke@COPOSItemDispenser@@IAEJJPAVOposVariant@@IHPAJ_N@Z 1000a7ad f   ItemDispenserImpl.obj
 0001:0000986f       ?EventClose@COPOSItemDispenser@@IAEXXZ 1000a86f f i ItemDispenserImpl.obj
 0001:000098a2       ?EventInit@COPOSItemDispenser@@IAEJXZ 1000a8a2 f i ItemDispenserImpl.obj
 0001:0000996e       ?EventUninit@COPOSItemDispenser@@IAEXXZ 1000a96e f i ItemDispenserImpl.obj
 0001:000099c0       ?EventWindowProc@COPOSItemDispenser@@IAGJIIJ@Z 1000a9c0 f i ItemDispenserImpl.obj
 0001:00009a37       ?FinalConstruct@COPOSItemDispenser@@QAEJXZ 1000aa37 f   ItemDispenserImpl.obj
 0001:00009a70       ?FireEventCleanup@COPOSItemDispenser@@IAEXXZ 1000aa70 f i ItemDispenserImpl.obj
 0001:00009a86       ?FireEventSetup@COPOSItemDispenser@@IAE_NXZ 1000aa86 f i ItemDispenserImpl.obj
 0001:00009aba       ?FreezeEvents@COPOSItemDispenser@@MAGJH@Z 1000aaba f   ItemDispenserImpl.obj
 0001:00009b0b       ?GetOposProp@COPOSItemDispenser@@IAEJJPAFJ@Z 1000ab0b f   ItemDispenserImpl.obj
 0001:00009b2e       ?GetOposProp@COPOSItemDispenser@@IAEJJPAJJ@Z 1000ab2e f   ItemDispenserImpl.obj
 0001:00009bec       ?GetOposProp@COPOSItemDispenser@@IAEJJPAPA_WJ@Z 1000abec f   ItemDispenserImpl.obj
 0001:00009cb7       ?OnDraw@COPOSItemDispenser@@MAEJAAUATL_DRAWINFO@@@Z 1000acb7 f   ItemDispenserImpl.obj
 0001:00009d57       ?Open@COPOSItemDispenser@@UAGJPA_WPAJ@Z 1000ad57 f   ItemDispenserImpl.obj
 0001:0000a4f0       ?ReadItemCount@COPOSItemDispenser@@UAGJPAJJ0@Z 1000b4f0 f   ItemDispenserImpl.obj
 0001:0000a56c       ?ReleaseDevice@COPOSItemDispenser@@UAGJPAJ@Z 1000b56c f   ItemDispenserImpl.obj
 0001:0000a5bb       ?ResetStatistics@COPOSItemDispenser@@UAGJPA_WPAJ@Z 1000b5bb f   ItemDispenserImpl.obj
 0001:0000a612       ?RetrieveStatistics@COPOSItemDispenser@@UAGJPAPA_WPAJ@Z 1000b612 f   ItemDispenserImpl.obj
 0001:0000a669       ?SOProcessID@COPOSItemDispenser@@UAGJPAJ@Z 1000b669 f   ItemDispenserImpl.obj
 0001:0000a67d       ?SetCOFreezeEvents@COPOSItemDispenser@@IAEXF@Z 1000b67d f   ItemDispenserImpl.obj
 0001:0000a708       ?SetOposProp@COPOSItemDispenser@@IAEJJJJ@Z 1000b708 f   ItemDispenserImpl.obj
 0001:0000a7e6       ?UpdateFirmware@COPOSItemDispenser@@UAGJPA_WPAJ@Z 1000b7e6 f   ItemDispenserImpl.obj
 0001:0000a83d       ?UpdateStatistics@COPOSItemDispenser@@UAGJPA_WPAJ@Z 1000b83d f   ItemDispenserImpl.obj
 0001:0000a894       ?get_BinaryConversion@COPOSItemDispenser@@UAGJPAJ@Z 1000b894 f   ItemDispenserImpl.obj
 0001:0000a8aa       ?get_CapCompareFirmwareVersion@COPOSItemDispenser@@UAGJPAF@Z 1000b8aa f   ItemDispenserImpl.obj
 0001:0000a8c3       ?get_CapEmptySensor@COPOSItemDispenser@@UAGJPAF@Z 1000b8c3 f   ItemDispenserImpl.obj
 0001:0000a8dc       ?get_CapIndividualSlotStatus@COPOSItemDispenser@@UAGJPAF@Z 1000b8dc f   ItemDispenserImpl.obj
 0001:0000a8f5       ?get_CapJamSensor@COPOSItemDispenser@@UAGJPAF@Z 1000b8f5 f   ItemDispenserImpl.obj
 0001:0000a90e       ?get_CapNearEmptySensor@COPOSItemDispenser@@UAGJPAF@Z 1000b90e f   ItemDispenserImpl.obj
 0001:0000a927       ?get_CapPowerReporting@COPOSItemDispenser@@UAGJPAJ@Z 1000b927 f   ItemDispenserImpl.obj
 0001:0000a940       ?get_CapStatisticsReporting@COPOSItemDispenser@@UAGJPAF@Z 1000b940 f   ItemDispenserImpl.obj
 0001:0000a959       ?get_CapUpdateFirmware@COPOSItemDispenser@@UAGJPAF@Z 1000b959 f   ItemDispenserImpl.obj
 0001:0000a972       ?get_CapUpdateStatistics@COPOSItemDispenser@@UAGJPAF@Z 1000b972 f   ItemDispenserImpl.obj
 0001:0000a98b       ?get_CheckHealthText@COPOSItemDispenser@@UAGJPAPA_W@Z 1000b98b f   ItemDispenserImpl.obj
 0001:0000a9a4       ?get_Claimed@COPOSItemDispenser@@UAGJPAF@Z 1000b9a4 f   ItemDispenserImpl.obj
 0001:0000a9ba       ?get_ControlObjectDescription@COPOSItemDispenser@@UAGJPAPA_W@Z 1000b9ba f   ItemDispenserImpl.obj
 0001:0000a9f7       ?get_ControlObjectVersion@COPOSItemDispenser@@UAGJPAJ@Z 1000b9f7 f   ItemDispenserImpl.obj
 0001:0000aa0a       ?get_DeviceDescription@COPOSItemDispenser@@UAGJPAPA_W@Z 1000ba0a f   ItemDispenserImpl.obj
 0001:0000aa23       ?get_DeviceEnabled@COPOSItemDispenser@@UAGJPAF@Z 1000ba23 f   ItemDispenserImpl.obj
 0001:0000aa39       ?get_DeviceName@COPOSItemDispenser@@UAGJPAPA_W@Z 1000ba39 f   ItemDispenserImpl.obj
 0001:0000aa52       ?get_DispenserStatus@COPOSItemDispenser@@UAGJPAJ@Z 1000ba52 f   ItemDispenserImpl.obj
 0001:0000aa6b       ?get_FreezeEvents@COPOSItemDispenser@@UAGJPAF@Z 1000ba6b f   ItemDispenserImpl.obj
 0001:0000aa81       ?get_MaxSlots@COPOSItemDispenser@@UAGJPAJ@Z 1000ba81 f   ItemDispenserImpl.obj
 0001:0000aa9a       ?get_OpenResult@COPOSItemDispenser@@UAGJPAJ@Z 1000ba9a f   ItemDispenserImpl.obj
 0001:0000aab1       ?get_PowerNotify@COPOSItemDispenser@@UAGJPAJ@Z 1000bab1 f   ItemDispenserImpl.obj
 0001:0000aac7       ?get_PowerState@COPOSItemDispenser@@UAGJPAJ@Z 1000bac7 f   ItemDispenserImpl.obj
 0001:0000aadd       ?get_ResultCode@COPOSItemDispenser@@UAGJPAJ@Z 1000badd f   ItemDispenserImpl.obj
 0001:0000ab1b       ?get_ResultCodeExtended@COPOSItemDispenser@@UAGJPAJ@Z 1000bb1b f   ItemDispenserImpl.obj
 0001:0000ab31       ?get_ServiceObjectDescription@COPOSItemDispenser@@UAGJPAPA_W@Z 1000bb31 f   ItemDispenserImpl.obj
 0001:0000ab4a       ?get_ServiceObjectVersion@COPOSItemDispenser@@UAGJPAJ@Z 1000bb4a f   ItemDispenserImpl.obj
 0001:0000ab60       ?get_State@COPOSItemDispenser@@UAGJPAJ@Z 1000bb60 f   ItemDispenserImpl.obj
 0001:0000ab8c       ?put_BinaryConversion@COPOSItemDispenser@@UAGJJ@Z 1000bb8c f   ItemDispenserImpl.obj
 0001:0000aba2       ?put_DeviceEnabled@COPOSItemDispenser@@UAGJF@Z 1000bba2 f   ItemDispenserImpl.obj
 0001:0000abbf       ?put_FreezeEvents@COPOSItemDispenser@@UAGJF@Z 1000bbbf f   ItemDispenserImpl.obj
 0001:0000ac0b       ?put_PowerNotify@COPOSItemDispenser@@UAGJJ@Z 1000bc0b f   ItemDispenserImpl.obj
 0001:0000ac21       ?s_EventWindowProc@COPOSItemDispenser@@KGJPAUHWND__@@IIJ@Z 1000bc21 f i ItemDispenserImpl.obj
 0001:0000ac73       ??_U@YAPAXI@Z              1000bc73 f   LIBCMT:new_array.obj
 0001:0000ac7c       ??3@YAXPAXI@Z              1000bc7c f   LIBCMT:delete_scalar_size.obj
 0001:0000ac8a       ??_V@YAXPAX@Z              1000bc8a f   LIBCMT:delete_array.obj
 0001:0000ac8f       ??_V@YAXPAXI@Z             1000bc8f f   LIBCMT:delete_array_size.obj
 0001:0000ac9d       ??$__crt_fast_encode_pointer@P6GXPAU_RTL_CONDITION_VARIABLE@@@Z@@YAP6GXPAU_RTL_CONDITION_VARIABLE@@@ZQ6GX0@Z@Z 1000bc9d f i LIBCMT:thread_safe_statics.obj
 0001:0000ac9d       ??$__crt_fast_encode_pointer@PAX@@YAPAXQAX@Z 1000bc9d f i libvcruntime:winapi_downlevel.obj
 0001:0000ac9d       ??$__crt_fast_encode_pointer@P6GHPAU_RTL_CONDITION_VARIABLE@@PAU_RTL_CRITICAL_SECTION@@K@Z@@YAP6GHPAU_RTL_CONDITION_VARIABLE@@PAU_RTL_CRITICAL_SECTION@@K@ZQ6GH01K@Z@Z 1000bc9d f i LIBCMT:thread_safe_statics.obj
 0001:0000ac9d       ??$__crt_fast_encode_pointer@PAP6AXXZ@@YAPAP6AXXZQAP6AXXZ@Z 1000bc9d f i LIBCMT:utility.obj
 0001:0000acfe       ___scrt_acquire_startup_lock 1000bcfe f   LIBCMT:utility.obj
 0001:0000ad30       ___scrt_dllmain_after_initialize_c 1000bd30 f   LIBCMT:utility.obj
 0001:0000ad5b       ___scrt_dllmain_before_initialize_c 1000bd5b f   LIBCMT:utility.obj
 0001:0000ad69       ___scrt_dllmain_crt_thread_attach 1000bd69 f   LIBCMT:utility.obj
 0001:0000ad88       ___scrt_dllmain_crt_thread_detach 1000bd88 f   LIBCMT:utility.obj
 0001:0000ad95       ___scrt_dllmain_exception_filter 1000bd95 f   LIBCMT:utility.obj
 0001:0000adc9       ___scrt_dllmain_uninitialize_c 1000bdc9 f   LIBCMT:utility.obj
 0001:0000adec       ___scrt_dllmain_uninitialize_critical 1000bdec f   LIBCMT:utility.obj
 0001:0000adf9       ___scrt_initialize_crt     1000bdf9 f   LIBCMT:utility.obj
 0001:0000ae32       ___scrt_initialize_onexit_tables 1000be32 f   LIBCMT:utility.obj
 0001:0000aed7       ___scrt_is_nonwritable_in_current_image 1000bed7 f   LIBCMT:utility.obj
 0001:0000af6b       ___scrt_release_startup_lock 1000bf6b f   LIBCMT:utility.obj
 0001:0000af88       ___scrt_uninitialize_crt   1000bf88 f   LIBCMT:utility.obj
 0001:0000afb0       __onexit                   1000bfb0 f   LIBCMT:utility.obj
 0001:0000afeb       _atexit                    1000bfeb f   LIBCMT:utility.obj
 0001:0000b000       ??3@YAXPAX@Z               1000c000 f   LIBCMT:delete_scalar.obj
 0001:0000b137       __Init_thread_footer       1000c137 f   LIBCMT:thread_safe_statics.obj
 0001:0000b181       __Init_thread_header       1000c181 f   LIBCMT:thread_safe_statics.obj
 0001:0000b1d3       __Init_thread_notify       1000c1d3 f   LIBCMT:thread_safe_statics.obj
 0001:0000b215       __Init_thread_wait         1000c215 f   LIBCMT:thread_safe_statics.obj
 0001:0000b275       ___raise_securityfailure   1000c275 f   LIBCMT:gs_report.obj
 0001:0000b29d       ___report_gsfailure        1000c29d f   LIBCMT:gs_report.obj
 0001:0000b396       ___report_rangecheckfailure 1000c396 f   LIBCMT:gs_report.obj
 0001:0000b3a2       ___report_securityfailure  1000c3a2 f   LIBCMT:gs_report.obj
 0001:0000b470       ??2@YAPAXIABUnothrow_t@std@@@Z 1000c470 f   LIBCMT:new_scalar_nothrow.obj
 0001:0000b4c0       ??_U@YAPAXIABUnothrow_t@std@@@Z 1000c4c0 f   LIBCMT:new_array_nothrow.obj
 0001:0000b4c9       @__security_check_cookie@4 1000c4c9 f   LIBCMT:_secchk_.obj
 0001:0000b4e0       __SEH_prolog4_GS           1000c4e0 f   LIBCMT:_sehprolg4gs_.obj
 0001:0000b529       __SEH_epilog4_GS           1000c529 f   LIBCMT:_sehprolg4gs_.obj
 0001:0000b540       __alloca_probe_16          1000c540 f   LIBCMT:alloca16.obj
 0001:0000b556       __alloca_probe_8           1000c556     LIBCMT:alloca16.obj
 0001:0000b570       __chkstk                   1000c570 f   LIBCMT:chkstk.obj
 0001:0000b570       __alloca_probe             1000c570 f   LIBCMT:chkstk.obj
 0001:0000b8bd       __DllMainCRTStartup@12     1000c8bd f   LIBCMT:dll_dllmain.obj
 0001:0000b8e0       ??2@YAPAXI@Z               1000c8e0 f   LIBCMT:new_scalar.obj
 0001:0000b910       ___isa_available_init      1000c910 f   LIBCMT:_cpu_disp_.obj
 0001:0000baa7       ___scrt_is_ucrt_dll_in_use 1000caa7 f   LIBCMT:ucrt_detection.obj
 0001:0000bab3       ___scrt_fastfail           1000cab3 f   LIBCMT:utility_desktop.obj
 0001:0000bbcd       __crt_debugger_hook        1000cbcd f   LIBCMT:utility_desktop.obj
 0001:0000bbe0       __SEH_prolog4              1000cbe0 f   LIBCMT:_sehprolg4_.obj
 0001:0000bc26       __SEH_epilog4              1000cc26 f   LIBCMT:_sehprolg4_.obj
 0001:0000bc3b       @_guard_check_icall_nop@4  1000cc3b f i LIBCMT:guard_support.obj
 0001:0000bc89       ___security_init_cookie    1000cc89 f   LIBCMT:gs_support.obj
 0001:0000bcd4       ?__scrt_initialize_type_info@@YAXXZ 1000ccd4 f   LIBCMT:tncleanup.obj
 0001:0000bce0       ?__scrt_uninitialize_type_info@@YAXXZ 1000cce0 f   LIBCMT:tncleanup.obj
 0001:0000bcec       ___local_stdio_scanf_options 1000ccec f i LIBCMT:default_local_stdio_options.obj
 0001:0000bcf2       ___scrt_initialize_default_local_stdio_options 1000ccf2 f   LIBCMT:default_local_stdio_options.obj
 0001:0000bd0f       ___scrt_get_dyn_tls_init_callback 1000cd0f f   LIBCMT:dyn_tls_init.obj
 0001:0000bd15       __RTC_Initialize           1000cd15 f   LIBCMT:_initsect_.obj
 0001:0000bd41       __RTC_Terminate            1000cd41 f   LIBCMT:_initsect_.obj
 0001:0000bd6d       ??0bad_alloc@std@@QAE@ABV01@@Z 1000cd6d f i LIBCMT:throw_bad_alloc.obj
 0001:0000bd88       ??0bad_alloc@std@@QAE@XZ   1000cd88 f i LIBCMT:throw_bad_alloc.obj
 0001:0000bda0       ??0bad_array_new_length@std@@QAE@ABV01@@Z 1000cda0 f i LIBCMT:throw_bad_alloc.obj
 0001:0000bdbb       ??0bad_array_new_length@std@@QAE@XZ 1000cdbb f i LIBCMT:throw_bad_alloc.obj
 0001:0000bdd3       ??0exception@std@@QAE@ABV01@@Z 1000cdd3 f i LIBCMT:throw_bad_alloc.obj
 0001:0000bdff       ??1bad_exception@std@@UAE@XZ 1000cdff f i libvcruntime:frame.obj
 0001:0000bdff       ??1bad_array_new_length@std@@UAE@XZ 1000cdff f i LIBCMT:throw_bad_alloc.obj
 0001:0000bdff       ??1bad_alloc@std@@UAE@XZ   1000cdff f i LIBCMT:throw_bad_alloc.obj
 0001:0000be10       ??_Ebad_exception@std@@UAEPAXI@Z 1000ce10 f i libvcruntime:frame.obj
 0001:0000be10       ??_Eexception@std@@UAEPAXI@Z 1000ce10 f i LIBCMT:throw_bad_alloc.obj
 0001:0000be10       ??_Gbad_array_new_length@std@@UAEPAXI@Z 1000ce10 f i LIBCMT:throw_bad_alloc.obj
 0001:0000be10       ??_Ebad_array_new_length@std@@UAEPAXI@Z 1000ce10 f i LIBCMT:throw_bad_alloc.obj
 0001:0000be10       ??_Gbad_exception@std@@UAEPAXI@Z 1000ce10 f i libvcruntime:frame.obj
 0001:0000be10       ??_Gbad_alloc@std@@UAEPAXI@Z 1000ce10 f i LIBCMT:throw_bad_alloc.obj
 0001:0000be10       ??_Gexception@std@@UAEPAXI@Z 1000ce10 f i LIBCMT:throw_bad_alloc.obj
 0001:0000be10       ??_Ebad_alloc@std@@UAEPAXI@Z 1000ce10 f i LIBCMT:throw_bad_alloc.obj
 0001:0000be3d       ?__scrt_throw_std_bad_alloc@@YAXXZ 1000ce3d f   LIBCMT:throw_bad_alloc.obj
 0001:0000be5a       ?__scrt_throw_std_bad_array_new_length@@YAXXZ 1000ce5a f   LIBCMT:throw_bad_alloc.obj
 0001:0000be77       ?what@exception@std@@UBEPBDXZ 1000ce77 f i LIBCMT:throw_bad_alloc.obj
 0001:0000be84       ??_Gtype_info@@UAEPAXI@Z   1000ce84 f i LIBCMT:std_type_info_static.obj
 0001:0000be84       ??_Etype_info@@UAEPAXI@Z   1000ce84 f i LIBCMT:std_type_info_static.obj
 0001:0000bea7       ??0CAtlBaseModule@ATL@@QAE@XZ 1000cea7 f   atls:atlbase.obj
 0001:0000befa       ??0_ATL_BASE_MODULE70@ATL@@QAE@XZ 1000cefa f i atls:atlbase.obj
 0001:0000bf1d       ??1CAtlBaseModule@ATL@@QAE@XZ 1000cf1d f   atls:atlbase.obj
 0001:0000c00a       ?Init@_stdcallthunk@ATL@@QAEHKPAX@Z 1000d00a f i atls:atlthunk.obj
 0001:0000c03f       ?__AllocStdCallThunk_cmn@@YAPAXXZ 1000d03f f   atls:atlthunk.obj
 0001:0000c105       ?__FreeStdCallThunk_cmn@@YAXPAX@Z 1000d105 f   atls:atlthunk.obj
 0001:0000c1a0       _AtlThunk_AllocateData@0   1000d1a0 f   atls:atlthunk.obj
 0001:0000c205       _AtlThunk_DataToCode@4     1000d205 f   atls:atlthunk.obj
 0001:0000c24c       _AtlThunk_FreeData@4       1000d24c f   atls:atlthunk.obj
 0001:0000c2a2       _AtlThunk_InitData@12      1000d2a2 f   atls:atlthunk.obj
 0001:0000c2f1       __get_purecall_handler     1000d2f1 f   libvcruntime:purevirt.obj
 0001:0000c306       __purecall                 1000d306 f   libvcruntime:purevirt.obj
 0001:0000c322       _wcsstr                    1000d322 f   libvcruntime:wcsstr.obj
 0001:0000c5e0       __except_handler4          1000d5e0 f   libvcruntime:_chandler4_.obj
 0001:0000c737       _memcmp                    1000d737 f   libvcruntime:_memcmp_.obj
 0001:0000d6e0       _memcpy                    1000e6e0 f   libvcruntime:memcpy.obj
 0001:0000dc60       _memset                    1000ec60 f   libvcruntime:memset.obj
 0001:0000ddba       ___vcrt_initialize         1000edba f   libvcruntime:initialization.obj
 0001:0000dde3       ___vcrt_thread_attach      1000ede3 f   libvcruntime:initialization.obj
 0001:0000ddee       ___vcrt_thread_detach      1000edee f   libvcruntime:initialization.obj
 0001:0000ddf9       ___vcrt_uninitialize       1000edf9 f   libvcruntime:initialization.obj
 0001:0000de18       ___vcrt_uninitialize_critical 1000ee18 f   libvcruntime:initialization.obj
 0001:0000de20       ?GetRangeOfTrysToCheck@__FrameHandler3@@SA?AU?$pair@Viterator@TryBlockMap@__FrameHandler3@@V123@@std@@AAVTryBlockMap@1@HH@Z 1000ee20 f   libvcruntime:trnsctrl.obj
 0001:0000dea2       ?_CallCatchBlock2@@YAPAXPAUEHRegistrationNode@@PBU_s_FuncInfo@@PAXHK@Z 1000eea2 f   libvcruntime:trnsctrl.obj
 0001:0000df00       ?_CallSETranslator@@YAHPAUEHExceptionRecord@@PAUEHRegistrationNode@@PAX2PBU_s_FuncInfo@@H1@Z 1000ef00 f   libvcruntime:trnsctrl.obj
 0001:0000dfdb       ?_JumpToContinuation@@YGXPAXPAUEHRegistrationNode@@@Z 1000efdb f   libvcruntime:trnsctrl.obj
 0001:0000e00b       ?_UnwindNestedFrames@@YGXPAUEHRegistrationNode@@PAUEHExceptionRecord@@@Z 1000f00b f   libvcruntime:trnsctrl.obj
 0001:0000e05e       __CatchGuardHandler        1000f05e f   libvcruntime:trnsctrl.obj
 0001:0000e08f       __CreateFrameInfo          1000f08f f   libvcruntime:trnsctrl.obj
 0001:0000e0b3       __FindAndUnlinkFrame       1000f0b3 f   libvcruntime:trnsctrl.obj
 0001:0000e0f8       __TranslatorGuardHandler   1000f0f8 f   libvcruntime:trnsctrl.obj
 0001:0000e195       ___CxxFrameHandler3        1000f195 f   libvcruntime:trnsctrl.obj
 0001:0000e1cb       ___std_type_info_compare   1000f1cb f   libvcruntime:std_type_info.obj
 0001:0000e207       ___std_type_info_destroy_list 1000f207 f   libvcruntime:std_type_info.obj
 0001:0000e22a       ___std_exception_copy      1000f22a f   libvcruntime:std_exception.obj
 0001:0000e28d       ___std_exception_destroy   1000f28d f   libvcruntime:std_exception.obj
 0001:0000e2ac       __CxxThrowException@8      1000f2ac f   libvcruntime:throw.obj
 0001:0000e320       _memmove                   1000f320 f   libvcruntime:memmove.obj
 0001:0000e894       ___vcrt_initialize_pure_virtual_call_handler 1000f894 f   libvcruntime:purevirt_data.obj
 0001:0000e8a0       __local_unwind4            1000f8a0 f   libvcruntime:_exsup4_.obj
 0001:0000e978       __seh_longjmp_unwind4@4    1000f978 f   libvcruntime:_exsup4_.obj
 0001:0000e9a0       @_EH4_CallFilterFunc@8     1000f9a0 f   libvcruntime:_exsup4_.obj
 0001:0000e9b8       @_EH4_TransferToHandler@8  1000f9b8 f   libvcruntime:_exsup4_.obj
 0001:0000e9d4       @_EH4_GlobalUnwind2@8      1000f9d4 f   libvcruntime:_exsup4_.obj
 0001:0000e9f0       @_EH4_LocalUnwind@16       1000f9f0 f   libvcruntime:_exsup4_.obj
 0001:0000ea07       ___except_validate_context_record 1000fa07 f   libvcruntime:jbcxrval.obj
 0001:0000ea37       ___except_validate_jump_buffer 1000fa37 f   libvcruntime:jbcxrval.obj
 0001:0000ea64       ___vcrt_freefls@4          1000fa64 f   libvcruntime:per_thread_data.obj
 0001:0000ea80       ___vcrt_freeptd            1000fa80 f   libvcruntime:per_thread_data.obj
 0001:0000eab6       ___vcrt_getptd             1000fab6 f   libvcruntime:per_thread_data.obj
 0001:0000eac4       ___vcrt_getptd_noexit      1000fac4 f   libvcruntime:per_thread_data.obj
 0001:0000eb56       ___vcrt_initialize_ptd     1000fb56 f   libvcruntime:per_thread_data.obj
 0001:0000eb89       ___vcrt_uninitialize_ptd   1000fb89 f   libvcruntime:per_thread_data.obj
 0001:0000eba4       ___vcrt_initialize_locks   1000fba4 f   libvcruntime:locks.obj
 0001:0000ebe0       ___vcrt_uninitialize_locks 1000fbe0 f   libvcruntime:locks.obj
 0001:0000ed42       ___vcrt_FlsAlloc           1000fd42 f   libvcruntime:winapi_downlevel.obj
 0001:0000ed7d       ___vcrt_FlsFree            1000fd7d f   libvcruntime:winapi_downlevel.obj
 0001:0000edb8       ___vcrt_FlsGetValue        1000fdb8 f   libvcruntime:winapi_downlevel.obj
 0001:0000edf3       ___vcrt_FlsSetValue        1000fdf3 f   libvcruntime:winapi_downlevel.obj
 0001:0000ee31       ___vcrt_InitializeCriticalSectionEx 1000fe31 f   libvcruntime:winapi_downlevel.obj
 0001:0000ee78       ___vcrt_initialize_winapi_thunks 1000fe78 f   libvcruntime:winapi_downlevel.obj
 0001:0000eea1       ___vcrt_uninitialize_winapi_thunks 1000fea1 f   libvcruntime:winapi_downlevel.obj
 0001:0000f5ca       ??$TypeMatchHelper@$$CBU_s_HandlerType@@@@YAHPBU_s_HandlerType@@PBU_s_CatchableType@@PBU_s_ThrowInfo@@@Z 100105ca f i libvcruntime:frame.obj
 0001:0000f658       ??$__InternalCxxFrameHandler@V__FrameHandler3@@@@YA?AW4_EXCEPTION_DISPOSITION@@PAUEHExceptionRecord@@PAUEHRegistrationNode@@PAU_CONTEXT@@PAXPBU_s_FuncInfo@@H1E@Z 10010658 f i libvcruntime:frame.obj
 0001:0000f75a       ??0bad_exception@std@@QAE@ABV01@@Z 1001075a f i libvcruntime:frame.obj
 0001:0000f775       ??0bad_exception@std@@QAE@XZ 10010775 f i libvcruntime:frame.obj
 0001:0000f78d       ??8type_info@@QBE_NABV0@@Z 1001078d f i libvcruntime:frame.obj
 0001:0000f9f4       ?FrameUnwindToEmptyState@__FrameHandler3@@SAXPAUEHRegistrationNode@@PAXPBU_s_FuncInfo@@@Z 100109f4 f   libvcruntime:frame.obj
 0001:0000fa0c       ?FrameUnwindToState@__FrameHandler3@@SAXPAUEHRegistrationNode@@PAXPBU_s_FuncInfo@@H@Z 10010a0c f   libvcruntime:frame.obj
 0001:0000fb8e       ?_CallMemberFunction1@@YGXQAX00@Z 10010b8e f i libvcruntime:frame.obj
 0001:0000fb9e       ?_CallMemberFunction2@@YGXQAX00H@Z 10010b9e f i libvcruntime:frame.obj
 0001:0000fbb1       ?getESTypes@__FrameHandler3@@SAPBU_s_ESTypeList@@PBU_s_FuncInfo@@@Z 10010bb1 f i libvcruntime:frame.obj
 0001:0000fbc0       __CallSettingFrame@12      10010bc0 f   libvcruntime:lowhelpr.obj
 0001:0000fbe7       __NLG_Return               10010be7     libvcruntime:lowhelpr.obj
 0001:0000fc10       __global_unwind2           10010c10 f   libvcruntime:_exsup_.obj
 0001:0000fc76       __local_unwind2            10010c76 f   libvcruntime:_exsup_.obj
 0001:0000fcfa       __abnormal_termination     10010cfa f   libvcruntime:_exsup_.obj
 0001:0000fd20       __NLG_Notify1              10010d20 f   libvcruntime:_exsup_.obj
 0001:0000fd2c       __NLG_Notify               10010d2c f   libvcruntime:_exsup_.obj
 0001:0000fd43       __NLG_Dispatch2            10010d43     libvcruntime:_exsup_.obj
 0001:0000fd43       __NLG_Dispatch             10010d43     libvcruntime:_exsup_.obj
 0001:0000fd4b       __NLG_Call                 10010d4b f   libvcruntime:_exsup_.obj
 0001:0000fd4d       __NLG_Return2              10010d4d     libvcruntime:_exsup_.obj
 0001:0000fd4e       _unexpected                10010d4e f   libvcruntime:unexpected.obj
 0001:0000fd6b       ?GetCurrentState@__FrameHandler3@@SAHPAUEHRegistrationNode@@PAXPBU_s_FuncInfo@@@Z 10010d6b f   libvcruntime:ehstate.obj
 0001:0000fd88       ?SetState@__FrameHandler3@@SAXPAUEHRegistrationNode@@PBU_s_FuncInfo@@H@Z 10010d88 f   libvcruntime:ehstate.obj
 0001:0000fd96       ___DestructExceptionObject 10010d96 f   libvcruntime:ehhelpers.obj
 0001:0000fe36       ?_CallMemberFunction0@@YGXQAX0@Z 10010e36 f i libvcruntime:ehhelpers.obj
 0001:0000fe43       __IsExceptionObjectToBeDestroyed 10010e43 f   libvcruntime:ehhelpers.obj
 0001:0000fe69       ___AdjustPointer           10010e69 f   libvcruntime:ehhelpers.obj
 0001:0000fe8e       ___FrameUnwindFilter       10010e8e f   libvcruntime:ehhelpers.obj
 0001:0000fed3       _free                      10010ed3 f   libucrt:free.obj
 0001:0000fef0       ___acrt_call_reportfault   10010ef0 f   libucrt:invalid_parameter.obj
 0001:0001002b       ___acrt_initialize_invalid_parameter_handler 1001102b f   libucrt:invalid_parameter.obj
 0001:0001003a       __invalid_parameter        1001103a f   libucrt:invalid_parameter.obj
 0001:000100b5       __invalid_parameter_noinfo 100110b5 f   libucrt:invalid_parameter.obj
 0001:000100c5       __invoke_watson            100110c5 f   libucrt:invalid_parameter.obj
 0001:000100f8       ___acrt_errno_from_os_error 100110f8 f   libucrt:errno.obj
 0001:0001013b       ___acrt_errno_map_os_error 1001113b f   libucrt:errno.obj
 0001:0001015e       ___doserrno                1001115e f   libucrt:errno.obj
 0001:00010171       __errno                    10011171 f   libucrt:errno.obj
 0001:00010184       _calloc                    10011184 f   libucrt:calloc.obj
 0001:0001018f       _malloc                    1001118f f   libucrt:malloc.obj
 0001:0001019a       __recalloc                 1001119a f   libucrt:recalloc.obj
 0001:000101a5       __recalloc_base            100111a5 f   libucrt:recalloc.obj
 0001:00010212       __resetstkoflw             10011212 f   libucrt:resetstk.obj
 0001:000102e3       _wcscat_s                  100112e3 f   libucrt:wcscat_s.obj
 0001:00010358       _wcscpy_s                  10011358 f   libucrt:wcscpy_s.obj
 0001:00010489       _wcsncpy_s                 10011489 f   libucrt:wcsncpy_s.obj
 0001:00010697       ??$count@D@formatting_buffer@__crt_stdio_output@@QBEIXZ 10011697 f i libucrt:output.obj
 0001:000106af       ??$count@_W@formatting_buffer@__crt_stdio_output@@QBEIXZ 100116af f i libucrt:output.obj
 0001:000106c8       ??$ensure_buffer_is_big_enough@D@formatting_buffer@__crt_stdio_output@@QAE_NI@Z 100116c8 f i libucrt:output.obj
 0001:0001074e       ??$is_wide_character_specifier@_W@__crt_stdio_output@@YA_N_K_WW4length_modifier@0@@Z 1001174e f i libucrt:output.obj
 0001:0001079d       ??$scratch_data@D@formatting_buffer@__crt_stdio_output@@QAEPADXZ 1001179d f i libucrt:output.obj
 0001:000107bb       ??$type_case_integer_parse_into_buffer@I@?$output_processor@_WV?$string_output_adapter@_W@__crt_stdio_output@@V?$format_validation_base@_WV?$string_output_adapter@_W@__crt_stdio_output@@@2@@__crt_stdio_output@@AAEXII_N@Z 100117bb f i libucrt:output.obj
 0001:00010841       ??$type_case_integer_parse_into_buffer@_K@?$output_processor@_WV?$string_output_adapter@_W@__crt_stdio_output@@V?$format_validation_base@_WV?$string_output_adapter@_W@__crt_stdio_output@@@2@@__crt_stdio_output@@AAEX_KI_N@Z 10011841 f i libucrt:output.obj
 0001:000108dc       ??$write_multiple_characters@V?$string_output_adapter@_W@__crt_stdio_output@@D@__crt_stdio_output@@YAXABV?$string_output_adapter@_W@0@DHQAH@Z 100118dc f i libucrt:output.obj
 0001:0001090d       ??0?$common_data@_W@__crt_stdio_output@@IAE@XZ 1001190d f i libucrt:output.obj
 0001:00010959       ??0?$output_adapter_data@_WV?$string_output_adapter@_W@__crt_stdio_output@@@__crt_stdio_output@@IAE@ABV?$string_output_adapter@_W@1@_KQB_WQAU__crt_locale_pointers@@QAD@Z 10011959 f i libucrt:output.obj
 0001:00010995       ??0_LocaleUpdate@@QAE@QAU__crt_locale_pointers@@@Z 10011995 f i libucrt:output.obj
 0001:00010a18       ??1formatting_buffer@__crt_stdio_output@@QAE@XZ 10011a18 f i libucrt:output.obj
 0001:00010a32       ??4?$__crt_unique_heap_ptr@DU__crt_internal_free_policy@@@@QAEAAV0@$$QAV0@@Z 10011a32 f i libucrt:output.obj
 0001:00010a56       ?crop_zeroes@__crt_stdio_output@@YAXPADQAU__crt_locale_pointers@@@Z 10011a56 f i libucrt:output.obj
 0001:00010aad       ?find_next_state@?$output_processor@_WV?$string_output_adapter@_W@__crt_stdio_output@@V?$format_validation_base@_WV?$string_output_adapter@_W@__crt_stdio_output@@@2@@__crt_stdio_output@@ABE?AW4state@2@_WW432@@Z 10011aad f i libucrt:output.obj
 0001:00010ae4       ?force_decimal_point@__crt_stdio_output@@YAXPADQAU__crt_locale_pointers@@@Z 10011ae4 f i libucrt:output.obj
 0001:00010b40       ?parse_int_from_format_string@?$output_processor@_WV?$string_output_adapter@_W@__crt_stdio_output@@V?$format_validation_base@_WV?$string_output_adapter@_W@__crt_stdio_output@@@2@@__crt_stdio_output@@AAE_NQAH@Z 10011b40 f i libucrt:output.obj
 0001:00010bba       ?process@?$output_processor@_WV?$string_output_adapter@_W@__crt_stdio_output@@V?$format_validation_base@_WV?$string_output_adapter@_W@__crt_stdio_output@@@2@@__crt_stdio_output@@QAEHXZ 10011bba f i libucrt:output.obj
 0001:00010cea       ?state_case_flag@?$output_processor@_WV?$string_output_adapter@_W@__crt_stdio_output@@V?$format_validation_base@_WV?$string_output_adapter@_W@__crt_stdio_output@@@2@@__crt_stdio_output@@AAE_NXZ 10011cea f i libucrt:output.obj
 0001:00010d27       ?state_case_normal@?$output_processor@_WV?$string_output_adapter@_W@__crt_stdio_output@@V?$format_validation_base@_WV?$string_output_adapter@_W@__crt_stdio_output@@@2@@__crt_stdio_output@@AAE_NXZ 10011d27 f i libucrt:output.obj
 0001:00010d46       ?state_case_normal_common@?$output_processor@_WV?$string_output_adapter@_W@__crt_stdio_output@@V?$format_validation_base@_WV?$string_output_adapter@_W@__crt_stdio_output@@@2@@__crt_stdio_output@@AAE_NXZ 10011d46 f i libucrt:output.obj
 0001:00010d61       ?state_case_precision@?$output_processor@_WV?$string_output_adapter@_W@__crt_stdio_output@@V?$format_validation_base@_WV?$string_output_adapter@_W@__crt_stdio_output@@@2@@__crt_stdio_output@@AAE_NXZ 10011d61 f i libucrt:output.obj
 0001:00010d8a       ?state_case_size@?$output_processor@_WV?$string_output_adapter@_W@__crt_stdio_output@@V?$format_validation_base@_WV?$string_output_adapter@_W@__crt_stdio_output@@@2@@__crt_stdio_output@@AAE_NXZ 10011d8a f i libucrt:output.obj
 0001:00010f06       ?state_case_type@?$output_processor@_WV?$string_output_adapter@_W@__crt_stdio_output@@V?$format_validation_base@_WV?$string_output_adapter@_W@__crt_stdio_output@@@2@@__crt_stdio_output@@AAE_NXZ 10011f06 f i libucrt:output.obj
 0001:00011164       ?state_case_width@?$output_processor@_WV?$string_output_adapter@_W@__crt_stdio_output@@V?$format_validation_base@_WV?$string_output_adapter@_W@__crt_stdio_output@@@2@@__crt_stdio_output@@AAE_NXZ 10012164 f i libucrt:output.obj
 0001:00011190       ?to_integer_size@__crt_stdio_output@@YAIW4length_modifier@1@@Z 10012190 f i libucrt:output.obj
 0001:000111ec       ?type_case_Z@?$output_processor@_WV?$string_output_adapter@_W@__crt_stdio_output@@V?$format_validation_base@_WV?$string_output_adapter@_W@__crt_stdio_output@@@2@@__crt_stdio_output@@AAE_NXZ 100121ec f i libucrt:output.obj
 0001:0001124f       ?type_case_a@?$output_processor@_WV?$string_output_adapter@_W@__crt_stdio_output@@V?$format_validation_base@_WV?$string_output_adapter@_W@__crt_stdio_output@@@2@@__crt_stdio_output@@AAE_NXZ 1001224f f i libucrt:output.obj
 0001:000113c1       ?type_case_c_tchar@?$output_processor@_WV?$string_output_adapter@_W@__crt_stdio_output@@V?$format_validation_base@_WV?$string_output_adapter@_W@__crt_stdio_output@@@2@@__crt_stdio_output@@AAE_N_W@Z 100123c1 f i libucrt:output.obj
 0001:00011459       ?type_case_integer@?$output_processor@_WV?$string_output_adapter@_W@__crt_stdio_output@@V?$format_validation_base@_WV?$string_output_adapter@_W@__crt_stdio_output@@@2@@__crt_stdio_output@@AAE_NI_N@Z 10012459 f i libucrt:output.obj
 0001:000115ab       ?type_case_n@?$output_processor@_WV?$string_output_adapter@_W@__crt_stdio_output@@V?$format_validation_base@_WV?$string_output_adapter@_W@__crt_stdio_output@@@2@@__crt_stdio_output@@AAE_NXZ 100125ab f i libucrt:output.obj
 0001:0001161f       ?type_case_o@?$output_processor@_WV?$string_output_adapter@_W@__crt_stdio_output@@V?$format_validation_base@_WV?$string_output_adapter@_W@__crt_stdio_output@@@2@@__crt_stdio_output@@AAE_NXZ 1001261f f i libucrt:output.obj
 0001:0001163e       ?type_case_p@?$output_processor@_WV?$string_output_adapter@_W@__crt_stdio_output@@V?$format_validation_base@_WV?$string_output_adapter@_W@__crt_stdio_output@@@2@@__crt_stdio_output@@AAE_NXZ 1001263e f i libucrt:output.obj
 0001:00011656       ?type_case_s@?$output_processor@_WV?$string_output_adapter@_W@__crt_stdio_output@@V?$format_validation_base@_WV?$string_output_adapter@_W@__crt_stdio_output@@@2@@__crt_stdio_output@@AAE_NXZ 10012656 f i libucrt:output.obj
 0001:000116ca       ?type_case_s_compute_narrow_string_length@?$output_processor@_WV?$string_output_adapter@_W@__crt_stdio_output@@V?$format_validation_base@_WV?$string_output_adapter@_W@__crt_stdio_output@@@2@@__crt_stdio_output@@ABEHH_W@Z 100126ca f i libucrt:output.obj
 0001:0001170a       ?validate@?$string_output_adapter@_W@__crt_stdio_output@@QBE_NXZ 1001270a f i libucrt:output.obj
 0001:0001170a       ?validate@?$c_string_character_source@_W@__crt_strtox@@QBE_NXZ 1001270a f i libucrt:atox.obj
 0001:00011725       ?validate_and_update_state_at_end_of_format_string@?$format_validation_base@_WV?$string_output_adapter@_W@__crt_stdio_output@@@__crt_stdio_output@@IBE_NXZ 10012725 f i libucrt:output.obj
 0001:00011747       ?write_character@?$string_output_adapter@_W@__crt_stdio_output@@QBE_N_WQAH@Z 10012747 f i libucrt:output.obj
 0001:0001178c       ?write_stored_string_tchar@?$output_processor@_WV?$string_output_adapter@_W@__crt_stdio_output@@V?$format_validation_base@_WV?$string_output_adapter@_W@__crt_stdio_output@@@2@@__crt_stdio_output@@AAE_N_W@Z 1001278c f i libucrt:output.obj
 0001:00011818       ?write_string@?$string_output_adapter@_W@__crt_stdio_output@@QBEXQB_WHQAHAAV__crt_deferred_errno_cache@@@Z 10012818 f i libucrt:output.obj
 0001:0001188b       ___stdio_common_vswprintf_s 1001288b f   libucrt:output.obj
 0001:000118af       __seh_filter_dll           100128af f   libucrt:exception_filter.obj
 0001:000118cf       __seh_filter_exe           100128cf f   libucrt:exception_filter.obj
 0001:00011a42       ??$?RV<lambda_03b1d95aef87969028cfba75ccab2455>@@AAV<lambda_6e4b09c48022b2350581041d5f6b0c4c>@@V<lambda_22bdf7517842c4b3e53723af5aa32b9e>@@@?$__crt_seh_guarded_call@X@@QAEX$$QAV<lambda_03b1d95aef87969028cfba75ccab2455>@@AAV<lambda_6e4b09c48022b2350581041d5f6b0c4c>@@$$QAV<lambda_22bdf7517842c4b3e53723af5aa32b9e>@@@Z 10012a42 f i libucrt:exit.obj
 0001:00011a85       ??$__acrt_lock_and_call@V<lambda_6e4b09c48022b2350581041d5f6b0c4c>@@@@YAXW4__acrt_lock_id@@$$QAV<lambda_6e4b09c48022b2350581041d5f6b0c4c>@@@Z 10012a85 f i libucrt:exit.obj
 0001:00011ce2       ___acrt_initialize_thread_local_exit_callback 10012ce2 f   libucrt:exit.obj
 0001:00011cf1       __cexit                    10012cf1 f   libucrt:exit.obj
 0001:00011d00       __exit                     10012d00 f   libucrt:exit.obj
 0001:00011d16       __is_c_termination_complete 10012d16 f   libucrt:exit.obj
 0001:00011fc7       ___acrt_allocate_buffer_for_argv 10012fc7 f   libucrt:argv_parsing.obj
 0001:0001201c       __configure_narrow_argv    1001301c f   libucrt:argv_parsing.obj
 0001:00012180       ??$uninitialize@A6AXAAPAPA_W@Z@?$dual_state_global@PAPA_W@__crt_state_management@@QAEXA6AXAAPAPA_W@Z@Z 10013180 f i libucrt:environment_initialization.obj
 0001:00012180       ??$uninitialize@A6AXAAPAPAD@Z@?$dual_state_global@PAPAD@__crt_state_management@@QAEXA6AXAAPAPAD@Z@Z 10013180 f i libucrt:environment_initialization.obj
 0001:000121f6       ?initialize@?$dual_state_global@PAU__crt_locale_data@@@__crt_state_management@@QAEXQAU__crt_locale_data@@@Z 100131f6 f i libucrt:initialization.obj
 0001:000121f6       ?initialize@?$dual_state_global@P6AHPAU_exception@@@Z@__crt_state_management@@QAEXQ6AHPAU_exception@@@Z@Z 100131f6 f i libucrt:matherr.obj
 0001:000121f6       ?initialize@?$dual_state_global@P6AXH@Z@__crt_state_management@@QAEXQ6AXH@Z@Z 100131f6 f i libucrt:signal.obj
 0001:000121f6       ?initialize@?$dual_state_global@P6AHI@Z@__crt_state_management@@QAEXQ6AHI@Z@Z 100131f6 f i libucrt:new_handler.obj
 0001:000121f6       ?initialize@?$dual_state_global@PAU__crt_multibyte_data@@@__crt_state_management@@QAEXQAU__crt_multibyte_data@@@Z 100131f6 f i libucrt:mbctype.obj
 0001:000121f6       ?initialize@?$dual_state_global@PAPAD@__crt_state_management@@QAEXQAPAD@Z 100131f6 f i libucrt:environment_initialization.obj
 0001:00012227       ___dcrt_uninitialize_environments_nolock 10013227 f   libucrt:environment_initialization.obj
 0001:0001225e       __initialize_narrow_environment 1001325e f   libucrt:environment_initialization.obj
 0001:00012263       ??$?RV<lambda_69a2805e680e0e292e8ba93315fe43a8>@@AAV<lambda_f03950bc5685219e0bcd2087efbe011e>@@V<lambda_03fcd07e894ec930e3f35da366ca99d6>@@@?$__crt_seh_guarded_call@H@@QAEH$$QAV<lambda_69a2805e680e0e292e8ba93315fe43a8>@@AAV<lambda_f03950bc5685219e0bcd2087efbe011e>@@$$QAV<lambda_03fcd07e894ec930e3f35da366ca99d6>@@@Z 10013263 f i libucrt:onexit.obj
 0001:000122b4       ??$?RV<lambda_8e746cf0007f6ed984d6f78af1fec997>@@AAV<lambda_22ebabd17bc4fa466a2aca6d8deb888d>@@V<lambda_18ed0c0b38a6dc0daf1e7ac6d6adf05e>@@@?$__crt_seh_guarded_call@H@@QAEH$$QAV<lambda_8e746cf0007f6ed984d6f78af1fec997>@@AAV<lambda_22ebabd17bc4fa466a2aca6d8deb888d>@@$$QAV<lambda_18ed0c0b38a6dc0daf1e7ac6d6adf05e>@@@Z 100132b4 f i libucrt:onexit.obj
 0001:00012305       ??$__acrt_lock_and_call@V<lambda_22ebabd17bc4fa466a2aca6d8deb888d>@@@@YAHW4__acrt_lock_id@@$$QAV<lambda_22ebabd17bc4fa466a2aca6d8deb888d>@@@Z 10013305 f i libucrt:onexit.obj
 0001:0001232d       ??$__acrt_lock_and_call@V<lambda_f03950bc5685219e0bcd2087efbe011e>@@@@YAHW4__acrt_lock_id@@$$QAV<lambda_f03950bc5685219e0bcd2087efbe011e>@@@Z 1001332d f i libucrt:onexit.obj
 0001:00012355       ??$__crt_fast_encode_pointer@P6AHXZ@@YAP6AHXZQ6AHXZ@Z 10013355 f i libucrt:onexit.obj
 0001:000125d3       __crt_atexit               100135d3 f   libucrt:onexit.obj
 0001:000125e9       __execute_onexit_table     100135e9 f   libucrt:onexit.obj
 0001:00012606       __initialize_onexit_table  10013606 f   libucrt:onexit.obj
 0001:00012643       __register_onexit_function 10013643 f   libucrt:onexit.obj
 0001:00012693       ___acrt_uninitialize_command_line 10013693 f   libucrt:argv_data.obj
 0001:00012776       ___acrt_initialize         10013776 f   libucrt:initialization.obj
 0001:00012788       ___acrt_thread_attach      10013788 f   libucrt:initialization.obj
 0001:00012793       ___acrt_thread_detach      10013793 f   libucrt:initialization.obj
 0001:0001279b       ___acrt_uninitialize       1001379b f   libucrt:initialization.obj
 0001:000127ad       ___acrt_uninitialize_critical 100137ad f   libucrt:initialization.obj
 0001:000127bf       __initterm                 100137bf f   libucrt:initterm.obj
 0001:0001281b       __initterm_e               1001381b f   libucrt:initterm.obj
 0001:00012860       ___acrt_initialize_new_handler 10013860 f   libucrt:new_handler.obj
 0001:00012874       __callnewh                 10013874 f   libucrt:new_handler.obj
 0001:000128b8       __query_new_handler        100138b8 f   libucrt:new_handler.obj
 0001:0001290a       _terminate                 1001390a f   libucrt:terminate.obj
 0001:00012946       _abort                     10013946 f   libucrt:abort.obj
 0001:00012989       _strcpy_s                  10013989 f   libucrt:strcpy_s.obj
 0001:000129e3       _wcsncmp                   100139e3 f   libucrt:wcsncmp.obj
 0001:00012a1d       ??$is_overflow_condition@K@__crt_strtox@@YA_NIK@Z 10013a1d f i libucrt:atox.obj
 0001:00012a50       ??$parse_integer@KV?$c_string_character_source@_W@__crt_strtox@@@__crt_strtox@@YAKQAU__crt_locale_pointers@@V?$c_string_character_source@_W@0@H_N@Z 10013a50 f i libucrt:atox.obj
 0001:00013135       ?unget@?$c_string_character_source@_W@__crt_strtox@@QAEX_W@Z 10014135 f i libucrt:atox.obj
 0001:00013161       __chvalidchk_l             10014161 f i libucrt:atox.obj
 0001:0001318b       __ischartype_l             1001418b f i libucrt:atox.obj
 0001:000131c0       _strncmp                   100141c0 f   libucrt:strncmp.obj
 0001:00013238       __free_base                10014238 f   libucrt:free_base.obj
 0001:00013272       ??$?RV<lambda_15ade71b0218206bbe3333a0c9b79046>@@AAV<lambda_da44e0f8b0f19ba52fefafb335991732>@@V<lambda_207f2d024fc103971653565357d6cd41>@@@?$__crt_seh_guarded_call@X@@QAEX$$QAV<lambda_15ade71b0218206bbe3333a0c9b79046>@@AAV<lambda_da44e0f8b0f19ba52fefafb335991732>@@$$QAV<lambda_207f2d024fc103971653565357d6cd41>@@@Z 10014272 f i libucrt:per_thread_data.obj
 0001:000132ba       ??$?RV<lambda_38edbb1296d33220d7e4dd0ed76b244a>@@AAV<lambda_5ce1d447e08cb34b2473517608e21441>@@V<lambda_fb385d3da700c9147fc39e65dd577a8c>@@@?$__crt_seh_guarded_call@X@@QAEX$$QAV<lambda_38edbb1296d33220d7e4dd0ed76b244a>@@AAV<lambda_5ce1d447e08cb34b2473517608e21441>@@$$QAV<lambda_fb385d3da700c9147fc39e65dd577a8c>@@@Z 100142ba f i libucrt:per_thread_data.obj
 0001:0001331b       ??$?RV<lambda_6affb1475c98b40b75cdec977db92e3c>@@AAV<lambda_b8d4b9c228a6ecc3f80208dbb4b4a104>@@V<lambda_608742c3c92a14382c1684fc64f96c88>@@@?$__crt_seh_guarded_call@X@@QAEX$$QAV<lambda_6affb1475c98b40b75cdec977db92e3c>@@AAV<lambda_b8d4b9c228a6ecc3f80208dbb4b4a104>@@$$QAV<lambda_608742c3c92a14382c1684fc64f96c88>@@@Z 1001431b f i libucrt:per_thread_data.obj
 0001:00013366       ??$?RV<lambda_a7e850c220f1c8d1e6efeecdedd162c6>@@AAV<lambda_46720907175c18b6c9d2717bc0d2d362>@@V<lambda_9048902d66e8d99359bc9897bbb930a8>@@@?$__crt_seh_guarded_call@X@@QAEX$$QAV<lambda_a7e850c220f1c8d1e6efeecdedd162c6>@@AAV<lambda_46720907175c18b6c9d2717bc0d2d362>@@$$QAV<lambda_9048902d66e8d99359bc9897bbb930a8>@@@Z 10014366 f i libucrt:per_thread_data.obj
 0001:000133b6       ??$__acrt_lock_and_call@V<lambda_46720907175c18b6c9d2717bc0d2d362>@@@@YAXW4__acrt_lock_id@@$$QAV<lambda_46720907175c18b6c9d2717bc0d2d362>@@@Z 100143b6 f i libucrt:per_thread_data.obj
 0001:000133de       ??$__acrt_lock_and_call@V<lambda_5ce1d447e08cb34b2473517608e21441>@@@@YAXW4__acrt_lock_id@@$$QAV<lambda_5ce1d447e08cb34b2473517608e21441>@@@Z 100143de f i libucrt:per_thread_data.obj
 0001:00013406       ??$__acrt_lock_and_call@V<lambda_b8d4b9c228a6ecc3f80208dbb4b4a104>@@@@YAXW4__acrt_lock_id@@$$QAV<lambda_b8d4b9c228a6ecc3f80208dbb4b4a104>@@@Z 10014406 f i libucrt:per_thread_data.obj
 0001:0001342e       ??$__acrt_lock_and_call@V<lambda_da44e0f8b0f19ba52fefafb335991732>@@@@YAXW4__acrt_lock_id@@$$QAV<lambda_da44e0f8b0f19ba52fefafb335991732>@@@Z 1001442e f i libucrt:per_thread_data.obj
 0001:000135e4       ___acrt_freeptd            100145e4 f   libucrt:per_thread_data.obj
 0001:00013610       ___acrt_getptd             10014610 f   libucrt:per_thread_data.obj
 0001:000136c4       ___acrt_getptd_head        100146c4 f   libucrt:per_thread_data.obj
 0001:0001375e       ___acrt_getptd_noexit      1001475e f   libucrt:per_thread_data.obj
 0001:00013811       ___acrt_initialize_ptd     10014811 f   libucrt:per_thread_data.obj
 0001:0001383d       ___acrt_uninitialize_ptd   1001483d f   libucrt:per_thread_data.obj
 0001:00013857       __calloc_base              10014857 f   libucrt:calloc_base.obj
 0001:000138b4       __malloc_base              100148b4 f   libucrt:malloc_base.obj
 0001:00013902       __msize                    10014902 f   libucrt:msize.obj
 0001:0001390d       __msize_base               1001490d f   libucrt:msize.obj
 0001:00013940       __realloc_base             10014940 f   libucrt:realloc_base.obj
 0001:00013b27       ___acrt_AppPolicyGetProcessTerminationMethodInternal@4 10014b27 f   libucrt:winapi_thunks.obj
 0001:00013b7e       ___acrt_FlsAlloc@4         10014b7e f   libucrt:winapi_thunks.obj
 0001:00013bd4       ___acrt_FlsFree@4          10014bd4 f   libucrt:winapi_thunks.obj
 0001:00013c2a       ___acrt_FlsGetValue@4      10014c2a f   libucrt:winapi_thunks.obj
 0001:00013c80       ___acrt_FlsSetValue@8      10014c80 f   libucrt:winapi_thunks.obj
 0001:00013cd9       ___acrt_InitializeCriticalSectionEx@12 10014cd9 f   libucrt:winapi_thunks.obj
 0001:00013d3b       ___acrt_LCMapStringEx@36   10014d3b f   libucrt:winapi_thunks.obj
 0001:00013daf       ___acrt_LocaleNameToLCID@8 10014daf f   libucrt:winapi_thunks.obj
 0001:00013df7       ___acrt_SetThreadStackGuarantee@4 10014df7 f   libucrt:winapi_thunks.obj
 0001:00013e49       ___acrt_initialize_winapi_thunks 10014e49 f   libucrt:winapi_thunks.obj
 0001:00013e6f       ___acrt_uninitialize_winapi_thunks 10014e6f f   libucrt:winapi_thunks.obj
 0001:00013ea5       __isdigit_l                10014ea5 f i libucrt:_ctype.obj
 0001:00013edd       _isdigit                   10014edd f i libucrt:_ctype.obj
 0001:00014071       __tolower_l                10015071 f   libucrt:tolower_toupper.obj
 0001:0001408b       _tolower                   1001508b f   libucrt:tolower_toupper.obj
 0001:000140bb       ??$make_c_string_character_source@_WPAPA_W@__crt_strtox@@YA?AV?$c_string_character_source@_W@0@QB_WQAPA_W@Z 100150bb f i libucrt:strtox.obj
 0001:000140d6       _wcstol                    100150d6 f   libucrt:strtox.obj
 0001:00014102       __mbtowc_l                 10015102 f   libucrt:mbtowc.obj
 0001:000141fc       _mbtowc                    100151fc f   libucrt:mbtowc.obj
 0001:00014216       _wcsnlen                   10015216 f   libucrt:strnlen.obj
 0001:000143cd       ___acrt_update_locale_info 100153cd f   libucrt:locale_update.obj
 0001:000143fa       ___acrt_update_multibyte_info 100153fa f   libucrt:locale_update.obj
 0001:00014427       ?__acrt_fp_classify@@YA?AW4__acrt_fp_class@@ABN@Z 10015427 f i libucrt:cvt.obj
 0001:0001448f       ?__acrt_fp_is_negative@@YA_NABN@Z 1001548f f i libucrt:cvt.obj
 0001:00014cff       ___acrt_fp_format          10015cff f   libucrt:cvt.obj
 0001:00014e49       __fileno                   10015e49 f   libucrt:fileno.obj
 0001:00014e6f       ___acrt_initialize_stdio   10015e6f f   libucrt:_file.obj
 0001:00014f37       ___acrt_uninitialize_stdio 10015f37 f   libucrt:_file.obj
 0001:00014f83       __lock_file                10015f83 f   libucrt:_file.obj
 0001:00014f97       __unlock_file              10015f97 f   libucrt:_file.obj
 0001:00014fab       __get_printf_count_output  10015fab f   libucrt:printf_count_output.obj
 0001:00014fc0       ??$?RV<lambda_e5124f882df8998aaf41531e079ba474>@@AAV<lambda_3e16ef9562a7dcce91392c22ab16ea36>@@V<lambda_e25ca0880e6ef98be67edffd8c599615>@@@?$__crt_seh_guarded_call@X@@QAEX$$QAV<lambda_e5124f882df8998aaf41531e079ba474>@@AAV<lambda_3e16ef9562a7dcce91392c22ab16ea36>@@$$QAV<lambda_e25ca0880e6ef98be67edffd8c599615>@@@Z 10015fc0 f i libucrt:wsetlocale.obj
 0001:00015009       ??$__acrt_lock_and_call@V<lambda_3e16ef9562a7dcce91392c22ab16ea36>@@@@YAXW4__acrt_lock_id@@$$QAV<lambda_3e16ef9562a7dcce91392c22ab16ea36>@@@Z 10016009 f i libucrt:wsetlocale.obj
 0001:00015031       ??$uninitialize@V<lambda_88ce03f932007f29bf8b8056cbaba4f3>@@@?$dual_state_global@PAU__crt_locale_data@@@__crt_state_management@@QAEX$$QAV<lambda_88ce03f932007f29bf8b8056cbaba4f3>@@@Z 10016031 f i libucrt:wsetlocale.obj
 0001:00015060       ___acrt_set_locale_changed 10016060 f   libucrt:wsetlocale.obj
 0001:0001506b       ___acrt_uninitialize_locale 1001606b f   libucrt:wsetlocale.obj
 0001:000151ec       ___acrt_initialize_lowio   100161ec f   libucrt:ioinit.obj
 0001:00015242       ___acrt_uninitialize_lowio 10016242 f   libucrt:ioinit.obj
 0001:0001526e       ___acrt_initialize_locks   1001626e f   libucrt:locks.obj
 0001:000152af       ___acrt_lock               100162af f   libucrt:locks.obj
 0001:000152c6       ___acrt_uninitialize_locks 100162c6 f   libucrt:locks.obj
 0001:000152f7       ___acrt_unlock             100162f7 f   libucrt:locks.obj
 0001:0001530e       ___acrt_get_process_end_policy 1001630e f   libucrt:win_policies.obj
 0001:000157e5       ___acrt_expand_narrow_argv_wildcards 100167e5 f   libucrt:argv_wildcards.obj
 0001:000157f0       ??$?RV<lambda_ceb1ee4838e85a9d631eb091e2fbe199>@@AAV<lambda_ae742caa10f662c28703da3d2ea5e57e>@@V<lambda_cd08b5d6af4937fe54fc07d0c9bf6b37>@@@?$__crt_seh_guarded_call@X@@QAEX$$QAV<lambda_ceb1ee4838e85a9d631eb091e2fbe199>@@AAV<lambda_ae742caa10f662c28703da3d2ea5e57e>@@$$QAV<lambda_cd08b5d6af4937fe54fc07d0c9bf6b37>@@@Z 100167f0 f i libucrt:mbctype.obj
 0001:00015833       ??$__acrt_lock_and_call@V<lambda_ae742caa10f662c28703da3d2ea5e57e>@@@@YAXW4__acrt_lock_id@@$$QAV<lambda_ae742caa10f662c28703da3d2ea5e57e>@@@Z 10016833 f i libucrt:mbctype.obj
 0001:00015d28       ___acrt_initialize_multibyte 10016d28 f   libucrt:mbctype.obj
 0001:00015d75       ___acrt_update_thread_multibyte_data 10016d75 f   libucrt:mbctype.obj
 0001:00015d89       __setmbcp_nolock           10016d89 f   libucrt:mbctype.obj
 0001:00016054       __ismbblead                10017054 f   libucrt:ismbbyte.obj
 0001:0001606c       ___acrt_initialize_command_line 1001706c f   libucrt:argv_data.obj
 0001:000160bc       ___dcrt_get_narrow_environment_from_os 100170bc f   libucrt:get_environment_from_os.obj
 0001:0001613f       ___acrt_initialize_heap    1001713f f   libucrt:heap_handle.obj
 0001:00016150       ___acrt_uninitialize_heap  10017150 f   libucrt:heap_handle.obj
 0001:0001615a       ___acrt_execute_initializers 1001715a f   libucrt:shared_initialization.obj
 0001:000161dd       ___acrt_execute_uninitializers 100171dd f   libucrt:shared_initialization.obj
 0001:0001622a       ??$?RV<lambda_cbab9ec6f41b0180b23cc171c22676b0>@@AAV<lambda_44731a7d0e6d81c3e6aa82d741081786>@@V<lambda_4b292cb8dd18144e164572427af410ab>@@@?$__crt_seh_guarded_call@P6AXH@Z@@QAEP6AXH@Z$$QAV<lambda_cbab9ec6f41b0180b23cc171c22676b0>@@AAV<lambda_44731a7d0e6d81c3e6aa82d741081786>@@$$QAV<lambda_4b292cb8dd18144e164572427af410ab>@@@Z 1001722a f i libucrt:signal.obj
 0001:00016284       ??$__acrt_lock_and_call@V<lambda_44731a7d0e6d81c3e6aa82d741081786>@@@@YAP6AXH@ZW4__acrt_lock_id@@$$QAV<lambda_44731a7d0e6d81c3e6aa82d741081786>@@@Z 10017284 f i libucrt:signal.obj
 0001:00016316       ___acrt_get_sigabrt_handler 10017316 f   libucrt:signal.obj
 0001:0001632d       ___acrt_initialize_signal_handlers 1001732d f   libucrt:signal.obj
 0001:00016368       ___fpecode                 10017368 f   libucrt:signal.obj
 0001:00016371       _raise                     10017371 f   libucrt:signal.obj
 0001:00016579       ___acrt_has_user_matherr   10017579 f   libucrt:matherr.obj
 0001:00016592       ___acrt_initialize_user_matherr 10017592 f   libucrt:matherr.obj
 0001:000165a6       ___acrt_invoke_user_matherr 100175a6 f   libucrt:matherr.obj
 0001:000165ef       ___pctype_func             100175ef f   libucrt:ctype.obj
 0001:00016615       _iswctype                  10017615 f   libucrt:iswctype.obj
 0001:00016674       __isctype_l                10017674 f   libucrt:isctype.obj
 0001:00016746       ___acrt_add_locale_ref     10017746 f   libucrt:locale_refcounting.obj
 0001:000167c3       ___acrt_free_locale        100177c3 f   libucrt:locale_refcounting.obj
 0001:0001690d       ___acrt_locale_add_lc_time_reference 1001790d f   libucrt:locale_refcounting.obj
 0001:00016936       ___acrt_locale_free_lc_time_if_unreferenced 10017936 f   libucrt:locale_refcounting.obj
 0001:00016966       ___acrt_locale_release_lc_time_reference 10017966 f   libucrt:locale_refcounting.obj
 0001:0001698f       ___acrt_release_locale_ref 1001798f f   libucrt:locale_refcounting.obj
 0001:00016a10       ___acrt_update_thread_locale_data 10017a10 f   libucrt:locale_refcounting.obj
 0001:00016a87       __updatetlocinfoEx_nolock  10017a87 f   libucrt:locale_refcounting.obj
 0001:00016ad7       __query_new_mode           10017ad7 f   libucrt:new_mode.obj
 0001:00016b99       ___acrt_DownlevelLocaleNameToLCID 10017b99 f   libucrt:lcidtoname_downlevel.obj
 0001:00016bc5       __isleadbyte_l             10017bc5 f i libucrt:_wctype.obj
 0001:00016e1b       ___acrt_LCMapStringA       10017e1b f   libucrt:lcmapstringa.obj
 0001:00016e66       __freea_crt                10017e66 f i libucrt:lcmapstringa.obj
 0001:00016e86       ___acrt_fp_strflt_to_string 10017e86 f   libucrt:_fptostr.obj
 0001:00016f50       ?divide@__crt_strtox@@YA_KAAUbig_integer@1@ABU21@@Z 10017f50 f i libucrt:cfout.obj
 0001:000173fe       ___acrt_fltout             100183fe f   libucrt:cfout.obj
 0001:000187f2       __fcloseall                100197f2 f   libucrt:closeall.obj
 0001:00018892       ??$?RV<lambda_2866be3712abc81a800a822484c830d8>@@AAV<lambda_39ca0ed439415581b5b15c265174cece>@@V<lambda_2b24c74d71094a6cd0cb82e44167d71b>@@@?$__crt_seh_guarded_call@X@@QAEX$$QAV<lambda_2866be3712abc81a800a822484c830d8>@@AAV<lambda_39ca0ed439415581b5b15c265174cece>@@$$QAV<lambda_2b24c74d71094a6cd0cb82e44167d71b>@@@Z 10019892 f i libucrt:fflush.obj
 0001:00018913       ??$?RV<lambda_2cc53f568c5a2bb6f192f930a45d44ea>@@AAV<lambda_ab61a845afdef5b7c387490eaf3616ee>@@V<lambda_c2ffc0b7726aa6be21d5f0026187e748>@@@?$__crt_seh_guarded_call@X@@QAEX$$QAV<lambda_2cc53f568c5a2bb6f192f930a45d44ea>@@AAV<lambda_ab61a845afdef5b7c387490eaf3616ee>@@$$QAV<lambda_c2ffc0b7726aa6be21d5f0026187e748>@@@Z 10019913 f i libucrt:fflush.obj
 0001:000189a6       ??$__acrt_lock_and_call@V<lambda_ab61a845afdef5b7c387490eaf3616ee>@@@@YAXW4__acrt_lock_id@@$$QAV<lambda_ab61a845afdef5b7c387490eaf3616ee>@@@Z 100199a6 f i libucrt:fflush.obj
 0001:000189ce       ??$__acrt_lock_stream_and_call@V<lambda_39ca0ed439415581b5b15c265174cece>@@@@YAXQAU_iobuf@@$$QAV<lambda_39ca0ed439415581b5b15c265174cece>@@@Z 100199ce f i libucrt:fflush.obj
 0001:00018a8a       ___acrt_stdio_flush_nolock 10019a8a f   libucrt:fflush.obj
 0001:00018aed       __fflush_nolock            10019aed f   libucrt:fflush.obj
 0001:00018b34       __flushall                 10019b34 f   libucrt:fflush.obj
 0001:00018b3d       ___acrt_stdio_free_buffer_nolock 10019b3d f   libucrt:_freebuf.obj
 0001:00018b7b       __isatty                   10019b7b f   libucrt:isatty.obj
 0001:00018bd1       ___acrt_locale_free_monetary 10019bd1 f   libucrt:initmon.obj
 0001:00018ccf       ___acrt_locale_free_numeric 10019ccf f   libucrt:initnum.obj
 0001:00018d74       ___acrt_locale_free_time   10019d74 f   libucrt:inittime.obj
 0001:00018e58       ___acrt_GetStringTypeA     10019e58 f   libucrt:getstringtypea.obj
 0001:00018f75       ___acrt_lowio_create_handle_array 10019f75 f   libucrt:osfinfo.obj
 0001:00018fef       ___acrt_lowio_destroy_handle_array 10019fef f   libucrt:osfinfo.obj
 0001:00019024       ___acrt_lowio_ensure_fh_exists 1001a024 f   libucrt:osfinfo.obj
 0001:000190bc       ___acrt_lowio_lock_fh      1001a0bc f   libucrt:osfinfo.obj
 0001:000190df       ___acrt_lowio_unlock_fh    1001a0df f   libucrt:osfinfo.obj
 0001:00019102       __free_osfhnd              1001a102 f   libucrt:osfinfo.obj
 0001:00019193       __get_osfhandle            1001a193 f   libucrt:osfinfo.obj
 0001:000192e0       _qsort                     1001a2e0 f   libucrt:qsort.obj
 0001:0001972b       _strncpy_s                 1001a72b f   libucrt:strncpy_s.obj
 0001:00019740       _strpbrk                   1001a740 f   libucrt:strpbrk.obj
 0001:00019780       __mbsdec                   1001a780 f   libucrt:mbsdec.obj
 0001:00019797       __mbsdec_l                 1001a797 f   libucrt:mbsdec.obj
 0001:00019833       ___strncnt                 1001a833 f   libucrt:strncnt.obj
 0001:0001984f       _fegetenv                  1001a84f f   libucrt:fegetenv.obj
 0001:0001986c       _fesetenv                  1001a86c f   libucrt:fesetenv.obj
 0001:000198b5       _feholdexcept              1001a8b5 f   libucrt:feholdexcept.obj
 0001:00019910       _log10                     1001a910 f   libucrt:log10.obj
 0001:00019950       __CIlog10                  1001a950 f   libucrt:log10.obj
 0001:0001998b       __CIlog10_default          1001a98b f   libucrt:log10.obj
 0001:0001999f       __log10_default            1001a99f     libucrt:log10.obj
 0001:00019a60       _ceil                      1001aa60 f   libucrt:ceil_pentium4.obj
 0001:00019aa0       __ceil_pentium4            1001aaa0 f   libucrt:ceil_pentium4.obj
 0001:0001a11f       __write                    1001b11f f   libucrt:write.obj
 0001:0001a20a       __write_nolock             1001b20a f   libucrt:write.obj
 0001:0001a4a1       __lseeki64_nolock          1001b4a1 f   libucrt:lseek.obj
 0001:0001a4bc       __fclose_nolock            1001b4bc f   libucrt:fclose.obj
 0001:0001a532       _fclose                    1001b532 f   libucrt:fclose.obj
 0001:0001a5b2       ??$?RV<lambda_9e9de3de5fa147e2223d7db92bc10aa6>@@AAV<lambda_38ce7e780aa69e748d6df282ebc68efe>@@V<lambda_8ca6da459f0f6780f1cff60fdc3d00e5>@@@?$__crt_seh_guarded_call@H@@QAEH$$QAV<lambda_9e9de3de5fa147e2223d7db92bc10aa6>@@AAV<lambda_38ce7e780aa69e748d6df282ebc68efe>@@$$QAV<lambda_8ca6da459f0f6780f1cff60fdc3d00e5>@@@Z 1001b5b2 f i libucrt:commit.obj
 0001:0001a64a       ??$__acrt_lowio_lock_fh_and_call@V<lambda_38ce7e780aa69e748d6df282ebc68efe>@@@@YAHH$$QAV<lambda_38ce7e780aa69e748d6df282ebc68efe>@@@Z 1001b64a f i libucrt:commit.obj
 0001:0001a672       __commit                   1001b672 f   libucrt:commit.obj
 0001:0001a6e1       __query_app_type           1001b6e1 f   libucrt:report_runtime_error.obj
 0001:0001a98a       __getfpcontrolword         1001b98a f   libucrt:_fenvutils.obj
 0001:0001a9cd       __getfpstatusword          1001b9cd f   libucrt:_fenvutils.obj
 0001:0001aa75       __setfpcontrolword         1001ba75 f   libucrt:_fenvutils.obj
 0001:0001aaf5       __setfpstatusword          1001baf5 f   libucrt:_fenvutils.obj
 0001:0001ab75       __clearfp                  1001bb75 f   libucrt:ieee87.obj
 0001:0001ac53       ___acrt_initialize_sse2    1001bc53 f   libucrt:mathfcns.obj
 0001:0001ac70       __CIlog10_pentium4         1001bc70 f   libucrt:log10_pentium4.obj
 0001:0001ac88       __log10_pentium4           1001bc88     libucrt:log10_pentium4.obj
 0001:0001af11       __fFEXP                    1001bf11     libucrt:87tran.obj
 0001:0001af68       __rtinfpopse               1001bf68     libucrt:87tran.obj
 0001:0001af6a       __rtinfnpopse              1001bf6a     libucrt:87tran.obj
 0001:0001af7a       __fFLN                     1001bf7a     libucrt:87tran.obj
 0001:0001b02f       __rtinfpop                 1001c02f     libucrt:87tran.obj
 0001:0001b031       __rtinfnpop                1001c031     libucrt:87tran.obj
 0001:0001b04e       __ffexpm1                  1001c04e     libucrt:87tran.obj
 0001:0001b100       __trandisp1                1001c100 f   libucrt:87disp.obj
 0001:0001b167       __trandisp2                1001c167 f   libucrt:87disp.obj
 0001:0001b1f3       __rttospopde               1001c1f3     libucrt:87disp.obj
 0001:0001b1f8       __rttospop                 1001c1f8     libucrt:87disp.obj
 0001:0001b1fa       __rtnospop                 1001c1fa     libucrt:87disp.obj
 0001:0001b1fc       __rttosnpop                1001c1fc     libucrt:87disp.obj
 0001:0001b1fd       __rtnospopde               1001c1fd     libucrt:87disp.obj
 0001:0001b204       __rtzeropop                1001c204     libucrt:87disp.obj
 0001:0001b206       __rtzeronpop               1001c206     libucrt:87disp.obj
 0001:0001b20b       __rtzerospop               1001c20b     libucrt:87disp.obj
 0001:0001b218       __rtonepop                 1001c218     libucrt:87disp.obj
 0001:0001b21a       __rtonenpop                1001c21a     libucrt:87disp.obj
 0001:0001b21f       __tosnan1                  1001c21f     libucrt:87disp.obj
 0001:0001b24a       __nosnan2                  1001c24a     libucrt:87disp.obj
 0001:0001b24c       __tosnan2                  1001c24c     libucrt:87disp.obj
 0001:0001b274       __nan2                     1001c274     libucrt:87disp.obj
 0001:0001b2b3       __rtindfpop                1001c2b3     libucrt:87disp.obj
 0001:0001b2b5       __rtindfnpop               1001c2b5     libucrt:87disp.obj
 0001:0001b2c6       __rttosnpopde              1001c2c6     libucrt:87disp.obj
 0001:0001b2d0       __rtatan2inf               1001c2d0     libucrt:87disp.obj
 0001:0001b2ed       __rtchsifneg               1001c2ed     libucrt:87disp.obj
 0001:0001b300       __twoToTOS                 1001c300 f   libucrt:common.obj
 0001:0001b315       __load_CW                  1001c315 f   libucrt:common.obj
 0001:0001b32c       __convertTOStoQNaN         1001c32c f   libucrt:common.obj
 0001:0001b345       __fload_withFB             1001c345 f   libucrt:common.obj
 0001:0001b388       __checkTOS_withFB          1001c388 f   libucrt:common.obj
 0001:0001b39e       __fast_exit                1001c39e f   libucrt:common.obj
 0001:0001b3ab       __math_exit                1001c3ab f   libucrt:common.obj
 0001:0001b3d5       __check_overflow_exit      1001c3d5 f   libucrt:common.obj
 0001:0001b3e9       __check_range_exit         1001c3e9 f   libucrt:common.obj
 0001:0001b490       __startTwoArgErrorHandling 1001c490 f   libucrt:genexcep.obj
 0001:0001b4a7       __startOneArgErrorHandling 1001c4a7 f   libucrt:genexcep.obj
 0001:0001b4e3       ___libm_error_support      1001c4e3 f   libucrt:libm_error.obj
 0001:0001b6fb       __ceil_default             1001c6fb f   libucrt:ceil.obj
 0001:0001b7b4       __putwch_nolock            1001c7b4 f   libucrt:putwch.obj
 0001:0001b7f9       ??$?RV<lambda_218ce3db14220d0be481dae8ef3383b6>@@AAV<lambda_628dfdc04ba53c8bfc02c9951375f3f5>@@V<lambda_57dc472bd5c9d5f3b2cbca59b8a843ae>@@@?$__crt_seh_guarded_call@H@@QAEH$$QAV<lambda_218ce3db14220d0be481dae8ef3383b6>@@AAV<lambda_628dfdc04ba53c8bfc02c9951375f3f5>@@$$QAV<lambda_57dc472bd5c9d5f3b2cbca59b8a843ae>@@@Z 1001c7f9 f i libucrt:close.obj
 0001:0001b87b       ??$__acrt_lowio_lock_fh_and_call@V<lambda_628dfdc04ba53c8bfc02c9951375f3f5>@@@@YAHH$$QAV<lambda_628dfdc04ba53c8bfc02c9951375f3f5>@@@Z 1001c87b f i libucrt:close.obj
 0001:0001b8a3       __close                    1001c8a3 f   libucrt:close.obj
 0001:0001b922       __close_nolock             1001c922 f   libucrt:close.obj
 0001:0001b9be       ?__acrt_stdio_free_stream@@YAXV__crt_stdio_stream@@@Z 1001c9be f   libucrt:stream.obj
 0001:0001ba00       ___ascii_strnicmp          1001ca00 f   libucrt:_strnicm.obj
 0001:0001ba61       __clrfp                    1001ca61 f   libucrt:fpctrl.obj
 0001:0001ba74       __ctrlfp                   1001ca74 f   libucrt:fpctrl.obj
 0001:0001baa0       __set_statfp               1001caa0 f   libucrt:fpctrl.obj
 0001:0001bafb       __statfp                   1001cafb f   libucrt:fpctrl.obj
 0001:0001bb0d       __d_inttype                1001cb0d f   libucrt:powhlp.obj
 0001:0001bb77       __powhlp                   1001cb77 f   libucrt:powhlp.obj
 0001:0001bca2       __87except                 1001cca2 f   libucrt:87except.obj
 0001:0001bdad       __frnd                     1001cdad f   libucrt:frnd.obj
 0001:0001bdc3       __errcode                  1001cdc3 f   libucrt:fpexcept.obj
 0001:0001bdf7       __except1                  1001cdf7 f   libucrt:fpexcept.obj
 0001:0001bec5       __handle_exc               1001cec5 f   libucrt:fpexcept.obj
 0001:0001c0a5       __raise_exc                1001d0a5 f   libucrt:fpexcept.obj
 0001:0001c0c8       __raise_exc_ex             1001d0c8 f   libucrt:fpexcept.obj
 0001:0001c3b9       __set_errno_from_matherr   1001d3b9 f   libucrt:fpexcept.obj
 0001:0001c3e8       __umatherr                 1001d3e8 f   libucrt:fpexcept.obj
 0001:0001c48a       __decomp                   1001d48a f   libucrt:util.obj
 0001:0001c55e       __set_exp                  1001d55e f   libucrt:util.obj
 0001:0001c58d       __sptype                   1001d58d f   libucrt:util.obj
 0001:0001c5eb       ___dcrt_lowio_initialize_console_output 1001d5eb f   libucrt:initcon.obj
 0001:0001c60a       ___dcrt_terminate_console_output 1001d60a f   libucrt:initcon.obj
 0001:0001c621       __fpclass                  1001d621 f   libucrt:ieeemisc.obj
 0001:0001c6c5       _IsProcessorFeaturePresent@4 1001d6c5 f   kernel32:KERNEL32.dll
 0001:0001c6d0       __FindPESection            1001d6d0 f   LIBCMT:pesect.obj
 0001:0001c720       __IsNonwritableInCurrentImage 1001d720 f   LIBCMT:pesect.obj
 0001:0001c7e0       __ValidateImageBase        1001d7e0 f   LIBCMT:pesect.obj
 0001:0001c813       __EH_prolog3_catch         1001d813 f   LIBCMT:ehprolg3.obj
 0001:0001c850       __aulldvrm                 1001d850 f   LIBCMT:ulldvrm.obj
 0001:0001c8f0       __allmul                   1001d8f0 f   LIBCMT:llmul.obj
 0001:0001c930       __alldvrm                  1001d930 f   LIBCMT:lldvrm.obj
 0001:0001ca10       __aullshr                  1001da10 f   LIBCMT:ullshr.obj
 0001:0001ca30       __allshl                   1001da30 f   LIBCMT:llshl.obj
 0001:0001ca50       __ftol2_sse                1001da50 f   LIBCMT:_ftol2_.obj
 0001:0001ca59       __ftol2_pentium4           1001da59 f   LIBCMT:_ftol2_.obj
 0001:0001ca6c       __ftol2_sse_excpt          1001da6c f   LIBCMT:_ftol2_.obj
 0001:0001ca90       __ftol2                    1001da90 f   LIBCMT:_ftol2_.obj
 0001:0001cb10       _strrchr                   1001db10 f   libvcruntime:strrchr.obj
 0001:0001cc50       _strchr                    1001dc50 f   libvcruntime:strchr.obj
 0001:0001ccbe       ___from_strstr_to_strchr   1001dcbe     libvcruntime:strchr.obj
 0002:00000000       __imp__RegQueryValueExW@24 1001e000     advapi32:ADVAPI32.dll
 0002:00000004       __imp__RegSetValueExW@24   1001e004     advapi32:ADVAPI32.dll
 0002:00000008       __imp__RegQueryInfoKeyW@48 1001e008     advapi32:ADVAPI32.dll
 0002:0000000c       __imp__RegOpenKeyExW@20    1001e00c     advapi32:ADVAPI32.dll
 0002:00000010       __imp__RegEnumKeyExW@32    1001e010     advapi32:ADVAPI32.dll
 0002:00000014       __imp__RegDeleteValueW@8   1001e014     advapi32:ADVAPI32.dll
 0002:00000018       __imp__RegDeleteKeyW@8     1001e018     advapi32:ADVAPI32.dll
 0002:0000001c       __imp__RegCreateKeyExW@36  1001e01c     advapi32:ADVAPI32.dll
 0002:00000020       __imp__RegCloseKey@4       1001e020     advapi32:ADVAPI32.dll
 0002:00000024       \177ADVAPI32_NULL_THUNK_DATA 1001e024     advapi32:ADVAPI32.dll
 0002:00000028       __imp__GetObjectW@12       1001e028     gdi32:GDI32.dll
 0002:0000002c       __imp__SelectObject@8      1001e02c     gdi32:GDI32.dll
 0002:00000030       __imp__DeleteObject@4      1001e030     gdi32:GDI32.dll
 0002:00000034       __imp__CreateCompatibleDC@4 1001e034     gdi32:GDI32.dll
 0002:00000038       __imp__BitBlt@36           1001e038     gdi32:GDI32.dll
 0002:0000003c       __imp__SetWindowOrgEx@16   1001e03c     gdi32:GDI32.dll
 0002:00000040       __imp__SetWindowExtEx@16   1001e040     gdi32:GDI32.dll
 0002:00000044       __imp__SetViewportOrgEx@16 1001e044     gdi32:GDI32.dll
 0002:00000048       __imp__LPtoDP@12           1001e048     gdi32:GDI32.dll
 0002:0000004c       __imp__SetMapMode@8        1001e04c     gdi32:GDI32.dll
 0002:00000050       __imp__SaveDC@4            1001e050     gdi32:GDI32.dll
 0002:00000054       __imp__RestoreDC@8         1001e054     gdi32:GDI32.dll
 0002:00000058       __imp__GetDeviceCaps@8     1001e058     gdi32:GDI32.dll
 0002:0000005c       __imp__DeleteMetaFile@4    1001e05c     gdi32:GDI32.dll
 0002:00000060       __imp__DeleteDC@4          1001e060     gdi32:GDI32.dll
 0002:00000064       __imp__CreateRectRgnIndirect@4 1001e064     gdi32:GDI32.dll
 0002:00000068       __imp__CreateMetaFileW@4   1001e068     gdi32:GDI32.dll
 0002:0000006c       __imp__CreateDCW@16        1001e06c     gdi32:GDI32.dll
 0002:00000070       __imp__CloseMetaFile@4     1001e070     gdi32:GDI32.dll
 0002:00000074       \177GDI32_NULL_THUNK_DATA  1001e074     gdi32:GDI32.dll
 0002:00000078       __imp__CloseHandle@4       1001e078     kernel32:KERNEL32.dll
 0002:0000007c       __imp__SetEvent@4          1001e07c     kernel32:KERNEL32.dll
 0002:00000080       __imp__CreateMutexW@12     1001e080     kernel32:KERNEL32.dll
 0002:00000084       __imp__CreateEventW@16     1001e084     kernel32:KERNEL32.dll
 0002:00000088       __imp__GetCurrentProcessId@0 1001e088     kernel32:KERNEL32.dll
 0002:0000008c       __imp__WriteConsoleW@20    1001e08c     kernel32:KERNEL32.dll
 0002:00000090       __imp__FlushFileBuffers@4  1001e090     kernel32:KERNEL32.dll
 0002:00000094       __imp__SetFilePointerEx@20 1001e094     kernel32:KERNEL32.dll
 0002:00000098       __imp__GetConsoleMode@8    1001e098     kernel32:KERNEL32.dll
 0002:0000009c       __imp__GetConsoleCP@0      1001e09c     kernel32:KERNEL32.dll
 0002:000000a0       __imp__WriteFile@20        1001e0a0     kernel32:KERNEL32.dll
 0002:000000a4       __imp__SetStdHandle@8      1001e0a4     kernel32:KERNEL32.dll
 0002:000000a8       __imp__GetStringTypeW@16   1001e0a8     kernel32:KERNEL32.dll
 0002:000000ac       __imp__FreeEnvironmentStringsW@4 1001e0ac     kernel32:KERNEL32.dll
 0002:000000b0       __imp__GetEnvironmentStringsW@0 1001e0b0     kernel32:KERNEL32.dll
 0002:000000b4       __imp__GetCommandLineW@0   1001e0b4     kernel32:KERNEL32.dll
 0002:000000b8       __imp__lstrcmpiW@8         1001e0b8     kernel32:KERNEL32.dll
 0002:000000bc       __imp__GetCPInfo@8         1001e0bc     kernel32:KERNEL32.dll
 0002:000000c0       __imp__GetOEMCP@0          1001e0c0     kernel32:KERNEL32.dll
 0002:000000c4       __imp__IsValidCodePage@4   1001e0c4     kernel32:KERNEL32.dll
 0002:000000c8       __imp__FindNextFileA@8     1001e0c8     kernel32:KERNEL32.dll
 0002:000000cc       __imp__FindFirstFileExA@24 1001e0cc     kernel32:KERNEL32.dll
 0002:000000d0       __imp__FindClose@4         1001e0d0     kernel32:KERNEL32.dll
 0002:000000d4       __imp__GetFileType@4       1001e0d4     kernel32:KERNEL32.dll
 0002:000000d8       __imp__GetStdHandle@4      1001e0d8     kernel32:KERNEL32.dll
 0002:000000dc       __imp__GetACP@0            1001e0dc     kernel32:KERNEL32.dll
 0002:000000e0       __imp__LCMapStringW@24     1001e0e0     kernel32:KERNEL32.dll
 0002:000000e4       __imp__HeapReAlloc@16      1001e0e4     kernel32:KERNEL32.dll
 0002:000000e8       __imp__HeapSize@12         1001e0e8     kernel32:KERNEL32.dll
 0002:000000ec       __imp__MulDiv@12           1001e0ec     kernel32:KERNEL32.dll
 0002:000000f0       __imp__GlobalUnlock@4      1001e0f0     kernel32:KERNEL32.dll
 0002:000000f4       __imp__GlobalLock@4        1001e0f4     kernel32:KERNEL32.dll
 0002:000000f8       __imp__GlobalAlloc@8       1001e0f8     kernel32:KERNEL32.dll
 0002:000000fc       __imp__FindResourceW@12    1001e0fc     kernel32:KERNEL32.dll
 0002:00000100       __imp__SizeofResource@8    1001e100     kernel32:KERNEL32.dll
 0002:00000104       __imp__LoadResource@8      1001e104     kernel32:KERNEL32.dll
 0002:00000108       __imp__LoadLibraryExW@12   1001e108     kernel32:KERNEL32.dll
 0002:0000010c       __imp__GetProcAddress@8    1001e10c     kernel32:KERNEL32.dll
 0002:00000110       __imp__GetModuleHandleW@4  1001e110     kernel32:KERNEL32.dll
 0002:00000114       __imp__GetModuleFileNameW@12 1001e114     kernel32:KERNEL32.dll
 0002:00000118       __imp__FreeLibrary@4       1001e118     kernel32:KERNEL32.dll
 0002:0000011c       __imp__DisableThreadLibraryCalls@4 1001e11c     kernel32:KERNEL32.dll
 0002:00000120       __imp__GetCurrentThreadId@0 1001e120     kernel32:KERNEL32.dll
 0002:00000124       __imp__Sleep@4             1001e124     kernel32:KERNEL32.dll
 0002:00000128       __imp__WaitForSingleObject@8 1001e128     kernel32:KERNEL32.dll
 0002:0000012c       __imp__ReleaseMutex@4      1001e12c     kernel32:KERNEL32.dll
 0002:00000130       __imp__ResetEvent@4        1001e130     kernel32:KERNEL32.dll
 0002:00000134       __imp__EnterCriticalSection@4 1001e134     kernel32:KERNEL32.dll
 0002:00000138       __imp__LeaveCriticalSection@4 1001e138     kernel32:KERNEL32.dll
 0002:0000013c       __imp__SetLastError@4      1001e13c     kernel32:KERNEL32.dll
 0002:00000140       __imp__EncodePointer@4     1001e140     kernel32:KERNEL32.dll
 0002:00000144       __imp__DeleteCriticalSection@4 1001e144     kernel32:KERNEL32.dll
 0002:00000148       __imp__InitializeCriticalSectionAndSpinCount@8 1001e148     kernel32:KERNEL32.dll
 0002:0000014c       __imp__GetLastError@0      1001e14c     kernel32:KERNEL32.dll
 0002:00000150       __imp__RaiseException@16   1001e150     kernel32:KERNEL32.dll
 0002:00000154       __imp__DecodePointer@4     1001e154     kernel32:KERNEL32.dll
 0002:00000158       __imp__WideCharToMultiByte@32 1001e158     kernel32:KERNEL32.dll
 0002:0000015c       __imp__GetCommandLineA@0   1001e15c     kernel32:KERNEL32.dll
 0002:00000160       __imp__MultiByteToWideChar@24 1001e160     kernel32:KERNEL32.dll
 0002:00000164       __imp__CreateFileW@28      1001e164     kernel32:KERNEL32.dll
 0002:00000168       __imp__GetModuleFileNameA@12 1001e168     kernel32:KERNEL32.dll
 0002:0000016c       __imp__GetModuleHandleExW@12 1001e16c     kernel32:KERNEL32.dll
 0002:00000170       __imp__ExitProcess@4       1001e170     kernel32:KERNEL32.dll
 0002:00000174       __imp__VirtualQuery@12     1001e174     kernel32:KERNEL32.dll
 0002:00000178       __imp__VirtualProtect@16   1001e178     kernel32:KERNEL32.dll
 0002:0000017c       __imp__GetSystemInfo@4     1001e17c     kernel32:KERNEL32.dll
 0002:00000180       __imp__TlsFree@4           1001e180     kernel32:KERNEL32.dll
 0002:00000184       __imp__TlsSetValue@8       1001e184     kernel32:KERNEL32.dll
 0002:00000188       __imp__TlsGetValue@4       1001e188     kernel32:KERNEL32.dll
 0002:0000018c       __imp__TlsAlloc@0          1001e18c     kernel32:KERNEL32.dll
 0002:00000190       __imp__InterlockedFlushSList@4 1001e190     kernel32:KERNEL32.dll
 0002:00000194       __imp__RtlUnwind@16        1001e194     kernel32:KERNEL32.dll
 0002:00000198       __imp__LoadLibraryExA@12   1001e198     kernel32:KERNEL32.dll
 0002:0000019c       __imp__VirtualFree@12      1001e19c     kernel32:KERNEL32.dll
 0002:000001a0       __imp__VirtualAlloc@16     1001e1a0     kernel32:KERNEL32.dll
 0002:000001a4       __imp__FlushInstructionCache@12 1001e1a4     kernel32:KERNEL32.dll
 0002:000001a8       __imp__InterlockedPushEntrySList@8 1001e1a8     kernel32:KERNEL32.dll
 0002:000001ac       __imp__InterlockedPopEntrySList@4 1001e1ac     kernel32:KERNEL32.dll
 0002:000001b0       __imp__GetProcessHeap@0    1001e1b0     kernel32:KERNEL32.dll
 0002:000001b4       __imp__HeapFree@12         1001e1b4     kernel32:KERNEL32.dll
 0002:000001b8       __imp__HeapAlloc@12        1001e1b8     kernel32:KERNEL32.dll
 0002:000001bc       __imp__OutputDebugStringW@4 1001e1bc     kernel32:KERNEL32.dll
 0002:000001c0       __imp__InitializeSListHead@4 1001e1c0     kernel32:KERNEL32.dll
 0002:000001c4       __imp__GetSystemTimeAsFileTime@4 1001e1c4     kernel32:KERNEL32.dll
 0002:000001c8       __imp__QueryPerformanceCounter@4 1001e1c8     kernel32:KERNEL32.dll
 0002:000001cc       __imp__GetStartupInfoW@4   1001e1cc     kernel32:KERNEL32.dll
 0002:000001d0       __imp__IsDebuggerPresent@0 1001e1d0     kernel32:KERNEL32.dll
 0002:000001d4       __imp__IsProcessorFeaturePresent@4 1001e1d4     kernel32:KERNEL32.dll
 0002:000001d8       __imp__TerminateProcess@8  1001e1d8     kernel32:KERNEL32.dll
 0002:000001dc       __imp__GetCurrentProcess@0 1001e1dc     kernel32:KERNEL32.dll
 0002:000001e0       __imp__WaitForSingleObjectEx@12 1001e1e0     kernel32:KERNEL32.dll
 0002:000001e4       __imp__UnhandledExceptionFilter@4 1001e1e4     kernel32:KERNEL32.dll
 0002:000001e8       __imp__SetUnhandledExceptionFilter@4 1001e1e8     kernel32:KERNEL32.dll
 0002:000001ec       \177KERNEL32_NULL_THUNK_DATA 1001e1ec     kernel32:KERNEL32.dll
 0002:000001f0       __imp__OleCreatePropertyFrame@44 1001e1f0     oleaut32:OLEAUT32.dll
 0002:000001f4       __imp__UnRegisterTypeLib@20 1001e1f4     oleaut32:OLEAUT32.dll
 0002:000001f8       __imp__RegisterTypeLib@12  1001e1f8     oleaut32:OLEAUT32.dll
 0002:000001fc       __imp__LoadRegTypeLib@20   1001e1fc     oleaut32:OLEAUT32.dll
 0002:00000200       __imp__LoadTypeLib@8       1001e200     oleaut32:OLEAUT32.dll
 0002:00000204       __imp__VarUI4FromStr@16    1001e204     oleaut32:OLEAUT32.dll
 0002:00000208       __imp__VariantInit@4       1001e208     oleaut32:OLEAUT32.dll
 0002:0000020c       __imp__SysAllocStringByteLen@8 1001e20c     oleaut32:OLEAUT32.dll
 0002:00000210       __imp__SysStringByteLen@4  1001e210     oleaut32:OLEAUT32.dll
 0002:00000214       __imp__VariantChangeType@16 1001e214     oleaut32:OLEAUT32.dll
 0002:00000218       __imp__VariantClear@4      1001e218     oleaut32:OLEAUT32.dll
 0002:0000021c       __imp__SysStringLen@4      1001e21c     oleaut32:OLEAUT32.dll
 0002:00000220       __imp__SysFreeString@4     1001e220     oleaut32:OLEAUT32.dll
 0002:00000224       __imp__SysAllocStringLen@8 1001e224     oleaut32:OLEAUT32.dll
 0002:00000228       __imp__SysAllocString@4    1001e228     oleaut32:OLEAUT32.dll
 0002:0000022c       \177OLEAUT32_NULL_THUNK_DATA 1001e22c     oleaut32:OLEAUT32.dll
 0002:00000230       __imp__UnregisterClassW@8  1001e230     user32:USER32.dll
 0002:00000234       __imp__PostMessageW@16     1001e234     user32:USER32.dll
 0002:00000238       __imp__DefWindowProcW@16   1001e238     user32:USER32.dll
 0002:0000023c       __imp__CallWindowProcW@20  1001e23c     user32:USER32.dll
 0002:00000240       __imp__RegisterClassExW@4  1001e240     user32:USER32.dll
 0002:00000244       __imp__GetClassInfoExW@12  1001e244     user32:USER32.dll
 0002:00000248       __imp__CreateWindowExW@48  1001e248     user32:USER32.dll
 0002:0000024c       __imp__IsWindow@4          1001e24c     user32:USER32.dll
 0002:00000250       __imp__IsChild@8           1001e250     user32:USER32.dll
 0002:00000254       __imp__DestroyWindow@4     1001e254     user32:USER32.dll
 0002:00000258       __imp__ShowWindow@8        1001e258     user32:USER32.dll
 0002:0000025c       __imp__SetWindowPos@28     1001e25c     user32:USER32.dll
 0002:00000260       __imp__CharNextW@4         1001e260     user32:USER32.dll
 0002:00000264       __imp__SetFocus@4          1001e264     user32:USER32.dll
 0002:00000268       __imp__LoadBitmapW@8       1001e268     user32:USER32.dll
 0002:0000026c       __imp__RegisterClassW@4    1001e26c     user32:USER32.dll
 0002:00000270       __imp__PeekMessageW@20     1001e270     user32:USER32.dll
 0002:00000274       __imp__LoadCursorW@8       1001e274     user32:USER32.dll
 0002:00000278       __imp__GetParent@4         1001e278     user32:USER32.dll
 0002:0000027c       __imp__SetWindowLongW@12   1001e27c     user32:USER32.dll
 0002:00000280       __imp__GetWindowLongW@8    1001e280     user32:USER32.dll
 0002:00000284       __imp__PtInRect@12         1001e284     user32:USER32.dll
 0002:00000288       __imp__EqualRect@8         1001e288     user32:USER32.dll
 0002:0000028c       __imp__OffsetRect@12       1001e28c     user32:USER32.dll
 0002:00000290       __imp__UnionRect@12        1001e290     user32:USER32.dll
 0002:00000294       __imp__IntersectRect@12    1001e294     user32:USER32.dll
 0002:00000298       __imp__GetClientRect@8     1001e298     user32:USER32.dll
 0002:0000029c       __imp__InvalidateRect@12   1001e29c     user32:USER32.dll
 0002:000002a0       __imp__SetWindowRgn@12     1001e2a0     user32:USER32.dll
 0002:000002a4       __imp__EndPaint@8          1001e2a4     user32:USER32.dll
 0002:000002a8       __imp__BeginPaint@8        1001e2a8     user32:USER32.dll
 0002:000002ac       __imp__ReleaseDC@8         1001e2ac     user32:USER32.dll
 0002:000002b0       __imp__GetDC@4             1001e2b0     user32:USER32.dll
 0002:000002b4       __imp__GetKeyState@4       1001e2b4     user32:USER32.dll
 0002:000002b8       __imp__GetFocus@0          1001e2b8     user32:USER32.dll
 0002:000002bc       \177USER32_NULL_THUNK_DATA 1001e2bc     user32:USER32.dll
 0002:000002c0       __imp__CoCreateInstance@20 1001e2c0     ole32:ole32.dll
 0002:000002c4       __imp__CoTaskMemAlloc@4    1001e2c4     ole32:ole32.dll
 0002:000002c8       __imp__CoTaskMemRealloc@8  1001e2c8     ole32:ole32.dll
 0002:000002cc       __imp__CoTaskMemFree@4     1001e2cc     ole32:ole32.dll
 0002:000002d0       __imp__ReadClassStm@8      1001e2d0     ole32:ole32.dll
 0002:000002d4       __imp__WriteClassStm@8     1001e2d4     ole32:ole32.dll
 0002:000002d8       __imp__CreateDataAdviseHolder@4 1001e2d8     ole32:ole32.dll
 0002:000002dc       __imp__OleSaveToStream@8   1001e2dc     ole32:ole32.dll
 0002:000002e0       __imp__CreateOleAdviseHolder@4 1001e2e0     ole32:ole32.dll
 0002:000002e4       __imp__OleRegGetUserType@12 1001e2e4     ole32:ole32.dll
 0002:000002e8       __imp__OleRegGetMiscStatus@12 1001e2e8     ole32:ole32.dll
 0002:000002ec       __imp__OleRegEnumVerbs@8   1001e2ec     ole32:ole32.dll
 0002:000002f0       __imp__CLSIDFromProgID@8   1001e2f0     ole32:ole32.dll
 0002:000002f4       __imp__StringFromGUID2@12  1001e2f4     ole32:ole32.dll
 0002:000002f8       \177ole32_NULL_THUNK_DATA  1001e2f8     ole32:ole32.dll
 0002:000002fc       ___guard_check_icall_fptr  1001e2fc     LIBCMT:guard_support.obj
 0002:00000300       ___xc_a                    1001e300     LIBCMT:initializers.obj
 0002:00000318       ___xc_z                    1001e318     LIBCMT:initializers.obj
 0002:0000031c       ___xi_a                    1001e31c     LIBCMT:initializers.obj
 0002:00000324       ___acrt_stdio_initializer  1001e324     libucrt:stdio_initializer.obj
 0002:00000328       ___acrt_multibyte_initializer 1001e328     libucrt:multibyte_initializer.obj
 0002:0000032c       ___acrt_tran_sse2_initializer 1001e32c     libucrt:sse2_initializer.obj
 0002:00000330       ___xi_z                    1001e330     LIBCMT:initializers.obj
 0002:00000334       ___xl_a                    1001e334     LIBCMT:tlssup.obj
 0002:00000338       ___xl_z                    1001e338     LIBCMT:tlssup.obj
 0002:0000033c       ___xp_a                    1001e33c     LIBCMT:initializers.obj
 0002:00000340       ___acrt_locale_terminator  1001e340     libucrt:locale_initializer.obj
 0002:00000344       ___dcrt_console_output_terminator 1001e344     libucrt:console_output_initializer.obj
 0002:00000348       ___acrt_stdio_terminator   1001e348     libucrt:stdio_initializer.obj
 0002:0000034c       ___xp_z                    1001e34c     LIBCMT:initializers.obj
 0002:00000350       ___xt_a                    1001e350     LIBCMT:initializers.obj
 0002:00000354       ___xt_z                    1001e354     LIBCMT:initializers.obj
 0002:00000360       ??_C@_11LOCGONAA@@         1001e360     OposVariant.obj
 0002:00000364       ??_C@_13HADIAKP@?$AAS@     1001e364     OposVariant.obj
 0002:00000368       ??_C@_13LHMFKAAD@?$AAM@    1001e368     OposVariant.obj
 0002:0000036c       ??_C@_13MKMNOPIJ@?$AAD@    1001e36c     OposVariant.obj
 0002:00000370       ??_C@_13OPKGLAFF@?$AAB@    1001e370     OposVariant.obj
 0002:00000374       ??_C@_17LLMMEOJD@?$AAV?$AAa?$AAl@ 1001e374     OposVariant.obj
 0002:0000037c       ??_C@_1BI@JFAIJMHL@?$AAF?$AAo?$AAr?$AAc?$AAe?$AAR?$AAe?$AAm?$AAo?$AAv?$AAe@ 1001e37c     OposVariant.obj
 0002:00000394       ??_C@_1BC@GCKHIPE@?$AAN?$AAo?$AAR?$AAe?$AAm?$AAo?$AAv?$AAe@ 1001e394     OposVariant.obj
 0002:000003a8       ??_C@_1O@JDLOHAN@?$AAD?$AAe?$AAl?$AAe?$AAt?$AAe@ 1001e3a8     OposVariant.obj
 0002:000003b8       __GUID_00000000_0000_0000_c000_000000000046 1001e3b8     ItemDispenser.obj
 0002:000003c8       __GUID_00020400_0000_0000_c000_000000000046 1001e3c8     ItemDispenser.obj
 0002:000003d8       ??_C@_1M@KANJNLFF@?$AAC?$AAL?$AAS?$AAI?$AAD@ 1001e3d8     ItemDispenser.obj
 0002:000003e4       ??_C@_1M@EJNEECMJ@?$AAA?$AAp?$AAp?$AAI?$AAD@ 1001e3e4     ItemDispenser.obj
 0002:000003f0       ?_entries@?1??_GetEntries@COPOSItemDispenser@@SGPBU_ATL_INTMAP_ENTRY@ATL@@XZ@4QBU34@B 1001e3f0     ItemDispenser.obj
 0002:00000510       __GUID_cf51ed10_62fe_11cf_bf86_00a0c9034836 1001e510     ItemDispenser.obj
 0002:00000520       __GUID_0000010a_0000_0000_c000_000000000046 1001e520     ItemDispenser.obj
 0002:00000530       __GUID_b196b283_bab4_101a_b69c_00aa00341d07 1001e530     ItemDispenser.obj
 0002:00000540       __GUID_cb5bdc81_93c1_11cf_8f20_00805f2cd064 1001e540     ItemDispenser.obj
 0002:00000550       ?pPropMap@?1??GetPropertyMap@COPOSItemDispenser@@SAPBUATL_PROPMAP_ENTRY@ATL@@XZ@4QBU34@B 1001e550     ItemDispenser.obj
 0002:000005bc       ??_C@_17DGDADEHL@?$AA_?$AAc?$AAx@ 1001e5bc     ItemDispenser.obj
 0002:000005c4       ??_C@_17IOIMFDBO@?$AA_?$AAc?$AAy@ 1001e5c4     ItemDispenser.obj
 0002:000005cc       ?rgszNeverDelete@CRegParser@ATL@@1QBQB_WB 1001e5cc     ItemDispenser.obj
 0002:000005fc       __GUID_b196b286_bab4_101a_b69c_00aa00341d07 1001e5fc     ItemDispenser.obj
 0002:0000060c       ??_C@_1CE@PGFMOFKI@?$AAS?$AAt?$AAa?$AAt?$AAu?$AAs?$AAU?$AAp?$AAd?$AAa?$AAt?$AAe?$AAE?$AAv?$AAe@ 1001e60c     ItemDispenser.obj
 0002:00000630       ??_C@_1BM@CBGEBBBJ@?$AAD?$AAi?$AAr?$AAe?$AAc?$AAt?$AAI?$AAO?$AAE?$AAv?$AAe?$AAn?$AAt@ 1001e630     ItemDispenser.obj
 0002:0000064c       ??_7CRegObject@ATL@@6B@    1001e64c     ItemDispenser.obj
 0002:00000664       __GUID_922eada0_3424_11cf_b670_00aa004cd6d8 1001e664     ItemDispenser.obj
 0002:00000674       __GUID_9c2cad80_3424_11cf_b670_00aa004cd6d8 1001e674     ItemDispenser.obj
 0002:00000684       __GUID_00000119_0000_0000_c000_000000000046 1001e684     ItemDispenser.obj
 0002:00000694       __GUID_b196b289_bab4_101a_b69c_00aa00341d07 1001e694     ItemDispenser.obj
 0002:000006a4       ??_C@_1BC@ENICKDH@?$AAC?$AAo?$AAn?$AAt?$AAe?$AAn?$AAt?$AAs@ 1001e6a4     ItemDispenser.obj
 0002:000006b8       __GUID_00000117_0000_0000_c000_000000000046 1001e6b8     ItemDispenser.obj
 0002:000006c8       ??_7?$CComObject@V?$CComEnum@UIEnumConnectionPoints@@$1?_GUID_b196b285_bab4_101a_b69c_00aa00341d07@@3U__s_GUID@@BPAUIConnectionPoint@@V?$_CopyInterface@UIConnectionPoint@@@ATL@@VCComSingleThreadModel@6@@ATL@@@ATL@@6B@ 1001e6c8     ItemDispenser.obj
 0002:000006e8       ??_C@_1CK@OEKPKBNA@?$AAC?$AAo?$AAm?$AAp?$AAo?$AAn?$AAe?$AAn?$AAt?$AA?5?$AAC?$AAa?$AAt?$AAe?$AAg@ 1001e6e8     ItemDispenser.obj
 0002:00000714       ??_C@_1BC@NKMMNMGL@?$AAF?$AAi?$AAl?$AAe?$AAT?$AAy?$AAp?$AAe@ 1001e714     ItemDispenser.obj
 0002:00000728       ??_C@_1BE@EKPAFMCP@?$AAI?$AAn?$AAt?$AAe?$AAr?$AAf?$AAa?$AAc?$AAe@ 1001e728     ItemDispenser.obj
 0002:0000073c       ??_C@_1BC@MAICEHGI@?$AAH?$AAa?$AAr?$AAd?$AAw?$AAa?$AAr?$AAe@ 1001e73c     ItemDispenser.obj
 0002:00000750       ??_C@_19HLLLM@?$AAM?$AAi?$AAm?$AAe@ 1001e750     ItemDispenser.obj
 0002:0000075c       ??_C@_17OMAOINJK@?$AAS?$AAA?$AAM@ 1001e75c     ItemDispenser.obj
 0002:00000764       ??_C@_1BC@IBECJAAI@?$AAS?$AAE?$AAC?$AAU?$AAR?$AAI?$AAT?$AAY@ 1001e764     ItemDispenser.obj
 0002:00000778       ??_C@_1O@GBFINDKL@?$AAS?$AAY?$AAS?$AAT?$AAE?$AAM@ 1001e778     ItemDispenser.obj
 0002:00000788       ??_C@_1BC@EAHCMADO@?$AAS?$AAo?$AAf?$AAt?$AAw?$AAa?$AAr?$AAe@ 1001e788     ItemDispenser.obj
 0002:0000079c       ??_C@_1BA@JIHHIEDE@?$AAT?$AAy?$AAp?$AAe?$AAL?$AAi?$AAb@ 1001e79c     ItemDispenser.obj
 0002:00000820       ??_C@_19NCHLBIN@?$AAH?$AAK?$AAC?$AAR@ 1001e820     ItemDispenser.obj
 0002:0000082c       ??_C@_19JAPAIJDE@?$AAH?$AAK?$AAC?$AAU@ 1001e82c     ItemDispenser.obj
 0002:00000838       ??_C@_19PEALEEJB@?$AAH?$AAK?$AAL?$AAM@ 1001e838     ItemDispenser.obj
 0002:00000844       ??_C@_17PJOJPMPB@?$AAH?$AAK?$AAU@ 1001e844     ItemDispenser.obj
 0002:0000084c       ??_C@_19PNBHMJPL@?$AAH?$AAK?$AAP?$AAD@ 1001e84c     ItemDispenser.obj
 0002:00000858       ??_C@_19GFFAIJHG@?$AAH?$AAK?$AAD?$AAD@ 1001e858     ItemDispenser.obj
 0002:00000864       ??_C@_19OFICIBHH@?$AAH?$AAK?$AAC?$AAC@ 1001e864     ItemDispenser.obj
 0002:00000870       ??_C@_1CE@PACHPJFI@?$AAH?$AAK?$AAE?$AAY?$AA_?$AAC?$AAL?$AAA?$AAS?$AAS?$AAE?$AAS?$AA_?$AAR?$AAO@ 1001e870     ItemDispenser.obj
 0002:00000894       ??_C@_1CE@HLHNCBPM@?$AAH?$AAK?$AAE?$AAY?$AA_?$AAC?$AAU?$AAR?$AAR?$AAE?$AAN?$AAT?$AA_?$AAU?$AAS@ 1001e894     ItemDispenser.obj
 0002:000008b8       ??_C@_1CG@GFBEANJL@?$AAH?$AAK?$AAE?$AAY?$AA_?$AAL?$AAO?$AAC?$AAA?$AAL?$AA_?$AAM?$AAA?$AAC?$AAH@ 1001e8b8     ItemDispenser.obj
 0002:000008e0       ??_C@_1BG@BGODANIO@?$AAH?$AAK?$AAE?$AAY?$AA_?$AAU?$AAS?$AAE?$AAR?$AAS@ 1001e8e0     ItemDispenser.obj
 0002:000008f8       ??_C@_1CM@KHNNAOIC@?$AAH?$AAK?$AAE?$AAY?$AA_?$AAP?$AAE?$AAR?$AAF?$AAO?$AAR?$AAM?$AAA?$AAN?$AAC@ 1001e8f8     ItemDispenser.obj
 0002:00000924       ??_C@_1BM@HAGMMHIA@?$AAH?$AAK?$AAE?$AAY?$AA_?$AAD?$AAY?$AAN?$AA_?$AAD?$AAA?$AAT?$AAA@ 1001e924     ItemDispenser.obj
 0002:00000940       ??_C@_1CI@BBJOACGG@?$AAH?$AAK?$AAE?$AAY?$AA_?$AAC?$AAU?$AAR?$AAR?$AAE?$AAN?$AAT?$AA_?$AAC?$AAO@ 1001e940     ItemDispenser.obj
 0002:00000968       ??_C@_1EA@NHKLICFA@?$AAH?$AAK?$AAC?$AAU?$AA?$AN?$AA?6?$AA?$HL?$AA?7?$AAS?$AAo?$AAf?$AAt?$AAw?$AAa?$AAr@ 1001e968     ItemDispenser.obj
 0002:000009a8       ??_C@_1BE@LJOLIMEM@?$AA?$AN?$AA?6?$AA?7?$AA?$HN?$AA?$AN?$AA?6?$AA?$HN?$AA?$AN?$AA?6@ 1001e9a8     ItemDispenser.obj
 0002:000009bc       __GUID_00000109_0000_0000_c000_000000000046 1001e9bc     ItemDispenser.obj
 0002:000009cc       __GUID_7fd52380_4e07_101b_ae2d_08002b2ec713 1001e9cc     ItemDispenser.obj
 0002:000009dc       ??_C@_1O@MNLDABAF@?$AAM?$AAo?$AAd?$AAu?$AAl?$AAe@ 1001e9dc     ItemDispenser.obj
 0002:000009ec       ??_C@_1BG@JBACFMF@?$AAM?$AAo?$AAd?$AAu?$AAl?$AAe?$AA_?$AAR?$AAa?$AAw@ 1001e9ec     ItemDispenser.obj
 0002:00000a04       ??_C@_1BC@KAILKFFG@?$AAR?$AAE?$AAG?$AAI?$AAS?$AAT?$AAR?$AAY@ 1001ea04     ItemDispenser.obj
 0002:00000a18       __GUID_0000010e_0000_0000_c000_000000000046 1001ea18     ItemDispenser.obj
 0002:00000a28       __GUID_b196b288_bab4_101a_b69c_00aa00341d07 1001ea28     ItemDispenser.obj
 0002:00000a38       __GUID_00000113_0000_0000_c000_000000000046 1001ea38     ItemDispenser.obj
 0002:00000a48       __GUID_1c2056cc_5ef4_101b_8bc8_00aa003e3b29 1001ea48     ItemDispenser.obj
 0002:00000a58       ??_7?$CComObjectCached@VCComClassFactory@ATL@@@ATL@@6B@ 1001ea58     ItemDispenser.obj
 0002:00000a70       __GUID_00000112_0000_0000_c000_000000000046 1001ea70     ItemDispenser.obj
 0002:00000a80       __GUID_3af24292_0c96_11ce_a0cf_00aa00600ab8 1001ea80     ItemDispenser.obj
 0002:00000a90       __GUID_00000127_0000_0000_c000_000000000046 1001ea90     ItemDispenser.obj
 0002:00000aa0       __GUID_0000010d_0000_0000_c000_000000000046 1001eaa0     ItemDispenser.obj
 0002:00000ab0       ??_C@_1M@PPPPCDEP@?$AAA?$AAP?$AAP?$AAI?$AAD@ 1001eab0     ItemDispenser.obj
 0002:00000abc       __GUID_b196b284_bab4_101a_b69c_00aa00341d07 1001eabc     ItemDispenser.obj
 0002:00000acc       ??_7?$CComContainedObject@VCOPOSItemDispenser@@@ATL@@6B?$IDispatchImpl@UIOPOSItemDispenser@@$1?IID_IOPOSItemDispenser@@3U_GUID@@B$1?LIBID_OposItemDispenser_CCO@@3U3@B$00$0A@VCComTypeInfoHolder@ATL@@@1@@ 1001eacc     ItemDispenser.obj
 0002:00000bb8       ??_7?$CComContainedObject@VCOPOSItemDispenser@@@ATL@@6BCComControlBase@1@@ 1001ebb8     ItemDispenser.obj
 0002:00000bcc       ??_7?$CComContainedObject@VCOPOSItemDispenser@@@ATL@@6B?$CWindowImpl@VCOPOSItemDispenser@@VCWindow@ATL@@V?$CWinTraits@$0FGAAAAAA@$0A@@3@@1@@ 1001ebcc     ItemDispenser.obj
 0002:00000bdc       ??_7?$CComContainedObject@VCOPOSItemDispenser@@@ATL@@6B?$IPersistStreamInitImpl@VCOPOSItemDispenser@@@1@@ 1001ebdc     ItemDispenser.obj
 0002:00000c00       ??_7?$CComContainedObject@VCOPOSItemDispenser@@@ATL@@6B?$IOleControlImpl@VCOPOSItemDispenser@@@1@@ 1001ec00     ItemDispenser.obj
 0002:00000c1c       ??_7?$CComContainedObject@VCOPOSItemDispenser@@@ATL@@6B?$IOleObjectImpl@VCOPOSItemDispenser@@@1@@ 1001ec1c     ItemDispenser.obj
 0002:00000c7c       ??_7?$CComContainedObject@VCOPOSItemDispenser@@@ATL@@6B?$IOleInPlaceActiveObjectImpl@VCOPOSItemDispenser@@@1@@ 1001ec7c     ItemDispenser.obj
 0002:00000ca4       ??_7?$CComContainedObject@VCOPOSItemDispenser@@@ATL@@6B?$IViewObjectExImpl@VCOPOSItemDispenser@@@1@@ 1001eca4     ItemDispenser.obj
 0002:00000ce0       ??_7?$CComContainedObject@VCOPOSItemDispenser@@@ATL@@6B?$IOleInPlaceObjectWindowlessImpl@VCOPOSItemDispenser@@@1@@ 1001ece0     ItemDispenser.obj
 0002:00000d0c       ??_7?$CComContainedObject@VCOPOSItemDispenser@@@ATL@@6B?$IConnectionPointContainerImpl@VCOPOSItemDispenser@@@1@@ 1001ed0c     ItemDispenser.obj
 0002:00000d20       ??_7?$CComContainedObject@VCOPOSItemDispenser@@@ATL@@6B?$IPersistStorageImpl@VCOPOSItemDispenser@@@1@@ 1001ed20     ItemDispenser.obj
 0002:00000d48       ??_7?$CComContainedObject@VCOPOSItemDispenser@@@ATL@@6B?$ISpecifyPropertyPagesImpl@VCOPOSItemDispenser@@@1@@ 1001ed48     ItemDispenser.obj
 0002:00000d58       ??_7?$CComContainedObject@VCOPOSItemDispenser@@@ATL@@6B?$IQuickActivateImpl@VCOPOSItemDispenser@@@1@@ 1001ed58     ItemDispenser.obj
 0002:00000d70       ??_7?$CComContainedObject@VCOPOSItemDispenser@@@ATL@@6B?$IDataObjectImpl@VCOPOSItemDispenser@@@1@@ 1001ed70     ItemDispenser.obj
 0002:00000da0       ??_7?$CComContainedObject@VCOPOSItemDispenser@@@ATL@@6B?$IProvideClassInfo2Impl@$1?CLSID_OPOSItemDispenser@@3U_GUID@@B$1?DIID__IOPOSItemDispenserEvents@@3U2@B$1?LIBID_OposItemDispenser_CCO@@3U2@B$00$0A@VCComTypeInfoHolder@ATL@@@1@@ 1001eda0     ItemDispenser.obj
 0002:00000db4       ??_7?$CComContainedObject@VCOPOSItemDispenser@@@ATL@@6B?$IObjectSafetyImpl@VCOPOSItemDispenser@@$02@1@@ 1001edb4     ItemDispenser.obj
 0002:00000dcc       ??_7?$CComContainedObject@VCOPOSItemDispenser@@@ATL@@6B?$IPropertyNotifySinkCP@VCOPOSItemDispenser@@VCComDynamicUnkArray@ATL@@@1@@ 1001edcc     ItemDispenser.obj
 0002:00000dec       ??_7?$CComContainedObject@VCOPOSItemDispenser@@@ATL@@6B?$CProxy_IOPOSEvents@VCOPOSItemDispenser@@@@@ 1001edec     ItemDispenser.obj
 0002:00000e0c       ??_7?$CComAggObject@VCOPOSItemDispenser@@@ATL@@6B@ 1001ee0c     ItemDispenser.obj
 0002:00000e1c       ??_7?$CComObject@VCOPOSItemDispenser@@@ATL@@6B?$IDispatchImpl@UIOPOSItemDispenser@@$1?IID_IOPOSItemDispenser@@3U_GUID@@B$1?LIBID_OposItemDispenser_CCO@@3U3@B$00$0A@VCComTypeInfoHolder@ATL@@@1@@ 1001ee1c     ItemDispenser.obj
 0002:00000f08       ??_7?$CComObject@VCOPOSItemDispenser@@@ATL@@6BCComControlBase@1@@ 1001ef08     ItemDispenser.obj
 0002:00000f1c       ??_7?$CComObject@VCOPOSItemDispenser@@@ATL@@6B?$CWindowImpl@VCOPOSItemDispenser@@VCWindow@ATL@@V?$CWinTraits@$0FGAAAAAA@$0A@@3@@1@@ 1001ef1c     ItemDispenser.obj
 0002:00000f2c       ??_7?$CComObject@VCOPOSItemDispenser@@@ATL@@6B?$IPersistStreamInitImpl@VCOPOSItemDispenser@@@1@@ 1001ef2c     ItemDispenser.obj
 0002:00000f50       ??_7?$CComObject@VCOPOSItemDispenser@@@ATL@@6B?$IOleControlImpl@VCOPOSItemDispenser@@@1@@ 1001ef50     ItemDispenser.obj
 0002:00000f6c       ??_7?$CComObject@VCOPOSItemDispenser@@@ATL@@6B?$IOleObjectImpl@VCOPOSItemDispenser@@@1@@ 1001ef6c     ItemDispenser.obj
 0002:00000fcc       ??_7?$CComObject@VCOPOSItemDispenser@@@ATL@@6B?$IOleInPlaceActiveObjectImpl@VCOPOSItemDispenser@@@1@@ 1001efcc     ItemDispenser.obj
 0002:00000ff4       ??_7?$CComObject@VCOPOSItemDispenser@@@ATL@@6B?$IViewObjectExImpl@VCOPOSItemDispenser@@@1@@ 1001eff4     ItemDispenser.obj
 0002:00001030       ??_7?$CComObject@VCOPOSItemDispenser@@@ATL@@6B?$IOleInPlaceObjectWindowlessImpl@VCOPOSItemDispenser@@@1@@ 1001f030     ItemDispenser.obj
 0002:0000105c       ??_7?$CComObject@VCOPOSItemDispenser@@@ATL@@6B?$IConnectionPointContainerImpl@VCOPOSItemDispenser@@@1@@ 1001f05c     ItemDispenser.obj
 0002:00001070       ??_7?$CComObject@VCOPOSItemDispenser@@@ATL@@6B?$IPersistStorageImpl@VCOPOSItemDispenser@@@1@@ 1001f070     ItemDispenser.obj
 0002:00001098       ??_7?$CComObject@VCOPOSItemDispenser@@@ATL@@6B?$ISpecifyPropertyPagesImpl@VCOPOSItemDispenser@@@1@@ 1001f098     ItemDispenser.obj
 0002:000010a8       ??_7?$CComObject@VCOPOSItemDispenser@@@ATL@@6B?$IQuickActivateImpl@VCOPOSItemDispenser@@@1@@ 1001f0a8     ItemDispenser.obj
 0002:000010c0       ??_7?$CComObject@VCOPOSItemDispenser@@@ATL@@6B?$IDataObjectImpl@VCOPOSItemDispenser@@@1@@ 1001f0c0     ItemDispenser.obj
 0002:000010f0       ??_7?$CComObject@VCOPOSItemDispenser@@@ATL@@6B?$IProvideClassInfo2Impl@$1?CLSID_OPOSItemDispenser@@3U_GUID@@B$1?DIID__IOPOSItemDispenserEvents@@3U2@B$1?LIBID_OposItemDispenser_CCO@@3U2@B$00$0A@VCComTypeInfoHolder@ATL@@@1@@ 1001f0f0     ItemDispenser.obj
 0002:00001104       ??_7?$CComObject@VCOPOSItemDispenser@@@ATL@@6B?$IObjectSafetyImpl@VCOPOSItemDispenser@@$02@1@@ 1001f104     ItemDispenser.obj
 0002:0000111c       ??_7?$CComObject@VCOPOSItemDispenser@@@ATL@@6B?$IPropertyNotifySinkCP@VCOPOSItemDispenser@@VCComDynamicUnkArray@ATL@@@1@@ 1001f11c     ItemDispenser.obj
 0002:0000113c       ??_7?$CComObject@VCOPOSItemDispenser@@@ATL@@6B?$CProxy_IOPOSEvents@VCOPOSItemDispenser@@@@@ 1001f13c     ItemDispenser.obj
 0002:0000115c       ??_C@_1O@GBFKGNEO@?$AAA?$AAT?$AAL?$AA?3?$AA?$CF?$AAp@ 1001f15c     ItemDispenser.obj
 0002:0000116c       ??_C@_1BA@PICGEGJB@?$AAD?$AAI?$AAS?$AAP?$AAL?$AAA?$AAY@ 1001f16c     ItemDispenser.obj
 0002:0000117c       __GUID_9bfbbc02_eff1_101a_84ed_00aa00341d07 1001f17c     ItemDispenser.obj
 0002:0000118c       ?_entries@?1??_GetEntries@?$CComEnum@UIEnumConnectionPoints@@$1?_GUID_b196b285_bab4_101a_b69c_00aa00341d07@@3U__s_GUID@@BPAUIConnectionPoint@@V?$_CopyInterface@UIConnectionPoint@@@ATL@@VCComSingleThreadModel@6@@ATL@@SGPBU_ATL_INTMAP_ENTRY@3@XZ@4QBU43@B 1001f18c     ItemDispenser.obj
 0002:000011a4       __GUID_00020412_0000_0000_c000_000000000046 1001f1a4     ItemDispenser.obj
 0002:000011b4       __GUID_00020401_0000_0000_c000_000000000046 1001f1b4     ItemDispenser.obj
 0002:000011c4       ??_7CComClassFactory@ATL@@6B@ 1001f1c4     ItemDispenser.obj
 0002:000011dc       ?_entries@?1??_GetEntries@CComClassFactory@ATL@@SGPBU_ATL_INTMAP_ENTRY@3@XZ@4QBU43@B 1001f1dc     ItemDispenser.obj
 0002:000011f4       __GUID_00000001_0000_0000_c000_000000000046 1001f1f4     ItemDispenser.obj
 0002:00001204       ??_7?$CComObject@V?$CComEnum@UIEnumConnections@@$1?_GUID_b196b287_bab4_101a_b69c_00aa00341d07@@3U__s_GUID@@BUtagCONNECTDATA@@V?$_Copy@UtagCONNECTDATA@@@ATL@@VCComSingleThreadModel@6@@ATL@@@ATL@@6B@ 1001f204     ItemDispenser.obj
 0002:00001224       __GUID_55980ba0_35aa_11cf_b671_00aa004cd6d8 1001f224     ItemDispenser.obj
 0002:00001234       __GUID_b196b28b_bab4_101a_b69c_00aa00341d07 1001f234     ItemDispenser.obj
 0002:00001244       ?_entries@?1??_GetEntries@?$CComEnum@UIEnumConnections@@$1?_GUID_b196b287_bab4_101a_b69c_00aa00341d07@@3U__s_GUID@@BUtagCONNECTDATA@@V?$_Copy@UtagCONNECTDATA@@@ATL@@VCComSingleThreadModel@6@@ATL@@SGPBU_ATL_INTMAP_ENTRY@3@XZ@4QBU43@B 1001f244     ItemDispenser.obj
 0002:0000125c       ??_C@_1BK@BIGILECK@?$AAA?$AAd?$AAv?$AAa?$AAp?$AAi?$AA3?$AA2?$AA?4?$AAd?$AAl?$AAl@ 1001f25c     ItemDispenser.obj
 0002:00001278       ??_C@_0BI@MNCFCPFK@RegCreateKeyTransactedW@ 1001f278     ItemDispenser.obj
 0002:00001290       __GUID_b196b287_bab4_101a_b69c_00aa00341d07 1001f290     ItemDispenser.obj
 0002:000012a0       __GUID_b196b285_bab4_101a_b69c_00aa00341d07 1001f2a0     ItemDispenser.obj
 0002:000012b0       __GUID_a6bc3ac0_dbaa_11ce_9de3_00aa004bb851 1001f2b0     ItemDispenser.obj
 0002:000012c0       _IID_IOPOSItemDispenser_1_12 1001f2c0     ItemDispenser.obj
 0002:000012d0       __GUID_0000010c_0000_0000_c000_000000000046 1001f2d0     ItemDispenser.obj
 0002:000012e0       __GUID_00000146_0000_0000_c000_000000000046 1001f2e0     ItemDispenser.obj
 0002:000012f0       _IID_IOPOSItemDispenser    1001f2f0     ItemDispenser.obj
 0002:00001300       _LIBID_OposItemDispenser_CCO 1001f300     ItemDispenser.obj
 0002:00001310       _DIID__IOPOSItemDispenserEvents 1001f310     ItemDispenser.obj
 0002:00001320       _CLSID_OPOSItemDispenser   1001f320     ItemDispenser.obj
 0002:00001330       __GUID_00000114_0000_0000_c000_000000000046 1001f330     ItemDispenser.obj
 0002:00001340       ??_7CComModule@ATL@@6B@    1001f340     ItemDispenser.obj
 0002:00001368       ??_C@_0BG@EKFFMJIO@RegOpenKeyTransactedW@ 1001f368     ItemDispenser.obj
 0002:00001380       ??_C@_0BI@HAKLOOGP@RegDeleteKeyTransactedW@ 1001f380     ItemDispenser.obj
 0002:00001398       ??_C@_19ILOCMLCJ@?$AA?4?$AAt?$AAl?$AAb@ 1001f398     ItemDispenser.obj
 0002:000013a4       __GUID_0002e012_0000_0000_c000_000000000046 1001f3a4     ItemDispenser.obj
 0002:000013b4       ??_C@_1O@FHBGLCIO@?$AAC?$AAL?$AAS?$AAI?$AAD?$AA?2@ 1001f3b4     ItemDispenser.obj
 0002:000013c4       ??_C@_1CK@IFBKBFAA@?$AA?2?$AAR?$AAe?$AAq?$AAu?$AAi?$AAr?$AAe?$AAd?$AA?5?$AAC?$AAa?$AAt?$AAe?$AAg@ 1001f3c4     ItemDispenser.obj
 0002:000013f0       ??_C@_1DA@BIHALFED@?$AA?2?$AAI?$AAm?$AAp?$AAl?$AAe?$AAm?$AAe?$AAn?$AAt?$AAe?$AAd?$AA?5?$AAC?$AAa@ 1001f3f0     ItemDispenser.obj
 0002:00001420       ??_C@_1BK@EDKOLFBJ@?$AAO?$AAL?$AAE?$AAA?$AAU?$AAT?$AA3?$AA2?$AA?4?$AAD?$AAL?$AAL@ 1001f420     ItemDispenser.obj
 0002:0000143c       ??_C@_0BJ@CNLFOMHB@UnRegisterTypeLibForUser@ 1001f43c     ItemDispenser.obj
 0002:00001458       ??_C@_0BH@LBOMMKPJ@RegisterTypeLibForUser@ 1001f458     ItemDispenser.obj
 0002:00001470       ??_C@_0P@MMNMMLGK@COFreezeEvents@ 1001f470     ItemDispenserImpl.obj
 0002:00001480       ??_C@_0BC@OGCGGIMP@GetPropertyNumber@ 1001f480     ItemDispenserImpl.obj
 0002:00001494       ??_C@_0BC@MDCNODNB@SetPropertyNumber@ 1001f494     ItemDispenserImpl.obj
 0002:000014a8       ??_C@_0BC@CFCCMIMD@GetPropertyString@ 1001f4a8     ItemDispenserImpl.obj
 0002:000014bc       ??_C@_0BC@CJEDNN@SetPropertyString@ 1001f4bc     ItemDispenserImpl.obj
 0002:000014d0       ??_C@_0M@LNPKKKDA@OpenService@ 1001f4d0     ItemDispenserImpl.obj
 0002:000014dc       ??_C@_0M@PCMCHHMH@CheckHealth@ 1001f4dc     ItemDispenserImpl.obj
 0002:000014e8       ??_C@_0M@JGMIDNEK@ClaimDevice@ 1001f4e8     ItemDispenserImpl.obj
 0002:000014f4       ??_C@_0N@DDFIIBMP@CloseService@ 1001f4f4     ItemDispenserImpl.obj
 0002:00001504       ??_C@_08EEIHICPC@DirectIO@ 1001f504     ItemDispenserImpl.obj
 0002:00001510       ??_C@_0O@BCPMENMJ@ReleaseDevice@ 1001f510     ItemDispenserImpl.obj
 0002:00001520       ??_C@_0BA@GFABKEEE@ResetStatistics@ 1001f520     ItemDispenserImpl.obj
 0002:00001530       ??_C@_0BD@DPALHJGC@RetrieveStatistics@ 1001f530     ItemDispenserImpl.obj
 0002:00001544       ??_C@_0BB@KOHIKNFC@UpdateStatistics@ 1001f544     ItemDispenserImpl.obj
 0002:00001558       ??_C@_0BH@PBKBNMGB@CompareFirmwareVersion@ 1001f558     ItemDispenserImpl.obj
 0002:00001570       ??_C@_0P@FBPDPIPA@UpdateFirmware@ 1001f570     ItemDispenserImpl.obj
 0002:00001580       ??_C@_0BA@MFNBLEHA@AdjustItemCount@ 1001f580     ItemDispenserImpl.obj
 0002:00001590       ??_C@_0N@NABAJGFM@DispenseItem@ 1001f590     ItemDispenserImpl.obj
 0002:000015a0       ??_C@_0O@NCNIIKPJ@ReadItemCount@ 1001f5a0     ItemDispenserImpl.obj
 0002:000015b0       ??_7?$CProxy_IOPOSEvents@VCOPOSItemDispenser@@@@6B@ 1001f5b0     ItemDispenserImpl.obj
 0002:000015d0       ??_C@_1BA@IFHENID@?$AA?$FL?$AAE?$AAr?$AAr?$AAo?$AAr?$AA?$FN@ 1001f5d0     ItemDispenserImpl.obj
 0002:000015e0       ??_C@_0DA@GBNHLJBC@SOFTWARE?2OLEforRetail?2ServiceOP@ 1001f5e0     ItemDispenserImpl.obj
 0002:00001610       ??_C@_1M@IAIJHCCH@?$AAC?$AAl?$AAo?$AAs?$AAe@ 1001f610     ItemDispenserImpl.obj
 0002:0000161c       ??_C@_1M@PCPKGJAH@?$AAC?$AAl?$AAa?$AAi?$AAm@ 1001f61c     ItemDispenserImpl.obj
 0002:00001628       ??_C@_1BA@NDFKIOCP@?$AAR?$AAe?$AAl?$AAe?$AAa?$AAs?$AAe@ 1001f628     ItemDispenserImpl.obj
 0002:00001638       ??_C@_0O@GNNFMEMJ@ItemDispenser@ 1001f638     ItemDispenserImpl.obj
 0002:00001648       ??_C@_1BM@IJMNMBPK@?$AAG?$AAe?$AAt?$AAO?$AAp?$AAe?$AAn?$AAR?$AAe?$AAs?$AAu?$AAl?$AAt@ 1001f648     ItemDispenserImpl.obj
 0002:00001664       _GUID_NULL                 1001f664     uuid:cguid_i.obj
 0002:00001674       _CLSID_StdGlobalInterfaceTable 1001f674     uuid:cguid_i.obj
 0002:00001684       _IID_IDispatch             1001f684     uuid:oaidl_i.obj
 0002:00001694       _IID_IPropertyNotifySink   1001f694     uuid:ocidl_i.obj
 0002:000016a4       _CLSID_StdComponentCategoriesMgr 1001f6a4     uuid:ieguids.obj
 0002:000016b4       _IID_IUnknown              1001f6b4     uuid:unknwn_i.obj
 0002:000016c8       ??_C@_1EC@JIJBPKFM@?$AAa?$AAp?$AAi?$AA?9?$AAm?$AAs?$AA?9?$AAw?$AAi?$AAn?$AA?9?$AAc?$AAo?$AAr?$AAe@ 1001f6c8     LIBCMT:thread_safe_statics.obj
 0002:0000170c       ??_C@_1BK@MGMFAEKH@?$AAk?$AAe?$AAr?$AAn?$AAe?$AAl?$AA3?$AA2?$AA?4?$AAd?$AAl?$AAl@ 1001f70c     LIBCMT:thread_safe_statics.obj
 0002:00001728       ??_C@_0BM@HLJJNPAH@InitializeConditionVariable@ 1001f728     LIBCMT:thread_safe_statics.obj
 0002:00001744       ??_C@_0BJ@JEBJOJFJ@SleepConditionVariableCS@ 1001f744     LIBCMT:thread_safe_statics.obj
 0002:00001760       ??_C@_0BJ@PGPPEPCC@WakeAllConditionVariable@ 1001f760     LIBCMT:thread_safe_statics.obj
 0002:00001779       ?nothrow@std@@3Unothrow_t@1@B 1001f779     LIBCMT:std_nothrow.obj
 0002:00001784       __pDefaultRawDllMain       1001f784     LIBCMT:dll_dllmain.obj
 0002:00001784       __pRawDllMain              1001f784     LIBCMT:dll_dllmain.obj
 0002:0000178c       ??_7exception@std@@6B@     1001f78c     LIBCMT:throw_bad_alloc.obj
 0002:00001794       ??_C@_0BC@EOODALEL@Unknown?5exception@ 1001f794     LIBCMT:throw_bad_alloc.obj
 0002:000017ac       ??_7bad_alloc@std@@6B@     1001f7ac     LIBCMT:throw_bad_alloc.obj
 0002:000017b4       ??_C@_0P@GHFPNOJB@bad?5allocation@ 1001f7b4     LIBCMT:throw_bad_alloc.obj
 0002:000017c8       ??_7bad_array_new_length@std@@6B@ 1001f7c8     LIBCMT:throw_bad_alloc.obj
 0002:000017d0       ??_C@_0BF@KINCDENJ@bad?5array?5new?5length@ 1001f7d0     LIBCMT:throw_bad_alloc.obj
 0002:000017ec       ??_7type_info@@6B@         1001f7ec     LIBCMT:std_type_info_static.obj
 0002:000017f0       _GUID_ATLVer110            1001f7f0     atls:atlbase.obj
 0002:00001800       ??_C@_1IC@ONKHOIDK@?$AAE?$AAR?$AAR?$AAO?$AAR?$AA?5?$AA?3?$AA?5?$AAU?$AAn?$AAa?$AAb?$AAl?$AAe?$AA?5@ 1001f800     atls:atlbase.obj
 0002:00001884       ??_C@_0N@FJEPLCIH@atlthunk?4dll@ 1001f884     atls:atlthunk.obj
 0002:00001894       ??_C@_0BG@GAKFHCBM@AtlThunk_AllocateData@ 1001f894     atls:atlthunk.obj
 0002:000018ac       ??_C@_0BC@JKONFIAH@AtlThunk_InitData@ 1001f8ac     atls:atlthunk.obj
 0002:000018c0       ??_C@_0BE@IAOEELAK@AtlThunk_DataToCode@ 1001f8c0     atls:atlthunk.obj
 0002:000018d4       ??_C@_0BC@GBGKAIPI@AtlThunk_FreeData@ 1001f8d4     atls:atlthunk.obj
 0002:00001914       ??_C@_1DM@KHCHBNEB@?$AAa?$AAp?$AAi?$AA?9?$AAm?$AAs?$AA?9?$AAw?$AAi?$AAn?$AA?9?$AAc?$AAo?$AAr?$AAe@ 1001f914     libvcruntime:winapi_downlevel.obj
 0002:00001950       ??_C@_1DK@LPPGFMPP@?$AAa?$AAp?$AAi?$AA?9?$AAm?$AAs?$AA?9?$AAw?$AAi?$AAn?$AA?9?$AAc?$AAo?$AAr?$AAe@ 1001f950     libvcruntime:winapi_downlevel.obj
 0002:0000198c       ??_C@_1BC@GDMECMAK@?$AAk?$AAe?$AAr?$AAn?$AAe?$AAl?$AA3?$AA2@ 1001f98c     libvcruntime:winapi_downlevel.obj
 0002:000019a0       ??_C@_1BA@PFFKHIOG@?$AAa?$AAp?$AAi?$AA?9?$AAm?$AAs?$AA?9@ 1001f9a0     libvcruntime:winapi_downlevel.obj
 0002:000019b0       ??_C@_1BA@IAIFMGEF@?$AAe?$AAx?$AAt?$AA?9?$AAm?$AAs?$AA?9@ 1001f9b0     libvcruntime:winapi_downlevel.obj
 0002:000019c8       ??_C@_08KNHFBNJ@FlsAlloc@  1001f9c8     libvcruntime:winapi_downlevel.obj
 0002:000019dc       ??_C@_07PEJMOBNF@FlsFree@  1001f9dc     libvcruntime:winapi_downlevel.obj
 0002:000019ec       ??_C@_0M@GDNOONDI@FlsGetValue@ 1001f9ec     libvcruntime:winapi_downlevel.obj
 0002:00001a00       ??_C@_0M@JCPCPOEF@FlsSetValue@ 1001fa00     libvcruntime:winapi_downlevel.obj
 0002:00001a14       ??_C@_0BM@HCFOFFN@InitializeCriticalSectionEx@ 1001fa14     libvcruntime:winapi_downlevel.obj
 0002:00001a34       ??_7bad_exception@std@@6B@ 1001fa34     libvcruntime:frame.obj
 0002:00001a3c       ??_C@_0O@DPKOEFFH@bad?5exception@ 1001fa3c     libvcruntime:frame.obj
 0002:00001bec       ??_C@_08EHJDFFNH@__based?$CI@ 1001fbec     libvcruntime:undname.obj
 0002:00001bf8       ??_C@_07KOLFKCDI@__cdecl@  1001fbf8     libvcruntime:undname.obj
 0002:00001c00       ??_C@_08GHMPAG@__pascal@   1001fc00     libvcruntime:undname.obj
 0002:00001c0c       ??_C@_09IFJBGAPI@__stdcall@ 1001fc0c     libvcruntime:undname.obj
 0002:00001c18       ??_C@_0L@NPHFGOKO@__thiscall@ 1001fc18     libvcruntime:undname.obj
 0002:00001c24       ??_C@_0L@JMKHOMEK@__fastcall@ 1001fc24     libvcruntime:undname.obj
 0002:00001c30       ??_C@_0N@BCKKPABJ@__vectorcall@ 1001fc30     libvcruntime:undname.obj
 0002:00001c40       ??_C@_09HIJEGCPM@__clrcall@ 1001fc40     libvcruntime:undname.obj
 0002:00001c4c       ??_C@_06GHPCKEAG@__eabi@   1001fc4c     libvcruntime:undname.obj
 0002:00001c54       ??_C@_09IOPIDJLG@__swift_1@ 1001fc54     libvcruntime:undname.obj
 0002:00001c60       ??_C@_09KFNFGKHF@__swift_2@ 1001fc60     libvcruntime:undname.obj
 0002:00001c6c       ??_C@_07JOMMBBKO@__ptr64@  1001fc6c     libvcruntime:undname.obj
 0002:00001c74       ??_C@_0L@PILCLIHE@__restrict@ 1001fc74     libvcruntime:undname.obj
 0002:00001c80       ??_C@_0M@GFIIJFMG@__unaligned@ 1001fc80     libvcruntime:undname.obj
 0002:00001c8c       ??_C@_09DHDLOLLB@restrict?$CI@ 1001fc8c     libvcruntime:undname.obj
 0002:00001c96       ??_C@_00CNPNBAHC@@         1001fc96     libvcruntime:undname.obj
 0002:00001c98       ??_C@_04NIHEBCM@?5new@     1001fc98     libvcruntime:undname.obj
 0002:00001ca0       ??_C@_07FPCDHGMM@?5delete@ 1001fca0     libvcruntime:undname.obj
 0002:00001ca8       ??_C@_01NEMOKFLO@?$DN@     1001fca8     libvcruntime:undname.obj
 0002:00001cac       ??_C@_02GPIOPFAK@?$DO?$DO@ 1001fcac     libvcruntime:undname.obj
 0002:00001cb0       ??_C@_02FODMEDOG@?$DM?$DM@ 1001fcb0     libvcruntime:undname.obj
 0002:00001cb4       ??_C@_01DCLJPIOD@?$CB@     1001fcb4     libvcruntime:undname.obj
 0002:00001cb8       ??_C@_02EGOFBIJA@?$DN?$DN@ 1001fcb8     libvcruntime:undname.obj
 0002:00001cbc       ??_C@_02FDNJECIE@?$CB?$DN@ 1001fcbc     libvcruntime:undname.obj
 0002:00001cc0       ??_C@_02GPECMEKF@?$FL?$FN@ 1001fcc0     libvcruntime:undname.obj
 0002:00001cc4       ??_C@_08LHJFAFGD@operator@ 1001fcc4     libvcruntime:undname.obj
 0002:00001cd0       ??_C@_02HBOOOICD@?9?$DO@   1001fcd0     libvcruntime:undname.obj
 0002:00001cd4       ??_C@_01NBENCBCI@?$CK@     1001fcd4     libvcruntime:undname.obj
 0002:00001cd8       ??_C@_02ECNGHCIF@?$CL?$CL@ 1001fcd8     libvcruntime:undname.obj
 0002:00001cdc       ??_C@_02BAABKJLB@?9?9@     1001fcdc     libvcruntime:undname.obj
 0002:00001ce0       ??_C@_01JOAMLHOP@?9@       1001fce0     libvcruntime:undname.obj
 0002:00001ce4       ??_C@_01MIFGBAGJ@?$CL@     1001fce4     libvcruntime:undname.obj
 0002:00001ce8       ??_C@_01HNPIGOCE@?$CG@     1001fce8     libvcruntime:undname.obj
 0002:00001cec       ??_C@_03MNHNFDLC@?9?$DO?$CK@ 1001fcec     libvcruntime:undname.obj
 0002:00001cf0       ??_C@_01KMDKNFGN@?1@       1001fcf0     libvcruntime:undname.obj
 0002:00001cf4       ??_C@_01FGNFDNOH@?$CF@     1001fcf4     libvcruntime:undname.obj
 0002:00001cf8       ??_C@_01MNNFJEPP@?$DM@     1001fcf8     libvcruntime:undname.obj
 0002:00001cfc       ??_C@_02EHCHHCKH@?$DM?$DN@ 1001fcfc     libvcruntime:undname.obj
 0002:00001d00       ??_C@_01PPODPGHN@?$DO@     1001fd00     libvcruntime:undname.obj
 0002:00001d04       ??_C@_02EEKDKGMJ@?$DO?$DN@ 1001fd04     libvcruntime:undname.obj
 0002:00001d08       ??_C@_01IHBHIGKO@?0@       1001fd08     libvcruntime:undname.obj
 0002:00001d0c       ??_C@_02HCKGKOFO@?$CI?$CJ@ 1001fd0c     libvcruntime:undname.obj
 0002:00001d10       ??_C@_01PJKLJHI@?$HO@      1001fd10     libvcruntime:undname.obj
 0002:00001d14       ??_C@_01JKBOJNNK@?$FO@     1001fd14     libvcruntime:undname.obj
 0002:00001d18       ??_C@_01DNKMNLPK@?$HM@     1001fd18     libvcruntime:undname.obj
 0002:00001d1c       ??_C@_02PPKAJPJL@?$CG?$CG@ 1001fd1c     libvcruntime:undname.obj
 0002:00001d20       ??_C@_02NONPIBCD@?$HM?$HM@ 1001fd20     libvcruntime:undname.obj
 0002:00001d24       ??_C@_02FPIMKNGF@?$CK?$DN@ 1001fd24     libvcruntime:undname.obj
 0002:00001d28       ??_C@_02FOEOMHFC@?$CL?$DN@ 1001fd28     libvcruntime:undname.obj
 0002:00001d2c       ??_C@_02FKMDLLOA@?9?$DN@   1001fd2c     libvcruntime:undname.obj
 0002:00001d30       ??_C@_02FJEHGPIO@?1?$DN@   1001fd30     libvcruntime:undname.obj
 0002:00001d34       ??_C@_02FENAOKFI@?$CF?$DN@ 1001fd34     libvcruntime:undname.obj
 0002:00001d38       ??_C@_03IKFCCPFF@?$DO?$DO?$DN@ 1001fd38     libvcruntime:undname.obj
 0002:00001d3c       ??_C@_03CDNPDDLA@?$DM?$DM?$DN@ 1001fd3c     libvcruntime:undname.obj
 0002:00001d40       ??_C@_02FGJGFEAB@?$CG?$DN@ 1001fd40     libvcruntime:undname.obj
 0002:00001d44       ??_C@_02DHLNPPGH@?$HM?$DN@ 1001fd44     libvcruntime:undname.obj
 0002:00001d48       ??_C@_02MHEGNOJ@?$FO?$DN@  1001fd48     libvcruntime:undname.obj
 0002:00001d4c       ??_C@_09IFPLHPGF@?$GAvftable?8@ 1001fd4c     libvcruntime:undname.obj
 0002:00001d58       ??_C@_09BLBHBJP@?$GAvbtable?8@ 1001fd58     libvcruntime:undname.obj
 0002:00001d64       ??_C@_07FEEIOKP@?$GAvcall?8@ 1001fd64     libvcruntime:undname.obj
 0002:00001d6c       ??_C@_08LLFFHHDJ@?$GAtypeof?8@ 1001fd6c     libvcruntime:undname.obj
 0002:00001d78       ??_C@_0BF@KDPPACIK@?$GAlocal?5static?5guard?8@ 1001fd78     libvcruntime:undname.obj
 0002:00001d90       ??_C@_08OBABFOLI@?$GAstring?8@ 1001fd90     libvcruntime:undname.obj
 0002:00001d9c       ??_C@_0BD@JDLKDPAB@?$GAvbase?5destructor?8@ 1001fd9c     libvcruntime:undname.obj
 0002:00001db0       ??_C@_0BN@DEGPLNFK@?$GAvector?5deleting?5destructor?8@ 1001fdb0     libvcruntime:undname.obj
 0002:00001dd0       ??_C@_0BO@OBMKPJIG@?$GAdefault?5constructor?5closure?8@ 1001fdd0     libvcruntime:undname.obj
 0002:00001df0       ??_C@_0BN@IMDCHIKM@?$GAscalar?5deleting?5destructor?8@ 1001fdf0     libvcruntime:undname.obj
 0002:00001e10       ??_C@_0BO@PFGOCPJJ@?$GAvector?5constructor?5iterator?8@ 1001fe10     libvcruntime:undname.obj
 0002:00001e30       ??_C@_0BN@LFPFMEDL@?$GAvector?5destructor?5iterator?8@ 1001fe30     libvcruntime:undname.obj
 0002:00001e50       ??_C@_0CE@IKBNEHA@?$GAvector?5vbase?5constructor?5itera@ 1001fe50     libvcruntime:undname.obj
 0002:00001e74       ??_C@_0BL@NILFHHPC@?$GAvirtual?5displacement?5map?8@ 1001fe74     libvcruntime:undname.obj
 0002:00001e90       ??_C@_0CB@JONCMFFK@?$GAeh?5vector?5constructor?5iterator@ 1001fe90     libvcruntime:undname.obj
 0002:00001eb4       ??_C@_0CA@GCEOPDGL@?$GAeh?5vector?5destructor?5iterator?8@ 1001feb4     libvcruntime:undname.obj
 0002:00001ed4       ??_C@_0CH@OOJPLCPH@?$GAeh?5vector?5vbase?5constructor?5it@ 1001fed4     libvcruntime:undname.obj
 0002:00001efc       ??_C@_0BL@LLKPOHJI@?$GAcopy?5constructor?5closure?8@ 1001fefc     libvcruntime:undname.obj
 0002:00001f18       ??_C@_0BA@KBCDOMBN@?$GAudt?5returning?8@ 1001ff18     libvcruntime:undname.obj
 0002:00001f28       ??_C@_03KLGMFNMG@?$GAEH@   1001ff28     libvcruntime:undname.obj
 0002:00001f2c       ??_C@_05KHLCHHI@?$GARTTI@  1001ff2c     libvcruntime:undname.obj
 0002:00001f34       ??_C@_0BA@KKLDJDLB@?$GAlocal?5vftable?8@ 1001ff34     libvcruntime:undname.obj
 0002:00001f44       ??_C@_0CE@IIHCMGGL@?$GAlocal?5vftable?5constructor?5clos@ 1001ff44     libvcruntime:undname.obj
 0002:00001f68       ??_C@_06FHBGPFGH@?5new?$FL?$FN@ 1001ff68     libvcruntime:undname.obj
 0002:00001f70       ??_C@_09LBNFPBCA@?5delete?$FL?$FN@ 1001ff70     libvcruntime:undname.obj
 0002:00001f7c       ??_C@_0P@HJKNJFNN@?$GAomni?5callsig?8@ 1001ff7c     libvcruntime:undname.obj
 0002:00001f8c       ??_C@_0BL@CNOONJFP@?$GAplacement?5delete?5closure?8@ 1001ff8c     libvcruntime:undname.obj
 0002:00001fa8       ??_C@_0BN@CKNJLHMB@?$GAplacement?5delete?$FL?$FN?5closure?8@ 1001ffa8     libvcruntime:undname.obj
 0002:00001fc8       ??_C@_0CG@CFDHKGGD@?$GAmanaged?5vector?5constructor?5ite@ 1001ffc8     libvcruntime:undname.obj
 0002:00001ff0       ??_C@_0CF@IMGKMJNO@?$GAmanaged?5vector?5destructor?5iter@ 1001fff0     libvcruntime:undname.obj
 0002:00002018       ??_C@_0CG@HLDDJMAG@?$GAeh?5vector?5copy?5constructor?5ite@ 10020018     libvcruntime:undname.obj
 0002:00002040       ??_C@_0CM@FCBBDIGB@?$GAeh?5vector?5vbase?5copy?5construct@ 10020040     libvcruntime:undname.obj
 0002:0000206c       ??_C@_0BL@CLIPGLGB@?$GAdynamic?5initializer?5for?5?8@ 1002006c     libvcruntime:undname.obj
 0002:00002088       ??_C@_0CB@PDBIFEP@?$GAdynamic?5atexit?5destructor?5for?5@ 10020088     libvcruntime:undname.obj
 0002:000020ac       ??_C@_0CD@CGAJBKEJ@?$GAvector?5copy?5constructor?5iterat@ 100200ac     libvcruntime:undname.obj
 0002:000020d0       ??_C@_0CJ@GJELGAMM@?$GAvector?5vbase?5copy?5constructor?5@ 100200d0     libvcruntime:undname.obj
 0002:000020fc       ??_C@_0CL@FGIJHLCE@?$GAmanaged?5vector?5copy?5constructo@ 100200fc     libvcruntime:undname.obj
 0002:00002128       ??_C@_0BM@PMGGMLDN@?$GAlocal?5static?5thread?5guard?8@ 10020128     libvcruntime:undname.obj
 0002:00002144       ??_C@_0N@BDNMDMOL@operator?5?$CC?$CC?5@ 10020144     libvcruntime:undname.obj
 0002:00002154       ??_C@_0BC@GGEBGALA@operator?5co_await@ 10020154     libvcruntime:undname.obj
 0002:00002168       ??_C@_0BC@DAFEJGAK@?5Type?5Descriptor?8@ 10020168     libvcruntime:undname.obj
 0002:0000217c       ??_C@_0BM@LDKODKLH@?5Base?5Class?5Descriptor?5at?5?$CI@ 1002017c     libvcruntime:undname.obj
 0002:00002198       ??_C@_0BD@LGICGFMM@?5Base?5Class?5Array?8@ 10020198     libvcruntime:undname.obj
 0002:000021ac       ??_C@_0BN@MECKDCOJ@?5Class?5Hierarchy?5Descriptor?8@ 100201ac     libvcruntime:undname.obj
 0002:000021cc       ??_C@_0BK@CFCOFLF@?5Complete?5Object?5Locator?8@ 100201cc     libvcruntime:undname.obj
 0002:000021e8       __pDestructExceptionObject 100201e8     libvcruntime:ehhelpers.obj
 0002:00002350       _format_validation_lookup_table 10020350     libucrt:output.obj
 0002:000023ac       ??_C@_1O@CEDCILHN@?$AA?$CI?$AAn?$AAu?$AAl?$AAl?$AA?$CJ?$AA?$AA@ 100203ac     libucrt:output.obj
 0002:000023bc       ??_C@_06OJHGLDPL@?$CInull?$CJ?$AA@ 100203bc     libucrt:output.obj
 0002:000023c8       ___acrt_exception_action_table 100203c8     libucrt:exception_filter.obj
 0002:00002458       ___acrt_signal_action_table_count 10020458     libucrt:exception_filter.obj
 0002:0000245c       ___acrt_signal_action_first_fpe_index 1002045c     libucrt:exception_filter.obj
 0002:00002460       ___acrt_signal_action_fpe_count 10020460     libucrt:exception_filter.obj
 0002:00002464       ??_C@_1BI@BGOHAHKC@?$AAm?$AAs?$AAc?$AAo?$AAr?$AAe?$AAe?$AA?4?$AAd?$AAl?$AAl?$AA?$AA@ 10020464     libucrt:exit.obj
 0002:0000247c       ??_C@_0P@MIGLKIOC@CorExitProcess?$AA@ 1002047c     libucrt:exit.obj
 0002:00002558       ??_C@_1EA@JGEFHKEI@?$AAa?$AAp?$AAi?$AA?9?$AAm?$AAs?$AA?9?$AAw?$AAi?$AAn?$AA?9?$AAc?$AAo?$AAr?$AAe?$AA?9?$AAd?$AAa?$AAt?$AAe?$AAt?$AAi?$AAm?$AAe?$AA?9?$AAl?$AA1?$AA?9?$AA1?$AA?9?$AA1?$AA?$AA@ 10020558     libucrt:winapi_thunks.obj
 0002:00002598       ??_C@_1DM@KHCHBNEB@?$AAa?$AAp?$AAi?$AA?9?$AAm?$AAs?$AA?9?$AAw?$AAi?$AAn?$AA?9?$AAc?$AAo?$AAr?$AAe?$AA?9?$AAf?$AAi?$AAb?$AAe?$AAr?$AAs?$AA?9?$AAl?$AA1?$AA?9?$AA1?$AA?9?$AA1?$AA?$AA@ 10020598     libucrt:winapi_thunks.obj
 0002:000025d8       ??_C@_1EI@MPIAOHOC@?$AAa?$AAp?$AAi?$AA?9?$AAm?$AAs?$AA?9?$AAw?$AAi?$AAn?$AA?9?$AAc?$AAo?$AAr?$AAe?$AA?9?$AAl?$AAo?$AAc?$AAa?$AAl?$AAi?$AAz?$AAa?$AAt?$AAi?$AAo?$AAn?$AA?9?$AAl?$AA1?$AA?9@ 100205d8     libucrt:winapi_thunks.obj
 0002:00002620       ??_C@_1FK@FPHCKFIE@?$AAa?$AAp?$AAi?$AA?9?$AAm?$AAs?$AA?9?$AAw?$AAi?$AAn?$AA?9?$AAc?$AAo?$AAr?$AAe?$AA?9?$AAl?$AAo?$AAc?$AAa?$AAl?$AAi?$AAz?$AAa?$AAt?$AAi?$AAo?$AAn?$AA?9?$AAo?$AAb?$AAs@ 10020620     libucrt:winapi_thunks.obj
 0002:00002680       ??_C@_1EM@DILCGIIO@?$AAa?$AAp?$AAi?$AA?9?$AAm?$AAs?$AA?9?$AAw?$AAi?$AAn?$AA?9?$AAc?$AAo?$AAr?$AAe?$AA?9?$AAp?$AAr?$AAo?$AAc?$AAe?$AAs?$AAs?$AAt?$AAh?$AAr?$AAe?$AAa?$AAd?$AAs?$AA?9?$AAl@ 10020680     libucrt:winapi_thunks.obj
 0002:000026cc       ??_C@_1DM@LNCGDDPN@?$AAa?$AAp?$AAi?$AA?9?$AAm?$AAs?$AA?9?$AAw?$AAi?$AAn?$AA?9?$AAc?$AAo?$AAr?$AAe?$AA?9?$AAs?$AAt?$AAr?$AAi?$AAn?$AAg?$AA?9?$AAl?$AA1?$AA?9?$AA1?$AA?9?$AA0?$AA?$AA@ 100206cc     libucrt:winapi_thunks.obj
 0002:00002708       ??_C@_1DK@LPPGFMPP@?$AAa?$AAp?$AAi?$AA?9?$AAm?$AAs?$AA?9?$AAw?$AAi?$AAn?$AA?9?$AAc?$AAo?$AAr?$AAe?$AA?9?$AAs?$AAy?$AAn?$AAc?$AAh?$AA?9?$AAl?$AA1?$AA?9?$AA2?$AA?9?$AA0?$AA?$AA@ 10020708     libucrt:winapi_thunks.obj
 0002:00002744       ??_C@_1DO@FPAPJEMD@?$AAa?$AAp?$AAi?$AA?9?$AAm?$AAs?$AA?9?$AAw?$AAi?$AAn?$AA?9?$AAc?$AAo?$AAr?$AAe?$AA?9?$AAs?$AAy?$AAs?$AAi?$AAn?$AAf?$AAo?$AA?9?$AAl?$AA1?$AA?9?$AA2?$AA?9?$AA1?$AA?$AA@ 10020744     libucrt:winapi_thunks.obj
 0002:00002784       ??_C@_1DK@NDHNAHIO@?$AAa?$AAp?$AAi?$AA?9?$AAm?$AAs?$AA?9?$AAw?$AAi?$AAn?$AA?9?$AAc?$AAo?$AAr?$AAe?$AA?9?$AAw?$AAi?$AAn?$AAr?$AAt?$AA?9?$AAl?$AA1?$AA?9?$AA1?$AA?9?$AA0?$AA?$AA@ 10020784     libucrt:winapi_thunks.obj
 0002:000027c0       ??_C@_1DM@KGHDGBCM@?$AAa?$AAp?$AAi?$AA?9?$AAm?$AAs?$AA?9?$AAw?$AAi?$AAn?$AA?9?$AAc?$AAo?$AAr?$AAe?$AA?9?$AAx?$AAs?$AAt?$AAa?$AAt?$AAe?$AA?9?$AAl?$AA2?$AA?9?$AA1?$AA?9?$AA0?$AA?$AA@ 100207c0     libucrt:winapi_thunks.obj
 0002:00002800       ??_C@_1EO@IJIOEFOH@?$AAa?$AAp?$AAi?$AA?9?$AAm?$AAs?$AA?9?$AAw?$AAi?$AAn?$AA?9?$AAr?$AAt?$AAc?$AAo?$AAr?$AAe?$AA?9?$AAn?$AAt?$AAu?$AAs?$AAe?$AAr?$AA?9?$AAw?$AAi?$AAn?$AAd?$AAo?$AAw?$AA?9@ 10020800     libucrt:winapi_thunks.obj
 0002:00002850       ??_C@_1FG@HHGEKANL@?$AAa?$AAp?$AAi?$AA?9?$AAm?$AAs?$AA?9?$AAw?$AAi?$AAn?$AA?9?$AAs?$AAe?$AAc?$AAu?$AAr?$AAi?$AAt?$AAy?$AA?9?$AAs?$AAy?$AAs?$AAt?$AAe?$AAm?$AAf?$AAu?$AAn?$AAc?$AAt?$AAi@ 10020850     libucrt:winapi_thunks.obj
 0002:000028a8       ??_C@_1EG@DBIOJECG@?$AAe?$AAx?$AAt?$AA?9?$AAm?$AAs?$AA?9?$AAw?$AAi?$AAn?$AA?9?$AAn?$AAt?$AAu?$AAs?$AAe?$AAr?$AA?9?$AAd?$AAi?$AAa?$AAl?$AAo?$AAg?$AAb?$AAo?$AAx?$AA?9?$AAl?$AA1?$AA?9?$AA1@ 100208a8     libucrt:winapi_thunks.obj
 0002:000028f0       ??_C@_1EO@FIHMJCLF@?$AAe?$AAx?$AAt?$AA?9?$AAm?$AAs?$AA?9?$AAw?$AAi?$AAn?$AA?9?$AAn?$AAt?$AAu?$AAs?$AAe?$AAr?$AA?9?$AAw?$AAi?$AAn?$AAd?$AAo?$AAw?$AAs?$AAt?$AAa?$AAt?$AAi?$AAo?$AAn?$AA?9@ 100208f0     libucrt:winapi_thunks.obj
 0002:00002940       ??_C@_1BC@DNHGCMLG@?$AAa?$AAd?$AAv?$AAa?$AAp?$AAi?$AA3?$AA2?$AA?$AA@ 10020940     libucrt:winapi_thunks.obj
 0002:00002954       ??_C@_1BC@GDMECMAK@?$AAk?$AAe?$AAr?$AAn?$AAe?$AAl?$AA3?$AA2?$AA?$AA@ 10020954     libucrt:winapi_thunks.obj
 0002:00002968       ??_C@_1M@OAIMIKLP@?$AAn?$AAt?$AAd?$AAl?$AAl?$AA?$AA@ 10020968     libucrt:winapi_thunks.obj
 0002:00002978       ??_C@_1EG@DPGNFKGC@?$AAa?$AAp?$AAi?$AA?9?$AAm?$AAs?$AA?9?$AAw?$AAi?$AAn?$AA?9?$AAa?$AAp?$AAp?$AAm?$AAo?$AAd?$AAe?$AAl?$AA?9?$AAr?$AAu?$AAn?$AAt?$AAi?$AAm?$AAe?$AA?9?$AAl?$AA1?$AA?9?$AA1@ 10020978     libucrt:winapi_thunks.obj
 0002:000029c0       ??_C@_1O@BCCLBEOE@?$AAu?$AAs?$AAe?$AAr?$AA3?$AA2?$AA?$AA@ 100209c0     libucrt:winapi_thunks.obj
 0002:000029d0       ??_C@_1BA@PFFKHIOG@?$AAa?$AAp?$AAi?$AA?9?$AAm?$AAs?$AA?9?$AA?$AA@ 100209d0     libucrt:winapi_thunks.obj
 0002:000029e0       ??_C@_1BA@IAIFMGEF@?$AAe?$AAx?$AAt?$AA?9?$AAm?$AAs?$AA?9?$AA?$AA@ 100209e0     libucrt:winapi_thunks.obj
 0002:000029f8       ??_C@_08KNHFBNJ@FlsAlloc?$AA@ 100209f8     libucrt:winapi_thunks.obj
 0002:00002a0c       ??_C@_07PEJMOBNF@FlsFree?$AA@ 10020a0c     libucrt:winapi_thunks.obj
 0002:00002a1c       ??_C@_0M@GDNOONDI@FlsGetValue?$AA@ 10020a1c     libucrt:winapi_thunks.obj
 0002:00002a30       ??_C@_0M@JCPCPOEF@FlsSetValue?$AA@ 10020a30     libucrt:winapi_thunks.obj
 0002:00002a44       ??_C@_0BM@HCFOFFN@InitializeCriticalSectionEx?$AA@ 10020a44     libucrt:winapi_thunks.obj
 0002:00002a68       ??_C@_0O@KKBNKAPF@LCMapStringEx?$AA@ 10020a68     libucrt:winapi_thunks.obj
 0002:00002a80       ??_C@_0BB@HBDEELFH@LocaleNameToLCID?$AA@ 10020a80     libucrt:winapi_thunks.obj
 0002:00002a98       ??_C@_0CF@OJOFEIGO@AppPolicyGetProcessTerminationMe@ 10020a98     libucrt:winapi_thunks.obj
 0002:00002ac8       ??_C@_0BI@BKLFFAPO@SetThreadStackGuarantee?$AA@ 10020ac8     libucrt:winapi_thunks.obj
 0002:00002ae0       ??_C@_03OEIAHPBN@INF?$AA@  10020ae0     libucrt:cvt.obj
 0002:00002ae4       ??_C@_03OJHLLCGB@inf?$AA@  10020ae4     libucrt:cvt.obj
 0002:00002ae8       ??_C@_03LKNCIKJB@NAN?$AA@  10020ae8     libucrt:cvt.obj
 0002:00002aec       ??_C@_03LHCJEHON@nan?$AA@  10020aec     libucrt:cvt.obj
 0002:00002af0       ??_C@_09OFJJIMPC@NAN?$CISNAN?$CJ?$AA@ 10020af0     libucrt:cvt.obj
 0002:00002afc       ??_C@_09IPFBKMDL@nan?$CIsnan?$CJ?$AA@ 10020afc     libucrt:cvt.obj
 0002:00002b08       ??_C@_08IKHNHAJ@NAN?$CIIND?$CJ?$AA@ 10020b08     libucrt:cvt.obj
 0002:00002b14       ??_C@_08OFCDMILK@nan?$CIind?$CJ?$AA@ 10020b14     libucrt:cvt.obj
 0002:00002b20       ??_C@_05KLBDPFGC@e?$CL000?$AA@ 10020b20     libucrt:cvt.obj
 0002:00002b28       ??_C@_03KOEHGMDN@Sun?$AA@  10020b28     libucrt:nlsdata.obj
 0002:00002b2c       ??_C@_03PDAGKDH@Mon?$AA@   10020b2c     libucrt:nlsdata.obj
 0002:00002b30       ??_C@_03NAGEINEP@Tue?$AA@  10020b30     libucrt:nlsdata.obj
 0002:00002b34       ??_C@_03MHOMLAJA@Wed?$AA@  10020b34     libucrt:nlsdata.obj
 0002:00002b38       ??_C@_03IOFIKPDN@Thu?$AA@  10020b38     libucrt:nlsdata.obj
 0002:00002b3c       ??_C@_03IDIOELNC@Fri?$AA@  10020b3c     libucrt:nlsdata.obj
 0002:00002b40       ??_C@_03FEFJNEK@Sat?$AA@   10020b40     libucrt:nlsdata.obj
 0002:00002b44       ??_C@_06OOPIFAJ@Sunday?$AA@ 10020b44     libucrt:nlsdata.obj
 0002:00002b4c       ??_C@_06JLEDEDGH@Monday?$AA@ 10020b4c     libucrt:nlsdata.obj
 0002:00002b54       ??_C@_07BAAGCFCM@Tuesday?$AA@ 10020b54     libucrt:nlsdata.obj
 0002:00002b5c       ??_C@_09DLIGFAKA@Wednesday?$AA@ 10020b5c     libucrt:nlsdata.obj
 0002:00002b68       ??_C@_08HACCIKIA@Thursday?$AA@ 10020b68     libucrt:nlsdata.obj
 0002:00002b74       ??_C@_06JECMNKMI@Friday?$AA@ 10020b74     libucrt:nlsdata.obj
 0002:00002b7c       ??_C@_08INBOOONO@Saturday?$AA@ 10020b7c     libucrt:nlsdata.obj
 0002:00002b88       ??_C@_03JIHJHPIE@Jan?$AA@  10020b88     libucrt:nlsdata.obj
 0002:00002b8c       ??_C@_03HJBDCHOM@Feb?$AA@  10020b8c     libucrt:nlsdata.obj
 0002:00002b90       ??_C@_03ODNJBKGA@Mar?$AA@  10020b90     libucrt:nlsdata.obj
 0002:00002b94       ??_C@_03LEOLGMJP@Apr?$AA@  10020b94     libucrt:nlsdata.obj
 0002:00002b98       ??_C@_03CNMDKL@May?$AA@    10020b98     libucrt:nlsdata.obj
 0002:00002b9c       ??_C@_03IDFGHECI@Jun?$AA@  10020b9c     libucrt:nlsdata.obj
 0002:00002ba0       ??_C@_03LBGABGKK@Jul?$AA@  10020ba0     libucrt:nlsdata.obj
 0002:00002ba4       ??_C@_03IFJFEIGA@Aug?$AA@  10020ba4     libucrt:nlsdata.obj
 0002:00002ba8       ??_C@_03GGCAPAJC@Sep?$AA@  10020ba8     libucrt:nlsdata.obj
 0002:00002bac       ??_C@_03BMAOKBAD@Oct?$AA@  10020bac     libucrt:nlsdata.obj
 0002:00002bb0       ??_C@_03JPJOFNIA@Nov?$AA@  10020bb0     libucrt:nlsdata.obj
 0002:00002bb4       ??_C@_03MKABNOCG@Dec?$AA@  10020bb4     libucrt:nlsdata.obj
 0002:00002bb8       ??_C@_07CGJPFGJA@January?$AA@ 10020bb8     libucrt:nlsdata.obj
 0002:00002bc0       ??_C@_08GNJGEPFN@February?$AA@ 10020bc0     libucrt:nlsdata.obj
 0002:00002bcc       ??_C@_05HPCKOFNC@March?$AA@ 10020bcc     libucrt:nlsdata.obj
 0002:00002bd4       ??_C@_05DMJDNLEJ@April?$AA@ 10020bd4     libucrt:nlsdata.obj
 0002:00002bdc       ??_C@_04CNLMGBGM@June?$AA@ 10020bdc     libucrt:nlsdata.obj
 0002:00002be4       ??_C@_04MIEPOIFP@July?$AA@ 10020be4     libucrt:nlsdata.obj
 0002:00002bec       ??_C@_06LBBHFDDG@August?$AA@ 10020bec     libucrt:nlsdata.obj
 0002:00002bf4       ??_C@_09BHHEALKD@September?$AA@ 10020bf4     libucrt:nlsdata.obj
 0002:00002c00       ??_C@_07JJNFCEND@October?$AA@ 10020c00     libucrt:nlsdata.obj
 0002:00002c08       ??_C@_08HCHEGEOA@November?$AA@ 10020c08     libucrt:nlsdata.obj
 0002:00002c14       ??_C@_08EDHMEBNP@December?$AA@ 10020c14     libucrt:nlsdata.obj
 0002:00002c20       ??_C@_02DEDBPAFC@AM?$AA@   10020c20     libucrt:nlsdata.obj
 0002:00002c24       ??_C@_02CJNFDJBF@PM?$AA@   10020c24     libucrt:nlsdata.obj
 0002:00002c28       ??_C@_08BPBNCDIB@MM?1dd?1yy?$AA@ 10020c28     libucrt:nlsdata.obj
 0002:00002c34       ??_C@_0BE@CKGJFCPC@dddd?0?5MMMM?5dd?0?5yyyy?$AA@ 10020c34     libucrt:nlsdata.obj
 0002:00002c48       ??_C@_08JCCMCCIL@HH?3mm?3ss?$AA@ 10020c48     libucrt:nlsdata.obj
 0002:00002c54       ??_C@_17MBGCMIPB@?$AAS?$AAu?$AAn?$AA?$AA@ 10020c54     libucrt:nlsdata.obj
 0002:00002c5c       ??_C@_17KBOMKBF@?$AAM?$AAo?$AAn?$AA?$AA@ 10020c5c     libucrt:nlsdata.obj
 0002:00002c64       ??_C@_17BMKGEGOJ@?$AAT?$AAu?$AAe?$AA?$AA@ 10020c64     libucrt:nlsdata.obj
 0002:00002c6c       ??_C@_17CJEDCEPE@?$AAW?$AAe?$AAd?$AA?$AA@ 10020c6c     libucrt:nlsdata.obj
 0002:00002c74       ??_C@_17PDPHAADD@?$AAT?$AAh?$AAu?$AA?$AA@ 10020c74     libucrt:nlsdata.obj
 0002:00002c7c       ??_C@_17HFOLPPLP@?$AAF?$AAr?$AAi?$AA?$AA@ 10020c7c     libucrt:nlsdata.obj
 0002:00002c84       ??_C@_17GGIBDPIH@?$AAS?$AAa?$AAt?$AA?$AA@ 10020c84     libucrt:nlsdata.obj
 0002:00002c8c       ??_C@_1O@IHNHDHPB@?$AAS?$AAu?$AAn?$AAd?$AAa?$AAy?$AA?$AA@ 10020c8c     libucrt:nlsdata.obj
 0002:00002c9c       ??_C@_1O@MMNBFLIA@?$AAM?$AAo?$AAn?$AAd?$AAa?$AAy?$AA?$AA@ 10020c9c     libucrt:nlsdata.obj
 0002:00002cac       ??_C@_1BA@ENFBFFEK@?$AAT?$AAu?$AAe?$AAs?$AAd?$AAa?$AAy?$AA?$AA@ 10020cac     libucrt:nlsdata.obj
 0002:00002cbc       ??_C@_1BE@EBOGMDOH@?$AAW?$AAe?$AAd?$AAn?$AAe?$AAs?$AAd?$AAa?$AAy?$AA?$AA@ 10020cbc     libucrt:nlsdata.obj
 0002:00002cd0       ??_C@_1BC@HHMNLIHE@?$AAT?$AAh?$AAu?$AAr?$AAs?$AAd?$AAa?$AAy?$AA?$AA@ 10020cd0     libucrt:nlsdata.obj
 0002:00002ce4       ??_C@_1O@PDICJHAG@?$AAF?$AAr?$AAi?$AAd?$AAa?$AAy?$AA?$AA@ 10020ce4     libucrt:nlsdata.obj
 0002:00002cf4       ??_C@_1BC@ENMNNPAJ@?$AAS?$AAa?$AAt?$AAu?$AAr?$AAd?$AAa?$AAy?$AA?$AA@ 10020cf4     libucrt:nlsdata.obj
 0002:00002d08       ??_C@_17DKNBKCHM@?$AAJ?$AAa?$AAn?$AA?$AA@ 10020d08     libucrt:nlsdata.obj
 0002:00002d10       ??_C@_17LMDJEKJN@?$AAF?$AAe?$AAb?$AA?$AA@ 10020d10     libucrt:nlsdata.obj
 0002:00002d18       ??_C@_17CKNLEDEC@?$AAM?$AAa?$AAr?$AA?$AA@ 10020d18     libucrt:nlsdata.obj
 0002:00002d20       ??_C@_17LFPOIHDD@?$AAA?$AAp?$AAr?$AA?$AA@ 10020d20     libucrt:nlsdata.obj
 0002:00002d28       ??_C@_17PNNKMEED@?$AAM?$AAa?$AAy?$AA?$AA@ 10020d28     libucrt:nlsdata.obj
 0002:00002d30       ??_C@_17KCJGOCPB@?$AAJ?$AAu?$AAn?$AA?$AA@ 10020d30     libucrt:nlsdata.obj
 0002:00002d38       ??_C@_17IJPCKHK@?$AAJ?$AAu?$AAl?$AA?$AA@ 10020d38     libucrt:nlsdata.obj
 0002:00002d40       ??_C@_17ICPELBCN@?$AAA?$AAu?$AAg?$AA?$AA@ 10020d40     libucrt:nlsdata.obj
 0002:00002d48       ??_C@_17HCHCOKMG@?$AAS?$AAe?$AAp?$AA?$AA@ 10020d48     libucrt:nlsdata.obj
 0002:00002d50       ??_C@_17FNLKOI@?$AAO?$AAc?$AAt?$AA?$AA@ 10020d50     libucrt:nlsdata.obj
 0002:00002d58       ??_C@_17BBDMLCIG@?$AAN?$AAo?$AAv?$AA?$AA@ 10020d58     libucrt:nlsdata.obj
 0002:00002d60       ??_C@_17EGKACKIF@?$AAD?$AAe?$AAc?$AA?$AA@ 10020d60     libucrt:nlsdata.obj
 0002:00002d68       ??_C@_1BA@EFMEIEBA@?$AAJ?$AAa?$AAn?$AAu?$AAa?$AAr?$AAy?$AA?$AA@ 10020d68     libucrt:nlsdata.obj
 0002:00002d78       ??_C@_1BC@JGDDFFAM@?$AAF?$AAe?$AAb?$AAr?$AAu?$AAa?$AAr?$AAy?$AA?$AA@ 10020d78     libucrt:nlsdata.obj
 0002:00002d8c       ??_C@_1M@IKEENEDF@?$AAM?$AAa?$AAr?$AAc?$AAh?$AA?$AA@ 10020d8c     libucrt:nlsdata.obj
 0002:00002d98       ??_C@_1M@GJNLMHFD@?$AAA?$AAp?$AAr?$AAi?$AAl?$AA?$AA@ 10020d98     libucrt:nlsdata.obj
 0002:00002da4       ??_C@_19EPFLPGAP@?$AAJ?$AAu?$AAn?$AAe?$AA?$AA@ 10020da4     libucrt:nlsdata.obj
 0002:00002db0       ??_C@_19BIFMLPCD@?$AAJ?$AAu?$AAl?$AAy?$AA?$AA@ 10020db0     libucrt:nlsdata.obj
 0002:00002dbc       ??_C@_1O@PAHLKOAC@?$AAA?$AAu?$AAg?$AAu?$AAs?$AAt?$AA?$AA@ 10020dbc     libucrt:nlsdata.obj
 0002:00002dcc       ??_C@_1BE@DKAAMBJL@?$AAS?$AAe?$AAp?$AAt?$AAe?$AAm?$AAb?$AAe?$AAr?$AA?$AA@ 10020dcc     libucrt:nlsdata.obj
 0002:00002de0       ??_C@_1BA@EPANDLNG@?$AAO?$AAc?$AAt?$AAo?$AAb?$AAe?$AAr?$AA?$AA@ 10020de0     libucrt:nlsdata.obj
 0002:00002df0       ??_C@_1BC@BGLIFPF@?$AAN?$AAo?$AAv?$AAe?$AAm?$AAb?$AAe?$AAr?$AA?$AA@ 10020df0     libucrt:nlsdata.obj
 0002:00002e04       ??_C@_1BC@FEMKIFH@?$AAD?$AAe?$AAc?$AAe?$AAm?$AAb?$AAe?$AAr?$AA?$AA@ 10020e04     libucrt:nlsdata.obj
 0002:00002e18       ??_C@_15ODEHAHHF@?$AAA?$AAM?$AA?$AA@ 10020e18     libucrt:nlsdata.obj
 0002:00002e20       ??_C@_15CLMNNGEL@?$AAP?$AAM?$AA?$AA@ 10020e20     libucrt:nlsdata.obj
 0002:00002e28       ??_C@_1BC@IEBCMHCM@?$AAM?$AAM?$AA?1?$AAd?$AAd?$AA?1?$AAy?$AAy?$AA?$AA@ 10020e28     libucrt:nlsdata.obj
 0002:00002e3c       ??_C@_1CI@KNAKOEBC@?$AAd?$AAd?$AAd?$AAd?$AA?0?$AA?5?$AAM?$AAM?$AAM?$AAM?$AA?5?$AAd?$AAd?$AA?0?$AA?5?$AAy?$AAy?$AAy?$AAy?$AA?$AA@ 10020e3c     libucrt:nlsdata.obj
 0002:00002e64       ??_C@_1BC@GDGBMEMK@?$AAH?$AAH?$AA?3?$AAm?$AAm?$AA?3?$AAs?$AAs?$AA?$AA@ 10020e64     libucrt:nlsdata.obj
 0002:00002e78       ??_C@_1M@BMHNFIME@?$AAe?$AAn?$AA?9?$AAU?$AAS?$AA?$AA@ 10020e78     libucrt:nlsdata.obj
 0002:00002e88       ___lc_time_c               10020e88     libucrt:nlsdata.obj
 0002:00002ffc       ??_C@_1M@HPNHIDJI@?$AAj?$AAa?$AA?9?$AAJ?$AAP?$AA?$AA@ 10020ffc     libucrt:mbctype.obj
 0002:00003008       ??_C@_1M@BIBDDEMK@?$AAz?$AAh?$AA?9?$AAC?$AAN?$AA?$AA@ 10021008     libucrt:mbctype.obj
 0002:00003014       ??_C@_1M@JLOOOEGK@?$AAk?$AAo?$AA?9?$AAK?$AAR?$AA?$AA@ 10021014     libucrt:mbctype.obj
 0002:00003020       ??_C@_1M@CLNBBOPM@?$AAz?$AAh?$AA?9?$AAT?$AAW?$AA?$AA@ 10021020     libucrt:mbctype.obj
 0002:00003030       __wctype                   10021030     libucrt:ctype.obj
 0002:00003238       ___newctype                10021238     libucrt:ctype.obj
 0002:00003538       ___newclmap                10021538     libucrt:ctype.obj
 0002:000036b8       ___newcumap                100216b8     libucrt:ctype.obj
 0002:00003f58       ??_C@_15EMKDOKLE@?$AAa?$AAr?$AA?$AA@ 10021f58     libucrt:lcidtoname_downlevel.obj
 0002:00003f60       ??_C@_15KNPADPLH@?$AAb?$AAg?$AA?$AA@ 10021f60     libucrt:lcidtoname_downlevel.obj
 0002:00003f68       ??_C@_15EDMHLDMO@?$AAc?$AAa?$AA?$AA@ 10021f68     libucrt:lcidtoname_downlevel.obj
 0002:00003f70       ??_C@_1O@BPEAJADD@?$AAz?$AAh?$AA?9?$AAC?$AAH?$AAS?$AA?$AA@ 10021f70     libucrt:lcidtoname_downlevel.obj
 0002:00003f80       ??_C@_15LJNHCMNK@?$AAc?$AAs?$AA?$AA@ 10021f80     libucrt:lcidtoname_downlevel.obj
 0002:00003f88       ??_C@_15FOMCIDHG@?$AAd?$AAa?$AA?$AA@ 10021f88     libucrt:lcidtoname_downlevel.obj
 0002:00003f90       ??_C@_15NBKABECB@?$AAd?$AAe?$AA?$AA@ 10021f90     libucrt:lcidtoname_downlevel.obj
 0002:00003f98       ??_C@_15GHPEIIAO@?$AAe?$AAl?$AA?$AA@ 10021f98     libucrt:lcidtoname_downlevel.obj
 0002:00003fa0       ??_C@_15MNPNEAIF@?$AAe?$AAn?$AA?$AA@ 10021fa0     libucrt:lcidtoname_downlevel.obj
 0002:00003fa8       ??_C@_15GPIOMPMH@?$AAe?$AAs?$AA?$AA@ 10021fa8     libucrt:lcidtoname_downlevel.obj
 0002:00003fb0       ??_C@_15NGLOAKJC@?$AAf?$AAi?$AA?$AA@ 10021fb0     libucrt:lcidtoname_downlevel.obj
 0002:00003fb8       ??_C@_15FBKGNKAM@?$AAf?$AAr?$AA?$AA@ 10021fb8     libucrt:lcidtoname_downlevel.obj
 0002:00003fc0       ??_C@_15KGGCNEFK@?$AAh?$AAe?$AA?$AA@ 10021fc0     libucrt:lcidtoname_downlevel.obj
 0002:00003fc8       ??_C@_15PGHLIDMF@?$AAh?$AAu?$AA?$AA@ 10021fc8     libucrt:lcidtoname_downlevel.obj
 0002:00003fd0       ??_C@_15BIEMAPLM@?$AAi?$AAs?$AA?$AA@ 10021fd0     libucrt:lcidtoname_downlevel.obj
 0002:00003fd8       ??_C@_15IFJLDHAF@?$AAi?$AAt?$AA?$AA@ 10021fd8     libucrt:lcidtoname_downlevel.obj
 0002:00003fe0       ??_C@_15GEMIOCAG@?$AAj?$AAa?$AA?$AA@ 10021fe0     libucrt:lcidtoname_downlevel.obj
 0002:00003fe8       ??_C@_15EPELEGJA@?$AAk?$AAo?$AA?$AA@ 10021fe8     libucrt:lcidtoname_downlevel.obj
 0002:00003ff0       ??_C@_15NDDHIMN@?$AAn?$AAl?$AA?$AA@ 10021ff0     libucrt:lcidtoname_downlevel.obj
 0002:00003ff8       ??_C@_15BPIGNHCD@?$AAn?$AAo?$AA?$AA@ 10021ff8     libucrt:lcidtoname_downlevel.obj
 0002:00004000       ??_C@_15DEOPBLCG@?$AAp?$AAl?$AA?$AA@ 10022000     libucrt:lcidtoname_downlevel.obj
 0002:00004008       ??_C@_15KBECGEFG@?$AAp?$AAt?$AA?$AA@ 10022008     libucrt:lcidtoname_downlevel.obj
 0002:00004010       ??_C@_15GLJCBFMD@?$AAr?$AAo?$AA?$AA@ 10022010     libucrt:lcidtoname_downlevel.obj
 0002:00004018       ??_C@_15FEDGKCDI@?$AAr?$AAu?$AA?$AA@ 10022018     libucrt:lcidtoname_downlevel.obj
 0002:00004020       ??_C@_15GLKMLLHM@?$AAh?$AAr?$AA?$AA@ 10022020     libucrt:lcidtoname_downlevel.obj
 0002:00004028       ??_C@_15CPKMFBDB@?$AAs?$AAk?$AA?$AA@ 10022028     libucrt:lcidtoname_downlevel.obj
 0002:00004030       ??_C@_15BAAIOGMK@?$AAs?$AAq?$AA?$AA@ 10022030     libucrt:lcidtoname_downlevel.obj
 0002:00004038       ??_C@_15INNPNOHD@?$AAs?$AAv?$AA?$AA@ 10022038     libucrt:lcidtoname_downlevel.obj
 0002:00004040       ??_C@_15CABMMOGH@?$AAt?$AAh?$AA?$AA@ 10022040     libucrt:lcidtoname_downlevel.obj
 0002:00004048       ??_C@_15BPLIHJJM@?$AAt?$AAr?$AA?$AA@ 10022048     libucrt:lcidtoname_downlevel.obj
 0002:00004050       ??_C@_15NEOEKKDJ@?$AAu?$AAr?$AA?$AA@ 10022050     libucrt:lcidtoname_downlevel.obj
 0002:00004058       ??_C@_15NFICGAJK@?$AAi?$AAd?$AA?$AA@ 10022058     libucrt:lcidtoname_downlevel.obj
 0002:00004060       ??_C@_15PJPFLCCM@?$AAu?$AAk?$AA?$AA@ 10022060     libucrt:lcidtoname_downlevel.obj
 0002:00004068       ??_C@_15HPJPHDM@?$AAb?$AAe?$AA?$AA@ 10022068     libucrt:lcidtoname_downlevel.obj
 0002:00004070       ??_C@_15LCHLGJII@?$AAs?$AAl?$AA?$AA@ 10022070     libucrt:lcidtoname_downlevel.obj
 0002:00004078       ??_C@_15PCFJPHHO@?$AAe?$AAt?$AA?$AA@ 10022078     libucrt:lcidtoname_downlevel.obj
 0002:00004080       ??_C@_15HPFPGODN@?$AAl?$AAv?$AA?$AA@ 10022080     libucrt:lcidtoname_downlevel.obj
 0002:00004088       ??_C@_15NFFGKGLG@?$AAl?$AAt?$AA?$AA@ 10022088     libucrt:lcidtoname_downlevel.obj
 0002:00004090       ??_C@_15BDAKCCHN@?$AAf?$AAa?$AA?$AA@ 10022090     libucrt:lcidtoname_downlevel.obj
 0002:00004098       ??_C@_15NFGIAIAJ@?$AAv?$AAi?$AA?$AA@ 10022098     libucrt:lcidtoname_downlevel.obj
 0002:000040a0       ??_C@_15LMKNDMHN@?$AAh?$AAy?$AA?$AA@ 100220a0     libucrt:lcidtoname_downlevel.obj
 0002:000040a8       ??_C@_15IJBHMCFL@?$AAa?$AAz?$AA?$AA@ 100220a8     libucrt:lcidtoname_downlevel.obj
 0002:000040b0       ??_C@_15EKOFJABL@?$AAe?$AAu?$AA?$AA@ 100220b0     libucrt:lcidtoname_downlevel.obj
 0002:000040b8       ??_C@_15BGHADCNK@?$AAm?$AAk?$AA?$AA@ 100220b8     libucrt:lcidtoname_downlevel.obj
 0002:000040c0       ??_C@_15JDNICKHM@?$AAa?$AAf?$AA?$AA@ 100220c0     libucrt:lcidtoname_downlevel.obj
 0002:000040c8       ??_C@_15KPJEDBKD@?$AAk?$AAa?$AA?$AA@ 100220c8     libucrt:lcidtoname_downlevel.obj
 0002:000040d0       ??_C@_15PDNFFFEO@?$AAf?$AAo?$AA?$AA@ 100220d0     libucrt:lcidtoname_downlevel.obj
 0002:000040d8       ??_C@_15OMLEGLOC@?$AAh?$AAi?$AA?$AA@ 100220d8     libucrt:lcidtoname_downlevel.obj
 0002:000040e0       ??_C@_15IDNNENKK@?$AAm?$AAs?$AA?$AA@ 100220e0     libucrt:lcidtoname_downlevel.obj
 0002:000040e8       ??_C@_15MACJNBMH@?$AAk?$AAk?$AA?$AA@ 100220e8     libucrt:lcidtoname_downlevel.obj
 0002:000040f0       ??_C@_15DKDJEOND@?$AAk?$AAy?$AA?$AA@ 100220f0     libucrt:lcidtoname_downlevel.obj
 0002:000040f8       ??_C@_15DFGDLJBG@?$AAs?$AAw?$AA?$AA@ 100220f8     libucrt:lcidtoname_downlevel.obj
 0002:00004100       ??_C@_15BBFAICNG@?$AAu?$AAz?$AA?$AA@ 10022100     libucrt:lcidtoname_downlevel.obj
 0002:00004108       ??_C@_15DKNDCGEA@?$AAt?$AAt?$AA?$AA@ 10022108     libucrt:lcidtoname_downlevel.obj
 0002:00004110       ??_C@_15MGIFMDPL@?$AAp?$AAa?$AA?$AA@ 10022110     libucrt:lcidtoname_downlevel.obj
 0002:00004118       ??_C@_15HCNDBBA@?$AAg?$AAu?$AA?$AA@ 10022118     libucrt:lcidtoname_downlevel.obj
 0002:00004120       ??_C@_15FNBEIBON@?$AAt?$AAa?$AA?$AA@ 10022120     libucrt:lcidtoname_downlevel.obj
 0002:00004128       ??_C@_15NCHGBGLK@?$AAt?$AAe?$AA?$AA@ 10022128     libucrt:lcidtoname_downlevel.obj
 0002:00004130       ??_C@_15PHPHCBPF@?$AAk?$AAn?$AA?$AA@ 10022130     libucrt:lcidtoname_downlevel.obj
 0002:00004138       ??_C@_15DLGBCKMP@?$AAm?$AAr?$AA?$AA@ 10022138     libucrt:lcidtoname_downlevel.obj
 0002:00004140       ??_C@_15EABBLBFF@?$AAs?$AAa?$AA?$AA@ 10022140     libucrt:lcidtoname_downlevel.obj
 0002:00004148       ??_C@_15CBKOMCOI@?$AAm?$AAn?$AA?$AA@ 10022148     libucrt:lcidtoname_downlevel.obj
 0002:00004150       ??_C@_15CKDMCJAF@?$AAg?$AAl?$AA?$AA@ 10022150     libucrt:lcidtoname_downlevel.obj
 0002:00004158       ??_C@_17CNJFBPG@?$AAk?$AAo?$AAk?$AA?$AA@ 10022158     libucrt:lcidtoname_downlevel.obj
 0002:00004160       ??_C@_17FFBJICPL@?$AAs?$AAy?$AAr?$AA?$AA@ 10022160     libucrt:lcidtoname_downlevel.obj
 0002:00004168       ??_C@_17KPNDCPAF@?$AAd?$AAi?$AAv?$AA?$AA@ 10022168     libucrt:lcidtoname_downlevel.obj
 0002:00004170       ??_C@_11LOCGONAA@?$AA?$AA@ 10022170     libucrt:lcidtoname_downlevel.obj
 0002:00004174       ??_C@_1M@OKAHONE@?$AAa?$AAr?$AA?9?$AAS?$AAA?$AA?$AA@ 10022174     libucrt:lcidtoname_downlevel.obj
 0002:00004180       ??_C@_1M@FFFIGIGK@?$AAb?$AAg?$AA?9?$AAB?$AAG?$AA?$AA@ 10022180     libucrt:lcidtoname_downlevel.obj
 0002:0000418c       ??_C@_1M@BJNKEDC@?$AAc?$AAa?$AA?9?$AAE?$AAS?$AA?$AA@ 1002218c     libucrt:lcidtoname_downlevel.obj
 0002:00004198       ??_C@_1M@IJJHFJHA@?$AAc?$AAs?$AA?9?$AAC?$AAZ?$AA?$AA@ 10022198     libucrt:lcidtoname_downlevel.obj
 0002:000041a4       ??_C@_1M@CLPEOBGI@?$AAd?$AAa?$AA?9?$AAD?$AAK?$AA?$AA@ 100221a4     libucrt:lcidtoname_downlevel.obj
 0002:000041b0       ??_C@_1M@MCMADGCB@?$AAd?$AAe?$AA?9?$AAD?$AAE?$AA?$AA@ 100221b0     libucrt:lcidtoname_downlevel.obj
 0002:000041bc       ??_C@_1M@OOCKEMAM@?$AAe?$AAl?$AA?9?$AAG?$AAR?$AA?$AA@ 100221bc     libucrt:lcidtoname_downlevel.obj
 0002:000041c8       ??_C@_1M@DDNJFGID@?$AAf?$AAi?$AA?9?$AAF?$AAI?$AA?$AA@ 100221c8     libucrt:lcidtoname_downlevel.obj
 0002:000041d4       ??_C@_1M@GLIPPMAC@?$AAf?$AAr?$AA?9?$AAF?$AAR?$AA?$AA@ 100221d4     libucrt:lcidtoname_downlevel.obj
 0002:000041e0       ??_C@_1M@GFMCHPE@?$AAh?$AAe?$AA?9?$AAI?$AAL?$AA?$AA@ 100221e0     libucrt:lcidtoname_downlevel.obj
 0002:000041ec       ??_C@_1M@MHLPGNKM@?$AAh?$AAu?$AA?9?$AAH?$AAU?$AA?$AA@ 100221ec     libucrt:lcidtoname_downlevel.obj
 0002:000041f8       ??_C@_1M@LPDDNNPN@?$AAi?$AAs?$AA?9?$AAI?$AAS?$AA?$AA@ 100221f8     libucrt:lcidtoname_downlevel.obj
 0002:00004204       ??_C@_1M@MADIPODN@?$AAi?$AAt?$AA?9?$AAI?$AAT?$AA?$AA@ 10022204     libucrt:lcidtoname_downlevel.obj
 0002:00004210       ??_C@_1M@IHBJJGG@?$AAn?$AAl?$AA?9?$AAN?$AAL?$AA?$AA@ 10022210     libucrt:lcidtoname_downlevel.obj
 0002:0000421c       ??_C@_1M@EANAGDL@?$AAn?$AAb?$AA?9?$AAN?$AAO?$AA?$AA@ 1002221c     libucrt:lcidtoname_downlevel.obj
 0002:00004228       ??_C@_1M@NEIEMEGP@?$AAp?$AAl?$AA?9?$AAP?$AAL?$AA?$AA@ 10022228     libucrt:lcidtoname_downlevel.obj
 0002:00004234       ??_C@_1M@BOCFIGEP@?$AAp?$AAt?$AA?9?$AAB?$AAR?$AA?$AA@ 10022234     libucrt:lcidtoname_downlevel.obj
 0002:00004240       ??_C@_1M@IMPFOPBG@?$AAr?$AAo?$AA?9?$AAR?$AAO?$AA?$AA@ 10022240     libucrt:lcidtoname_downlevel.obj
 0002:0000424c       ??_C@_1M@IDNNEJMM@?$AAr?$AAu?$AA?9?$AAR?$AAU?$AA?$AA@ 1002224c     libucrt:lcidtoname_downlevel.obj
 0002:00004258       ??_C@_1M@LILEEOGM@?$AAh?$AAr?$AA?9?$AAH?$AAR?$AA?$AA@ 10022258     libucrt:lcidtoname_downlevel.obj
 0002:00004264       ??_C@_1M@FKIFEHPB@?$AAs?$AAk?$AA?9?$AAS?$AAK?$AA?$AA@ 10022264     libucrt:lcidtoname_downlevel.obj
 0002:00004270       ??_C@_1M@LJMAMNPJ@?$AAs?$AAq?$AA?9?$AAA?$AAL?$AA?$AA@ 10022270     libucrt:lcidtoname_downlevel.obj
 0002:0000427c       ??_C@_1M@GIAKDKJK@?$AAs?$AAv?$AA?9?$AAS?$AAE?$AA?$AA@ 1002227c     libucrt:lcidtoname_downlevel.obj
 0002:00004288       ??_C@_1M@MKJKIKCL@?$AAt?$AAh?$AA?9?$AAT?$AAH?$AA?$AA@ 10022288     libucrt:lcidtoname_downlevel.obj
 0002:00004294       ??_C@_1M@MFLCCMPB@?$AAt?$AAr?$AA?9?$AAT?$AAR?$AA?$AA@ 10022294     libucrt:lcidtoname_downlevel.obj
 0002:000042a0       ??_C@_1M@OIJHDKJN@?$AAu?$AAr?$AA?9?$AAP?$AAK?$AA?$AA@ 100222a0     libucrt:lcidtoname_downlevel.obj
 0002:000042ac       ??_C@_1M@LHIPCIEK@?$AAi?$AAd?$AA?9?$AAI?$AAD?$AA?$AA@ 100222ac     libucrt:lcidtoname_downlevel.obj
 0002:000042b8       ??_C@_1M@MFMOBGI@?$AAu?$AAk?$AA?9?$AAU?$AAA?$AA?$AA@ 100222b8     libucrt:lcidtoname_downlevel.obj
 0002:000042c4       ??_C@_1M@OBGLJIPL@?$AAb?$AAe?$AA?9?$AAB?$AAY?$AA?$AA@ 100222c4     libucrt:lcidtoname_downlevel.obj
 0002:000042d0       ??_C@_1M@BCFAJEAD@?$AAs?$AAl?$AA?9?$AAS?$AAI?$AA?$AA@ 100222d0     libucrt:lcidtoname_downlevel.obj
 0002:000042dc       ??_C@_1M@FKFFEDDN@?$AAe?$AAt?$AA?9?$AAE?$AAE?$AA?$AA@ 100222dc     libucrt:lcidtoname_downlevel.obj
 0002:000042e8       ??_C@_1M@KGKKAACI@?$AAl?$AAv?$AA?9?$AAL?$AAV?$AA?$AA@ 100222e8     libucrt:lcidtoname_downlevel.obj
 0002:000042f4       ??_C@_1M@IFGBIJO@?$AAl?$AAt?$AA?9?$AAL?$AAT?$AA?$AA@ 100222f4     libucrt:lcidtoname_downlevel.obj
 0002:00004300       ??_C@_1M@FGEAHEDM@?$AAf?$AAa?$AA?9?$AAI?$AAR?$AA?$AA@ 10022300     libucrt:lcidtoname_downlevel.obj
 0002:0000430c       ??_C@_1M@KBMAIBFN@?$AAv?$AAi?$AA?9?$AAV?$AAN?$AA?$AA@ 1002230c     libucrt:lcidtoname_downlevel.obj
 0002:00004318       ??_C@_1M@GPCBKDJK@?$AAh?$AAy?$AA?9?$AAA?$AAM?$AA?$AA@ 10022318     libucrt:lcidtoname_downlevel.obj
 0002:00004324       ??_C@_1BG@BECMDDJB@?$AAa?$AAz?$AA?9?$AAA?$AAZ?$AA?9?$AAL?$AAa?$AAt?$AAn?$AA?$AA@ 10022324     libucrt:lcidtoname_downlevel.obj
 0002:0000433c       ??_C@_1M@MAOFCAEA@?$AAe?$AAu?$AA?9?$AAE?$AAS?$AA?$AA@ 1002233c     libucrt:lcidtoname_downlevel.obj
 0002:00004348       ??_C@_1M@IGHABKPI@?$AAm?$AAk?$AA?9?$AAM?$AAK?$AA?$AA@ 10022348     libucrt:lcidtoname_downlevel.obj
 0002:00004354       ??_C@_1M@IAIGNEJG@?$AAt?$AAn?$AA?9?$AAZ?$AAA?$AA?$AA@ 10022354     libucrt:lcidtoname_downlevel.obj
 0002:00004360       ??_C@_1M@IIJCOJFA@?$AAx?$AAh?$AA?9?$AAZ?$AAA?$AA?$AA@ 10022360     libucrt:lcidtoname_downlevel.obj
 0002:0000436c       ??_C@_1M@LGPJHNJH@?$AAz?$AAu?$AA?9?$AAZ?$AAA?$AA?$AA@ 1002236c     libucrt:lcidtoname_downlevel.obj
 0002:00004378       ??_C@_1M@HOKAOIO@?$AAa?$AAf?$AA?9?$AAZ?$AAA?$AA?$AA@ 10022378     libucrt:lcidtoname_downlevel.obj
 0002:00004384       ??_C@_1M@DPCLHLIE@?$AAk?$AAa?$AA?9?$AAG?$AAE?$AA?$AA@ 10022384     libucrt:lcidtoname_downlevel.obj
 0002:00004390       ??_C@_1M@BLKMHJBI@?$AAf?$AAo?$AA?9?$AAF?$AAO?$AA?$AA@ 10022390     libucrt:lcidtoname_downlevel.obj
 0002:0000439c       ??_C@_1M@LGGJAPPB@?$AAh?$AAi?$AA?9?$AAI?$AAN?$AA?$AA@ 1002239c     libucrt:lcidtoname_downlevel.obj
 0002:000043a8       ??_C@_1M@FIKPIHFE@?$AAm?$AAt?$AA?9?$AAM?$AAT?$AA?$AA@ 100223a8     libucrt:lcidtoname_downlevel.obj
 0002:000043b4       ??_C@_1M@HEGGPBFA@?$AAs?$AAe?$AA?9?$AAN?$AAO?$AA?$AA@ 100223b4     libucrt:lcidtoname_downlevel.obj
 0002:000043c0       ??_C@_1M@EIBJEEPA@?$AAm?$AAs?$AA?9?$AAM?$AAY?$AA?$AA@ 100223c0     libucrt:lcidtoname_downlevel.obj
 0002:000043cc       ??_C@_1M@FHLBGMPP@?$AAk?$AAk?$AA?9?$AAK?$AAZ?$AA?$AA@ 100223cc     libucrt:lcidtoname_downlevel.obj
 0002:000043d8       ??_C@_1M@NGJJLCGI@?$AAk?$AAy?$AA?9?$AAK?$AAG?$AA?$AA@ 100223d8     libucrt:lcidtoname_downlevel.obj
 0002:000043e4       ??_C@_1M@GIENNBFC@?$AAs?$AAw?$AA?9?$AAK?$AAE?$AA?$AA@ 100223e4     libucrt:lcidtoname_downlevel.obj
 0002:000043f0       ??_C@_1BG@NDGMJIMJ@?$AAu?$AAz?$AA?9?$AAU?$AAZ?$AA?9?$AAL?$AAa?$AAt?$AAn?$AA?$AA@ 100223f0     libucrt:lcidtoname_downlevel.obj
 0002:00004408       ??_C@_1M@IDCCIHBC@?$AAt?$AAt?$AA?9?$AAR?$AAU?$AA?$AA@ 10022408     libucrt:lcidtoname_downlevel.obj
 0002:00004414       ??_C@_1M@LOICPMOJ@?$AAb?$AAn?$AA?9?$AAI?$AAN?$AA?$AA@ 10022414     libucrt:lcidtoname_downlevel.obj
 0002:00004420       ??_C@_1M@KPKKNEAH@?$AAp?$AAa?$AA?9?$AAI?$AAN?$AA?$AA@ 10022420     libucrt:lcidtoname_downlevel.obj
 0002:0000442c       ??_C@_1M@PJGPPBOG@?$AAg?$AAu?$AA?9?$AAI?$AAN?$AA?$AA@ 1002242c     libucrt:lcidtoname_downlevel.obj
 0002:00004438       ??_C@_1M@KMKMOPHI@?$AAt?$AAa?$AA?9?$AAI?$AAN?$AA?$AA@ 10022438     libucrt:lcidtoname_downlevel.obj
 0002:00004444       ??_C@_1M@KFEHEPAC@?$AAt?$AAe?$AA?9?$AAI?$AAN?$AA?$AA@ 10022444     libucrt:lcidtoname_downlevel.obj
 0002:00004450       ??_C@_1M@CDCLMGHI@?$AAk?$AAn?$AA?9?$AAI?$AAN?$AA?$AA@ 10022450     libucrt:lcidtoname_downlevel.obj
 0002:0000445c       ??_C@_1M@MIODLDKF@?$AAm?$AAl?$AA?9?$AAI?$AAN?$AA?$AA@ 1002245c     libucrt:lcidtoname_downlevel.obj
 0002:00004468       ??_C@_1M@PBIEACPO@?$AAm?$AAr?$AA?9?$AAI?$AAN?$AA?$AA@ 10022468     libucrt:lcidtoname_downlevel.obj
 0002:00004474       ??_C@_1M@NIDEAGPH@?$AAs?$AAa?$AA?9?$AAI?$AAN?$AA?$AA@ 10022474     libucrt:lcidtoname_downlevel.obj
 0002:00004480       ??_C@_1M@FHIHCBIO@?$AAm?$AAn?$AA?9?$AAM?$AAN?$AA?$AA@ 10022480     libucrt:lcidtoname_downlevel.obj
 0002:0000448c       ??_C@_1M@JAIJPENP@?$AAc?$AAy?$AA?9?$AAG?$AAB?$AA?$AA@ 1002248c     libucrt:lcidtoname_downlevel.obj
 0002:00004498       ??_C@_1M@PHGFBEPN@?$AAg?$AAl?$AA?9?$AAE?$AAS?$AA?$AA@ 10022498     libucrt:lcidtoname_downlevel.obj
 0002:000044a4       ??_C@_1O@KPIPDNCP@?$AAk?$AAo?$AAk?$AA?9?$AAI?$AAN?$AA?$AA@ 100224a4     libucrt:lcidtoname_downlevel.obj
 0002:000044b4       ??_C@_1O@KNHJLDJA@?$AAs?$AAy?$AAr?$AA?9?$AAS?$AAY?$AA?$AA@ 100224b4     libucrt:lcidtoname_downlevel.obj
 0002:000044c4       ??_C@_1O@MKEKBLAH@?$AAd?$AAi?$AAv?$AA?9?$AAM?$AAV?$AA?$AA@ 100224c4     libucrt:lcidtoname_downlevel.obj
 0002:000044d4       ??_C@_1O@OHDCKDDF@?$AAq?$AAu?$AAz?$AA?9?$AAB?$AAO?$AA?$AA@ 100224d4     libucrt:lcidtoname_downlevel.obj
 0002:000044e4       ??_C@_1M@LEPJNLFD@?$AAn?$AAs?$AA?9?$AAZ?$AAA?$AA?$AA@ 100224e4     libucrt:lcidtoname_downlevel.obj
 0002:000044f0       ??_C@_1M@OMLEIIJB@?$AAm?$AAi?$AA?9?$AAN?$AAZ?$AA?$AA@ 100224f0     libucrt:lcidtoname_downlevel.obj
 0002:000044fc       ??_C@_1M@PMPEAILG@?$AAa?$AAr?$AA?9?$AAI?$AAQ?$AA?$AA@ 100224fc     libucrt:lcidtoname_downlevel.obj
 0002:00004508       ??_C@_1M@CNKPNOEE@?$AAd?$AAe?$AA?9?$AAC?$AAH?$AA?$AA@ 10022508     libucrt:lcidtoname_downlevel.obj
 0002:00004514       ??_C@_1M@LKMGMLKO@?$AAe?$AAn?$AA?9?$AAG?$AAB?$AA?$AA@ 10022514     libucrt:lcidtoname_downlevel.obj
 0002:00004520       ??_C@_1M@PGKJFFGL@?$AAe?$AAs?$AA?9?$AAM?$AAX?$AA?$AA@ 10022520     libucrt:lcidtoname_downlevel.obj
 0002:0000452c       ??_C@_1M@DNNANBDC@?$AAf?$AAr?$AA?9?$AAB?$AAE?$AA?$AA@ 1002252c     libucrt:lcidtoname_downlevel.obj
 0002:00004538       ??_C@_1M@HLGMDFHM@?$AAi?$AAt?$AA?9?$AAC?$AAH?$AA?$AA@ 10022538     libucrt:lcidtoname_downlevel.obj
 0002:00004544       ??_C@_1M@CLLBGJH@?$AAn?$AAl?$AA?9?$AAB?$AAE?$AA?$AA@ 10022544     libucrt:lcidtoname_downlevel.obj
 0002:00004550       ??_C@_1M@BODBOGLF@?$AAn?$AAn?$AA?9?$AAN?$AAO?$AA?$AA@ 10022550     libucrt:lcidtoname_downlevel.obj
 0002:0000455c       ??_C@_1M@HFFAHKAD@?$AAp?$AAt?$AA?9?$AAP?$AAT?$AA?$AA@ 1002255c     libucrt:lcidtoname_downlevel.obj
 0002:00004568       ??_C@_1BG@LNOAKHIE@?$AAs?$AAr?$AA?9?$AAS?$AAP?$AA?9?$AAL?$AAa?$AAt?$AAn?$AA?$AA@ 10022568     libucrt:lcidtoname_downlevel.obj
 0002:00004580       ??_C@_1M@HBMHBGAK@?$AAs?$AAv?$AA?9?$AAF?$AAI?$AA?$AA@ 10022580     libucrt:lcidtoname_downlevel.obj
 0002:0000458c       ??_C@_1BG@DGCJGJBE@?$AAa?$AAz?$AA?9?$AAA?$AAZ?$AA?9?$AAC?$AAy?$AAr?$AAl?$AA?$AA@ 1002258c     libucrt:lcidtoname_downlevel.obj
 0002:000045a4       ??_C@_1M@KEJDAAHB@?$AAs?$AAe?$AA?9?$AAS?$AAE?$AA?$AA@ 100225a4     libucrt:lcidtoname_downlevel.obj
 0002:000045b0       ??_C@_1M@HEIBJJAD@?$AAm?$AAs?$AA?9?$AAB?$AAN?$AA?$AA@ 100225b0     libucrt:lcidtoname_downlevel.obj
 0002:000045bc       ??_C@_1BG@PBGJMCEM@?$AAu?$AAz?$AA?9?$AAU?$AAZ?$AA?9?$AAC?$AAy?$AAr?$AAl?$AA?$AA@ 100225bc     libucrt:lcidtoname_downlevel.obj
 0002:000045d4       ??_C@_1O@LAOBCMDF@?$AAq?$AAu?$AAz?$AA?9?$AAE?$AAC?$AA?$AA@ 100225d4     libucrt:lcidtoname_downlevel.obj
 0002:000045e4       ??_C@_1M@POEEMAIO@?$AAa?$AAr?$AA?9?$AAE?$AAG?$AA?$AA@ 100225e4     libucrt:lcidtoname_downlevel.obj
 0002:000045f0       ??_C@_1M@EFAKDEDL@?$AAz?$AAh?$AA?9?$AAH?$AAK?$AA?$AA@ 100225f0     libucrt:lcidtoname_downlevel.obj
 0002:000045fc       ??_C@_1M@HKKIJHGI@?$AAd?$AAe?$AA?9?$AAA?$AAT?$AA?$AA@ 100225fc     libucrt:lcidtoname_downlevel.obj
 0002:00004608       ??_C@_1M@KBFBEHJF@?$AAe?$AAn?$AA?9?$AAA?$AAU?$AA?$AA@ 10022608     libucrt:lcidtoname_downlevel.obj
 0002:00004614       ??_C@_1M@MNPLFAAH@?$AAe?$AAs?$AA?9?$AAE?$AAS?$AA?$AA@ 10022614     libucrt:lcidtoname_downlevel.obj
 0002:00004620       ??_C@_1M@HJOOJFMA@?$AAf?$AAr?$AA?9?$AAC?$AAA?$AA?$AA@ 10022620     libucrt:lcidtoname_downlevel.obj
 0002:0000462c       ??_C@_1BG@JPOFPNAB@?$AAs?$AAr?$AA?9?$AAS?$AAP?$AA?9?$AAC?$AAy?$AAr?$AAl?$AA?$AA@ 1002262c     libucrt:lcidtoname_downlevel.obj
 0002:00004644       ??_C@_1M@LNFOCMOB@?$AAs?$AAe?$AA?9?$AAF?$AAI?$AA?$AA@ 10022644     libucrt:lcidtoname_downlevel.obj
 0002:00004650       ??_C@_1O@MGJBOAMB@?$AAq?$AAu?$AAz?$AA?9?$AAP?$AAE?$AA?$AA@ 10022650     libucrt:lcidtoname_downlevel.obj
 0002:00004660       ??_C@_1M@GJINLBOK@?$AAa?$AAr?$AA?9?$AAL?$AAY?$AA?$AA@ 10022660     libucrt:lcidtoname_downlevel.obj
 0002:0000466c       ??_C@_1M@GGMNHJNL@?$AAz?$AAh?$AA?9?$AAS?$AAG?$AA?$AA@ 1002266c     libucrt:lcidtoname_downlevel.obj
 0002:00004678       ??_C@_1M@HOIKODND@?$AAd?$AAe?$AA?9?$AAL?$AAU?$AA?$AA@ 10022678     libucrt:lcidtoname_downlevel.obj
 0002:00004684       ??_C@_1M@DDOCCGFG@?$AAe?$AAn?$AA?9?$AAC?$AAA?$AA?$AA@ 10022684     libucrt:lcidtoname_downlevel.obj
 0002:00004690       ??_C@_1M@BNOEMJLF@?$AAe?$AAs?$AA?9?$AAG?$AAT?$AA?$AA@ 10022690     libucrt:lcidtoname_downlevel.obj
 0002:0000469c       ??_C@_1M@EOGNKEK@?$AAf?$AAr?$AA?9?$AAC?$AAH?$AA?$AA@ 1002269c     libucrt:lcidtoname_downlevel.obj
 0002:000046a8       ??_C@_1M@FLIDJFHL@?$AAh?$AAr?$AA?9?$AAB?$AAA?$AA?$AA@ 100226a8     libucrt:lcidtoname_downlevel.obj
 0002:000046b4       ??_C@_1O@FMCELNAJ@?$AAs?$AAm?$AAj?$AA?9?$AAN?$AAO?$AA?$AA@ 100226b4     libucrt:lcidtoname_downlevel.obj
 0002:000046c4       ??_C@_1M@JHGLJMGJ@?$AAa?$AAr?$AA?9?$AAD?$AAZ?$AA?$AA@ 100226c4     libucrt:lcidtoname_downlevel.obj
 0002:000046d0       ??_C@_1M@JKKFDCNP@?$AAz?$AAh?$AA?9?$AAM?$AAO?$AA?$AA@ 100226d0     libucrt:lcidtoname_downlevel.obj
 0002:000046dc       ??_C@_1M@GEEFALPE@?$AAd?$AAe?$AA?9?$AAL?$AAI?$AA?$AA@ 100226dc     libucrt:lcidtoname_downlevel.obj
 0002:000046e8       ??_C@_1M@IGEOFBG@?$AAe?$AAn?$AA?9?$AAN?$AAZ?$AA?$AA@ 100226e8     libucrt:lcidtoname_downlevel.obj
 0002:000046f4       ??_C@_1M@KDBONEHP@?$AAe?$AAs?$AA?9?$AAC?$AAR?$AA?$AA@ 100226f4     libucrt:lcidtoname_downlevel.obj
 0002:00004700       ??_C@_1M@FHMDOHNN@?$AAf?$AAr?$AA?9?$AAL?$AAU?$AA?$AA@ 10022700     libucrt:lcidtoname_downlevel.obj
 0002:0000470c       ??_C@_1BG@NFKKMAFG@?$AAb?$AAs?$AA?9?$AAB?$AAA?$AA?9?$AAL?$AAa?$AAt?$AAn?$AA?$AA@ 1002270c     libucrt:lcidtoname_downlevel.obj
 0002:00004724       ??_C@_1O@IMNBEMCI@?$AAs?$AAm?$AAj?$AA?9?$AAS?$AAE?$AA?$AA@ 10022724     libucrt:lcidtoname_downlevel.obj
 0002:00004734       ??_C@_1M@DHHMBNDP@?$AAa?$AAr?$AA?9?$AAM?$AAA?$AA?$AA@ 10022734     libucrt:lcidtoname_downlevel.obj
 0002:00004740       ??_C@_1M@BNBLJCGH@?$AAe?$AAn?$AA?9?$AAI?$AAE?$AA?$AA@ 10022740     libucrt:lcidtoname_downlevel.obj
 0002:0000474c       ??_C@_1M@GEPAFMDL@?$AAe?$AAs?$AA?9?$AAP?$AAA?$AA?$AA@ 1002274c     libucrt:lcidtoname_downlevel.obj
 0002:00004758       ??_C@_1M@OJONDMDL@?$AAf?$AAr?$AA?9?$AAM?$AAC?$AA?$AA@ 10022758     libucrt:lcidtoname_downlevel.obj
 0002:00004764       ??_C@_1BG@OBCNFJB@?$AAs?$AAr?$AA?9?$AAB?$AAA?$AA?9?$AAL?$AAa?$AAt?$AAn?$AA?$AA@ 10022764     libucrt:lcidtoname_downlevel.obj
 0002:0000477c       ??_C@_1O@KEMEEGPO@?$AAs?$AAm?$AAa?$AA?9?$AAN?$AAO?$AA?$AA@ 1002277c     libucrt:lcidtoname_downlevel.obj
 0002:0000478c       ??_C@_1M@ELMGFODK@?$AAa?$AAr?$AA?9?$AAT?$AAN?$AA?$AA@ 1002278c     libucrt:lcidtoname_downlevel.obj
 0002:00004798       ??_C@_1M@BHDLHFAF@?$AAe?$AAn?$AA?9?$AAZ?$AAA?$AA?$AA@ 10022798     libucrt:lcidtoname_downlevel.obj
 0002:000047a4       ??_C@_1M@BMGIGLIF@?$AAe?$AAs?$AA?9?$AAD?$AAO?$AA?$AA@ 100227a4     libucrt:lcidtoname_downlevel.obj
 0002:000047b0       ??_C@_1BG@CMBHIPBE@?$AAs?$AAr?$AA?9?$AAB?$AAA?$AA?9?$AAC?$AAy?$AAr?$AAl?$AA?$AA@ 100227b0     libucrt:lcidtoname_downlevel.obj
 0002:000047c8       ??_C@_1O@HEDBLHNP@?$AAs?$AAm?$AAa?$AA?9?$AAS?$AAE?$AA?$AA@ 100227c8     libucrt:lcidtoname_downlevel.obj
 0002:000047d8       ??_C@_1M@DAGCADIM@?$AAa?$AAr?$AA?9?$AAO?$AAM?$AA?$AA@ 100227d8     libucrt:lcidtoname_downlevel.obj
 0002:000047e4       ??_C@_1M@FODLMICG@?$AAe?$AAn?$AA?9?$AAJ?$AAM?$AA?$AA@ 100227e4     libucrt:lcidtoname_downlevel.obj
 0002:000047f0       ??_C@_1M@DNMLCIHB@?$AAe?$AAs?$AA?9?$AAV?$AAE?$AA?$AA@ 100227f0     libucrt:lcidtoname_downlevel.obj
 0002:000047fc       ??_C@_1O@EOKHMKJK@?$AAs?$AAm?$AAs?$AA?9?$AAF?$AAI?$AA?$AA@ 100227fc     libucrt:lcidtoname_downlevel.obj
 0002:0000480c       ??_C@_1M@CAFJMKOF@?$AAa?$AAr?$AA?9?$AAY?$AAE?$AA?$AA@ 1002280c     libucrt:lcidtoname_downlevel.obj
 0002:00004818       ??_C@_1M@CBFHIJLI@?$AAe?$AAn?$AA?9?$AAC?$AAB?$AA?$AA@ 10022818     libucrt:lcidtoname_downlevel.obj
 0002:00004824       ??_C@_1M@BGNFLDN@?$AAe?$AAs?$AA?9?$AAC?$AAO?$AA?$AA@ 10022824     libucrt:lcidtoname_downlevel.obj
 0002:00004830       ??_C@_1O@JMPHMAMC@?$AAs?$AAm?$AAn?$AA?9?$AAF?$AAI?$AA?$AA@ 10022830     libucrt:lcidtoname_downlevel.obj
 0002:00004840       ??_C@_1M@JLANABKE@?$AAa?$AAr?$AA?9?$AAS?$AAY?$AA?$AA@ 10022840     libucrt:lcidtoname_downlevel.obj
 0002:0000484c       ??_C@_1M@HPKGCFGN@?$AAe?$AAn?$AA?9?$AAB?$AAZ?$AA?$AA@ 1002284c     libucrt:lcidtoname_downlevel.obj
 0002:00004858       ??_C@_1M@OLJCMLGM@?$AAe?$AAs?$AA?9?$AAP?$AAE?$AA?$AA@ 10022858     libucrt:lcidtoname_downlevel.obj
 0002:00004864       ??_C@_1M@MKKGFKLE@?$AAa?$AAr?$AA?9?$AAJ?$AAO?$AA?$AA@ 10022864     libucrt:lcidtoname_downlevel.obj
 0002:00004870       ??_C@_1M@EKPGLDNI@?$AAe?$AAn?$AA?9?$AAT?$AAT?$AA?$AA@ 10022870     libucrt:lcidtoname_downlevel.obj
 0002:0000487c       ??_C@_1M@OONGHFHE@?$AAe?$AAs?$AA?9?$AAA?$AAR?$AA?$AA@ 1002287c     libucrt:lcidtoname_downlevel.obj
 0002:00004888       ??_C@_1M@OOJFGBHE@?$AAa?$AAr?$AA?9?$AAL?$AAB?$AA?$AA@ 10022888     libucrt:lcidtoname_downlevel.obj
 0002:00004894       ??_C@_1M@GCEJHNEG@?$AAe?$AAn?$AA?9?$AAZ?$AAW?$AA?$AA@ 10022894     libucrt:lcidtoname_downlevel.obj
 0002:000048a0       ??_C@_1M@JNOCAHJI@?$AAe?$AAs?$AA?9?$AAE?$AAC?$AA?$AA@ 100228a0     libucrt:lcidtoname_downlevel.obj
 0002:000048ac       ??_C@_1M@JEFHPGGB@?$AAa?$AAr?$AA?9?$AAK?$AAW?$AA?$AA@ 100228ac     libucrt:lcidtoname_downlevel.obj
 0002:000048b8       ??_C@_1M@MLKIBJOJ@?$AAe?$AAn?$AA?9?$AAP?$AAH?$AA?$AA@ 100228b8     libucrt:lcidtoname_downlevel.obj
 0002:000048c4       ??_C@_1M@BDNIPEND@?$AAe?$AAs?$AA?9?$AAC?$AAL?$AA?$AA@ 100228c4     libucrt:lcidtoname_downlevel.obj
 0002:000048d0       ??_C@_1M@MPNMEKBD@?$AAa?$AAr?$AA?9?$AAA?$AAE?$AA?$AA@ 100228d0     libucrt:lcidtoname_downlevel.obj
 0002:000048dc       ??_C@_1M@KBJALCPI@?$AAe?$AAs?$AA?9?$AAU?$AAY?$AA?$AA@ 100228dc     libucrt:lcidtoname_downlevel.obj
 0002:000048e8       ??_C@_1M@LLCCOAGA@?$AAa?$AAr?$AA?9?$AAB?$AAH?$AA?$AA@ 100228e8     libucrt:lcidtoname_downlevel.obj
 0002:000048f4       ??_C@_1M@PBFNCDEL@?$AAe?$AAs?$AA?9?$AAP?$AAY?$AA?$AA@ 100228f4     libucrt:lcidtoname_downlevel.obj
 0002:00004900       ??_C@_1M@EDGINPNP@?$AAa?$AAr?$AA?9?$AAQ?$AAA?$AA?$AA@ 10022900     libucrt:lcidtoname_downlevel.obj
 0002:0000490c       ??_C@_1M@MKDBIIJI@?$AAe?$AAs?$AA?9?$AAB?$AAO?$AA?$AA@ 1002290c     libucrt:lcidtoname_downlevel.obj
 0002:00004918       ??_C@_1M@CPKKEBLD@?$AAe?$AAs?$AA?9?$AAS?$AAV?$AA?$AA@ 10022918     libucrt:lcidtoname_downlevel.obj
 0002:00004924       ??_C@_1M@NDBGMMJL@?$AAe?$AAs?$AA?9?$AAH?$AAN?$AA?$AA@ 10022924     libucrt:lcidtoname_downlevel.obj
 0002:00004930       ??_C@_1M@JIJIBHDP@?$AAe?$AAs?$AA?9?$AAN?$AAI?$AA?$AA@ 10022930     libucrt:lcidtoname_downlevel.obj
 0002:0000493c       ??_C@_1M@CGFMKEEK@?$AAe?$AAs?$AA?9?$AAP?$AAR?$AA?$AA@ 1002293c     libucrt:lcidtoname_downlevel.obj
 0002:00004948       ??_C@_1O@ICJHKIIK@?$AAz?$AAh?$AA?9?$AAC?$AAH?$AAT?$AA?$AA@ 10022948     libucrt:lcidtoname_downlevel.obj
 0002:00004958       ??_C@_15CLNEJCE@?$AAs?$AAr?$AA?$AA@ 10022958     libucrt:lcidtoname_downlevel.obj
 0002:00005080       ??_C@_1M@KAHEKEIG@?$AAa?$AAf?$AA?9?$AAz?$AAa?$AA?$AA@ 10023080     libucrt:lcidtoname_downlevel.obj
 0002:0000508c       ??_C@_1M@GIECOABL@?$AAa?$AAr?$AA?9?$AAa?$AAe?$AA?$AA@ 1002308c     libucrt:lcidtoname_downlevel.obj
 0002:00005098       ??_C@_1M@BMLMEKGI@?$AAa?$AAr?$AA?9?$AAb?$AAh?$AA?$AA@ 10023098     libucrt:lcidtoname_downlevel.obj
 0002:000050a4       ??_C@_1M@DAPFDGGB@?$AAa?$AAr?$AA?9?$AAd?$AAz?$AA?$AA@ 100230a4     libucrt:lcidtoname_downlevel.obj
 0002:000050b0       ??_C@_1M@FJNKGKIG@?$AAa?$AAr?$AA?9?$AAe?$AAg?$AA?$AA@ 100230b0     libucrt:lcidtoname_downlevel.obj
 0002:000050bc       ??_C@_1M@FLGKKCLO@?$AAa?$AAr?$AA?9?$AAi?$AAq?$AA?$AA@ 100230bc     libucrt:lcidtoname_downlevel.obj
 0002:000050c8       ??_C@_1M@GNDIPALM@?$AAa?$AAr?$AA?9?$AAj?$AAo?$AA?$AA@ 100230c8     libucrt:lcidtoname_downlevel.obj
 0002:000050d4       ??_C@_1M@DDMJFMGJ@?$AAa?$AAr?$AA?9?$AAk?$AAw?$AA?$AA@ 100230d4     libucrt:lcidtoname_downlevel.obj
 0002:000050e0       ??_C@_1M@EJALMLHM@?$AAa?$AAr?$AA?9?$AAl?$AAb?$AA?$AA@ 100230e0     libucrt:lcidtoname_downlevel.obj
 0002:000050ec       ??_C@_1M@MOBDBLOC@?$AAa?$AAr?$AA?9?$AAl?$AAy?$AA?$AA@ 100230ec     libucrt:lcidtoname_downlevel.obj
 0002:000050f8       ??_C@_1M@JAOCLHDH@?$AAa?$AAr?$AA?9?$AAm?$AAa?$AA?$AA@ 100230f8     libucrt:lcidtoname_downlevel.obj
 0002:00005104       ??_C@_1M@JHPMKJIE@?$AAa?$AAr?$AA?9?$AAo?$AAm?$AA?$AA@ 10023104     libucrt:lcidtoname_downlevel.obj
 0002:00005110       ??_C@_1M@OEPGHFNH@?$AAa?$AAr?$AA?9?$AAq?$AAa?$AA?$AA@ 10023110     libucrt:lcidtoname_downlevel.obj
 0002:0000511c       ??_C@_1M@KJDONENM@?$AAa?$AAr?$AA?9?$AAs?$AAa?$AA?$AA@ 1002311c     libucrt:lcidtoname_downlevel.obj
 0002:00005128       ??_C@_1M@DMJDKLKM@?$AAa?$AAr?$AA?9?$AAs?$AAy?$AA?$AA@ 10023128     libucrt:lcidtoname_downlevel.obj
 0002:00005134       ??_C@_1M@OMFIPEDC@?$AAa?$AAr?$AA?9?$AAt?$AAn?$AA?$AA@ 10023134     libucrt:lcidtoname_downlevel.obj
 0002:00005140       ??_C@_1M@IHMHGAON@?$AAa?$AAr?$AA?9?$AAy?$AAe?$AA?$AA@ 10023140     libucrt:lcidtoname_downlevel.obj
 0002:0000514c       ??_C@_1BG@KDCPGJGB@?$AAa?$AAz?$AA?9?$AAa?$AAz?$AA?9?$AAc?$AAy?$AAr?$AAl?$AA?$AA@ 1002314c     libucrt:lcidtoname_downlevel.obj
 0002:00005164       ??_C@_1BG@IBCKDDOE@?$AAa?$AAz?$AA?9?$AAa?$AAz?$AA?9?$AAl?$AAa?$AAt?$AAn?$AA?$AA@ 10023164     libucrt:lcidtoname_downlevel.obj
 0002:0000517c       ??_C@_1M@EGPFDCPD@?$AAb?$AAe?$AA?9?$AAb?$AAy?$AA?$AA@ 1002317c     libucrt:lcidtoname_downlevel.obj
 0002:00005188       ??_C@_1M@PCMGMCGC@?$AAb?$AAg?$AA?9?$AAb?$AAg?$AA?$AA@ 10023188     libucrt:lcidtoname_downlevel.obj
 0002:00005194       ??_C@_1M@BJBMFGOB@?$AAb?$AAn?$AA?9?$AAi?$AAn?$AA?$AA@ 10023194     libucrt:lcidtoname_downlevel.obj
 0002:000051a0       ??_C@_1BG@EAKMMACD@?$AAb?$AAs?$AA?9?$AAb?$AAa?$AA?9?$AAl?$AAa?$AAt?$AAn?$AA?$AA@ 100231a0     libucrt:lcidtoname_downlevel.obj
 0002:000051b8       ??_C@_1M@KGADAODK@?$AAc?$AAa?$AA?9?$AAe?$AAs?$AA?$AA@ 100231b8     libucrt:lcidtoname_downlevel.obj
 0002:000051c4       ??_C@_1M@COAJPDHI@?$AAc?$AAs?$AA?9?$AAc?$AAz?$AA?$AA@ 100231c4     libucrt:lcidtoname_downlevel.obj
 0002:000051d0       ??_C@_1M@DHBHFONH@?$AAc?$AAy?$AA?9?$AAg?$AAb?$AA?$AA@ 100231d0     libucrt:lcidtoname_downlevel.obj
 0002:000051dc       ??_C@_1M@IMGKELGA@?$AAd?$AAa?$AA?9?$AAd?$AAk?$AA?$AA@ 100231dc     libucrt:lcidtoname_downlevel.obj
 0002:000051e8       ??_C@_1M@NNDGDNGA@?$AAd?$AAe?$AA?9?$AAa?$AAt?$AA?$AA@ 100231e8     libucrt:lcidtoname_downlevel.obj
 0002:000051f4       ??_C@_1M@IKDBHEEM@?$AAd?$AAe?$AA?9?$AAc?$AAh?$AA?$AA@ 100231f4     libucrt:lcidtoname_downlevel.obj
 0002:00005200       ??_C@_1M@GFFOJMCJ@?$AAd?$AAe?$AA?9?$AAd?$AAe?$AA?$AA@ 10023200     libucrt:lcidtoname_downlevel.obj
 0002:0000520c       ??_C@_1M@MDNLKBPM@?$AAd?$AAe?$AA?9?$AAl?$AAi?$AA?$AA@ 1002320c     libucrt:lcidtoname_downlevel.obj
 0002:00005218       ??_C@_1M@NJBEEJNL@?$AAd?$AAe?$AA?9?$AAl?$AAu?$AA?$AA@ 10023218     libucrt:lcidtoname_downlevel.obj
 0002:00005224       ??_C@_1O@GNNELBAP@?$AAd?$AAi?$AAv?$AA?9?$AAm?$AAv?$AA?$AA@ 10023224     libucrt:lcidtoname_downlevel.obj
 0002:00005234       ??_C@_1M@EJLEOGAE@?$AAe?$AAl?$AA?9?$AAg?$AAr?$AA?$AA@ 10023234     libucrt:lcidtoname_downlevel.obj
 0002:00005240       ??_C@_1M@GMPONJN@?$AAe?$AAn?$AA?9?$AAa?$AAu?$AA?$AA@ 10023240     libucrt:lcidtoname_downlevel.obj
 0002:0000524c       ??_C@_1M@NIDIIPGF@?$AAe?$AAn?$AA?9?$AAb?$AAz?$AA?$AA@ 1002324c     libucrt:lcidtoname_downlevel.obj
 0002:00005258       ??_C@_1M@JEHMIMFO@?$AAe?$AAn?$AA?9?$AAc?$AAa?$AA?$AA@ 10023258     libucrt:lcidtoname_downlevel.obj
 0002:00005264       ??_C@_1M@IGMJCDLA@?$AAe?$AAn?$AA?9?$AAc?$AAb?$AA?$AA@ 10023264     libucrt:lcidtoname_downlevel.obj
 0002:00005270       ??_C@_1M@BNFIGBKG@?$AAe?$AAn?$AA?9?$AAg?$AAb?$AA?$AA@ 10023270     libucrt:lcidtoname_downlevel.obj
 0002:0000527c       ??_C@_1M@LKIFDIGP@?$AAe?$AAn?$AA?9?$AAi?$AAe?$AA?$AA@ 1002327c     libucrt:lcidtoname_downlevel.obj
 0002:00005288       ??_C@_1M@PJKFGCCO@?$AAe?$AAn?$AA?9?$AAj?$AAm?$AA?$AA@ 10023288     libucrt:lcidtoname_downlevel.obj
 0002:00005294       ??_C@_1M@KPPKEPBO@?$AAe?$AAn?$AA?9?$AAn?$AAz?$AA?$AA@ 10023294     libucrt:lcidtoname_downlevel.obj
 0002:000052a0       ??_C@_1M@GMDGLDOB@?$AAe?$AAn?$AA?9?$AAp?$AAh?$AA?$AA@ 100232a0     libucrt:lcidtoname_downlevel.obj
 0002:000052ac       ??_C@_1M@ONGIBJNA@?$AAe?$AAn?$AA?9?$AAt?$AAt?$AA?$AA@ 100232ac     libucrt:lcidtoname_downlevel.obj
 0002:000052b8       ??_C@_1M@LLODPCMM@?$AAe?$AAn?$AA?9?$AAu?$AAs?$AA?$AA@ 100232b8     libucrt:lcidtoname_downlevel.obj
 0002:000052c4       ??_C@_1M@LAKFNPAN@?$AAe?$AAn?$AA?9?$AAz?$AAa?$AA?$AA@ 100232c4     libucrt:lcidtoname_downlevel.obj
 0002:000052d0       ??_C@_1M@MFNHNHEO@?$AAe?$AAn?$AA?9?$AAz?$AAw?$AA?$AA@ 100232d0     libucrt:lcidtoname_downlevel.obj
 0002:000052dc       ??_C@_1M@EJEINPHM@?$AAe?$AAs?$AA?9?$AAa?$AAr?$AA?$AA@ 100232dc     libucrt:lcidtoname_downlevel.obj
 0002:000052e8       ??_C@_1M@GNKPCCJA@?$AAe?$AAs?$AA?9?$AAb?$AAo?$AA?$AA@ 100232e8     libucrt:lcidtoname_downlevel.obj
 0002:000052f4       ??_C@_1M@LEEGFONL@?$AAe?$AAs?$AA?9?$AAc?$AAl?$AA?$AA@ 100232f4     libucrt:lcidtoname_downlevel.obj
 0002:00005300       ??_C@_1M@KGPDPBDF@?$AAe?$AAs?$AA?9?$AAc?$AAo?$AA?$AA@ 10023300     libucrt:lcidtoname_downlevel.obj
 0002:0000530c       ??_C@_1M@EIAHOHH@?$AAe?$AAs?$AA?9?$AAc?$AAr?$AA?$AA@ 1002330c     libucrt:lcidtoname_downlevel.obj
 0002:00005318       ??_C@_1M@LLPGMBIN@?$AAe?$AAs?$AA?9?$AAd?$AAo?$AA?$AA@ 10023318     libucrt:lcidtoname_downlevel.obj
 0002:00005324       ??_C@_1M@DKHMKNJA@?$AAe?$AAs?$AA?9?$AAe?$AAc?$AA?$AA@ 10023324     libucrt:lcidtoname_downlevel.obj
 0002:00005330       ??_C@_1M@GKGFPKAP@?$AAe?$AAs?$AA?9?$AAe?$AAs?$AA?$AA@ 10023330     libucrt:lcidtoname_downlevel.obj
 0002:0000533c       ??_C@_1M@LKHKGDLN@?$AAe?$AAs?$AA?9?$AAg?$AAt?$AA?$AA@ 1002333c     libucrt:lcidtoname_downlevel.obj
 0002:00005348       ??_C@_1M@HEIIGGJD@?$AAe?$AAs?$AA?9?$AAh?$AAn?$AA?$AA@ 10023348     libucrt:lcidtoname_downlevel.obj
 0002:00005354       ??_C@_1M@FBDHPPGD@?$AAe?$AAs?$AA?9?$AAm?$AAx?$AA?$AA@ 10023354     libucrt:lcidtoname_downlevel.obj
 0002:00005360       ??_C@_1M@DPAGLNDH@?$AAe?$AAs?$AA?9?$AAn?$AAi?$AA?$AA@ 10023360     libucrt:lcidtoname_downlevel.obj
 0002:0000536c       ??_C@_1M@MDGOPGDD@?$AAe?$AAs?$AA?9?$AAp?$AAa?$AA?$AA@ 1002336c     libucrt:lcidtoname_downlevel.obj
 0002:00005378       ??_C@_1M@EMAMGBGE@?$AAe?$AAs?$AA?9?$AAp?$AAe?$AA?$AA@ 10023378     libucrt:lcidtoname_downlevel.obj
 0002:00005384       ??_C@_1M@IBMCAOEC@?$AAe?$AAs?$AA?9?$AAp?$AAr?$AA?$AA@ 10023384     libucrt:lcidtoname_downlevel.obj
 0002:00005390       ??_C@_1M@FGMDIJED@?$AAe?$AAs?$AA?9?$AAp?$AAy?$AA?$AA@ 10023390     libucrt:lcidtoname_downlevel.obj
 0002:0000539c       ??_C@_1M@IIDEOLLL@?$AAe?$AAs?$AA?9?$AAs?$AAv?$AA?$AA@ 1002339c     libucrt:lcidtoname_downlevel.obj
 0002:000053a8       ??_C@_1M@GAOBIPA@?$AAe?$AAs?$AA?9?$AAu?$AAy?$AA?$AA@ 100233a8     libucrt:lcidtoname_downlevel.obj
 0002:000053b4       ??_C@_1M@JKFFICHJ@?$AAe?$AAs?$AA?9?$AAv?$AAe?$AA?$AA@ 100233b4     libucrt:lcidtoname_downlevel.obj
 0002:000053c0       ??_C@_1M@PNMLOJDF@?$AAe?$AAt?$AA?9?$AAe?$AAe?$AA?$AA@ 100233c0     libucrt:lcidtoname_downlevel.obj
 0002:000053cc       ??_C@_1M@GHHLIKEI@?$AAe?$AAu?$AA?9?$AAe?$AAs?$AA?$AA@ 100233cc     libucrt:lcidtoname_downlevel.obj
 0002:000053d8       ??_C@_1M@PBNONODE@?$AAf?$AAa?$AA?9?$AAi?$AAr?$AA?$AA@ 100233d8     libucrt:lcidtoname_downlevel.obj
 0002:000053e4       ??_C@_1M@JEEHPMIL@?$AAf?$AAi?$AA?9?$AAf?$AAi?$AA?$AA@ 100233e4     libucrt:lcidtoname_downlevel.obj
 0002:000053f0       ??_C@_1M@LMDCNDBA@?$AAf?$AAo?$AA?9?$AAf?$AAo?$AA?$AA@ 100233f0     libucrt:lcidtoname_downlevel.obj
 0002:000053fc       ??_C@_1M@JKEOHLDK@?$AAf?$AAr?$AA?9?$AAb?$AAe?$AA?$AA@ 100233fc     libucrt:lcidtoname_downlevel.obj
 0002:00005408       ??_C@_1M@NOHADPMI@?$AAf?$AAr?$AA?9?$AAc?$AAa?$AA?$AA@ 10023408     libucrt:lcidtoname_downlevel.obj
 0002:00005414       ??_C@_1M@KDHIHAEC@?$AAf?$AAr?$AA?9?$AAc?$AAh?$AA?$AA@ 10023414     libucrt:lcidtoname_downlevel.obj
 0002:00005420       ??_C@_1M@MMBBFGAK@?$AAf?$AAr?$AA?9?$AAf?$AAr?$AA?$AA@ 10023420     libucrt:lcidtoname_downlevel.obj
 0002:0000542c       ??_C@_1M@PAFNENNF@?$AAf?$AAr?$AA?9?$AAl?$AAu?$AA?$AA@ 1002342c     libucrt:lcidtoname_downlevel.obj
 0002:00005438       ??_C@_1M@EOHDJGDD@?$AAf?$AAr?$AA?9?$AAm?$AAc?$AA?$AA@ 10023438     libucrt:lcidtoname_downlevel.obj
 0002:00005444       ??_C@_1M@FAPLLOPF@?$AAg?$AAl?$AA?9?$AAe?$AAs?$AA?$AA@ 10023444     libucrt:lcidtoname_downlevel.obj
 0002:00005450       ??_C@_1M@FOPBFLOO@?$AAg?$AAu?$AA?9?$AAi?$AAn?$AA?$AA@ 10023450     libucrt:lcidtoname_downlevel.obj
 0002:0000545c       ??_C@_1M@KBMCINPM@?$AAh?$AAe?$AA?9?$AAi?$AAl?$AA?$AA@ 1002345c     libucrt:lcidtoname_downlevel.obj
 0002:00005468       ??_C@_1M@BBPHKFPJ@?$AAh?$AAi?$AA?9?$AAi?$AAn?$AA?$AA@ 10023468     libucrt:lcidtoname_downlevel.obj
 0002:00005474       ??_C@_1M@PMBNDPHD@?$AAh?$AAr?$AA?9?$AAb?$AAa?$AA?$AA@ 10023474     libucrt:lcidtoname_downlevel.obj
 0002:00005480       ??_C@_1M@BPCKOEGE@?$AAh?$AAr?$AA?9?$AAh?$AAr?$AA?$AA@ 10023480     libucrt:lcidtoname_downlevel.obj
 0002:0000548c       ??_C@_1M@GACBMHKE@?$AAh?$AAu?$AA?9?$AAh?$AAu?$AA?$AA@ 1002348c     libucrt:lcidtoname_downlevel.obj
 0002:00005498       ??_C@_1M@MILPAJJC@?$AAh?$AAy?$AA?9?$AAa?$AAm?$AA?$AA@ 10023498     libucrt:lcidtoname_downlevel.obj
 0002:000054a4       ??_C@_1M@BABBICEC@?$AAi?$AAd?$AA?9?$AAi?$AAd?$AA?$AA@ 100234a4     libucrt:lcidtoname_downlevel.obj
 0002:000054b0       ??_C@_1M@BIKNHHPF@?$AAi?$AAs?$AA?9?$AAi?$AAs?$AA?$AA@ 100234b0     libucrt:lcidtoname_downlevel.obj
 0002:000054bc       ??_C@_1M@NMPCJPHE@?$AAi?$AAt?$AA?9?$AAc?$AAh?$AA?$AA@ 100234bc     libucrt:lcidtoname_downlevel.obj
 0002:000054c8       ??_C@_1M@GHKGFEDF@?$AAi?$AAt?$AA?9?$AAi?$AAt?$AA?$AA@ 100234c8     libucrt:lcidtoname_downlevel.obj
 0002:000054d4       ??_C@_1M@NIEJCJJA@?$AAj?$AAa?$AA?9?$AAj?$AAp?$AA?$AA@ 100234d4     libucrt:lcidtoname_downlevel.obj
 0002:000054e0       ??_C@_1M@JILFNBIM@?$AAk?$AAa?$AA?9?$AAg?$AAe?$AA?$AA@ 100234e0     libucrt:lcidtoname_downlevel.obj
 0002:000054ec       ??_C@_1M@PACPMGPH@?$AAk?$AAk?$AA?9?$AAk?$AAz?$AA?$AA@ 100234ec     libucrt:lcidtoname_downlevel.obj
 0002:000054f8       ??_C@_1M@IELFGMHA@?$AAk?$AAn?$AA?9?$AAi?$AAn?$AA?$AA@ 100234f8     libucrt:lcidtoname_downlevel.obj
 0002:00005504       ??_C@_1O@IBBJHCH@?$AAk?$AAo?$AAk?$AA?9?$AAi?$AAn?$AA?$AA@ 10023504     libucrt:lcidtoname_downlevel.obj
 0002:00005514       ??_C@_1M@DMHAEOGC@?$AAk?$AAo?$AA?9?$AAk?$AAr?$AA?$AA@ 10023514     libucrt:lcidtoname_downlevel.obj
 0002:00005520       ??_C@_1M@HBAHBIGA@?$AAk?$AAy?$AA?9?$AAk?$AAg?$AA?$AA@ 10023520     libucrt:lcidtoname_downlevel.obj
 0002:0000552c       ??_C@_1M@KPMILCJG@?$AAl?$AAt?$AA?9?$AAl?$AAt?$AA?$AA@ 1002352c     libucrt:lcidtoname_downlevel.obj
 0002:00005538       ??_C@_1M@BDEKKCA@?$AAl?$AAv?$AA?9?$AAl?$AAv?$AA?$AA@ 10023538     libucrt:lcidtoname_downlevel.obj
 0002:00005544       ??_C@_1M@ELCKCCJJ@?$AAm?$AAi?$AA?9?$AAn?$AAz?$AA?$AA@ 10023544     libucrt:lcidtoname_downlevel.obj
 0002:00005550       ??_C@_1M@CBOOLAPA@?$AAm?$AAk?$AA?9?$AAm?$AAk?$AA?$AA@ 10023550     libucrt:lcidtoname_downlevel.obj
 0002:0000555c       ??_C@_1M@GPHNBJKN@?$AAm?$AAl?$AA?9?$AAi?$AAn?$AA?$AA@ 1002355c     libucrt:lcidtoname_downlevel.obj
 0002:00005568       ??_C@_1M@PABJILIG@?$AAm?$AAn?$AA?9?$AAm?$AAn?$AA?$AA@ 10023568     libucrt:lcidtoname_downlevel.obj
 0002:00005574       ??_C@_1M@FGBKKIPG@?$AAm?$AAr?$AA?9?$AAi?$AAn?$AA?$AA@ 10023574     libucrt:lcidtoname_downlevel.obj
 0002:00005580       ??_C@_1M@NDBPDDAL@?$AAm?$AAs?$AA?9?$AAb?$AAn?$AA?$AA@ 10023580     libucrt:lcidtoname_downlevel.obj
 0002:0000558c       ??_C@_1M@OPIHOOPI@?$AAm?$AAs?$AA?9?$AAm?$AAy?$AA?$AA@ 1002358c     libucrt:lcidtoname_downlevel.obj
 0002:00005598       ??_C@_1M@PPDBCNFM@?$AAm?$AAt?$AA?9?$AAm?$AAt?$AA?$AA@ 10023598     libucrt:lcidtoname_downlevel.obj
 0002:000055a4       ??_C@_1M@KDJDKMDD@?$AAn?$AAb?$AA?9?$AAn?$AAo?$AA?$AA@ 100235a4     libucrt:lcidtoname_downlevel.obj
 0002:000055b0       ??_C@_1M@KFCFLMJP@?$AAn?$AAl?$AA?9?$AAb?$AAe?$AA?$AA@ 100235b0     libucrt:lcidtoname_downlevel.obj
 0002:000055bc       ??_C@_1M@KPOPDDGO@?$AAn?$AAl?$AA?9?$AAn?$AAl?$AA?$AA@ 100235bc     libucrt:lcidtoname_downlevel.obj
 0002:000055c8       ??_C@_1M@LJKPEMLN@?$AAn?$AAn?$AA?9?$AAn?$AAo?$AA?$AA@ 100235c8     libucrt:lcidtoname_downlevel.obj
 0002:000055d4       ??_C@_1M@BDGHHBFL@?$AAn?$AAs?$AA?9?$AAz?$AAa?$AA?$AA@ 100235d4     libucrt:lcidtoname_downlevel.obj
 0002:000055e0       ??_C@_1M@IDEHOAP@?$AAp?$AAa?$AA?9?$AAi?$AAn?$AA?$AA@ 100235e0     libucrt:lcidtoname_downlevel.obj
 0002:000055ec       ??_C@_1M@HDBKGOGH@?$AAp?$AAl?$AA?9?$AAp?$AAl?$AA?$AA@ 100235ec     libucrt:lcidtoname_downlevel.obj
 0002:000055f8       ??_C@_1M@LJLLCMEH@?$AAp?$AAt?$AA?9?$AAb?$AAr?$AA?$AA@ 100235f8     libucrt:lcidtoname_downlevel.obj
 0002:00005604       ??_C@_1M@NCMONAAL@?$AAp?$AAt?$AA?9?$AAp?$AAt?$AA?$AA@ 10023604     libucrt:lcidtoname_downlevel.obj
 0002:00005610       ??_C@_1O@EAKMAJDN@?$AAq?$AAu?$AAz?$AA?9?$AAb?$AAo?$AA?$AA@ 10023610     libucrt:lcidtoname_downlevel.obj
 0002:00005620       ??_C@_1O@BHHPIGDN@?$AAq?$AAu?$AAz?$AA?9?$AAe?$AAc?$AA?$AA@ 10023620     libucrt:lcidtoname_downlevel.obj
 0002:00005630       ??_C@_1O@GBAPEKMJ@?$AAq?$AAu?$AAz?$AA?9?$AAp?$AAe?$AA?$AA@ 10023630     libucrt:lcidtoname_downlevel.obj
 0002:00005640       ??_C@_1M@CLGLEFBO@?$AAr?$AAo?$AA?9?$AAr?$AAo?$AA?$AA@ 10023640     libucrt:lcidtoname_downlevel.obj
 0002:0000564c       ??_C@_1M@CEEDODME@?$AAr?$AAu?$AA?9?$AAr?$AAu?$AA?$AA@ 1002364c     libucrt:lcidtoname_downlevel.obj
 0002:00005658       ??_C@_1M@HPKKKMPP@?$AAs?$AAa?$AA?9?$AAi?$AAn?$AA?$AA@ 10023658     libucrt:lcidtoname_downlevel.obj
 0002:00005664       ??_C@_1M@BKMAIGOJ@?$AAs?$AAe?$AA?9?$AAf?$AAi?$AA?$AA@ 10023664     libucrt:lcidtoname_downlevel.obj
 0002:00005670       ??_C@_1M@NDPIFLFI@?$AAs?$AAe?$AA?9?$AAn?$AAo?$AA?$AA@ 10023670     libucrt:lcidtoname_downlevel.obj
 0002:0000567c       ??_C@_1M@DANKKHJ@?$AAs?$AAe?$AA?9?$AAs?$AAe?$AA?$AA@ 1002367c     libucrt:lcidtoname_downlevel.obj
 0002:00005688       ??_C@_1M@PNBLONPJ@?$AAs?$AAk?$AA?9?$AAs?$AAk?$AA?$AA@ 10023688     libucrt:lcidtoname_downlevel.obj
 0002:00005694       ??_C@_1M@LFMODOAL@?$AAs?$AAl?$AA?9?$AAs?$AAi?$AA?$AA@ 10023694     libucrt:lcidtoname_downlevel.obj
 0002:000056a0       ??_C@_1O@DFKOMPG@?$AAs?$AAm?$AAa?$AA?9?$AAn?$AAo?$AA?$AA@ 100236a0     libucrt:lcidtoname_downlevel.obj
 0002:000056b0       ??_C@_1O@NDKPBNNH@?$AAs?$AAm?$AAa?$AA?9?$AAs?$AAe?$AA?$AA@ 100236b0     libucrt:lcidtoname_downlevel.obj
 0002:000056c0       ??_C@_1O@PLLKBHAB@?$AAs?$AAm?$AAj?$AA?9?$AAn?$AAo?$AA?$AA@ 100236c0     libucrt:lcidtoname_downlevel.obj
 0002:000056d0       ??_C@_1O@CLEPOGCA@?$AAs?$AAm?$AAj?$AA?9?$AAs?$AAe?$AA?$AA@ 100236d0     libucrt:lcidtoname_downlevel.obj
 0002:000056e0       ??_C@_1O@DLGJGKMK@?$AAs?$AAm?$AAn?$AA?9?$AAf?$AAi?$AA?$AA@ 100236e0     libucrt:lcidtoname_downlevel.obj
 0002:000056f0       ??_C@_1O@OJDJGAJC@?$AAs?$AAm?$AAs?$AA?9?$AAf?$AAi?$AA?$AA@ 100236f0     libucrt:lcidtoname_downlevel.obj
 0002:00005700       ??_C@_1M@BOFOGHPB@?$AAs?$AAq?$AA?9?$AAa?$AAl?$AA?$AA@ 10023700     libucrt:lcidtoname_downlevel.obj
 0002:0000570c       ??_C@_1BG@LJBBIPGB@?$AAs?$AAr?$AA?9?$AAb?$AAa?$AA?9?$AAc?$AAy?$AAr?$AAl?$AA?$AA@ 1002370c     libucrt:lcidtoname_downlevel.obj
 0002:00005724       ??_C@_1BG@JLBENFOE@?$AAs?$AAr?$AA?9?$AAb?$AAa?$AA?9?$AAl?$AAa?$AAt?$AAn?$AA?$AA@ 10023724     libucrt:lcidtoname_downlevel.obj
 0002:0000573c       ??_C@_1BG@KODPNHE@?$AAs?$AAr?$AA?9?$AAs?$AAp?$AA?9?$AAc?$AAy?$AAr?$AAl?$AA?$AA@ 1002373c     libucrt:lcidtoname_downlevel.obj
 0002:00005754       ??_C@_1BG@CIOGKHPB@?$AAs?$AAr?$AA?9?$AAs?$AAp?$AA?9?$AAl?$AAa?$AAt?$AAn?$AA?$AA@ 10023754     libucrt:lcidtoname_downlevel.obj
 0002:0000576c       ??_C@_1M@NGFJLMAC@?$AAs?$AAv?$AA?9?$AAf?$AAi?$AA?$AA@ 1002376c     libucrt:lcidtoname_downlevel.obj
 0002:00005778       ??_C@_1M@MPJEJAJC@?$AAs?$AAv?$AA?9?$AAs?$AAe?$AA?$AA@ 10023778     libucrt:lcidtoname_downlevel.obj
 0002:00005784       ??_C@_1M@MPNDHLFK@?$AAs?$AAw?$AA?9?$AAk?$AAe?$AA?$AA@ 10023784     libucrt:lcidtoname_downlevel.obj
 0002:00005790       ??_C@_1O@KOHBJJI@?$AAs?$AAy?$AAr?$AA?9?$AAs?$AAy?$AA?$AA@ 10023790     libucrt:lcidtoname_downlevel.obj
 0002:000057a0       ??_C@_1M@LDCEFHA@?$AAt?$AAa?$AA?9?$AAi?$AAn?$AA?$AA@ 100237a0     libucrt:lcidtoname_downlevel.obj
 0002:000057ac       ??_C@_1M@CNJOFAK@?$AAt?$AAe?$AA?9?$AAi?$AAn?$AA?$AA@ 100237ac     libucrt:lcidtoname_downlevel.obj
 0002:000057b8       ??_C@_1M@GNAECACD@?$AAt?$AAh?$AA?9?$AAt?$AAh?$AA?$AA@ 100237b8     libucrt:lcidtoname_downlevel.obj
 0002:000057c4       ??_C@_1M@CHBIHOJO@?$AAt?$AAn?$AA?9?$AAz?$AAa?$AA?$AA@ 100237c4     libucrt:lcidtoname_downlevel.obj
 0002:000057d0       ??_C@_1M@GCCMIGPJ@?$AAt?$AAr?$AA?9?$AAt?$AAr?$AA?$AA@ 100237d0     libucrt:lcidtoname_downlevel.obj
 0002:000057dc       ??_C@_1M@CELMCNBK@?$AAt?$AAt?$AA?9?$AAr?$AAu?$AA?$AA@ 100237dc     libucrt:lcidtoname_downlevel.obj
 0002:000057e8       ??_C@_1M@KLMCELGA@?$AAu?$AAk?$AA?9?$AAu?$AAa?$AA?$AA@ 100237e8     libucrt:lcidtoname_downlevel.obj
 0002:000057f4       ??_C@_1M@EPAJJAJF@?$AAu?$AAr?$AA?9?$AAp?$AAk?$AA?$AA@ 100237f4     libucrt:lcidtoname_downlevel.obj
 0002:00005800       ??_C@_1BG@GEGPMCDJ@?$AAu?$AAz?$AA?9?$AAu?$AAz?$AA?9?$AAc?$AAy?$AAr?$AAl?$AA?$AA@ 10023800     libucrt:lcidtoname_downlevel.obj
 0002:00005818       ??_C@_1BG@EGGKJILM@?$AAu?$AAz?$AA?9?$AAu?$AAz?$AA?9?$AAl?$AAa?$AAt?$AAn?$AA?$AA@ 10023818     libucrt:lcidtoname_downlevel.obj
 0002:00005830       ??_C@_1M@GFOCLFF@?$AAv?$AAi?$AA?9?$AAv?$AAn?$AA?$AA@ 10023830     libucrt:lcidtoname_downlevel.obj
 0002:0000583c       ??_C@_1M@CPAMEDFI@?$AAx?$AAh?$AA?9?$AAz?$AAa?$AA?$AA@ 1002383c     libucrt:lcidtoname_downlevel.obj
 0002:00005848       ??_C@_1O@EBKIFIGN@?$AAz?$AAh?$AA?9?$AAc?$AAh?$AAs?$AA?$AA@ 10023848     libucrt:lcidtoname_downlevel.obj
 0002:00005858       ??_C@_1O@NMHPGANE@?$AAz?$AAh?$AA?9?$AAc?$AAh?$AAt?$AA?$AA@ 10023858     libucrt:lcidtoname_downlevel.obj
 0002:00005868       ??_C@_1M@LPINJOMC@?$AAz?$AAh?$AA?9?$AAc?$AAn?$AA?$AA@ 10023868     libucrt:lcidtoname_downlevel.obj
 0002:00005874       ??_C@_1M@OCJEJODD@?$AAz?$AAh?$AA?9?$AAh?$AAk?$AA?$AA@ 10023874     libucrt:lcidtoname_downlevel.obj
 0002:00005880       ??_C@_1M@DNDLJINH@?$AAz?$AAh?$AA?9?$AAm?$AAo?$AA?$AA@ 10023880     libucrt:lcidtoname_downlevel.obj
 0002:0000588c       ??_C@_1M@MBFDNDND@?$AAz?$AAh?$AA?9?$AAs?$AAg?$AA?$AA@ 1002388c     libucrt:lcidtoname_downlevel.obj
 0002:00005898       ??_C@_1M@IMEPLEPE@?$AAz?$AAh?$AA?9?$AAt?$AAw?$AA?$AA@ 10023898     libucrt:lcidtoname_downlevel.obj
 0002:000058a4       ??_C@_1M@BBGHNHJP@?$AAz?$AAu?$AA?9?$AAz?$AAa?$AA?$AA@ 100238a4     libucrt:lcidtoname_downlevel.obj
 0002:000058b0       ?large_power_data@?1??multiply_by_power_of_ten@__crt_strtox@@YA_NAAUbig_integer@2@I@Z@4QBIB 100238b0     libucrt:cfout.obj
 0002:000061b8       ?large_power_indices@?1??multiply_by_power_of_ten@__crt_strtox@@YA_NAAUbig_integer@2@I@Z@4QBUunpack_index@?1??12@YA_N0I@Z@B 100241b8     libucrt:cfout.obj
 0002:00006250       ?small_powers_of_ten@?1??multiply_by_power_of_ten@__crt_strtox@@YA_NAAUbig_integer@2@I@Z@4QBIB 10024250     libucrt:cfout.obj
 0002:00006274       ??_C@_01GBGANLPD@0?$AA@    10024274     libucrt:cfout.obj
 0002:00006278       ??_C@_05DNEBIAHO@1?$CDINF?$AA@ 10024278     libucrt:cfout.obj
 0002:00006280       ??_C@_06IMKFLFPG@1?$CDQNAN?$AA@ 10024280     libucrt:cfout.obj
 0002:00006288       ??_C@_06PGGFOGJG@1?$CDSNAN?$AA@ 10024288     libucrt:cfout.obj
 0002:00006290       ??_C@_05PHHOCPM@1?$CDIND?$AA@ 10024290     libucrt:cfout.obj
 0002:00006400       __infinity                 10024400     libucrt:87tran.obj
 0002:0000640a       __minfinity                1002440a     libucrt:87tran.obj
 0002:00006414       __logemax                  10024414     libucrt:87tran.obj
 0002:0000643a       __OP_EXPjmptab             1002443a     libucrt:87tran.obj
 0002:00006460       __indefinite               10024460     libucrt:87disp.obj
 0002:0000646a       __piby2                    1002446a     libucrt:87disp.obj
 0002:00006474       __piby4                    10024474     libucrt:87disp.obj
 0002:000064a8       __DEFAULT_CW_in_mem        100244a8     libucrt:common.obj
 0002:000064aa       __pi_by_2_to_61            100244aa     libucrt:common.obj
 0002:000064e4       ??_C@_03MGHMBJCF@log?$AA@  100244e4     libucrt:libm_error.obj
 0002:000064e8       ??_C@_05HGHHAHAP@log10?$AA@ 100244e8     libucrt:libm_error.obj
 0002:000064f0       ??_C@_03KHJOGHMM@exp?$AA@  100244f0     libucrt:libm_error.obj
 0002:000064f4       ??_C@_03JGHBODFD@pow?$AA@  100244f4     libucrt:libm_error.obj
 0002:000064f8       ??_C@_04FIHNOPOL@asin?$AA@ 100244f8     libucrt:libm_error.obj
 0002:00006500       ??_C@_04PDIFKINK@acos?$AA@ 10024500     libucrt:libm_error.obj
 0002:00006508       ??_C@_04EIAKFFMI@sqrt?$AA@ 10024508     libucrt:libm_error.obj
 0002:00006510       __real@3ff0000000000000    10024510     libucrt:libm_error.obj
 0002:00006530       ___acrt_log10_table_t      10024530     libucrt:log10_tables.obj
 0002:00006940       ___acrt_log10_table_cb     10024940     libucrt:log10_tables.obj
 0002:00006d50       __real@3fe0000000000000    10024d50     libucrt:powhlp.obj
 0002:00006e40       ??_C@_04COOMCNPB@sinh?$AA@ 10024e40     libucrt:fpexcept.obj
 0002:00006e48       ??_C@_04HPJJNFIM@cosh?$AA@ 10024e48     libucrt:fpexcept.obj
 0002:00006e50       ??_C@_04FJHINJAO@tanh?$AA@ 10024e50     libucrt:fpexcept.obj
 0002:00006e58       ??_C@_04MLLJIGOK@atan?$AA@ 10024e58     libucrt:fpexcept.obj
 0002:00006e60       ??_C@_05KNGEOGJB@atan2?$AA@ 10024e60     libucrt:fpexcept.obj
 0002:00006e68       ??_C@_03BLEJJJBH@sin?$AA@  10024e68     libucrt:fpexcept.obj
 0002:00006e6c       ??_C@_03LALBNOCG@cos?$AA@  10024e6c     libucrt:fpexcept.obj
 0002:00006e70       ??_C@_03IIINPABG@tan?$AA@  10024e70     libucrt:fpexcept.obj
 0002:00006e74       ??_C@_04GFPJNGEK@ceil?$AA@ 10024e74     libucrt:fpexcept.obj
 0002:00006e7c       ??_C@_05PBJFFIGL@floor?$AA@ 10024e7c     libucrt:fpexcept.obj
 0002:00006e84       ??_C@_04ODHECPBC@fabs?$AA@ 10024e84     libucrt:fpexcept.obj
 0002:00006e8c       ??_C@_04EHEDPDJG@modf?$AA@ 10024e8c     libucrt:fpexcept.obj
 0002:00006e94       ??_C@_05CEJMAHNP@ldexp?$AA@ 10024e94     libucrt:fpexcept.obj
 0002:00006e9c       ??_C@_05KBKMEMPO@_cabs?$AA@ 10024e9c     libucrt:fpexcept.obj
 0002:00006ea4       ??_C@_06MEIMCGCF@_hypot?$AA@ 10024ea4     libucrt:fpexcept.obj
 0002:00006eac       ??_C@_04KEPJIHGP@fmod?$AA@ 10024eac     libucrt:fpexcept.obj
 0002:00006eb4       ??_C@_05GKKHEGJL@frexp?$AA@ 10024eb4     libucrt:fpexcept.obj
 0002:00006ebc       ??_C@_03MJLDFKDL@_y0?$AA@  10024ebc     libucrt:fpexcept.obj
 0002:00006ec0       ??_C@_03NAKIGLHK@_y1?$AA@  10024ec0     libucrt:fpexcept.obj
 0002:00006ec4       ??_C@_03ONILCKOB@_yn?$AA@  10024ec4     libucrt:fpexcept.obj
 0002:00006ec8       ??_C@_05JGDBENOH@_logb?$AA@ 10024ec8     libucrt:fpexcept.obj
 0002:00006ed0       ??_C@_0L@KDOEJCKC@_nextafter?$AA@ 10024ed0     libucrt:fpexcept.obj
 0002:00006ee0       __d_inf                    10024ee0     libucrt:util.obj
 0002:00006ee8       __d_max                    10024ee8     libucrt:util.obj
 0002:00006ef0       __d_mzero                  10024ef0     libucrt:util.obj
 0002:00006ef8       ??_C@_1BA@BALFACEM@?$AAC?$AAO?$AAN?$AAO?$AAU?$AAT?$AA$?$AA?$AA@ 10024ef8     libucrt:initcon.obj
 0002:00006f68       __load_config_used         10024f68     LIBCMT:loadcfg.obj
 0002:00007008       __tls_used                 10025008     LIBCMT:tlssup.obj
 0002:00007020       ??_R4exception@std@@6B@    10025020     LIBCMT:throw_bad_alloc.obj
 0002:00007034       ??_R3exception@std@@8      10025034     LIBCMT:throw_bad_alloc.obj
 0002:00007044       ??_R2exception@std@@8      10025044     LIBCMT:throw_bad_alloc.obj
 0002:0000704c       ??_R1A@?0A@EA@exception@std@@8 1002504c     LIBCMT:throw_bad_alloc.obj
 0002:00007068       ??_R4bad_alloc@std@@6B@    10025068     LIBCMT:throw_bad_alloc.obj
 0002:0000707c       ??_R3bad_alloc@std@@8      1002507c     LIBCMT:throw_bad_alloc.obj
 0002:0000708c       ??_R2bad_alloc@std@@8      1002508c     LIBCMT:throw_bad_alloc.obj
 0002:00007098       ??_R1A@?0A@EA@bad_alloc@std@@8 10025098     LIBCMT:throw_bad_alloc.obj
 0002:000070b4       ??_R4bad_array_new_length@std@@6B@ 100250b4     LIBCMT:throw_bad_alloc.obj
 0002:000070c8       ??_R3bad_array_new_length@std@@8 100250c8     LIBCMT:throw_bad_alloc.obj
 0002:000070d8       ??_R2bad_array_new_length@std@@8 100250d8     LIBCMT:throw_bad_alloc.obj
 0002:000070e8       ??_R1A@?0A@EA@bad_array_new_length@std@@8 100250e8     LIBCMT:throw_bad_alloc.obj
 0002:00007104       ??_R4type_info@@6B@        10025104     LIBCMT:std_type_info_static.obj
 0002:00007118       ??_R3type_info@@8          10025118     LIBCMT:std_type_info_static.obj
 0002:00007128       ??_R2type_info@@8          10025128     LIBCMT:std_type_info_static.obj
 0002:00007130       ??_R1A@?0A@EA@type_info@@8 10025130     LIBCMT:std_type_info_static.obj
 0002:0000714c       ??_R4bad_exception@std@@6B@ 1002514c     libvcruntime:frame.obj
 0002:00007160       ??_R3bad_exception@std@@8  10025160     libvcruntime:frame.obj
 0002:00007170       ??_R2bad_exception@std@@8  10025170     libvcruntime:frame.obj
 0002:0000717c       ??_R1A@?0A@EA@bad_exception@std@@8 1002517c     libvcruntime:frame.obj
 0002:000071a0       ___safe_se_handler_table   100251a0     <linker-defined>
 0002:000075a0       ___rtc_iaa                 100255a0     LIBCMT:_initsect_.obj
 0002:000075a4       ___rtc_izz                 100255a4     LIBCMT:_initsect_.obj
 0002:000075a8       ___rtc_taa                 100255a8     LIBCMT:_initsect_.obj
 0002:000075ac       ___rtc_tzz                 100255ac     LIBCMT:_initsect_.obj
 0002:000075b0       __tls_start                100255b0     LIBCMT:tlssup.obj
 0002:000075b4       __Init_thread_epoch        100255b4     LIBCMT:thread_safe_statics.obj
 0002:000075b8       __tls_end                  100255b8     LIBCMT:tlssup.obj
 0002:000076d4       __TI2?AVbad_alloc@std@@    100256d4     LIBCMT:throw_bad_alloc.obj
 0002:000076e4       __CTA2?AVbad_alloc@std@@   100256e4     LIBCMT:throw_bad_alloc.obj
 0002:000076f0       __CT??_R0?AVbad_alloc@std@@@8??0bad_alloc@std@@QAE@ABV01@@Z12 100256f0     LIBCMT:throw_bad_alloc.obj
 0002:0000770c       __CT??_R0?AVexception@std@@@8??0exception@std@@QAE@ABV01@@Z12 1002570c     LIBCMT:throw_bad_alloc.obj
 0002:00007728       __TI3?AVbad_array_new_length@std@@ 10025728     LIBCMT:throw_bad_alloc.obj
 0002:00007738       __CTA3?AVbad_array_new_length@std@@ 10025738     LIBCMT:throw_bad_alloc.obj
 0002:00007748       __CT??_R0?AVbad_array_new_length@std@@@8??0bad_array_new_length@std@@QAE@ABV01@@Z12 10025748     LIBCMT:throw_bad_alloc.obj
 0002:0000784c       __TI2?AVbad_exception@std@@ 1002584c     libvcruntime:frame.obj
 0002:0000785c       __CTA2?AVbad_exception@std@@ 1002585c     libvcruntime:frame.obj
 0002:00007868       __CT??_R0?AVbad_exception@std@@@8??0bad_exception@std@@QAE@ABV01@@Z12 10025868     libvcruntime:frame.obj
 0002:00007be4       ___pobjMapEntryFirst       10025be4     OposVariant.obj
 0002:00007be8       ___pobjMapEntryLast        10025be8     OposVariant.obj
 0002:00007ca0       __IMPORT_DESCRIPTOR_KERNEL32 10025ca0     kernel32:KERNEL32.dll
 0002:00007cb4       __IMPORT_DESCRIPTOR_USER32 10025cb4     user32:USER32.dll
 0002:00007cc8       __IMPORT_DESCRIPTOR_GDI32  10025cc8     gdi32:GDI32.dll
 0002:00007cdc       __IMPORT_DESCRIPTOR_ADVAPI32 10025cdc     advapi32:ADVAPI32.dll
 0002:00007cf0       __IMPORT_DESCRIPTOR_ole32  10025cf0     ole32:ole32.dll
 0002:00007d04       __IMPORT_DESCRIPTOR_OLEAUT32 10025d04     oleaut32:OLEAUT32.dll
 0002:00007d18       __NULL_IMPORT_DESCRIPTOR   10025d18     kernel32:KERNEL32.dll
 0003:00000000       ?_tih@?$IProvideClassInfo2Impl@$1?CLSID_OPOSItemDispenser@@3U_GUID@@B$1?DIID__IOPOSItemDispenserEvents@@3U2@B$1?LIBID_OposItemDispenser_CCO@@3U2@B$00$0A@VCComTypeInfoHolder@ATL@@@ATL@@1VCComTypeInfoHolder@2@A 10027000     ItemDispenser.obj
 0003:0000001c       ?vszContents@?6??Save@?$IPersistStorageImpl@VCOPOSItemDispenser@@@ATL@@UAGJPAUIStorage@@H@Z@4PB_WB 1002701c     ItemDispenser.obj
 0003:00000020       ?wc@?1??GetWndClassInfo@?$CWindowImpl@VCOPOSItemDispenser@@VCWindow@ATL@@V?$CWinTraits@$0FGAAAAAA@$0A@@3@@ATL@@SAAAU_ATL_WNDCLASSINFOW@3@XZ@4U43@A 10027020     ItemDispenser.obj
 0003:000000ac       ?s_Claim@?7??GetIDsOfNames@CComTypeInfoHolder@ATL@@QAEJABU_GUID@@PAPA_WIKPAJ@Z@4PA_WA 100270ac     ItemDispenser.obj
 0003:000000c4       ?s_Release@?7??GetIDsOfNames@CComTypeInfoHolder@ATL@@QAEJABU_GUID@@PAPA_WIKPAJ@Z@4PA_WA 100270c4     ItemDispenser.obj
 0003:000000e0       ?rcDefault@CWindow@ATL@@2UtagRECT@@A 100270e0     ItemDispenser.obj
 0003:000000f0       ?_tih@?$IDispatchImpl@UIOPOSItemDispenser@@$1?IID_IOPOSItemDispenser@@3U_GUID@@B$1?LIBID_OposItemDispenser_CCO@@3U3@B$00$0A@VCComTypeInfoHolder@ATL@@@ATL@@1VCComTypeInfoHolder@2@A 100270f0     ItemDispenser.obj
 0003:00000158       ?g_ControlVersion@@3JA     10027158     ItemDispenserImpl.obj
 0003:0000015c       ?g_WindowName@@3PA_WA      1002715c     ItemDispenserImpl.obj
 0003:00000188       ?g_ControlDescription@@3PADA 10027188     ItemDispenserImpl.obj
 0003:0000021c       ___scrt_native_dllmain_reason 1002721c     LIBCMT:utility.obj
 0003:00000220       __Init_global_epoch        10027220     LIBCMT:thread_safe_statics.obj
 0003:00000230       ___security_cookie_complement 10027230     LIBCMT:gs_cookie.obj
 0003:00000234       ___security_cookie         10027234     LIBCMT:gs_cookie.obj
 0003:00000238       ___isa_enabled             10027238     LIBCMT:_cpu_disp_.obj
 0003:00000250       __NLG_Destination          10027250     libvcruntime:_exsup_.obj
 0003:00000268       ___abort_behavior          10027268     libucrt:abort.obj
 0003:00000278       __iob                      10027278     libucrt:_file.obj
 0003:00000320       ___acrt_initial_locale_data 10027320     libucrt:nlsdata.obj
 0003:000003d8       ___acrt_initial_locale_pointers 100273d8     libucrt:nlsdata.obj
 0003:000003e0       ___acrt_wide_c_locale_string 100273e0     libucrt:nlsdata.obj
 0003:000006e8       ___acrt_initial_multibyte_data 100276e8     libucrt:mbctype.obj
 0003:00000908       __pwctype                  10027908     libucrt:ctype.obj
 0003:0000090c       ___globallocalestatus      1002790c     libucrt:glstatus.obj
 0003:00000910       ___acrt_lconv_static_decimal 10027910     libucrt:localeconv.obj
 0003:00000914       ___acrt_lconv_static_W_decimal 10027914     libucrt:localeconv.obj
 0003:00000918       ___acrt_lconv_c            10027918     libucrt:localeconv.obj
 0003:00000970       ___dcrt_lowio_console_output_handle 10027970     libucrt:initcon.obj
 0003:00000980       __fltused                  10027980     LIBCMT:fltused.obj
 0003:00000990       ??_R0?AVbad_alloc@std@@@8  10027990     LIBCMT:throw_bad_alloc.obj
 0003:000009ac       ??_R0?AVexception@std@@@8  100279ac     LIBCMT:throw_bad_alloc.obj
 0003:000009c8       ??_R0?AVbad_array_new_length@std@@@8 100279c8     LIBCMT:throw_bad_alloc.obj
 0003:000009f0       ??_R0?AVtype_info@@@8      100279f0     LIBCMT:std_type_info_static.obj
 0003:00000a08       ??_R0?AVbad_exception@std@@@8 10027a08     libvcruntime:frame.obj
 0003:00000a28       ?m_bInitFailed@CAtlBaseModule@ATL@@2_NA 10027a28     OposVariant.obj
 0003:00000a2c       ?_pPerfRegFunc@ATL@@3P6AJPAUHINSTANCE__@@@ZA 10027a2c     OposVariant.obj
 0003:00000a30       ?_pPerfUnRegFunc@ATL@@3P6AJXZA 10027a30     OposVariant.obj
 0003:00000a34       ?_AtlRegisterPerUser@ATL@@3_NA 10027a34     OposVariant.obj
 0003:00000a38       ?_pAtlModule@ATL@@3PAVCAtlModule@1@A 10027a38     OposVariant.obj
 0003:00000a3c       ?_pModule@ATL@@3PAVCComModule@1@A 10027a3c     OposVariant.obj
 0003:00000a40       ?_AtlComModule@ATL@@3VCAtlComModule@1@A 10027a40     OposVariant.obj
 0003:00000a68       ?_AtlWinModule@ATL@@3VCAtlWinModule@1@A 10027a68     OposVariant.obj
 0003:00000a94       ?_entries@?1??GetConnMap@COPOSItemDispenser@@SAPBU_ATL_CONNMAP_ENTRY@ATL@@PAH@Z@4QBU34@B 10027a94     ItemDispenser.obj
 0003:00000aa0       ?$TSS0@?1??GetConnMap@COPOSItemDispenser@@SAPBU_ATL_CONNMAP_ENTRY@ATL@@PAH@Z@4HA 10027aa0     ItemDispenser.obj
 0003:00000aa8       ?_OptionsStorage@?1??__local_stdio_printf_options@@9@4_KA 10027aa8     ItemDispenser.obj
 0003:00000ab0       ?m_libid@CAtlModule@ATL@@2U_GUID@@A 10027ab0     ItemDispenser.obj
 0003:00000ac0       ?_Module@@3VCComModule@ATL@@A 10027ac0     ItemDispenser.obj
 0003:00000af0       ?pConnMap@?$IConnectionPointContainerImpl@VCOPOSItemDispenser@@@ATL@@0PBU_ATL_CONNMAP_ENTRY@2@B 10027af0     ItemDispenser.obj
 0003:00000af4       ?s_nInstances@COPOSItemDispenser@@1HA 10027af4     ItemDispenserImpl.obj
 0003:00000af8       ___scrt_current_native_startup_state 10027af8     LIBCMT:utility.obj
 0003:00000afc       ___scrt_native_startup_lock 10027afc     LIBCMT:utility.obj
 0003:00000e64       __tls_index                10027e64     LIBCMT:tlssup.obj
 0003:00000e6c       ___isa_available           10027e6c     LIBCMT:_cpu_disp_.obj
 0003:00000e70       ___favor                   10027e70     LIBCMT:_cpu_disp_.obj
 0003:00000e74       ___scrt_debugger_hook_flag 10027e74     LIBCMT:utility_desktop.obj
 0003:00000e78       ?__type_info_root_node@@3U__type_info_node@@A 10027e78     LIBCMT:tncleanup.obj
 0003:00000e80       ?_OptionsStorage@?1??__local_stdio_scanf_options@@9@4_KA 10027e80     LIBCMT:default_local_stdio_options.obj
 0003:00000e88       ?_AtlBaseModule@ATL@@3VCAtlBaseModule@1@A 10027e88     atls:atlbase.obj
 0003:00000ec0       ?__AtlThunkPool@@3PAT_SLIST_HEADER@@A 10027ec0     atls:atlthunk.obj
 0003:00000ed8       ___@@_PchSym_@00@UyrmzirvhUrmgvinvwrzgvUexgllohUzgohOmzgrevkilqPBACIAJCBDBUlyqiUcIGUhgwzucOlyq@4B2008FD98C1DD4 10027ed8     atls:stdafx.obj
 0003:00000edc       ___pPurecall               10027edc     libvcruntime:purevirt_data.obj
 0003:00000f44       ?pArgList@UnDecorator@@0PAVReplicator@@A 10027f44     libvcruntime:undname.obj
 0003:00000f48       ?pZNameList@UnDecorator@@0PAVReplicator@@A 10027f48     libvcruntime:undname.obj
 0003:00000f4c       ?pTemplateArgList@UnDecorator@@0PAVReplicator@@A 10027f4c     libvcruntime:undname.obj
 0003:00000f50       ?gName@UnDecorator@@0PBDB  10027f50     libvcruntime:undname.obj
 0003:00000f54       ?name@UnDecorator@@0PBDB   10027f54     libvcruntime:undname.obj
 0003:00000f58       ?disableFlags@UnDecorator@@0KA 10027f58     libvcruntime:undname.obj
 0003:00000f5c       ?fExplicitTemplateParams@UnDecorator@@0_NA 10027f5c     libvcruntime:undname.obj
 0003:00000f5d       ?fGetTemplateArgumentList@UnDecorator@@0_NA 10027f5d     libvcruntime:undname.obj
 0003:00000f60       ?m_pGetParameter@UnDecorator@@0P6APADJ@ZA 10027f60     libvcruntime:undname.obj
 0003:00000f64       ?m_CHPENameOffset@UnDecorator@@0KA 10027f64     libvcruntime:undname.obj
 0003:00000f68       ?m_recursionLevel@UnDecorator@@0KA 10027f68     libvcruntime:undname.obj
 0003:00000f80       ?__WinRTOutOfMemoryExceptionCallback@@3P6GPAXXZA 10027f80     libvcruntime:ehhelpers.obj
 0003:00000f90       ?c_exit_complete@?1???R<lambda_6e4b09c48022b2350581041d5f6b0c4c>@@QBE@XZ@4_NA 10027f90     libucrt:exit.obj
 0003:000010a0       __environ_table            100280a0     libucrt:environment_initialization.obj
 0003:000010a4       __wenviron_table           100280a4     libucrt:environment_initialization.obj
 0003:000010a8       ___dcrt_initial_wide_environment 100280a8     libucrt:environment_initialization.obj
 0003:000010ac       ___dcrt_initial_narrow_environment 100280ac     libucrt:environment_initialization.obj
 0003:000010b0       ___acrt_atexit_table       100280b0     libucrt:onexit.obj
 0003:000010bc       ___acrt_at_quick_exit_table 100280bc     libucrt:onexit.obj
 0003:000011a8       __nstream                  100281a8     libucrt:_file.obj
 0003:000011ac       ___piob                    100281ac     libucrt:_file.obj
 0003:000011b4       ___acrt_stdout_buffer      100281b4     libucrt:_sftbuf.obj
 0003:000011b8       ___acrt_stderr_buffer      100281b8     libucrt:_sftbuf.obj
 0003:000011bc       ___acrt_locale_changed_data 100281bc     libucrt:wsetlocale.obj
 0003:000011c0       ___acrt_current_locale_data 100281c0     libucrt:nlsdata.obj
 0003:000011c8       ___pioinfo                 100281c8     libucrt:ioinit.obj
 0003:000013c8       __nhandle                  100283c8     libucrt:ioinit.obj
 0003:00001524       __mbctype                  10028524     libucrt:mbctype.obj
 0003:00001528       __mbcasemap                10028528     libucrt:mbctype.obj
 0003:0000152c       ___acrt_current_multibyte_data 1002852c     libucrt:mbctype.obj
 0003:00001538       ___argc                    10028538     libucrt:argv_data.obj
 0003:0000153c       ___argv                    1002853c     libucrt:argv_data.obj
 0003:00001540       ___wargv                   10028540     libucrt:argv_data.obj
 0003:00001544       __acmdln                   10028544     libucrt:argv_data.obj
 0003:00001548       __wcmdln                   10028548     libucrt:argv_data.obj
 0003:0000154c       __pgmptr                   1002854c     libucrt:argv_data.obj
 0003:00001550       ___acrt_heap               10028550     libucrt:heap_handle.obj
 0003:0000156c       ___acrt_lconv_static_null  1002856c     libucrt:localeconv.obj
 0003:00001570       ___acrt_lconv_static_W_null 10028570     libucrt:localeconv.obj
 0003:00001578       ___fastflag                10028578     libucrt:fp_flags.obj
 0003:00001580       ___dyn_tls_init_callback   10028580     <common>
 0003:00001584       ___scrt_ucrt_dll_is_in_use 10028584     <common>
 0003:00001588       __pmatherr                 10028588     <common>
 0003:0000158c       ___use_sse2_mathfcns       1002858c     <common>

 entry point at        0001:0000b8bd

 Static symbols

 0000:fffd1000       .debug$S                   10000000     kernel32:KERNEL32.dll
 0000:fffd1000       .debug$S                   10000000     kernel32:KERNEL32.dll
 0000:fffd1000       .debug$S                   10000000     kernel32:KERNEL32.dll
 0000:fffd1000       .debug$S                   10000000     kernel32:KERNEL32.dll
 0000:fffd1000       .debug$S                   10000000     kernel32:KERNEL32.dll
 0000:fffd1000       .debug$S                   10000000     kernel32:KERNEL32.dll
 0000:fffd1000       .debug$S                   10000000     kernel32:KERNEL32.dll
 0000:fffd1000       .debug$S                   10000000     kernel32:KERNEL32.dll
 0000:fffd1000       .debug$S                   10000000     kernel32:KERNEL32.dll
 0000:fffd1000       .debug$S                   10000000     kernel32:KERNEL32.dll
 0000:fffd1000       .debug$S                   10000000     kernel32:KERNEL32.dll
 0000:fffd1000       .debug$S                   10000000     kernel32:KERNEL32.dll
 0000:fffd1000       .debug$S                   10000000     kernel32:KERNEL32.dll
 0000:fffd1000       .debug$S                   10000000     kernel32:KERNEL32.dll
 0000:fffd1000       .debug$S                   10000000     kernel32:KERNEL32.dll
 0000:fffd1000       .debug$S                   10000000     OPOSItemDispenser.exp
 0000:fffd1000       .debug$S                   10000000     kernel32:KERNEL32.dll
 0000:fffd1000       .debug$S                   10000000     kernel32:KERNEL32.dll
 0000:fffd1000       .debug$S                   10000000     kernel32:KERNEL32.dll
 0000:fffd1000       .debug$S                   10000000     kernel32:KERNEL32.dll
 0000:fffd1000       .debug$S                   10000000     kernel32:KERNEL32.dll
 0000:fffd1000       .debug$S                   10000000     kernel32:KERNEL32.dll
 0000:fffd1000       .debug$S                   10000000     kernel32:KERNEL32.dll
 0000:fffd1000       .debug$S                   10000000     kernel32:KERNEL32.dll
 0000:fffd1000       .debug$S                   10000000     kernel32:KERNEL32.dll
 0000:fffd1000       .debug$S                   10000000     kernel32:KERNEL32.dll
 0000:fffd1000       .debug$S                   10000000     kernel32:KERNEL32.dll
 0000:fffd1000       .debug$S                   10000000     kernel32:KERNEL32.dll
 0000:fffd1000       .debug$S                   10000000     kernel32:KERNEL32.dll
 0000:fffd1000       .debug$S                   10000000     kernel32:KERNEL32.dll
 0000:fffd1000       .debug$S                   10000000     kernel32:KERNEL32.dll
 0000:fffd1000       .debug$S                   10000000     kernel32:KERNEL32.dll
 0000:fffd1000       .debug$S                   10000000     kernel32:KERNEL32.dll
 0000:fffd1000       .debug$S                   10000000     kernel32:KERNEL32.dll
 0000:fffd1000       .debug$S                   10000000     kernel32:KERNEL32.dll
 0000:fffd1000       .debug$S                   10000000     kernel32:KERNEL32.dll
 0000:fffd1000       .debug$S                   10000000     kernel32:KERNEL32.dll
 0000:fffd1000       .debug$S                   10000000     kernel32:KERNEL32.dll
 0000:fffd1000       .debug$S                   10000000     kernel32:KERNEL32.dll
 0000:fffd1000       .debug$S                   10000000     kernel32:KERNEL32.dll
 0000:fffd1000       .debug$S                   10000000     kernel32:KERNEL32.dll
 0000:fffd1000       .debug$S                   10000000     kernel32:KERNEL32.dll
 0000:fffd1000       .debug$S                   10000000     kernel32:KERNEL32.dll
 0000:fffd1000       .debug$S                   10000000     kernel32:KERNEL32.dll
 0000:fffd1000       .debug$S                   10000000     kernel32:KERNEL32.dll
 0000:fffd1000       .debug$S                   10000000     kernel32:KERNEL32.dll
 0000:fffd1000       .debug$S                   10000000     kernel32:KERNEL32.dll
 0000:fffd1000       .debug$S                   10000000     kernel32:KERNEL32.dll
 0000:fffd1000       .debug$S                   10000000     kernel32:KERNEL32.dll
 0000:fffd1000       .debug$S                   10000000     kernel32:KERNEL32.dll
 0000:fffd1000       .debug$S                   10000000     kernel32:KERNEL32.dll
 0000:fffd1000       .debug$S                   10000000     kernel32:KERNEL32.dll
 0000:fffd1000       .debug$S                   10000000     kernel32:KERNEL32.dll
 0000:fffd1000       .debug$S                   10000000     kernel32:KERNEL32.dll
 0000:fffd1000       .debug$S                   10000000     kernel32:KERNEL32.dll
 0000:fffd1000       .debug$S                   10000000     kernel32:KERNEL32.dll
 0000:fffd1000       .debug$S                   10000000     kernel32:KERNEL32.dll
 0000:fffd1000       .debug$S                   10000000     kernel32:KERNEL32.dll
 0000:fffd1000       .debug$S                   10000000     kernel32:KERNEL32.dll
 0000:fffd1000       .debug$S                   10000000     kernel32:KERNEL32.dll
 0000:fffd1000       .debug$S                   10000000     kernel32:KERNEL32.dll
 0000:fffd1000       .debug$S                   10000000     kernel32:KERNEL32.dll
 0000:fffd1000       .debug$S                   10000000     kernel32:KERNEL32.dll
 0000:fffd1000       .debug$S                   10000000     kernel32:KERNEL32.dll
 0000:fffd1000       .debug$S                   10000000     kernel32:KERNEL32.dll
 0000:fffd1000       .debug$S                   10000000     kernel32:KERNEL32.dll
 0000:fffd1000       .debug$S                   10000000     kernel32:KERNEL32.dll
 0000:fffd1000       .debug$S                   10000000     kernel32:KERNEL32.dll
 0000:fffd1000       .debug$S                   10000000     kernel32:KERNEL32.dll
 0000:fffd1000       .debug$S                   10000000     kernel32:KERNEL32.dll
 0000:fffd1000       .debug$S                   10000000     kernel32:KERNEL32.dll
 0000:fffd1000       .debug$S                   10000000     kernel32:KERNEL32.dll
 0000:fffd1000       .debug$S                   10000000     kernel32:KERNEL32.dll
 0000:fffd1000       .debug$S                   10000000     kernel32:KERNEL32.dll
 0000:fffd1000       .debug$S                   10000000     kernel32:KERNEL32.dll
 0000:fffd1000       .debug$S                   10000000     kernel32:KERNEL32.dll
 0000:fffd1000       .debug$S                   10000000     kernel32:KERNEL32.dll
 0000:fffd1000       .debug$S                   10000000     kernel32:KERNEL32.dll
 0000:fffd1000       .debug$S                   10000000     kernel32:KERNEL32.dll
 0000:fffd1000       .debug$S                   10000000     kernel32:KERNEL32.dll
 0000:fffd1000       .debug$S                   10000000     kernel32:KERNEL32.dll
 0000:fffd1000       .debug$S                   10000000     kernel32:KERNEL32.dll
 0000:fffd1000       .debug$S                   10000000     kernel32:KERNEL32.dll
 0000:fffd1000       .debug$S                   10000000     kernel32:KERNEL32.dll
 0000:fffd1000       .debug$S                   10000000     kernel32:KERNEL32.dll
 0000:fffd1000       .debug$S                   10000000     kernel32:KERNEL32.dll
 0000:fffd1000       .debug$S                   10000000     kernel32:KERNEL32.dll
 0000:fffd1000       .debug$S                   10000000     kernel32:KERNEL32.dll
 0000:fffd1000       .debug$S                   10000000     kernel32:KERNEL32.dll
 0000:fffd1000       .debug$S                   10000000     kernel32:KERNEL32.dll
 0000:fffd1000       .debug$S                   10000000     kernel32:KERNEL32.dll
 0000:fffd1000       .debug$S                   10000000     kernel32:KERNEL32.dll
 0000:fffd1000       .debug$S                   10000000     kernel32:KERNEL32.dll
 0000:fffd1000       .debug$S                   10000000     kernel32:KERNEL32.dll
 0000:fffd1000       .debug$S                   10000000     kernel32:KERNEL32.dll
 0000:fffd1000       .debug$S                   10000000     kernel32:KERNEL32.dll
 0000:fffd1000       .debug$S                   10000000     kernel32:KERNEL32.dll
 0000:fffd1000       .debug$S                   10000000     kernel32:KERNEL32.dll
 0000:fffd1000       .debug$S                   10000000     kernel32:KERNEL32.dll
 0000:fffd1000       .debug$S                   10000000     kernel32:KERNEL32.dll
 0000:fffd1000       .debug$S                   10000000     kernel32:KERNEL32.dll
 0000:fffd1000       .debug$S                   10000000     kernel32:KERNEL32.dll
 0000:fffd1000       .debug$S                   10000000     kernel32:KERNEL32.dll
 0000:fffd1000       .debug$S                   10000000     kernel32:KERNEL32.dll
 0000:fffd1000       .debug$S                   10000000     kernel32:KERNEL32.dll
 0000:fffd1000       .debug$S                   10000000     kernel32:KERNEL32.dll
 0000:fffd1000       .debug$S                   10000000     kernel32:KERNEL32.dll
 0000:fffd1000       .debug$S                   10000000     kernel32:KERNEL32.dll
 0000:fffd1000       .debug$S                   10000000     user32:USER32.dll
 0000:fffd1000       .debug$S                   10000000     user32:USER32.dll
 0000:fffd1000       .debug$S                   10000000     user32:USER32.dll
 0000:fffd1000       .debug$S                   10000000     user32:USER32.dll
 0000:fffd1000       .debug$S                   10000000     user32:USER32.dll
 0000:fffd1000       .debug$S                   10000000     user32:USER32.dll
 0000:fffd1000       .debug$S                   10000000     user32:USER32.dll
 0000:fffd1000       .debug$S                   10000000     user32:USER32.dll
 0000:fffd1000       .debug$S                   10000000     user32:USER32.dll
 0000:fffd1000       .debug$S                   10000000     user32:USER32.dll
 0000:fffd1000       .debug$S                   10000000     user32:USER32.dll
 0000:fffd1000       .debug$S                   10000000     user32:USER32.dll
 0000:fffd1000       .debug$S                   10000000     user32:USER32.dll
 0000:fffd1000       .debug$S                   10000000     user32:USER32.dll
 0000:fffd1000       .debug$S                   10000000     user32:USER32.dll
 0000:fffd1000       .debug$S                   10000000     user32:USER32.dll
 0000:fffd1000       .debug$S                   10000000     user32:USER32.dll
 0000:fffd1000       .debug$S                   10000000     user32:USER32.dll
 0000:fffd1000       .debug$S                   10000000     user32:USER32.dll
 0000:fffd1000       .debug$S                   10000000     user32:USER32.dll
 0000:fffd1000       .debug$S                   10000000     user32:USER32.dll
 0000:fffd1000       .debug$S                   10000000     user32:USER32.dll
 0000:fffd1000       .debug$S                   10000000     user32:USER32.dll
 0000:fffd1000       .debug$S                   10000000     user32:USER32.dll
 0000:fffd1000       .debug$S                   10000000     user32:USER32.dll
 0000:fffd1000       .debug$S                   10000000     user32:USER32.dll
 0000:fffd1000       .debug$S                   10000000     user32:USER32.dll
 0000:fffd1000       .debug$S                   10000000     user32:USER32.dll
 0000:fffd1000       .debug$S                   10000000     user32:USER32.dll
 0000:fffd1000       .debug$S                   10000000     user32:USER32.dll
 0000:fffd1000       .debug$S                   10000000     user32:USER32.dll
 0000:fffd1000       .debug$S                   10000000     user32:USER32.dll
 0000:fffd1000       .debug$S                   10000000     user32:USER32.dll
 0000:fffd1000       .debug$S                   10000000     user32:USER32.dll
 0000:fffd1000       .debug$S                   10000000     user32:USER32.dll
 0000:fffd1000       .debug$S                   10000000     gdi32:GDI32.dll
 0000:fffd1000       .debug$S                   10000000     gdi32:GDI32.dll
 0000:fffd1000       .debug$S                   10000000     gdi32:GDI32.dll
 0000:fffd1000       .debug$S                   10000000     gdi32:GDI32.dll
 0000:fffd1000       .debug$S                   10000000     gdi32:GDI32.dll
 0000:fffd1000       .debug$S                   10000000     gdi32:GDI32.dll
 0000:fffd1000       .debug$S                   10000000     gdi32:GDI32.dll
 0000:fffd1000       .debug$S                   10000000     gdi32:GDI32.dll
 0000:fffd1000       .debug$S                   10000000     gdi32:GDI32.dll
 0000:fffd1000       .debug$S                   10000000     gdi32:GDI32.dll
 0000:fffd1000       .debug$S                   10000000     gdi32:GDI32.dll
 0000:fffd1000       .debug$S                   10000000     gdi32:GDI32.dll
 0000:fffd1000       .debug$S                   10000000     gdi32:GDI32.dll
 0000:fffd1000       .debug$S                   10000000     gdi32:GDI32.dll
 0000:fffd1000       .debug$S                   10000000     gdi32:GDI32.dll
 0000:fffd1000       .debug$S                   10000000     gdi32:GDI32.dll
 0000:fffd1000       .debug$S                   10000000     gdi32:GDI32.dll
 0000:fffd1000       .debug$S                   10000000     gdi32:GDI32.dll
 0000:fffd1000       .debug$S                   10000000     gdi32:GDI32.dll
 0000:fffd1000       .debug$S                   10000000     advapi32:ADVAPI32.dll
 0000:fffd1000       .debug$S                   10000000     advapi32:ADVAPI32.dll
 0000:fffd1000       .debug$S                   10000000     advapi32:ADVAPI32.dll
 0000:fffd1000       .debug$S                   10000000     advapi32:ADVAPI32.dll
 0000:fffd1000       .debug$S                   10000000     advapi32:ADVAPI32.dll
 0000:fffd1000       .debug$S                   10000000     advapi32:ADVAPI32.dll
 0000:fffd1000       .debug$S                   10000000     advapi32:ADVAPI32.dll
 0000:fffd1000       .debug$S                   10000000     advapi32:ADVAPI32.dll
 0000:fffd1000       .debug$S                   10000000     advapi32:ADVAPI32.dll
 0000:fffd1000       .debug$S                   10000000     ole32:ole32.dll
 0000:fffd1000       .debug$S                   10000000     ole32:ole32.dll
 0000:fffd1000       .debug$S                   10000000     ole32:ole32.dll
 0000:fffd1000       .debug$S                   10000000     ole32:ole32.dll
 0000:fffd1000       .debug$S                   10000000     ole32:ole32.dll
 0000:fffd1000       .debug$S                   10000000     ole32:ole32.dll
 0000:fffd1000       .debug$S                   10000000     ole32:ole32.dll
 0000:fffd1000       .debug$S                   10000000     ole32:ole32.dll
 0000:fffd1000       .debug$S                   10000000     ole32:ole32.dll
 0000:fffd1000       .debug$S                   10000000     ole32:ole32.dll
 0000:fffd1000       .debug$S                   10000000     ole32:ole32.dll
 0000:fffd1000       .debug$S                   10000000     ole32:ole32.dll
 0000:fffd1000       .debug$S                   10000000     ole32:ole32.dll
 0000:fffd1000       .debug$S                   10000000     ole32:ole32.dll
 0000:fffd1000       .debug$S                   10000000     oleaut32:OLEAUT32.dll
 0000:fffd1000       .debug$S                   10000000     oleaut32:OLEAUT32.dll
 0000:fffd1000       .debug$S                   10000000     oleaut32:OLEAUT32.dll
 0000:fffd1000       .debug$S                   10000000     oleaut32:OLEAUT32.dll
 0000:fffd1000       .debug$S                   10000000     oleaut32:OLEAUT32.dll
 0000:fffd1000       .debug$S                   10000000     oleaut32:OLEAUT32.dll
 0000:fffd1000       .debug$S                   10000000     oleaut32:OLEAUT32.dll
 0000:fffd1000       .debug$S                   10000000     oleaut32:OLEAUT32.dll
 0000:fffd1000       .debug$S                   10000000     oleaut32:OLEAUT32.dll
 0000:fffd1000       .debug$S                   10000000     oleaut32:OLEAUT32.dll
 0000:fffd1000       .debug$S                   10000000     oleaut32:OLEAUT32.dll
 0000:fffd1000       .debug$S                   10000000     oleaut32:OLEAUT32.dll
 0000:fffd1000       .debug$S                   10000000     oleaut32:OLEAUT32.dll
 0000:fffd1000       .debug$S                   10000000     oleaut32:OLEAUT32.dll
 0000:fffd1000       .debug$S                   10000000     oleaut32:OLEAUT32.dll
 0000:fffd1000       .debug$S                   10000000     oleaut32:OLEAUT32.dll
 0001:00000000       ??__E_AtlComModule@ATL@@YAXXZ 10001000 f   OposVariant.obj
 0001:00000016       ??__E_AtlWinModule@ATL@@YAXXZ 10001016 f   OposVariant.obj
 0001:0000002c       ??__E?pConnMap@?$IConnectionPointContainerImpl@VCOPOSItemDispenser@@@ATL@@0PBU_ATL_CONNMAP_ENTRY@2@B@@YAXXZ 1000102c f   ItemDispenser.obj
 0001:0000003a       ??__E_Module@@YAXXZ        1000103a f   ItemDispenser.obj
 0001:00000064       ??__E_AtlBaseModule@ATL@@YAXXZ 10001064 f   atls:atlbase.obj
 0001:000023e2       $LN37                      100033e2     ItemDispenser.obj
 0001:00005ab6       $LN53                      10006ab6     ItemDispenser.obj
 0001:00005ace       $LN49                      10006ace     ItemDispenser.obj
 0001:00007906       $LN45                      10008906     ItemDispenser.obj
 0001:0000791e       $LN36                      1000891e     ItemDispenser.obj
 0001:00008ed1       $LN87                      10009ed1     ItemDispenser.obj
 0001:00008ee9       $LN81                      10009ee9     ItemDispenser.obj
 0001:000091c7       _memcpy_s                  1000a1c7 f   ItemDispenser.obj
 0001:0000acba       ?find_pe_section@@YAPAU_IMAGE_SECTION_HEADER@@QAEI@Z 1000bcba f   LIBCMT:utility.obj
 0001:0000b005       ?__scrt_initialize_thread_safe_statics@@YAHXZ 1000c005 f   LIBCMT:thread_safe_statics.obj
 0001:0000b02c       ?__scrt_initialize_thread_safe_statics_platform_specific@@YAXXZ 1000c02c f   LIBCMT:thread_safe_statics.obj
 0001:0000b11b       ?__scrt_uninitialize_thread_safe_statics@@YAXXZ 1000c11b f   LIBCMT:thread_safe_statics.obj
 0001:0000b4a8       __catch$??2@YAPAXIABUnothrow_t@std@@@Z$0 1000c4a8 f   LIBCMT:new_scalar_nothrow.obj
 0001:0000b4e0       $$000000                   1000c4e0     LIBCMT:_sehprolg4gs_.obj
 0001:0000b540       $$000000                   1000c540     LIBCMT:alloca16.obj
 0001:0000b570       $$000000                   1000c570     LIBCMT:chkstk.obj
 0001:0000b59d       ?dllmain_crt_dispatch@@YGHQAUHINSTANCE__@@KQAX@Z 1000c59d f   LIBCMT:dll_dllmain.obj
 0001:0000b5f0       ?dllmain_crt_process_attach@@YAHQAUHINSTANCE__@@QAX@Z 1000c5f0 f   LIBCMT:dll_dllmain.obj
 0001:0000b6fa       ?dllmain_crt_process_detach@@YAH_N@Z 1000c6fa f   LIBCMT:dll_dllmain.obj
 0001:0000b78c       ?dllmain_dispatch@@YAHQAUHINSTANCE__@@KQAX@Z 1000c78c f   LIBCMT:dll_dllmain.obj
 0001:0000b892       ?dllmain_raw@@YGHQAUHINSTANCE__@@KQAX@Z 1000c892 f   LIBCMT:dll_dllmain.obj
 0001:0000bbe0       $$000000                   1000cbe0     LIBCMT:_sehprolg4_.obj
 0001:0000bc3c       ___get_entropy             1000cc3c f   LIBCMT:gs_support.obj
 0001:0000bf33       ??$GetProcAddressAll@P6GXPAUAtlThunkData_t@@@Z@@YAP6GXPAUAtlThunkData_t@@@ZPAP6GX0@Z@Z 1000cf33 f   atls:atlthunk.obj
 0001:0000bf33       ??$GetProcAddressAll@P6GP6GJPAUHWND__@@IIJ@ZPAUAtlThunkData_t@@@Z@@YAP6GP6GJPAUHWND__@@IIJ@ZPAUAtlThunkData_t@@@ZPAP6GP6GJ0IIJ@Z1@Z@Z 1000cf33 f   atls:atlthunk.obj
 0001:0000bf33       ??$GetProcAddressAll@P6GXPAUAtlThunkData_t@@PAXI@Z@@YAP6GXPAUAtlThunkData_t@@PAXI@ZPAP6GX01I@Z@Z 1000cf33 f   atls:atlthunk.obj
 0001:0000bf33       ??$GetProcAddressAll@P6GPAUAtlThunkData_t@@XZ@@YAP6GPAUAtlThunkData_t@@XZPAP6GPAU0@XZ@Z 1000cf33 f   atls:atlthunk.obj
 0001:0000bfe3       ?GetProcAddressSingle@@YA_NPAUHINSTANCE__@@PBDPAPAX@Z 1000cfe3 f   atls:atlthunk.obj
 0001:0000c135       ?__InitializeThunkPool@@YAHXZ 1000d135 f   atls:atlthunk.obj
 0001:0000c5a0       _ValidateLocalCookies      1000d5a0 f   libvcruntime:_chandler4_.obj
 0001:0000d65b       $LN1285                    1000e65b     libvcruntime:_memcmp_.obj
 0001:0000d6e0       $$000000                   1000e6e0     libvcruntime:memcpy.obj
 0001:0000d944       TrailingUpVec              1000e944     libvcruntime:memcpy.obj
 0001:0000d9f0       TrailingDownVec            1000e9f0     libvcruntime:memcpy.obj
 0001:0000dc60       $$000000                   1000ec60     libvcruntime:memset.obj
 0001:0000e320       $$000000                   1000f320     libvcruntime:memmove.obj
 0001:0000e584       TrailingUpVec              1000f584     libvcruntime:memmove.obj
 0001:0000e630       TrailingDownVec            1000f630     libvcruntime:memmove.obj
 0001:0000e8a0       $$000000                   1000f8a0     libvcruntime:_exsup4_.obj
 0001:0000e930       __unwind_handler4          1000f930 f   libvcruntime:_exsup4_.obj
 0001:0000ec0f       ?try_get_first_available_module@@YAPAUHINSTANCE__@@QBW4module_id@?A0x03f7da57@@0@Z 1000fc0f f   libvcruntime:winapi_downlevel.obj
 0001:0000ecd3       ?try_get_function@@YAPAXW4function_id@?A0x03f7da57@@QBDQBW4module_id@2@2@Z 1000fcd3 f   libvcruntime:winapi_downlevel.obj
 0001:0000eed3       ??$BuildCatchObjectHelperInternal@$$CBU_s_HandlerType@@@@YAHPAUEHExceptionRecord@@PAXPBU_s_HandlerType@@PBU_s_CatchableType@@@Z 1000fed3 f   libvcruntime:frame.obj
 0001:0000f012       ??$BuildCatchObjectInternal@$$CBU_s_HandlerType@@@@YAXPAUEHExceptionRecord@@PAXPBU_s_HandlerType@@PBU_s_CatchableType@@@Z 10010012 f   libvcruntime:frame.obj
 0001:0000f0ab       ??$CatchIt@V__FrameHandler3@@@@YAXPAUEHExceptionRecord@@PAUEHRegistrationNode@@PAU_CONTEXT@@PAXPBU_s_FuncInfo@@PBU_s_HandlerType@@PBU_s_CatchableType@@PBU_s_TryBlockMapEntry@@H1E@Z 100100ab f   libvcruntime:frame.obj
 0001:0000f12b       ??$FindHandler@V__FrameHandler3@@@@YAXPAUEHExceptionRecord@@PAUEHRegistrationNode@@PAU_CONTEXT@@PAXPBU_s_FuncInfo@@EH1@Z 1001012b f   libvcruntime:frame.obj
 0001:0000f4b9       ??$FindHandlerForForeignException@V__FrameHandler3@@@@YAXPAUEHExceptionRecord@@PAUEHRegistrationNode@@PAU_CONTEXT@@PAXPBU_s_FuncInfo@@HH1@Z 100104b9 f   libvcruntime:frame.obj
 0001:0000f7ac       ?CallCatchBlock@@YAPAXPAUEHExceptionRecord@@PAUEHRegistrationNode@@PAU_CONTEXT@@PBU_s_FuncInfo@@PAXHK@Z 100107ac f   libvcruntime:frame.obj
 0001:0000f970       ?CallUnexpected@@YAXPBU_s_ESTypeList@@@Z 10010970 f   libvcruntime:frame.obj
 0001:0000f990       __catch$?CallUnexpected@@YAXPBU_s_ESTypeList@@@Z$0 10010990 f   libvcruntime:frame.obj
 0001:0000f9aa       ?ExFilterRethrow@@YAHPAU_EXCEPTION_POINTERS@@@Z 100109aa f   libvcruntime:frame.obj
 0001:0000faf4       ?IsInExceptionSpec@@YAEPAUEHExceptionRecord@@PBU_s_ESTypeList@@@Z 10010af4 f   libvcruntime:frame.obj
 0001:0000fbc0       $$000000                   10010bc0     libvcruntime:lowhelpr.obj
 0001:0000fc10       $$000000                   10010c10     libvcruntime:_exsup_.obj
 0001:0000fc31       __unwind_handler           10010c31 f   libvcruntime:_exsup_.obj
 0001:000103bc       ??$common_tcsncpy_s@_W@@YAHQA_WIQB_WI@Z 100113bc f   libucrt:wcsncpy_s.obj
 0001:00010494       ??$common_vsprintf@Vformat_validation_base@__crt_stdio_output@@_W@@YAH_KQA_WIQB_WQAU__crt_locale_pointers@@QAD@Z 10011494 f   libucrt:output.obj
 0001:0001061d       ??$common_vsprintf_s@_W@@YAH_KQA_WIQB_WQAU__crt_locale_pointers@@QAD@Z 1001161d f   libucrt:output.obj
 0001:00010cca       $LN52                      10011cca     libucrt:output.obj
 0001:000111bc       $LN19                      100121bc     libucrt:output.obj
 0001:00011aad       ??R<lambda_6e4b09c48022b2350581041d5f6b0c4c>@@QBE@XZ 10012aad f   libucrt:exit.obj
 0001:00011b89       ?atexit_exception_filter@@YAHK@Z 10012b89 f   libucrt:exit.obj
 0001:00011b9c       ?common_exit@@YAXHW4_crt_exit_cleanup_mode@@W4_crt_exit_return_mode@@@Z 10012b9c f   libucrt:exit.obj
 0001:00011bf2       ?exit_or_terminate_process@@YAXI@Z 10012bf2 f   libucrt:exit.obj
 0001:00011c34       ?is_managed_app@@YA_NXZ    10012c34 f   libucrt:exit.obj
 0001:00011c78       ?try_cor_exit_process@@YAXI@Z 10012c78 f   libucrt:exit.obj
 0001:00011d1c       ??$common_configure_argv@D@@YAHW4_crt_argv_mode@@@Z 10012d1c f   libucrt:argv_parsing.obj
 0001:00011e52       ??$parse_command_line@D@@YAXPADPAPAD0PAI2@Z 10012e52 f   libucrt:argv_parsing.obj
 0001:00012027       ??$common_initialize_environment_nolock@D@@YAHXZ 10013027 f   libucrt:environment_initialization.obj
 0001:00012080       ??$create_environment@D@@YAQAPADQAD@Z 10013080 f   libucrt:environment_initialization.obj
 0001:00012151       ??$free_environment@_W@@YAXQAPA_W@Z 10013151 f   libucrt:environment_initialization.obj
 0001:00012151       ??$free_environment@D@@YAXQAPAD@Z 10013151 f   libucrt:environment_initialization.obj
 0001:000121c0       ??$uninitialize_environment_internal@D@@YAXAAPAPAD@Z 100131c0 f   libucrt:environment_initialization.obj
 0001:000121db       ??$uninitialize_environment_internal@_W@@YAXAAPAPA_W@Z 100131db f   libucrt:environment_initialization.obj
 0001:00012374       ??R<lambda_22ebabd17bc4fa466a2aca6d8deb888d>@@QBEHXZ 10013374 f   libucrt:onexit.obj
 0001:000124b5       ??R<lambda_f03950bc5685219e0bcd2087efbe011e>@@QBEHXZ 100134b5 f   libucrt:onexit.obj
 0001:00012667       _initialize_global_variables 10013667 f   libucrt:initialization.obj
 0001:00012679       _initialize_c              10013679 f   libucrt:initialization.obj
 0001:00012693       _initialize_environment    10013693 f   libucrt:initialization.obj
 0001:00012693       _uninitialize_global_state_isolation 10013693 f   libucrt:initialization.obj
 0001:00012693       _initialize_global_state_isolation 10013693 f   libucrt:initialization.obj
 0001:00012693       _report_memory_leaks       10013693 f   libucrt:initialization.obj
 0001:00012693       _uninitialize_c            10013693 f   libucrt:initialization.obj
 0001:00012696       _uninitialize_environment  10013696 f   libucrt:initialization.obj
 0001:0001269e       _initialize_pointers       1001369e f   libucrt:initialization.obj
 0001:000126db       _uninitialize_vcruntime    100136db f   libucrt:initialization.obj
 0001:000126e4       _uninitialize_allocated_memory 100136e4 f   libucrt:initialization.obj
 0001:00012748       ??R<lambda_af42a3ee9806e9a7305d451646e05244>@@QBEXAAPAU__crt_multibyte_data@@@Z 10013748 f   libucrt:initialization.obj
 0001:000131c0       $$000000                   100141c0     libucrt:strncmp.obj
 0001:00013456       ?construct_ptd@@YAXQAU__acrt_ptd@@QAPAU__crt_locale_data@@@Z 10014456 f   libucrt:per_thread_data.obj
 0001:000134cf       ?destroy_fls@@YGXPAX@Z     100144cf f   libucrt:per_thread_data.obj
 0001:000134f0       ?destroy_ptd@@YAXQAU__acrt_ptd@@@Z 100144f0 f   libucrt:per_thread_data.obj
 0001:00013599       ?replace_current_thread_locale_nolock@@YAXQAU__acrt_ptd@@QAU__crt_locale_data@@@Z 10014599 f   libucrt:per_thread_data.obj
 0001:000139a9       ?try_get_LCMapStringEx@@YAP6GHPB_WK0HPA_WHPAU_nlsversioninfo@@PAXJ@ZXZ 100149a9 f   libucrt:winapi_thunks.obj
 0001:000139c3       ?try_get_LocaleNameToLCID@@YAP6GKPB_WK@ZXZ 100149c3 f   libucrt:winapi_thunks.obj
 0001:000139dd       ?try_get_first_available_module@@YAPAUHINSTANCE__@@QBW4module_id@?A0x391cf84c@@0@Z 100149dd f   libucrt:winapi_thunks.obj
 0001:00013aa5       ?try_get_function@@YAPAXW4function_id@?A0x391cf84c@@QBDQBW4module_id@2@2@Z 10014aa5 f   libucrt:winapi_thunks.obj
 0001:00013f0a       ??$common_tox_l@$1?internal_isupper_l@@YA_NHQAU__crt_locale_pointers@@@Z$1?internal_map_lower@@YAHH0@Z@@YAHHKQAU__crt_locale_pointers@@@Z 10014f0a f   libucrt:tolower_toupper.obj
 0001:00014054       ?internal_isupper_l@@YA_NHQAU__crt_locale_pointers@@@Z 10015054 f   libucrt:tolower_toupper.obj
 0001:000144ad       ?fp_format_a@@YAHQBNPADIQADIH_NIQAU__crt_locale_pointers@@@Z 100154ad f   libucrt:cvt.obj
 0001:000147c1       ?fp_format_e@@YAHQBNQADI1IH_NIQAU__crt_locale_pointers@@@Z 100157c1 f   libucrt:cvt.obj
 0001:0001485c       ?fp_format_e_internal@@YAHQADIH_NIQAU_strflt@@1QAU__crt_locale_pointers@@@Z 1001585c f   libucrt:cvt.obj
 0001:000149a7       ?fp_format_f@@YAHQBNQADI1IHQAU__crt_locale_pointers@@@Z 100159a7 f   libucrt:cvt.obj
 0001:00014a34       ?fp_format_f_internal@@YAHQADIHQAU_strflt@@_NQAU__crt_locale_pointers@@@Z 10015a34 f   libucrt:cvt.obj
 0001:00014b0b       ?fp_format_g@@YAHQBNQADI1IH_NIQAU__crt_locale_pointers@@@Z 10015b0b f   libucrt:cvt.obj
 0001:00014bd3       ?fp_format_nan_or_infinity@@YAHW4__acrt_fp_class@@_NPADI1@Z 10015bd3 f   libucrt:cvt.obj
 0001:00014ccb       ?shift_bytes@@YAXQADI0H@Z  10015ccb f   libucrt:cvt.obj
 0001:00015082       ?initialize_inherited_file_handles_nolock@@YAXXZ 10016082 f   libucrt:ioinit.obj
 0001:00015138       ?initialize_stdio_handles_nolock@@YAXXZ 10016138 f   libucrt:ioinit.obj
 0001:0001532e       ?<lambda_invoker_cdecl>@<lambda_86056e3c024bff449830248dc1621ed2>@@CAHPBX0@Z 1001632e f   libucrt:argv_wildcards.obj
 0001:00015346       ??$common_expand_argv_wildcards@D@@YAHQAPADQAPAPAD@Z 10016346 f   libucrt:argv_wildcards.obj
 0001:00015526       ??$copy_and_add_argument_to_buffer@D@@YAHQBD0IAAV?$argument_list@D@?A0x5f5c8891@@@Z 10016526 f   libucrt:argv_wildcards.obj
 0001:000155da       ??$expand_argument_wildcards@D@@YAHQAD0AAV?$argument_list@D@?A0x5f5c8891@@@Z 100165da f   libucrt:argv_wildcards.obj
 0001:0001575e       ?expand_if_necessary@?$argument_list@D@?A0x5f5c8891@@AAEHXZ 1001675e f   libucrt:argv_wildcards.obj
 0001:0001585b       ??R<lambda_ae742caa10f662c28703da3d2ea5e57e>@@QBEXXZ 1001685b f   libucrt:mbctype.obj
 0001:000158de       ?CPtoLocaleName@@YAPB_WH@Z 100168de f   libucrt:mbctype.obj
 0001:0001591c       ?getSystemCP@@YAHH@Z       1001691c f   libucrt:mbctype.obj
 0001:0001598f       ?setSBCS@@YAXPAU__crt_multibyte_data@@@Z 1001698f f   libucrt:mbctype.obj
 0001:000159f4       ?setSBUpLow@@YAXPAU__crt_multibyte_data@@@Z 100169f4 f   libucrt:mbctype.obj
 0001:00015b88       ?setmbcp_internal@@YAHH_NQAU__acrt_ptd@@QAPAU__crt_multibyte_data@@@Z 10016b88 f   libucrt:mbctype.obj
 0001:00015c95       ?update_thread_multibyte_data_internal@@YAPAU__crt_multibyte_data@@QAU__acrt_ptd@@QAU1@@Z 10016c95 f   libucrt:mbctype.obj
 0001:00015f7a       _memcpy_s                  10016f7a f   libucrt:mbctype.obj
 0001:00015f7a       _memcpy_s                  10016f7a f   libucrt:cfout.obj
 0001:00015ffb       ?x_ismbbtype_l@@YAHPAU__crt_locale_pointers@@IHH@Z 10016ffb f   libucrt:ismbbyte.obj
 0001:00016085       ?find_end_of_double_null_terminated_sequence@@YAPB_WQB_W@Z 10017085 f   libucrt:get_environment_from_os.obj
 0001:000162ac       ?get_global_action_nolock@@YAPAP6AXH@ZH@Z 100172ac f   libucrt:signal.obj
 0001:000162ee       ?siglookup@@YAPAU__crt_signal_action_t@@HQAU1@@Z 100172ee f   libucrt:signal.obj
 0001:00016add       ?GetTableIndexFromLocaleName@@YAHPB_W@Z 10017add f   libucrt:lcidtoname_downlevel.obj
 0001:00016bfe       ?__acrt_LCMapStringA_stat@@YAHPAU__crt_locale_pointers@@PB_WKPBDHPADHHH@Z 10017bfe f   libucrt:lcmapstringa.obj
 0001:000189f6       ?common_flush_all@@YAH_N@Z 100199f6 f   libucrt:fflush.obj
 0001:00018a35       ?common_flush_all_should_try_to_flush_stream@@YA_NV__crt_stdio_stream@@QAH@Z 10019a35 f   libucrt:fflush.obj
 0001:00018a67       ?is_stream_flushable_or_commitable@@YA_NJ@Z 10019a67 f   libucrt:fflush.obj
 0001:00018d38       ?free_crt_array_internal@@YAXQAPBXI@Z 10019d38 f   libucrt:inittime.obj
 0001:00019200       ?shortsort@@YAXPAD0IP6AHPBX1@Z@Z 1001a200 f   libucrt:qsort.obj
 0001:000192a0       ?swap@@YAXPAD0I@Z          1001a2a0 f   libucrt:qsort.obj
 0001:0001967a       ??$common_tcsncpy_s@D@@YAHQADIQBDI@Z 1001a67a f   libucrt:strncpy_s.obj
 0001:00019740       $$000000                   1001a740     libucrt:strpbrk.obj
 0001:00019824       ?initialize_multibyte@@YAHXZ 1001a824 f   libucrt:multibyte_initializer.obj
 0001:00019910       $$000000                   1001a910     libucrt:log10.obj
 0001:00019a60       $$000000                   1001aa60     libucrt:ceil_pentium4.obj
 0001:00019b7d       ?write_double_translated_ansi_nolock@@YA?AUwrite_result@?A0x17268360@@HQBDI@Z 1001ab7d f   libucrt:write.obj
 0001:00019d42       ?write_double_translated_unicode_nolock@@YA?AUwrite_result@?A0x17268360@@QBDI@Z 1001ad42 f   libucrt:write.obj
 0001:00019daf       ?write_requires_double_translation_nolock@@YA_NH@Z 1001adaf f   libucrt:write.obj
 0001:00019e25       ?write_text_ansi_nolock@@YA?AUwrite_result@?A0x17268360@@HQBDI@Z 1001ae25 f   libucrt:write.obj
 0001:00019f04       ?write_text_utf16le_nolock@@YA?AUwrite_result@?A0x17268360@@HQBDI@Z 1001af04 f   libucrt:write.obj
 0001:00019ff2       ?write_text_utf8_nolock@@YA?AUwrite_result@?A0x17268360@@HQBDI@Z 1001aff2 f   libucrt:write.obj
 0001:0001a423       ??$common_lseek_nolock@_J@@YA_JH_JH@Z 1001b423 f   libucrt:lseek.obj
 0001:0001a6e7       ___get_abstract_control_sse2 1001b6e7 f   libucrt:_fenvutils.obj
 0001:0001a764       ___get_abstract_control_x87 1001b764 f   libucrt:_fenvutils.obj
 0001:0001a7d7       ___get_machine_control     1001b7d7 f   libucrt:_fenvutils.obj
 0001:0001a848       ___get_machine_control_sse2 1001b848 f   libucrt:_fenvutils.obj
 0001:0001a8c8       ___get_machine_status_sse2 1001b8c8 f   libucrt:_fenvutils.obj
 0001:0001a929       ___get_machine_status_x87  1001b929 f   libucrt:_fenvutils.obj
 0001:0001ac70       $$000000                   1001bc70     libucrt:log10_pentium4.obj
 0001:0001af00       $$000000                   1001bf00     libucrt:87tran.obj
 0001:0001b100       $$000000                   1001c100     libucrt:87disp.obj
 0001:0001b300       $$000000                   1001c300     libucrt:common.obj
 0001:0001b490       $$000000                   1001c490     libucrt:genexcep.obj
 0001:0001ba00       $$000000                   1001ca00     libucrt:_strnicm.obj
 0001:0001c850       $$000000                   1001d850     LIBCMT:ulldvrm.obj
 0001:0001c8f0       $$000000                   1001d8f0     LIBCMT:llmul.obj
 0001:0001c930       $$000000                   1001d930     LIBCMT:lldvrm.obj
 0001:0001ca10       $$000000                   1001da10     LIBCMT:ullshr.obj
 0001:0001ca30       $$000000                   1001da30     LIBCMT:llshl.obj
 0001:0001ca50       $$000000                   1001da50     LIBCMT:_ftol2_.obj
 0001:0001cb10       $$000000                   1001db10     libvcruntime:strrchr.obj
 0001:0001cc50       $$000000                   1001dc50     libvcruntime:strchr.obj
 0001:0001cd7b       __ehhandler$?__scrt_initialize_thread_safe_statics_platform_specific@@YAXXZ 1001dd7b f   LIBCMT:thread_safe_statics.obj
 0001:0001cd96       __ehhandler$??2@YAPAXIABUnothrow_t@std@@@Z 1001dd96 f   LIBCMT:new_scalar_nothrow.obj
 0001:0001cdb1       __ehhandler$?CallUnexpected@@YAXPBU_s_ESTypeList@@@Z 1001ddb1 f   libvcruntime:frame.obj
 0001:0001cdcc       ??__F_AtlComModule@ATL@@YAXXZ 1001ddcc f   OposVariant.obj
 0001:0001cdd6       ??__F_AtlWinModule@ATL@@YAXXZ 1001ddd6 f   OposVariant.obj
 0001:0001cdf0       ??__F_Module@@YAXXZ        1001ddf0 f   ItemDispenser.obj
 0001:0001ce04       ??__F_AtlBaseModule@ATL@@YAXXZ 1001de04 f   atls:atlbase.obj
 0002:00000304       ?_AtlBaseModule$initializer$@ATL@@3P6AXXZA 1001e304     atls:atlbase.obj
 0002:00000308       ?_AtlComModule$initializer$@ATL@@3P6AXXZA 1001e308     OposVariant.obj
 0002:0000030c       ?_AtlWinModule$initializer$@ATL@@3P6AXXZA 1001e30c     OposVariant.obj
 0002:00000310       ?_Module$initializer$@@3P6AXXZA 1001e310     ItemDispenser.obj
 0002:00000314       ??pConnMap$initializer$@?$IConnectionPointContainerImpl@VCOPOSItemDispenser@@@ATL@@0P6AXXZA@@3P6AXXZA 1001e314     ItemDispenser.obj
 0002:00000320       ?__scrt_initialize_tss_var@@3P6AHXZA 1001e320     LIBCMT:thread_safe_statics.obj
 0002:000007b0       ?map@?1??HKeyFromString@CRegParser@ATL@@KAPAUHKEY__@@PA_W@Z@4QBUkeymap@?1??123@KAPAU4@0@Z@B 1001e7b0     ItemDispenser.obj
 0002:0000177c       _GS_ExceptionPointers      1001f77c     LIBCMT:gs_report.obj
 0002:000018e8       ?ExceptionTemplate@?1??_CxxThrowException@@9@8@4UEHExceptionRecord@@B 1001f8e8     libvcruntime:throw.obj
 0002:00001908       ?module_names@?A0x03f7da57@@3QBQB_WB 1001f908     libvcruntime:winapi_downlevel.obj
 0002:000019c0       ?candidate_modules@?1??try_get_FlsAlloc@@YAP6GKP6GXPAX@Z@ZXZ@4QBW4module_id@?A0x03f7da57@@B 1001f9c0     libvcruntime:winapi_downlevel.obj
 0002:000019d4       ?candidate_modules@?1??try_get_FlsFree@@YAP6GHK@ZXZ@4QBW4module_id@?A0x03f7da57@@B 1001f9d4     libvcruntime:winapi_downlevel.obj
 0002:000019e4       ?candidate_modules@?1??try_get_FlsGetValue@@YAP6GPAXK@ZXZ@4QBW4module_id@?A0x03f7da57@@B 1001f9e4     libvcruntime:winapi_downlevel.obj
 0002:000019f8       ?candidate_modules@?1??try_get_FlsSetValue@@YAP6GHKPAX@ZXZ@4QBW4module_id@?A0x03f7da57@@B 1001f9f8     libvcruntime:winapi_downlevel.obj
 0002:00001a0c       ?candidate_modules@?1??try_get_InitializeCriticalSectionEx@@YAP6GHPAU_RTL_CRITICAL_SECTION@@KK@ZXZ@4QBW4module_id@?A0x03f7da57@@B 1001fa0c     libvcruntime:winapi_downlevel.obj
 0002:00001a50       ?tokenTable@@3QBQBDB       1001fa50     libvcruntime:undname.obj
 0002:00001a90       ?nameTable@@3QBQBDB        1001fa90     libvcruntime:undname.obj
 0002:00001bd8       ?rttiTable@@3QBQBDB        1001fbd8     libvcruntime:undname.obj
 0002:000021f0       ?errtable@@3QBUerrentry@?A0x31fdb9ec@@B 100201f0     libucrt:errno.obj
 0002:00002490       ___acrt_initializers       10020490     libucrt:initialization.obj
 0002:00002508       ?module_names@?A0x391cf84c@@3QBQB_WB 10020508     libucrt:winapi_thunks.obj
 0002:000029f0       ?candidate_modules@?1??try_get_FlsAlloc@@YAP6GKP6GXPAX@Z@ZXZ@4QBW4module_id@?A0x391cf84c@@B 100209f0     libucrt:winapi_thunks.obj
 0002:00002a04       ?candidate_modules@?1??try_get_FlsFree@@YAP6GHK@ZXZ@4QBW4module_id@?A0x391cf84c@@B 10020a04     libucrt:winapi_thunks.obj
 0002:00002a14       ?candidate_modules@?1??try_get_FlsGetValue@@YAP6GPAXK@ZXZ@4QBW4module_id@?A0x391cf84c@@B 10020a14     libucrt:winapi_thunks.obj
 0002:00002a28       ?candidate_modules@?1??try_get_FlsSetValue@@YAP6GHKPAX@ZXZ@4QBW4module_id@?A0x391cf84c@@B 10020a28     libucrt:winapi_thunks.obj
 0002:00002a3c       ?candidate_modules@?1??try_get_InitializeCriticalSectionEx@@YAP6GHPAU_RTL_CRITICAL_SECTION@@KK@ZXZ@4QBW4module_id@?A0x391cf84c@@B 10020a3c     libucrt:winapi_thunks.obj
 0002:00002a60       ?candidate_modules@?1??try_get_LCMapStringEx@@YAP6GHPB_WK0HPA_WHPAU_nlsversioninfo@@PAXJ@ZXZ@4QBW4module_id@?A0x391cf84c@@B 10020a60     libucrt:winapi_thunks.obj
 0002:00002a78       ?candidate_modules@?1??try_get_LocaleNameToLCID@@YAP6GKPB_WK@ZXZ@4QBW4module_id@?A0x391cf84c@@B 10020a78     libucrt:winapi_thunks.obj
 0002:00002a94       ?candidate_modules@?1??try_get_AppPolicyGetProcessTerminationMethod@@YAP6GJPAXPAW4AppPolicyProcessTerminationMethod@@@ZXZ@4QBW4module_id@?A0x391cf84c@@B 10020a94     libucrt:winapi_thunks.obj
 0002:00002ac0       ?candidate_modules@?1??try_get_SetThreadStackGuarantee@@YAP6GHPAK@ZXZ@4QBW4module_id@?A0x391cf84c@@B 10020ac0     libucrt:winapi_thunks.obj
 0002:00002fec       ?_mb_locale_names@@3QBQB_WB 10020fec     libucrt:mbctype.obj
 0002:00003838       ?LcidToLocaleNameTable@?A0x881e4c05@@3QBULcidToLocaleName@1@B 10021838     libucrt:lcidtoname_downlevel.obj
 0002:00004960       ?LocaleNameToIndexTable@?A0x881e4c05@@3QBULocaleNameIndex@1@B 10022960     libucrt:lcidtoname_downlevel.obj
 0002:000062a0       LOG_name                   100242a0     libucrt:log10.obj
 0002:000062b0       _One                       100242b0     libucrt:ceil_pentium4.obj
 0002:000062c0       _Bns                       100242c0     libucrt:ceil_pentium4.obj
 0002:000062d0       _Zero                      100242d0     libucrt:ceil_pentium4.obj
 0002:000062e0       _S                         100242e0     libucrt:ceil_pentium4.obj
 0002:000062f0       _NegZero                   100242f0     libucrt:ceil_pentium4.obj
 0002:00006300       emask                      10024300     libucrt:log10_pentium4.obj
 0002:00006310       CC                         10024310     libucrt:log10_pentium4.obj
 0002:00006320       Magic                      10024320     libucrt:log10_pentium4.obj
 0002:00006330       hi_mask                    10024330     libucrt:log10_pentium4.obj
 0002:00006340       LOG10_2                    10024340     libucrt:log10_pentium4.obj
 0002:00006350       place_L                    10024350     libucrt:log10_pentium4.obj
 0002:00006370       One                        10024370     libucrt:log10_pentium4.obj
 0002:00006380       Zero                       10024380     libucrt:log10_pentium4.obj
 0002:00006390       Two52                      10024390     libucrt:log10_pentium4.obj
 0002:000063a0       Infs                       100243a0     libucrt:log10_pentium4.obj
 0002:000063b0       NaN                        100243b0     libucrt:log10_pentium4.obj
 0002:000063c0       coeff                      100243c0     libucrt:log10_pentium4.obj
 0002:0000641e       _log2max                   1002441e     libucrt:87tran.obj
 0002:00006428       _smallarg                  10024428     libucrt:87tran.obj
 0002:00006432       _half                      10024432     libucrt:87tran.obj
 0002:0000647e       One                        1002447e     libucrt:87disp.obj
 0002:00006486       Three                      10024486     libucrt:87disp.obj
 0002:0000648e       XAMtoTagTab                1002448e     libucrt:87disp.obj
 0002:000064a0       One                        100244a0     libucrt:common.obj
 0002:000064b4       DblMax                     100244b4     libucrt:common.obj
 0002:000064bc       DblMin                     100244bc     libucrt:common.obj
 0002:000064c4       IeeeAdjO                   100244c4     libucrt:common.obj
 0002:000064cc       IeeeAdjU                   100244cc     libucrt:common.obj
 0002:000064d4       _infinity                  100244d4     libucrt:common.obj
 0002:000064dc       _zero                      100244dc     libucrt:common.obj
 0002:00006518       _over                      10024518     libucrt:fpctrl.obj
 0002:00006524       _under                     10024524     libucrt:fpctrl.obj
 0002:00006d58       ?_names@?1??_get_fname@@9@9 10024d58     libucrt:fpexcept.obj
 0002:000075c0       __sehtable$?_AtlVerifyStackAvailable@_ATL_SAFE_ALLOCA_IMPL@ATL@@YA_NK@Z 100255c0     ItemDispenser.obj
 0002:000075e0       __sehtable$___scrt_is_nonwritable_in_current_image 100255e0     LIBCMT:utility.obj
 0002:000075fc       __ehfuncinfo$?__scrt_initialize_thread_safe_statics_platform_specific@@YAXXZ 100255fc     LIBCMT:thread_safe_statics.obj
 0002:00007620       __catchsym$??2@YAPAXIABUnothrow_t@std@@@Z$2 10025620     LIBCMT:new_scalar_nothrow.obj
 0002:00007630       __unwindtable$??2@YAPAXIABUnothrow_t@std@@@Z 10025630     LIBCMT:new_scalar_nothrow.obj
 0002:00007640       __tryblocktable$??2@YAPAXIABUnothrow_t@std@@@Z 10025640     LIBCMT:new_scalar_nothrow.obj
 0002:00007654       __ehfuncinfo$??2@YAPAXIABUnothrow_t@std@@@Z 10025654     LIBCMT:new_scalar_nothrow.obj
 0002:00007678       __sehtable$?dllmain_crt_process_attach@@YAHQAUHINSTANCE__@@QAX@Z 10025678     LIBCMT:dll_dllmain.obj
 0002:00007698       __sehtable$?dllmain_crt_process_detach@@YAH_N@Z 10025698     LIBCMT:dll_dllmain.obj
 0002:000076b8       __sehtable$?dllmain_dispatch@@YAHQAUHINSTANCE__@@KQAX@Z 100256b8     LIBCMT:dll_dllmain.obj
 0002:00007768       __sehtable$?FrameUnwindToState@__FrameHandler3@@SAXPAUEHRegistrationNode@@PAXPBU_s_FuncInfo@@H@Z 10025768     libvcruntime:frame.obj
 0002:00007790       __sehtable$?CallCatchBlock@@YAPAXPAUEHExceptionRecord@@PAUEHRegistrationNode@@PAU_CONTEXT@@PBU_s_FuncInfo@@PAXHK@Z 10025790     libvcruntime:frame.obj
 0002:000077b8       __catchsym$?CallUnexpected@@YAXPBU_s_ESTypeList@@@Z$2 100257b8     libvcruntime:frame.obj
 0002:000077c8       __unwindtable$?CallUnexpected@@YAXPBU_s_ESTypeList@@@Z 100257c8     libvcruntime:frame.obj
 0002:000077d8       __tryblocktable$?CallUnexpected@@YAXPBU_s_ESTypeList@@@Z 100257d8     libvcruntime:frame.obj
 0002:000077ec       __ehfuncinfo$?CallUnexpected@@YAXPBU_s_ESTypeList@@@Z 100257ec     libvcruntime:frame.obj
 0002:00007810       __sehtable$??$BuildCatchObjectHelperInternal@$$CBU_s_HandlerType@@@@YAHPAUEHExceptionRecord@@PAXPBU_s_HandlerType@@PBU_s_CatchableType@@@Z 10025810     libvcruntime:frame.obj
 0002:00007830       __sehtable$??$BuildCatchObjectInternal@$$CBU_s_HandlerType@@@@YAXPAUEHExceptionRecord@@PAXPBU_s_HandlerType@@PBU_s_CatchableType@@@Z 10025830     libvcruntime:frame.obj
 0002:00007888       __sehtable$___DestructExceptionObject 10025888     libvcruntime:ehhelpers.obj
 0002:000078a8       __sehtable$??R<lambda_6e4b09c48022b2350581041d5f6b0c4c>@@QBE@XZ 100258a8     libucrt:exit.obj
 0002:000078c8       __sehtable$??$?RV<lambda_03b1d95aef87969028cfba75ccab2455>@@AAV<lambda_6e4b09c48022b2350581041d5f6b0c4c>@@V<lambda_22bdf7517842c4b3e53723af5aa32b9e>@@@?$__crt_seh_guarded_call@X@@QAEX$$QAV<lambda_03b1d95aef87969028cfba75ccab2455>@@AAV<lambda_6e4b09c48022b2350581041d5f6b0c4c>@@$$QAV<lambda_22bdf7517842c4b3e53723af5aa32b9e>@@@Z 100258c8     libucrt:exit.obj
 0002:000078e8       __sehtable$??$?RV<lambda_8e746cf0007f6ed984d6f78af1fec997>@@AAV<lambda_22ebabd17bc4fa466a2aca6d8deb888d>@@V<lambda_18ed0c0b38a6dc0daf1e7ac6d6adf05e>@@@?$__crt_seh_guarded_call@H@@QAEH$$QAV<lambda_8e746cf0007f6ed984d6f78af1fec997>@@AAV<lambda_22ebabd17bc4fa466a2aca6d8deb888d>@@$$QAV<lambda_18ed0c0b38a6dc0daf1e7ac6d6adf05e>@@@Z 100258e8     libucrt:onexit.obj
 0002:00007908       __sehtable$??$?RV<lambda_69a2805e680e0e292e8ba93315fe43a8>@@AAV<lambda_f03950bc5685219e0bcd2087efbe011e>@@V<lambda_03fcd07e894ec930e3f35da366ca99d6>@@@?$__crt_seh_guarded_call@H@@QAEH$$QAV<lambda_69a2805e680e0e292e8ba93315fe43a8>@@AAV<lambda_f03950bc5685219e0bcd2087efbe011e>@@$$QAV<lambda_03fcd07e894ec930e3f35da366ca99d6>@@@Z 10025908     libucrt:onexit.obj
 0002:00007928       __sehtable$__query_new_handler 10025928     libucrt:new_handler.obj
 0002:00007948       __sehtable$_terminate      10025948     libucrt:terminate.obj
 0002:00007968       __sehtable$??$?RV<lambda_15ade71b0218206bbe3333a0c9b79046>@@AAV<lambda_da44e0f8b0f19ba52fefafb335991732>@@V<lambda_207f2d024fc103971653565357d6cd41>@@@?$__crt_seh_guarded_call@X@@QAEX$$QAV<lambda_15ade71b0218206bbe3333a0c9b79046>@@AAV<lambda_da44e0f8b0f19ba52fefafb335991732>@@$$QAV<lambda_207f2d024fc103971653565357d6cd41>@@@Z 10025968     libucrt:per_thread_data.obj
 0002:00007988       __sehtable$??$?RV<lambda_a7e850c220f1c8d1e6efeecdedd162c6>@@AAV<lambda_46720907175c18b6c9d2717bc0d2d362>@@V<lambda_9048902d66e8d99359bc9897bbb930a8>@@@?$__crt_seh_guarded_call@X@@QAEX$$QAV<lambda_a7e850c220f1c8d1e6efeecdedd162c6>@@AAV<lambda_46720907175c18b6c9d2717bc0d2d362>@@$$QAV<lambda_9048902d66e8d99359bc9897bbb930a8>@@@Z 10025988     libucrt:per_thread_data.obj
 0002:000079a8       __sehtable$??$?RV<lambda_38edbb1296d33220d7e4dd0ed76b244a>@@AAV<lambda_5ce1d447e08cb34b2473517608e21441>@@V<lambda_fb385d3da700c9147fc39e65dd577a8c>@@@?$__crt_seh_guarded_call@X@@QAEX$$QAV<lambda_38edbb1296d33220d7e4dd0ed76b244a>@@AAV<lambda_5ce1d447e08cb34b2473517608e21441>@@$$QAV<lambda_fb385d3da700c9147fc39e65dd577a8c>@@@Z 100259a8     libucrt:per_thread_data.obj
 0002:000079c8       __sehtable$??$?RV<lambda_6affb1475c98b40b75cdec977db92e3c>@@AAV<lambda_b8d4b9c228a6ecc3f80208dbb4b4a104>@@V<lambda_608742c3c92a14382c1684fc64f96c88>@@@?$__crt_seh_guarded_call@X@@QAEX$$QAV<lambda_6affb1475c98b40b75cdec977db92e3c>@@AAV<lambda_b8d4b9c228a6ecc3f80208dbb4b4a104>@@$$QAV<lambda_608742c3c92a14382c1684fc64f96c88>@@@Z 100259c8     libucrt:per_thread_data.obj
 0002:000079e8       __sehtable$??$?RV<lambda_e5124f882df8998aaf41531e079ba474>@@AAV<lambda_3e16ef9562a7dcce91392c22ab16ea36>@@V<lambda_e25ca0880e6ef98be67edffd8c599615>@@@?$__crt_seh_guarded_call@X@@QAEX$$QAV<lambda_e5124f882df8998aaf41531e079ba474>@@AAV<lambda_3e16ef9562a7dcce91392c22ab16ea36>@@$$QAV<lambda_e25ca0880e6ef98be67edffd8c599615>@@@Z 100259e8     libucrt:wsetlocale.obj
 0002:00007a08       __sehtable$___acrt_initialize_lowio 10025a08     libucrt:ioinit.obj
 0002:00007a28       __sehtable$?update_thread_multibyte_data_internal@@YAPAU__crt_multibyte_data@@QAU__acrt_ptd@@QAU1@@Z 10025a28     libucrt:mbctype.obj
 0002:00007a48       __sehtable$??$?RV<lambda_ceb1ee4838e85a9d631eb091e2fbe199>@@AAV<lambda_ae742caa10f662c28703da3d2ea5e57e>@@V<lambda_cd08b5d6af4937fe54fc07d0c9bf6b37>@@@?$__crt_seh_guarded_call@X@@QAEX$$QAV<lambda_ceb1ee4838e85a9d631eb091e2fbe199>@@AAV<lambda_ae742caa10f662c28703da3d2ea5e57e>@@$$QAV<lambda_cd08b5d6af4937fe54fc07d0c9bf6b37>@@@Z 10025a48     libucrt:mbctype.obj
 0002:00007a68       __sehtable$_raise          10025a68     libucrt:signal.obj
 0002:00007a88       __sehtable$??$?RV<lambda_cbab9ec6f41b0180b23cc171c22676b0>@@AAV<lambda_44731a7d0e6d81c3e6aa82d741081786>@@V<lambda_4b292cb8dd18144e164572427af410ab>@@@?$__crt_seh_guarded_call@P6AXH@Z@@QAEP6AXH@Z$$QAV<lambda_cbab9ec6f41b0180b23cc171c22676b0>@@AAV<lambda_44731a7d0e6d81c3e6aa82d741081786>@@$$QAV<lambda_4b292cb8dd18144e164572427af410ab>@@@Z 10025a88     libucrt:signal.obj
 0002:00007aa8       __sehtable$___acrt_update_thread_locale_data 10025aa8     libucrt:locale_refcounting.obj
 0002:00007ac8       __sehtable$__fcloseall     10025ac8     libucrt:closeall.obj
 0002:00007ae8       __sehtable$??$?RV<lambda_2866be3712abc81a800a822484c830d8>@@AAV<lambda_39ca0ed439415581b5b15c265174cece>@@V<lambda_2b24c74d71094a6cd0cb82e44167d71b>@@@?$__crt_seh_guarded_call@X@@QAEX$$QAV<lambda_2866be3712abc81a800a822484c830d8>@@AAV<lambda_39ca0ed439415581b5b15c265174cece>@@$$QAV<lambda_2b24c74d71094a6cd0cb82e44167d71b>@@@Z 10025ae8     libucrt:fflush.obj
 0002:00007b08       __sehtable$??$?RV<lambda_2cc53f568c5a2bb6f192f930a45d44ea>@@AAV<lambda_ab61a845afdef5b7c387490eaf3616ee>@@V<lambda_c2ffc0b7726aa6be21d5f0026187e748>@@@?$__crt_seh_guarded_call@X@@QAEX$$QAV<lambda_2cc53f568c5a2bb6f192f930a45d44ea>@@AAV<lambda_ab61a845afdef5b7c387490eaf3616ee>@@$$QAV<lambda_c2ffc0b7726aa6be21d5f0026187e748>@@@Z 10025b08     libucrt:fflush.obj
 0002:00007b28       __sehtable$___acrt_lowio_ensure_fh_exists 10025b28     libucrt:osfinfo.obj
 0002:00007b48       __sehtable$__write         10025b48     libucrt:write.obj
 0002:00007b68       __sehtable$_fclose         10025b68     libucrt:fclose.obj
 0002:00007b88       __sehtable$??$?RV<lambda_9e9de3de5fa147e2223d7db92bc10aa6>@@AAV<lambda_38ce7e780aa69e748d6df282ebc68efe>@@V<lambda_8ca6da459f0f6780f1cff60fdc3d00e5>@@@?$__crt_seh_guarded_call@H@@QAEH$$QAV<lambda_9e9de3de5fa147e2223d7db92bc10aa6>@@AAV<lambda_38ce7e780aa69e748d6df282ebc68efe>@@$$QAV<lambda_8ca6da459f0f6780f1cff60fdc3d00e5>@@@Z 10025b88     libucrt:commit.obj
 0002:00007ba8       __sehtable$??$?RV<lambda_218ce3db14220d0be481dae8ef3383b6>@@AAV<lambda_628dfdc04ba53c8bfc02c9951375f3f5>@@V<lambda_57dc472bd5c9d5f3b2cbca59b8a843ae>@@@?$__crt_seh_guarded_call@H@@QAEH$$QAV<lambda_218ce3db14220d0be481dae8ef3383b6>@@AAV<lambda_628dfdc04ba53c8bfc02c9951375f3f5>@@$$QAV<lambda_57dc472bd5c9d5f3b2cbca59b8a843ae>@@@Z 10025ba8     libucrt:close.obj
 0002:00007bc8       __sehtable$__IsNonwritableInCurrentImage 10025bc8     LIBCMT:pesect.obj
 0002:00007bf0       .edata                     10025bf0     OPOSItemDispenser.exp
 0002:00007c18       rgpv                       10025c18     OPOSItemDispenser.exp
 0002:00007c28       rgszName                   10025c28     OPOSItemDispenser.exp
 0002:00007c38       rgwOrd                     10025c38     OPOSItemDispenser.exp
 0002:00007c40       szName                     10025c40     OPOSItemDispenser.exp
 0002:00007c56       $N00001                    10025c56     OPOSItemDispenser.exp
 0002:00007c66       $N00002                    10025c66     OPOSItemDispenser.exp
 0002:00007c78       $N00003                    10025c78     OPOSItemDispenser.exp
 0002:00007c8a       $N00004                    10025c8a     OPOSItemDispenser.exp
 0002:000082a4       .idata$6                   100262a4     kernel32:KERNEL32.dll
 0002:000084b8       .idata$6                   100264b8     user32:USER32.dll
 0002:000085ec       .idata$6                   100265ec     gdi32:GDI32.dll
 0002:00008692       .idata$6                   10026692     advapi32:ADVAPI32.dll
 0002:000087ae       .idata$6                   100267ae     ole32:ole32.dll
 0002:000087b8       .idata$6                   100267b8     oleaut32:OLEAUT32.dll
 0003:00000110       ?ObjectMap@@3PAU_ATL_OBJMAP_ENTRY30@ATL@@A 10027110     ItemDispenser.obj
 0003:000001c8       ?s_SOMethodNames@@3PAPADA  100271c8     ItemDispenserImpl.obj
 0003:00000218       ?s_RequiredMethodsPerRelease@@3PAHA 10027218     ItemDispenserImpl.obj
 0003:00000240       ?__vcrt_flsindex@@3KA      10027240     libvcruntime:per_thread_data.obj
 0003:00000260       ?errno_no_memory@@3HA      10027260     libucrt:errno.obj
 0003:00000264       ?doserrno_no_memory@@3KA   10027264     libucrt:errno.obj
 0003:00000270       ?__acrt_flsindex@@3KA      10027270     libucrt:per_thread_data.obj
 0003:000003e8       __mbctypes                 100273e8     libucrt:mbctype.obj
 0003:000004f0       __mbcasemaps               100274f0     libucrt:mbctype.obj
 0003:000005f0       ?__rgctypeflag@@3PADA      100275f0     libucrt:mbctype.obj
 0003:000005f8       ?__rgcode_page_info@@3PAUcode_page_info@@A 100275f8     libucrt:mbctype.obj
 0003:00000b00       ?is_initialized_as_dll@@3_NA 10027b00     LIBCMT:utility.obj
 0003:00000b01       ?module_local_atexit_table_initialized@@3_NA 10027b01     LIBCMT:utility.obj
 0003:00000b04       ?module_local_atexit_table@@3U_onexit_table_t@@A 10027b04     LIBCMT:utility.obj
 0003:00000b10       ?module_local_at_quick_exit_table@@3U_onexit_table_t@@A 10027b10     LIBCMT:utility.obj
 0003:00000b1c       ?_Tss_mutex@@3U_RTL_CRITICAL_SECTION@@A 10027b1c     LIBCMT:thread_safe_statics.obj
 0003:00000b34       ?_Tss_cv@@3U_RTL_CONDITION_VARIABLE@@A 10027b34     LIBCMT:thread_safe_statics.obj
 0003:00000b38       ?_Tss_event@@3PAXA         10027b38     LIBCMT:thread_safe_statics.obj
 0003:00000b3c       ?encoded_sleep_condition_variable_cs@@3P6GHPAU_RTL_CONDITION_VARIABLE@@PAU_RTL_CRITICAL_SECTION@@K@ZA 10027b3c     LIBCMT:thread_safe_statics.obj
 0003:00000b40       ?encoded_wake_all_condition_variable@@3P6GXPAU_RTL_CONDITION_VARIABLE@@@ZA 10027b40     LIBCMT:thread_safe_statics.obj
 0003:00000b48       _GS_ExceptionRecord        10027b48     LIBCMT:gs_report.obj
 0003:00000b98       _GS_ContextRecord          10027b98     LIBCMT:gs_report.obj
 0003:00000e68       ?__proc_attached@@3HA      10027e68     LIBCMT:dll_dllmain.obj
 0003:00000ec4       ?AllocateData@@3P6GPAUAtlThunkData_t@@XZA 10027ec4     atls:atlthunk.obj
 0003:00000ec8       ?InitData@@3P6GXPAUAtlThunkData_t@@PAXI@ZA 10027ec8     atls:atlthunk.obj
 0003:00000ecc       ?DataToCode@@3P6GP6GJPAUHWND__@@IIJ@ZPAUAtlThunkData_t@@@ZA 10027ecc     atls:atlthunk.obj
 0003:00000ed0       ?FreeData@@3P6GXPAUAtlThunkData_t@@@ZA 10027ed0     atls:atlthunk.obj
 0003:00000ed4       ?Initialized@@3_NA         10027ed4     atls:atlthunk.obj
 0003:00000ee0       ?__vcrt_startup_thread_ptd@@3U__vcrt_ptd@@A 10027ee0     libvcruntime:per_thread_data.obj
 0003:00000f08       ___vcrt_lock_table         10027f08     libvcruntime:locks.obj
 0003:00000f20       ___vcrt_locks_initialized  10027f20     libvcruntime:locks.obj
 0003:00000f24       ?module_handles@@3PAPAUHINSTANCE__@@A 10027f24     libvcruntime:winapi_downlevel.obj
 0003:00000f30       ?encoded_function_pointers@@3PAPAXA 10027f30     libvcruntime:winapi_downlevel.obj
 0003:00000f6c       ?heap@@3V_HeapManager@@A   10027f6c     libvcruntime:undname.obj
 0003:00000f84       ?__acrt_invalid_parameter_handler@@3V?$dual_state_global@P6AXPB_W00II@Z@__crt_state_management@@A 10027f84     libucrt:invalid_parameter.obj
 0003:00000f88       ?c_termination_complete@@3JA 10027f88     libucrt:exit.obj
 0003:00000f8c       ?thread_local_exit_callback_func@@3P6GXPAXK0@ZA 10027f8c     libucrt:exit.obj
 0003:00000f98       ?program_name@?1???$common_configure_argv@D@@YAHW4_crt_argv_mode@@@Z@4PADA 10027f98     libucrt:argv_parsing.obj
 0003:000010c8       ?__acrt_new_handler@@3V?$dual_state_global@P6AHI@Z@__crt_state_management@@A 100280c8     libucrt:new_handler.obj
 0003:000010d0       ?module_handles@@3PAPAUHINSTANCE__@@A 100280d0     libucrt:winapi_thunks.obj
 0003:00001120       ?encoded_function_pointers@@3PAPAXA 10028120     libucrt:winapi_thunks.obj
 0003:000011b0       ?enable_percent_n@@3IA     100281b0     libucrt:printf_count_output.obj
 0003:000013d0       ?__acrt_lock_table@@3PAU_RTL_CRITICAL_SECTION@@A 100283d0     libucrt:locks.obj
 0003:00001520       ?__acrt_locks_initialized@@3IA 10028520     libucrt:locks.obj
 0003:00001530       ?fSystemSet@@3HA           10028530     libucrt:mbctype.obj
 0003:00001534       ?initialized@?1??__acrt_initialize_multibyte@@9@4_NA 10028534     libucrt:mbctype.obj
 0003:00001554       ?ctrlc_action@@3V?$dual_state_global@P6AXH@Z@__crt_state_management@@A 10028554     libucrt:signal.obj
 0003:00001558       ?ctrlbreak_action@@3V?$dual_state_global@P6AXH@Z@__crt_state_management@@A 10028558     libucrt:signal.obj
 0003:0000155c       ?abort_action@@3V?$dual_state_global@P6AXH@Z@__crt_state_management@@A 1002855c     libucrt:signal.obj
 0003:00001560       ?term_action@@3V?$dual_state_global@P6AXH@Z@__crt_state_management@@A 10028560     libucrt:signal.obj
 0003:00001564       ?user_matherr@@3V?$dual_state_global@P6AHPAU_exception@@@Z@__crt_state_management@@A 10028564     libucrt:matherr.obj
 0003:00001568       ?__acrt_global_new_mode@@3V?$dual_state_global@J@__crt_state_management@@A 10028568     libucrt:new_mode.obj
 0003:00001574       ?__acrt_app_type@@3W4_crt_app_type@@A 10028574     libucrt:report_runtime_error.obj
 0003:0000157c       __pmatherr_set             1002857c     libucrt:libm_error.obj
 0004:00000220       $R000000                   10029220     ItemDispenser.res
 0004:00000ba0       $R000980                   10029ba0     ItemDispenser.res
 0004:00000c88       $R000A68                   10029c88     ItemDispenser.res
 0004:00000ef0       $R000CD0                   10029ef0     ItemDispenser.res
 0004:000013d8       $R0011B8                   1002a3d8     ItemDispenser.res
 0004:00003920       $R003700                   1002c920     ItemDispenser.res
 0004:00003960       $R003740                   1002c960     ItemDispenser.res
