 OPOSKeylock

 Timestamp is 5ed45872 (Mon Jun  1 10:22:58 2020)

 Preferred load address is 10000000

 Start         Length     Name                   Class
 0001:00000000 00000080H .text$di                CODE
 0001:00000080 0001dd73H .text$mn                CODE
 0001:0001ddf3 00000036H .text$x                 CODE
 0001:0001de29 00000042H .text$yd                CODE
 0002:00000000 000002fcH .idata$5                DATA
 0002:000002fc 00000004H .00cfg                  DATA
 0002:00000300 00000004H .CRT$XCA                DATA
 0002:00000304 00000004H .CRT$XCL                DATA
 0002:00000308 00000010H .CRT$XCU                DATA
 0002:00000318 00000004H .CRT$XCZ                DATA
 0002:0000031c 00000004H .CRT$XIA                DATA
 0002:00000320 00000010H .CRT$XIC                DATA
 0002:00000330 00000004H .CRT$XIZ                DATA
 0002:00000334 00000004H .CRT$XLA                DATA
 0002:00000338 00000004H .CRT$XLZ                DATA
 0002:0000033c 00000004H .CRT$XPA                DATA
 0002:00000340 00000008H .CRT$XPX                DATA
 0002:00000348 00000004H .CRT$XPXA               DATA
 0002:0000034c 00000004H .CRT$XPZ                DATA
 0002:00000350 00000004H .CRT$XTA                DATA
 0002:00000354 0000000cH .CRT$XTZ                DATA
 0002:00000358 00000000H .gfids$y                DATA
 0002:00000360 000071e8H .rdata                  DATA
 0002:00007548 00000018H .rdata$T                DATA
 0002:00007560 00000178H .rdata$r                DATA
 0002:000076d8 0000001cH .rdata$sxdata           DATA
 0002:000076f4 000003dcH .rdata$zzzdbg           DATA
 0002:00007ad0 00000004H .rtc$IAA                DATA
 0002:00007ad4 00000004H .rtc$IZZ                DATA
 0002:00007ad8 00000004H .rtc$TAA                DATA
 0002:00007adc 00000004H .rtc$TZZ                DATA
 0002:00007ae0 00000004H .tls                    DATA
 0002:00007ae4 00000004H .tls$                   DATA
 0002:00007ae8 00000008H .tls$ZZZ                DATA
 0002:00007af0 0000062cH .xdata$x                DATA
 0002:0000811c 00000004H ATL$__a                 DATA
 0002:00008120 00000010H ATL$__z                 DATA
 0002:00008130 000000a8H .edata                  DATA
 0002:000081d8 00000078H .idata$2                DATA
 0002:00008250 00000014H .idata$3                DATA
 0002:00008264 000002fcH .idata$4                DATA
 0002:00008560 00000bceH .idata$6                DATA
 0003:00000000 00000ab0H .data                   DATA
 0003:00000ab0 00000098H .data$r                 DATA
 0003:00000b48 00000b80H .bss                    DATA
 0004:00000000 00000220H .rsrc$01                DATA
 0004:00000220 000038e0H .rsrc$02                DATA

  Address         Publics by Value              Rva+Base       Lib:Object

 0000:00000000       ___guard_longjmp_count     00000000     <absolute>
 0000:00000000       ___guard_eh_cont_count     00000000     <absolute>
 0000:00000000       ___x64_code_ranges_to_entry_points 00000000     <absolute>
 0000:00000000       __except_list              00000000     <absolute>
 0000:00000000       ___guard_fids_count        00000000     <absolute>
 0000:00000000       ___guard_longjmp_table     00000000     <absolute>
 0000:00000000       ___hybrid_code_map_count   00000000     <absolute>
 0000:00000000       ___dynamic_value_reloc_table 00000000     <absolute>
 0000:00000000       ___arm64x_native_entrypoint 00000000     <absolute>
 0000:00000000       ___hybrid_auxiliary_iat    00000000     <absolute>
 0000:00000000       ___guard_fids_table        00000000     <absolute>
 0000:00000000       ___arm64x_redirection_metadata 00000000     <absolute>
 0000:00000000       ___guard_iat_table         00000000     <absolute>
 0000:00000000       ___volatile_metadata       00000000     <absolute>
 0000:00000000       ___AbsoluteZero            00000000     <absolute>
 0000:00000000       ___enclave_config          00000000     <absolute>
 0000:00000000       ___guard_eh_cont_table     00000000     <absolute>
 0000:00000000       ___guard_iat_count         00000000     <absolute>
 0000:00000000       ___hybrid_code_map         00000000     <absolute>
 0000:00000007       ___safe_se_handler_count   00000007     <absolute>
 0000:0000002c       __tls_array                0000002c     <absolute>
 0000:00000100       ___guard_flags             00000100     <absolute>
 0000:00000000       ___ImageBase               10000000     <linker-defined>
 0001:00000080       ?DupWide@_CW@@AAEXXZ       10001080 f   CWString.obj
 0001:0000009c       ?cw_dup@@YGXPBDAAHAAPA_W1@Z 1000109c f   CWString.obj
 0001:00000124       ?cw_memcpy@@YGHPA_WPBDH@Z  10001124 f   CWString.obj
 0001:00000150       ?cw_strcpy@@YAHPA_WPBD@Z   10001150 f   CWString.obj
 0001:00000163       ?cw_strlen@@YAHPBD@Z       10001163 f   CWString.obj
 0001:0000017c       ??0CAtlComModule@ATL@@QAE@XZ 1000117c f i OposVariant.obj
 0001:000001c1       ??0CAtlWinModule@ATL@@QAE@XZ 100011c1 f i OposVariant.obj
 0001:000001f8       ??0OposDispParms@@QAE@PAVOposVariant@@H@Z 100011f8 f   OposVariant.obj
 0001:00000269       ??1OposDispParms@@QAE@XZ   10001269 f   OposVariant.obj
 0001:00000277       ??A?$CSimpleArray@GV?$CSimpleArrayEqualHelper@G@ATL@@@ATL@@QAEAAGH@Z 10001277 f i OposVariant.obj
 0001:0000029c       ??_Estringdispid@CComTypeInfoHolder@ATL@@QAEPAXI@Z 1000129c f i OposVariant.obj
 0001:00000308       ?AtlWinModuleInit@ATL@@YGJPAU_ATL_WIN_MODULE70@1@@Z 10001308 f i OposVariant.obj
 0001:0000032e       ?AtlWinModuleTerm@ATL@@YGJPAU_ATL_WIN_MODULE70@1@PAUHINSTANCE__@@@Z 1000132e f i OposVariant.obj
 0001:00000391       ?ChangeBSTR@OposVariant@@QAEXPAPA_WAAJ@Z 10001391 f   OposVariant.obj
 0001:000003d2       ?ChangeLONG@OposVariant@@QAEXPAJAAJ@Z 100013d2 f   OposVariant.obj
 0001:00000413       ?GetLONG@OposVariant@@QAEJXZ 10001413 f   OposVariant.obj
 0001:0000042e       ?Init@CComCriticalSection@ATL@@QAEJXZ 1000142e f i OposVariant.obj
 0001:00000456       ?RemoveAll@?$CSimpleArray@GV?$CSimpleArrayEqualHelper@G@ATL@@@ATL@@QAEXXZ 10001456 f i OposVariant.obj
 0001:00000456       ?RemoveAll@?$CSimpleArray@PAUHINSTANCE__@@V?$CSimpleArrayEqualHelper@PAUHINSTANCE__@@@ATL@@@ATL@@QAEXXZ 10001456 f i atls:atlbase.obj
 0001:00000473       ?SetBSTR@OposVariant@@QAEXPA_WAAJ@Z 10001473 f   OposVariant.obj
 0001:000004a7       ?SetBSTR_Copy@OposVariant@@QAEXPA_WAAJ@Z 100014a7 f   OposVariant.obj
 0001:000004f7       ?SetBSTR_InOutPtr@OposVariant@@QAE_NPAPA_WAAJ@Z 100014f7 f   OposVariant.obj
 0001:0000052e       ?SetDispatch_Ptr@OposVariant@@QAEXPAUIDispatch@@AAJ@Z 1000152e f   OposVariant.obj
 0001:00000569       ?SetLONG@OposVariant@@QAEXJ@Z 10001569 f   OposVariant.obj
 0001:0000058b       ?SetLONG_Ptr@OposVariant@@QAEXPAJAAJ@Z 1000158b f   OposVariant.obj
 0001:000005be       ?SetString@OposVariant@@QAEXPB_WAAJ@Z 100015be f   OposVariant.obj
 0001:00000604       ?SetVARIANT_BOOL@OposVariant@@QAEXF@Z 10001604 f   OposVariant.obj
 0001:0000062e       ?Term@CAtlComModule@ATL@@QAEXXZ 1000162e f i OposVariant.obj
 0001:00000678       ?_AtlRaiseException@ATL@@YAXKK@Z 10001678 f i OposVariant.obj
 0001:0000068d       ?CreateInstance@CComClassFactory@ATL@@UAGJPAUIUnknown@@ABU_GUID@@PAPAX@Z 1000168d f i Keylock.obj
 0001:000006cb       ?LockServer@CComClassFactory@ATL@@UAGJH@Z 100016cb f i Keylock.obj
 0001:000006ea       ??_GCComClassFactory@ATL@@UAEPAXI@Z 100016ea f i Keylock.obj
 0001:000006ea       ??_ECComClassFactory@ATL@@UAEPAXI@Z 100016ea f i Keylock.obj
 0001:00000715       ?GetWindowProc@?$CWindowImplBaseT@VCWindow@ATL@@V?$CWinTraits@$0FGAAAAAA@$0A@@2@@ATL@@UAEP6GJPAUHWND__@@IIJ@ZXZ 10001715 f i Keylock.obj
 0001:0000071b       ?StartWindowProc@?$CWindowImplBaseT@VCWindow@ATL@@V?$CWinTraits@$0FGAAAAAA@$0A@@2@@ATL@@SGJPAUHWND__@@IIJ@Z 1000171b f i Keylock.obj
 0001:0000076f       ?OnFinalMessage@?$CWindowImplBaseT@VCWindow@ATL@@V?$CWinTraits@$0FGAAAAAA@$0A@@2@@ATL@@UAEXPAUHWND__@@@Z 1000176f f i Keylock.obj
 0001:0000076f       ?ObjectMain@CComObjectRootBase@ATL@@SGX_N@Z 1000176f f i Keylock.obj
 0001:00000772       ?GetTypeInfoCount@?$IDispatchImpl@UIOPOSKeylock@@$1?IID_IOPOSKeylock@@3U_GUID@@B$1?LIBID_OposKeylock_CCO@@3U3@B$00$0A@VCComTypeInfoHolder@ATL@@@ATL@@UAGJPAI@Z 10001772 f i Keylock.obj
 0001:0000078f       ?GetTypeInfo@?$IDispatchImpl@UIOPOSKeylock@@$1?IID_IOPOSKeylock@@3U_GUID@@B$1?LIBID_OposKeylock_CCO@@3U3@B$00$0A@VCComTypeInfoHolder@ATL@@@ATL@@UAGJIKPAPAUITypeInfo@@@Z 1000178f f i Keylock.obj
 0001:000007b3       ?GetIDsOfNames@?$IDispatchImpl@UIOPOSKeylock@@$1?IID_IOPOSKeylock@@3U_GUID@@B$1?LIBID_OposKeylock_CCO@@3U3@B$00$0A@VCComTypeInfoHolder@ATL@@@ATL@@UAGJABU_GUID@@PAPA_WIKPAJ@Z 100017b3 f i Keylock.obj
 0001:000007d3       ?Invoke@?$IDispatchImpl@UIOPOSKeylock@@$1?IID_IOPOSKeylock@@3U_GUID@@B$1?LIBID_OposKeylock_CCO@@3U3@B$00$0A@VCComTypeInfoHolder@ATL@@@ATL@@UAGJJABU_GUID@@KGPAUtagDISPPARAMS@@PAUtagVARIANT@@PAUtagEXCEPINFO@@PAI@Z 100017d3 f i Keylock.obj
 0001:000007e1       ?CreateControlWindow@?$CComControl@VCOPOSKeylock@@V?$CWindowImpl@VCOPOSKeylock@@VCWindow@ATL@@V?$CWinTraits@$0FGAAAAAA@$0A@@3@@ATL@@@ATL@@UAEPAUHWND__@@PAU3@AAUtagRECT@@@Z 100017e1 f i Keylock.obj
 0001:00000810       ?ControlQueryInterface@?$CComControl@VCOPOSKeylock@@V?$CWindowImpl@VCOPOSKeylock@@VCWindow@ATL@@V?$CWinTraits@$0FGAAAAAA@$0A@@3@@ATL@@@ATL@@UAEJABU_GUID@@PAPAX@Z 10001810 f i Keylock.obj
 0001:0000082b       ?GetClassID@?$IPersistStorageImpl@VCOPOSKeylock@@@ATL@@UAGJPAU_GUID@@@Z 1000182b f i Keylock.obj
 0001:0000082b       ?GetUserClassID@?$IOleObjectImpl@VCOPOSKeylock@@@ATL@@UAGJPAU_GUID@@@Z 1000182b f i Keylock.obj
 0001:0000082b       ?GetClassID@?$IPersistStreamInitImpl@VCOPOSKeylock@@@ATL@@UAGJPAU_GUID@@@Z 1000182b f i Keylock.obj
 0001:0000084f       ?IsDirty@?$IPersistStreamInitImpl@VCOPOSKeylock@@@ATL@@UAGJXZ 1000184f f i Keylock.obj
 0001:0000086e       ?Load@?$IPersistStreamInitImpl@VCOPOSKeylock@@@ATL@@UAGJPAUIStream@@@Z 1000186e f i Keylock.obj
 0001:0000088d       ?Save@?$IPersistStreamInitImpl@VCOPOSKeylock@@@ATL@@UAGJPAUIStream@@H@Z 1000188d f i Keylock.obj
 0001:000008af       ?GetSizeMax@?$IPersistStreamInitImpl@VCOPOSKeylock@@@ATL@@UAGJPAT_ULARGE_INTEGER@@@Z 100018af f i Keylock.obj
 0001:00000a8e       ?InitNew@?$IPersistStreamInitImpl@VCOPOSKeylock@@@ATL@@UAGJXZ 10001a8e f i Keylock.obj
 0001:00000aab       ?GetDropTarget@?$IOleInPlaceObjectWindowlessImpl@VCOPOSKeylock@@@ATL@@UAGJPAPAUIDropTarget@@@Z 10001aab f i Keylock.obj
 0001:00000aab       ?SODataDummy@COPOSKeylock@@MAGJJ@Z 10001aab f i Keylock.obj
 0001:00000aab       ?ContextSensitiveHelp@?$IOleInPlaceActiveObjectImpl@VCOPOSKeylock@@@ATL@@UAGJH@Z 10001aab f i Keylock.obj
 0001:00000aab       ?OnMnemonic@?$IOleControlImpl@VCOPOSKeylock@@@ATL@@UAGJPAUtagMSG@@@Z 10001aab f i Keylock.obj
 0001:00000aab       ?SOOutputCompleteDummy@COPOSKeylock@@MAGJJ@Z 10001aab f i Keylock.obj
 0001:00000aab       ?Unfreeze@?$IViewObjectExImpl@VCOPOSKeylock@@@ATL@@UAGJK@Z 10001aab f i Keylock.obj
 0001:00000aab       ?QueryGetData@?$IDataObjectImpl@VCOPOSKeylock@@@ATL@@UAGJPAUtagFORMATETC@@@Z 10001aab f i Keylock.obj
 0001:00000aab       ?GetControlInfo@?$IOleControlImpl@VCOPOSKeylock@@@ATL@@UAGJPAUtagCONTROLINFO@@@Z 10001aab f i Keylock.obj
 0001:00000aab       ?ContextSensitiveHelp@?$IOleInPlaceObjectWindowlessImpl@VCOPOSKeylock@@@ATL@@UAGJH@Z 10001aab f i Keylock.obj
 0001:00000aab       ?SetColorScheme@?$IOleObjectImpl@VCOPOSKeylock@@@ATL@@UAGJPAUtagLOGPALETTE@@@Z 10001aab f i Keylock.obj
 0001:00000ab3       ?EnableModeless@?$IOleInPlaceActiveObjectImpl@VCOPOSKeylock@@@ATL@@UAGJH@Z 10001ab3 f i Keylock.obj
 0001:00000ab3       ?OnAmbientPropertyChange@?$IOleControlImpl@VCOPOSKeylock@@@ATL@@UAGJJ@Z 10001ab3 f i Keylock.obj
 0001:00000ab3       ?SaveCompleted@?$IPersistStorageImpl@VCOPOSKeylock@@@ATL@@UAGJPAUIStorage@@@Z 10001ab3 f i Keylock.obj
 0001:00000ab3       ?OnFrameWindowActivate@?$IOleInPlaceActiveObjectImpl@VCOPOSKeylock@@@ATL@@UAGJH@Z 10001ab3 f i Keylock.obj
 0001:00000ab8       ?SetClientSite@?$IOleObjectImpl@VCOPOSKeylock@@@ATL@@UAGJPAUIOleClientSite@@@Z 10001ab8 f i Keylock.obj
 0001:00000ad5       ?GetClientSite@?$IOleObjectImpl@VCOPOSKeylock@@@ATL@@UAGJPAPAUIOleClientSite@@@Z 10001ad5 f i Keylock.obj
 0001:00000af2       ?SetHostNames@?$IOleObjectImpl@VCOPOSKeylock@@@ATL@@UAGJPB_W0@Z 10001af2 f i Keylock.obj
 0001:00000af7       ?Close@?$IOleObjectImpl@VCOPOSKeylock@@@ATL@@UAGJK@Z 10001af7 f i Keylock.obj
 0001:00000b14       ?QueryInterface@CRegObject@ATL@@UAGJABU_GUID@@PAPAX@Z 10001b14 f i Keylock.obj
 0001:00000b14       ?GetCanonicalFormatEtc@?$IDataObjectImpl@VCOPOSKeylock@@@ATL@@UAGJPAUtagFORMATETC@@0@Z 10001b14 f i Keylock.obj
 0001:00000b14       ?GetDataHere@?$IDataObjectImpl@VCOPOSKeylock@@@ATL@@UAGJPAUtagFORMATETC@@PAUtagSTGMEDIUM@@@Z 10001b14 f i Keylock.obj
 0001:00000b14       ?GetClipboardData@?$IOleObjectImpl@VCOPOSKeylock@@@ATL@@UAGJKPAPAUIDataObject@@@Z 10001b14 f i Keylock.obj
 0001:00000b14       ?SetMoniker@?$IOleObjectImpl@VCOPOSKeylock@@@ATL@@UAGJKPAUIMoniker@@@Z 10001b14 f i Keylock.obj
 0001:00000b14       ?EnumFormatEtc@?$IDataObjectImpl@VCOPOSKeylock@@@ATL@@UAGJKPAPAUIEnumFORMATETC@@@Z 10001b14 f i Keylock.obj
 0001:00000b14       ?GetRect@?$IViewObjectExImpl@VCOPOSKeylock@@@ATL@@UAGJKPAU_RECTL@@@Z 10001b14 f i Keylock.obj
 0001:00000b1c       ?GetMoniker@?$IOleObjectImpl@VCOPOSKeylock@@@ATL@@UAGJKKPAPAUIMoniker@@@Z 10001b1c f i Keylock.obj
 0001:00000b1c       ?SetData@?$IDataObjectImpl@VCOPOSKeylock@@@ATL@@UAGJPAUtagFORMATETC@@PAUtagSTGMEDIUM@@H@Z 10001b1c f i Keylock.obj
 0001:00000b1c       ?InitFromData@?$IOleObjectImpl@VCOPOSKeylock@@@ATL@@UAGJPAUIDataObject@@HK@Z 10001b1c f i Keylock.obj
 0001:00000b24       ?DoVerb@?$IOleObjectImpl@VCOPOSKeylock@@@ATL@@UAGJJPAUtagMSG@@PAUIOleClientSite@@JPAUHWND__@@PBUtagRECT@@@Z 10001b24 f i Keylock.obj
 0001:00000c18       ?EnumVerbs@?$IOleObjectImpl@VCOPOSKeylock@@@ATL@@UAGJPAPAUIEnumOLEVERB@@@Z 10001c18 f i Keylock.obj
 0001:00000c3a       ?Release@CRegObject@ATL@@UAGKXZ 10001c3a f i Keylock.obj
 0001:00000c3a       ?IsUpToDate@?$IOleObjectImpl@VCOPOSKeylock@@@ATL@@UAGJXZ 10001c3a f i Keylock.obj
 0001:00000c3a       ?HandsOffStorage@?$IPersistStorageImpl@VCOPOSKeylock@@@ATL@@UAGJXZ 10001c3a f i Keylock.obj
 0001:00000c3a       ?Update@?$IOleObjectImpl@VCOPOSKeylock@@@ATL@@UAGJXZ 10001c3a f i Keylock.obj
 0001:00000c3f       ?GetUserType@?$IOleObjectImpl@VCOPOSKeylock@@@ATL@@UAGJKPAPA_W@Z 10001c3f f i Keylock.obj
 0001:00000c57       ?SetExtent@?$IOleObjectImpl@VCOPOSKeylock@@@ATL@@UAGJKPAUtagSIZE@@@Z 10001c57 f i Keylock.obj
 0001:00000c77       ?GetExtent@?$IOleObjectImpl@VCOPOSKeylock@@@ATL@@UAGJKPAUtagSIZE@@@Z 10001c77 f i Keylock.obj
 0001:00000cb5       ?Advise@?$IOleObjectImpl@VCOPOSKeylock@@@ATL@@UAGJPAUIAdviseSink@@PAK@Z 10001cb5 f i Keylock.obj
 0001:00000cd5       ?Unadvise@?$IOleObjectImpl@VCOPOSKeylock@@@ATL@@UAGJK@Z 10001cd5 f i Keylock.obj
 0001:00000d04       ?EnumAdvise@?$IOleObjectImpl@VCOPOSKeylock@@@ATL@@UAGJPAPAUIEnumSTATDATA@@@Z 10001d04 f i Keylock.obj
 0001:00000d44       ?GetMiscStatus@?$IOleObjectImpl@VCOPOSKeylock@@@ATL@@UAGJKPAK@Z 10001d44 f i Keylock.obj
 0001:00000d5c       ?GetWindow@?$IOleInPlaceActiveObjectImpl@VCOPOSKeylock@@@ATL@@UAGJPAPAUHWND__@@@Z 10001d5c f i Keylock.obj
 0001:00000da9       ?TranslateAcceleratorW@?$IOleInPlaceActiveObjectImpl@VCOPOSKeylock@@@ATL@@UAGJPAUtagMSG@@@Z 10001da9 f i Keylock.obj
 0001:00000e57       ?OnDocWindowActivate@?$IOleInPlaceActiveObjectImpl@VCOPOSKeylock@@@ATL@@UAGJH@Z 10001e57 f i Keylock.obj
 0001:00000e79       ?ResizeBorder@?$IOleInPlaceActiveObjectImpl@VCOPOSKeylock@@@ATL@@UAGJPBUtagRECT@@PAUIOleInPlaceUIWindow@@H@Z 10001e79 f i Keylock.obj
 0001:00000e7e       ?Draw@?$IViewObjectExImpl@VCOPOSKeylock@@@ATL@@UAGJKJPAXPAUtagDVTARGETDEVICE@@PAUHDC__@@2PBU_RECTL@@3P6GHK@ZK@Z 10001e7e f i Keylock.obj
 0001:00000eb0       ?GetColorSet@?$IViewObjectExImpl@VCOPOSKeylock@@@ATL@@UAGJKJPAXPAUtagDVTARGETDEVICE@@PAUHDC__@@PAPAUtagLOGPALETTE@@@Z 10001eb0 f i Keylock.obj
 0001:00000eb8       ?Freeze@?$IViewObjectExImpl@VCOPOSKeylock@@@ATL@@UAGJKJPAXPAK@Z 10001eb8 f i Keylock.obj
 0001:00000eb8       ?SOErrorDummy@COPOSKeylock@@MAGJJJJPAJ@Z 10001eb8 f i Keylock.obj
 0001:00000ec0       ?SetAdvise@?$IViewObjectExImpl@VCOPOSKeylock@@@ATL@@UAGJKKPAUIAdviseSink@@@Z 10001ec0 f i Keylock.obj
 0001:00000edf       ?GetAdvise@?$IViewObjectExImpl@VCOPOSKeylock@@@ATL@@UAGJPAK0PAPAUIAdviseSink@@@Z 10001edf f i Keylock.obj
 0001:00000f14       ?GetExtent@?$IViewObjectExImpl@VCOPOSKeylock@@@ATL@@UAGJKJPAUtagDVTARGETDEVICE@@PAUtagSIZE@@@Z 10001f14 f i Keylock.obj
 0001:00000f45       ?GetViewStatus@?$IViewObjectExImpl@VCOPOSKeylock@@@ATL@@UAGJPAK@Z 10001f45 f i Keylock.obj
 0001:00000f62       ?QueryHitPoint@?$IViewObjectExImpl@VCOPOSKeylock@@@ATL@@UAGJKPBUtagRECT@@UtagPOINT@@JPAK@Z 10001f62 f i Keylock.obj
 0001:00000fa3       ?QueryHitRect@?$IViewObjectExImpl@VCOPOSKeylock@@@ATL@@UAGJKPBUtagRECT@@0JPAK@Z 10001fa3 f i Keylock.obj
 0001:00000ffe       ?GetNaturalExtent@?$IViewObjectExImpl@VCOPOSKeylock@@@ATL@@UAGJKJPAUtagDVTARGETDEVICE@@PAUHDC__@@PAUtagExtentInfo@@PAUtagSIZE@@@Z 10001ffe f i Keylock.obj
 0001:00001049       ?GetWindow@?$IOleInPlaceObjectWindowlessImpl@VCOPOSKeylock@@@ATL@@UAGJPAPAUHWND__@@@Z 10002049 f i Keylock.obj
 0001:00001096       ?InPlaceDeactivate@?$IOleInPlaceObjectWindowlessImpl@VCOPOSKeylock@@@ATL@@UAGJXZ 10002096 f i Keylock.obj
 0001:000010b0       ?UIDeactivate@?$IOleInPlaceObjectWindowlessImpl@VCOPOSKeylock@@@ATL@@UAGJXZ 100020b0 f i Keylock.obj
 0001:000010ca       ?SetObjectRects@?$IOleInPlaceObjectWindowlessImpl@VCOPOSKeylock@@@ATL@@UAGJPBUtagRECT@@0@Z 100020ca f i Keylock.obj
 0001:000010ea       ?ReactivateAndUndo@?$IOleInPlaceObjectWindowlessImpl@VCOPOSKeylock@@@ATL@@UAGJXZ 100020ea f i Keylock.obj
 0001:000010f2       ?OnWindowMessage@?$IOleInPlaceObjectWindowlessImpl@VCOPOSKeylock@@@ATL@@UAGJIIJPAJ@Z 100020f2 f i Keylock.obj
 0001:00001162       ?EnumConnectionPoints@?$IConnectionPointContainerImpl@VCOPOSKeylock@@@ATL@@UAGJPAPAUIEnumConnectionPoints@@@Z 10002162 f i Keylock.obj
 0001:000012ee       ?FindConnectionPoint@?$IConnectionPointContainerImpl@VCOPOSKeylock@@@ATL@@UAGJABU_GUID@@PAPAUIConnectionPoint@@@Z 100022ee f i Keylock.obj
 0001:00001391       ?IsDirty@?$IPersistStorageImpl@VCOPOSKeylock@@@ATL@@UAGJXZ 10002391 f i Keylock.obj
 0001:000013c1       ?InitNew@?$IPersistStorageImpl@VCOPOSKeylock@@@ATL@@UAGJPAUIStorage@@@Z 100023c1 f i Keylock.obj
 0001:000013f1       ?Load@?$IPersistStorageImpl@VCOPOSKeylock@@@ATL@@UAGJPAUIStorage@@@Z 100023f1 f i Keylock.obj
 0001:0000145d       ?Save@?$IPersistStorageImpl@VCOPOSKeylock@@@ATL@@UAGJPAUIStorage@@H@Z 1000245d f i Keylock.obj
 0001:000014d0       ?GetPages@?$ISpecifyPropertyPagesImpl@VCOPOSKeylock@@@ATL@@UAGJPAUtagCAUUID@@@Z 100024d0 f i Keylock.obj
 0001:000014e7       ?QuickActivate@?$IQuickActivateImpl@VCOPOSKeylock@@@ATL@@UAGJPAUtagQACONTAINER@@PAUtagQACONTROL@@@Z 100024e7 f i Keylock.obj
 0001:0000150a       ?SetContentExtent@?$IQuickActivateImpl@VCOPOSKeylock@@@ATL@@UAGJPAUtagSIZE@@@Z 1000250a f i Keylock.obj
 0001:00001536       ?GetContentExtent@?$IQuickActivateImpl@VCOPOSKeylock@@@ATL@@UAGJPAUtagSIZE@@@Z 10002536 f i Keylock.obj
 0001:00001570       ?GetData@?$IDataObjectImpl@VCOPOSKeylock@@@ATL@@UAGJPAUtagFORMATETC@@PAUtagSTGMEDIUM@@@Z 10002570 f i Keylock.obj
 0001:00001593       ?DAdvise@?$IDataObjectImpl@VCOPOSKeylock@@@ATL@@UAGJPAUtagFORMATETC@@KPAUIAdviseSink@@PAK@Z 10002593 f i Keylock.obj
 0001:000015d4       ?DUnadvise@?$IDataObjectImpl@VCOPOSKeylock@@@ATL@@UAGJK@Z 100025d4 f i Keylock.obj
 0001:00001602       ?EnumDAdvise@?$IDataObjectImpl@VCOPOSKeylock@@@ATL@@UAGJPAPAUIEnumSTATDATA@@@Z 10002602 f i Keylock.obj
 0001:00001641       ?GetClassInfoW@?$IProvideClassInfo2Impl@$1?CLSID_OPOSKeylock@@3U_GUID@@B$1?DIID__IOPOSKeylockEvents@@3U2@B$1?LIBID_OposKeylock_CCO@@3U2@B$00$0A@VCComTypeInfoHolder@ATL@@@ATL@@UAGJPAPAUITypeInfo@@@Z 10002641 f i Keylock.obj
 0001:00001657       ?GetGUID@?$IProvideClassInfo2Impl@$1?CLSID_OPOSKeylock@@3U_GUID@@B$1?DIID__IOPOSKeylockEvents@@3U2@B$1?LIBID_OposKeylock_CCO@@3U2@B$00$0A@VCComTypeInfoHolder@ATL@@@ATL@@UAGJKPAU_GUID@@@Z 10002657 f i Keylock.obj
 0001:00001695       ?FAccessAllowed@?$IObjectSafetyImpl@VCOPOSKeylock@@$02@ATL@@MAEHXZ 10002695 f i Keylock.obj
 0001:00001695       __get_startup_argv_mode    10002695 f i LIBCMT:argv_mode.obj
 0001:00001699       ?GetInterfaceSafetyOptions@?$IObjectSafetyImpl@VCOPOSKeylock@@$02@ATL@@UAGJABU_GUID@@PAK1@Z 10002699 f i Keylock.obj
 0001:0000170d       ?SetInterfaceSafetyOptions@?$IObjectSafetyImpl@VCOPOSKeylock@@$02@ATL@@UAGJABU_GUID@@KK@Z 1000270d f i Keylock.obj
 0001:00001787       ?_LocCPQueryInterface@?$IConnectionPointImpl@VCOPOSKeylock@@$1?DIID__IOPOSKeylockEvents@@3U_GUID@@BVCComDynamicUnkArray@ATL@@@ATL@@UAGJABU_GUID@@PAPAX@Z 10002787 f i Keylock.obj
 0001:00001787       ?_LocCPQueryInterface@?$IConnectionPointImpl@VCOPOSKeylock@@$1?IID_IPropertyNotifySink@@3U_GUID@@BVCComDynamicUnkArray@ATL@@@ATL@@UAGJABU_GUID@@PAPAX@Z 10002787 f i Keylock.obj
 0001:000017d4       ?GetConnectionInterface@?$IConnectionPointImpl@VCOPOSKeylock@@$1?IID_IPropertyNotifySink@@3U_GUID@@BVCComDynamicUnkArray@ATL@@@ATL@@UAGJPAU_GUID@@@Z 100027d4 f i Keylock.obj
 0001:000017f8       ?GetConnectionPointContainer@?$IConnectionPointImpl@VCOPOSKeylock@@$1?IID_IPropertyNotifySink@@3U_GUID@@BVCComDynamicUnkArray@ATL@@@ATL@@UAGJPAPAUIConnectionPointContainer@@@Z 100027f8 f i Keylock.obj
 0001:0000181b       ?Advise@?$IConnectionPointImpl@VCOPOSKeylock@@$1?IID_IPropertyNotifySink@@3U_GUID@@BVCComDynamicUnkArray@ATL@@@ATL@@UAGJPAUIUnknown@@PAK@Z 1000281b f i Keylock.obj
 0001:0000181b       ?Advise@?$IConnectionPointImpl@VCOPOSKeylock@@$1?DIID__IOPOSKeylockEvents@@3U_GUID@@BVCComDynamicUnkArray@ATL@@@ATL@@UAGJPAUIUnknown@@PAK@Z 1000281b f i Keylock.obj
 0001:000018bb       ?Unadvise@?$IConnectionPointImpl@VCOPOSKeylock@@$1?IID_IPropertyNotifySink@@3U_GUID@@BVCComDynamicUnkArray@ATL@@@ATL@@UAGJK@Z 100028bb f i Keylock.obj
 0001:000018bb       ?Unadvise@?$IConnectionPointImpl@VCOPOSKeylock@@$1?DIID__IOPOSKeylockEvents@@3U_GUID@@BVCComDynamicUnkArray@ATL@@@ATL@@UAGJK@Z 100028bb f i Keylock.obj
 0001:000018fb       ?EnumConnections@?$IConnectionPointImpl@VCOPOSKeylock@@$1?DIID__IOPOSKeylockEvents@@3U_GUID@@BVCComDynamicUnkArray@ATL@@@ATL@@UAGJPAPAUIEnumConnections@@@Z 100028fb f i Keylock.obj
 0001:000018fb       ?EnumConnections@?$IConnectionPointImpl@VCOPOSKeylock@@$1?IID_IPropertyNotifySink@@3U_GUID@@BVCComDynamicUnkArray@ATL@@@ATL@@UAGJPAPAUIEnumConnections@@@Z 100028fb f i Keylock.obj
 0001:000019f6       ?GetCategoryMap@CComObjectRootBase@ATL@@SAPBU_ATL_CATMAP_ENTRY@2@XZ 100029f6 f i Keylock.obj
 0001:000019f6       ?GetObjectDescription@?$CComCoClass@VCOPOSKeylock@@$1?CLSID_OPOSKeylock@@3U_GUID@@B@ATL@@SGPB_WXZ 100029f6 f i Keylock.obj
 0001:000019f9       ?GetConnectionInterface@?$IConnectionPointImpl@VCOPOSKeylock@@$1?DIID__IOPOSKeylockEvents@@3U_GUID@@BVCComDynamicUnkArray@ATL@@@ATL@@UAGJPAU_GUID@@@Z 100029f9 f i Keylock.obj
 0001:00001a1d       ?GetConnectionPointContainer@?$IConnectionPointImpl@VCOPOSKeylock@@$1?DIID__IOPOSKeylockEvents@@3U_GUID@@BVCComDynamicUnkArray@ATL@@@ATL@@UAGJPAPAUIConnectionPointContainer@@@Z 10002a1d f i Keylock.obj
 0001:00001a40       ?UpdateRegistry@COPOSKeylock@@SGJH@Z 10002a40 f i Keylock.obj
 0001:00001a58       ?ProcessWindowMessage@COPOSKeylock@@UAEHPAUHWND__@@IIJAAJK@Z 10002a58 f i Keylock.obj
 0001:00001aa1       ?SODirectIO@COPOSKeylock@@MAGJJPAJPAPA_W@Z 10002aa1 f i Keylock.obj
 0001:00001aea       ?SOStatusUpdate@COPOSKeylock@@MAGJJ@Z 10002aea f i Keylock.obj
 0001:00001b23       ?Lock@CAtlModule@ATL@@UAEJXZ 10002b23 f i Keylock.obj
 0001:00001b2d       ?Unlock@CAtlModule@ATL@@UAEJXZ 10002b2d f i Keylock.obj
 0001:00001b37       ?GetLockCount@CAtlModule@ATL@@UAEJXZ 10002b37 f i Keylock.obj
 0001:00001b3b       ?GetGITPtr@CAtlModule@ATL@@UAEJPAPAUIGlobalInterfaceTable@@@Z 10002b3b f i Keylock.obj
 0001:00001b87       ?AddCommonRGSReplacements@?$CAtlModuleT@VCComModule@ATL@@@ATL@@UAEJPAUIRegistrarBase@@@Z 10002b87 f i Keylock.obj
 0001:00001ba1       ?UpdateRegistryFromResourceD@CComModule@ATL@@UAGJIHPAU_ATL_REGMAP_ENTRY@2@@Z 10002ba1 f i Keylock.obj
 0001:00001ba1       ?UpdateRegistryFromResourceD@CComModule@ATL@@UAGJPB_WHPAU_ATL_REGMAP_ENTRY@2@@Z 10002ba1 f i Keylock.obj
 0001:00001ba9       ?CreateInstance@?$CComCreator@V?$CComObjectCached@VCComClassFactory@ATL@@@ATL@@@ATL@@SGJPAXABU_GUID@@PAPAX@Z 10002ba9 f i Keylock.obj
 0001:00001c49       ?UpdateRegistryFromResource@CComModule@ATL@@UAGJPB_WHPAU_ATL_REGMAP_ENTRY@2@@Z 10002c49 f i Keylock.obj
 0001:00001c52       ?UpdateRegistryFromResource@CComModule@ATL@@UAGJIHPAU_ATL_REGMAP_ENTRY@2@@Z 10002c52 f i Keylock.obj
 0001:00001c5b       ?CreateInstance@?$CComCreator2@V?$CComCreator@V?$CComObject@VCOPOSKeylock@@@ATL@@@ATL@@V?$CComCreator@V?$CComAggObject@VCOPOSKeylock@@@ATL@@@2@@ATL@@SGJPAXABU_GUID@@PAPAX@Z 10002c5b f i Keylock.obj
 0001:00001c7b       ??_GCComModule@ATL@@UAEPAXI@Z 10002c7b f i Keylock.obj
 0001:00001c7b       ??_ECComModule@ATL@@UAEPAXI@Z 10002c7b f i Keylock.obj
 0001:00001ca3       ?AddRef@?$CComObjectCached@VCComClassFactory@ATL@@@ATL@@UAGKXZ 10002ca3 f i Keylock.obj
 0001:00001cca       ?Release@?$CComObjectCached@VCComClassFactory@ATL@@@ATL@@UAGKXZ 10002cca f i Keylock.obj
 0001:00001d00       ?QueryInterface@?$CComObjectCached@VCComClassFactory@ATL@@@ATL@@UAGJABU_GUID@@PAPAX@Z 10002d00 f i Keylock.obj
 0001:00001d1a       ??_E?$CComObjectCached@VCComClassFactory@ATL@@@ATL@@UAEPAXI@Z 10002d1a f i Keylock.obj
 0001:00001d1a       ??_G?$CComObjectCached@VCComClassFactory@ATL@@@ATL@@UAEPAXI@Z 10002d1a f i Keylock.obj
 0001:00001d3c       ?Next@?$CComEnumImpl@UIEnumConnectionPoints@@$1?_GUID_b196b285_bab4_101a_b69c_00aa00341d07@@3U__s_GUID@@BPAUIConnectionPoint@@V?$_CopyInterface@UIConnectionPoint@@@ATL@@@ATL@@UAGJKPAPAUIConnectionPoint@@PAK@Z 10002d3c f i Keylock.obj
 0001:00001e13       ?Skip@?$CComEnumImpl@UIEnumConnectionPoints@@$1?_GUID_b196b285_bab4_101a_b69c_00aa00341d07@@3U__s_GUID@@BPAUIConnectionPoint@@V?$_CopyInterface@UIConnectionPoint@@@ATL@@@ATL@@UAGJK@Z 10002e13 f i Keylock.obj
 0001:00001e40       ?Reset@?$CComEnumImpl@UIEnumConnectionPoints@@$1?_GUID_b196b285_bab4_101a_b69c_00aa00341d07@@3U__s_GUID@@BPAUIConnectionPoint@@V?$_CopyInterface@UIConnectionPoint@@@ATL@@@ATL@@UAGJXZ 10002e40 f i Keylock.obj
 0001:00001e40       ?Reset@?$CComEnumImpl@UIEnumConnections@@$1?_GUID_b196b287_bab4_101a_b69c_00aa00341d07@@3U__s_GUID@@BUtagCONNECTDATA@@V?$_Copy@UtagCONNECTDATA@@@ATL@@@ATL@@UAGJXZ 10002e40 f i Keylock.obj
 0001:00001e52       ?Clone@?$CComEnumImpl@UIEnumConnectionPoints@@$1?_GUID_b196b285_bab4_101a_b69c_00aa00341d07@@3U__s_GUID@@BPAUIConnectionPoint@@V?$_CopyInterface@UIConnectionPoint@@@ATL@@@ATL@@UAGJPAPAUIEnumConnectionPoints@@@Z 10002e52 f i Keylock.obj
 0001:00001f33       ?AddRef@?$CComObject@V?$CComEnum@UIEnumConnectionPoints@@$1?_GUID_b196b285_bab4_101a_b69c_00aa00341d07@@3U__s_GUID@@BPAUIConnectionPoint@@V?$_CopyInterface@UIConnectionPoint@@@ATL@@VCComSingleThreadModel@6@@ATL@@@ATL@@UAGKXZ 10002f33 f i Keylock.obj
 0001:00001f33       ?AddRef@?$CComObject@V?$CComEnum@UIEnumConnections@@$1?_GUID_b196b287_bab4_101a_b69c_00aa00341d07@@3U__s_GUID@@BUtagCONNECTDATA@@V?$_Copy@UtagCONNECTDATA@@@ATL@@VCComSingleThreadModel@6@@ATL@@@ATL@@UAGKXZ 10002f33 f i Keylock.obj
 0001:00001f44       ?Release@?$CComObject@V?$CComEnum@UIEnumConnectionPoints@@$1?_GUID_b196b285_bab4_101a_b69c_00aa00341d07@@3U__s_GUID@@BPAUIConnectionPoint@@V?$_CopyInterface@UIConnectionPoint@@@ATL@@VCComSingleThreadModel@6@@ATL@@@ATL@@UAGKXZ 10002f44 f i Keylock.obj
 0001:00001f44       ?Release@?$CComObject@V?$CComEnum@UIEnumConnections@@$1?_GUID_b196b287_bab4_101a_b69c_00aa00341d07@@3U__s_GUID@@BUtagCONNECTDATA@@V?$_Copy@UtagCONNECTDATA@@@ATL@@VCComSingleThreadModel@6@@ATL@@@ATL@@UAGKXZ 10002f44 f i Keylock.obj
 0001:00001f80       ?QueryInterface@?$CComObject@V?$CComEnum@UIEnumConnectionPoints@@$1?_GUID_b196b285_bab4_101a_b69c_00aa00341d07@@3U__s_GUID@@BPAUIConnectionPoint@@V?$_CopyInterface@UIConnectionPoint@@@ATL@@VCComSingleThreadModel@6@@ATL@@@ATL@@UAGJABU_GUID@@PAPAX@Z 10002f80 f i Keylock.obj
 0001:00001f9a       ??_E?$CComObject@V?$CComEnum@UIEnumConnectionPoints@@$1?_GUID_b196b285_bab4_101a_b69c_00aa00341d07@@3U__s_GUID@@BPAUIConnectionPoint@@V?$_CopyInterface@UIConnectionPoint@@@ATL@@VCComSingleThreadModel@6@@ATL@@@ATL@@UAEPAXI@Z 10002f9a f i Keylock.obj
 0001:00001f9a       ??_G?$CComObject@V?$CComEnum@UIEnumConnectionPoints@@$1?_GUID_b196b285_bab4_101a_b69c_00aa00341d07@@3U__s_GUID@@BPAUIConnectionPoint@@V?$_CopyInterface@UIConnectionPoint@@@ATL@@VCComSingleThreadModel@6@@ATL@@@ATL@@UAEPAXI@Z 10002f9a f i Keylock.obj
 0001:00001fbc       ?AddRef@CRegObject@ATL@@UAGKXZ 10002fbc f i Keylock.obj
 0001:00001fc2       ?AddReplacement@CRegObject@ATL@@UAGJPB_W0@Z 10002fc2 f i Keylock.obj
 0001:00001ffb       ?ClearReplacements@CRegObject@ATL@@UAGJXZ 10002ffb f i Keylock.obj
 0001:0000200d       ??_ECRegObject@ATL@@UAEPAXI@Z 1000300d f i Keylock.obj
 0001:0000200d       ??_GCRegObject@ATL@@UAEPAXI@Z 1000300d f i Keylock.obj
 0001:0000202f       ?AddRef@?$CComAggObject@VCOPOSKeylock@@@ATL@@UAGKXZ 1000302f f i Keylock.obj
 0001:00002040       ?Release@?$CComAggObject@VCOPOSKeylock@@@ATL@@UAGKXZ 10003040 f i Keylock.obj
 0001:0000207c       ?QueryInterface@?$CComAggObject@VCOPOSKeylock@@@ATL@@UAGJABU_GUID@@PAPAX@Z 1000307c f i Keylock.obj
 0001:000020cb       ?AddRef@?$CComContainedObject@VCOPOSKeylock@@@ATL@@UAGKXZ 100030cb f i Keylock.obj
 0001:000020e1       ?Release@?$CComContainedObject@VCOPOSKeylock@@@ATL@@UAGKXZ 100030e1 f i Keylock.obj
 0001:000020f7       ?QueryInterface@?$CComContainedObject@VCOPOSKeylock@@@ATL@@UAGJABU_GUID@@PAPAX@Z 100030f7 f i Keylock.obj
 0001:00002112       ??_E?$CComAggObject@VCOPOSKeylock@@@ATL@@UAEPAXI@Z 10003112 f i Keylock.obj
 0001:00002112       ??_G?$CComAggObject@VCOPOSKeylock@@@ATL@@UAEPAXI@Z 10003112 f i Keylock.obj
 0001:00002137       ?AddRef@?$CComObject@VCOPOSKeylock@@@ATL@@UAGKXZ 10003137 f i Keylock.obj
 0001:0000214e       ?Release@?$CComObject@VCOPOSKeylock@@@ATL@@UAGKXZ 1000314e f i Keylock.obj
 0001:00002190       ?QueryInterface@?$CComObject@VCOPOSKeylock@@@ATL@@UAGJABU_GUID@@PAPAX@Z 10003190 f i Keylock.obj
 0001:000021aa       ?OnDrawAdvanced@CComControlBase@ATL@@UAEJAAUATL_DRAWINFO@@@Z 100031aa f i Keylock.obj
 0001:0000229d       ?Next@?$CComEnumImpl@UIEnumConnections@@$1?_GUID_b196b287_bab4_101a_b69c_00aa00341d07@@3U__s_GUID@@BUtagCONNECTDATA@@V?$_Copy@UtagCONNECTDATA@@@ATL@@@ATL@@UAGJKPAUtagCONNECTDATA@@PAK@Z 1000329d f i Keylock.obj
 0001:00002374       ?Skip@?$CComEnumImpl@UIEnumConnections@@$1?_GUID_b196b287_bab4_101a_b69c_00aa00341d07@@3U__s_GUID@@BUtagCONNECTDATA@@V?$_Copy@UtagCONNECTDATA@@@ATL@@@ATL@@UAGJK@Z 10003374 f i Keylock.obj
 0001:000023a1       ?Clone@?$CComEnumImpl@UIEnumConnections@@$1?_GUID_b196b287_bab4_101a_b69c_00aa00341d07@@3U__s_GUID@@BUtagCONNECTDATA@@V?$_Copy@UtagCONNECTDATA@@@ATL@@@ATL@@UAGJPAPAUIEnumConnections@@@Z 100033a1 f i Keylock.obj
 0001:00002482       ?QueryInterface@?$CComObject@V?$CComEnum@UIEnumConnections@@$1?_GUID_b196b287_bab4_101a_b69c_00aa00341d07@@3U__s_GUID@@BUtagCONNECTDATA@@V?$_Copy@UtagCONNECTDATA@@@ATL@@VCComSingleThreadModel@6@@ATL@@@ATL@@UAGJABU_GUID@@PAPAX@Z 10003482 f i Keylock.obj
 0001:0000249c       ??_G?$CComObject@V?$CComEnum@UIEnumConnections@@$1?_GUID_b196b287_bab4_101a_b69c_00aa00341d07@@3U__s_GUID@@BUtagCONNECTDATA@@V?$_Copy@UtagCONNECTDATA@@@ATL@@VCComSingleThreadModel@6@@ATL@@@ATL@@UAEPAXI@Z 1000349c f i Keylock.obj
 0001:0000249c       ??_E?$CComObject@V?$CComEnum@UIEnumConnections@@$1?_GUID_b196b287_bab4_101a_b69c_00aa00341d07@@3U__s_GUID@@BUtagCONNECTDATA@@V?$_Copy@UtagCONNECTDATA@@@ATL@@VCComSingleThreadModel@6@@ATL@@@ATL@@UAEPAXI@Z 1000349c f i Keylock.obj
 0001:000024be       ??_E?$CComObject@VCOPOSKeylock@@@ATL@@W3AEPAXI@Z 100034be f i Keylock.obj
 0001:000024c6       ??_E?$CComObject@VCOPOSKeylock@@@ATL@@WEM@AEPAXI@Z 100034c6 f i Keylock.obj
 0001:000024ce       ?QueryInterface@?$CComObject@VCOPOSKeylock@@@ATL@@WHA@AGJABU_GUID@@PAPAX@Z 100034ce f i Keylock.obj
 0001:000024d8       ?AddRef@?$CComObject@VCOPOSKeylock@@@ATL@@WHA@AGKXZ 100034d8 f i Keylock.obj
 0001:000024e2       ?Release@?$CComObject@VCOPOSKeylock@@@ATL@@WHA@AGKXZ 100034e2 f i Keylock.obj
 0001:000024ec       ?QueryInterface@?$CComObject@VCOPOSKeylock@@@ATL@@WHE@AGJABU_GUID@@PAPAX@Z 100034ec f i Keylock.obj
 0001:000024f6       ?AddRef@?$CComObject@VCOPOSKeylock@@@ATL@@WHE@AGKXZ 100034f6 f i Keylock.obj
 0001:00002500       ?Release@?$CComObject@VCOPOSKeylock@@@ATL@@WHE@AGKXZ 10003500 f i Keylock.obj
 0001:0000250a       ?QueryInterface@?$CComObject@VCOPOSKeylock@@@ATL@@WHI@AGJABU_GUID@@PAPAX@Z 1000350a f i Keylock.obj
 0001:00002514       ?AddRef@?$CComObject@VCOPOSKeylock@@@ATL@@WHI@AGKXZ 10003514 f i Keylock.obj
 0001:0000251e       ?Release@?$CComObject@VCOPOSKeylock@@@ATL@@WHI@AGKXZ 1000351e f i Keylock.obj
 0001:00002528       ?QueryInterface@?$CComObject@VCOPOSKeylock@@@ATL@@WHM@AGJABU_GUID@@PAPAX@Z 10003528 f i Keylock.obj
 0001:00002532       ?AddRef@?$CComObject@VCOPOSKeylock@@@ATL@@WHM@AGKXZ 10003532 f i Keylock.obj
 0001:0000253c       ?Release@?$CComObject@VCOPOSKeylock@@@ATL@@WHM@AGKXZ 1000353c f i Keylock.obj
 0001:00002546       ?QueryInterface@?$CComObject@VCOPOSKeylock@@@ATL@@WIA@AGJABU_GUID@@PAPAX@Z 10003546 f i Keylock.obj
 0001:00002553       ?AddRef@?$CComObject@VCOPOSKeylock@@@ATL@@WIA@AGKXZ 10003553 f i Keylock.obj
 0001:00002560       ?Release@?$CComObject@VCOPOSKeylock@@@ATL@@WIA@AGKXZ 10003560 f i Keylock.obj
 0001:0000256d       ?QueryInterface@?$CComObject@VCOPOSKeylock@@@ATL@@WIE@AGJABU_GUID@@PAPAX@Z 1000356d f i Keylock.obj
 0001:0000257a       ?AddRef@?$CComObject@VCOPOSKeylock@@@ATL@@WIE@AGKXZ 1000357a f i Keylock.obj
 0001:00002587       ?Release@?$CComObject@VCOPOSKeylock@@@ATL@@WIE@AGKXZ 10003587 f i Keylock.obj
 0001:00002594       ?QueryInterface@?$CComObject@VCOPOSKeylock@@@ATL@@WII@AGJABU_GUID@@PAPAX@Z 10003594 f i Keylock.obj
 0001:000025a1       ?AddRef@?$CComObject@VCOPOSKeylock@@@ATL@@WII@AGKXZ 100035a1 f i Keylock.obj
 0001:000025ae       ?Release@?$CComObject@VCOPOSKeylock@@@ATL@@WII@AGKXZ 100035ae f i Keylock.obj
 0001:000025bb       ?QueryInterface@?$CComObject@VCOPOSKeylock@@@ATL@@WIM@AGJABU_GUID@@PAPAX@Z 100035bb f i Keylock.obj
 0001:000025c8       ?AddRef@?$CComObject@VCOPOSKeylock@@@ATL@@WIM@AGKXZ 100035c8 f i Keylock.obj
 0001:000025d5       ?Release@?$CComObject@VCOPOSKeylock@@@ATL@@WIM@AGKXZ 100035d5 f i Keylock.obj
 0001:000025e2       ?QueryInterface@?$CComObject@VCOPOSKeylock@@@ATL@@WJA@AGJABU_GUID@@PAPAX@Z 100035e2 f i Keylock.obj
 0001:000025ef       ?AddRef@?$CComObject@VCOPOSKeylock@@@ATL@@WJA@AGKXZ 100035ef f i Keylock.obj
 0001:000025fc       ?Release@?$CComObject@VCOPOSKeylock@@@ATL@@WJA@AGKXZ 100035fc f i Keylock.obj
 0001:00002609       ?QueryInterface@?$CComObject@VCOPOSKeylock@@@ATL@@WJE@AGJABU_GUID@@PAPAX@Z 10003609 f i Keylock.obj
 0001:00002616       ?AddRef@?$CComObject@VCOPOSKeylock@@@ATL@@WJE@AGKXZ 10003616 f i Keylock.obj
 0001:00002623       ?Release@?$CComObject@VCOPOSKeylock@@@ATL@@WJE@AGKXZ 10003623 f i Keylock.obj
 0001:00002630       ?QueryInterface@?$CComObject@VCOPOSKeylock@@@ATL@@WJI@AGJABU_GUID@@PAPAX@Z 10003630 f i Keylock.obj
 0001:0000263d       ?AddRef@?$CComObject@VCOPOSKeylock@@@ATL@@WJI@AGKXZ 1000363d f i Keylock.obj
 0001:0000264a       ?Release@?$CComObject@VCOPOSKeylock@@@ATL@@WJI@AGKXZ 1000364a f i Keylock.obj
 0001:00002657       ?QueryInterface@?$CComObject@VCOPOSKeylock@@@ATL@@WJM@AGJABU_GUID@@PAPAX@Z 10003657 f i Keylock.obj
 0001:00002664       ?AddRef@?$CComObject@VCOPOSKeylock@@@ATL@@WJM@AGKXZ 10003664 f i Keylock.obj
 0001:00002671       ?Release@?$CComObject@VCOPOSKeylock@@@ATL@@WJM@AGKXZ 10003671 f i Keylock.obj
 0001:0000267e       ?QueryInterface@?$CComObject@VCOPOSKeylock@@@ATL@@WKA@AGJABU_GUID@@PAPAX@Z 1000367e f i Keylock.obj
 0001:0000268b       ?AddRef@?$CComObject@VCOPOSKeylock@@@ATL@@WKA@AGKXZ 1000368b f i Keylock.obj
 0001:00002698       ?Release@?$CComObject@VCOPOSKeylock@@@ATL@@WKA@AGKXZ 10003698 f i Keylock.obj
 0001:000026a5       ?AddRef@?$CComObject@VCOPOSKeylock@@@ATL@@WKI@AGKXZ 100036a5 f i Keylock.obj
 0001:000026b2       ?Release@?$CComObject@VCOPOSKeylock@@@ATL@@WKI@AGKXZ 100036b2 f i Keylock.obj
 0001:000026bf       ?AddRef@?$CComObject@VCOPOSKeylock@@@ATL@@WLE@AGKXZ 100036bf f i Keylock.obj
 0001:000026cc       ?Release@?$CComObject@VCOPOSKeylock@@@ATL@@WLE@AGKXZ 100036cc f i Keylock.obj
 0001:000026d9       ??_E?$CComContainedObject@VCOPOSKeylock@@@ATL@@W3AEPAXI@Z 100036d9 f i Keylock.obj
 0001:000026e1       ??_E?$CComContainedObject@VCOPOSKeylock@@@ATL@@WEM@AEPAXI@Z 100036e1 f i Keylock.obj
 0001:000026e9       ?QueryInterface@?$CComContainedObject@VCOPOSKeylock@@@ATL@@WHA@AGJABU_GUID@@PAPAX@Z 100036e9 f i Keylock.obj
 0001:000026f3       ?AddRef@?$CComContainedObject@VCOPOSKeylock@@@ATL@@WHA@AGKXZ 100036f3 f i Keylock.obj
 0001:000026fd       ?Release@?$CComContainedObject@VCOPOSKeylock@@@ATL@@WHA@AGKXZ 100036fd f i Keylock.obj
 0001:00002707       ?QueryInterface@?$CComContainedObject@VCOPOSKeylock@@@ATL@@WHE@AGJABU_GUID@@PAPAX@Z 10003707 f i Keylock.obj
 0001:00002711       ?AddRef@?$CComContainedObject@VCOPOSKeylock@@@ATL@@WHE@AGKXZ 10003711 f i Keylock.obj
 0001:0000271b       ?Release@?$CComContainedObject@VCOPOSKeylock@@@ATL@@WHE@AGKXZ 1000371b f i Keylock.obj
 0001:00002725       ?QueryInterface@?$CComContainedObject@VCOPOSKeylock@@@ATL@@WHI@AGJABU_GUID@@PAPAX@Z 10003725 f i Keylock.obj
 0001:0000272f       ?AddRef@?$CComContainedObject@VCOPOSKeylock@@@ATL@@WHI@AGKXZ 1000372f f i Keylock.obj
 0001:00002739       ?Release@?$CComContainedObject@VCOPOSKeylock@@@ATL@@WHI@AGKXZ 10003739 f i Keylock.obj
 0001:00002743       ?QueryInterface@?$CComContainedObject@VCOPOSKeylock@@@ATL@@WHM@AGJABU_GUID@@PAPAX@Z 10003743 f i Keylock.obj
 0001:0000274d       ?AddRef@?$CComContainedObject@VCOPOSKeylock@@@ATL@@WHM@AGKXZ 1000374d f i Keylock.obj
 0001:00002757       ?Release@?$CComContainedObject@VCOPOSKeylock@@@ATL@@WHM@AGKXZ 10003757 f i Keylock.obj
 0001:00002761       ?QueryInterface@?$CComContainedObject@VCOPOSKeylock@@@ATL@@WIA@AGJABU_GUID@@PAPAX@Z 10003761 f i Keylock.obj
 0001:0000276e       ?AddRef@?$CComContainedObject@VCOPOSKeylock@@@ATL@@WIA@AGKXZ 1000376e f i Keylock.obj
 0001:0000277b       ?Release@?$CComContainedObject@VCOPOSKeylock@@@ATL@@WIA@AGKXZ 1000377b f i Keylock.obj
 0001:00002788       ?QueryInterface@?$CComContainedObject@VCOPOSKeylock@@@ATL@@WIE@AGJABU_GUID@@PAPAX@Z 10003788 f i Keylock.obj
 0001:00002795       ?AddRef@?$CComContainedObject@VCOPOSKeylock@@@ATL@@WIE@AGKXZ 10003795 f i Keylock.obj
 0001:000027a2       ?Release@?$CComContainedObject@VCOPOSKeylock@@@ATL@@WIE@AGKXZ 100037a2 f i Keylock.obj
 0001:000027af       ?QueryInterface@?$CComContainedObject@VCOPOSKeylock@@@ATL@@WII@AGJABU_GUID@@PAPAX@Z 100037af f i Keylock.obj
 0001:000027bc       ?AddRef@?$CComContainedObject@VCOPOSKeylock@@@ATL@@WII@AGKXZ 100037bc f i Keylock.obj
 0001:000027c9       ?Release@?$CComContainedObject@VCOPOSKeylock@@@ATL@@WII@AGKXZ 100037c9 f i Keylock.obj
 0001:000027d6       ?QueryInterface@?$CComContainedObject@VCOPOSKeylock@@@ATL@@WIM@AGJABU_GUID@@PAPAX@Z 100037d6 f i Keylock.obj
 0001:000027e3       ?AddRef@?$CComContainedObject@VCOPOSKeylock@@@ATL@@WIM@AGKXZ 100037e3 f i Keylock.obj
 0001:000027f0       ?Release@?$CComContainedObject@VCOPOSKeylock@@@ATL@@WIM@AGKXZ 100037f0 f i Keylock.obj
 0001:000027fd       ?QueryInterface@?$CComContainedObject@VCOPOSKeylock@@@ATL@@WJA@AGJABU_GUID@@PAPAX@Z 100037fd f i Keylock.obj
 0001:0000280a       ?AddRef@?$CComContainedObject@VCOPOSKeylock@@@ATL@@WJA@AGKXZ 1000380a f i Keylock.obj
 0001:00002817       ?Release@?$CComContainedObject@VCOPOSKeylock@@@ATL@@WJA@AGKXZ 10003817 f i Keylock.obj
 0001:00002824       ?QueryInterface@?$CComContainedObject@VCOPOSKeylock@@@ATL@@WJE@AGJABU_GUID@@PAPAX@Z 10003824 f i Keylock.obj
 0001:00002831       ?AddRef@?$CComContainedObject@VCOPOSKeylock@@@ATL@@WJE@AGKXZ 10003831 f i Keylock.obj
 0001:0000283e       ?Release@?$CComContainedObject@VCOPOSKeylock@@@ATL@@WJE@AGKXZ 1000383e f i Keylock.obj
 0001:0000284b       ?QueryInterface@?$CComContainedObject@VCOPOSKeylock@@@ATL@@WJI@AGJABU_GUID@@PAPAX@Z 1000384b f i Keylock.obj
 0001:00002858       ?AddRef@?$CComContainedObject@VCOPOSKeylock@@@ATL@@WJI@AGKXZ 10003858 f i Keylock.obj
 0001:00002865       ?Release@?$CComContainedObject@VCOPOSKeylock@@@ATL@@WJI@AGKXZ 10003865 f i Keylock.obj
 0001:00002872       ?QueryInterface@?$CComContainedObject@VCOPOSKeylock@@@ATL@@WJM@AGJABU_GUID@@PAPAX@Z 10003872 f i Keylock.obj
 0001:0000287f       ?AddRef@?$CComContainedObject@VCOPOSKeylock@@@ATL@@WJM@AGKXZ 1000387f f i Keylock.obj
 0001:0000288c       ?Release@?$CComContainedObject@VCOPOSKeylock@@@ATL@@WJM@AGKXZ 1000388c f i Keylock.obj
 0001:00002899       ?QueryInterface@?$CComContainedObject@VCOPOSKeylock@@@ATL@@WKA@AGJABU_GUID@@PAPAX@Z 10003899 f i Keylock.obj
 0001:000028a6       ?AddRef@?$CComContainedObject@VCOPOSKeylock@@@ATL@@WKA@AGKXZ 100038a6 f i Keylock.obj
 0001:000028b3       ?Release@?$CComContainedObject@VCOPOSKeylock@@@ATL@@WKA@AGKXZ 100038b3 f i Keylock.obj
 0001:000028c0       ?AddRef@?$CComContainedObject@VCOPOSKeylock@@@ATL@@WKI@AGKXZ 100038c0 f i Keylock.obj
 0001:000028cd       ?Release@?$CComContainedObject@VCOPOSKeylock@@@ATL@@WKI@AGKXZ 100038cd f i Keylock.obj
 0001:000028da       ?AddRef@?$CComContainedObject@VCOPOSKeylock@@@ATL@@WLE@AGKXZ 100038da f i Keylock.obj
 0001:000028e7       ?Release@?$CComContainedObject@VCOPOSKeylock@@@ATL@@WLE@AGKXZ 100038e7 f i Keylock.obj
 0001:000028f4       ??$?4UITypeInfo2@@@?$CComPtr@UITypeInfo@@@ATL@@QAEPAUITypeInfo@@ABV?$CComPtr@UITypeInfo2@@@1@@Z 100038f4 f i Keylock.obj
 0001:00002921       ??$AtlAdd@K@ATL@@YAJPAKKK@Z 10003921 f i Keylock.obj
 0001:00002944       ??$AtlAdd@_K@ATL@@YAJPA_K_K1@Z 10003944 f i Keylock.obj
 0001:0000297c       ??$AtlAddThrow@K@ATL@@YAKKK@Z 1000397c f i Keylock.obj
 0001:000029a2       ??$AtlModuleRegisterWndClassInfoT@VAtlModuleRegisterWndClassInfoParamW@ATL@@@ATL@@YAGPAU_ATL_BASE_MODULE70@0@PAU_ATL_WIN_MODULE70@0@PAU_ATL_WNDCLASSINFOW@0@PAP6GJPAUHWND__@@IIJ@ZVAtlModuleRegisterWndClassInfoParamW@0@@Z 100039a2 f i Keylock.obj
 0001:00002af0       ??$AtlMultiply@H@ATL@@YAJPAHHH@Z 10003af0 f i Keylock.obj
 0001:00002b28       ??$AtlMultiply@K@ATL@@YAJPAKKK@Z 10003b28 f i Keylock.obj
 0001:00002b28       ??$AtlMultiply@I@ATL@@YAJPAIII@Z 10003b28 f i Keylock.obj
 0001:00002b4a       ??$AtlMultiplyThrow@I@ATL@@YAIII@Z 10003b4a f i Keylock.obj
 0001:00002b70       ??0?$CComAggObject@VCOPOSKeylock@@@ATL@@QAE@PAX@Z 10003b70 f i Keylock.obj
 0001:00002b9d       ??0?$CComContainedObject@VCOPOSKeylock@@@ATL@@QAE@PAX@Z 10003b9d f i Keylock.obj
 0001:00002c56       ??0?$CComObject@V?$CComEnum@UIEnumConnectionPoints@@$1?_GUID_b196b285_bab4_101a_b69c_00aa00341d07@@3U__s_GUID@@BPAUIConnectionPoint@@V?$_CopyInterface@UIConnectionPoint@@@ATL@@VCComSingleThreadModel@6@@ATL@@@ATL@@QAE@PAX@Z 10003c56 f i Keylock.obj
 0001:00002c84       ??0?$CComObject@V?$CComEnum@UIEnumConnections@@$1?_GUID_b196b287_bab4_101a_b69c_00aa00341d07@@3U__s_GUID@@BUtagCONNECTDATA@@V?$_Copy@UtagCONNECTDATA@@@ATL@@VCComSingleThreadModel@6@@ATL@@@ATL@@QAE@PAX@Z 10003c84 f i Keylock.obj
 0001:00002cb2       ??0?$CComObject@VCOPOSKeylock@@@ATL@@QAE@PAX@Z 10003cb2 f i Keylock.obj
 0001:00002d69       ??0?$CComQIPtr@UIOleControlSite@@$1?_GUID_b196b289_bab4_101a_b69c_00aa00341d07@@3U__s_GUID@@B@ATL@@QAE@PAUIUnknown@@@Z 10003d69 f i Keylock.obj
 0001:00002d92       ??0CAtlModule@ATL@@QAE@XZ  10003d92 f i Keylock.obj
 0001:00002dd3       ??0CParseBuffer@CRegParser@ATL@@QAE@H@Z 10003dd3 f i Keylock.obj
 0001:00002e09       ??0_ATL_MSG@ATL@@QAE@PAUHWND__@@IIJH@Z 10003e09 f i Keylock.obj
 0001:00002e41       ??1?$CComAggObject@VCOPOSKeylock@@@ATL@@UAE@XZ 10003e41 f i Keylock.obj
 0001:00002e65       ??1?$CComEnumImpl@UIEnumConnectionPoints@@$1?_GUID_b196b285_bab4_101a_b69c_00aa00341d07@@3U__s_GUID@@BPAUIConnectionPoint@@V?$_CopyInterface@UIConnectionPoint@@@ATL@@@ATL@@UAE@XZ 10003e65 f i Keylock.obj
 0001:00002ea5       ??1?$CComEnumImpl@UIEnumConnections@@$1?_GUID_b196b287_bab4_101a_b69c_00aa00341d07@@3U__s_GUID@@BUtagCONNECTDATA@@V?$_Copy@UtagCONNECTDATA@@@ATL@@@ATL@@UAE@XZ 10003ea5 f i Keylock.obj
 0001:00002ee5       ??1?$CComObject@V?$CComEnum@UIEnumConnectionPoints@@$1?_GUID_b196b285_bab4_101a_b69c_00aa00341d07@@3U__s_GUID@@BPAUIConnectionPoint@@V?$_CopyInterface@UIConnectionPoint@@@ATL@@VCComSingleThreadModel@6@@ATL@@@ATL@@UAE@XZ 10003ee5 f i Keylock.obj
 0001:00002f08       ??1?$CComObject@V?$CComEnum@UIEnumConnections@@$1?_GUID_b196b287_bab4_101a_b69c_00aa00341d07@@3U__s_GUID@@BUtagCONNECTDATA@@V?$_Copy@UtagCONNECTDATA@@@ATL@@VCComSingleThreadModel@6@@ATL@@@ATL@@UAE@XZ 10003f08 f i Keylock.obj
 0001:00002f2b       ??1?$CComObject@VCOPOSKeylock@@@ATL@@UAE@XZ 10003f2b f i Keylock.obj
 0001:00002fe9       ??1?$CComObjectCached@VCComClassFactory@ATL@@@ATL@@UAE@XZ 10003fe9 f i Keylock.obj
 0001:00002fff       ??1?$CComObjectRootEx@VCComMultiThreadModel@ATL@@@ATL@@QAE@XZ 10003fff f i Keylock.obj
 0001:00003014       ??1CRegObject@ATL@@UAE@XZ  10004014 f i Keylock.obj
 0001:00003034       ??4?$CComPtr@UIOleClientSite@@@ATL@@QAEPAUIOleClientSite@@PAU2@@Z 10004034 f i Keylock.obj
 0001:00003034       ??4?$CComPtr@UIAdviseSink@@@ATL@@QAEPAUIAdviseSink@@PAU2@@Z 10004034 f i Keylock.obj
 0001:00003034       ??4?$CComPtr@UIUnknown@@@ATL@@QAEPAUIUnknown@@PAU2@@Z 10004034 f i Keylock.obj
 0001:00003068       ??_E?$CComContainedObject@VCOPOSKeylock@@@ATL@@UAEPAXI@Z 10004068 f i Keylock.obj
 0001:00003068       ??_G?$CComContainedObject@VCOPOSKeylock@@@ATL@@UAEPAXI@Z 10004068 f i Keylock.obj
 0001:0000308d       ??_G?$CComObject@VCOPOSKeylock@@@ATL@@UAEPAXI@Z 1000408d f i Keylock.obj
 0001:0000308d       ??_E?$CComObject@VCOPOSKeylock@@@ATL@@UAEPAXI@Z 1000408d f i Keylock.obj
 0001:000030b2       ?Add@?$CSimpleArray@GV?$CSimpleArrayEqualHelper@G@ATL@@@ATL@@QAEHABG@Z 100040b2 f i Keylock.obj
 0001:00003136       ?Add@?$CSimpleMap@PA_WPA_WVCExpansionVectorEqualHelper@ATL@@@ATL@@QAEHABQA_W0@Z 10004136 f i Keylock.obj
 0001:0000318b       ?Add@CComDynamicUnkArray@ATL@@QAEKPAUIUnknown@@@Z 1000418b f i Keylock.obj
 0001:00003241       ?Add@CExpansionVector@ATL@@QAEHPB_W0@Z 10004241 f i Keylock.obj
 0001:0000334a       ?AddString@CParseBuffer@CRegParser@ATL@@QAEHPB_W@Z 1000434a f i Keylock.obj
 0001:0000337f       ?AddTermFunc@CAtlModule@ATL@@QAEJP6GXK@ZK@Z 1000437f f i Keylock.obj
 0001:000033e2       ?AddValue@CRegParser@ATL@@IAEJAAVCRegKey@2@PB_WPA_W@Z 100043e2 f i Keylock.obj
 0001:000036fc       ?Allocate@?$CAtlSafeAllocBufferManager@VCCRTAllocator@ATL@@@_ATL_SAFE_ALLOCA_IMPL@ATL@@QAEPAXK@Z 100046fc f i Keylock.obj
 0001:00003729       ?Allocate@?$CTempBuffer@E$0BAA@VCCRTAllocator@ATL@@@ATL@@QAEPAEI@Z 10004729 f i Keylock.obj
 0001:00003758       ?Allocate@?$CTempBuffer@_W$0BAA@VCCRTAllocator@ATL@@@ATL@@QAEPA_WI@Z 10004758 f i Keylock.obj
 0001:00003787       ?Allocate@?$CTempBuffer@_W$0EAA@VCCRTAllocator@ATL@@@ATL@@QAEPA_WI@Z 10004787 f i Keylock.obj
 0001:000037b6       ?AllocateHeap@?$CTempBuffer@_W$0BAA@VCCRTAllocator@ATL@@@ATL@@AAEXI@Z 100047b6 f i Keylock.obj
 0001:000037b6       ?AllocateHeap@?$CTempBuffer@_W$0EAA@VCCRTAllocator@ATL@@@ATL@@AAEXI@Z 100047b6 f i Keylock.obj
 0001:000037b6       ?AllocateHeap@?$CTempBuffer@E$0BAA@VCCRTAllocator@ATL@@@ATL@@AAEXI@Z 100047b6 f i Keylock.obj
 0001:000037db       ?Append@CParseBuffer@CRegParser@ATL@@QAEHPB_WH@Z 100047db f i Keylock.obj
 0001:00003869       ?AtlCoTaskMemCAlloc@ATL@@YAPAXKK@Z 10004869 f i Keylock.obj
 0001:00003896       ?AtlCoTaskMemRecalloc@ATL@@YAPAXPAXKK@Z 10004896 f i Keylock.obj
 0001:000038c6       ?AtlComModuleGetClassObject@ATL@@YGJPAU_ATL_COM_MODULE70@1@ABU_GUID@@1PAPAX@Z 100048c6 f i Keylock.obj
 0001:000039b9       ?AtlComModuleRegisterServer@ATL@@YGJPAU_ATL_COM_MODULE70@1@HPBU_GUID@@@Z 100049b9 f i Keylock.obj
 0001:00003a41       ?AtlComModuleUnregisterServer@ATL@@YGJPAU_ATL_COM_MODULE70@1@HPBU_GUID@@@Z 10004a41 f i Keylock.obj
 0001:00003ac9       ?AtlComQIPtrAssign2@ATL@@YAXPAPAUIUnknown@@PAU2@ABU_GUID@@@Z 10004ac9 f i Keylock.obj
 0001:00003af8       ?AtlCreateTargetDC@ATL@@YGPAUHDC__@@PAU2@PAUtagDVTARGETDEVICE@@@Z 10004af8 f i Keylock.obj
 0001:00003b61       ?AtlCrtErrorCheck@ATL@@YAHH@Z 10004b61 f i Keylock.obj
 0001:00003b9c       ?AtlHiMetricToPixel@ATL@@YGXPBUtagSIZE@@PAU2@@Z 10004b9c f i Keylock.obj
 0001:00003c11       ?AtlHresultFromLastError@ATL@@YAJXZ 10004c11 f i Keylock.obj
 0001:00003c28       ?AtlHresultFromWin32@ATL@@YAJK@Z 10004c28 f i Keylock.obj
 0001:00003c3d       ?AtlInternalOleLoadFromStream@ATL@@YAJPAUIStream@@ABU_GUID@@PAPAXTClassesAllowedInStream@1@K@Z 10004c3d f i Keylock.obj
 0001:00003d5b       ?AtlInternalQueryInterface@ATL@@YGJPAXPBU_ATL_INTMAP_ENTRY@1@ABU_GUID@@PAPAX@Z 10004d5b f i Keylock.obj
 0001:00003dfe       ?AtlLoadTypeLib@ATL@@YGJPAUHINSTANCE__@@PB_WPAPA_WPAPAUITypeLib@@@Z 10004dfe f i Keylock.obj
 0001:00003fdc       ?AtlRegisterClassCategoriesHelper@ATL@@YGJABU_GUID@@PBU_ATL_CATMAP_ENTRY@1@H@Z 10004fdc f i Keylock.obj
 0001:000042d8       ?AtlRegisterTypeLib@ATL@@YGJPAUHINSTANCE__@@PB_W@Z 100052d8 f i Keylock.obj
 0001:00004460       ?AtlThrowImpl@ATL@@YGXJ@Z  10005460 f i Keylock.obj
 0001:0000447e       ?AtlUnRegisterTypeLib@ATL@@YGJPAUHINSTANCE__@@PB_W@Z 1000547e f i Keylock.obj
 0001:00004529       ?AtlWinModuleAddCreateWndData@ATL@@YGXPAU_ATL_WIN_MODULE70@1@PAU_AtlCreateWndData@1@PAX@Z 10005529 f i Keylock.obj
 0001:0000457d       ?AtlWinModuleExtractCreateWndData@ATL@@YGPAXPAU_ATL_WIN_MODULE70@1@@Z 1000557d f i Keylock.obj
 0001:000045e0       ?AtlWinModuleRegisterClassExW@ATL@@YGGPAU_ATL_WIN_MODULE70@1@PBUtagWNDCLASSEXW@@@Z 100055e0 f i Keylock.obj
 0001:0000461f       ?CanForceRemoveKey@CRegParser@ATL@@IAEHPB_W@Z 1000561f f i Keylock.obj
 0001:0000464e       ?ChToByte@CRegParser@ATL@@KAE_W@Z 1000564e f i Keylock.obj
 0001:00004681       ?Cleanup@CComTypeInfoHolder@ATL@@SGXK@Z 10005681 f i Keylock.obj
 0001:000046b4       ?ClearReplacements@CExpansionVector@ATL@@QAEJXZ 100056b4 f i Keylock.obj
 0001:000046f1       ?Close@CRegKey@ATL@@QAEJXZ 100056f1 f i Keylock.obj
 0001:0000470b       ?CreateInstance@?$CComCreator@V?$CComAggObject@VCOPOSKeylock@@@ATL@@@ATL@@SGJPAXABU_GUID@@PAPAX@Z 1000570b f i Keylock.obj
 0001:00004780       ?CreateInstance@?$CComCreator@V?$CComObject@VCOPOSKeylock@@@ATL@@@ATL@@SGJPAXABU_GUID@@PAPAX@Z 10005780 f i Keylock.obj
 0001:00004800       ?CreateInstance@?$CComObject@V?$CComEnum@UIEnumConnectionPoints@@$1?_GUID_b196b285_bab4_101a_b69c_00aa00341d07@@3U__s_GUID@@BPAUIConnectionPoint@@V?$_CopyInterface@UIConnectionPoint@@@ATL@@VCComSingleThreadModel@6@@ATL@@@ATL@@SGJPAPAV12@@Z 10005800 f i Keylock.obj
 0001:0000484a       ?CreateInstance@?$CComObject@V?$CComEnum@UIEnumConnections@@$1?_GUID_b196b287_bab4_101a_b69c_00aa00341d07@@3U__s_GUID@@BUtagCONNECTDATA@@V?$_Copy@UtagCONNECTDATA@@@ATL@@VCComSingleThreadModel@6@@ATL@@@ATL@@SGJPAPAV12@@Z 1000584a f i Keylock.obj
 0001:00004894       ?DefaultReflectionHandler@?$CWindowImplRoot@VCWindow@ATL@@@ATL@@SAHPAUHWND__@@IIJAAJ@Z 10005894 f i Keylock.obj
 0001:00004907       ?DeleteSubKey@CRegKey@ATL@@QAEJPB_W@Z 10005907 f i Keylock.obj
 0001:00004980       ?DoEvent@COPOSKeylock@@IAEXIIJ@Z 10005980 f i Keylock.obj
 0001:00004a00       ?DoVerbHide@?$IOleObjectImpl@VCOPOSKeylock@@@ATL@@QAEJPBUtagRECT@@PAUHWND__@@@Z 10005a00 f i Keylock.obj
 0001:00004a36       ?DoVerbInPlaceActivate@?$IOleObjectImpl@VCOPOSKeylock@@@ATL@@QAEJPBUtagRECT@@PAUHWND__@@@Z 10005a36 f i Keylock.obj
 0001:00004a69       ?DoVerbPrimary@?$IOleObjectImpl@VCOPOSKeylock@@@ATL@@QAEJPBUtagRECT@@PAUHWND__@@@Z 10005a69 f i Keylock.obj
 0001:00004af5       ?DoVerbProperties@CComControlBase@ATL@@QAEJPBUtagRECT@@PAUHWND__@@@Z 10005af5 f i Keylock.obj
 0001:00004c74       ?DoVerbUIActivate@?$IOleObjectImpl@VCOPOSKeylock@@@ATL@@QAEJPBUtagRECT@@PAUHWND__@@@Z 10005c74 f i Keylock.obj
 0001:00004cb1       ?DoesVerbActivate@CComControlBase@ATL@@QAEHJ@Z 10005cb1 f i Keylock.obj
 0001:00004cd2       ?DoesVerbUIActivate@CComControlBase@ATL@@QAEHJ@Z 10005cd2 f i Keylock.obj
 0001:00004d07       ?EndOfVar@CRegParser@ATL@@IAEHXZ 10005d07 f i Keylock.obj
 0001:00004d27       ?EscapeSingleQuote@CAtlModule@ATL@@SAXPA_WIPB_W@Z 10005d27 f i Keylock.obj
 0001:00004d76       ?FindKey@?$CSimpleMap@PA_WPA_WVCExpansionVectorEqualHelper@ATL@@@ATL@@QBEHABQA_W@Z 10005d76 f i Keylock.obj
 0001:00004dad       ?FireTheEvent@?$CProxy_IOPOSEvents@VCOPOSKeylock@@@@IAEXPAVOposVariant@@IAAJPB_WJ@Z 10005dad f i Keylock.obj
 0001:00004e3f       ?FireViewChange@CComControlBase@ATL@@QAEJXZ 10005e3f f i Keylock.obj
 0001:00004e88       ?Fire_DirectIOEvent@?$CProxy_IOPOSEvents@VCOPOSKeylock@@@@QAEXJPAJPAPA_W@Z 10005e88 f i Keylock.obj
 0001:00004f74       ?Fire_StatusUpdateEvent@?$CProxy_IOPOSEvents@VCOPOSKeylock@@@@QAEXJ@Z 10005f74 f i Keylock.obj
 0001:0000500a       ?FreeHeap@?$CTempBuffer@_W$0BAA@VCCRTAllocator@ATL@@@ATL@@AAEXXZ 1000600a f i Keylock.obj
 0001:0000500a       ?FreeHeap@?$CTempBuffer@E$0BAA@VCCRTAllocator@ATL@@@ATL@@AAEXXZ 1000600a f i Keylock.obj
 0001:0000500a       ?FreeHeap@?$CTempBuffer@_W$0EAA@VCCRTAllocator@ATL@@@ATL@@AAEXXZ 1000600a f i Keylock.obj
 0001:00005013       ?GetAmbientLocaleID@CComControlBase@ATL@@QAEJAAK@Z 10006013 f i Keylock.obj
 0001:0000506f       ?GetAmbientUserMode@CComControlBase@ATL@@QAEJAAH@Z 1000606f f i Keylock.obj
 0001:000050df       ?GetAt@CComDynamicUnkArray@ATL@@QAEPAUIUnknown@@H@Z 100060df f i Keylock.obj
 0001:000050fb       ?GetClassObject@CComModule@ATL@@QAEJABU_GUID@@0PAPAX@Z 100060fb f i Keylock.obj
 0001:0000519d       ?GetConnMap@COPOSKeylock@@SAPBU_ATL_CONNMAP_ENTRY@ATL@@PAH@Z 1000619d f i Keylock.obj
 0001:0000520d       ?GetCookie@CComDynamicUnkArray@ATL@@QAGKPAPAUIUnknown@@@Z 1000620d f i Keylock.obj
 0001:00005245       ?GetIDsOfNames@CComTypeInfoHolder@ATL@@QAEJABU_GUID@@PAPA_WIKPAJ@Z 10006245 f i Keylock.obj
 0001:0000536c       ?GetKeyAt@?$CSimpleMap@PA_WPA_WVCExpansionVectorEqualHelper@ATL@@@ATL@@QBEAAPA_WH@Z 1000636c f i Keylock.obj
 0001:00005391       ?GetPagesHelper@?$ISpecifyPropertyPagesImpl@VCOPOSKeylock@@@ATL@@IAEJPAUtagCAUUID@@PBUATL_PROPMAP_ENTRY@2@@Z 10006391 f i Keylock.obj
 0001:000054b8       ?GetProperty@?$CComPtr@UIDispatch@@@ATL@@SAJPAUIDispatch@@JPAUtagVARIANT@@@Z 100064b8 f i Keylock.obj
 0001:00005507       ?GetSizeMax@CComVariant@ATL@@QBEJPAT_ULARGE_INTEGER@@@Z 10006507 f i Keylock.obj
 0001:000056c9       ?GetTI@CComTypeInfoHolder@ATL@@QAEJK@Z 100066c9 f i Keylock.obj
 0001:000058a8       ?GetTI@CComTypeInfoHolder@ATL@@QAEJKPAPAUITypeInfo@@@Z 100068a8 f i Keylock.obj
 0001:000058ea       ?GetUnknown@CComDynamicUnkArray@ATL@@QAGPAUIUnknown@@K@Z 100068ea f i Keylock.obj
 0001:0000590b       ?GetValueAt@?$CSimpleMap@PA_WPA_WVCExpansionVectorEqualHelper@ATL@@@ATL@@QBEAAPA_WH@Z 1000690b f i Keylock.obj
 0001:00005931       ?GetZoomInfo@CComControlBase@ATL@@QAEXAAUATL_DRAWINFO@@@Z 10006931 f i Keylock.obj
 0001:000059c4       ?HKeyFromString@CRegParser@ATL@@KAPAUHKEY__@@PA_W@Z 100069c4 f i Keylock.obj
 0001:000059f2       ?HasSubKeys@CRegParser@ATL@@IAEHPAUHKEY__@@@Z 100069f2 f i Keylock.obj
 0001:00005a27       ?IDataObject_GetData@CComControlBase@ATL@@QAEJPAUtagFORMATETC@@PAUtagSTGMEDIUM@@@Z 10006a27 f i Keylock.obj
 0001:00005bcd       ?IOleInPlaceObject_InPlaceDeactivate@CComControlBase@ATL@@QAEJXZ 10006bcd f i Keylock.obj
 0001:00005c54       ?IOleInPlaceObject_SetObjectRects@CComControlBase@ATL@@QAEJPBUtagRECT@@0@Z 10006c54 f i Keylock.obj
 0001:00005d21       ?IOleInPlaceObject_UIDeactivate@CComControlBase@ATL@@QAEJXZ 10006d21 f i Keylock.obj
 0001:00005de3       ?IOleObject_Advise@CComControlBase@ATL@@QAEJPAUIAdviseSink@@PAK@Z 10006de3 f i Keylock.obj
 0001:00005e0d       ?IOleObject_Close@CComControlBase@ATL@@QAEJK@Z 10006e0d f i Keylock.obj
 0001:00005ef1       ?IOleObject_GetClientSite@CComControlBase@ATL@@QAEJPAPAUIOleClientSite@@@Z 10006ef1 f i Keylock.obj
 0001:00005f1a       ?IOleObject_SetClientSite@CComControlBase@ATL@@QAEJPAUIOleClientSite@@@Z 10006f1a f i Keylock.obj
 0001:00005f59       ?IOleObject_SetExtent@CComControlBase@ATL@@QAEJKPAUtagSIZE@@@Z 10006f59 f i Keylock.obj
 0001:0000600d       ?IPSI_GetIPersistStreamInit@?$IPersistStorageImpl@VCOPOSKeylock@@@ATL@@AAEPAUIPersistStreamInit@@XZ 1000700d f i Keylock.obj
 0001:000060b5       ?IPersistStreamInit_Load@?$IPersistStreamInitImpl@VCOPOSKeylock@@@ATL@@QAEJPAUIStream@@PBUATL_PROPMAP_ENTRY@2@@Z 100070b5 f i Keylock.obj
 0001:0000632a       ?IPersistStreamInit_Save@?$IPersistStreamInitImpl@VCOPOSKeylock@@@ATL@@QAEJPAUIStream@@HPBUATL_PROPMAP_ENTRY@2@@Z 1000732a f i Keylock.obj
 0001:00006518       ?IQuickActivate_QuickActivate@CComControlBase@ATL@@QAEJPAUtagQACONTAINER@@PAUtagQACONTROL@@@Z 10007518 f i Keylock.obj
 0001:0000675a       ?IViewObject_Draw@CComControlBase@ATL@@QAEJKJPAXPAUtagDVTARGETDEVICE@@PAUHDC__@@2PBU_RECTL@@3@Z 1000775a f i Keylock.obj
 0001:00006802       ?InPlaceActivate@CComControlBase@ATL@@QAEJJPBUtagRECT@@@Z 10007802 f i Keylock.obj
 0001:00006a73       ?Init@?$CComEnumImpl@UIEnumConnectionPoints@@$1?_GUID_b196b285_bab4_101a_b69c_00aa00341d07@@3U__s_GUID@@BPAUIConnectionPoint@@V?$_CopyInterface@UIConnectionPoint@@@ATL@@@ATL@@QAEJPAPAUIConnectionPoint@@0PAUIUnknown@@W4CComEnumFlags@2@@Z 10007a73 f i Keylock.obj
 0001:00006b52       ?Init@?$CComEnumImpl@UIEnumConnections@@$1?_GUID_b196b287_bab4_101a_b69c_00aa00341d07@@3U__s_GUID@@BUtagCONNECTDATA@@V?$_Copy@UtagCONNECTDATA@@@ATL@@@ATL@@QAEJPAUtagCONNECTDATA@@0PAUIUnknown@@W4CComEnumFlags@2@@Z 10007b52 f i Keylock.obj
 0001:00006c31       ?Init@CComModule@ATL@@QAEJPAU_ATL_OBJMAP_ENTRY30@2@PAUHINSTANCE__@@PBU_GUID@@@Z 10007c31 f i Keylock.obj
 0001:00006c90       ?Init@CDynamicStdCallThunk2@ATL@@QAEHKPAX@Z 10007c90 f i Keylock.obj
 0001:00006cbb       ?InlineIsEqualUnknown@ATL@@YGHABU_GUID@@@Z 10007cbb f i Keylock.obj
 0001:00006ce3       ?InternalSetAtIndex@?$CSimpleMap@PA_WPA_WVCExpansionVectorEqualHelper@ATL@@@ATL@@QAEXHABQA_W0@Z 10007ce3 f i Keylock.obj
 0001:00006d0d       ?Invoke@CComTypeInfoHolder@ATL@@QAEJPAUIDispatch@@JABU_GUID@@KGPAUtagDISPPARAMS@@PAUtagVARIANT@@PAUtagEXCEPINFO@@PAI@Z 10007d0d f i Keylock.obj
 0001:00006d50       ?IsEqualObject@?$CComPtrBase@UITypeInfo@@@ATL@@QAE_NPAUIUnknown@@@Z 10007d50 f i Keylock.obj
 0001:00006d50       ?IsEqualObject@?$CComPtrBase@UIOleClientSite@@@ATL@@QAE_NPAUIUnknown@@@Z 10007d50 f i Keylock.obj
 0001:00006dbd       ?IsSpace@CRegParser@ATL@@IAEH_W@Z 10007dbd f i Keylock.obj
 0001:00006de7       ?LoadNameCache@CComTypeInfoHolder@ATL@@QAEJPAUITypeInfo@@@Z 10007de7 f i Keylock.obj
 0001:00006f1c       ?Lookup@?$CSimpleMap@PA_WPA_WVCExpansionVectorEqualHelper@ATL@@@ATL@@QBEPA_WABQA_W@Z 10007f1c f i Keylock.obj
 0001:00006f42       ?NextToken@CRegParser@ATL@@IAEJPA_W@Z 10007f42 f i Keylock.obj
 0001:0000707a       ?OnKillFocus@CComControlBase@ATL@@QAEJIIJAAH@Z 1000807a f i Keylock.obj
 0001:000070d5       ?OnMouseActivate@CComControlBase@ATL@@QAEJIIJAAH@Z 100080d5 f i Keylock.obj
 0001:00007143       ?OnPaint@CComControlBase@ATL@@QAEJIIJAAH@Z 10008143 f i Keylock.obj
 0001:000071f5       ?OnSetFocus@CComControlBase@ATL@@QAEJIIJAAH@Z 100081f5 f i Keylock.obj
 0001:0000727e       ?Open@CRegKey@ATL@@QAEJPAUHKEY__@@PB_WK@Z 1000827e f i Keylock.obj
 0001:000072d3       ?PreProcessBuffer@CRegParser@ATL@@QAEJPA_WPAPA_W@Z 100082d3 f i Keylock.obj
 0001:00007542       ?ProcessWindowMessage@?$CComControl@VCOPOSKeylock@@V?$CWindowImpl@VCOPOSKeylock@@VCWindow@ATL@@V?$CWinTraits@$0FGAAAAAA@$0A@@3@@ATL@@@ATL@@UAEHPAUHWND__@@IIJAAJK@Z 10008542 f i Keylock.obj
 0001:000075e1       ?ReadFromStream@CComBSTR@ATL@@QAEJPAUIStream@@@Z 100085e1 f i Keylock.obj
 0001:00007704       ?ReadFromStream@CComVariant@ATL@@QAEJPAUIStream@@GTClassesAllowedInStream@2@K@Z 10008704 f i Keylock.obj
 0001:0000788e       ?RecurseDeleteKey@CRegKey@ATL@@QAEJPB_W@Z 1000888e f i Keylock.obj
 0001:0000797c       ?RegCreateKeyExW@CAtlTransactionManager@ATL@@QAEJPAUHKEY__@@PB_WKPA_WKKQAU_SECURITY_ATTRIBUTES@@PAPAU3@PAK@Z 1000897c f i Keylock.obj
 0001:000079df       ?RegDeleteKeyW@CAtlTransactionManager@ATL@@QAEJPAUHKEY__@@PB_W@Z 100089df f i Keylock.obj
 0001:00007a31       ?RegOpenKeyExW@CAtlTransactionManager@ATL@@QAEJPAUHKEY__@@PB_WKKPAPAU3@@Z 10008a31 f i Keylock.obj
 0001:00007a88       ?Register@_ATL_WNDCLASSINFOW@ATL@@QAEGPAP6GJPAUHWND__@@IIJ@Z@Z 10008a88 f i Keylock.obj
 0001:00007aa8       ?RegisterBuffer@CRegParser@ATL@@QAEJPA_WH@Z 10008aa8 f i Keylock.obj
 0001:00007bef       ?RegisterFromResource@CRegObject@ATL@@IAEJPB_W00H@Z 10008bef f i Keylock.obj
 0001:00007d25       ?RegisterServer@?$CAtlModuleT@VCComModule@ATL@@@ATL@@QAEJHPBU_GUID@@@Z 10008d25 f i Keylock.obj
 0001:00007d53       ?RegisterServer@CComModule@ATL@@QAEJHPBU_GUID@@@Z 10008d53 f i Keylock.obj
 0001:00007dc9       ?RegisterSubkeys@CRegParser@ATL@@IAEJPA_WPAUHKEY__@@HH@Z 10008dc9 f i Keylock.obj
 0001:00008476       ?Remove@CComDynamicUnkArray@ATL@@QAEHK@Z 10009476 f i Keylock.obj
 0001:0000849f       ?RemoveAll@?$CSimpleMap@PA_WPA_WVCExpansionVectorEqualHelper@ATL@@@ATL@@QAEXXZ 1000949f f i Keylock.obj
 0001:000084cb       ?ResourceRegisterSz@CRegObject@ATL@@QAGJPB_W00@Z 100094cb f i Keylock.obj
 0001:000084f8       ?ResourceUnregisterSz@CRegObject@ATL@@QAGJPB_W00@Z 100094f8 f i Keylock.obj
 0001:00008525       ?SendOnDataChange@CComControlBase@ATL@@QAEJK@Z 10009525 f i Keylock.obj
 0001:00008572       ?SetControlFocus@CComControlBase@ATL@@QAEHH@Z 10009572 f i Keylock.obj
 0001:0000860f       ?SetMultiStringValue@CRegKey@ATL@@QAEJPB_W0@Z 1000960f f i Keylock.obj
 0001:0000866b       ?SetStringValue@CRegKey@ATL@@QAEJPB_W0K@Z 1000966b f i Keylock.obj
 0001:000086b4       ?SkipAssignment@CRegParser@ATL@@IAEJPA_W@Z 100096b4 f i Keylock.obj
 0001:00008719       ?SkipWhiteSpace@CRegParser@ATL@@IAEXXZ 10009719 f i Keylock.obj
 0001:0000873b       ?StrChrW@CRegParser@ATL@@KAPA_WPA_W_W@Z 1000973b f i Keylock.obj
 0001:00008778       ?Term@CAtlModule@ATL@@QAEXXZ 10009778 f i Keylock.obj
 0001:000087cb       ?Term@CComModule@ATL@@QAEXXZ 100097cb f i Keylock.obj
 0001:00008823       ?UnregisterServer@?$CAtlModuleT@VCComModule@ATL@@@ATL@@QAEJHPBU_GUID@@@Z 10009823 f i Keylock.obj
 0001:00008849       ?UnregisterServer@CComModule@ATL@@QAEJHPBU_GUID@@@Z 10009849 f i Keylock.obj
 0001:000088bf       ?UpdateRegistryFromResource@CAtlModule@ATL@@QAGJIHPAU_ATL_REGMAP_ENTRY@2@@Z 100098bf f i Keylock.obj
 0001:00008a8a       ?UpdateRegistryFromResource@CAtlModule@ATL@@QAGJPB_WHPAU_ATL_REGMAP_ENTRY@2@@Z 10009a8a f i Keylock.obj
 0001:00008c5b       ?VTFromRegType@CRegParser@ATL@@KAHPB_WAAG@Z 10009c5b f i Keylock.obj
 0001:00008cc8       ?WindowProc@?$CWindowImplBaseT@VCWindow@ATL@@V?$CWinTraits@$0FGAAAAAA@$0A@@2@@ATL@@SGJPAUHWND__@@IIJ@Z 10009cc8 f i Keylock.obj
 0001:00008dba       ?WriteToStream@CComBSTR@ATL@@QAEJPAUIStream@@@Z 10009dba f i Keylock.obj
 0001:00008e1c       ?WriteToStream@CComVariant@ATL@@QAEJPAUIStream@@@Z 10009e1c f i Keylock.obj
 0001:00008f96       ?WriteToStream@CComVariant@ATL@@QAEJPAUIStream@@G@Z 10009f96 f i Keylock.obj
 0001:00008fff       ?_AtlInitialConstruct@?$CComObjectRootEx@VCComMultiThreadModel@ATL@@@ATL@@QAEJXZ 10009fff f i Keylock.obj
 0001:00009014       ?_AtlVerifyStackAvailable@_ATL_SAFE_ALLOCA_IMPL@ATL@@YA_NK@Z 1000a014 f i Keylock.obj
 0001:00009092       ?atlCreate@?$CWindowImpl@VCOPOSKeylock@@VCWindow@ATL@@V?$CWinTraits@$0FGAAAAAA@$0A@@3@@ATL@@QAEPAUHWND__@@PAU3@V_U_RECT@2@PB_WKKV_U_MENUorID@2@PAX@Z 1000a092 f i Keylock.obj
 0001:000090d6       ?atlCreate@?$CWindowImplBaseT@VCWindow@ATL@@V?$CWinTraits@$0FGAAAAAA@$0A@@2@@ATL@@QAEPAUHWND__@@PAU3@V_U_RECT@2@PB_WKKV_U_MENUorID@2@GPAX@Z 1000a0d6 f i Keylock.obj
 0001:00009172       ?copy@?$_Copy@UtagCONNECTDATA@@@ATL@@SAJPAUtagCONNECTDATA@@PBU3@@Z 1000a172 f i Keylock.obj
 0001:000091a8       ?copy@?$_CopyInterface@UIConnectionPoint@@@ATL@@SAJPAPAUIConnectionPoint@@PBQAU3@@Z 1000a1a8 f i Keylock.obj
 0001:000091d6       ?memcpy_s@Checked@ATL@@YAXPAXIPBXI@Z 1000a1d6 f i Keylock.obj
 0001:000091f5       ?ocscpy_s@@YA_NPA_WIPB_W@Z 1000a1f5 f i Keylock.obj
 0001:0000923f       ?wcscpy_s@Checked@ATL@@YAXPA_WIPB_W@Z 1000a23f f i Keylock.obj
 0001:0000925b       _DllCanUnloadNow@0         1000a25b f   Keylock.obj
 0001:00009267       _DllGetClassObject@12      1000a267 f   Keylock.obj
 0001:00009275       _DllMain@12                1000a275 f   Keylock.obj
 0001:000092b7       _DllRegisterServer@0       1000a2b7 f   Keylock.obj
 0001:000092c6       _DllUnregisterServer@0     1000a2c6 f   Keylock.obj
 0001:000092d5       _InlineIsEqualGUID         1000a2d5 f i Keylock.obj
 0001:00009305       ___local_stdio_printf_options 1000a305 f i Keylock.obj
 0001:0000930b       __vswprintf_s_l            1000a30b f i Keylock.obj
 0001:000093b8       _swprintf_s                1000a3b8 f i Keylock.obj
 0001:000093d4       ??0?$CComControl@VCOPOSKeylock@@V?$CWindowImpl@VCOPOSKeylock@@VCWindow@ATL@@V?$CWinTraits@$0FGAAAAAA@$0A@@3@@ATL@@@ATL@@QAE@XZ 1000a3d4 f i KeylockImpl.obj
 0001:000093fb       ??0CComControlBase@ATL@@QAE@AAPAUHWND__@@@Z 1000a3fb f i KeylockImpl.obj
 0001:00009445       ??0COPOSKeylock@@QAE@XZ    1000a445 f   KeylockImpl.obj
 0001:00009494       ??1?$CComControl@VCOPOSKeylock@@V?$CWindowImpl@VCOPOSKeylock@@VCWindow@ATL@@V?$CWinTraits@$0FGAAAAAA@$0A@@3@@ATL@@@ATL@@UAE@XZ 1000a494 f i KeylockImpl.obj
 0001:000094ad       ??1?$IConnectionPointImpl@VCOPOSKeylock@@$1?DIID__IOPOSKeylockEvents@@3U_GUID@@BVCComDynamicUnkArray@ATL@@@ATL@@QAE@XZ 1000a4ad f i KeylockImpl.obj
 0001:000094ad       ??1?$IConnectionPointImpl@VCOPOSKeylock@@$1?IID_IPropertyNotifySink@@3U_GUID@@BVCComDynamicUnkArray@ATL@@@ATL@@QAE@XZ 1000a4ad f i KeylockImpl.obj
 0001:000094ea       ??1CComControlBase@ATL@@UAE@XZ 1000a4ea f i KeylockImpl.obj
 0001:0000954d       ??1COPOSKeylock@@UAE@XZ    1000a54d f   KeylockImpl.obj
 0001:00009595       ?CheckHealth@COPOSKeylock@@UAGJJPAJ@Z 1000a595 f   KeylockImpl.obj
 0001:000095e4       ?ClaimDevice@COPOSKeylock@@UAGJJPAJ@Z 1000a5e4 f   KeylockImpl.obj
 0001:00009652       ?Close@COPOSKeylock@@UAGJPAJ@Z 1000a652 f   KeylockImpl.obj
 0001:000096c0       ?CompareFirmwareVersion@COPOSKeylock@@UAGJPA_WPAJ1@Z 1000a6c0 f   KeylockImpl.obj
 0001:00009740       ?DirectIO@COPOSKeylock@@UAGJJPAJPAPA_W0@Z 1000a740 f   KeylockImpl.obj
 0001:000097ee       ?DoInvoke@COPOSKeylock@@IAEJJPAVOposVariant@@IHPAJ_N@Z 1000a7ee f   KeylockImpl.obj
 0001:000098ca       ?EventClose@COPOSKeylock@@IAEXXZ 1000a8ca f i KeylockImpl.obj
 0001:000098fd       ?EventInit@COPOSKeylock@@IAEJXZ 1000a8fd f i KeylockImpl.obj
 0001:000099c9       ?EventUninit@COPOSKeylock@@IAEXXZ 1000a9c9 f i KeylockImpl.obj
 0001:00009a1b       ?EventWindowProc@COPOSKeylock@@IAGJIIJ@Z 1000aa1b f i KeylockImpl.obj
 0001:00009a92       ?FinalConstruct@COPOSKeylock@@QAEJXZ 1000aa92 f   KeylockImpl.obj
 0001:00009acb       ?FireEventCleanup@COPOSKeylock@@IAEXXZ 1000aacb f i KeylockImpl.obj
 0001:00009ae1       ?FireEventSetup@COPOSKeylock@@IAE_NXZ 1000aae1 f i KeylockImpl.obj
 0001:00009b15       ?FreezeEvents@COPOSKeylock@@MAGJH@Z 1000ab15 f   KeylockImpl.obj
 0001:00009b66       ?GetOposProp@COPOSKeylock@@IAEJJPAFJ@Z 1000ab66 f   KeylockImpl.obj
 0001:00009b89       ?GetOposProp@COPOSKeylock@@IAEJJPAJJ@Z 1000ab89 f   KeylockImpl.obj
 0001:00009c58       ?GetOposProp@COPOSKeylock@@IAEJJPAPA_WJ@Z 1000ac58 f   KeylockImpl.obj
 0001:00009d34       ?OnDraw@COPOSKeylock@@MAEJAAUATL_DRAWINFO@@@Z 1000ad34 f   KeylockImpl.obj
 0001:00009dd4       ?Open@COPOSKeylock@@UAGJPA_WPAJ@Z 1000add4 f   KeylockImpl.obj
 0001:0000a614       ?ReleaseDevice@COPOSKeylock@@UAGJPAJ@Z 1000b614 f   KeylockImpl.obj
 0001:0000a64b       ?ResetStatistics@COPOSKeylock@@UAGJPA_WPAJ@Z 1000b64b f   KeylockImpl.obj
 0001:0000a6a2       ?RetrieveStatistics@COPOSKeylock@@UAGJPAPA_WPAJ@Z 1000b6a2 f   KeylockImpl.obj
 0001:0000a6f9       ?SOProcessID@COPOSKeylock@@UAGJPAJ@Z 1000b6f9 f   KeylockImpl.obj
 0001:0000a70d       ?SetCOFreezeEvents@COPOSKeylock@@IAEXF@Z 1000b70d f   KeylockImpl.obj
 0001:0000a7ad       ?SetOposProp@COPOSKeylock@@IAEJJJJ@Z 1000b7ad f   KeylockImpl.obj
 0001:0000a8a4       ?UpdateFirmware@COPOSKeylock@@UAGJPA_WPAJ@Z 1000b8a4 f   KeylockImpl.obj
 0001:0000a8fb       ?UpdateStatistics@COPOSKeylock@@UAGJPA_WPAJ@Z 1000b8fb f   KeylockImpl.obj
 0001:0000a952       ?WaitForKeylockChange@COPOSKeylock@@UAGJJJPAJ@Z 1000b952 f   KeylockImpl.obj
 0001:0000a9c6       ?get_BinaryConversion@COPOSKeylock@@UAGJPAJ@Z 1000b9c6 f   KeylockImpl.obj
 0001:0000a9dc       ?get_CapCompareFirmwareVersion@COPOSKeylock@@UAGJPAF@Z 1000b9dc f   KeylockImpl.obj
 0001:0000a9f5       ?get_CapKeylockType@COPOSKeylock@@UAGJPAJ@Z 1000b9f5 f   KeylockImpl.obj
 0001:0000aa0e       ?get_CapPowerReporting@COPOSKeylock@@UAGJPAJ@Z 1000ba0e f   KeylockImpl.obj
 0001:0000aa27       ?get_CapStatisticsReporting@COPOSKeylock@@UAGJPAF@Z 1000ba27 f   KeylockImpl.obj
 0001:0000aa40       ?get_CapUpdateFirmware@COPOSKeylock@@UAGJPAF@Z 1000ba40 f   KeylockImpl.obj
 0001:0000aa59       ?get_CapUpdateStatistics@COPOSKeylock@@UAGJPAF@Z 1000ba59 f   KeylockImpl.obj
 0001:0000aa72       ?get_CheckHealthText@COPOSKeylock@@UAGJPAPA_W@Z 1000ba72 f   KeylockImpl.obj
 0001:0000aa8b       ?get_Claimed@COPOSKeylock@@UAGJPAF@Z 1000ba8b f   KeylockImpl.obj
 0001:0000aaa1       ?get_ControlObjectDescription@COPOSKeylock@@UAGJPAPA_W@Z 1000baa1 f   KeylockImpl.obj
 0001:0000aaef       ?get_ControlObjectVersion@COPOSKeylock@@UAGJPAJ@Z 1000baef f   KeylockImpl.obj
 0001:0000ab02       ?get_DeviceDescription@COPOSKeylock@@UAGJPAPA_W@Z 1000bb02 f   KeylockImpl.obj
 0001:0000ab1b       ?get_DeviceEnabled@COPOSKeylock@@UAGJPAF@Z 1000bb1b f   KeylockImpl.obj
 0001:0000ab31       ?get_DeviceName@COPOSKeylock@@UAGJPAPA_W@Z 1000bb31 f   KeylockImpl.obj
 0001:0000ab4a       ?get_ElectronicKeyValue@COPOSKeylock@@UAGJPAPA_W@Z 1000bb4a f   KeylockImpl.obj
 0001:0000ab63       ?get_FreezeEvents@COPOSKeylock@@UAGJPAF@Z 1000bb63 f   KeylockImpl.obj
 0001:0000ab79       ?get_KeyPosition@COPOSKeylock@@UAGJPAJ@Z 1000bb79 f   KeylockImpl.obj
 0001:0000ab92       ?get_OpenResult@COPOSKeylock@@UAGJPAJ@Z 1000bb92 f   KeylockImpl.obj
 0001:0000aba9       ?get_PositionCount@COPOSKeylock@@UAGJPAJ@Z 1000bba9 f   KeylockImpl.obj
 0001:0000abc2       ?get_PowerNotify@COPOSKeylock@@UAGJPAJ@Z 1000bbc2 f   KeylockImpl.obj
 0001:0000abd8       ?get_PowerState@COPOSKeylock@@UAGJPAJ@Z 1000bbd8 f   KeylockImpl.obj
 0001:0000abee       ?get_ResultCode@COPOSKeylock@@UAGJPAJ@Z 1000bbee f   KeylockImpl.obj
 0001:0000ac2c       ?get_ResultCodeExtended@COPOSKeylock@@UAGJPAJ@Z 1000bc2c f   KeylockImpl.obj
 0001:0000ac42       ?get_ServiceObjectDescription@COPOSKeylock@@UAGJPAPA_W@Z 1000bc42 f   KeylockImpl.obj
 0001:0000ac5b       ?get_ServiceObjectVersion@COPOSKeylock@@UAGJPAJ@Z 1000bc5b f   KeylockImpl.obj
 0001:0000ac71       ?get_State@COPOSKeylock@@UAGJPAJ@Z 1000bc71 f   KeylockImpl.obj
 0001:0000ac9d       ?put_BinaryConversion@COPOSKeylock@@UAGJJ@Z 1000bc9d f   KeylockImpl.obj
 0001:0000acb3       ?put_DeviceEnabled@COPOSKeylock@@UAGJF@Z 1000bcb3 f   KeylockImpl.obj
 0001:0000acd0       ?put_FreezeEvents@COPOSKeylock@@UAGJF@Z 1000bcd0 f   KeylockImpl.obj
 0001:0000ad1c       ?put_PowerNotify@COPOSKeylock@@UAGJJ@Z 1000bd1c f   KeylockImpl.obj
 0001:0000ad32       ?s_EventWindowProc@COPOSKeylock@@KGJPAUHWND__@@IIJ@Z 1000bd32 f i KeylockImpl.obj
 0001:0000ad84       ??_U@YAPAXI@Z              1000bd84 f   LIBCMT:new_array.obj
 0001:0000ad8d       ??3@YAXPAXI@Z              1000bd8d f   LIBCMT:delete_scalar_size.obj
 0001:0000ad9b       ??_V@YAXPAX@Z              1000bd9b f   LIBCMT:delete_array.obj
 0001:0000ada0       ??_V@YAXPAXI@Z             1000bda0 f   LIBCMT:delete_array_size.obj
 0001:0000adf2       ___scrt_acquire_startup_lock 1000bdf2 f   LIBCMT:utility.obj
 0001:0000ae24       ___scrt_dllmain_after_initialize_c 1000be24 f   LIBCMT:utility.obj
 0001:0000ae4f       ___scrt_dllmain_before_initialize_c 1000be4f f   LIBCMT:utility.obj
 0001:0000ae5d       ___scrt_dllmain_crt_thread_attach 1000be5d f   LIBCMT:utility.obj
 0001:0000ae7c       ___scrt_dllmain_crt_thread_detach 1000be7c f   LIBCMT:utility.obj
 0001:0000ae89       ___scrt_dllmain_exception_filter 1000be89 f   LIBCMT:utility.obj
 0001:0000aebd       ___scrt_dllmain_uninitialize_c 1000bebd f   LIBCMT:utility.obj
 0001:0000aee0       ___scrt_dllmain_uninitialize_critical 1000bee0 f   LIBCMT:utility.obj
 0001:0000aeed       ___scrt_initialize_crt     1000beed f   LIBCMT:utility.obj
 0001:0000af26       ___scrt_initialize_onexit_tables 1000bf26 f   LIBCMT:utility.obj
 0001:0000afad       ___scrt_is_nonwritable_in_current_image 1000bfad f   LIBCMT:utility.obj
 0001:0000b041       ___scrt_release_startup_lock 1000c041 f   LIBCMT:utility.obj
 0001:0000b05e       ___scrt_uninitialize_crt   1000c05e f   LIBCMT:utility.obj
 0001:0000b086       __onexit                   1000c086 f   LIBCMT:utility.obj
 0001:0000b0b3       _atexit                    1000c0b3 f   LIBCMT:utility.obj
 0001:0000b0c8       ??3@YAXPAX@Z               1000c0c8 f   LIBCMT:delete_scalar.obj
 0001:0000b192       __Init_thread_footer       1000c192 f   LIBCMT:thread_safe_statics.obj
 0001:0000b1dc       __Init_thread_header       1000c1dc f   LIBCMT:thread_safe_statics.obj
 0001:0000b22e       __Init_thread_notify       1000c22e f   LIBCMT:thread_safe_statics.obj
 0001:0000b264       __Init_thread_wait         1000c264 f   LIBCMT:thread_safe_statics.obj
 0001:0000b2b2       ___raise_securityfailure   1000c2b2 f   LIBCMT:gs_report.obj
 0001:0000b2da       ___report_gsfailure        1000c2da f   LIBCMT:gs_report.obj
 0001:0000b3d3       ___report_rangecheckfailure 1000c3d3 f   LIBCMT:gs_report.obj
 0001:0000b3df       ___report_securityfailure  1000c3df f   LIBCMT:gs_report.obj
 0001:0000b4ad       ??2@YAPAXIABUnothrow_t@std@@@Z 1000c4ad f   LIBCMT:new_scalar_nothrow.obj
 0001:0000b4fd       ??_U@YAPAXIABUnothrow_t@std@@@Z 1000c4fd f   LIBCMT:new_array_nothrow.obj
 0001:0000b506       @__security_check_cookie@4 1000c506 f   LIBCMT:secchk.obj
 0001:0000b520       __SEH_prolog4_GS           1000c520 f   LIBCMT:sehprolg4gs.obj
 0001:0000b569       __SEH_epilog4_GS           1000c569 f   LIBCMT:sehprolg4gs.obj
 0001:0000b580       __alloca_probe_16          1000c580 f   LIBCMT:alloca16.obj
 0001:0000b596       __alloca_probe_8           1000c596     LIBCMT:alloca16.obj
 0001:0000b5b0       __alloca_probe             1000c5b0 f   LIBCMT:chkstk.obj
 0001:0000b5b0       __chkstk                   1000c5b0 f   LIBCMT:chkstk.obj
 0001:0000b91d       __DllMainCRTStartup@12     1000c91d f   LIBCMT:dll_dllmain.obj
 0001:0000b940       ??2@YAPAXI@Z               1000c940 f   LIBCMT:new_scalar.obj
 0001:0000b970       ___isa_available_init      1000c970 f   LIBCMT:cpu_disp.obj
 0001:0000bb40       ___scrt_is_ucrt_dll_in_use 1000cb40 f   LIBCMT:ucrt_detection.obj
 0001:0000bb4c       ___scrt_fastfail           1000cb4c f   LIBCMT:utility_desktop.obj
 0001:0000bc66       __crt_debugger_hook        1000cc66 f   LIBCMT:utility_desktop.obj
 0001:0000bc70       __SEH_prolog4              1000cc70 f   LIBCMT:sehprolg4.obj
 0001:0000bcb6       __SEH_epilog4              1000ccb6 f   LIBCMT:sehprolg4.obj
 0001:0000bccb       @_guard_check_icall_nop@4  1000cccb f i LIBCMT:guard_support.obj
 0001:0000bd19       ___security_init_cookie    1000cd19 f   LIBCMT:gs_support.obj
 0001:0000bd64       ?__scrt_initialize_type_info@@YAXXZ 1000cd64 f   LIBCMT:tncleanup.obj
 0001:0000bd70       ?__scrt_uninitialize_type_info@@YAXXZ 1000cd70 f   LIBCMT:tncleanup.obj
 0001:0000bd7c       ___local_stdio_scanf_options 1000cd7c f i LIBCMT:default_local_stdio_options.obj
 0001:0000bd82       ___scrt_initialize_default_local_stdio_options 1000cd82 f   LIBCMT:default_local_stdio_options.obj
 0001:0000bd9f       ___scrt_get_dyn_tls_init_callback 1000cd9f f   LIBCMT:dyn_tls_init.obj
 0001:0000bda5       __RTC_Initialize           1000cda5 f   LIBCMT:initsect.obj
 0001:0000bdd1       __RTC_Terminate            1000cdd1 f   LIBCMT:initsect.obj
 0001:0000bdfd       ??0bad_alloc@std@@QAE@ABV01@@Z 1000cdfd f i LIBCMT:throw_bad_alloc.obj
 0001:0000be18       ??0bad_alloc@std@@QAE@XZ   1000ce18 f i LIBCMT:throw_bad_alloc.obj
 0001:0000be30       ??0bad_array_new_length@std@@QAE@ABV01@@Z 1000ce30 f i LIBCMT:throw_bad_alloc.obj
 0001:0000be4b       ??0bad_array_new_length@std@@QAE@XZ 1000ce4b f i LIBCMT:throw_bad_alloc.obj
 0001:0000be63       ??0exception@std@@QAE@ABV01@@Z 1000ce63 f i LIBCMT:throw_bad_alloc.obj
 0001:0000be8f       ??1bad_exception@std@@UAE@XZ 1000ce8f f i libvcruntime:frame.obj
 0001:0000be8f       ??1bad_array_new_length@std@@UAE@XZ 1000ce8f f i LIBCMT:throw_bad_alloc.obj
 0001:0000be8f       ??1bad_alloc@std@@UAE@XZ   1000ce8f f i LIBCMT:throw_bad_alloc.obj
 0001:0000bea0       ??_Ebad_array_new_length@std@@UAEPAXI@Z 1000cea0 f i LIBCMT:throw_bad_alloc.obj
 0001:0000bea0       ??_Gbad_alloc@std@@UAEPAXI@Z 1000cea0 f i LIBCMT:throw_bad_alloc.obj
 0001:0000bea0       ??_Gbad_exception@std@@UAEPAXI@Z 1000cea0 f i libvcruntime:frame.obj
 0001:0000bea0       ??_Ebad_alloc@std@@UAEPAXI@Z 1000cea0 f i LIBCMT:throw_bad_alloc.obj
 0001:0000bea0       ??_Eexception@std@@UAEPAXI@Z 1000cea0 f i LIBCMT:throw_bad_alloc.obj
 0001:0000bea0       ??_Ebad_exception@std@@UAEPAXI@Z 1000cea0 f i libvcruntime:frame.obj
 0001:0000bea0       ??_Gexception@std@@UAEPAXI@Z 1000cea0 f i LIBCMT:throw_bad_alloc.obj
 0001:0000bea0       ??_Gbad_array_new_length@std@@UAEPAXI@Z 1000cea0 f i LIBCMT:throw_bad_alloc.obj
 0001:0000becd       ?__scrt_throw_std_bad_alloc@@YAXXZ 1000cecd f   LIBCMT:throw_bad_alloc.obj
 0001:0000beea       ?__scrt_throw_std_bad_array_new_length@@YAXXZ 1000ceea f   LIBCMT:throw_bad_alloc.obj
 0001:0000bf07       ?what@exception@std@@UBEPBDXZ 1000cf07 f i LIBCMT:throw_bad_alloc.obj
 0001:0000bf14       ??_Etype_info@@UAEPAXI@Z   1000cf14 f i LIBCMT:std_type_info_static.obj
 0001:0000bf14       ??_Gtype_info@@UAEPAXI@Z   1000cf14 f i LIBCMT:std_type_info_static.obj
 0001:0000bf37       ??0CAtlBaseModule@ATL@@QAE@XZ 1000cf37 f   atls:atlbase.obj
 0001:0000bf8a       ??0_ATL_BASE_MODULE70@ATL@@QAE@XZ 1000cf8a f i atls:atlbase.obj
 0001:0000bfad       ??1CAtlBaseModule@ATL@@QAE@XZ 1000cfad f   atls:atlbase.obj
 0001:0000c09a       ?Init@_stdcallthunk@ATL@@QAEHKPAX@Z 1000d09a f i atls:atlthunk.obj
 0001:0000c0cf       ?__AllocStdCallThunk_cmn@@YAPAXXZ 1000d0cf f   atls:atlthunk.obj
 0001:0000c195       ?__FreeStdCallThunk_cmn@@YAXPAX@Z 1000d195 f   atls:atlthunk.obj
 0001:0000c230       _AtlThunk_AllocateData@0   1000d230 f   atls:atlthunk.obj
 0001:0000c295       _AtlThunk_DataToCode@4     1000d295 f   atls:atlthunk.obj
 0001:0000c2dc       _AtlThunk_FreeData@4       1000d2dc f   atls:atlthunk.obj
 0001:0000c332       _AtlThunk_InitData@12      1000d332 f   atls:atlthunk.obj
 0001:0000c381       __get_purecall_handler     1000d381 f   libvcruntime:purevirt.obj
 0001:0000c387       __purecall                 1000d387 f   libvcruntime:purevirt.obj
 0001:0000c3a3       _wcsstr                    1000d3a3 f   libvcruntime:wcsstr.obj
 0001:0000c650       __except_handler4          1000d650 f   libvcruntime:chandler4.obj
 0001:0000c7ae       _memcmp                    1000d7ae f   libvcruntime:memcmp.obj
 0001:0000d6c0       _memcpy                    1000e6c0 f   libvcruntime:memcpy.obj
 0001:0000dc40       _memset                    1000ec40 f   libvcruntime:memset.obj
 0001:0000dd9a       ___vcrt_initialize         1000ed9a f   libvcruntime:initialization.obj
 0001:0000ddb9       ___vcrt_thread_attach      1000edb9 f   libvcruntime:initialization.obj
 0001:0000ddc4       ___vcrt_thread_detach      1000edc4 f   libvcruntime:initialization.obj
 0001:0000ddcf       ___vcrt_uninitialize       1000edcf f   libvcruntime:initialization.obj
 0001:0000dde6       ___vcrt_uninitialize_critical 1000ede6 f   libvcruntime:initialization.obj
 0001:0000ddee       ?GetRangeOfTrysToCheck@__FrameHandler3@@SA?AU?$pair@Viterator@TryBlockMap@__FrameHandler3@@V123@@std@@AAVTryBlockMap@1@HPAXPBU_s_FuncInfo@@H@Z 1000edee f   libvcruntime:trnsctrl.obj
 0001:0000de5e       ?_CallCatchBlock2@@YAPAXPAUEHRegistrationNode@@PBU_s_FuncInfo@@PAXHK@Z 1000ee5e f   libvcruntime:trnsctrl.obj
 0001:0000debc       ?_CallSETranslator@@YAHPAUEHExceptionRecord@@PAUEHRegistrationNode@@PAX2PBU_s_FuncInfo@@H1@Z 1000eebc f   libvcruntime:trnsctrl.obj
 0001:0000dfa2       ?_JumpToContinuation@@YGXPAXPAUEHRegistrationNode@@@Z 1000efa2 f   libvcruntime:trnsctrl.obj
 0001:0000dfd2       ?_UnwindNestedFrames@@YGXPAUEHRegistrationNode@@PAUEHExceptionRecord@@@Z 1000efd2 f   libvcruntime:trnsctrl.obj
 0001:0000e025       __CatchGuardHandler        1000f025 f   libvcruntime:trnsctrl.obj
 0001:0000e056       __CreateFrameInfo          1000f056 f   libvcruntime:trnsctrl.obj
 0001:0000e07a       __FindAndUnlinkFrame       1000f07a f   libvcruntime:trnsctrl.obj
 0001:0000e0c2       __TranslatorGuardHandler   1000f0c2 f   libvcruntime:trnsctrl.obj
 0001:0000e15f       ___CxxFrameHandler3        1000f15f f   libvcruntime:trnsctrl.obj
 0001:0000e195       ___DestructExceptionObject 1000f195 f   libvcruntime:ehhelpers.obj
 0001:0000e236       ?_CallMemberFunction0@@YGXQAX0@Z 1000f236 f i libvcruntime:ehhelpers.obj
 0001:0000e29b       __IsExceptionObjectToBeDestroyed 1000f29b f   libvcruntime:ehhelpers.obj
 0001:0000e2c1       ___AdjustPointer           1000f2c1 f   libvcruntime:ehhelpers.obj
 0001:0000e2e6       ___FrameUnwindFilter       1000f2e6 f   libvcruntime:ehhelpers.obj
 0001:0000e33c       ___std_type_info_compare   1000f33c f   libvcruntime:std_type_info.obj
 0001:0000e378       ___std_type_info_destroy_list 1000f378 f   libvcruntime:std_type_info.obj
 0001:0000e39b       ___std_exception_copy      1000f39b f   libvcruntime:std_exception.obj
 0001:0000e3fe       ___std_exception_destroy   1000f3fe f   libvcruntime:std_exception.obj
 0001:0000e41d       __CxxThrowException@8      1000f41d f   libvcruntime:throw.obj
 0001:0000e490       _memmove                   1000f490 f   libvcruntime:memmove.obj
 0001:0000ea10       __local_unwind4            1000fa10 f   libvcruntime:exsup4.obj
 0001:0000eae8       __seh_longjmp_unwind4@4    1000fae8 f   libvcruntime:exsup4.obj
 0001:0000eb10       @_EH4_CallFilterFunc@8     1000fb10 f   libvcruntime:exsup4.obj
 0001:0000eb28       @_EH4_TransferToHandler@8  1000fb28 f   libvcruntime:exsup4.obj
 0001:0000eb44       @_EH4_GlobalUnwind2@8      1000fb44 f   libvcruntime:exsup4.obj
 0001:0000eb60       @_EH4_LocalUnwind@16       1000fb60 f   libvcruntime:exsup4.obj
 0001:0000eb77       ___except_validate_context_record 1000fb77 f   libvcruntime:jbcxrval.obj
 0001:0000eba7       ___except_validate_jump_buffer 1000fba7 f   libvcruntime:jbcxrval.obj
 0001:0000ebd4       ___vcrt_freefls@4          1000fbd4 f   libvcruntime:per_thread_data.obj
 0001:0000ebf0       ___vcrt_freeptd            1000fbf0 f   libvcruntime:per_thread_data.obj
 0001:0000ec26       ___vcrt_getptd             1000fc26 f   libvcruntime:per_thread_data.obj
 0001:0000ec34       ___vcrt_getptd_noexit      1000fc34 f   libvcruntime:per_thread_data.obj
 0001:0000ecc6       ___vcrt_initialize_ptd     1000fcc6 f   libvcruntime:per_thread_data.obj
 0001:0000ecf9       ___vcrt_uninitialize_ptd   1000fcf9 f   libvcruntime:per_thread_data.obj
 0001:0000ed14       ___vcrt_initialize_locks   1000fd14 f   libvcruntime:locks.obj
 0001:0000ed50       ___vcrt_uninitialize_locks 1000fd50 f   libvcruntime:locks.obj
 0001:0000f4c2       ??$TypeMatchHelper@V__FrameHandler3@@@@YAHPBU_s_HandlerType@@PBU_s_CatchableType@@PBU_s_ThrowInfo@@@Z 100104c2 f i libvcruntime:frame.obj
 0001:0000f550       ??$__InternalCxxFrameHandler@V__FrameHandler3@@@@YA?AW4_EXCEPTION_DISPOSITION@@PAUEHExceptionRecord@@PAUEHRegistrationNode@@PAU_CONTEXT@@PAXPBU_s_FuncInfo@@H1E@Z 10010550 f i libvcruntime:frame.obj
 0001:0000f652       ??0bad_exception@std@@QAE@ABV01@@Z 10010652 f i libvcruntime:frame.obj
 0001:0000f66d       ??0bad_exception@std@@QAE@XZ 1001066d f i libvcruntime:frame.obj
 0001:0000f685       ??8type_info@@QBE_NABV0@@Z 10010685 f i libvcruntime:frame.obj
 0001:0000f8ec       ?FrameUnwindToEmptyState@__FrameHandler3@@SAXPAUEHRegistrationNode@@PAXPBU_s_FuncInfo@@@Z 100108ec f   libvcruntime:frame.obj
 0001:0000f904       ?FrameUnwindToState@__FrameHandler3@@SAXPAUEHRegistrationNode@@PAXPBU_s_FuncInfo@@H@Z 10010904 f   libvcruntime:frame.obj
 0001:0000fa86       ?_CallMemberFunction1@@YGXQAX00@Z 10010a86 f i libvcruntime:frame.obj
 0001:0000fa96       ?_CallMemberFunction2@@YGXQAX00H@Z 10010a96 f i libvcruntime:frame.obj
 0001:0000faa9       ?getESTypes@__FrameHandler3@@SAPBU_s_ESTypeList@@PBU_s_FuncInfo@@@Z 10010aa9 f i libvcruntime:frame.obj
 0001:0000fac0       __CallSettingFrame@12      10010ac0 f   libvcruntime:lowhelpr.obj
 0001:0000fae7       __NLG_Return               10010ae7     libvcruntime:lowhelpr.obj
 0001:0000fb10       __global_unwind2           10010b10 f   libvcruntime:exsup.obj
 0001:0000fb76       __local_unwind2            10010b76 f   libvcruntime:exsup.obj
 0001:0000fbfa       __abnormal_termination     10010bfa f   libvcruntime:exsup.obj
 0001:0000fc20       __NLG_Notify1              10010c20 f   libvcruntime:exsup.obj
 0001:0000fc2c       __NLG_Notify               10010c2c f   libvcruntime:exsup.obj
 0001:0000fc43       __NLG_Dispatch             10010c43     libvcruntime:exsup.obj
 0001:0000fc43       __NLG_Dispatch2            10010c43     libvcruntime:exsup.obj
 0001:0000fc4b       __NLG_Call                 10010c4b f   libvcruntime:exsup.obj
 0001:0000fc4d       __NLG_Return2              10010c4d     libvcruntime:exsup.obj
 0001:0000fd31       ___vcrt_FlsAlloc           10010d31 f   libvcruntime:winapi_downlevel.obj
 0001:0000fd6c       ___vcrt_FlsFree            10010d6c f   libvcruntime:winapi_downlevel.obj
 0001:0000fda7       ___vcrt_FlsGetValue        10010da7 f   libvcruntime:winapi_downlevel.obj
 0001:0000fde2       ___vcrt_FlsSetValue        10010de2 f   libvcruntime:winapi_downlevel.obj
 0001:0000fe20       ___vcrt_InitializeCriticalSectionEx 10010e20 f   libvcruntime:winapi_downlevel.obj
 0001:0000fe67       _unexpected                10010e67 f   libvcruntime:unexpected.obj
 0001:0000fe84       ?GetCurrentState@__FrameHandler3@@SAHPAUEHRegistrationNode@@PAXPBU_s_FuncInfo@@@Z 10010e84 f   libvcruntime:ehstate.obj
 0001:0000fea1       ?SetState@__FrameHandler3@@SAXPAUEHRegistrationNode@@PBU_s_FuncInfo@@H@Z 10010ea1 f   libvcruntime:ehstate.obj
 0001:0000feaf       _free                      10010eaf f   libucrt:free.obj
 0001:0000feca       ___acrt_call_reportfault   10010eca f   libucrt:invalid_parameter.obj
 0001:00010003       ___acrt_initialize_invalid_parameter_handler 10011003 f   libucrt:invalid_parameter.obj
 0001:00010012       __invalid_parameter        10011012 f   libucrt:invalid_parameter.obj
 0001:00010076       __invalid_parameter_noinfo 10011076 f   libucrt:invalid_parameter.obj
 0001:00010086       __invoke_watson            10011086 f   libucrt:invalid_parameter.obj
 0001:000100ba       ___acrt_errno_from_os_error 100110ba f   libucrt:errno.obj
 0001:000100fd       ___acrt_errno_map_os_error 100110fd f   libucrt:errno.obj
 0001:00010120       ___doserrno                10011120 f   libucrt:errno.obj
 0001:00010133       __errno                    10011133 f   libucrt:errno.obj
 0001:00010146       _calloc                    10011146 f   libucrt:calloc.obj
 0001:00010151       _malloc                    10011151 f   libucrt:malloc.obj
 0001:0001015c       __recalloc                 1001115c f   libucrt:recalloc.obj
 0001:00010167       __recalloc_base            10011167 f   libucrt:recalloc.obj
 0001:000101d4       __resetstkoflw             100111d4 f   libucrt:resetstk.obj
 0001:00010299       _wcscat_s                  10011299 f   libucrt:wcscat_s.obj
 0001:0001030e       _wcscpy_s                  1001130e f   libucrt:wcscpy_s.obj
 0001:0001043d       _wcsncpy_s                 1001143d f   libucrt:wcsncpy_s.obj
 0001:00010649       ??$count@D@formatting_buffer@__crt_stdio_output@@QBEIXZ 10011649 f i libucrt:output.obj
 0001:00010661       ??$count@_W@formatting_buffer@__crt_stdio_output@@QBEIXZ 10011661 f i libucrt:output.obj
 0001:0001067a       ??$ensure_buffer_is_big_enough@D@formatting_buffer@__crt_stdio_output@@QAE_NI@Z 1001167a f i libucrt:output.obj
 0001:000106f7       ??$ensure_buffer_is_big_enough@_W@formatting_buffer@__crt_stdio_output@@QAE_NI@Z 100116f7 f i libucrt:output.obj
 0001:00010775       ??$is_wide_character_specifier@_W@__crt_stdio_output@@YA_N_K_WW4length_modifier@0@@Z 10011775 f i libucrt:output.obj
 0001:000107c3       ??$scratch_data@D@formatting_buffer@__crt_stdio_output@@QAEPADXZ 100117c3 f i libucrt:output.obj
 0001:000107e1       ??$type_case_integer_parse_into_buffer@I@?$output_processor@_WV?$string_output_adapter@_W@__crt_stdio_output@@V?$format_validation_base@_WV?$string_output_adapter@_W@__crt_stdio_output@@@2@@__crt_stdio_output@@AAEXII_N@Z 100117e1 f i libucrt:output.obj
 0001:00010868       ??$type_case_integer_parse_into_buffer@_K@?$output_processor@_WV?$string_output_adapter@_W@__crt_stdio_output@@V?$format_validation_base@_WV?$string_output_adapter@_W@__crt_stdio_output@@@2@@__crt_stdio_output@@AAEX_KI_N@Z 10011868 f i libucrt:output.obj
 0001:0001090a       ??$write_multiple_characters@V?$string_output_adapter@_W@__crt_stdio_output@@D@__crt_stdio_output@@YAXABV?$string_output_adapter@_W@0@DHQAH@Z 1001190a f i libucrt:output.obj
 0001:0001093b       ??0?$common_data@_W@__crt_stdio_output@@IAE@XZ 1001193b f i libucrt:output.obj
 0001:00010985       ??0?$output_adapter_data@_WV?$string_output_adapter@_W@__crt_stdio_output@@@__crt_stdio_output@@IAE@ABV?$string_output_adapter@_W@1@_KQB_WQAU__crt_locale_pointers@@QAD@Z 10011985 f i libucrt:output.obj
 0001:000109c1       ??0_LocaleUpdate@@QAE@QAU__crt_locale_pointers@@@Z 100119c1 f i libucrt:output.obj
 0001:00010a44       ??1formatting_buffer@__crt_stdio_output@@QAE@XZ 10011a44 f i libucrt:output.obj
 0001:00010a5e       ??4?$__crt_unique_heap_ptr@DU__crt_internal_free_policy@@@@QAEAAV0@$$QAV0@@Z 10011a5e f i libucrt:output.obj
 0001:00010a90       ?crop_zeroes@__crt_stdio_output@@YAXPADQAU__crt_locale_pointers@@@Z 10011a90 f i libucrt:output.obj
 0001:00010b11       ?find_next_state@?$output_processor@_WV?$string_output_adapter@_W@__crt_stdio_output@@V?$format_validation_base@_WV?$string_output_adapter@_W@__crt_stdio_output@@@2@@__crt_stdio_output@@ABE?AW4state@2@_WW432@@Z 10011b11 f i libucrt:output.obj
 0001:00010b50       ?force_decimal_point@__crt_stdio_output@@YAXPADQAU__crt_locale_pointers@@@Z 10011b50 f i libucrt:output.obj
 0001:00010bb5       ?parse_int_from_format_string@?$output_processor@_WV?$string_output_adapter@_W@__crt_stdio_output@@V?$format_validation_base@_WV?$string_output_adapter@_W@__crt_stdio_output@@@2@@__crt_stdio_output@@AAE_NQAH@Z 10011bb5 f i libucrt:output.obj
 0001:00010c2b       ?process@?$output_processor@_WV?$string_output_adapter@_W@__crt_stdio_output@@V?$format_validation_base@_WV?$string_output_adapter@_W@__crt_stdio_output@@@2@@__crt_stdio_output@@QAEHXZ 10011c2b f i libucrt:output.obj
 0001:00010d53       ?state_case_flag@?$output_processor@_WV?$string_output_adapter@_W@__crt_stdio_output@@V?$format_validation_base@_WV?$string_output_adapter@_W@__crt_stdio_output@@@2@@__crt_stdio_output@@AAE_NXZ 10011d53 f i libucrt:output.obj
 0001:00010d90       ?state_case_normal@?$output_processor@_WV?$string_output_adapter@_W@__crt_stdio_output@@V?$format_validation_base@_WV?$string_output_adapter@_W@__crt_stdio_output@@@2@@__crt_stdio_output@@AAE_NXZ 10011d90 f i libucrt:output.obj
 0001:00010daf       ?state_case_normal_common@?$output_processor@_WV?$string_output_adapter@_W@__crt_stdio_output@@V?$format_validation_base@_WV?$string_output_adapter@_W@__crt_stdio_output@@@2@@__crt_stdio_output@@AAE_NXZ 10011daf f i libucrt:output.obj
 0001:00010dca       ?state_case_precision@?$output_processor@_WV?$string_output_adapter@_W@__crt_stdio_output@@V?$format_validation_base@_WV?$string_output_adapter@_W@__crt_stdio_output@@@2@@__crt_stdio_output@@AAE_NXZ 10011dca f i libucrt:output.obj
 0001:00010df1       ?state_case_size@?$output_processor@_WV?$string_output_adapter@_W@__crt_stdio_output@@V?$format_validation_base@_WV?$string_output_adapter@_W@__crt_stdio_output@@@2@@__crt_stdio_output@@AAE_NXZ 10011df1 f i libucrt:output.obj
 0001:00010f69       ?state_case_type@?$output_processor@_WV?$string_output_adapter@_W@__crt_stdio_output@@V?$format_validation_base@_WV?$string_output_adapter@_W@__crt_stdio_output@@@2@@__crt_stdio_output@@AAE_NXZ 10011f69 f i libucrt:output.obj
 0001:000111c6       ?state_case_width@?$output_processor@_WV?$string_output_adapter@_W@__crt_stdio_output@@V?$format_validation_base@_WV?$string_output_adapter@_W@__crt_stdio_output@@@2@@__crt_stdio_output@@AAE_NXZ 100121c6 f i libucrt:output.obj
 0001:00011200       ?to_integer_size@__crt_stdio_output@@YAIW4length_modifier@1@@Z 10012200 f i libucrt:output.obj
 0001:0001125c       ?type_case_Z@?$output_processor@_WV?$string_output_adapter@_W@__crt_stdio_output@@V?$format_validation_base@_WV?$string_output_adapter@_W@__crt_stdio_output@@@2@@__crt_stdio_output@@AAE_NXZ 1001225c f i libucrt:output.obj
 0001:000112b6       ?type_case_a@?$output_processor@_WV?$string_output_adapter@_W@__crt_stdio_output@@V?$format_validation_base@_WV?$string_output_adapter@_W@__crt_stdio_output@@@2@@__crt_stdio_output@@AAE_NXZ 100122b6 f i libucrt:output.obj
 0001:0001141d       ?type_case_c_tchar@?$output_processor@_WV?$string_output_adapter@_W@__crt_stdio_output@@V?$format_validation_base@_WV?$string_output_adapter@_W@__crt_stdio_output@@@2@@__crt_stdio_output@@AAE_N_W@Z 1001241d f i libucrt:output.obj
 0001:000114b3       ?type_case_integer@?$output_processor@_WV?$string_output_adapter@_W@__crt_stdio_output@@V?$format_validation_base@_WV?$string_output_adapter@_W@__crt_stdio_output@@@2@@__crt_stdio_output@@AAE_NI_N@Z 100124b3 f i libucrt:output.obj
 0001:00011608       ?type_case_n@?$output_processor@_WV?$string_output_adapter@_W@__crt_stdio_output@@V?$format_validation_base@_WV?$string_output_adapter@_W@__crt_stdio_output@@@2@@__crt_stdio_output@@AAE_NXZ 10012608 f i libucrt:output.obj
 0001:0001167c       ?type_case_o@?$output_processor@_WV?$string_output_adapter@_W@__crt_stdio_output@@V?$format_validation_base@_WV?$string_output_adapter@_W@__crt_stdio_output@@@2@@__crt_stdio_output@@AAE_NXZ 1001267c f i libucrt:output.obj
 0001:0001169b       ?type_case_p@?$output_processor@_WV?$string_output_adapter@_W@__crt_stdio_output@@V?$format_validation_base@_WV?$string_output_adapter@_W@__crt_stdio_output@@@2@@__crt_stdio_output@@AAE_NXZ 1001269b f i libucrt:output.obj
 0001:000116b3       ?type_case_s@?$output_processor@_WV?$string_output_adapter@_W@__crt_stdio_output@@V?$format_validation_base@_WV?$string_output_adapter@_W@__crt_stdio_output@@@2@@__crt_stdio_output@@AAE_NXZ 100126b3 f i libucrt:output.obj
 0001:00011726       ?type_case_s_compute_narrow_string_length@?$output_processor@_WV?$string_output_adapter@_W@__crt_stdio_output@@V?$format_validation_base@_WV?$string_output_adapter@_W@__crt_stdio_output@@@2@@__crt_stdio_output@@ABEHH_W@Z 10012726 f i libucrt:output.obj
 0001:0001176d       ?validate@?$string_output_adapter@_W@__crt_stdio_output@@QBE_NXZ 1001276d f i libucrt:output.obj
 0001:0001176d       ?validate@?$c_string_character_source@_W@__crt_strtox@@QBE_NXZ 1001276d f i libucrt:atox.obj
 0001:00011788       ?validate_and_update_state_at_end_of_format_string@?$format_validation_base@_WV?$string_output_adapter@_W@__crt_stdio_output@@@__crt_stdio_output@@IBE_NXZ 10012788 f i libucrt:output.obj
 0001:000117aa       ?write_character@?$string_output_adapter@_W@__crt_stdio_output@@QBE_N_WQAH@Z 100127aa f i libucrt:output.obj
 0001:000117ef       ?write_stored_string_tchar@?$output_processor@_WV?$string_output_adapter@_W@__crt_stdio_output@@V?$format_validation_base@_WV?$string_output_adapter@_W@__crt_stdio_output@@@2@@__crt_stdio_output@@AAE_N_W@Z 100127ef f i libucrt:output.obj
 0001:0001187c       ?write_string@?$string_output_adapter@_W@__crt_stdio_output@@QBEXQB_WHQAHAAV__crt_deferred_errno_cache@@@Z 1001287c f i libucrt:output.obj
 0001:000118ed       ___acrt_locale_get_ctype_array_value 100128ed f i libucrt:output.obj
 0001:0001190f       ___stdio_common_vswprintf_s 1001290f f   libucrt:output.obj
 0001:00011933       __seh_filter_dll           10012933 f   libucrt:exception_filter.obj
 0001:00011953       __seh_filter_exe           10012953 f   libucrt:exception_filter.obj
 0001:00011d21       ___acrt_initialize_thread_local_exit_callback 10012d21 f   libucrt:exit.obj
 0001:00011d30       __cexit                    10012d30 f   libucrt:exit.obj
 0001:00011d3f       __exit                     10012d3f f   libucrt:exit.obj
 0001:00011d55       __is_c_termination_complete 10012d55 f   libucrt:exit.obj
 0001:00012006       ___acrt_allocate_buffer_for_argv 10013006 f   libucrt:argv_parsing.obj
 0001:00012055       __configure_narrow_argv    10013055 f   libucrt:argv_parsing.obj
 0001:000121b2       ??$uninitialize@A6AXAAPAPA_W@Z@?$dual_state_global@PAPA_W@__crt_state_management@@QAEXA6AXAAPAPA_W@Z@Z 100131b2 f i libucrt:environment_initialization.obj
 0001:000121b2       ??$uninitialize@A6AXAAPAPAD@Z@?$dual_state_global@PAPAD@__crt_state_management@@QAEXA6AXAAPAPAD@Z@Z 100131b2 f i libucrt:environment_initialization.obj
 0001:00012211       ___dcrt_uninitialize_environments_nolock 10013211 f   libucrt:environment_initialization.obj
 0001:00012248       __initialize_narrow_environment 10013248 f   libucrt:environment_initialization.obj
 0001:00012303       ??$__crt_fast_encode_pointer@PAX@@YAPAXQAX@Z 10013303 f i libucrt:initialization.obj
 0001:00012303       ??$__crt_fast_encode_pointer@P6AHXZ@@YAP6AHXZQ6AHXZ@Z 10013303 f i libucrt:onexit.obj
 0001:00012303       ??$__crt_fast_encode_pointer@PAP6AXXZ@@YAPAP6AXXZQAP6AXXZ@Z 10013303 f i libucrt:onexit.obj
 0001:00012525       __crt_atexit               10013525 f   libucrt:onexit.obj
 0001:0001253b       __execute_onexit_table     1001353b f   libucrt:onexit.obj
 0001:00012568       __initialize_onexit_table  10013568 f   libucrt:onexit.obj
 0001:00012591       __register_onexit_function 10013591 f   libucrt:onexit.obj
 0001:000125eb       ___acrt_uninitialize_command_line 100135eb f   libucrt:argv_data.obj
 0001:000126c2       ___acrt_initialize         100136c2 f   libucrt:initialization.obj
 0001:000126d4       ___acrt_thread_attach      100136d4 f   libucrt:initialization.obj
 0001:000126df       ___acrt_thread_detach      100136df f   libucrt:initialization.obj
 0001:000126e7       ___acrt_uninitialize       100136e7 f   libucrt:initialization.obj
 0001:00012717       ___acrt_uninitialize_critical 10013717 f   libucrt:initialization.obj
 0001:00012729       __initterm                 10013729 f   libucrt:initterm.obj
 0001:0001276e       __initterm_e               1001376e f   libucrt:initterm.obj
 0001:0001279c       ___acrt_initialize_new_handler 1001379c f   libucrt:new_handler.obj
 0001:000127ab       __callnewh                 100137ab f   libucrt:new_handler.obj
 0001:000127d8       __query_new_handler        100137d8 f   libucrt:new_handler.obj
 0001:00012834       _terminate                 10013834 f   libucrt:terminate.obj
 0001:00012870       _abort                     10013870 f   libucrt:abort.obj
 0001:000128b4       _strcpy_s                  100138b4 f   libucrt:strcpy_s.obj
 0001:0001290e       ??$is_overflow_condition@K@__crt_strtox@@YA_NIK@Z 1001390e f i libucrt:atox.obj
 0001:0001293f       ??$parse_integer@KV?$c_string_character_source@_W@__crt_strtox@@@__crt_strtox@@YAKQAU__crt_locale_pointers@@V?$c_string_character_source@_W@0@H_N@Z 1001393f f i libucrt:atox.obj
 0001:00012f47       ?unget@?$c_string_character_source@_W@__crt_strtox@@QAEX_W@Z 10013f47 f i libucrt:atox.obj
 0001:00012f80       _strncmp                   10013f80 f   libucrt:strncmp.obj
 0001:00012ff8       _wcsncmp                   10013ff8 f   libucrt:wcsncmp.obj
 0001:00013032       __free_base                10014032 f   libucrt:free_base.obj
 0001:000133aa       ___acrt_freeptd            100143aa f   libucrt:per_thread_data.obj
 0001:000133d6       ___acrt_getptd             100143d6 f   libucrt:per_thread_data.obj
 0001:00013493       ___acrt_getptd_head        10014493 f   libucrt:per_thread_data.obj
 0001:0001352d       ___acrt_getptd_noexit      1001452d f   libucrt:per_thread_data.obj
 0001:000135e2       ___acrt_initialize_ptd     100145e2 f   libucrt:per_thread_data.obj
 0001:0001360e       ___acrt_uninitialize_ptd   1001460e f   libucrt:per_thread_data.obj
 0001:00013628       __calloc_base              10014628 f   libucrt:calloc_base.obj
 0001:00013685       __malloc_base              10014685 f   libucrt:malloc_base.obj
 0001:000136d3       __msize_base               100146d3 f   libucrt:msize.obj
 0001:00013706       __realloc_base             10014706 f   libucrt:realloc_base.obj
 0001:00013907       ___acrt_AppPolicyGetProcessTerminationMethodInternal@4 10014907 f   libucrt:winapi_thunks.obj
 0001:00013947       ___acrt_AreFileApisANSI@0  10014947 f   libucrt:winapi_thunks.obj
 0001:00013966       ___acrt_FlsAlloc@4         10014966 f   libucrt:winapi_thunks.obj
 0001:000139a5       ___acrt_FlsFree@4          100149a5 f   libucrt:winapi_thunks.obj
 0001:000139e4       ___acrt_FlsGetValue@4      100149e4 f   libucrt:winapi_thunks.obj
 0001:00013a23       ___acrt_FlsSetValue@8      10014a23 f   libucrt:winapi_thunks.obj
 0001:00013a65       ___acrt_InitializeCriticalSectionEx@12 10014a65 f   libucrt:winapi_thunks.obj
 0001:00013ab0       ___acrt_LCMapStringEx@36   10014ab0 f   libucrt:winapi_thunks.obj
 0001:00013b0d       ___acrt_LocaleNameToLCID@8 10014b0d f   libucrt:winapi_thunks.obj
 0001:00013b3e       ___acrt_SetThreadStackGuarantee@4 10014b3e f   libucrt:winapi_thunks.obj
 0001:00013b79       ___acrt_initialize_winapi_thunks 10014b79 f   libucrt:winapi_thunks.obj
 0001:00013ba4       ___acrt_uninitialize_winapi_thunks 10014ba4 f   libucrt:winapi_thunks.obj
 0001:00013bda       ??$make_c_string_character_source@_WPAPA_W@__crt_strtox@@YA?AV?$c_string_character_source@_W@0@QB_WQAPA_W@Z 10014bda f i libucrt:strtox.obj
 0001:00013bf5       _wcstol                    10014bf5 f   libucrt:strtox.obj
 0001:00013c1f       __mbtowc_l                 10014c1f f   libucrt:mbtowc.obj
 0001:00013d61       _mbtowc                    10014d61 f   libucrt:mbtowc.obj
 0001:00013d7b       _wcsnlen                   10014d7b f   libucrt:strnlen.obj
 0001:00013f2b       ___acrt_update_locale_info 10014f2b f   libucrt:locale_update.obj
 0001:00013f58       ___acrt_update_multibyte_info 10014f58 f   libucrt:locale_update.obj
 0001:00013f85       ?__acrt_fp_classify@@YA?AW4__acrt_fp_class@@ABN@Z 10014f85 f i libucrt:cvt.obj
 0001:00014937       ___acrt_fp_format          10015937 f   libucrt:cvt.obj
 0001:00014a95       __fileno                   10015a95 f   libucrt:fileno.obj
 0001:00014abc       ___acrt_initialize_stdio   10015abc f   libucrt:_file.obj
 0001:00014b84       ___acrt_uninitialize_stdio 10015b84 f   libucrt:_file.obj
 0001:00014bd0       __lock_file                10015bd0 f   libucrt:_file.obj
 0001:00014be4       __unlock_file              10015be4 f   libucrt:_file.obj
 0001:00014bf8       __get_printf_count_output  10015bf8 f   libucrt:printf_count_output.obj
 0001:00014c7b       ___acrt_set_locale_changed 10015c7b f   libucrt:wsetlocale.obj
 0001:00014c86       ___acrt_uninitialize_locale 10015c86 f   libucrt:wsetlocale.obj
 0001:00014e17       ___acrt_initialize_lowio   10015e17 f   libucrt:ioinit.obj
 0001:00014e77       ___acrt_uninitialize_lowio 10015e77 f   libucrt:ioinit.obj
 0001:00014ea3       ___acrt_initialize_locks   10015ea3 f   libucrt:locks.obj
 0001:00014ee4       ___acrt_lock               10015ee4 f   libucrt:locks.obj
 0001:00014efb       ___acrt_uninitialize_locks 10015efb f   libucrt:locks.obj
 0001:00014f2c       ___acrt_unlock             10015f2c f   libucrt:locks.obj
 0001:00014f43       ___acrt_get_process_end_policy 10015f43 f   libucrt:win_policies.obj
 0001:0001510d       ??$__acrt_mbs_to_wcs_cp@U__crt_win32_buffer_internal_dynamic_resizing@@@@YAHQBDAAV?$__crt_win32_buffer@_WU__crt_win32_buffer_internal_dynamic_resizing@@@@I@Z 1001610d f i libucrt:argv_wildcards.obj
 0001:00015621       ?__acrt_get_utf8_acp_compatibility_codepage@@YAIXZ 10016621 f i libucrt:argv_wildcards.obj
 0001:00015660       ?_deallocate@?$__crt_win32_buffer@DU__crt_win32_buffer_internal_dynamic_resizing@@@@AAEXXZ 10016660 f i libucrt:argv_wildcards.obj
 0001:00015660       ?_deallocate@?$__crt_win32_buffer@_WU__crt_win32_buffer_internal_dynamic_resizing@@@@AAEXXZ 10016660 f i libucrt:argv_wildcards.obj
 0001:0001567a       ?allocate@?$__crt_win32_buffer@DU__crt_win32_buffer_internal_dynamic_resizing@@@@QAEHI@Z 1001667a f i libucrt:argv_wildcards.obj
 0001:000156b6       ?allocate@?$__crt_win32_buffer@_WU__crt_win32_buffer_internal_dynamic_resizing@@@@QAEHI@Z 100166b6 f i libucrt:argv_wildcards.obj
 0001:000156f5       ?allocate@__crt_win32_buffer_internal_dynamic_resizing@@SAHQAPAXIABV__crt_win32_buffer_empty_debug_info@@@Z 100166f5 f i libucrt:argv_wildcards.obj
 0001:0001579b       ___acrt_expand_narrow_argv_wildcards 1001679b f   libucrt:argv_wildcards.obj
 0001:0001586d       ?allocate@?$__crt_win32_buffer@DU__crt_win32_buffer_no_resizing@@@@QAEHI@Z 1001686d f i libucrt:getmodulefilenamea.obj
 0001:00015894       ?set_to_nullptr@?$__crt_win32_buffer@DU__crt_win32_buffer_no_resizing@@@@QAEXXZ 10016894 f i libucrt:getmodulefilenamea.obj
 0001:000158a8       ___acrt_GetModuleFileNameA 100168a8 f   libucrt:getmodulefilenamea.obj
 0001:00015e61       ___acrt_initialize_multibyte 10016e61 f   libucrt:mbctype.obj
 0001:00015ea9       ___acrt_update_thread_multibyte_data 10016ea9 f   libucrt:mbctype.obj
 0001:00015ebc       __setmbcp_nolock           10016ebc f   libucrt:mbctype.obj
 0001:00016187       __ismbblead                10017187 f   libucrt:ismbbyte.obj
 0001:0001619f       ___acrt_initialize_command_line 1001719f f   libucrt:argv_data.obj
 0001:000161b8       ___acrt_MultiByteToWideChar 100171b8 f   libucrt:multibytetowidechar.obj
 0001:00016234       ___acrt_WideCharToMultiByte 10017234 f   libucrt:widechartomultibyte.obj
 0001:00016322       ___dcrt_get_narrow_environment_from_os 10017322 f   libucrt:get_environment_from_os.obj
 0001:000163a6       ___acrt_initialize_heap    100173a6 f   libucrt:heap_handle.obj
 0001:000163b7       ___acrt_uninitialize_heap  100173b7 f   libucrt:heap_handle.obj
 0001:000163c1       ___acrt_execute_initializers 100173c1 f   libucrt:shared_initialization.obj
 0001:00016429       ___acrt_execute_uninitializers 10017429 f   libucrt:shared_initialization.obj
 0001:00016528       ___acrt_get_sigabrt_handler 10017528 f   libucrt:signal.obj
 0001:0001654f       ___acrt_initialize_signal_handlers 1001754f f   libucrt:signal.obj
 0001:0001656d       _raise                     1001756d f   libucrt:signal.obj
 0001:00016760       ___acrt_has_user_matherr   10017760 f   libucrt:matherr.obj
 0001:00016778       ___acrt_initialize_user_matherr 10017778 f   libucrt:matherr.obj
 0001:00016787       ___acrt_invoke_user_matherr 10017787 f   libucrt:matherr.obj
 0001:00016996       ___acrt_stdio_flush_nolock 10017996 f   libucrt:fflush.obj
 0001:000169fb       __fflush_nolock            100179fb f   libucrt:fflush.obj
 0001:00016a43       __flushall                 10017a43 f   libucrt:fflush.obj
 0001:00016a4c       ___pctype_func             10017a4c f   libucrt:ctype.obj
 0001:00016a70       _iswctype                  10017a70 f   libucrt:iswctype.obj
 0001:00016ad9       ___acrt_add_locale_ref     10017ad9 f   libucrt:locale_refcounting.obj
 0001:00016b56       ___acrt_free_locale        10017b56 f   libucrt:locale_refcounting.obj
 0001:00016c9e       ___acrt_locale_add_lc_time_reference 10017c9e f   libucrt:locale_refcounting.obj
 0001:00016cc7       ___acrt_locale_free_lc_time_if_unreferenced 10017cc7 f   libucrt:locale_refcounting.obj
 0001:00016cf8       ___acrt_locale_release_lc_time_reference 10017cf8 f   libucrt:locale_refcounting.obj
 0001:00016d21       ___acrt_release_locale_ref 10017d21 f   libucrt:locale_refcounting.obj
 0001:00016da2       ___acrt_update_thread_locale_data 10017da2 f   libucrt:locale_refcounting.obj
 0001:00016e23       __updatetlocinfoEx_nolock  10017e23 f   libucrt:locale_refcounting.obj
 0001:00016e73       __query_new_mode           10017e73 f   libucrt:new_mode.obj
 0001:00016eca       ___acrt_DownlevelLocaleNameToLCID 10017eca f   libucrt:lcidtoname_downlevel.obj
 0001:00016ef6       __isleadbyte_l             10017ef6 f i libucrt:_wctype.obj
 0001:00016f5c       ?__mbrtowc_utf8@__crt_mbstring@@YAIPA_WPBDIPAU_Mbstatet@@@Z 10017f5c f   libucrt:mbrtowc.obj
 0001:00016f9c       ?__mbsrtowcs_utf8@__crt_mbstring@@YAIPA_WPAPBDIPAU_Mbstatet@@@Z 10017f9c f   libucrt:mbrtowc.obj
 0001:00017097       ?return_illegal_sequence@__crt_mbstring@@YAIPAU_Mbstatet@@@Z 10018097 f i libucrt:c32rtomb.obj
 0001:00017121       ___acrt_fp_strflt_to_string 10018121 f   libucrt:_fptostr.obj
 0001:00017200       ?divide@__crt_strtox@@YA_KAAUbig_integer@1@ABU21@@Z 10018200 f i libucrt:cfout.obj
 0001:00017698       ___acrt_fltout             10018698 f   libucrt:cfout.obj
 0001:00018b9f       _fegetround                10019b9f f   libucrt:fegetround.obj
 0001:00018bac       __fcloseall                10019bac f   libucrt:closeall.obj
 0001:00018c57       ___acrt_stdio_free_buffer_nolock 10019c57 f   libucrt:_freebuf.obj
 0001:00018c97       __isatty                   10019c97 f   libucrt:isatty.obj
 0001:00018ced       ___acrt_locale_free_monetary 10019ced f   libucrt:initmon.obj
 0001:00018deb       ___acrt_locale_free_numeric 10019deb f   libucrt:initnum.obj
 0001:00018e8c       ___acrt_locale_free_time   10019e8c f   libucrt:inittime.obj
 0001:00018f70       ___acrt_GetStringTypeA     10019f70 f   libucrt:getstringtypea.obj
 0001:00019073       __freea_crt                1001a073 f i libucrt:getstringtypea.obj
 0001:00019093       ___acrt_lowio_create_handle_array 1001a093 f   libucrt:osfinfo.obj
 0001:0001910e       ___acrt_lowio_destroy_handle_array 1001a10e f   libucrt:osfinfo.obj
 0001:00019143       ___acrt_lowio_ensure_fh_exists 1001a143 f   libucrt:osfinfo.obj
 0001:000191e1       ___acrt_lowio_lock_fh      1001a1e1 f   libucrt:osfinfo.obj
 0001:00019204       ___acrt_lowio_unlock_fh    1001a204 f   libucrt:osfinfo.obj
 0001:00019227       __free_osfhnd              1001a227 f   libucrt:osfinfo.obj
 0001:000192b8       __get_osfhandle            1001a2b8 f   libucrt:osfinfo.obj
 0001:00019330       _qsort                     1001a330 f   libucrt:qsort.obj
 0001:000198d1       _strncpy_s                 1001a8d1 f   libucrt:strncpy_s.obj
 0001:000198e0       _strpbrk                   1001a8e0 f   libucrt:strpbrk.obj
 0001:00019920       __mbsdec                   1001a920 f   libucrt:mbsdec.obj
 0001:00019937       __mbsdec_l                 1001a937 f   libucrt:mbsdec.obj
 0001:00019bae       ___acrt_LCMapStringA       1001abae f   libucrt:lcmapstringa.obj
 0001:00019ca8       __commit                   1001aca8 f   libucrt:commit.obj
 0001:0001a4a0       __write                    1001b4a0 f   libucrt:write.obj
 0001:0001a592       __write_nolock             1001b592 f   libucrt:write.obj
 0001:0001a76c       ___acrt_GetStringTypeW     1001b76c f   libucrt:getstringtypew.obj
 0001:0001a785       ___ascii_wcsnicmp          1001b785 f   libucrt:wcsnicmp.obj
 0001:0001a7d4       ?__mbrtoc32_utf8@__crt_mbstring@@YAIPA_UPBDIPAU_Mbstatet@@@Z 1001b7d4 f   libucrt:mbrtoc32.obj
 0001:0001a97b       __controlfp_s              1001b97b f   libucrt:contrlfp.obj
 0001:0001a9da       _fegetenv                  1001b9da f   libucrt:fegetenv.obj
 0001:0001a9f7       _fesetenv                  1001b9f7 f   libucrt:fesetenv.obj
 0001:0001aa42       _feholdexcept              1001ba42 f   libucrt:feholdexcept.obj
 0001:0001aa90       __CIlog10                  1001ba90 f   libucrt:log10_impl.obj
 0001:0001aacb       __CIlog10_default          1001bacb f   libucrt:log10_impl.obj
 0001:0001aadf       __log10_default            1001badf     libucrt:log10_impl.obj
 0001:0001aba0       _ceil                      1001bba0 f   libucrt:ceil_pentium4.obj
 0001:0001abe0       __ceil_pentium4            1001bbe0 f   libucrt:ceil_pentium4.obj
 0001:0001afda       ___acrt_fenv_get_common_round_control 1001bfda f   libucrt:_fenvutils.obj
 0001:0001affc       ___acrt_fenv_get_control   1001bffc f   libucrt:_fenvutils.obj
 0001:0001b07c       ___acrt_fenv_get_status    1001c07c f   libucrt:_fenvutils.obj
 0001:0001b134       ___acrt_fenv_set_control   1001c134 f   libucrt:_fenvutils.obj
 0001:0001b19c       ___acrt_fenv_set_status    1001c19c f   libucrt:_fenvutils.obj
 0001:0001b30f       __lseeki64_nolock          1001c30f f   libucrt:lseek.obj
 0001:0001b32a       __fclose_nolock            1001c32a f   libucrt:fclose.obj
 0001:0001b3a1       _fclose                    1001c3a1 f   libucrt:fclose.obj
 0001:0001b425       __query_app_type           1001c425 f   libucrt:report_runtime_error.obj
 0001:0001b42b       ___strncnt                 1001c42b f   libucrt:strncnt.obj
 0001:0001b447       __putwch_nolock            1001c447 f   libucrt:putwch.obj
 0001:0001b520       __clearfp                  1001c520 f   libucrt:ieee87.obj
 0001:0001b5fe       __control87                1001c5fe f   libucrt:ieee87.obj
 0001:0001b99d       ___acrt_initialize_sse2    1001c99d f   libucrt:mathfcns.obj
 0001:0001b9b0       __CIlog10_pentium4         1001c9b0 f   libucrt:log10_pentium4.obj
 0001:0001b9c8       __log10_pentium4           1001c9c8     libucrt:log10_pentium4.obj
 0001:0001bc60       __fFEXP                    1001cc60 f   libucrt:87tran.obj
 0001:0001bcb7       __rtinfpopse               1001ccb7     libucrt:87tran.obj
 0001:0001bcb9       __rtinfnpopse              1001ccb9     libucrt:87tran.obj
 0001:0001bcc9       __fFLN                     1001ccc9     libucrt:87tran.obj
 0001:0001bd7e       __rtinfpop                 1001cd7e     libucrt:87tran.obj
 0001:0001bd80       __rtinfnpop                1001cd80     libucrt:87tran.obj
 0001:0001bd90       __rtforexpinf              1001cd90 f   libucrt:87tran.obj
 0001:0001bd9d       __ffexpm1                  1001cd9d     libucrt:87tran.obj
 0001:0001be50       __trandisp1                1001ce50 f   libucrt:87disp.obj
 0001:0001bec5       __trandisp2                1001cec5 f   libucrt:87disp.obj
 0001:0001bf5f       __rttospopde               1001cf5f     libucrt:87disp.obj
 0001:0001bf64       __rttospop                 1001cf64     libucrt:87disp.obj
 0001:0001bf70       __rtnospop                 1001cf70 f   libucrt:87disp.obj
 0001:0001bf80       __rttosnpop                1001cf80 f   libucrt:87disp.obj
 0001:0001bf81       __rtnospopde               1001cf81     libucrt:87disp.obj
 0001:0001bf88       __rtzeropop                1001cf88     libucrt:87disp.obj
 0001:0001bf8a       __rtzeronpop               1001cf8a     libucrt:87disp.obj
 0001:0001bf90       __rtzerospop               1001cf90 f   libucrt:87disp.obj
 0001:0001bf9d       __rtonepop                 1001cf9d     libucrt:87disp.obj
 0001:0001bfa0       __rtonenpop                1001cfa0 f   libucrt:87disp.obj
 0001:0001bfb0       __tosnan1                  1001cfb0 f   libucrt:87disp.obj
 0001:0001bfe0       __nosnan2                  1001cfe0 f   libucrt:87disp.obj
 0001:0001bff0       __tosnan2                  1001cff0 f   libucrt:87disp.obj
 0001:0001c020       __nan2                     1001d020 f   libucrt:87disp.obj
 0001:0001c060       __rtindfpop                1001d060 f   libucrt:87disp.obj
 0001:0001c062       __rtindfnpop               1001d062     libucrt:87disp.obj
 0001:0001c073       __rttosnpopde              1001d073     libucrt:87disp.obj
 0001:0001c080       __rtatan2inf               1001d080 f   libucrt:87disp.obj
 0001:0001c09d       __rtchsifneg               1001d09d     libucrt:87disp.obj
 0001:0001c0b0       __twoToTOS                 1001d0b0 f   libucrt:common.obj
 0001:0001c0c5       __load_CW                  1001d0c5 f   libucrt:common.obj
 0001:0001c0dc       __convertTOStoQNaN         1001d0dc f   libucrt:common.obj
 0001:0001c0f5       __fload_withFB             1001d0f5 f   libucrt:common.obj
 0001:0001c138       __checkTOS_withFB          1001d138 f   libucrt:common.obj
 0001:0001c14e       __fast_exit                1001d14e f   libucrt:common.obj
 0001:0001c15b       __math_exit                1001d15b f   libucrt:common.obj
 0001:0001c185       __check_overflow_exit      1001d185 f   libucrt:common.obj
 0001:0001c199       __check_range_exit         1001d199 f   libucrt:common.obj
 0001:0001c240       __startTwoArgErrorHandling 1001d240 f   libucrt:genexcep.obj
 0001:0001c257       __startOneArgErrorHandling 1001d257 f   libucrt:genexcep.obj
 0001:0001c293       ___libm_error_support      1001d293 f   libucrt:libm_error.obj
 0001:0001c487       __ceil_default             1001d487 f   libucrt:ceil.obj
 0001:0001c5c8       __close                    1001d5c8 f   libucrt:close.obj
 0001:0001c655       __close_nolock             1001d655 f   libucrt:close.obj
 0001:0001c6f1       ?__acrt_stdio_free_stream@@YAXV__crt_stdio_stream@@@Z 1001d6f1 f   libucrt:stream.obj
 0001:0001c730       ___ascii_strnicmp          1001d730 f   libucrt:_strnicm.obj
 0001:0001c7b0       ___dcrt_lowio_ensure_console_output_initialized 1001d7b0 f   libucrt:initcon.obj
 0001:0001c7cf       ___dcrt_terminate_console_output 1001d7cf f   libucrt:initcon.obj
 0001:0001c7e6       ___dcrt_write_console      1001d7e6 f   libucrt:initcon.obj
 0001:0001c83b       ___set_fpsr_sse2           1001d83b f   libucrt:fpctrl.obj
 0001:0001c8bb       __clrfp                    1001d8bb f   libucrt:fpctrl.obj
 0001:0001c8cc       __ctrlfp                   1001d8cc f   libucrt:fpctrl.obj
 0001:0001c8f6       __set_statfp               1001d8f6 f   libucrt:fpctrl.obj
 0001:0001c94f       __statfp                   1001d94f f   libucrt:fpctrl.obj
 0001:0001c95f       __d_inttype                1001d95f f   libucrt:powhlp.obj
 0001:0001c9c7       __powhlp                   1001d9c7 f   libucrt:powhlp.obj
 0001:0001caf2       __87except                 1001daf2 f   libucrt:87except.obj
 0001:0001cbfc       __frnd                     1001dbfc f   libucrt:frnd.obj
 0001:0001cc10       __errcode                  1001dc10 f   libucrt:fpexcept.obj
 0001:0001cc44       __except1                  1001dc44 f   libucrt:fpexcept.obj
 0001:0001cd12       __handle_exc               1001dd12 f   libucrt:fpexcept.obj
 0001:0001cefd       __raise_exc                1001defd f   libucrt:fpexcept.obj
 0001:0001cf20       __raise_exc_ex             1001df20 f   libucrt:fpexcept.obj
 0001:0001d216       __set_errno_from_matherr   1001e216 f   libucrt:fpexcept.obj
 0001:0001d245       __umatherr                 1001e245 f   libucrt:fpexcept.obj
 0001:0001d2e5       __decomp                   1001e2e5 f   libucrt:util.obj
 0001:0001d3b7       __set_exp                  1001e3b7 f   libucrt:util.obj
 0001:0001d3e4       __sptype                   1001e3e4 f   libucrt:util.obj
 0001:0001d442       __fpclass                  1001e442 f   libucrt:ieeemisc.obj
 0001:0001d4e6       _IsProcessorFeaturePresent@4 1001e4e6 f   kernel32:KERNEL32.dll
 0001:0001d4f0       __FindPESection            1001e4f0 f   LIBCMT:pesect.obj
 0001:0001d540       __IsNonwritableInCurrentImage 1001e540 f   LIBCMT:pesect.obj
 0001:0001d600       __ValidateImageBase        1001e600 f   LIBCMT:pesect.obj
 0001:0001d633       __EH_prolog3_catch         1001e633 f   LIBCMT:ehprolg3.obj
 0001:0001d670       __aulldvrm                 1001e670 f   LIBCMT:ulldvrm.obj
 0001:0001d710       __allmul                   1001e710 f   LIBCMT:llmul.obj
 0001:0001d750       __alldvrm                  1001e750 f   LIBCMT:lldvrm.obj
 0001:0001d830       __allshl                   1001e830 f   LIBCMT:llshl.obj
 0001:0001d850       __aullshr                  1001e850 f   LIBCMT:ullshr.obj
 0001:0001d870       __ftol2_sse_excpt          1001e870     LIBCMT:ftol2.obj
 0001:0001d870       __ftol2_sse                1001e870     LIBCMT:ftol2.obj
 0001:0001d870       __ftoi2                    1001e870 f   LIBCMT:ftol2.obj
 0001:0001d8f0       __ftoui2                   1001e8f0 f   LIBCMT:ftol2.obj
 0001:0001d9a0       __ftol2                    1001e9a0 f   LIBCMT:ftol2.obj
 0001:0001da50       __ftoul2                   1001ea50 f   LIBCMT:ftol2.obj
 0001:0001db10       _strrchr                   1001eb10 f   libvcruntime:strrchr.obj
 0001:0001dc50       _strchr                    1001ec50 f   libvcruntime:strchr.obj
 0001:0001dcbe       ___from_strstr_to_strchr   1001ecbe     libvcruntime:strchr.obj
 0001:0001dd7b       __filter_x86_sse2_floating_point_exception 1001ed7b f   LIBCMT:x86_exception_filter.obj
 0001:0001dd7b       __filter_x86_sse2_floating_point_exception_default 1001ed7b f   LIBCMT:x86_exception_filter.obj
 0002:00000000       __imp__RegQueryValueExW@24 1001f000     advapi32:ADVAPI32.dll
 0002:00000004       __imp__RegSetValueExW@24   1001f004     advapi32:ADVAPI32.dll
 0002:00000008       __imp__RegQueryInfoKeyW@48 1001f008     advapi32:ADVAPI32.dll
 0002:0000000c       __imp__RegOpenKeyExW@20    1001f00c     advapi32:ADVAPI32.dll
 0002:00000010       __imp__RegEnumKeyExW@32    1001f010     advapi32:ADVAPI32.dll
 0002:00000014       __imp__RegDeleteValueW@8   1001f014     advapi32:ADVAPI32.dll
 0002:00000018       __imp__RegDeleteKeyW@8     1001f018     advapi32:ADVAPI32.dll
 0002:0000001c       __imp__RegCreateKeyExW@36  1001f01c     advapi32:ADVAPI32.dll
 0002:00000020       __imp__RegCloseKey@4       1001f020     advapi32:ADVAPI32.dll
 0002:00000024       \177ADVAPI32_NULL_THUNK_DATA 1001f024     advapi32:ADVAPI32.dll
 0002:00000028       __imp__GetObjectW@12       1001f028     gdi32:GDI32.dll
 0002:0000002c       __imp__SelectObject@8      1001f02c     gdi32:GDI32.dll
 0002:00000030       __imp__DeleteObject@4      1001f030     gdi32:GDI32.dll
 0002:00000034       __imp__CreateCompatibleDC@4 1001f034     gdi32:GDI32.dll
 0002:00000038       __imp__BitBlt@36           1001f038     gdi32:GDI32.dll
 0002:0000003c       __imp__SetWindowOrgEx@16   1001f03c     gdi32:GDI32.dll
 0002:00000040       __imp__SetWindowExtEx@16   1001f040     gdi32:GDI32.dll
 0002:00000044       __imp__SetViewportOrgEx@16 1001f044     gdi32:GDI32.dll
 0002:00000048       __imp__LPtoDP@12           1001f048     gdi32:GDI32.dll
 0002:0000004c       __imp__SetMapMode@8        1001f04c     gdi32:GDI32.dll
 0002:00000050       __imp__SaveDC@4            1001f050     gdi32:GDI32.dll
 0002:00000054       __imp__RestoreDC@8         1001f054     gdi32:GDI32.dll
 0002:00000058       __imp__GetDeviceCaps@8     1001f058     gdi32:GDI32.dll
 0002:0000005c       __imp__DeleteMetaFile@4    1001f05c     gdi32:GDI32.dll
 0002:00000060       __imp__DeleteDC@4          1001f060     gdi32:GDI32.dll
 0002:00000064       __imp__CreateRectRgnIndirect@4 1001f064     gdi32:GDI32.dll
 0002:00000068       __imp__CreateMetaFileW@4   1001f068     gdi32:GDI32.dll
 0002:0000006c       __imp__CreateDCW@16        1001f06c     gdi32:GDI32.dll
 0002:00000070       __imp__CloseMetaFile@4     1001f070     gdi32:GDI32.dll
 0002:00000074       \177GDI32_NULL_THUNK_DATA  1001f074     gdi32:GDI32.dll
 0002:00000078       __imp__CloseHandle@4       1001f078     kernel32:KERNEL32.dll
 0002:0000007c       __imp__SetEvent@4          1001f07c     kernel32:KERNEL32.dll
 0002:00000080       __imp__CreateMutexW@12     1001f080     kernel32:KERNEL32.dll
 0002:00000084       __imp__CreateEventW@16     1001f084     kernel32:KERNEL32.dll
 0002:00000088       __imp__GetCurrentProcessId@0 1001f088     kernel32:KERNEL32.dll
 0002:0000008c       __imp__CreateFileW@28      1001f08c     kernel32:KERNEL32.dll
 0002:00000090       __imp__GetConsoleMode@8    1001f090     kernel32:KERNEL32.dll
 0002:00000094       __imp__GetConsoleOutputCP@0 1001f094     kernel32:KERNEL32.dll
 0002:00000098       __imp__WriteFile@20        1001f098     kernel32:KERNEL32.dll
 0002:0000009c       __imp__FlushFileBuffers@4  1001f09c     kernel32:KERNEL32.dll
 0002:000000a0       __imp__SetStdHandle@8      1001f0a0     kernel32:KERNEL32.dll
 0002:000000a4       __imp__GetStringTypeW@16   1001f0a4     kernel32:KERNEL32.dll
 0002:000000a8       __imp__SetFilePointerEx@20 1001f0a8     kernel32:KERNEL32.dll
 0002:000000ac       __imp__FreeEnvironmentStringsW@4 1001f0ac     kernel32:KERNEL32.dll
 0002:000000b0       __imp__GetEnvironmentStringsW@0 1001f0b0     kernel32:KERNEL32.dll
 0002:000000b4       __imp__lstrcmpiW@8         1001f0b4     kernel32:KERNEL32.dll
 0002:000000b8       __imp__GetCommandLineA@0   1001f0b8     kernel32:KERNEL32.dll
 0002:000000bc       __imp__GetCPInfo@8         1001f0bc     kernel32:KERNEL32.dll
 0002:000000c0       __imp__GetOEMCP@0          1001f0c0     kernel32:KERNEL32.dll
 0002:000000c4       __imp__GetACP@0            1001f0c4     kernel32:KERNEL32.dll
 0002:000000c8       __imp__IsValidCodePage@4   1001f0c8     kernel32:KERNEL32.dll
 0002:000000cc       __imp__FindNextFileW@8     1001f0cc     kernel32:KERNEL32.dll
 0002:000000d0       __imp__FindFirstFileExW@24 1001f0d0     kernel32:KERNEL32.dll
 0002:000000d4       __imp__FindClose@4         1001f0d4     kernel32:KERNEL32.dll
 0002:000000d8       __imp__GetFileType@4       1001f0d8     kernel32:KERNEL32.dll
 0002:000000dc       __imp__GetStdHandle@4      1001f0dc     kernel32:KERNEL32.dll
 0002:000000e0       __imp__LCMapStringW@24     1001f0e0     kernel32:KERNEL32.dll
 0002:000000e4       __imp__HeapReAlloc@16      1001f0e4     kernel32:KERNEL32.dll
 0002:000000e8       __imp__HeapSize@12         1001f0e8     kernel32:KERNEL32.dll
 0002:000000ec       __imp__MulDiv@12           1001f0ec     kernel32:KERNEL32.dll
 0002:000000f0       __imp__GlobalLock@4        1001f0f0     kernel32:KERNEL32.dll
 0002:000000f4       __imp__GlobalUnlock@4      1001f0f4     kernel32:KERNEL32.dll
 0002:000000f8       __imp__GlobalAlloc@8       1001f0f8     kernel32:KERNEL32.dll
 0002:000000fc       __imp__FindResourceW@12    1001f0fc     kernel32:KERNEL32.dll
 0002:00000100       __imp__SizeofResource@8    1001f100     kernel32:KERNEL32.dll
 0002:00000104       __imp__LoadResource@8      1001f104     kernel32:KERNEL32.dll
 0002:00000108       __imp__LoadLibraryExW@12   1001f108     kernel32:KERNEL32.dll
 0002:0000010c       __imp__GetProcAddress@8    1001f10c     kernel32:KERNEL32.dll
 0002:00000110       __imp__GetModuleHandleW@4  1001f110     kernel32:KERNEL32.dll
 0002:00000114       __imp__GetModuleFileNameW@12 1001f114     kernel32:KERNEL32.dll
 0002:00000118       __imp__FreeLibrary@4       1001f118     kernel32:KERNEL32.dll
 0002:0000011c       __imp__DisableThreadLibraryCalls@4 1001f11c     kernel32:KERNEL32.dll
 0002:00000120       __imp__GetCurrentThreadId@0 1001f120     kernel32:KERNEL32.dll
 0002:00000124       __imp__Sleep@4             1001f124     kernel32:KERNEL32.dll
 0002:00000128       __imp__WaitForSingleObject@8 1001f128     kernel32:KERNEL32.dll
 0002:0000012c       __imp__ReleaseMutex@4      1001f12c     kernel32:KERNEL32.dll
 0002:00000130       __imp__ResetEvent@4        1001f130     kernel32:KERNEL32.dll
 0002:00000134       __imp__EnterCriticalSection@4 1001f134     kernel32:KERNEL32.dll
 0002:00000138       __imp__LeaveCriticalSection@4 1001f138     kernel32:KERNEL32.dll
 0002:0000013c       __imp__SetLastError@4      1001f13c     kernel32:KERNEL32.dll
 0002:00000140       __imp__EncodePointer@4     1001f140     kernel32:KERNEL32.dll
 0002:00000144       __imp__DeleteCriticalSection@4 1001f144     kernel32:KERNEL32.dll
 0002:00000148       __imp__InitializeCriticalSectionEx@12 1001f148     kernel32:KERNEL32.dll
 0002:0000014c       __imp__GetLastError@0      1001f14c     kernel32:KERNEL32.dll
 0002:00000150       __imp__RaiseException@16   1001f150     kernel32:KERNEL32.dll
 0002:00000154       __imp__DecodePointer@4     1001f154     kernel32:KERNEL32.dll
 0002:00000158       __imp__WideCharToMultiByte@32 1001f158     kernel32:KERNEL32.dll
 0002:0000015c       __imp__GetCommandLineW@0   1001f15c     kernel32:KERNEL32.dll
 0002:00000160       __imp__MultiByteToWideChar@24 1001f160     kernel32:KERNEL32.dll
 0002:00000164       __imp__WriteConsoleW@20    1001f164     kernel32:KERNEL32.dll
 0002:00000168       __imp__GetModuleHandleExW@12 1001f168     kernel32:KERNEL32.dll
 0002:0000016c       __imp__ExitProcess@4       1001f16c     kernel32:KERNEL32.dll
 0002:00000170       __imp__VirtualQuery@12     1001f170     kernel32:KERNEL32.dll
 0002:00000174       __imp__VirtualProtect@16   1001f174     kernel32:KERNEL32.dll
 0002:00000178       __imp__GetSystemInfo@4     1001f178     kernel32:KERNEL32.dll
 0002:0000017c       __imp__TlsFree@4           1001f17c     kernel32:KERNEL32.dll
 0002:00000180       __imp__TlsSetValue@8       1001f180     kernel32:KERNEL32.dll
 0002:00000184       __imp__TlsGetValue@4       1001f184     kernel32:KERNEL32.dll
 0002:00000188       __imp__TlsAlloc@0          1001f188     kernel32:KERNEL32.dll
 0002:0000018c       __imp__InterlockedFlushSList@4 1001f18c     kernel32:KERNEL32.dll
 0002:00000190       __imp__RtlUnwind@16        1001f190     kernel32:KERNEL32.dll
 0002:00000194       __imp__LoadLibraryExA@12   1001f194     kernel32:KERNEL32.dll
 0002:00000198       __imp__VirtualFree@12      1001f198     kernel32:KERNEL32.dll
 0002:0000019c       __imp__VirtualAlloc@16     1001f19c     kernel32:KERNEL32.dll
 0002:000001a0       __imp__FlushInstructionCache@12 1001f1a0     kernel32:KERNEL32.dll
 0002:000001a4       __imp__InterlockedPushEntrySList@8 1001f1a4     kernel32:KERNEL32.dll
 0002:000001a8       __imp__InterlockedPopEntrySList@4 1001f1a8     kernel32:KERNEL32.dll
 0002:000001ac       __imp__GetProcessHeap@0    1001f1ac     kernel32:KERNEL32.dll
 0002:000001b0       __imp__HeapFree@12         1001f1b0     kernel32:KERNEL32.dll
 0002:000001b4       __imp__HeapAlloc@12        1001f1b4     kernel32:KERNEL32.dll
 0002:000001b8       __imp__OutputDebugStringW@4 1001f1b8     kernel32:KERNEL32.dll
 0002:000001bc       __imp__InitializeSListHead@4 1001f1bc     kernel32:KERNEL32.dll
 0002:000001c0       __imp__GetSystemTimeAsFileTime@4 1001f1c0     kernel32:KERNEL32.dll
 0002:000001c4       __imp__QueryPerformanceCounter@4 1001f1c4     kernel32:KERNEL32.dll
 0002:000001c8       __imp__GetStartupInfoW@4   1001f1c8     kernel32:KERNEL32.dll
 0002:000001cc       __imp__IsDebuggerPresent@0 1001f1cc     kernel32:KERNEL32.dll
 0002:000001d0       __imp__IsProcessorFeaturePresent@4 1001f1d0     kernel32:KERNEL32.dll
 0002:000001d4       __imp__TerminateProcess@8  1001f1d4     kernel32:KERNEL32.dll
 0002:000001d8       __imp__GetCurrentProcess@0 1001f1d8     kernel32:KERNEL32.dll
 0002:000001dc       __imp__SetUnhandledExceptionFilter@4 1001f1dc     kernel32:KERNEL32.dll
 0002:000001e0       __imp__UnhandledExceptionFilter@4 1001f1e0     kernel32:KERNEL32.dll
 0002:000001e4       __imp__InitializeCriticalSectionAndSpinCount@8 1001f1e4     kernel32:KERNEL32.dll
 0002:000001e8       __imp__WaitForSingleObjectEx@12 1001f1e8     kernel32:KERNEL32.dll
 0002:000001ec       \177KERNEL32_NULL_THUNK_DATA 1001f1ec     kernel32:KERNEL32.dll
 0002:000001f0       __imp__OleCreatePropertyFrame@44 1001f1f0     oleaut32:OLEAUT32.dll
 0002:000001f4       __imp__UnRegisterTypeLib@20 1001f1f4     oleaut32:OLEAUT32.dll
 0002:000001f8       __imp__RegisterTypeLib@12  1001f1f8     oleaut32:OLEAUT32.dll
 0002:000001fc       __imp__LoadRegTypeLib@20   1001f1fc     oleaut32:OLEAUT32.dll
 0002:00000200       __imp__LoadTypeLib@8       1001f200     oleaut32:OLEAUT32.dll
 0002:00000204       __imp__VarUI4FromStr@16    1001f204     oleaut32:OLEAUT32.dll
 0002:00000208       __imp__VariantInit@4       1001f208     oleaut32:OLEAUT32.dll
 0002:0000020c       __imp__SysAllocStringByteLen@8 1001f20c     oleaut32:OLEAUT32.dll
 0002:00000210       __imp__SysStringByteLen@4  1001f210     oleaut32:OLEAUT32.dll
 0002:00000214       __imp__VariantChangeType@16 1001f214     oleaut32:OLEAUT32.dll
 0002:00000218       __imp__VariantClear@4      1001f218     oleaut32:OLEAUT32.dll
 0002:0000021c       __imp__SysStringLen@4      1001f21c     oleaut32:OLEAUT32.dll
 0002:00000220       __imp__SysFreeString@4     1001f220     oleaut32:OLEAUT32.dll
 0002:00000224       __imp__SysAllocStringLen@8 1001f224     oleaut32:OLEAUT32.dll
 0002:00000228       __imp__SysAllocString@4    1001f228     oleaut32:OLEAUT32.dll
 0002:0000022c       \177OLEAUT32_NULL_THUNK_DATA 1001f22c     oleaut32:OLEAUT32.dll
 0002:00000230       __imp__UnregisterClassW@8  1001f230     user32:USER32.dll
 0002:00000234       __imp__PostMessageW@16     1001f234     user32:USER32.dll
 0002:00000238       __imp__DefWindowProcW@16   1001f238     user32:USER32.dll
 0002:0000023c       __imp__CallWindowProcW@20  1001f23c     user32:USER32.dll
 0002:00000240       __imp__RegisterClassExW@4  1001f240     user32:USER32.dll
 0002:00000244       __imp__GetClassInfoExW@12  1001f244     user32:USER32.dll
 0002:00000248       __imp__CreateWindowExW@48  1001f248     user32:USER32.dll
 0002:0000024c       __imp__IsWindow@4          1001f24c     user32:USER32.dll
 0002:00000250       __imp__IsChild@8           1001f250     user32:USER32.dll
 0002:00000254       __imp__DestroyWindow@4     1001f254     user32:USER32.dll
 0002:00000258       __imp__ShowWindow@8        1001f258     user32:USER32.dll
 0002:0000025c       __imp__SetWindowPos@28     1001f25c     user32:USER32.dll
 0002:00000260       __imp__CharNextW@4         1001f260     user32:USER32.dll
 0002:00000264       __imp__SetFocus@4          1001f264     user32:USER32.dll
 0002:00000268       __imp__LoadBitmapW@8       1001f268     user32:USER32.dll
 0002:0000026c       __imp__RegisterClassW@4    1001f26c     user32:USER32.dll
 0002:00000270       __imp__PeekMessageW@20     1001f270     user32:USER32.dll
 0002:00000274       __imp__LoadCursorW@8       1001f274     user32:USER32.dll
 0002:00000278       __imp__GetParent@4         1001f278     user32:USER32.dll
 0002:0000027c       __imp__SetWindowLongW@12   1001f27c     user32:USER32.dll
 0002:00000280       __imp__GetWindowLongW@8    1001f280     user32:USER32.dll
 0002:00000284       __imp__PtInRect@12         1001f284     user32:USER32.dll
 0002:00000288       __imp__EqualRect@8         1001f288     user32:USER32.dll
 0002:0000028c       __imp__OffsetRect@12       1001f28c     user32:USER32.dll
 0002:00000290       __imp__UnionRect@12        1001f290     user32:USER32.dll
 0002:00000294       __imp__IntersectRect@12    1001f294     user32:USER32.dll
 0002:00000298       __imp__GetClientRect@8     1001f298     user32:USER32.dll
 0002:0000029c       __imp__InvalidateRect@12   1001f29c     user32:USER32.dll
 0002:000002a0       __imp__SetWindowRgn@12     1001f2a0     user32:USER32.dll
 0002:000002a4       __imp__EndPaint@8          1001f2a4     user32:USER32.dll
 0002:000002a8       __imp__BeginPaint@8        1001f2a8     user32:USER32.dll
 0002:000002ac       __imp__ReleaseDC@8         1001f2ac     user32:USER32.dll
 0002:000002b0       __imp__GetDC@4             1001f2b0     user32:USER32.dll
 0002:000002b4       __imp__GetKeyState@4       1001f2b4     user32:USER32.dll
 0002:000002b8       __imp__GetFocus@0          1001f2b8     user32:USER32.dll
 0002:000002bc       \177USER32_NULL_THUNK_DATA 1001f2bc     user32:USER32.dll
 0002:000002c0       __imp__StringFromGUID2@12  1001f2c0     ole32:ole32.dll
 0002:000002c4       __imp__CoTaskMemAlloc@4    1001f2c4     ole32:ole32.dll
 0002:000002c8       __imp__CoTaskMemRealloc@8  1001f2c8     ole32:ole32.dll
 0002:000002cc       __imp__CoTaskMemFree@4     1001f2cc     ole32:ole32.dll
 0002:000002d0       __imp__ReadClassStm@8      1001f2d0     ole32:ole32.dll
 0002:000002d4       __imp__WriteClassStm@8     1001f2d4     ole32:ole32.dll
 0002:000002d8       __imp__CreateDataAdviseHolder@4 1001f2d8     ole32:ole32.dll
 0002:000002dc       __imp__OleSaveToStream@8   1001f2dc     ole32:ole32.dll
 0002:000002e0       __imp__CreateOleAdviseHolder@4 1001f2e0     ole32:ole32.dll
 0002:000002e4       __imp__OleRegGetUserType@12 1001f2e4     ole32:ole32.dll
 0002:000002e8       __imp__OleRegGetMiscStatus@12 1001f2e8     ole32:ole32.dll
 0002:000002ec       __imp__OleRegEnumVerbs@8   1001f2ec     ole32:ole32.dll
 0002:000002f0       __imp__CLSIDFromProgID@8   1001f2f0     ole32:ole32.dll
 0002:000002f4       __imp__CoCreateInstance@20 1001f2f4     ole32:ole32.dll
 0002:000002f8       \177ole32_NULL_THUNK_DATA  1001f2f8     ole32:ole32.dll
 0002:000002fc       ___guard_check_icall_fptr  1001f2fc     LIBCMT:guard_support.obj
 0002:00000300       ___xc_a                    1001f300     LIBCMT:initializers.obj
 0002:00000318       ___xc_z                    1001f318     LIBCMT:initializers.obj
 0002:0000031c       ___xi_a                    1001f31c     LIBCMT:initializers.obj
 0002:00000324       ___acrt_stdio_initializer  1001f324     libucrt:stdio_initializer.obj
 0002:00000328       ___acrt_multibyte_initializer 1001f328     libucrt:multibyte_initializer.obj
 0002:0000032c       ___acrt_tran_sse2_initializer 1001f32c     libucrt:sse2_initializer.obj
 0002:00000330       ___xi_z                    1001f330     LIBCMT:initializers.obj
 0002:00000334       ___xl_a                    1001f334     LIBCMT:tlssup.obj
 0002:00000338       ___xl_z                    1001f338     LIBCMT:tlssup.obj
 0002:0000033c       ___xp_a                    1001f33c     LIBCMT:initializers.obj
 0002:00000340       ___acrt_locale_terminator  1001f340     libucrt:locale_initializer.obj
 0002:00000344       ___dcrt_console_output_terminator 1001f344     libucrt:console_output_initializer.obj
 0002:00000348       ___acrt_stdio_terminator   1001f348     libucrt:stdio_initializer.obj
 0002:0000034c       ___xp_z                    1001f34c     LIBCMT:initializers.obj
 0002:00000350       ___xt_a                    1001f350     LIBCMT:initializers.obj
 0002:00000354       ___xt_z                    1001f354     LIBCMT:initializers.obj
 0002:00000360       ??_C@_13HADIAKP@?$AAS@     1001f360     OposVariant.obj
 0002:00000364       ??_C@_13LHMFKAAD@?$AAM@    1001f364     OposVariant.obj
 0002:00000368       ??_C@_13MKMNOPIJ@?$AAD@    1001f368     OposVariant.obj
 0002:0000036c       ??_C@_13OPKGLAFF@?$AAB@    1001f36c     OposVariant.obj
 0002:00000370       ??_C@_17LLMMEOJD@?$AAV?$AAa?$AAl@ 1001f370     OposVariant.obj
 0002:00000378       ??_C@_1BI@JFAIJMHL@?$AAF?$AAo?$AAr?$AAc?$AAe?$AAR?$AAe?$AAm?$AAo?$AAv?$AAe@ 1001f378     OposVariant.obj
 0002:00000390       ??_C@_1BC@GCKHIPE@?$AAN?$AAo?$AAR?$AAe?$AAm?$AAo?$AAv?$AAe@ 1001f390     OposVariant.obj
 0002:000003a4       ??_C@_1O@JDLOHAN@?$AAD?$AAe?$AAl?$AAe?$AAt?$AAe@ 1001f3a4     OposVariant.obj
 0002:000003b4       ??_C@_11LOCGONAA@@         1001f3b4     OposVariant.obj
 0002:000003b8       ??_7CComClassFactory@ATL@@6B@ 1001f3b8     Keylock.obj
 0002:000003d0       ?_entries@?1??_GetEntries@CComClassFactory@ATL@@SGPBU_ATL_INTMAP_ENTRY@3@XZ@4QBU43@B 1001f3d0     Keylock.obj
 0002:000003e8       __GUID_00000001_0000_0000_c000_000000000046 1001f3e8     Keylock.obj
 0002:000003f8       _IID_IOPOSKeylock_1_5      1001f3f8     Keylock.obj
 0002:00000408       _IID_IOPOSKeylock_1_8      1001f408     Keylock.obj
 0002:00000418       _IID_IOPOSKeylock_1_9      1001f418     Keylock.obj
 0002:00000428       _IID_IOPOSKeylock_1_11     1001f428     Keylock.obj
 0002:00000438       _IID_IOPOSKeylock          1001f438     Keylock.obj
 0002:00000448       _LIBID_OposKeylock_CCO     1001f448     Keylock.obj
 0002:00000458       _DIID__IOPOSKeylockEvents  1001f458     Keylock.obj
 0002:00000468       _CLSID_OPOSKeylock         1001f468     Keylock.obj
 0002:00000478       __GUID_00000114_0000_0000_c000_000000000046 1001f478     Keylock.obj
 0002:00000488       ??_C@_1BK@BIGILECK@?$AAA?$AAd?$AAv?$AAa?$AAp?$AAi?$AA3?$AA2?$AA?4?$AAd?$AAl?$AAl@ 1001f488     Keylock.obj
 0002:000004a4       ??_C@_0BI@MNCFCPFK@RegCreateKeyTransactedW@ 1001f4a4     Keylock.obj
 0002:000004bc       __GUID_b196b287_bab4_101a_b69c_00aa00341d07 1001f4bc     Keylock.obj
 0002:000004cc       __GUID_b196b285_bab4_101a_b69c_00aa00341d07 1001f4cc     Keylock.obj
 0002:000004dc       __GUID_a6bc3ac0_dbaa_11ce_9de3_00aa004bb851 1001f4dc     Keylock.obj
 0002:000004ec       __GUID_0000010c_0000_0000_c000_000000000046 1001f4ec     Keylock.obj
 0002:000004fc       __GUID_00000146_0000_0000_c000_000000000046 1001f4fc     Keylock.obj
 0002:00000510       ?_entries@?1??_GetEntries@COPOSKeylock@@SGPBU_ATL_INTMAP_ENTRY@ATL@@XZ@4QBU34@B 1001f510     Keylock.obj
 0002:00000654       __GUID_cf51ed10_62fe_11cf_bf86_00a0c9034836 1001f654     Keylock.obj
 0002:00000664       __GUID_0000010a_0000_0000_c000_000000000046 1001f664     Keylock.obj
 0002:00000674       __GUID_b196b283_bab4_101a_b69c_00aa00341d07 1001f674     Keylock.obj
 0002:00000684       __GUID_cb5bdc81_93c1_11cf_8f20_00805f2cd064 1001f684     Keylock.obj
 0002:00000698       ?pPropMap@?1??GetPropertyMap@COPOSKeylock@@SAPBUATL_PROPMAP_ENTRY@ATL@@XZ@4QBU34@B 1001f698     Keylock.obj
 0002:00000704       ??_C@_17DGDADEHL@?$AA_?$AAc?$AAx@ 1001f704     Keylock.obj
 0002:0000070c       ??_C@_17IOIMFDBO@?$AA_?$AAc?$AAy@ 1001f70c     Keylock.obj
 0002:00000714       ??_7CComModule@ATL@@6B@    1001f714     Keylock.obj
 0002:0000073c       ??_7?$CComObjectCached@VCComClassFactory@ATL@@@ATL@@6B@ 1001f73c     Keylock.obj
 0002:00000754       __GUID_922eada0_3424_11cf_b670_00aa004cd6d8 1001f754     Keylock.obj
 0002:00000764       __GUID_9c2cad80_3424_11cf_b670_00aa004cd6d8 1001f764     Keylock.obj
 0002:00000774       __GUID_00000119_0000_0000_c000_000000000046 1001f774     Keylock.obj
 0002:00000784       __GUID_b196b289_bab4_101a_b69c_00aa00341d07 1001f784     Keylock.obj
 0002:00000794       ??_C@_1CE@PGFMOFKI@?$AAS?$AAt?$AAa?$AAt?$AAu?$AAs?$AAU?$AAp?$AAd?$AAa?$AAt?$AAe?$AAE?$AAv?$AAe@ 1001f794     Keylock.obj
 0002:000007b8       ??_C@_1BM@CBGEBBBJ@?$AAD?$AAi?$AAr?$AAe?$AAc?$AAt?$AAI?$AAO?$AAE?$AAv?$AAe?$AAn?$AAt@ 1001f7b8     Keylock.obj
 0002:000007d4       __GUID_b196b286_bab4_101a_b69c_00aa00341d07 1001f7d4     Keylock.obj
 0002:000007e4       __GUID_00000000_0000_0000_c000_000000000046 1001f7e4     Keylock.obj
 0002:000007f4       __GUID_00020400_0000_0000_c000_000000000046 1001f7f4     Keylock.obj
 0002:00000804       __GUID_00000117_0000_0000_c000_000000000046 1001f804     Keylock.obj
 0002:00000814       ??_C@_1BC@ENICKDH@?$AAC?$AAo?$AAn?$AAt?$AAe?$AAn?$AAt?$AAs@ 1001f814     Keylock.obj
 0002:00000828       ??_7?$CComObject@V?$CComEnum@UIEnumConnectionPoints@@$1?_GUID_b196b285_bab4_101a_b69c_00aa00341d07@@3U__s_GUID@@BPAUIConnectionPoint@@V?$_CopyInterface@UIConnectionPoint@@@ATL@@VCComSingleThreadModel@6@@ATL@@@ATL@@6B@ 1001f828     Keylock.obj
 0002:00000848       ??_C@_1M@KANJNLFF@?$AAC?$AAL?$AAS?$AAI?$AAD@ 1001f848     Keylock.obj
 0002:00000854       ??_C@_1M@EJNEECMJ@?$AAA?$AAp?$AAp?$AAI?$AAD@ 1001f854     Keylock.obj
 0002:00000860       __GUID_0000010e_0000_0000_c000_000000000046 1001f860     Keylock.obj
 0002:00000870       __GUID_b196b288_bab4_101a_b69c_00aa00341d07 1001f870     Keylock.obj
 0002:00000880       ?rgszNeverDelete@CRegParser@ATL@@1QBQB_WB 1001f880     Keylock.obj
 0002:000008b0       ??_7CRegObject@ATL@@6B@    1001f8b0     Keylock.obj
 0002:000008c8       __GUID_00000113_0000_0000_c000_000000000046 1001f8c8     Keylock.obj
 0002:000008d8       __GUID_1c2056cc_5ef4_101b_8bc8_00aa003e3b29 1001f8d8     Keylock.obj
 0002:000008e8       ??_C@_1CK@OEKPKBNA@?$AAC?$AAo?$AAm?$AAp?$AAo?$AAn?$AAe?$AAn?$AAt?$AA?5?$AAC?$AAa?$AAt?$AAe?$AAg@ 1001f8e8     Keylock.obj
 0002:00000914       ??_C@_1BC@NKMMNMGL@?$AAF?$AAi?$AAl?$AAe?$AAT?$AAy?$AAp?$AAe@ 1001f914     Keylock.obj
 0002:00000928       ??_C@_1BE@EKPAFMCP@?$AAI?$AAn?$AAt?$AAe?$AAr?$AAf?$AAa?$AAc?$AAe@ 1001f928     Keylock.obj
 0002:0000093c       ??_C@_1BC@MAICEHGI@?$AAH?$AAa?$AAr?$AAd?$AAw?$AAa?$AAr?$AAe@ 1001f93c     Keylock.obj
 0002:00000950       ??_C@_19HLLLM@?$AAM?$AAi?$AAm?$AAe@ 1001f950     Keylock.obj
 0002:0000095c       ??_C@_17OMAOINJK@?$AAS?$AAA?$AAM@ 1001f95c     Keylock.obj
 0002:00000964       ??_C@_1BC@IBECJAAI@?$AAS?$AAE?$AAC?$AAU?$AAR?$AAI?$AAT?$AAY@ 1001f964     Keylock.obj
 0002:00000978       ??_C@_1O@GBFINDKL@?$AAS?$AAY?$AAS?$AAT?$AAE?$AAM@ 1001f978     Keylock.obj
 0002:00000988       ??_C@_1BC@EAHCMADO@?$AAS?$AAo?$AAf?$AAt?$AAw?$AAa?$AAr?$AAe@ 1001f988     Keylock.obj
 0002:0000099c       ??_C@_1BA@JIHHIEDE@?$AAT?$AAy?$AAp?$AAe?$AAL?$AAi?$AAb@ 1001f99c     Keylock.obj
 0002:000009b0       ?map@?1??HKeyFromString@CRegParser@ATL@@KAPAUHKEY__@@PA_W@Z@4QBUkeymap@?1??123@KAPAU4@0@Z@B 1001f9b0     Keylock.obj
 0002:00000a20       ??_C@_19NCHLBIN@?$AAH?$AAK?$AAC?$AAR@ 1001fa20     Keylock.obj
 0002:00000a2c       ??_C@_19JAPAIJDE@?$AAH?$AAK?$AAC?$AAU@ 1001fa2c     Keylock.obj
 0002:00000a38       ??_C@_19PEALEEJB@?$AAH?$AAK?$AAL?$AAM@ 1001fa38     Keylock.obj
 0002:00000a44       ??_C@_17PJOJPMPB@?$AAH?$AAK?$AAU@ 1001fa44     Keylock.obj
 0002:00000a4c       ??_C@_19PNBHMJPL@?$AAH?$AAK?$AAP?$AAD@ 1001fa4c     Keylock.obj
 0002:00000a58       ??_C@_19GFFAIJHG@?$AAH?$AAK?$AAD?$AAD@ 1001fa58     Keylock.obj
 0002:00000a64       ??_C@_19OFICIBHH@?$AAH?$AAK?$AAC?$AAC@ 1001fa64     Keylock.obj
 0002:00000a70       ??_C@_1CE@PACHPJFI@?$AAH?$AAK?$AAE?$AAY?$AA_?$AAC?$AAL?$AAA?$AAS?$AAS?$AAE?$AAS?$AA_?$AAR?$AAO@ 1001fa70     Keylock.obj
 0002:00000a94       ??_C@_1CE@HLHNCBPM@?$AAH?$AAK?$AAE?$AAY?$AA_?$AAC?$AAU?$AAR?$AAR?$AAE?$AAN?$AAT?$AA_?$AAU?$AAS@ 1001fa94     Keylock.obj
 0002:00000ab8       ??_C@_1CG@GFBEANJL@?$AAH?$AAK?$AAE?$AAY?$AA_?$AAL?$AAO?$AAC?$AAA?$AAL?$AA_?$AAM?$AAA?$AAC?$AAH@ 1001fab8     Keylock.obj
 0002:00000ae0       ??_C@_1BG@BGODANIO@?$AAH?$AAK?$AAE?$AAY?$AA_?$AAU?$AAS?$AAE?$AAR?$AAS@ 1001fae0     Keylock.obj
 0002:00000af8       ??_C@_1CM@KHNNAOIC@?$AAH?$AAK?$AAE?$AAY?$AA_?$AAP?$AAE?$AAR?$AAF?$AAO?$AAR?$AAM?$AAA?$AAN?$AAC@ 1001faf8     Keylock.obj
 0002:00000b24       ??_C@_1BM@HAGMMHIA@?$AAH?$AAK?$AAE?$AAY?$AA_?$AAD?$AAY?$AAN?$AA_?$AAD?$AAA?$AAT?$AAA@ 1001fb24     Keylock.obj
 0002:00000b40       ??_C@_1CI@BBJOACGG@?$AAH?$AAK?$AAE?$AAY?$AA_?$AAC?$AAU?$AAR?$AAR?$AAE?$AAN?$AAT?$AA_?$AAC?$AAO@ 1001fb40     Keylock.obj
 0002:00000b68       __GUID_00000112_0000_0000_c000_000000000046 1001fb68     Keylock.obj
 0002:00000b78       __GUID_00000109_0000_0000_c000_000000000046 1001fb78     Keylock.obj
 0002:00000b88       __GUID_7fd52380_4e07_101b_ae2d_08002b2ec713 1001fb88     Keylock.obj
 0002:00000b98       __GUID_3af24292_0c96_11ce_a0cf_00aa00600ab8 1001fb98     Keylock.obj
 0002:00000ba8       __GUID_00000127_0000_0000_c000_000000000046 1001fba8     Keylock.obj
 0002:00000bb8       __GUID_0000010d_0000_0000_c000_000000000046 1001fbb8     Keylock.obj
 0002:00000bc8       ??_C@_1M@PPPPCDEP@?$AAA?$AAP?$AAP?$AAI?$AAD@ 1001fbc8     Keylock.obj
 0002:00000bd8       ??_C@_1EA@NHKLICFA@?$AAH?$AAK?$AAC?$AAU?$AA?$AN?$AA?6?$AA?$HL?$AA?7?$AAS?$AAo?$AAf?$AAt?$AAw?$AAa?$AAr@ 1001fbd8     Keylock.obj
 0002:00000c18       ??_C@_1BE@LJOLIMEM@?$AA?$AN?$AA?6?$AA?7?$AA?$HN?$AA?$AN?$AA?6?$AA?$HN?$AA?$AN?$AA?6@ 1001fc18     Keylock.obj
 0002:00000c2c       ??_C@_1O@MNLDABAF@?$AAM?$AAo?$AAd?$AAu?$AAl?$AAe@ 1001fc2c     Keylock.obj
 0002:00000c3c       ??_C@_1BG@JBACFMF@?$AAM?$AAo?$AAd?$AAu?$AAl?$AAe?$AA_?$AAR?$AAa?$AAw@ 1001fc3c     Keylock.obj
 0002:00000c54       ??_C@_1BC@KAILKFFG@?$AAR?$AAE?$AAG?$AAI?$AAS?$AAT?$AAR?$AAY@ 1001fc54     Keylock.obj
 0002:00000c68       ??_7?$CComContainedObject@VCOPOSKeylock@@@ATL@@6B?$IDispatchImpl@UIOPOSKeylock@@$1?IID_IOPOSKeylock@@3U_GUID@@B$1?LIBID_OposKeylock_CCO@@3U3@B$00$0A@VCComTypeInfoHolder@ATL@@@1@@ 1001fc68     Keylock.obj
 0002:00000d44       ??_7?$CComContainedObject@VCOPOSKeylock@@@ATL@@6BCComControlBase@1@@ 1001fd44     Keylock.obj
 0002:00000d58       ??_7?$CComContainedObject@VCOPOSKeylock@@@ATL@@6B?$CWindowImpl@VCOPOSKeylock@@VCWindow@ATL@@V?$CWinTraits@$0FGAAAAAA@$0A@@3@@1@@ 1001fd58     Keylock.obj
 0002:00000d68       ??_7?$CComContainedObject@VCOPOSKeylock@@@ATL@@6B?$IPersistStreamInitImpl@VCOPOSKeylock@@@1@@ 1001fd68     Keylock.obj
 0002:00000d8c       ??_7?$CComContainedObject@VCOPOSKeylock@@@ATL@@6B?$IOleControlImpl@VCOPOSKeylock@@@1@@ 1001fd8c     Keylock.obj
 0002:00000da8       ??_7?$CComContainedObject@VCOPOSKeylock@@@ATL@@6B?$IOleObjectImpl@VCOPOSKeylock@@@1@@ 1001fda8     Keylock.obj
 0002:00000e08       ??_7?$CComContainedObject@VCOPOSKeylock@@@ATL@@6B?$IOleInPlaceActiveObjectImpl@VCOPOSKeylock@@@1@@ 1001fe08     Keylock.obj
 0002:00000e30       ??_7?$CComContainedObject@VCOPOSKeylock@@@ATL@@6B?$IViewObjectExImpl@VCOPOSKeylock@@@1@@ 1001fe30     Keylock.obj
 0002:00000e6c       ??_7?$CComContainedObject@VCOPOSKeylock@@@ATL@@6B?$IOleInPlaceObjectWindowlessImpl@VCOPOSKeylock@@@1@@ 1001fe6c     Keylock.obj
 0002:00000e98       ??_7?$CComContainedObject@VCOPOSKeylock@@@ATL@@6B?$IConnectionPointContainerImpl@VCOPOSKeylock@@@1@@ 1001fe98     Keylock.obj
 0002:00000eac       ??_7?$CComContainedObject@VCOPOSKeylock@@@ATL@@6B?$IPersistStorageImpl@VCOPOSKeylock@@@1@@ 1001feac     Keylock.obj
 0002:00000ed4       ??_7?$CComContainedObject@VCOPOSKeylock@@@ATL@@6B?$ISpecifyPropertyPagesImpl@VCOPOSKeylock@@@1@@ 1001fed4     Keylock.obj
 0002:00000ee4       ??_7?$CComContainedObject@VCOPOSKeylock@@@ATL@@6B?$IQuickActivateImpl@VCOPOSKeylock@@@1@@ 1001fee4     Keylock.obj
 0002:00000efc       ??_7?$CComContainedObject@VCOPOSKeylock@@@ATL@@6B?$IDataObjectImpl@VCOPOSKeylock@@@1@@ 1001fefc     Keylock.obj
 0002:00000f2c       ??_7?$CComContainedObject@VCOPOSKeylock@@@ATL@@6B?$IProvideClassInfo2Impl@$1?CLSID_OPOSKeylock@@3U_GUID@@B$1?DIID__IOPOSKeylockEvents@@3U2@B$1?LIBID_OposKeylock_CCO@@3U2@B$00$0A@VCComTypeInfoHolder@ATL@@@1@@ 1001ff2c     Keylock.obj
 0002:00000f40       ??_7?$CComContainedObject@VCOPOSKeylock@@@ATL@@6B?$IObjectSafetyImpl@VCOPOSKeylock@@$02@1@@ 1001ff40     Keylock.obj
 0002:00000f58       ??_7?$CComContainedObject@VCOPOSKeylock@@@ATL@@6B?$IPropertyNotifySinkCP@VCOPOSKeylock@@VCComDynamicUnkArray@ATL@@@1@@ 1001ff58     Keylock.obj
 0002:00000f78       ??_7?$CComContainedObject@VCOPOSKeylock@@@ATL@@6B?$CProxy_IOPOSEvents@VCOPOSKeylock@@@@@ 1001ff78     Keylock.obj
 0002:00000f98       ??_7?$CComAggObject@VCOPOSKeylock@@@ATL@@6B@ 1001ff98     Keylock.obj
 0002:00000fa8       ??_7?$CComObject@VCOPOSKeylock@@@ATL@@6B?$IDispatchImpl@UIOPOSKeylock@@$1?IID_IOPOSKeylock@@3U_GUID@@B$1?LIBID_OposKeylock_CCO@@3U3@B$00$0A@VCComTypeInfoHolder@ATL@@@1@@ 1001ffa8     Keylock.obj
 0002:00001084       ??_7?$CComObject@VCOPOSKeylock@@@ATL@@6BCComControlBase@1@@ 10020084     Keylock.obj
 0002:00001098       ??_7?$CComObject@VCOPOSKeylock@@@ATL@@6B?$CWindowImpl@VCOPOSKeylock@@VCWindow@ATL@@V?$CWinTraits@$0FGAAAAAA@$0A@@3@@1@@ 10020098     Keylock.obj
 0002:000010a8       ??_7?$CComObject@VCOPOSKeylock@@@ATL@@6B?$IPersistStreamInitImpl@VCOPOSKeylock@@@1@@ 100200a8     Keylock.obj
 0002:000010cc       ??_7?$CComObject@VCOPOSKeylock@@@ATL@@6B?$IOleControlImpl@VCOPOSKeylock@@@1@@ 100200cc     Keylock.obj
 0002:000010e8       ??_7?$CComObject@VCOPOSKeylock@@@ATL@@6B?$IOleObjectImpl@VCOPOSKeylock@@@1@@ 100200e8     Keylock.obj
 0002:00001148       ??_7?$CComObject@VCOPOSKeylock@@@ATL@@6B?$IOleInPlaceActiveObjectImpl@VCOPOSKeylock@@@1@@ 10020148     Keylock.obj
 0002:00001170       ??_7?$CComObject@VCOPOSKeylock@@@ATL@@6B?$IViewObjectExImpl@VCOPOSKeylock@@@1@@ 10020170     Keylock.obj
 0002:000011ac       ??_7?$CComObject@VCOPOSKeylock@@@ATL@@6B?$IOleInPlaceObjectWindowlessImpl@VCOPOSKeylock@@@1@@ 100201ac     Keylock.obj
 0002:000011d8       ??_7?$CComObject@VCOPOSKeylock@@@ATL@@6B?$IConnectionPointContainerImpl@VCOPOSKeylock@@@1@@ 100201d8     Keylock.obj
 0002:000011ec       ??_7?$CComObject@VCOPOSKeylock@@@ATL@@6B?$IPersistStorageImpl@VCOPOSKeylock@@@1@@ 100201ec     Keylock.obj
 0002:00001214       ??_7?$CComObject@VCOPOSKeylock@@@ATL@@6B?$ISpecifyPropertyPagesImpl@VCOPOSKeylock@@@1@@ 10020214     Keylock.obj
 0002:00001224       ??_7?$CComObject@VCOPOSKeylock@@@ATL@@6B?$IQuickActivateImpl@VCOPOSKeylock@@@1@@ 10020224     Keylock.obj
 0002:0000123c       ??_7?$CComObject@VCOPOSKeylock@@@ATL@@6B?$IDataObjectImpl@VCOPOSKeylock@@@1@@ 1002023c     Keylock.obj
 0002:0000126c       ??_7?$CComObject@VCOPOSKeylock@@@ATL@@6B?$IProvideClassInfo2Impl@$1?CLSID_OPOSKeylock@@3U_GUID@@B$1?DIID__IOPOSKeylockEvents@@3U2@B$1?LIBID_OposKeylock_CCO@@3U2@B$00$0A@VCComTypeInfoHolder@ATL@@@1@@ 1002026c     Keylock.obj
 0002:00001280       ??_7?$CComObject@VCOPOSKeylock@@@ATL@@6B?$IObjectSafetyImpl@VCOPOSKeylock@@$02@1@@ 10020280     Keylock.obj
 0002:00001298       ??_7?$CComObject@VCOPOSKeylock@@@ATL@@6B?$IPropertyNotifySinkCP@VCOPOSKeylock@@VCComDynamicUnkArray@ATL@@@1@@ 10020298     Keylock.obj
 0002:000012b8       ??_7?$CComObject@VCOPOSKeylock@@@ATL@@6B?$CProxy_IOPOSEvents@VCOPOSKeylock@@@@@ 100202b8     Keylock.obj
 0002:000012d8       ??_C@_1O@GBFKGNEO@?$AAA?$AAT?$AAL?$AA?3?$AA?$CF?$AAp@ 100202d8     Keylock.obj
 0002:000012e8       ??_C@_1BA@PICGEGJB@?$AAD?$AAI?$AAS?$AAP?$AAL?$AAA?$AAY@ 100202e8     Keylock.obj
 0002:000012f8       __GUID_9bfbbc02_eff1_101a_84ed_00aa00341d07 100202f8     Keylock.obj
 0002:00001308       ?_entries@?1??_GetEntries@?$CComEnum@UIEnumConnectionPoints@@$1?_GUID_b196b285_bab4_101a_b69c_00aa00341d07@@3U__s_GUID@@BPAUIConnectionPoint@@V?$_CopyInterface@UIConnectionPoint@@@ATL@@VCComSingleThreadModel@6@@ATL@@SGPBU_ATL_INTMAP_ENTRY@3@XZ@4QBU43@B 10020308     Keylock.obj
 0002:00001320       __GUID_b196b284_bab4_101a_b69c_00aa00341d07 10020320     Keylock.obj
 0002:00001330       __GUID_00020412_0000_0000_c000_000000000046 10020330     Keylock.obj
 0002:00001340       __GUID_00020401_0000_0000_c000_000000000046 10020340     Keylock.obj
 0002:00001350       ??_7?$CComObject@V?$CComEnum@UIEnumConnections@@$1?_GUID_b196b287_bab4_101a_b69c_00aa00341d07@@3U__s_GUID@@BUtagCONNECTDATA@@V?$_Copy@UtagCONNECTDATA@@@ATL@@VCComSingleThreadModel@6@@ATL@@@ATL@@6B@ 10020350     Keylock.obj
 0002:00001370       __GUID_55980ba0_35aa_11cf_b671_00aa004cd6d8 10020370     Keylock.obj
 0002:00001380       __GUID_b196b28b_bab4_101a_b69c_00aa00341d07 10020380     Keylock.obj
 0002:00001390       ?_entries@?1??_GetEntries@?$CComEnum@UIEnumConnections@@$1?_GUID_b196b287_bab4_101a_b69c_00aa00341d07@@3U__s_GUID@@BUtagCONNECTDATA@@V?$_Copy@UtagCONNECTDATA@@@ATL@@VCComSingleThreadModel@6@@ATL@@SGPBU_ATL_INTMAP_ENTRY@3@XZ@4QBU43@B 10020390     Keylock.obj
 0002:000013a8       ??_C@_0BG@EKFFMJIO@RegOpenKeyTransactedW@ 100203a8     Keylock.obj
 0002:000013c0       ??_C@_0BI@HAKLOOGP@RegDeleteKeyTransactedW@ 100203c0     Keylock.obj
 0002:000013d8       ??_C@_0BA@LILAPHGE@RegDeleteKeyExW@ 100203d8     Keylock.obj
 0002:000013e8       ??_C@_19ILOCMLCJ@?$AA?4?$AAt?$AAl?$AAb@ 100203e8     Keylock.obj
 0002:000013f4       __GUID_0002e012_0000_0000_c000_000000000046 100203f4     Keylock.obj
 0002:00001404       ??_C@_1O@FHBGLCIO@?$AAC?$AAL?$AAS?$AAI?$AAD?$AA?2@ 10020404     Keylock.obj
 0002:00001414       ??_C@_1CK@IFBKBFAA@?$AA?2?$AAR?$AAe?$AAq?$AAu?$AAi?$AAr?$AAe?$AAd?$AA?5?$AAC?$AAa?$AAt?$AAe?$AAg@ 10020414     Keylock.obj
 0002:00001440       ??_C@_1DA@BIHALFED@?$AA?2?$AAI?$AAm?$AAp?$AAl?$AAe?$AAm?$AAe?$AAn?$AAt?$AAe?$AAd?$AA?5?$AAC?$AAa@ 10020440     Keylock.obj
 0002:00001470       ??_C@_1BK@EDKOLFBJ@?$AAO?$AAL?$AAE?$AAA?$AAU?$AAT?$AA3?$AA2?$AA?4?$AAD?$AAL?$AAL@ 10020470     Keylock.obj
 0002:0000148c       ??_C@_0BJ@CNLFOMHB@UnRegisterTypeLibForUser@ 1002048c     Keylock.obj
 0002:000014a8       ??_C@_0BH@LBOMMKPJ@RegisterTypeLibForUser@ 100204a8     Keylock.obj
 0002:000014c0       ??_C@_0P@MMNMMLGK@COFreezeEvents@ 100204c0     KeylockImpl.obj
 0002:000014d0       ??_C@_0BC@OGCGGIMP@GetPropertyNumber@ 100204d0     KeylockImpl.obj
 0002:000014e4       ??_C@_0BC@MDCNODNB@SetPropertyNumber@ 100204e4     KeylockImpl.obj
 0002:000014f8       ??_C@_0BC@CFCCMIMD@GetPropertyString@ 100204f8     KeylockImpl.obj
 0002:0000150c       ??_C@_0BC@CJEDNN@SetPropertyString@ 1002050c     KeylockImpl.obj
 0002:00001520       ??_C@_0M@LNPKKKDA@OpenService@ 10020520     KeylockImpl.obj
 0002:0000152c       ??_C@_0M@PCMCHHMH@CheckHealth@ 1002052c     KeylockImpl.obj
 0002:00001538       ??_C@_0M@JGMIDNEK@ClaimDevice@ 10020538     KeylockImpl.obj
 0002:00001544       ??_C@_0N@DDFIIBMP@CloseService@ 10020544     KeylockImpl.obj
 0002:00001554       ??_C@_08EEIHICPC@DirectIO@ 10020554     KeylockImpl.obj
 0002:00001560       ??_C@_0O@BCPMENMJ@ReleaseDevice@ 10020560     KeylockImpl.obj
 0002:00001570       ??_C@_0BF@DLHIAFFK@WaitForKeylockChange@ 10020570     KeylockImpl.obj
 0002:00001588       ??_C@_0BA@GFABKEEE@ResetStatistics@ 10020588     KeylockImpl.obj
 0002:00001598       ??_C@_0BD@DPALHJGC@RetrieveStatistics@ 10020598     KeylockImpl.obj
 0002:000015ac       ??_C@_0BB@KOHIKNFC@UpdateStatistics@ 100205ac     KeylockImpl.obj
 0002:000015c0       ??_C@_0BH@PBKBNMGB@CompareFirmwareVersion@ 100205c0     KeylockImpl.obj
 0002:000015d8       ??_C@_0P@FBPDPIPA@UpdateFirmware@ 100205d8     KeylockImpl.obj
 0002:000015e8       ??_7?$CProxy_IOPOSEvents@VCOPOSKeylock@@@@6B@ 100205e8     KeylockImpl.obj
 0002:00001608       ??_C@_1BA@IFHENID@?$AA?$FL?$AAE?$AAr?$AAr?$AAo?$AAr?$AA?$FN@ 10020608     KeylockImpl.obj
 0002:00001618       ??_C@_0CK@KPICGCGL@SOFTWARE?2OLEforRetail?2ServiceOP@ 10020618     KeylockImpl.obj
 0002:00001644       ??_C@_1M@IAIJHCCH@?$AAC?$AAl?$AAo?$AAs?$AAe@ 10020644     KeylockImpl.obj
 0002:00001650       ??_C@_1M@PCPKGJAH@?$AAC?$AAl?$AAa?$AAi?$AAm@ 10020650     KeylockImpl.obj
 0002:0000165c       ??_C@_1BA@NDFKIOCP@?$AAR?$AAe?$AAl?$AAe?$AAa?$AAs?$AAe@ 1002065c     KeylockImpl.obj
 0002:0000166c       ??_C@_07OIJGHLGK@Keylock@  1002066c     KeylockImpl.obj
 0002:00001674       ??_C@_1BM@IJMNMBPK@?$AAG?$AAe?$AAt?$AAO?$AAp?$AAe?$AAn?$AAR?$AAe?$AAs?$AAu?$AAl?$AAt@ 10020674     KeylockImpl.obj
 0002:00001690       _IID_IPropertyNotifySink   10020690     uuid:ocidl_i.obj
 0002:000016a0       _GUID_NULL                 100206a0     uuid:cguid_i.obj
 0002:000016b0       _CLSID_StdGlobalInterfaceTable 100206b0     uuid:cguid_i.obj
 0002:000016c0       _IID_IDispatch             100206c0     uuid:oaidl_i.obj
 0002:000016d0       _CLSID_StdComponentCategoriesMgr 100206d0     uuid:ieguids.obj
 0002:000016e0       _IID_IUnknown              100206e0     uuid:unknwn_i.obj
 0002:000016f0       ??_C@_1EC@JIJBPKFM@?$AAa?$AAp?$AAi?$AA?9?$AAm?$AAs?$AA?9?$AAw?$AAi?$AAn?$AA?9?$AAc?$AAo?$AAr?$AAe@ 100206f0     LIBCMT:thread_safe_statics.obj
 0002:00001734       ??_C@_1BK@MGMFAEKH@?$AAk?$AAe?$AAr?$AAn?$AAe?$AAl?$AA3?$AA2?$AA?4?$AAd?$AAl?$AAl@ 10020734     LIBCMT:thread_safe_statics.obj
 0002:00001750       ??_C@_0BJ@JEBJOJFJ@SleepConditionVariableCS@ 10020750     LIBCMT:thread_safe_statics.obj
 0002:0000176c       ??_C@_0BJ@PGPPEPCC@WakeAllConditionVariable@ 1002076c     LIBCMT:thread_safe_statics.obj
 0002:00001785       ?nothrow@std@@3Unothrow_t@1@B 10020785     LIBCMT:std_nothrow.obj
 0002:00001790       __pRawDllMain              10020790     LIBCMT:dll_dllmain.obj
 0002:00001790       __pDefaultRawDllMain       10020790     LIBCMT:dll_dllmain.obj
 0002:00001798       ??_7exception@std@@6B@     10020798     LIBCMT:throw_bad_alloc.obj
 0002:000017a0       ??_C@_0BC@EOODALEL@Unknown?5exception@ 100207a0     LIBCMT:throw_bad_alloc.obj
 0002:000017b8       ??_7bad_alloc@std@@6B@     100207b8     LIBCMT:throw_bad_alloc.obj
 0002:000017c0       ??_C@_0P@GHFPNOJB@bad?5allocation@ 100207c0     LIBCMT:throw_bad_alloc.obj
 0002:000017d4       ??_7bad_array_new_length@std@@6B@ 100207d4     LIBCMT:throw_bad_alloc.obj
 0002:000017dc       ??_C@_0BF@KINCDENJ@bad?5array?5new?5length@ 100207dc     LIBCMT:throw_bad_alloc.obj
 0002:000017f8       ??_7type_info@@6B@         100207f8     LIBCMT:std_type_info_static.obj
 0002:000017fc       _GUID_ATLVer110            100207fc     atls:atlbase.obj
 0002:00001810       ??_C@_1IC@ONKHOIDK@?$AAE?$AAR?$AAR?$AAO?$AAR?$AA?5?$AA?3?$AA?5?$AAU?$AAn?$AAa?$AAb?$AAl?$AAe?$AA?5@ 10020810     atls:atlbase.obj
 0002:00001894       ??_C@_0N@FJEPLCIH@atlthunk?4dll@ 10020894     atls:atlthunk.obj
 0002:000018a4       ??_C@_0BG@GAKFHCBM@AtlThunk_AllocateData@ 100208a4     atls:atlthunk.obj
 0002:000018bc       ??_C@_0BC@JKONFIAH@AtlThunk_InitData@ 100208bc     atls:atlthunk.obj
 0002:000018d0       ??_C@_0BE@IAOEELAK@AtlThunk_DataToCode@ 100208d0     atls:atlthunk.obj
 0002:000018e4       ??_C@_0BC@GBGKAIPI@AtlThunk_FreeData@ 100208e4     atls:atlthunk.obj
 0002:000018f8       __pDestructExceptionObject 100208f8     libvcruntime:ehhelpers.obj
 0002:00001900       ??_7bad_exception@std@@6B@ 10020900     libvcruntime:frame.obj
 0002:00001908       ??_C@_0O@DPKOEFFH@bad?5exception@ 10020908     libvcruntime:frame.obj
 0002:00001c98       ??_C@_08EHJDFFNH@__based?$CI@ 10020c98     libvcruntime:undname.obj
 0002:00001ca4       ??_C@_07KOLFKCDI@__cdecl@  10020ca4     libvcruntime:undname.obj
 0002:00001cac       ??_C@_08GHMPAG@__pascal@   10020cac     libvcruntime:undname.obj
 0002:00001cb8       ??_C@_09IFJBGAPI@__stdcall@ 10020cb8     libvcruntime:undname.obj
 0002:00001cc4       ??_C@_0L@NPHFGOKO@__thiscall@ 10020cc4     libvcruntime:undname.obj
 0002:00001cd0       ??_C@_0L@JMKHOMEK@__fastcall@ 10020cd0     libvcruntime:undname.obj
 0002:00001cdc       ??_C@_0N@BCKKPABJ@__vectorcall@ 10020cdc     libvcruntime:undname.obj
 0002:00001cec       ??_C@_09HIJEGCPM@__clrcall@ 10020cec     libvcruntime:undname.obj
 0002:00001cf8       ??_C@_06GHPCKEAG@__eabi@   10020cf8     libvcruntime:undname.obj
 0002:00001d00       ??_C@_09IOPIDJLG@__swift_1@ 10020d00     libvcruntime:undname.obj
 0002:00001d0c       ??_C@_09KFNFGKHF@__swift_2@ 10020d0c     libvcruntime:undname.obj
 0002:00001d18       ??_C@_07JOMMBBKO@__ptr64@  10020d18     libvcruntime:undname.obj
 0002:00001d20       ??_C@_0L@PILCLIHE@__restrict@ 10020d20     libvcruntime:undname.obj
 0002:00001d2c       ??_C@_0M@GFIIJFMG@__unaligned@ 10020d2c     libvcruntime:undname.obj
 0002:00001d38       ??_C@_09DHDLOLLB@restrict?$CI@ 10020d38     libvcruntime:undname.obj
 0002:00001d42       ??_C@_00CNPNBAHC@@         10020d42     libvcruntime:undname.obj
 0002:00001d44       ??_C@_04NIHEBCM@?5new@     10020d44     libvcruntime:undname.obj
 0002:00001d4c       ??_C@_07FPCDHGMM@?5delete@ 10020d4c     libvcruntime:undname.obj
 0002:00001d54       ??_C@_01NEMOKFLO@?$DN@     10020d54     libvcruntime:undname.obj
 0002:00001d58       ??_C@_02GPIOPFAK@?$DO?$DO@ 10020d58     libvcruntime:undname.obj
 0002:00001d5c       ??_C@_02FODMEDOG@?$DM?$DM@ 10020d5c     libvcruntime:undname.obj
 0002:00001d60       ??_C@_01DCLJPIOD@?$CB@     10020d60     libvcruntime:undname.obj
 0002:00001d64       ??_C@_02EGOFBIJA@?$DN?$DN@ 10020d64     libvcruntime:undname.obj
 0002:00001d68       ??_C@_02FDNJECIE@?$CB?$DN@ 10020d68     libvcruntime:undname.obj
 0002:00001d6c       ??_C@_02GPECMEKF@?$FL?$FN@ 10020d6c     libvcruntime:undname.obj
 0002:00001d70       ??_C@_08LHJFAFGD@operator@ 10020d70     libvcruntime:undname.obj
 0002:00001d7c       ??_C@_02HBOOOICD@?9?$DO@   10020d7c     libvcruntime:undname.obj
 0002:00001d80       ??_C@_01NBENCBCI@?$CK@     10020d80     libvcruntime:undname.obj
 0002:00001d84       ??_C@_02ECNGHCIF@?$CL?$CL@ 10020d84     libvcruntime:undname.obj
 0002:00001d88       ??_C@_02BAABKJLB@?9?9@     10020d88     libvcruntime:undname.obj
 0002:00001d8c       ??_C@_01JOAMLHOP@?9@       10020d8c     libvcruntime:undname.obj
 0002:00001d90       ??_C@_01MIFGBAGJ@?$CL@     10020d90     libvcruntime:undname.obj
 0002:00001d94       ??_C@_01HNPIGOCE@?$CG@     10020d94     libvcruntime:undname.obj
 0002:00001d98       ??_C@_03MNHNFDLC@?9?$DO?$CK@ 10020d98     libvcruntime:undname.obj
 0002:00001d9c       ??_C@_01KMDKNFGN@?1@       10020d9c     libvcruntime:undname.obj
 0002:00001da0       ??_C@_01FGNFDNOH@?$CF@     10020da0     libvcruntime:undname.obj
 0002:00001da4       ??_C@_01MNNFJEPP@?$DM@     10020da4     libvcruntime:undname.obj
 0002:00001da8       ??_C@_02EHCHHCKH@?$DM?$DN@ 10020da8     libvcruntime:undname.obj
 0002:00001dac       ??_C@_01PPODPGHN@?$DO@     10020dac     libvcruntime:undname.obj
 0002:00001db0       ??_C@_02EEKDKGMJ@?$DO?$DN@ 10020db0     libvcruntime:undname.obj
 0002:00001db4       ??_C@_01IHBHIGKO@?0@       10020db4     libvcruntime:undname.obj
 0002:00001db8       ??_C@_02HCKGKOFO@?$CI?$CJ@ 10020db8     libvcruntime:undname.obj
 0002:00001dbc       ??_C@_01PJKLJHI@?$HO@      10020dbc     libvcruntime:undname.obj
 0002:00001dc0       ??_C@_01JKBOJNNK@?$FO@     10020dc0     libvcruntime:undname.obj
 0002:00001dc4       ??_C@_01DNKMNLPK@?$HM@     10020dc4     libvcruntime:undname.obj
 0002:00001dc8       ??_C@_02PPKAJPJL@?$CG?$CG@ 10020dc8     libvcruntime:undname.obj
 0002:00001dcc       ??_C@_02NONPIBCD@?$HM?$HM@ 10020dcc     libvcruntime:undname.obj
 0002:00001dd0       ??_C@_02FPIMKNGF@?$CK?$DN@ 10020dd0     libvcruntime:undname.obj
 0002:00001dd4       ??_C@_02FOEOMHFC@?$CL?$DN@ 10020dd4     libvcruntime:undname.obj
 0002:00001dd8       ??_C@_02FKMDLLOA@?9?$DN@   10020dd8     libvcruntime:undname.obj
 0002:00001ddc       ??_C@_02FJEHGPIO@?1?$DN@   10020ddc     libvcruntime:undname.obj
 0002:00001de0       ??_C@_02FENAOKFI@?$CF?$DN@ 10020de0     libvcruntime:undname.obj
 0002:00001de4       ??_C@_03IKFCCPFF@?$DO?$DO?$DN@ 10020de4     libvcruntime:undname.obj
 0002:00001de8       ??_C@_03CDNPDDLA@?$DM?$DM?$DN@ 10020de8     libvcruntime:undname.obj
 0002:00001dec       ??_C@_02FGJGFEAB@?$CG?$DN@ 10020dec     libvcruntime:undname.obj
 0002:00001df0       ??_C@_02DHLNPPGH@?$HM?$DN@ 10020df0     libvcruntime:undname.obj
 0002:00001df4       ??_C@_02MHEGNOJ@?$FO?$DN@  10020df4     libvcruntime:undname.obj
 0002:00001df8       ??_C@_09IFPLHPGF@?$GAvftable?8@ 10020df8     libvcruntime:undname.obj
 0002:00001e04       ??_C@_09BLBHBJP@?$GAvbtable?8@ 10020e04     libvcruntime:undname.obj
 0002:00001e10       ??_C@_07FEEIOKP@?$GAvcall?8@ 10020e10     libvcruntime:undname.obj
 0002:00001e18       ??_C@_08LLFFHHDJ@?$GAtypeof?8@ 10020e18     libvcruntime:undname.obj
 0002:00001e24       ??_C@_0BF@KDPPACIK@?$GAlocal?5static?5guard?8@ 10020e24     libvcruntime:undname.obj
 0002:00001e3c       ??_C@_08OBABFOLI@?$GAstring?8@ 10020e3c     libvcruntime:undname.obj
 0002:00001e48       ??_C@_0BD@JDLKDPAB@?$GAvbase?5destructor?8@ 10020e48     libvcruntime:undname.obj
 0002:00001e5c       ??_C@_0BN@DEGPLNFK@?$GAvector?5deleting?5destructor?8@ 10020e5c     libvcruntime:undname.obj
 0002:00001e7c       ??_C@_0BO@OBMKPJIG@?$GAdefault?5constructor?5closure?8@ 10020e7c     libvcruntime:undname.obj
 0002:00001e9c       ??_C@_0BN@IMDCHIKM@?$GAscalar?5deleting?5destructor?8@ 10020e9c     libvcruntime:undname.obj
 0002:00001ebc       ??_C@_0BO@PFGOCPJJ@?$GAvector?5constructor?5iterator?8@ 10020ebc     libvcruntime:undname.obj
 0002:00001edc       ??_C@_0BN@LFPFMEDL@?$GAvector?5destructor?5iterator?8@ 10020edc     libvcruntime:undname.obj
 0002:00001efc       ??_C@_0CE@IKBNEHA@?$GAvector?5vbase?5constructor?5itera@ 10020efc     libvcruntime:undname.obj
 0002:00001f20       ??_C@_0BL@NILFHHPC@?$GAvirtual?5displacement?5map?8@ 10020f20     libvcruntime:undname.obj
 0002:00001f3c       ??_C@_0CB@JONCMFFK@?$GAeh?5vector?5constructor?5iterator@ 10020f3c     libvcruntime:undname.obj
 0002:00001f60       ??_C@_0CA@GCEOPDGL@?$GAeh?5vector?5destructor?5iterator?8@ 10020f60     libvcruntime:undname.obj
 0002:00001f80       ??_C@_0CH@OOJPLCPH@?$GAeh?5vector?5vbase?5constructor?5it@ 10020f80     libvcruntime:undname.obj
 0002:00001fa8       ??_C@_0BL@LLKPOHJI@?$GAcopy?5constructor?5closure?8@ 10020fa8     libvcruntime:undname.obj
 0002:00001fc4       ??_C@_0BA@KBCDOMBN@?$GAudt?5returning?8@ 10020fc4     libvcruntime:undname.obj
 0002:00001fd4       ??_C@_03KLGMFNMG@?$GAEH@   10020fd4     libvcruntime:undname.obj
 0002:00001fd8       ??_C@_05KHLCHHI@?$GARTTI@  10020fd8     libvcruntime:undname.obj
 0002:00001fe0       ??_C@_0BA@KKLDJDLB@?$GAlocal?5vftable?8@ 10020fe0     libvcruntime:undname.obj
 0002:00001ff0       ??_C@_0CE@IIHCMGGL@?$GAlocal?5vftable?5constructor?5clos@ 10020ff0     libvcruntime:undname.obj
 0002:00002014       ??_C@_06FHBGPFGH@?5new?$FL?$FN@ 10021014     libvcruntime:undname.obj
 0002:0000201c       ??_C@_09LBNFPBCA@?5delete?$FL?$FN@ 1002101c     libvcruntime:undname.obj
 0002:00002028       ??_C@_0P@HJKNJFNN@?$GAomni?5callsig?8@ 10021028     libvcruntime:undname.obj
 0002:00002038       ??_C@_0BL@CNOONJFP@?$GAplacement?5delete?5closure?8@ 10021038     libvcruntime:undname.obj
 0002:00002054       ??_C@_0BN@CKNJLHMB@?$GAplacement?5delete?$FL?$FN?5closure?8@ 10021054     libvcruntime:undname.obj
 0002:00002074       ??_C@_0CG@CFDHKGGD@?$GAmanaged?5vector?5constructor?5ite@ 10021074     libvcruntime:undname.obj
 0002:0000209c       ??_C@_0CF@IMGKMJNO@?$GAmanaged?5vector?5destructor?5iter@ 1002109c     libvcruntime:undname.obj
 0002:000020c4       ??_C@_0CG@HLDDJMAG@?$GAeh?5vector?5copy?5constructor?5ite@ 100210c4     libvcruntime:undname.obj
 0002:000020ec       ??_C@_0CM@FCBBDIGB@?$GAeh?5vector?5vbase?5copy?5construct@ 100210ec     libvcruntime:undname.obj
 0002:00002118       ??_C@_0BL@CLIPGLGB@?$GAdynamic?5initializer?5for?5?8@ 10021118     libvcruntime:undname.obj
 0002:00002134       ??_C@_0CB@PDBIFEP@?$GAdynamic?5atexit?5destructor?5for?5@ 10021134     libvcruntime:undname.obj
 0002:00002158       ??_C@_0CD@CGAJBKEJ@?$GAvector?5copy?5constructor?5iterat@ 10021158     libvcruntime:undname.obj
 0002:0000217c       ??_C@_0CJ@GJELGAMM@?$GAvector?5vbase?5copy?5constructor?5@ 1002117c     libvcruntime:undname.obj
 0002:000021a8       ??_C@_0CL@FGIJHLCE@?$GAmanaged?5vector?5copy?5constructo@ 100211a8     libvcruntime:undname.obj
 0002:000021d4       ??_C@_0BM@PMGGMLDN@?$GAlocal?5static?5thread?5guard?8@ 100211d4     libvcruntime:undname.obj
 0002:000021f0       ??_C@_0N@BDNMDMOL@operator?5?$CC?$CC?5@ 100211f0     libvcruntime:undname.obj
 0002:00002200       ??_C@_0BC@GGEBGALA@operator?5co_await@ 10021200     libvcruntime:undname.obj
 0002:00002214       ??_C@_0M@GAAIMMOH@operator?$DM?$DN?$DO@ 10021214     libvcruntime:undname.obj
 0002:00002220       ??_C@_0BC@DAFEJGAK@?5Type?5Descriptor?8@ 10021220     libvcruntime:undname.obj
 0002:00002234       ??_C@_0BM@LDKODKLH@?5Base?5Class?5Descriptor?5at?5?$CI@ 10021234     libvcruntime:undname.obj
 0002:00002250       ??_C@_0BD@LGICGFMM@?5Base?5Class?5Array?8@ 10021250     libvcruntime:undname.obj
 0002:00002264       ??_C@_0BN@MECKDCOJ@?5Class?5Hierarchy?5Descriptor?8@ 10021264     libvcruntime:undname.obj
 0002:00002284       ??_C@_0BK@CFCOFLF@?5Complete?5Object?5Locator?8@ 10021284     libvcruntime:undname.obj
 0002:000022a0       ??_C@_0BG@JNJLAMPM@?$GAanonymous?5namespace?8@ 100212a0     libvcruntime:undname.obj
 0002:000022c4       ??_C@_1DM@KHCHBNEB@?$AAa?$AAp?$AAi?$AA?9?$AAm?$AAs?$AA?9?$AAw?$AAi?$AAn?$AA?9?$AAc?$AAo?$AAr?$AAe@ 100212c4     libvcruntime:winapi_downlevel.obj
 0002:00002300       ??_C@_1DK@LPPGFMPP@?$AAa?$AAp?$AAi?$AA?9?$AAm?$AAs?$AA?9?$AAw?$AAi?$AAn?$AA?9?$AAc?$AAo?$AAr?$AAe@ 10021300     libvcruntime:winapi_downlevel.obj
 0002:0000233c       ??_C@_1BC@GDMECMAK@?$AAk?$AAe?$AAr?$AAn?$AAe?$AAl?$AA3?$AA2@ 1002133c     libvcruntime:winapi_downlevel.obj
 0002:00002350       ??_C@_1BA@PFFKHIOG@?$AAa?$AAp?$AAi?$AA?9?$AAm?$AAs?$AA?9@ 10021350     libvcruntime:winapi_downlevel.obj
 0002:00002368       ??_C@_08KNHFBNJ@FlsAlloc@  10021368     libvcruntime:winapi_downlevel.obj
 0002:0000237c       ??_C@_07PEJMOBNF@FlsFree@  1002137c     libvcruntime:winapi_downlevel.obj
 0002:0000238c       ??_C@_0M@GDNOONDI@FlsGetValue@ 1002138c     libvcruntime:winapi_downlevel.obj
 0002:000023a0       ??_C@_0M@JCPCPOEF@FlsSetValue@ 100213a0     libvcruntime:winapi_downlevel.obj
 0002:000023b4       ??_C@_0BM@HCFOFFN@InitializeCriticalSectionEx@ 100213b4     libvcruntime:winapi_downlevel.obj
 0002:00002538       ?format_validation_lookup_table_spectre@__crt_stdio_output@@3V?$spectre_mitigated_lookup_table@Ustate_transition_pair@__crt_stdio_output@@$0IA@@1@B 10021538     libucrt:output.obj
 0002:00002938       ??_C@_1O@CEDCILHN@?$AA?$CI?$AAn?$AAu?$AAl?$AAl?$AA?$CJ@ 10021938     libucrt:output.obj
 0002:00002948       ??_C@_06OJHGLDPL@?$CInull?$CJ@ 10021948     libucrt:output.obj
 0002:00002950       ___acrt_exception_action_table 10021950     libucrt:exception_filter.obj
 0002:000029e0       ___acrt_signal_action_table_count 100219e0     libucrt:exception_filter.obj
 0002:000029e4       ___acrt_signal_action_first_fpe_index 100219e4     libucrt:exception_filter.obj
 0002:000029e8       ___acrt_signal_action_fpe_count 100219e8     libucrt:exception_filter.obj
 0002:000029ec       ??_C@_1BI@BGOHAHKC@?$AAm?$AAs?$AAc?$AAo?$AAr?$AAe?$AAe?$AA?4?$AAd?$AAl?$AAl@ 100219ec     libucrt:exit.obj
 0002:00002a04       ??_C@_0P@MIGLKIOC@CorExitProcess@ 10021a04     libucrt:exit.obj
 0002:00002ae8       ??_C@_1EA@JGEFHKEI@?$AAa?$AAp?$AAi?$AA?9?$AAm?$AAs?$AA?9?$AAw?$AAi?$AAn?$AA?9?$AAc?$AAo?$AAr?$AAe@ 10021ae8     libucrt:winapi_thunks.obj
 0002:00002b28       ??_C@_1DI@IJCEHOCB@?$AAa?$AAp?$AAi?$AA?9?$AAm?$AAs?$AA?9?$AAw?$AAi?$AAn?$AA?9?$AAc?$AAo?$AAr?$AAe@ 10021b28     libucrt:winapi_thunks.obj
 0002:00002b60       ??_C@_1EI@MPIAOHOC@?$AAa?$AAp?$AAi?$AA?9?$AAm?$AAs?$AA?9?$AAw?$AAi?$AAn?$AA?9?$AAc?$AAo?$AAr?$AAe@ 10021b60     libucrt:winapi_thunks.obj
 0002:00002ba8       ??_C@_1FK@FPHCKFIE@?$AAa?$AAp?$AAi?$AA?9?$AAm?$AAs?$AA?9?$AAw?$AAi?$AAn?$AA?9?$AAc?$AAo?$AAr?$AAe@ 10021ba8     libucrt:winapi_thunks.obj
 0002:00002c08       ??_C@_1EM@DILCGIIO@?$AAa?$AAp?$AAi?$AA?9?$AAm?$AAs?$AA?9?$AAw?$AAi?$AAn?$AA?9?$AAc?$AAo?$AAr?$AAe@ 10021c08     libucrt:winapi_thunks.obj
 0002:00002c54       ??_C@_1DM@LNCGDDPN@?$AAa?$AAp?$AAi?$AA?9?$AAm?$AAs?$AA?9?$AAw?$AAi?$AAn?$AA?9?$AAc?$AAo?$AAr?$AAe@ 10021c54     libucrt:winapi_thunks.obj
 0002:00002c90       ??_C@_1DO@FPAPJEMD@?$AAa?$AAp?$AAi?$AA?9?$AAm?$AAs?$AA?9?$AAw?$AAi?$AAn?$AA?9?$AAc?$AAo?$AAr?$AAe@ 10021c90     libucrt:winapi_thunks.obj
 0002:00002cd0       ??_C@_1DK@NDHNAHIO@?$AAa?$AAp?$AAi?$AA?9?$AAm?$AAs?$AA?9?$AAw?$AAi?$AAn?$AA?9?$AAc?$AAo?$AAr?$AAe@ 10021cd0     libucrt:winapi_thunks.obj
 0002:00002d0c       ??_C@_1DM@KGHDGBCM@?$AAa?$AAp?$AAi?$AA?9?$AAm?$AAs?$AA?9?$AAw?$AAi?$AAn?$AA?9?$AAc?$AAo?$AAr?$AAe@ 10021d0c     libucrt:winapi_thunks.obj
 0002:00002d48       ??_C@_1EO@IJIOEFOH@?$AAa?$AAp?$AAi?$AA?9?$AAm?$AAs?$AA?9?$AAw?$AAi?$AAn?$AA?9?$AAr?$AAt?$AAc?$AAo@ 10021d48     libucrt:winapi_thunks.obj
 0002:00002d98       ??_C@_1FG@HHGEKANL@?$AAa?$AAp?$AAi?$AA?9?$AAm?$AAs?$AA?9?$AAw?$AAi?$AAn?$AA?9?$AAs?$AAe?$AAc?$AAu@ 10021d98     libucrt:winapi_thunks.obj
 0002:00002df0       ??_C@_1EG@DBIOJECG@?$AAe?$AAx?$AAt?$AA?9?$AAm?$AAs?$AA?9?$AAw?$AAi?$AAn?$AA?9?$AAn?$AAt?$AAu?$AAs@ 10021df0     libucrt:winapi_thunks.obj
 0002:00002e38       ??_C@_1EO@FIHMJCLF@?$AAe?$AAx?$AAt?$AA?9?$AAm?$AAs?$AA?9?$AAw?$AAi?$AAn?$AA?9?$AAn?$AAt?$AAu?$AAs@ 10021e38     libucrt:winapi_thunks.obj
 0002:00002e88       ??_C@_1BC@DNHGCMLG@?$AAa?$AAd?$AAv?$AAa?$AAp?$AAi?$AA3?$AA2@ 10021e88     libucrt:winapi_thunks.obj
 0002:00002e9c       ??_C@_1M@OAIMIKLP@?$AAn?$AAt?$AAd?$AAl?$AAl@ 10021e9c     libucrt:winapi_thunks.obj
 0002:00002ea8       ??_C@_1EG@DPGNFKGC@?$AAa?$AAp?$AAi?$AA?9?$AAm?$AAs?$AA?9?$AAw?$AAi?$AAn?$AA?9?$AAa?$AAp?$AAp?$AAm@ 10021ea8     libucrt:winapi_thunks.obj
 0002:00002ef0       ??_C@_1O@BCCLBEOE@?$AAu?$AAs?$AAe?$AAr?$AA3?$AA2@ 10021ef0     libucrt:winapi_thunks.obj
 0002:00002f00       ??_C@_1BA@IAIFMGEF@?$AAe?$AAx?$AAt?$AA?9?$AAm?$AAs?$AA?9@ 10021f00     libucrt:winapi_thunks.obj
 0002:00002f14       ??_C@_0BA@FHFNEAED@AreFileApisANSI@ 10021f14     libucrt:winapi_thunks.obj
 0002:00002f54       ??_C@_0O@KKBNKAPF@LCMapStringEx@ 10021f54     libucrt:winapi_thunks.obj
 0002:00002f6c       ??_C@_0BB@HBDEELFH@LocaleNameToLCID@ 10021f6c     libucrt:winapi_thunks.obj
 0002:00002f84       ??_C@_0CF@OJOFEIGO@AppPolicyGetProcessTerminationM@ 10021f84     libucrt:winapi_thunks.obj
 0002:00002fb4       ??_C@_0BI@BKLFFAPO@SetThreadStackGuarantee@ 10021fb4     libucrt:winapi_thunks.obj
 0002:00003010       ??_C@_03OEIAHPBN@INF@      10022010     libucrt:cvt.obj
 0002:00003014       ??_C@_03OJHLLCGB@inf@      10022014     libucrt:cvt.obj
 0002:00003018       ??_C@_03LKNCIKJB@NAN@      10022018     libucrt:cvt.obj
 0002:0000301c       ??_C@_03LHCJEHON@nan@      1002201c     libucrt:cvt.obj
 0002:00003020       ??_C@_09OFJJIMPC@NAN?$CISNAN?$CJ@ 10022020     libucrt:cvt.obj
 0002:0000302c       ??_C@_09IPFBKMDL@nan?$CIsnan?$CJ@ 1002202c     libucrt:cvt.obj
 0002:00003038       ??_C@_08IKHNHAJ@NAN?$CIIND?$CJ@ 10022038     libucrt:cvt.obj
 0002:00003044       ??_C@_08OFCDMILK@nan?$CIind?$CJ@ 10022044     libucrt:cvt.obj
 0002:00003050       ??_C@_05KLBDPFGC@e?$CL000@ 10022050     libucrt:cvt.obj
 0002:00003058       ___lc_time_c               10022058     libucrt:nlsdata.obj
 0002:000031bc       ??_C@_03KOEHGMDN@Sun@      100221bc     libucrt:nlsdata.obj
 0002:000031c0       ??_C@_03PDAGKDH@Mon@       100221c0     libucrt:nlsdata.obj
 0002:000031c4       ??_C@_03NAGEINEP@Tue@      100221c4     libucrt:nlsdata.obj
 0002:000031c8       ??_C@_03MHOMLAJA@Wed@      100221c8     libucrt:nlsdata.obj
 0002:000031cc       ??_C@_03IOFIKPDN@Thu@      100221cc     libucrt:nlsdata.obj
 0002:000031d0       ??_C@_03IDIOELNC@Fri@      100221d0     libucrt:nlsdata.obj
 0002:000031d4       ??_C@_03FEFJNEK@Sat@       100221d4     libucrt:nlsdata.obj
 0002:000031d8       ??_C@_06OOPIFAJ@Sunday@    100221d8     libucrt:nlsdata.obj
 0002:000031e0       ??_C@_06JLEDEDGH@Monday@   100221e0     libucrt:nlsdata.obj
 0002:000031e8       ??_C@_07BAAGCFCM@Tuesday@  100221e8     libucrt:nlsdata.obj
 0002:000031f0       ??_C@_09DLIGFAKA@Wednesday@ 100221f0     libucrt:nlsdata.obj
 0002:000031fc       ??_C@_08HACCIKIA@Thursday@ 100221fc     libucrt:nlsdata.obj
 0002:00003208       ??_C@_06JECMNKMI@Friday@   10022208     libucrt:nlsdata.obj
 0002:00003210       ??_C@_08INBOOONO@Saturday@ 10022210     libucrt:nlsdata.obj
 0002:0000321c       ??_C@_03JIHJHPIE@Jan@      1002221c     libucrt:nlsdata.obj
 0002:00003220       ??_C@_03HJBDCHOM@Feb@      10022220     libucrt:nlsdata.obj
 0002:00003224       ??_C@_03ODNJBKGA@Mar@      10022224     libucrt:nlsdata.obj
 0002:00003228       ??_C@_03LEOLGMJP@Apr@      10022228     libucrt:nlsdata.obj
 0002:0000322c       ??_C@_03CNMDKL@May@        1002222c     libucrt:nlsdata.obj
 0002:00003230       ??_C@_03IDFGHECI@Jun@      10022230     libucrt:nlsdata.obj
 0002:00003234       ??_C@_03LBGABGKK@Jul@      10022234     libucrt:nlsdata.obj
 0002:00003238       ??_C@_03IFJFEIGA@Aug@      10022238     libucrt:nlsdata.obj
 0002:0000323c       ??_C@_03GGCAPAJC@Sep@      1002223c     libucrt:nlsdata.obj
 0002:00003240       ??_C@_03BMAOKBAD@Oct@      10022240     libucrt:nlsdata.obj
 0002:00003244       ??_C@_03JPJOFNIA@Nov@      10022244     libucrt:nlsdata.obj
 0002:00003248       ??_C@_03MKABNOCG@Dec@      10022248     libucrt:nlsdata.obj
 0002:0000324c       ??_C@_07CGJPFGJA@January@  1002224c     libucrt:nlsdata.obj
 0002:00003254       ??_C@_08GNJGEPFN@February@ 10022254     libucrt:nlsdata.obj
 0002:00003260       ??_C@_05HPCKOFNC@March@    10022260     libucrt:nlsdata.obj
 0002:00003268       ??_C@_05DMJDNLEJ@April@    10022268     libucrt:nlsdata.obj
 0002:00003270       ??_C@_04CNLMGBGM@June@     10022270     libucrt:nlsdata.obj
 0002:00003278       ??_C@_04MIEPOIFP@July@     10022278     libucrt:nlsdata.obj
 0002:00003280       ??_C@_06LBBHFDDG@August@   10022280     libucrt:nlsdata.obj
 0002:00003288       ??_C@_09BHHEALKD@September@ 10022288     libucrt:nlsdata.obj
 0002:00003294       ??_C@_07JJNFCEND@October@  10022294     libucrt:nlsdata.obj
 0002:0000329c       ??_C@_08HCHEGEOA@November@ 1002229c     libucrt:nlsdata.obj
 0002:000032a8       ??_C@_08EDHMEBNP@December@ 100222a8     libucrt:nlsdata.obj
 0002:000032b4       ??_C@_02DEDBPAFC@AM@       100222b4     libucrt:nlsdata.obj
 0002:000032b8       ??_C@_02CJNFDJBF@PM@       100222b8     libucrt:nlsdata.obj
 0002:000032bc       ??_C@_08BPBNCDIB@MM?1dd?1yy@ 100222bc     libucrt:nlsdata.obj
 0002:000032c8       ??_C@_0BE@CKGJFCPC@dddd?0?5MMMM?5dd?0?5yyyy@ 100222c8     libucrt:nlsdata.obj
 0002:000032dc       ??_C@_08JCCMCCIL@HH?3mm?3ss@ 100222dc     libucrt:nlsdata.obj
 0002:000032e8       ??_C@_17MBGCMIPB@?$AAS?$AAu?$AAn@ 100222e8     libucrt:nlsdata.obj
 0002:000032f0       ??_C@_17KBOMKBF@?$AAM?$AAo?$AAn@ 100222f0     libucrt:nlsdata.obj
 0002:000032f8       ??_C@_17BMKGEGOJ@?$AAT?$AAu?$AAe@ 100222f8     libucrt:nlsdata.obj
 0002:00003300       ??_C@_17CJEDCEPE@?$AAW?$AAe?$AAd@ 10022300     libucrt:nlsdata.obj
 0002:00003308       ??_C@_17PDPHAADD@?$AAT?$AAh?$AAu@ 10022308     libucrt:nlsdata.obj
 0002:00003310       ??_C@_17HFOLPPLP@?$AAF?$AAr?$AAi@ 10022310     libucrt:nlsdata.obj
 0002:00003318       ??_C@_17GGIBDPIH@?$AAS?$AAa?$AAt@ 10022318     libucrt:nlsdata.obj
 0002:00003320       ??_C@_1O@IHNHDHPB@?$AAS?$AAu?$AAn?$AAd?$AAa?$AAy@ 10022320     libucrt:nlsdata.obj
 0002:00003330       ??_C@_1O@MMNBFLIA@?$AAM?$AAo?$AAn?$AAd?$AAa?$AAy@ 10022330     libucrt:nlsdata.obj
 0002:00003340       ??_C@_1BA@ENFBFFEK@?$AAT?$AAu?$AAe?$AAs?$AAd?$AAa?$AAy@ 10022340     libucrt:nlsdata.obj
 0002:00003350       ??_C@_1BE@EBOGMDOH@?$AAW?$AAe?$AAd?$AAn?$AAe?$AAs?$AAd?$AAa?$AAy@ 10022350     libucrt:nlsdata.obj
 0002:00003364       ??_C@_1BC@HHMNLIHE@?$AAT?$AAh?$AAu?$AAr?$AAs?$AAd?$AAa?$AAy@ 10022364     libucrt:nlsdata.obj
 0002:00003378       ??_C@_1O@PDICJHAG@?$AAF?$AAr?$AAi?$AAd?$AAa?$AAy@ 10022378     libucrt:nlsdata.obj
 0002:00003388       ??_C@_1BC@ENMNNPAJ@?$AAS?$AAa?$AAt?$AAu?$AAr?$AAd?$AAa?$AAy@ 10022388     libucrt:nlsdata.obj
 0002:0000339c       ??_C@_17DKNBKCHM@?$AAJ?$AAa?$AAn@ 1002239c     libucrt:nlsdata.obj
 0002:000033a4       ??_C@_17LMDJEKJN@?$AAF?$AAe?$AAb@ 100223a4     libucrt:nlsdata.obj
 0002:000033ac       ??_C@_17CKNLEDEC@?$AAM?$AAa?$AAr@ 100223ac     libucrt:nlsdata.obj
 0002:000033b4       ??_C@_17LFPOIHDD@?$AAA?$AAp?$AAr@ 100223b4     libucrt:nlsdata.obj
 0002:000033bc       ??_C@_17PNNKMEED@?$AAM?$AAa?$AAy@ 100223bc     libucrt:nlsdata.obj
 0002:000033c4       ??_C@_17KCJGOCPB@?$AAJ?$AAu?$AAn@ 100223c4     libucrt:nlsdata.obj
 0002:000033cc       ??_C@_17IJPCKHK@?$AAJ?$AAu?$AAl@ 100223cc     libucrt:nlsdata.obj
 0002:000033d4       ??_C@_17ICPELBCN@?$AAA?$AAu?$AAg@ 100223d4     libucrt:nlsdata.obj
 0002:000033dc       ??_C@_17HCHCOKMG@?$AAS?$AAe?$AAp@ 100223dc     libucrt:nlsdata.obj
 0002:000033e4       ??_C@_17FNLKOI@?$AAO?$AAc?$AAt@ 100223e4     libucrt:nlsdata.obj
 0002:000033ec       ??_C@_17BBDMLCIG@?$AAN?$AAo?$AAv@ 100223ec     libucrt:nlsdata.obj
 0002:000033f4       ??_C@_17EGKACKIF@?$AAD?$AAe?$AAc@ 100223f4     libucrt:nlsdata.obj
 0002:000033fc       ??_C@_1BA@EFMEIEBA@?$AAJ?$AAa?$AAn?$AAu?$AAa?$AAr?$AAy@ 100223fc     libucrt:nlsdata.obj
 0002:0000340c       ??_C@_1BC@JGDDFFAM@?$AAF?$AAe?$AAb?$AAr?$AAu?$AAa?$AAr?$AAy@ 1002240c     libucrt:nlsdata.obj
 0002:00003420       ??_C@_1M@IKEENEDF@?$AAM?$AAa?$AAr?$AAc?$AAh@ 10022420     libucrt:nlsdata.obj
 0002:0000342c       ??_C@_1M@GJNLMHFD@?$AAA?$AAp?$AAr?$AAi?$AAl@ 1002242c     libucrt:nlsdata.obj
 0002:00003438       ??_C@_19EPFLPGAP@?$AAJ?$AAu?$AAn?$AAe@ 10022438     libucrt:nlsdata.obj
 0002:00003444       ??_C@_19BIFMLPCD@?$AAJ?$AAu?$AAl?$AAy@ 10022444     libucrt:nlsdata.obj
 0002:00003450       ??_C@_1O@PAHLKOAC@?$AAA?$AAu?$AAg?$AAu?$AAs?$AAt@ 10022450     libucrt:nlsdata.obj
 0002:00003460       ??_C@_1BE@DKAAMBJL@?$AAS?$AAe?$AAp?$AAt?$AAe?$AAm?$AAb?$AAe?$AAr@ 10022460     libucrt:nlsdata.obj
 0002:00003474       ??_C@_1BA@EPANDLNG@?$AAO?$AAc?$AAt?$AAo?$AAb?$AAe?$AAr@ 10022474     libucrt:nlsdata.obj
 0002:00003484       ??_C@_1BC@BGLIFPF@?$AAN?$AAo?$AAv?$AAe?$AAm?$AAb?$AAe?$AAr@ 10022484     libucrt:nlsdata.obj
 0002:00003498       ??_C@_1BC@FEMKIFH@?$AAD?$AAe?$AAc?$AAe?$AAm?$AAb?$AAe?$AAr@ 10022498     libucrt:nlsdata.obj
 0002:000034ac       ??_C@_15ODEHAHHF@?$AAA?$AAM@ 100224ac     libucrt:nlsdata.obj
 0002:000034b4       ??_C@_15CLMNNGEL@?$AAP?$AAM@ 100224b4     libucrt:nlsdata.obj
 0002:000034bc       ??_C@_1BC@IEBCMHCM@?$AAM?$AAM?$AA?1?$AAd?$AAd?$AA?1?$AAy?$AAy@ 100224bc     libucrt:nlsdata.obj
 0002:000034d0       ??_C@_1CI@KNAKOEBC@?$AAd?$AAd?$AAd?$AAd?$AA?0?$AA?5?$AAM?$AAM?$AAM?$AAM?$AA?5?$AAd?$AAd?$AA?0?$AA?5@ 100224d0     libucrt:nlsdata.obj
 0002:000034f8       ??_C@_1BC@GDGBMEMK@?$AAH?$AAH?$AA?3?$AAm?$AAm?$AA?3?$AAs?$AAs@ 100224f8     libucrt:nlsdata.obj
 0002:0000350c       ??_C@_1M@BMHNFIME@?$AAe?$AAn?$AA?9?$AAU?$AAS@ 1002250c     libucrt:nlsdata.obj
 0002:00003528       ??_C@_1M@HPNHIDJI@?$AAj?$AAa?$AA?9?$AAJ?$AAP@ 10022528     libucrt:mbctype.obj
 0002:00003534       ??_C@_1M@BIBDDEMK@?$AAz?$AAh?$AA?9?$AAC?$AAN@ 10022534     libucrt:mbctype.obj
 0002:00003540       ??_C@_1M@JLOOOEGK@?$AAk?$AAo?$AA?9?$AAK?$AAR@ 10022540     libucrt:mbctype.obj
 0002:0000354c       ??_C@_1M@CLNBBOPM@?$AAz?$AAh?$AA?9?$AAT?$AAW@ 1002254c     libucrt:mbctype.obj
 0002:00003558       ___newctype                10022558     libucrt:ctype.obj
 0002:00003858       ___newclmap                10022858     libucrt:ctype.obj
 0002:000039d8       ___newcumap                100229d8     libucrt:ctype.obj
 0002:00003b58       __wctype                   10022b58     libucrt:ctype.obj
 0002:00004480       ??_C@_15EMKDOKLE@?$AAa?$AAr@ 10023480     libucrt:lcidtoname_downlevel.obj
 0002:00004488       ??_C@_15KNPADPLH@?$AAb?$AAg@ 10023488     libucrt:lcidtoname_downlevel.obj
 0002:00004490       ??_C@_15EDMHLDMO@?$AAc?$AAa@ 10023490     libucrt:lcidtoname_downlevel.obj
 0002:00004498       ??_C@_1O@BPEAJADD@?$AAz?$AAh?$AA?9?$AAC?$AAH?$AAS@ 10023498     libucrt:lcidtoname_downlevel.obj
 0002:000044a8       ??_C@_15LJNHCMNK@?$AAc?$AAs@ 100234a8     libucrt:lcidtoname_downlevel.obj
 0002:000044b0       ??_C@_15FOMCIDHG@?$AAd?$AAa@ 100234b0     libucrt:lcidtoname_downlevel.obj
 0002:000044b8       ??_C@_15NBKABECB@?$AAd?$AAe@ 100234b8     libucrt:lcidtoname_downlevel.obj
 0002:000044c0       ??_C@_15GHPEIIAO@?$AAe?$AAl@ 100234c0     libucrt:lcidtoname_downlevel.obj
 0002:000044c8       ??_C@_15MNPNEAIF@?$AAe?$AAn@ 100234c8     libucrt:lcidtoname_downlevel.obj
 0002:000044d0       ??_C@_15GPIOMPMH@?$AAe?$AAs@ 100234d0     libucrt:lcidtoname_downlevel.obj
 0002:000044d8       ??_C@_15NGLOAKJC@?$AAf?$AAi@ 100234d8     libucrt:lcidtoname_downlevel.obj
 0002:000044e0       ??_C@_15FBKGNKAM@?$AAf?$AAr@ 100234e0     libucrt:lcidtoname_downlevel.obj
 0002:000044e8       ??_C@_15KGGCNEFK@?$AAh?$AAe@ 100234e8     libucrt:lcidtoname_downlevel.obj
 0002:000044f0       ??_C@_15PGHLIDMF@?$AAh?$AAu@ 100234f0     libucrt:lcidtoname_downlevel.obj
 0002:000044f8       ??_C@_15BIEMAPLM@?$AAi?$AAs@ 100234f8     libucrt:lcidtoname_downlevel.obj
 0002:00004500       ??_C@_15IFJLDHAF@?$AAi?$AAt@ 10023500     libucrt:lcidtoname_downlevel.obj
 0002:00004508       ??_C@_15GEMIOCAG@?$AAj?$AAa@ 10023508     libucrt:lcidtoname_downlevel.obj
 0002:00004510       ??_C@_15EPELEGJA@?$AAk?$AAo@ 10023510     libucrt:lcidtoname_downlevel.obj
 0002:00004518       ??_C@_15NDDHIMN@?$AAn?$AAl@ 10023518     libucrt:lcidtoname_downlevel.obj
 0002:00004520       ??_C@_15BPIGNHCD@?$AAn?$AAo@ 10023520     libucrt:lcidtoname_downlevel.obj
 0002:00004528       ??_C@_15DEOPBLCG@?$AAp?$AAl@ 10023528     libucrt:lcidtoname_downlevel.obj
 0002:00004530       ??_C@_15KBECGEFG@?$AAp?$AAt@ 10023530     libucrt:lcidtoname_downlevel.obj
 0002:00004538       ??_C@_15GLJCBFMD@?$AAr?$AAo@ 10023538     libucrt:lcidtoname_downlevel.obj
 0002:00004540       ??_C@_15FEDGKCDI@?$AAr?$AAu@ 10023540     libucrt:lcidtoname_downlevel.obj
 0002:00004548       ??_C@_15GLKMLLHM@?$AAh?$AAr@ 10023548     libucrt:lcidtoname_downlevel.obj
 0002:00004550       ??_C@_15CPKMFBDB@?$AAs?$AAk@ 10023550     libucrt:lcidtoname_downlevel.obj
 0002:00004558       ??_C@_15BAAIOGMK@?$AAs?$AAq@ 10023558     libucrt:lcidtoname_downlevel.obj
 0002:00004560       ??_C@_15INNPNOHD@?$AAs?$AAv@ 10023560     libucrt:lcidtoname_downlevel.obj
 0002:00004568       ??_C@_15CABMMOGH@?$AAt?$AAh@ 10023568     libucrt:lcidtoname_downlevel.obj
 0002:00004570       ??_C@_15BPLIHJJM@?$AAt?$AAr@ 10023570     libucrt:lcidtoname_downlevel.obj
 0002:00004578       ??_C@_15NEOEKKDJ@?$AAu?$AAr@ 10023578     libucrt:lcidtoname_downlevel.obj
 0002:00004580       ??_C@_15NFICGAJK@?$AAi?$AAd@ 10023580     libucrt:lcidtoname_downlevel.obj
 0002:00004588       ??_C@_15PJPFLCCM@?$AAu?$AAk@ 10023588     libucrt:lcidtoname_downlevel.obj
 0002:00004590       ??_C@_15HPJPHDM@?$AAb?$AAe@ 10023590     libucrt:lcidtoname_downlevel.obj
 0002:00004598       ??_C@_15LCHLGJII@?$AAs?$AAl@ 10023598     libucrt:lcidtoname_downlevel.obj
 0002:000045a0       ??_C@_15PCFJPHHO@?$AAe?$AAt@ 100235a0     libucrt:lcidtoname_downlevel.obj
 0002:000045a8       ??_C@_15HPFPGODN@?$AAl?$AAv@ 100235a8     libucrt:lcidtoname_downlevel.obj
 0002:000045b0       ??_C@_15NFFGKGLG@?$AAl?$AAt@ 100235b0     libucrt:lcidtoname_downlevel.obj
 0002:000045b8       ??_C@_15BDAKCCHN@?$AAf?$AAa@ 100235b8     libucrt:lcidtoname_downlevel.obj
 0002:000045c0       ??_C@_15NFGIAIAJ@?$AAv?$AAi@ 100235c0     libucrt:lcidtoname_downlevel.obj
 0002:000045c8       ??_C@_15LMKNDMHN@?$AAh?$AAy@ 100235c8     libucrt:lcidtoname_downlevel.obj
 0002:000045d0       ??_C@_15IJBHMCFL@?$AAa?$AAz@ 100235d0     libucrt:lcidtoname_downlevel.obj
 0002:000045d8       ??_C@_15EKOFJABL@?$AAe?$AAu@ 100235d8     libucrt:lcidtoname_downlevel.obj
 0002:000045e0       ??_C@_15BGHADCNK@?$AAm?$AAk@ 100235e0     libucrt:lcidtoname_downlevel.obj
 0002:000045e8       ??_C@_15JDNICKHM@?$AAa?$AAf@ 100235e8     libucrt:lcidtoname_downlevel.obj
 0002:000045f0       ??_C@_15KPJEDBKD@?$AAk?$AAa@ 100235f0     libucrt:lcidtoname_downlevel.obj
 0002:000045f8       ??_C@_15PDNFFFEO@?$AAf?$AAo@ 100235f8     libucrt:lcidtoname_downlevel.obj
 0002:00004600       ??_C@_15OMLEGLOC@?$AAh?$AAi@ 10023600     libucrt:lcidtoname_downlevel.obj
 0002:00004608       ??_C@_15IDNNENKK@?$AAm?$AAs@ 10023608     libucrt:lcidtoname_downlevel.obj
 0002:00004610       ??_C@_15MACJNBMH@?$AAk?$AAk@ 10023610     libucrt:lcidtoname_downlevel.obj
 0002:00004618       ??_C@_15DKDJEOND@?$AAk?$AAy@ 10023618     libucrt:lcidtoname_downlevel.obj
 0002:00004620       ??_C@_15DFGDLJBG@?$AAs?$AAw@ 10023620     libucrt:lcidtoname_downlevel.obj
 0002:00004628       ??_C@_15BBFAICNG@?$AAu?$AAz@ 10023628     libucrt:lcidtoname_downlevel.obj
 0002:00004630       ??_C@_15DKNDCGEA@?$AAt?$AAt@ 10023630     libucrt:lcidtoname_downlevel.obj
 0002:00004638       ??_C@_15MGIFMDPL@?$AAp?$AAa@ 10023638     libucrt:lcidtoname_downlevel.obj
 0002:00004640       ??_C@_15HCNDBBA@?$AAg?$AAu@ 10023640     libucrt:lcidtoname_downlevel.obj
 0002:00004648       ??_C@_15FNBEIBON@?$AAt?$AAa@ 10023648     libucrt:lcidtoname_downlevel.obj
 0002:00004650       ??_C@_15NCHGBGLK@?$AAt?$AAe@ 10023650     libucrt:lcidtoname_downlevel.obj
 0002:00004658       ??_C@_15PHPHCBPF@?$AAk?$AAn@ 10023658     libucrt:lcidtoname_downlevel.obj
 0002:00004660       ??_C@_15DLGBCKMP@?$AAm?$AAr@ 10023660     libucrt:lcidtoname_downlevel.obj
 0002:00004668       ??_C@_15EABBLBFF@?$AAs?$AAa@ 10023668     libucrt:lcidtoname_downlevel.obj
 0002:00004670       ??_C@_15CBKOMCOI@?$AAm?$AAn@ 10023670     libucrt:lcidtoname_downlevel.obj
 0002:00004678       ??_C@_15CKDMCJAF@?$AAg?$AAl@ 10023678     libucrt:lcidtoname_downlevel.obj
 0002:00004680       ??_C@_17CNJFBPG@?$AAk?$AAo?$AAk@ 10023680     libucrt:lcidtoname_downlevel.obj
 0002:00004688       ??_C@_17FFBJICPL@?$AAs?$AAy?$AAr@ 10023688     libucrt:lcidtoname_downlevel.obj
 0002:00004690       ??_C@_17KPNDCPAF@?$AAd?$AAi?$AAv@ 10023690     libucrt:lcidtoname_downlevel.obj
 0002:00004698       ??_C@_1M@OKAHONE@?$AAa?$AAr?$AA?9?$AAS?$AAA@ 10023698     libucrt:lcidtoname_downlevel.obj
 0002:000046a4       ??_C@_1M@FFFIGIGK@?$AAb?$AAg?$AA?9?$AAB?$AAG@ 100236a4     libucrt:lcidtoname_downlevel.obj
 0002:000046b0       ??_C@_1M@BJNKEDC@?$AAc?$AAa?$AA?9?$AAE?$AAS@ 100236b0     libucrt:lcidtoname_downlevel.obj
 0002:000046bc       ??_C@_1M@IJJHFJHA@?$AAc?$AAs?$AA?9?$AAC?$AAZ@ 100236bc     libucrt:lcidtoname_downlevel.obj
 0002:000046c8       ??_C@_1M@CLPEOBGI@?$AAd?$AAa?$AA?9?$AAD?$AAK@ 100236c8     libucrt:lcidtoname_downlevel.obj
 0002:000046d4       ??_C@_1M@MCMADGCB@?$AAd?$AAe?$AA?9?$AAD?$AAE@ 100236d4     libucrt:lcidtoname_downlevel.obj
 0002:000046e0       ??_C@_1M@OOCKEMAM@?$AAe?$AAl?$AA?9?$AAG?$AAR@ 100236e0     libucrt:lcidtoname_downlevel.obj
 0002:000046ec       ??_C@_1M@DDNJFGID@?$AAf?$AAi?$AA?9?$AAF?$AAI@ 100236ec     libucrt:lcidtoname_downlevel.obj
 0002:000046f8       ??_C@_1M@GLIPPMAC@?$AAf?$AAr?$AA?9?$AAF?$AAR@ 100236f8     libucrt:lcidtoname_downlevel.obj
 0002:00004704       ??_C@_1M@GFMCHPE@?$AAh?$AAe?$AA?9?$AAI?$AAL@ 10023704     libucrt:lcidtoname_downlevel.obj
 0002:00004710       ??_C@_1M@MHLPGNKM@?$AAh?$AAu?$AA?9?$AAH?$AAU@ 10023710     libucrt:lcidtoname_downlevel.obj
 0002:0000471c       ??_C@_1M@LPDDNNPN@?$AAi?$AAs?$AA?9?$AAI?$AAS@ 1002371c     libucrt:lcidtoname_downlevel.obj
 0002:00004728       ??_C@_1M@MADIPODN@?$AAi?$AAt?$AA?9?$AAI?$AAT@ 10023728     libucrt:lcidtoname_downlevel.obj
 0002:00004734       ??_C@_1M@IHBJJGG@?$AAn?$AAl?$AA?9?$AAN?$AAL@ 10023734     libucrt:lcidtoname_downlevel.obj
 0002:00004740       ??_C@_1M@EANAGDL@?$AAn?$AAb?$AA?9?$AAN?$AAO@ 10023740     libucrt:lcidtoname_downlevel.obj
 0002:0000474c       ??_C@_1M@NEIEMEGP@?$AAp?$AAl?$AA?9?$AAP?$AAL@ 1002374c     libucrt:lcidtoname_downlevel.obj
 0002:00004758       ??_C@_1M@BOCFIGEP@?$AAp?$AAt?$AA?9?$AAB?$AAR@ 10023758     libucrt:lcidtoname_downlevel.obj
 0002:00004764       ??_C@_1M@IMPFOPBG@?$AAr?$AAo?$AA?9?$AAR?$AAO@ 10023764     libucrt:lcidtoname_downlevel.obj
 0002:00004770       ??_C@_1M@IDNNEJMM@?$AAr?$AAu?$AA?9?$AAR?$AAU@ 10023770     libucrt:lcidtoname_downlevel.obj
 0002:0000477c       ??_C@_1M@LILEEOGM@?$AAh?$AAr?$AA?9?$AAH?$AAR@ 1002377c     libucrt:lcidtoname_downlevel.obj
 0002:00004788       ??_C@_1M@FKIFEHPB@?$AAs?$AAk?$AA?9?$AAS?$AAK@ 10023788     libucrt:lcidtoname_downlevel.obj
 0002:00004794       ??_C@_1M@LJMAMNPJ@?$AAs?$AAq?$AA?9?$AAA?$AAL@ 10023794     libucrt:lcidtoname_downlevel.obj
 0002:000047a0       ??_C@_1M@GIAKDKJK@?$AAs?$AAv?$AA?9?$AAS?$AAE@ 100237a0     libucrt:lcidtoname_downlevel.obj
 0002:000047ac       ??_C@_1M@MKJKIKCL@?$AAt?$AAh?$AA?9?$AAT?$AAH@ 100237ac     libucrt:lcidtoname_downlevel.obj
 0002:000047b8       ??_C@_1M@MFLCCMPB@?$AAt?$AAr?$AA?9?$AAT?$AAR@ 100237b8     libucrt:lcidtoname_downlevel.obj
 0002:000047c4       ??_C@_1M@OIJHDKJN@?$AAu?$AAr?$AA?9?$AAP?$AAK@ 100237c4     libucrt:lcidtoname_downlevel.obj
 0002:000047d0       ??_C@_1M@LHIPCIEK@?$AAi?$AAd?$AA?9?$AAI?$AAD@ 100237d0     libucrt:lcidtoname_downlevel.obj
 0002:000047dc       ??_C@_1M@MFMOBGI@?$AAu?$AAk?$AA?9?$AAU?$AAA@ 100237dc     libucrt:lcidtoname_downlevel.obj
 0002:000047e8       ??_C@_1M@OBGLJIPL@?$AAb?$AAe?$AA?9?$AAB?$AAY@ 100237e8     libucrt:lcidtoname_downlevel.obj
 0002:000047f4       ??_C@_1M@BCFAJEAD@?$AAs?$AAl?$AA?9?$AAS?$AAI@ 100237f4     libucrt:lcidtoname_downlevel.obj
 0002:00004800       ??_C@_1M@FKFFEDDN@?$AAe?$AAt?$AA?9?$AAE?$AAE@ 10023800     libucrt:lcidtoname_downlevel.obj
 0002:0000480c       ??_C@_1M@KGKKAACI@?$AAl?$AAv?$AA?9?$AAL?$AAV@ 1002380c     libucrt:lcidtoname_downlevel.obj
 0002:00004818       ??_C@_1M@IFGBIJO@?$AAl?$AAt?$AA?9?$AAL?$AAT@ 10023818     libucrt:lcidtoname_downlevel.obj
 0002:00004824       ??_C@_1M@FGEAHEDM@?$AAf?$AAa?$AA?9?$AAI?$AAR@ 10023824     libucrt:lcidtoname_downlevel.obj
 0002:00004830       ??_C@_1M@KBMAIBFN@?$AAv?$AAi?$AA?9?$AAV?$AAN@ 10023830     libucrt:lcidtoname_downlevel.obj
 0002:0000483c       ??_C@_1M@GPCBKDJK@?$AAh?$AAy?$AA?9?$AAA?$AAM@ 1002383c     libucrt:lcidtoname_downlevel.obj
 0002:00004848       ??_C@_1BG@BECMDDJB@?$AAa?$AAz?$AA?9?$AAA?$AAZ?$AA?9?$AAL?$AAa?$AAt?$AAn@ 10023848     libucrt:lcidtoname_downlevel.obj
 0002:00004860       ??_C@_1M@MAOFCAEA@?$AAe?$AAu?$AA?9?$AAE?$AAS@ 10023860     libucrt:lcidtoname_downlevel.obj
 0002:0000486c       ??_C@_1M@IGHABKPI@?$AAm?$AAk?$AA?9?$AAM?$AAK@ 1002386c     libucrt:lcidtoname_downlevel.obj
 0002:00004878       ??_C@_1M@IAIGNEJG@?$AAt?$AAn?$AA?9?$AAZ?$AAA@ 10023878     libucrt:lcidtoname_downlevel.obj
 0002:00004884       ??_C@_1M@IIJCOJFA@?$AAx?$AAh?$AA?9?$AAZ?$AAA@ 10023884     libucrt:lcidtoname_downlevel.obj
 0002:00004890       ??_C@_1M@LGPJHNJH@?$AAz?$AAu?$AA?9?$AAZ?$AAA@ 10023890     libucrt:lcidtoname_downlevel.obj
 0002:0000489c       ??_C@_1M@HOKAOIO@?$AAa?$AAf?$AA?9?$AAZ?$AAA@ 1002389c     libucrt:lcidtoname_downlevel.obj
 0002:000048a8       ??_C@_1M@DPCLHLIE@?$AAk?$AAa?$AA?9?$AAG?$AAE@ 100238a8     libucrt:lcidtoname_downlevel.obj
 0002:000048b4       ??_C@_1M@BLKMHJBI@?$AAf?$AAo?$AA?9?$AAF?$AAO@ 100238b4     libucrt:lcidtoname_downlevel.obj
 0002:000048c0       ??_C@_1M@LGGJAPPB@?$AAh?$AAi?$AA?9?$AAI?$AAN@ 100238c0     libucrt:lcidtoname_downlevel.obj
 0002:000048cc       ??_C@_1M@FIKPIHFE@?$AAm?$AAt?$AA?9?$AAM?$AAT@ 100238cc     libucrt:lcidtoname_downlevel.obj
 0002:000048d8       ??_C@_1M@HEGGPBFA@?$AAs?$AAe?$AA?9?$AAN?$AAO@ 100238d8     libucrt:lcidtoname_downlevel.obj
 0002:000048e4       ??_C@_1M@EIBJEEPA@?$AAm?$AAs?$AA?9?$AAM?$AAY@ 100238e4     libucrt:lcidtoname_downlevel.obj
 0002:000048f0       ??_C@_1M@FHLBGMPP@?$AAk?$AAk?$AA?9?$AAK?$AAZ@ 100238f0     libucrt:lcidtoname_downlevel.obj
 0002:000048fc       ??_C@_1M@NGJJLCGI@?$AAk?$AAy?$AA?9?$AAK?$AAG@ 100238fc     libucrt:lcidtoname_downlevel.obj
 0002:00004908       ??_C@_1M@GIENNBFC@?$AAs?$AAw?$AA?9?$AAK?$AAE@ 10023908     libucrt:lcidtoname_downlevel.obj
 0002:00004914       ??_C@_1BG@NDGMJIMJ@?$AAu?$AAz?$AA?9?$AAU?$AAZ?$AA?9?$AAL?$AAa?$AAt?$AAn@ 10023914     libucrt:lcidtoname_downlevel.obj
 0002:0000492c       ??_C@_1M@IDCCIHBC@?$AAt?$AAt?$AA?9?$AAR?$AAU@ 1002392c     libucrt:lcidtoname_downlevel.obj
 0002:00004938       ??_C@_1M@LOICPMOJ@?$AAb?$AAn?$AA?9?$AAI?$AAN@ 10023938     libucrt:lcidtoname_downlevel.obj
 0002:00004944       ??_C@_1M@KPKKNEAH@?$AAp?$AAa?$AA?9?$AAI?$AAN@ 10023944     libucrt:lcidtoname_downlevel.obj
 0002:00004950       ??_C@_1M@PJGPPBOG@?$AAg?$AAu?$AA?9?$AAI?$AAN@ 10023950     libucrt:lcidtoname_downlevel.obj
 0002:0000495c       ??_C@_1M@KMKMOPHI@?$AAt?$AAa?$AA?9?$AAI?$AAN@ 1002395c     libucrt:lcidtoname_downlevel.obj
 0002:00004968       ??_C@_1M@KFEHEPAC@?$AAt?$AAe?$AA?9?$AAI?$AAN@ 10023968     libucrt:lcidtoname_downlevel.obj
 0002:00004974       ??_C@_1M@CDCLMGHI@?$AAk?$AAn?$AA?9?$AAI?$AAN@ 10023974     libucrt:lcidtoname_downlevel.obj
 0002:00004980       ??_C@_1M@MIODLDKF@?$AAm?$AAl?$AA?9?$AAI?$AAN@ 10023980     libucrt:lcidtoname_downlevel.obj
 0002:0000498c       ??_C@_1M@PBIEACPO@?$AAm?$AAr?$AA?9?$AAI?$AAN@ 1002398c     libucrt:lcidtoname_downlevel.obj
 0002:00004998       ??_C@_1M@NIDEAGPH@?$AAs?$AAa?$AA?9?$AAI?$AAN@ 10023998     libucrt:lcidtoname_downlevel.obj
 0002:000049a4       ??_C@_1M@FHIHCBIO@?$AAm?$AAn?$AA?9?$AAM?$AAN@ 100239a4     libucrt:lcidtoname_downlevel.obj
 0002:000049b0       ??_C@_1M@JAIJPENP@?$AAc?$AAy?$AA?9?$AAG?$AAB@ 100239b0     libucrt:lcidtoname_downlevel.obj
 0002:000049bc       ??_C@_1M@PHGFBEPN@?$AAg?$AAl?$AA?9?$AAE?$AAS@ 100239bc     libucrt:lcidtoname_downlevel.obj
 0002:000049c8       ??_C@_1O@KPIPDNCP@?$AAk?$AAo?$AAk?$AA?9?$AAI?$AAN@ 100239c8     libucrt:lcidtoname_downlevel.obj
 0002:000049d8       ??_C@_1O@KNHJLDJA@?$AAs?$AAy?$AAr?$AA?9?$AAS?$AAY@ 100239d8     libucrt:lcidtoname_downlevel.obj
 0002:000049e8       ??_C@_1O@MKEKBLAH@?$AAd?$AAi?$AAv?$AA?9?$AAM?$AAV@ 100239e8     libucrt:lcidtoname_downlevel.obj
 0002:000049f8       ??_C@_1O@OHDCKDDF@?$AAq?$AAu?$AAz?$AA?9?$AAB?$AAO@ 100239f8     libucrt:lcidtoname_downlevel.obj
 0002:00004a08       ??_C@_1M@LEPJNLFD@?$AAn?$AAs?$AA?9?$AAZ?$AAA@ 10023a08     libucrt:lcidtoname_downlevel.obj
 0002:00004a14       ??_C@_1M@OMLEIIJB@?$AAm?$AAi?$AA?9?$AAN?$AAZ@ 10023a14     libucrt:lcidtoname_downlevel.obj
 0002:00004a20       ??_C@_1M@PMPEAILG@?$AAa?$AAr?$AA?9?$AAI?$AAQ@ 10023a20     libucrt:lcidtoname_downlevel.obj
 0002:00004a2c       ??_C@_1M@CNKPNOEE@?$AAd?$AAe?$AA?9?$AAC?$AAH@ 10023a2c     libucrt:lcidtoname_downlevel.obj
 0002:00004a38       ??_C@_1M@LKMGMLKO@?$AAe?$AAn?$AA?9?$AAG?$AAB@ 10023a38     libucrt:lcidtoname_downlevel.obj
 0002:00004a44       ??_C@_1M@PGKJFFGL@?$AAe?$AAs?$AA?9?$AAM?$AAX@ 10023a44     libucrt:lcidtoname_downlevel.obj
 0002:00004a50       ??_C@_1M@DNNANBDC@?$AAf?$AAr?$AA?9?$AAB?$AAE@ 10023a50     libucrt:lcidtoname_downlevel.obj
 0002:00004a5c       ??_C@_1M@HLGMDFHM@?$AAi?$AAt?$AA?9?$AAC?$AAH@ 10023a5c     libucrt:lcidtoname_downlevel.obj
 0002:00004a68       ??_C@_1M@CLLBGJH@?$AAn?$AAl?$AA?9?$AAB?$AAE@ 10023a68     libucrt:lcidtoname_downlevel.obj
 0002:00004a74       ??_C@_1M@BODBOGLF@?$AAn?$AAn?$AA?9?$AAN?$AAO@ 10023a74     libucrt:lcidtoname_downlevel.obj
 0002:00004a80       ??_C@_1M@HFFAHKAD@?$AAp?$AAt?$AA?9?$AAP?$AAT@ 10023a80     libucrt:lcidtoname_downlevel.obj
 0002:00004a8c       ??_C@_1BG@LNOAKHIE@?$AAs?$AAr?$AA?9?$AAS?$AAP?$AA?9?$AAL?$AAa?$AAt?$AAn@ 10023a8c     libucrt:lcidtoname_downlevel.obj
 0002:00004aa4       ??_C@_1M@HBMHBGAK@?$AAs?$AAv?$AA?9?$AAF?$AAI@ 10023aa4     libucrt:lcidtoname_downlevel.obj
 0002:00004ab0       ??_C@_1BG@DGCJGJBE@?$AAa?$AAz?$AA?9?$AAA?$AAZ?$AA?9?$AAC?$AAy?$AAr?$AAl@ 10023ab0     libucrt:lcidtoname_downlevel.obj
 0002:00004ac8       ??_C@_1M@KEJDAAHB@?$AAs?$AAe?$AA?9?$AAS?$AAE@ 10023ac8     libucrt:lcidtoname_downlevel.obj
 0002:00004ad4       ??_C@_1M@HEIBJJAD@?$AAm?$AAs?$AA?9?$AAB?$AAN@ 10023ad4     libucrt:lcidtoname_downlevel.obj
 0002:00004ae0       ??_C@_1BG@PBGJMCEM@?$AAu?$AAz?$AA?9?$AAU?$AAZ?$AA?9?$AAC?$AAy?$AAr?$AAl@ 10023ae0     libucrt:lcidtoname_downlevel.obj
 0002:00004af8       ??_C@_1O@LAOBCMDF@?$AAq?$AAu?$AAz?$AA?9?$AAE?$AAC@ 10023af8     libucrt:lcidtoname_downlevel.obj
 0002:00004b08       ??_C@_1M@POEEMAIO@?$AAa?$AAr?$AA?9?$AAE?$AAG@ 10023b08     libucrt:lcidtoname_downlevel.obj
 0002:00004b14       ??_C@_1M@EFAKDEDL@?$AAz?$AAh?$AA?9?$AAH?$AAK@ 10023b14     libucrt:lcidtoname_downlevel.obj
 0002:00004b20       ??_C@_1M@HKKIJHGI@?$AAd?$AAe?$AA?9?$AAA?$AAT@ 10023b20     libucrt:lcidtoname_downlevel.obj
 0002:00004b2c       ??_C@_1M@KBFBEHJF@?$AAe?$AAn?$AA?9?$AAA?$AAU@ 10023b2c     libucrt:lcidtoname_downlevel.obj
 0002:00004b38       ??_C@_1M@MNPLFAAH@?$AAe?$AAs?$AA?9?$AAE?$AAS@ 10023b38     libucrt:lcidtoname_downlevel.obj
 0002:00004b44       ??_C@_1M@HJOOJFMA@?$AAf?$AAr?$AA?9?$AAC?$AAA@ 10023b44     libucrt:lcidtoname_downlevel.obj
 0002:00004b50       ??_C@_1BG@JPOFPNAB@?$AAs?$AAr?$AA?9?$AAS?$AAP?$AA?9?$AAC?$AAy?$AAr?$AAl@ 10023b50     libucrt:lcidtoname_downlevel.obj
 0002:00004b68       ??_C@_1M@LNFOCMOB@?$AAs?$AAe?$AA?9?$AAF?$AAI@ 10023b68     libucrt:lcidtoname_downlevel.obj
 0002:00004b74       ??_C@_1O@MGJBOAMB@?$AAq?$AAu?$AAz?$AA?9?$AAP?$AAE@ 10023b74     libucrt:lcidtoname_downlevel.obj
 0002:00004b84       ??_C@_1M@GJINLBOK@?$AAa?$AAr?$AA?9?$AAL?$AAY@ 10023b84     libucrt:lcidtoname_downlevel.obj
 0002:00004b90       ??_C@_1M@GGMNHJNL@?$AAz?$AAh?$AA?9?$AAS?$AAG@ 10023b90     libucrt:lcidtoname_downlevel.obj
 0002:00004b9c       ??_C@_1M@HOIKODND@?$AAd?$AAe?$AA?9?$AAL?$AAU@ 10023b9c     libucrt:lcidtoname_downlevel.obj
 0002:00004ba8       ??_C@_1M@DDOCCGFG@?$AAe?$AAn?$AA?9?$AAC?$AAA@ 10023ba8     libucrt:lcidtoname_downlevel.obj
 0002:00004bb4       ??_C@_1M@BNOEMJLF@?$AAe?$AAs?$AA?9?$AAG?$AAT@ 10023bb4     libucrt:lcidtoname_downlevel.obj
 0002:00004bc0       ??_C@_1M@EOGNKEK@?$AAf?$AAr?$AA?9?$AAC?$AAH@ 10023bc0     libucrt:lcidtoname_downlevel.obj
 0002:00004bcc       ??_C@_1M@FLIDJFHL@?$AAh?$AAr?$AA?9?$AAB?$AAA@ 10023bcc     libucrt:lcidtoname_downlevel.obj
 0002:00004bd8       ??_C@_1O@FMCELNAJ@?$AAs?$AAm?$AAj?$AA?9?$AAN?$AAO@ 10023bd8     libucrt:lcidtoname_downlevel.obj
 0002:00004be8       ??_C@_1M@JHGLJMGJ@?$AAa?$AAr?$AA?9?$AAD?$AAZ@ 10023be8     libucrt:lcidtoname_downlevel.obj
 0002:00004bf4       ??_C@_1M@JKKFDCNP@?$AAz?$AAh?$AA?9?$AAM?$AAO@ 10023bf4     libucrt:lcidtoname_downlevel.obj
 0002:00004c00       ??_C@_1M@GEEFALPE@?$AAd?$AAe?$AA?9?$AAL?$AAI@ 10023c00     libucrt:lcidtoname_downlevel.obj
 0002:00004c0c       ??_C@_1M@IGEOFBG@?$AAe?$AAn?$AA?9?$AAN?$AAZ@ 10023c0c     libucrt:lcidtoname_downlevel.obj
 0002:00004c18       ??_C@_1M@KDBONEHP@?$AAe?$AAs?$AA?9?$AAC?$AAR@ 10023c18     libucrt:lcidtoname_downlevel.obj
 0002:00004c24       ??_C@_1M@FHMDOHNN@?$AAf?$AAr?$AA?9?$AAL?$AAU@ 10023c24     libucrt:lcidtoname_downlevel.obj
 0002:00004c30       ??_C@_1BG@NFKKMAFG@?$AAb?$AAs?$AA?9?$AAB?$AAA?$AA?9?$AAL?$AAa?$AAt?$AAn@ 10023c30     libucrt:lcidtoname_downlevel.obj
 0002:00004c48       ??_C@_1O@IMNBEMCI@?$AAs?$AAm?$AAj?$AA?9?$AAS?$AAE@ 10023c48     libucrt:lcidtoname_downlevel.obj
 0002:00004c58       ??_C@_1M@DHHMBNDP@?$AAa?$AAr?$AA?9?$AAM?$AAA@ 10023c58     libucrt:lcidtoname_downlevel.obj
 0002:00004c64       ??_C@_1M@BNBLJCGH@?$AAe?$AAn?$AA?9?$AAI?$AAE@ 10023c64     libucrt:lcidtoname_downlevel.obj
 0002:00004c70       ??_C@_1M@GEPAFMDL@?$AAe?$AAs?$AA?9?$AAP?$AAA@ 10023c70     libucrt:lcidtoname_downlevel.obj
 0002:00004c7c       ??_C@_1M@OJONDMDL@?$AAf?$AAr?$AA?9?$AAM?$AAC@ 10023c7c     libucrt:lcidtoname_downlevel.obj
 0002:00004c88       ??_C@_1BG@OBCNFJB@?$AAs?$AAr?$AA?9?$AAB?$AAA?$AA?9?$AAL?$AAa?$AAt?$AAn@ 10023c88     libucrt:lcidtoname_downlevel.obj
 0002:00004ca0       ??_C@_1O@KEMEEGPO@?$AAs?$AAm?$AAa?$AA?9?$AAN?$AAO@ 10023ca0     libucrt:lcidtoname_downlevel.obj
 0002:00004cb0       ??_C@_1M@ELMGFODK@?$AAa?$AAr?$AA?9?$AAT?$AAN@ 10023cb0     libucrt:lcidtoname_downlevel.obj
 0002:00004cbc       ??_C@_1M@BHDLHFAF@?$AAe?$AAn?$AA?9?$AAZ?$AAA@ 10023cbc     libucrt:lcidtoname_downlevel.obj
 0002:00004cc8       ??_C@_1M@BMGIGLIF@?$AAe?$AAs?$AA?9?$AAD?$AAO@ 10023cc8     libucrt:lcidtoname_downlevel.obj
 0002:00004cd4       ??_C@_1BG@CMBHIPBE@?$AAs?$AAr?$AA?9?$AAB?$AAA?$AA?9?$AAC?$AAy?$AAr?$AAl@ 10023cd4     libucrt:lcidtoname_downlevel.obj
 0002:00004cec       ??_C@_1O@HEDBLHNP@?$AAs?$AAm?$AAa?$AA?9?$AAS?$AAE@ 10023cec     libucrt:lcidtoname_downlevel.obj
 0002:00004cfc       ??_C@_1M@DAGCADIM@?$AAa?$AAr?$AA?9?$AAO?$AAM@ 10023cfc     libucrt:lcidtoname_downlevel.obj
 0002:00004d08       ??_C@_1M@FODLMICG@?$AAe?$AAn?$AA?9?$AAJ?$AAM@ 10023d08     libucrt:lcidtoname_downlevel.obj
 0002:00004d14       ??_C@_1M@DNMLCIHB@?$AAe?$AAs?$AA?9?$AAV?$AAE@ 10023d14     libucrt:lcidtoname_downlevel.obj
 0002:00004d20       ??_C@_1O@EOKHMKJK@?$AAs?$AAm?$AAs?$AA?9?$AAF?$AAI@ 10023d20     libucrt:lcidtoname_downlevel.obj
 0002:00004d30       ??_C@_1M@CAFJMKOF@?$AAa?$AAr?$AA?9?$AAY?$AAE@ 10023d30     libucrt:lcidtoname_downlevel.obj
 0002:00004d3c       ??_C@_1M@CBFHIJLI@?$AAe?$AAn?$AA?9?$AAC?$AAB@ 10023d3c     libucrt:lcidtoname_downlevel.obj
 0002:00004d48       ??_C@_1M@BGNFLDN@?$AAe?$AAs?$AA?9?$AAC?$AAO@ 10023d48     libucrt:lcidtoname_downlevel.obj
 0002:00004d54       ??_C@_1O@JMPHMAMC@?$AAs?$AAm?$AAn?$AA?9?$AAF?$AAI@ 10023d54     libucrt:lcidtoname_downlevel.obj
 0002:00004d64       ??_C@_1M@JLANABKE@?$AAa?$AAr?$AA?9?$AAS?$AAY@ 10023d64     libucrt:lcidtoname_downlevel.obj
 0002:00004d70       ??_C@_1M@HPKGCFGN@?$AAe?$AAn?$AA?9?$AAB?$AAZ@ 10023d70     libucrt:lcidtoname_downlevel.obj
 0002:00004d7c       ??_C@_1M@OLJCMLGM@?$AAe?$AAs?$AA?9?$AAP?$AAE@ 10023d7c     libucrt:lcidtoname_downlevel.obj
 0002:00004d88       ??_C@_1M@MKKGFKLE@?$AAa?$AAr?$AA?9?$AAJ?$AAO@ 10023d88     libucrt:lcidtoname_downlevel.obj
 0002:00004d94       ??_C@_1M@EKPGLDNI@?$AAe?$AAn?$AA?9?$AAT?$AAT@ 10023d94     libucrt:lcidtoname_downlevel.obj
 0002:00004da0       ??_C@_1M@OONGHFHE@?$AAe?$AAs?$AA?9?$AAA?$AAR@ 10023da0     libucrt:lcidtoname_downlevel.obj
 0002:00004dac       ??_C@_1M@OOJFGBHE@?$AAa?$AAr?$AA?9?$AAL?$AAB@ 10023dac     libucrt:lcidtoname_downlevel.obj
 0002:00004db8       ??_C@_1M@GCEJHNEG@?$AAe?$AAn?$AA?9?$AAZ?$AAW@ 10023db8     libucrt:lcidtoname_downlevel.obj
 0002:00004dc4       ??_C@_1M@JNOCAHJI@?$AAe?$AAs?$AA?9?$AAE?$AAC@ 10023dc4     libucrt:lcidtoname_downlevel.obj
 0002:00004dd0       ??_C@_1M@JEFHPGGB@?$AAa?$AAr?$AA?9?$AAK?$AAW@ 10023dd0     libucrt:lcidtoname_downlevel.obj
 0002:00004ddc       ??_C@_1M@MLKIBJOJ@?$AAe?$AAn?$AA?9?$AAP?$AAH@ 10023ddc     libucrt:lcidtoname_downlevel.obj
 0002:00004de8       ??_C@_1M@BDNIPEND@?$AAe?$AAs?$AA?9?$AAC?$AAL@ 10023de8     libucrt:lcidtoname_downlevel.obj
 0002:00004df4       ??_C@_1M@MPNMEKBD@?$AAa?$AAr?$AA?9?$AAA?$AAE@ 10023df4     libucrt:lcidtoname_downlevel.obj
 0002:00004e00       ??_C@_1M@KBJALCPI@?$AAe?$AAs?$AA?9?$AAU?$AAY@ 10023e00     libucrt:lcidtoname_downlevel.obj
 0002:00004e0c       ??_C@_1M@LLCCOAGA@?$AAa?$AAr?$AA?9?$AAB?$AAH@ 10023e0c     libucrt:lcidtoname_downlevel.obj
 0002:00004e18       ??_C@_1M@PBFNCDEL@?$AAe?$AAs?$AA?9?$AAP?$AAY@ 10023e18     libucrt:lcidtoname_downlevel.obj
 0002:00004e24       ??_C@_1M@EDGINPNP@?$AAa?$AAr?$AA?9?$AAQ?$AAA@ 10023e24     libucrt:lcidtoname_downlevel.obj
 0002:00004e30       ??_C@_1M@MKDBIIJI@?$AAe?$AAs?$AA?9?$AAB?$AAO@ 10023e30     libucrt:lcidtoname_downlevel.obj
 0002:00004e3c       ??_C@_1M@CPKKEBLD@?$AAe?$AAs?$AA?9?$AAS?$AAV@ 10023e3c     libucrt:lcidtoname_downlevel.obj
 0002:00004e48       ??_C@_1M@NDBGMMJL@?$AAe?$AAs?$AA?9?$AAH?$AAN@ 10023e48     libucrt:lcidtoname_downlevel.obj
 0002:00004e54       ??_C@_1M@JIJIBHDP@?$AAe?$AAs?$AA?9?$AAN?$AAI@ 10023e54     libucrt:lcidtoname_downlevel.obj
 0002:00004e60       ??_C@_1M@CGFMKEEK@?$AAe?$AAs?$AA?9?$AAP?$AAR@ 10023e60     libucrt:lcidtoname_downlevel.obj
 0002:00004e6c       ??_C@_1O@ICJHKIIK@?$AAz?$AAh?$AA?9?$AAC?$AAH?$AAT@ 10023e6c     libucrt:lcidtoname_downlevel.obj
 0002:00004e7c       ??_C@_15CLNEJCE@?$AAs?$AAr@ 10023e7c     libucrt:lcidtoname_downlevel.obj
 0002:000055a8       ??_C@_1M@KAHEKEIG@?$AAa?$AAf?$AA?9?$AAz?$AAa@ 100245a8     libucrt:lcidtoname_downlevel.obj
 0002:000055b4       ??_C@_1M@GIECOABL@?$AAa?$AAr?$AA?9?$AAa?$AAe@ 100245b4     libucrt:lcidtoname_downlevel.obj
 0002:000055c0       ??_C@_1M@BMLMEKGI@?$AAa?$AAr?$AA?9?$AAb?$AAh@ 100245c0     libucrt:lcidtoname_downlevel.obj
 0002:000055cc       ??_C@_1M@DAPFDGGB@?$AAa?$AAr?$AA?9?$AAd?$AAz@ 100245cc     libucrt:lcidtoname_downlevel.obj
 0002:000055d8       ??_C@_1M@FJNKGKIG@?$AAa?$AAr?$AA?9?$AAe?$AAg@ 100245d8     libucrt:lcidtoname_downlevel.obj
 0002:000055e4       ??_C@_1M@FLGKKCLO@?$AAa?$AAr?$AA?9?$AAi?$AAq@ 100245e4     libucrt:lcidtoname_downlevel.obj
 0002:000055f0       ??_C@_1M@GNDIPALM@?$AAa?$AAr?$AA?9?$AAj?$AAo@ 100245f0     libucrt:lcidtoname_downlevel.obj
 0002:000055fc       ??_C@_1M@DDMJFMGJ@?$AAa?$AAr?$AA?9?$AAk?$AAw@ 100245fc     libucrt:lcidtoname_downlevel.obj
 0002:00005608       ??_C@_1M@EJALMLHM@?$AAa?$AAr?$AA?9?$AAl?$AAb@ 10024608     libucrt:lcidtoname_downlevel.obj
 0002:00005614       ??_C@_1M@MOBDBLOC@?$AAa?$AAr?$AA?9?$AAl?$AAy@ 10024614     libucrt:lcidtoname_downlevel.obj
 0002:00005620       ??_C@_1M@JAOCLHDH@?$AAa?$AAr?$AA?9?$AAm?$AAa@ 10024620     libucrt:lcidtoname_downlevel.obj
 0002:0000562c       ??_C@_1M@JHPMKJIE@?$AAa?$AAr?$AA?9?$AAo?$AAm@ 1002462c     libucrt:lcidtoname_downlevel.obj
 0002:00005638       ??_C@_1M@OEPGHFNH@?$AAa?$AAr?$AA?9?$AAq?$AAa@ 10024638     libucrt:lcidtoname_downlevel.obj
 0002:00005644       ??_C@_1M@KJDONENM@?$AAa?$AAr?$AA?9?$AAs?$AAa@ 10024644     libucrt:lcidtoname_downlevel.obj
 0002:00005650       ??_C@_1M@DMJDKLKM@?$AAa?$AAr?$AA?9?$AAs?$AAy@ 10024650     libucrt:lcidtoname_downlevel.obj
 0002:0000565c       ??_C@_1M@OMFIPEDC@?$AAa?$AAr?$AA?9?$AAt?$AAn@ 1002465c     libucrt:lcidtoname_downlevel.obj
 0002:00005668       ??_C@_1M@IHMHGAON@?$AAa?$AAr?$AA?9?$AAy?$AAe@ 10024668     libucrt:lcidtoname_downlevel.obj
 0002:00005674       ??_C@_1BG@KDCPGJGB@?$AAa?$AAz?$AA?9?$AAa?$AAz?$AA?9?$AAc?$AAy?$AAr?$AAl@ 10024674     libucrt:lcidtoname_downlevel.obj
 0002:0000568c       ??_C@_1BG@IBCKDDOE@?$AAa?$AAz?$AA?9?$AAa?$AAz?$AA?9?$AAl?$AAa?$AAt?$AAn@ 1002468c     libucrt:lcidtoname_downlevel.obj
 0002:000056a4       ??_C@_1M@EGPFDCPD@?$AAb?$AAe?$AA?9?$AAb?$AAy@ 100246a4     libucrt:lcidtoname_downlevel.obj
 0002:000056b0       ??_C@_1M@PCMGMCGC@?$AAb?$AAg?$AA?9?$AAb?$AAg@ 100246b0     libucrt:lcidtoname_downlevel.obj
 0002:000056bc       ??_C@_1M@BJBMFGOB@?$AAb?$AAn?$AA?9?$AAi?$AAn@ 100246bc     libucrt:lcidtoname_downlevel.obj
 0002:000056c8       ??_C@_1BG@EAKMMACD@?$AAb?$AAs?$AA?9?$AAb?$AAa?$AA?9?$AAl?$AAa?$AAt?$AAn@ 100246c8     libucrt:lcidtoname_downlevel.obj
 0002:000056e0       ??_C@_1M@KGADAODK@?$AAc?$AAa?$AA?9?$AAe?$AAs@ 100246e0     libucrt:lcidtoname_downlevel.obj
 0002:000056ec       ??_C@_1M@COAJPDHI@?$AAc?$AAs?$AA?9?$AAc?$AAz@ 100246ec     libucrt:lcidtoname_downlevel.obj
 0002:000056f8       ??_C@_1M@DHBHFONH@?$AAc?$AAy?$AA?9?$AAg?$AAb@ 100246f8     libucrt:lcidtoname_downlevel.obj
 0002:00005704       ??_C@_1M@IMGKELGA@?$AAd?$AAa?$AA?9?$AAd?$AAk@ 10024704     libucrt:lcidtoname_downlevel.obj
 0002:00005710       ??_C@_1M@NNDGDNGA@?$AAd?$AAe?$AA?9?$AAa?$AAt@ 10024710     libucrt:lcidtoname_downlevel.obj
 0002:0000571c       ??_C@_1M@IKDBHEEM@?$AAd?$AAe?$AA?9?$AAc?$AAh@ 1002471c     libucrt:lcidtoname_downlevel.obj
 0002:00005728       ??_C@_1M@GFFOJMCJ@?$AAd?$AAe?$AA?9?$AAd?$AAe@ 10024728     libucrt:lcidtoname_downlevel.obj
 0002:00005734       ??_C@_1M@MDNLKBPM@?$AAd?$AAe?$AA?9?$AAl?$AAi@ 10024734     libucrt:lcidtoname_downlevel.obj
 0002:00005740       ??_C@_1M@NJBEEJNL@?$AAd?$AAe?$AA?9?$AAl?$AAu@ 10024740     libucrt:lcidtoname_downlevel.obj
 0002:0000574c       ??_C@_1O@GNNELBAP@?$AAd?$AAi?$AAv?$AA?9?$AAm?$AAv@ 1002474c     libucrt:lcidtoname_downlevel.obj
 0002:0000575c       ??_C@_1M@EJLEOGAE@?$AAe?$AAl?$AA?9?$AAg?$AAr@ 1002475c     libucrt:lcidtoname_downlevel.obj
 0002:00005768       ??_C@_1M@GMPONJN@?$AAe?$AAn?$AA?9?$AAa?$AAu@ 10024768     libucrt:lcidtoname_downlevel.obj
 0002:00005774       ??_C@_1M@NIDIIPGF@?$AAe?$AAn?$AA?9?$AAb?$AAz@ 10024774     libucrt:lcidtoname_downlevel.obj
 0002:00005780       ??_C@_1M@JEHMIMFO@?$AAe?$AAn?$AA?9?$AAc?$AAa@ 10024780     libucrt:lcidtoname_downlevel.obj
 0002:0000578c       ??_C@_1M@IGMJCDLA@?$AAe?$AAn?$AA?9?$AAc?$AAb@ 1002478c     libucrt:lcidtoname_downlevel.obj
 0002:00005798       ??_C@_1M@BNFIGBKG@?$AAe?$AAn?$AA?9?$AAg?$AAb@ 10024798     libucrt:lcidtoname_downlevel.obj
 0002:000057a4       ??_C@_1M@LKIFDIGP@?$AAe?$AAn?$AA?9?$AAi?$AAe@ 100247a4     libucrt:lcidtoname_downlevel.obj
 0002:000057b0       ??_C@_1M@PJKFGCCO@?$AAe?$AAn?$AA?9?$AAj?$AAm@ 100247b0     libucrt:lcidtoname_downlevel.obj
 0002:000057bc       ??_C@_1M@KPPKEPBO@?$AAe?$AAn?$AA?9?$AAn?$AAz@ 100247bc     libucrt:lcidtoname_downlevel.obj
 0002:000057c8       ??_C@_1M@GMDGLDOB@?$AAe?$AAn?$AA?9?$AAp?$AAh@ 100247c8     libucrt:lcidtoname_downlevel.obj
 0002:000057d4       ??_C@_1M@ONGIBJNA@?$AAe?$AAn?$AA?9?$AAt?$AAt@ 100247d4     libucrt:lcidtoname_downlevel.obj
 0002:000057e0       ??_C@_1M@LLODPCMM@?$AAe?$AAn?$AA?9?$AAu?$AAs@ 100247e0     libucrt:lcidtoname_downlevel.obj
 0002:000057ec       ??_C@_1M@LAKFNPAN@?$AAe?$AAn?$AA?9?$AAz?$AAa@ 100247ec     libucrt:lcidtoname_downlevel.obj
 0002:000057f8       ??_C@_1M@MFNHNHEO@?$AAe?$AAn?$AA?9?$AAz?$AAw@ 100247f8     libucrt:lcidtoname_downlevel.obj
 0002:00005804       ??_C@_1M@EJEINPHM@?$AAe?$AAs?$AA?9?$AAa?$AAr@ 10024804     libucrt:lcidtoname_downlevel.obj
 0002:00005810       ??_C@_1M@GNKPCCJA@?$AAe?$AAs?$AA?9?$AAb?$AAo@ 10024810     libucrt:lcidtoname_downlevel.obj
 0002:0000581c       ??_C@_1M@LEEGFONL@?$AAe?$AAs?$AA?9?$AAc?$AAl@ 1002481c     libucrt:lcidtoname_downlevel.obj
 0002:00005828       ??_C@_1M@KGPDPBDF@?$AAe?$AAs?$AA?9?$AAc?$AAo@ 10024828     libucrt:lcidtoname_downlevel.obj
 0002:00005834       ??_C@_1M@EIAHOHH@?$AAe?$AAs?$AA?9?$AAc?$AAr@ 10024834     libucrt:lcidtoname_downlevel.obj
 0002:00005840       ??_C@_1M@LLPGMBIN@?$AAe?$AAs?$AA?9?$AAd?$AAo@ 10024840     libucrt:lcidtoname_downlevel.obj
 0002:0000584c       ??_C@_1M@DKHMKNJA@?$AAe?$AAs?$AA?9?$AAe?$AAc@ 1002484c     libucrt:lcidtoname_downlevel.obj
 0002:00005858       ??_C@_1M@GKGFPKAP@?$AAe?$AAs?$AA?9?$AAe?$AAs@ 10024858     libucrt:lcidtoname_downlevel.obj
 0002:00005864       ??_C@_1M@LKHKGDLN@?$AAe?$AAs?$AA?9?$AAg?$AAt@ 10024864     libucrt:lcidtoname_downlevel.obj
 0002:00005870       ??_C@_1M@HEIIGGJD@?$AAe?$AAs?$AA?9?$AAh?$AAn@ 10024870     libucrt:lcidtoname_downlevel.obj
 0002:0000587c       ??_C@_1M@FBDHPPGD@?$AAe?$AAs?$AA?9?$AAm?$AAx@ 1002487c     libucrt:lcidtoname_downlevel.obj
 0002:00005888       ??_C@_1M@DPAGLNDH@?$AAe?$AAs?$AA?9?$AAn?$AAi@ 10024888     libucrt:lcidtoname_downlevel.obj
 0002:00005894       ??_C@_1M@MDGOPGDD@?$AAe?$AAs?$AA?9?$AAp?$AAa@ 10024894     libucrt:lcidtoname_downlevel.obj
 0002:000058a0       ??_C@_1M@EMAMGBGE@?$AAe?$AAs?$AA?9?$AAp?$AAe@ 100248a0     libucrt:lcidtoname_downlevel.obj
 0002:000058ac       ??_C@_1M@IBMCAOEC@?$AAe?$AAs?$AA?9?$AAp?$AAr@ 100248ac     libucrt:lcidtoname_downlevel.obj
 0002:000058b8       ??_C@_1M@FGMDIJED@?$AAe?$AAs?$AA?9?$AAp?$AAy@ 100248b8     libucrt:lcidtoname_downlevel.obj
 0002:000058c4       ??_C@_1M@IIDEOLLL@?$AAe?$AAs?$AA?9?$AAs?$AAv@ 100248c4     libucrt:lcidtoname_downlevel.obj
 0002:000058d0       ??_C@_1M@GAOBIPA@?$AAe?$AAs?$AA?9?$AAu?$AAy@ 100248d0     libucrt:lcidtoname_downlevel.obj
 0002:000058dc       ??_C@_1M@JKFFICHJ@?$AAe?$AAs?$AA?9?$AAv?$AAe@ 100248dc     libucrt:lcidtoname_downlevel.obj
 0002:000058e8       ??_C@_1M@PNMLOJDF@?$AAe?$AAt?$AA?9?$AAe?$AAe@ 100248e8     libucrt:lcidtoname_downlevel.obj
 0002:000058f4       ??_C@_1M@GHHLIKEI@?$AAe?$AAu?$AA?9?$AAe?$AAs@ 100248f4     libucrt:lcidtoname_downlevel.obj
 0002:00005900       ??_C@_1M@PBNONODE@?$AAf?$AAa?$AA?9?$AAi?$AAr@ 10024900     libucrt:lcidtoname_downlevel.obj
 0002:0000590c       ??_C@_1M@JEEHPMIL@?$AAf?$AAi?$AA?9?$AAf?$AAi@ 1002490c     libucrt:lcidtoname_downlevel.obj
 0002:00005918       ??_C@_1M@LMDCNDBA@?$AAf?$AAo?$AA?9?$AAf?$AAo@ 10024918     libucrt:lcidtoname_downlevel.obj
 0002:00005924       ??_C@_1M@JKEOHLDK@?$AAf?$AAr?$AA?9?$AAb?$AAe@ 10024924     libucrt:lcidtoname_downlevel.obj
 0002:00005930       ??_C@_1M@NOHADPMI@?$AAf?$AAr?$AA?9?$AAc?$AAa@ 10024930     libucrt:lcidtoname_downlevel.obj
 0002:0000593c       ??_C@_1M@KDHIHAEC@?$AAf?$AAr?$AA?9?$AAc?$AAh@ 1002493c     libucrt:lcidtoname_downlevel.obj
 0002:00005948       ??_C@_1M@MMBBFGAK@?$AAf?$AAr?$AA?9?$AAf?$AAr@ 10024948     libucrt:lcidtoname_downlevel.obj
 0002:00005954       ??_C@_1M@PAFNENNF@?$AAf?$AAr?$AA?9?$AAl?$AAu@ 10024954     libucrt:lcidtoname_downlevel.obj
 0002:00005960       ??_C@_1M@EOHDJGDD@?$AAf?$AAr?$AA?9?$AAm?$AAc@ 10024960     libucrt:lcidtoname_downlevel.obj
 0002:0000596c       ??_C@_1M@FAPLLOPF@?$AAg?$AAl?$AA?9?$AAe?$AAs@ 1002496c     libucrt:lcidtoname_downlevel.obj
 0002:00005978       ??_C@_1M@FOPBFLOO@?$AAg?$AAu?$AA?9?$AAi?$AAn@ 10024978     libucrt:lcidtoname_downlevel.obj
 0002:00005984       ??_C@_1M@KBMCINPM@?$AAh?$AAe?$AA?9?$AAi?$AAl@ 10024984     libucrt:lcidtoname_downlevel.obj
 0002:00005990       ??_C@_1M@BBPHKFPJ@?$AAh?$AAi?$AA?9?$AAi?$AAn@ 10024990     libucrt:lcidtoname_downlevel.obj
 0002:0000599c       ??_C@_1M@PMBNDPHD@?$AAh?$AAr?$AA?9?$AAb?$AAa@ 1002499c     libucrt:lcidtoname_downlevel.obj
 0002:000059a8       ??_C@_1M@BPCKOEGE@?$AAh?$AAr?$AA?9?$AAh?$AAr@ 100249a8     libucrt:lcidtoname_downlevel.obj
 0002:000059b4       ??_C@_1M@GACBMHKE@?$AAh?$AAu?$AA?9?$AAh?$AAu@ 100249b4     libucrt:lcidtoname_downlevel.obj
 0002:000059c0       ??_C@_1M@MILPAJJC@?$AAh?$AAy?$AA?9?$AAa?$AAm@ 100249c0     libucrt:lcidtoname_downlevel.obj
 0002:000059cc       ??_C@_1M@BABBICEC@?$AAi?$AAd?$AA?9?$AAi?$AAd@ 100249cc     libucrt:lcidtoname_downlevel.obj
 0002:000059d8       ??_C@_1M@BIKNHHPF@?$AAi?$AAs?$AA?9?$AAi?$AAs@ 100249d8     libucrt:lcidtoname_downlevel.obj
 0002:000059e4       ??_C@_1M@NMPCJPHE@?$AAi?$AAt?$AA?9?$AAc?$AAh@ 100249e4     libucrt:lcidtoname_downlevel.obj
 0002:000059f0       ??_C@_1M@GHKGFEDF@?$AAi?$AAt?$AA?9?$AAi?$AAt@ 100249f0     libucrt:lcidtoname_downlevel.obj
 0002:000059fc       ??_C@_1M@NIEJCJJA@?$AAj?$AAa?$AA?9?$AAj?$AAp@ 100249fc     libucrt:lcidtoname_downlevel.obj
 0002:00005a08       ??_C@_1M@JILFNBIM@?$AAk?$AAa?$AA?9?$AAg?$AAe@ 10024a08     libucrt:lcidtoname_downlevel.obj
 0002:00005a14       ??_C@_1M@PACPMGPH@?$AAk?$AAk?$AA?9?$AAk?$AAz@ 10024a14     libucrt:lcidtoname_downlevel.obj
 0002:00005a20       ??_C@_1M@IELFGMHA@?$AAk?$AAn?$AA?9?$AAi?$AAn@ 10024a20     libucrt:lcidtoname_downlevel.obj
 0002:00005a2c       ??_C@_1O@IBBJHCH@?$AAk?$AAo?$AAk?$AA?9?$AAi?$AAn@ 10024a2c     libucrt:lcidtoname_downlevel.obj
 0002:00005a3c       ??_C@_1M@DMHAEOGC@?$AAk?$AAo?$AA?9?$AAk?$AAr@ 10024a3c     libucrt:lcidtoname_downlevel.obj
 0002:00005a48       ??_C@_1M@HBAHBIGA@?$AAk?$AAy?$AA?9?$AAk?$AAg@ 10024a48     libucrt:lcidtoname_downlevel.obj
 0002:00005a54       ??_C@_1M@KPMILCJG@?$AAl?$AAt?$AA?9?$AAl?$AAt@ 10024a54     libucrt:lcidtoname_downlevel.obj
 0002:00005a60       ??_C@_1M@BDEKKCA@?$AAl?$AAv?$AA?9?$AAl?$AAv@ 10024a60     libucrt:lcidtoname_downlevel.obj
 0002:00005a6c       ??_C@_1M@ELCKCCJJ@?$AAm?$AAi?$AA?9?$AAn?$AAz@ 10024a6c     libucrt:lcidtoname_downlevel.obj
 0002:00005a78       ??_C@_1M@CBOOLAPA@?$AAm?$AAk?$AA?9?$AAm?$AAk@ 10024a78     libucrt:lcidtoname_downlevel.obj
 0002:00005a84       ??_C@_1M@GPHNBJKN@?$AAm?$AAl?$AA?9?$AAi?$AAn@ 10024a84     libucrt:lcidtoname_downlevel.obj
 0002:00005a90       ??_C@_1M@PABJILIG@?$AAm?$AAn?$AA?9?$AAm?$AAn@ 10024a90     libucrt:lcidtoname_downlevel.obj
 0002:00005a9c       ??_C@_1M@FGBKKIPG@?$AAm?$AAr?$AA?9?$AAi?$AAn@ 10024a9c     libucrt:lcidtoname_downlevel.obj
 0002:00005aa8       ??_C@_1M@NDBPDDAL@?$AAm?$AAs?$AA?9?$AAb?$AAn@ 10024aa8     libucrt:lcidtoname_downlevel.obj
 0002:00005ab4       ??_C@_1M@OPIHOOPI@?$AAm?$AAs?$AA?9?$AAm?$AAy@ 10024ab4     libucrt:lcidtoname_downlevel.obj
 0002:00005ac0       ??_C@_1M@PPDBCNFM@?$AAm?$AAt?$AA?9?$AAm?$AAt@ 10024ac0     libucrt:lcidtoname_downlevel.obj
 0002:00005acc       ??_C@_1M@KDJDKMDD@?$AAn?$AAb?$AA?9?$AAn?$AAo@ 10024acc     libucrt:lcidtoname_downlevel.obj
 0002:00005ad8       ??_C@_1M@KFCFLMJP@?$AAn?$AAl?$AA?9?$AAb?$AAe@ 10024ad8     libucrt:lcidtoname_downlevel.obj
 0002:00005ae4       ??_C@_1M@KPOPDDGO@?$AAn?$AAl?$AA?9?$AAn?$AAl@ 10024ae4     libucrt:lcidtoname_downlevel.obj
 0002:00005af0       ??_C@_1M@LJKPEMLN@?$AAn?$AAn?$AA?9?$AAn?$AAo@ 10024af0     libucrt:lcidtoname_downlevel.obj
 0002:00005afc       ??_C@_1M@BDGHHBFL@?$AAn?$AAs?$AA?9?$AAz?$AAa@ 10024afc     libucrt:lcidtoname_downlevel.obj
 0002:00005b08       ??_C@_1M@IDEHOAP@?$AAp?$AAa?$AA?9?$AAi?$AAn@ 10024b08     libucrt:lcidtoname_downlevel.obj
 0002:00005b14       ??_C@_1M@HDBKGOGH@?$AAp?$AAl?$AA?9?$AAp?$AAl@ 10024b14     libucrt:lcidtoname_downlevel.obj
 0002:00005b20       ??_C@_1M@LJLLCMEH@?$AAp?$AAt?$AA?9?$AAb?$AAr@ 10024b20     libucrt:lcidtoname_downlevel.obj
 0002:00005b2c       ??_C@_1M@NCMONAAL@?$AAp?$AAt?$AA?9?$AAp?$AAt@ 10024b2c     libucrt:lcidtoname_downlevel.obj
 0002:00005b38       ??_C@_1O@EAKMAJDN@?$AAq?$AAu?$AAz?$AA?9?$AAb?$AAo@ 10024b38     libucrt:lcidtoname_downlevel.obj
 0002:00005b48       ??_C@_1O@BHHPIGDN@?$AAq?$AAu?$AAz?$AA?9?$AAe?$AAc@ 10024b48     libucrt:lcidtoname_downlevel.obj
 0002:00005b58       ??_C@_1O@GBAPEKMJ@?$AAq?$AAu?$AAz?$AA?9?$AAp?$AAe@ 10024b58     libucrt:lcidtoname_downlevel.obj
 0002:00005b68       ??_C@_1M@CLGLEFBO@?$AAr?$AAo?$AA?9?$AAr?$AAo@ 10024b68     libucrt:lcidtoname_downlevel.obj
 0002:00005b74       ??_C@_1M@CEEDODME@?$AAr?$AAu?$AA?9?$AAr?$AAu@ 10024b74     libucrt:lcidtoname_downlevel.obj
 0002:00005b80       ??_C@_1M@HPKKKMPP@?$AAs?$AAa?$AA?9?$AAi?$AAn@ 10024b80     libucrt:lcidtoname_downlevel.obj
 0002:00005b8c       ??_C@_1M@BKMAIGOJ@?$AAs?$AAe?$AA?9?$AAf?$AAi@ 10024b8c     libucrt:lcidtoname_downlevel.obj
 0002:00005b98       ??_C@_1M@NDPIFLFI@?$AAs?$AAe?$AA?9?$AAn?$AAo@ 10024b98     libucrt:lcidtoname_downlevel.obj
 0002:00005ba4       ??_C@_1M@DANKKHJ@?$AAs?$AAe?$AA?9?$AAs?$AAe@ 10024ba4     libucrt:lcidtoname_downlevel.obj
 0002:00005bb0       ??_C@_1M@PNBLONPJ@?$AAs?$AAk?$AA?9?$AAs?$AAk@ 10024bb0     libucrt:lcidtoname_downlevel.obj
 0002:00005bbc       ??_C@_1M@LFMODOAL@?$AAs?$AAl?$AA?9?$AAs?$AAi@ 10024bbc     libucrt:lcidtoname_downlevel.obj
 0002:00005bc8       ??_C@_1O@DFKOMPG@?$AAs?$AAm?$AAa?$AA?9?$AAn?$AAo@ 10024bc8     libucrt:lcidtoname_downlevel.obj
 0002:00005bd8       ??_C@_1O@NDKPBNNH@?$AAs?$AAm?$AAa?$AA?9?$AAs?$AAe@ 10024bd8     libucrt:lcidtoname_downlevel.obj
 0002:00005be8       ??_C@_1O@PLLKBHAB@?$AAs?$AAm?$AAj?$AA?9?$AAn?$AAo@ 10024be8     libucrt:lcidtoname_downlevel.obj
 0002:00005bf8       ??_C@_1O@CLEPOGCA@?$AAs?$AAm?$AAj?$AA?9?$AAs?$AAe@ 10024bf8     libucrt:lcidtoname_downlevel.obj
 0002:00005c08       ??_C@_1O@DLGJGKMK@?$AAs?$AAm?$AAn?$AA?9?$AAf?$AAi@ 10024c08     libucrt:lcidtoname_downlevel.obj
 0002:00005c18       ??_C@_1O@OJDJGAJC@?$AAs?$AAm?$AAs?$AA?9?$AAf?$AAi@ 10024c18     libucrt:lcidtoname_downlevel.obj
 0002:00005c28       ??_C@_1M@BOFOGHPB@?$AAs?$AAq?$AA?9?$AAa?$AAl@ 10024c28     libucrt:lcidtoname_downlevel.obj
 0002:00005c34       ??_C@_1BG@LJBBIPGB@?$AAs?$AAr?$AA?9?$AAb?$AAa?$AA?9?$AAc?$AAy?$AAr?$AAl@ 10024c34     libucrt:lcidtoname_downlevel.obj
 0002:00005c4c       ??_C@_1BG@JLBENFOE@?$AAs?$AAr?$AA?9?$AAb?$AAa?$AA?9?$AAl?$AAa?$AAt?$AAn@ 10024c4c     libucrt:lcidtoname_downlevel.obj
 0002:00005c64       ??_C@_1BG@KODPNHE@?$AAs?$AAr?$AA?9?$AAs?$AAp?$AA?9?$AAc?$AAy?$AAr?$AAl@ 10024c64     libucrt:lcidtoname_downlevel.obj
 0002:00005c7c       ??_C@_1BG@CIOGKHPB@?$AAs?$AAr?$AA?9?$AAs?$AAp?$AA?9?$AAl?$AAa?$AAt?$AAn@ 10024c7c     libucrt:lcidtoname_downlevel.obj
 0002:00005c94       ??_C@_1M@NGFJLMAC@?$AAs?$AAv?$AA?9?$AAf?$AAi@ 10024c94     libucrt:lcidtoname_downlevel.obj
 0002:00005ca0       ??_C@_1M@MPJEJAJC@?$AAs?$AAv?$AA?9?$AAs?$AAe@ 10024ca0     libucrt:lcidtoname_downlevel.obj
 0002:00005cac       ??_C@_1M@MPNDHLFK@?$AAs?$AAw?$AA?9?$AAk?$AAe@ 10024cac     libucrt:lcidtoname_downlevel.obj
 0002:00005cb8       ??_C@_1O@KOHBJJI@?$AAs?$AAy?$AAr?$AA?9?$AAs?$AAy@ 10024cb8     libucrt:lcidtoname_downlevel.obj
 0002:00005cc8       ??_C@_1M@LDCEFHA@?$AAt?$AAa?$AA?9?$AAi?$AAn@ 10024cc8     libucrt:lcidtoname_downlevel.obj
 0002:00005cd4       ??_C@_1M@CNJOFAK@?$AAt?$AAe?$AA?9?$AAi?$AAn@ 10024cd4     libucrt:lcidtoname_downlevel.obj
 0002:00005ce0       ??_C@_1M@GNAECACD@?$AAt?$AAh?$AA?9?$AAt?$AAh@ 10024ce0     libucrt:lcidtoname_downlevel.obj
 0002:00005cec       ??_C@_1M@CHBIHOJO@?$AAt?$AAn?$AA?9?$AAz?$AAa@ 10024cec     libucrt:lcidtoname_downlevel.obj
 0002:00005cf8       ??_C@_1M@GCCMIGPJ@?$AAt?$AAr?$AA?9?$AAt?$AAr@ 10024cf8     libucrt:lcidtoname_downlevel.obj
 0002:00005d04       ??_C@_1M@CELMCNBK@?$AAt?$AAt?$AA?9?$AAr?$AAu@ 10024d04     libucrt:lcidtoname_downlevel.obj
 0002:00005d10       ??_C@_1M@KLMCELGA@?$AAu?$AAk?$AA?9?$AAu?$AAa@ 10024d10     libucrt:lcidtoname_downlevel.obj
 0002:00005d1c       ??_C@_1M@EPAJJAJF@?$AAu?$AAr?$AA?9?$AAp?$AAk@ 10024d1c     libucrt:lcidtoname_downlevel.obj
 0002:00005d28       ??_C@_1BG@GEGPMCDJ@?$AAu?$AAz?$AA?9?$AAu?$AAz?$AA?9?$AAc?$AAy?$AAr?$AAl@ 10024d28     libucrt:lcidtoname_downlevel.obj
 0002:00005d40       ??_C@_1BG@EGGKJILM@?$AAu?$AAz?$AA?9?$AAu?$AAz?$AA?9?$AAl?$AAa?$AAt?$AAn@ 10024d40     libucrt:lcidtoname_downlevel.obj
 0002:00005d58       ??_C@_1M@GFOCLFF@?$AAv?$AAi?$AA?9?$AAv?$AAn@ 10024d58     libucrt:lcidtoname_downlevel.obj
 0002:00005d64       ??_C@_1M@CPAMEDFI@?$AAx?$AAh?$AA?9?$AAz?$AAa@ 10024d64     libucrt:lcidtoname_downlevel.obj
 0002:00005d70       ??_C@_1O@EBKIFIGN@?$AAz?$AAh?$AA?9?$AAc?$AAh?$AAs@ 10024d70     libucrt:lcidtoname_downlevel.obj
 0002:00005d80       ??_C@_1O@NMHPGANE@?$AAz?$AAh?$AA?9?$AAc?$AAh?$AAt@ 10024d80     libucrt:lcidtoname_downlevel.obj
 0002:00005d90       ??_C@_1M@LPINJOMC@?$AAz?$AAh?$AA?9?$AAc?$AAn@ 10024d90     libucrt:lcidtoname_downlevel.obj
 0002:00005d9c       ??_C@_1M@OCJEJODD@?$AAz?$AAh?$AA?9?$AAh?$AAk@ 10024d9c     libucrt:lcidtoname_downlevel.obj
 0002:00005da8       ??_C@_1M@DNDLJINH@?$AAz?$AAh?$AA?9?$AAm?$AAo@ 10024da8     libucrt:lcidtoname_downlevel.obj
 0002:00005db4       ??_C@_1M@MBFDNDND@?$AAz?$AAh?$AA?9?$AAs?$AAg@ 10024db4     libucrt:lcidtoname_downlevel.obj
 0002:00005dc0       ??_C@_1M@IMEPLEPE@?$AAz?$AAh?$AA?9?$AAt?$AAw@ 10024dc0     libucrt:lcidtoname_downlevel.obj
 0002:00005dcc       ??_C@_1M@BBGHNHJP@?$AAz?$AAu?$AA?9?$AAz?$AAa@ 10024dcc     libucrt:lcidtoname_downlevel.obj
 0002:00005dd8       ?large_power_data@?1??multiply_by_power_of_ten@__crt_strtox@@YA_NAAUbig_integer@2@I@Z@4QBIB 10024dd8     libucrt:cfout.obj
 0002:000066e0       ?large_power_indices@?1??multiply_by_power_of_ten@__crt_strtox@@YA_NAAUbig_integer@2@I@Z@4QBUunpack_index@?1??12@YA_N0I@Z@B 100256e0     libucrt:cfout.obj
 0002:00006778       ?small_powers_of_ten@?1??multiply_by_power_of_ten@__crt_strtox@@YA_NAAUbig_integer@2@I@Z@4QBIB 10025778     libucrt:cfout.obj
 0002:0000679c       ??_C@_01GBGANLPD@0@        1002579c     libucrt:cfout.obj
 0002:000067a0       ??_C@_05DNEBIAHO@1?$CDINF@ 100257a0     libucrt:cfout.obj
 0002:000067a8       ??_C@_06IMKFLFPG@1?$CDQNAN@ 100257a8     libucrt:cfout.obj
 0002:000067b0       ??_C@_06PGGFOGJG@1?$CDSNAN@ 100257b0     libucrt:cfout.obj
 0002:000067b8       ??_C@_05PHHOCPM@1?$CDIND@  100257b8     libucrt:cfout.obj
 0002:00006920       __infinity                 10025920     libucrt:87tran.obj
 0002:0000692a       __minfinity                1002592a     libucrt:87tran.obj
 0002:00006934       __logemax                  10025934     libucrt:87tran.obj
 0002:0000695a       __OP_EXPjmptab             1002595a     libucrt:87tran.obj
 0002:00006980       __indefinite               10025980     libucrt:87disp.obj
 0002:0000698a       __piby2                    1002598a     libucrt:87disp.obj
 0002:00006994       __piby4                    10025994     libucrt:87disp.obj
 0002:000069c8       __DEFAULT_CW_in_mem        100259c8     libucrt:common.obj
 0002:000069ca       __pi_by_2_to_61            100259ca     libucrt:common.obj
 0002:00006a04       ??_C@_03MGHMBJCF@log@      10025a04     libucrt:libm_error.obj
 0002:00006a08       ??_C@_05HGHHAHAP@log10@    10025a08     libucrt:libm_error.obj
 0002:00006a10       ??_C@_03KHJOGHMM@exp@      10025a10     libucrt:libm_error.obj
 0002:00006a14       ??_C@_03JGHBODFD@pow@      10025a14     libucrt:libm_error.obj
 0002:00006a18       ??_C@_04FIHNOPOL@asin@     10025a18     libucrt:libm_error.obj
 0002:00006a20       ??_C@_04PDIFKINK@acos@     10025a20     libucrt:libm_error.obj
 0002:00006a28       ??_C@_04EIAKFFMI@sqrt@     10025a28     libucrt:libm_error.obj
 0002:00006a30       __real@3ff0000000000000    10025a30     libucrt:libm_error.obj
 0002:00006a38       ??_C@_1BA@BALFACEM@?$AAC?$AAO?$AAN?$AAO?$AAU?$AAT?$AA$@ 10025a38     libucrt:initcon.obj
 0002:00006a60       ___acrt_log10_table_t      10025a60     libucrt:log10_tables.obj
 0002:00006e70       ___acrt_log10_table_cb     10025e70     libucrt:log10_tables.obj
 0002:00007280       __real@3fe0000000000000    10026280     libucrt:powhlp.obj
 0002:00007370       ??_C@_04COOMCNPB@sinh@     10026370     libucrt:fpexcept.obj
 0002:00007378       ??_C@_04HPJJNFIM@cosh@     10026378     libucrt:fpexcept.obj
 0002:00007380       ??_C@_04FJHINJAO@tanh@     10026380     libucrt:fpexcept.obj
 0002:00007388       ??_C@_04MLLJIGOK@atan@     10026388     libucrt:fpexcept.obj
 0002:00007390       ??_C@_05KNGEOGJB@atan2@    10026390     libucrt:fpexcept.obj
 0002:00007398       ??_C@_03BLEJJJBH@sin@      10026398     libucrt:fpexcept.obj
 0002:0000739c       ??_C@_03LALBNOCG@cos@      1002639c     libucrt:fpexcept.obj
 0002:000073a0       ??_C@_03IIINPABG@tan@      100263a0     libucrt:fpexcept.obj
 0002:000073a4       ??_C@_04GFPJNGEK@ceil@     100263a4     libucrt:fpexcept.obj
 0002:000073ac       ??_C@_05PBJFFIGL@floor@    100263ac     libucrt:fpexcept.obj
 0002:000073b4       ??_C@_04ODHECPBC@fabs@     100263b4     libucrt:fpexcept.obj
 0002:000073bc       ??_C@_04EHEDPDJG@modf@     100263bc     libucrt:fpexcept.obj
 0002:000073c4       ??_C@_05CEJMAHNP@ldexp@    100263c4     libucrt:fpexcept.obj
 0002:000073cc       ??_C@_05KBKMEMPO@_cabs@    100263cc     libucrt:fpexcept.obj
 0002:000073d4       ??_C@_06MEIMCGCF@_hypot@   100263d4     libucrt:fpexcept.obj
 0002:000073dc       ??_C@_04KEPJIHGP@fmod@     100263dc     libucrt:fpexcept.obj
 0002:000073e4       ??_C@_05GKKHEGJL@frexp@    100263e4     libucrt:fpexcept.obj
 0002:000073ec       ??_C@_03MJLDFKDL@_y0@      100263ec     libucrt:fpexcept.obj
 0002:000073f0       ??_C@_03NAKIGLHK@_y1@      100263f0     libucrt:fpexcept.obj
 0002:000073f4       ??_C@_03ONILCKOB@_yn@      100263f4     libucrt:fpexcept.obj
 0002:000073f8       ??_C@_05JGDBENOH@_logb@    100263f8     libucrt:fpexcept.obj
 0002:00007400       ??_C@_0L@KDOEJCKC@_nextafter@ 10026400     libucrt:fpexcept.obj
 0002:00007410       __d_inf                    10026410     libucrt:util.obj
 0002:00007418       __d_max                    10026418     libucrt:util.obj
 0002:00007420       __d_mzero                  10026420     libucrt:util.obj
 0002:00007490       __load_config_used         10026490     LIBCMT:loadcfg.obj
 0002:00007548       __tls_used                 10026548     LIBCMT:tlssup.obj
 0002:00007560       ??_R4exception@std@@6B@    10026560     LIBCMT:throw_bad_alloc.obj
 0002:00007574       ??_R3exception@std@@8      10026574     LIBCMT:throw_bad_alloc.obj
 0002:00007584       ??_R2exception@std@@8      10026584     LIBCMT:throw_bad_alloc.obj
 0002:0000758c       ??_R1A@?0A@EA@exception@std@@8 1002658c     LIBCMT:throw_bad_alloc.obj
 0002:000075a8       ??_R4bad_alloc@std@@6B@    100265a8     LIBCMT:throw_bad_alloc.obj
 0002:000075bc       ??_R3bad_alloc@std@@8      100265bc     LIBCMT:throw_bad_alloc.obj
 0002:000075cc       ??_R2bad_alloc@std@@8      100265cc     LIBCMT:throw_bad_alloc.obj
 0002:000075d8       ??_R1A@?0A@EA@bad_alloc@std@@8 100265d8     LIBCMT:throw_bad_alloc.obj
 0002:000075f4       ??_R4bad_array_new_length@std@@6B@ 100265f4     LIBCMT:throw_bad_alloc.obj
 0002:00007608       ??_R3bad_array_new_length@std@@8 10026608     LIBCMT:throw_bad_alloc.obj
 0002:00007618       ??_R2bad_array_new_length@std@@8 10026618     LIBCMT:throw_bad_alloc.obj
 0002:00007628       ??_R1A@?0A@EA@bad_array_new_length@std@@8 10026628     LIBCMT:throw_bad_alloc.obj
 0002:00007644       ??_R4type_info@@6B@        10026644     LIBCMT:std_type_info_static.obj
 0002:00007658       ??_R3type_info@@8          10026658     LIBCMT:std_type_info_static.obj
 0002:00007668       ??_R2type_info@@8          10026668     LIBCMT:std_type_info_static.obj
 0002:00007670       ??_R1A@?0A@EA@type_info@@8 10026670     LIBCMT:std_type_info_static.obj
 0002:0000768c       ??_R4bad_exception@std@@6B@ 1002668c     libvcruntime:frame.obj
 0002:000076a0       ??_R3bad_exception@std@@8  100266a0     libvcruntime:frame.obj
 0002:000076b0       ??_R2bad_exception@std@@8  100266b0     libvcruntime:frame.obj
 0002:000076bc       ??_R1A@?0A@EA@bad_exception@std@@8 100266bc     libvcruntime:frame.obj
 0002:000076d8       ___safe_se_handler_table   100266d8     <linker-defined>
 0002:00007ad0       ___rtc_iaa                 10026ad0     LIBCMT:initsect.obj
 0002:00007ad4       ___rtc_izz                 10026ad4     LIBCMT:initsect.obj
 0002:00007ad8       ___rtc_taa                 10026ad8     LIBCMT:initsect.obj
 0002:00007adc       ___rtc_tzz                 10026adc     LIBCMT:initsect.obj
 0002:00007ae0       __tls_start                10026ae0     LIBCMT:tlssup.obj
 0002:00007ae4       __Init_thread_epoch        10026ae4     LIBCMT:thread_safe_statics.obj
 0002:00007ae8       __tls_end                  10026ae8     LIBCMT:tlssup.obj
 0002:00007bec       __TI2?AVbad_alloc@std@@    10026bec     LIBCMT:throw_bad_alloc.obj
 0002:00007bfc       __CTA2?AVbad_alloc@std@@   10026bfc     LIBCMT:throw_bad_alloc.obj
 0002:00007c08       __CT??_R0?AVbad_alloc@std@@@8??0bad_alloc@std@@QAE@ABV01@@Z12 10026c08     LIBCMT:throw_bad_alloc.obj
 0002:00007c24       __CT??_R0?AVexception@std@@@8??0exception@std@@QAE@ABV01@@Z12 10026c24     LIBCMT:throw_bad_alloc.obj
 0002:00007c40       __TI3?AVbad_array_new_length@std@@ 10026c40     LIBCMT:throw_bad_alloc.obj
 0002:00007c50       __CTA3?AVbad_array_new_length@std@@ 10026c50     LIBCMT:throw_bad_alloc.obj
 0002:00007c60       __CT??_R0?AVbad_array_new_length@std@@@8??0bad_array_new_length@std@@QAE@ABV01@@Z12 10026c60     LIBCMT:throw_bad_alloc.obj
 0002:00007d84       __TI2?AVbad_exception@std@@ 10026d84     libvcruntime:frame.obj
 0002:00007d94       __CTA2?AVbad_exception@std@@ 10026d94     libvcruntime:frame.obj
 0002:00007da0       __CT??_R0?AVbad_exception@std@@@8??0bad_exception@std@@QAE@ABV01@@Z12 10026da0     libvcruntime:frame.obj
 0002:0000811c       ___pobjMapEntryFirst       1002711c     OposVariant.obj
 0002:00008120       ___pobjMapEntryLast        10027120     OposVariant.obj
 0002:000081d8       __IMPORT_DESCRIPTOR_KERNEL32 100271d8     kernel32:KERNEL32.dll
 0002:000081ec       __IMPORT_DESCRIPTOR_USER32 100271ec     user32:USER32.dll
 0002:00008200       __IMPORT_DESCRIPTOR_GDI32  10027200     gdi32:GDI32.dll
 0002:00008214       __IMPORT_DESCRIPTOR_ADVAPI32 10027214     advapi32:ADVAPI32.dll
 0002:00008228       __IMPORT_DESCRIPTOR_ole32  10027228     ole32:ole32.dll
 0002:0000823c       __IMPORT_DESCRIPTOR_OLEAUT32 1002723c     oleaut32:OLEAUT32.dll
 0002:00008250       __NULL_IMPORT_DESCRIPTOR   10027250     kernel32:KERNEL32.dll
 0003:00000000       ?s_Claim@?7??GetIDsOfNames@CComTypeInfoHolder@ATL@@QAEJABU_GUID@@PAPA_WIKPAJ@Z@4PA_WA 10029000     Keylock.obj
 0003:00000018       ?s_Release@?7??GetIDsOfNames@CComTypeInfoHolder@ATL@@QAEJABU_GUID@@PAPA_WIKPAJ@Z@4PA_WA 10029018     Keylock.obj
 0003:00000034       ?_tih@?$IDispatchImpl@UIOPOSKeylock@@$1?IID_IOPOSKeylock@@3U_GUID@@B$1?LIBID_OposKeylock_CCO@@3U3@B$00$0A@VCComTypeInfoHolder@ATL@@@ATL@@1VCComTypeInfoHolder@2@A 10029034     Keylock.obj
 0003:00000050       ?_tih@?$IProvideClassInfo2Impl@$1?CLSID_OPOSKeylock@@3U_GUID@@B$1?DIID__IOPOSKeylockEvents@@3U2@B$1?LIBID_OposKeylock_CCO@@3U2@B$00$0A@VCComTypeInfoHolder@ATL@@@ATL@@1VCComTypeInfoHolder@2@A 10029050     Keylock.obj
 0003:0000006c       ?vszContents@?6??Save@?$IPersistStorageImpl@VCOPOSKeylock@@@ATL@@UAGJPAUIStorage@@H@Z@4PB_WB 1002906c     Keylock.obj
 0003:00000070       ?wc@?1??GetWndClassInfo@?$CWindowImpl@VCOPOSKeylock@@VCWindow@ATL@@V?$CWinTraits@$0FGAAAAAA@$0A@@3@@ATL@@SAAAU_ATL_WNDCLASSINFOW@3@XZ@4U43@A 10029070     Keylock.obj
 0003:000000fc       ?rcDefault@CWindow@ATL@@2UtagRECT@@A 100290fc     Keylock.obj
 0003:00000158       ?g_WindowName@@3PA_WA      10029158     KeylockImpl.obj
 0003:00000178       ?g_ControlDescription@@3PADA 10029178     KeylockImpl.obj
 0003:000001c0       ?g_ControlVersion@@3JA     100291c0     KeylockImpl.obj
 0003:00000240       ___scrt_native_dllmain_reason 10029240     LIBCMT:utility.obj
 0003:00000244       __Init_global_epoch        10029244     LIBCMT:thread_safe_statics.obj
 0003:00000250       ___security_cookie_complement 10029250     LIBCMT:gs_cookie.obj
 0003:00000254       ___security_cookie         10029254     LIBCMT:gs_cookie.obj
 0003:00000258       ___isa_enabled             10029258     LIBCMT:cpu_disp.obj
 0003:00000270       __NLG_Destination          10029270     libvcruntime:exsup.obj
 0003:00000288       ___abort_behavior          10029288     libucrt:abort.obj
 0003:00000298       __iob                      10029298     libucrt:_file.obj
 0003:00000340       ___acrt_initial_locale_data 10029340     libucrt:nlsdata.obj
 0003:000003f8       ___acrt_initial_locale_pointers 100293f8     libucrt:nlsdata.obj
 0003:00000400       ___acrt_wide_c_locale_string 10029400     libucrt:nlsdata.obj
 0003:00000408       ___acrt_initial_multibyte_data 10029408     libucrt:mbctype.obj
 0003:00000928       __pwctype                  10029928     libucrt:ctype.obj
 0003:0000092c       ___globallocalestatus      1002992c     libucrt:glstatus.obj
 0003:00000930       ___acrt_lconv_c            10029930     libucrt:localeconv.obj
 0003:00000980       ___acrt_lconv_static_decimal 10029980     libucrt:localeconv.obj
 0003:00000984       ___acrt_lconv_static_W_decimal 10029984     libucrt:localeconv.obj
 0003:00000990       __lookuptrailbytes         10029990     libucrt:read.obj
 0003:00000aa0       __fltused                  10029aa0     LIBCMT:fltused.obj
 0003:00000ab0       ??_R0?AVbad_alloc@std@@@8  10029ab0     LIBCMT:throw_bad_alloc.obj
 0003:00000acc       ??_R0?AVexception@std@@@8  10029acc     LIBCMT:throw_bad_alloc.obj
 0003:00000ae8       ??_R0?AVbad_array_new_length@std@@@8 10029ae8     LIBCMT:throw_bad_alloc.obj
 0003:00000b10       ??_R0?AVtype_info@@@8      10029b10     LIBCMT:std_type_info_static.obj
 0003:00000b28       ??_R0?AVbad_exception@std@@@8 10029b28     libvcruntime:frame.obj
 0003:00000b48       ?m_bInitFailed@CAtlBaseModule@ATL@@2_NA 10029b48     OposVariant.obj
 0003:00000b4c       ?_pPerfRegFunc@ATL@@3P6AJPAUHINSTANCE__@@@ZA 10029b4c     OposVariant.obj
 0003:00000b50       ?_pPerfUnRegFunc@ATL@@3P6AJXZA 10029b50     OposVariant.obj
 0003:00000b54       ?_AtlRegisterPerUser@ATL@@3_NA 10029b54     OposVariant.obj
 0003:00000b58       ?_pAtlModule@ATL@@3PAVCAtlModule@1@A 10029b58     OposVariant.obj
 0003:00000b5c       ?_pModule@ATL@@3PAVCComModule@1@A 10029b5c     OposVariant.obj
 0003:00000b60       ?_AtlComModule@ATL@@3VCAtlComModule@1@A 10029b60     OposVariant.obj
 0003:00000b88       ?_AtlWinModule@ATL@@3VCAtlWinModule@1@A 10029b88     OposVariant.obj
 0003:00000bb4       ?m_libid@CAtlModule@ATL@@2U_GUID@@A 10029bb4     Keylock.obj
 0003:00000bc4       ?_entries@?1??GetConnMap@COPOSKeylock@@SAPBU_ATL_CONNMAP_ENTRY@ATL@@PAH@Z@4QBU34@B 10029bc4     Keylock.obj
 0003:00000bd0       ?$TSS0@?1??GetConnMap@COPOSKeylock@@SAPBU_ATL_CONNMAP_ENTRY@ATL@@PAH@Z@4HA 10029bd0     Keylock.obj
 0003:00000bd8       ?_OptionsStorage@?1??__local_stdio_printf_options@@9@4_KA 10029bd8     Keylock.obj
 0003:00000be0       ?pfnRegDeleteKeyEx@?1??DeleteSubKey@CRegKey@ATL@@QAEJPB_W@Z@4P6GJPAUHKEY__@@0KK@ZA 10029be0     Keylock.obj
 0003:00000be4       ?bInitialized@?1??DeleteSubKey@CRegKey@ATL@@QAEJPB_W@Z@4_NA 10029be4     Keylock.obj
 0003:00000be8       ?_Module@@3VCComModule@ATL@@A 10029be8     Keylock.obj
 0003:00000c18       ?pConnMap@?$IConnectionPointContainerImpl@VCOPOSKeylock@@@ATL@@0PBU_ATL_CONNMAP_ENTRY@2@B 10029c18     Keylock.obj
 0003:00000c1c       ?s_nInstances@COPOSKeylock@@1HA 10029c1c     KeylockImpl.obj
 0003:00000c20       ___scrt_current_native_startup_state 10029c20     LIBCMT:utility.obj
 0003:00000c24       ___scrt_native_startup_lock 10029c24     LIBCMT:utility.obj
 0003:00000f8c       __tls_index                10029f8c     LIBCMT:tlssup.obj
 0003:00000f94       ___isa_available           10029f94     LIBCMT:cpu_disp.obj
 0003:00000f98       ___favor                   10029f98     LIBCMT:cpu_disp.obj
 0003:00000f9c       ___scrt_debugger_hook_flag 10029f9c     LIBCMT:utility_desktop.obj
 0003:00000fa0       ?__type_info_root_node@@3U__type_info_node@@A 10029fa0     LIBCMT:tncleanup.obj
 0003:00000fa8       ?_OptionsStorage@?1??__local_stdio_scanf_options@@9@4_KA 10029fa8     LIBCMT:default_local_stdio_options.obj
 0003:00000fb0       ?_AtlBaseModule@ATL@@3VCAtlBaseModule@1@A 10029fb0     atls:atlbase.obj
 0003:00000fe8       ?__AtlThunkPool@@3PAT_SLIST_HEADER@@A 10029fe8     atls:atlthunk.obj
 0003:00001000       ___@@_PchSym_@00@UztvmgUPdlipUEUhUrmgvinvwrzgvUexgllohUzgohOmzgrevkilqPBACIAJCBDBUlyqiUcIGUhgwzucOlyq@4B2008FD98C1DD4 1002a000     atls:stdafx.obj
 0003:00001004       ?__WinRTOutOfMemoryExceptionCallback@@3P6GPAXXZA 1002a004     libvcruntime:ehhelpers.obj
 0003:00001008       ___pPurecall               1002a008     libvcruntime:purevirt_data.obj
 0003:00001050       ?pArgList@UnDecorator@@0PAVReplicator@@A 1002a050     libvcruntime:undname.obj
 0003:00001054       ?pZNameList@UnDecorator@@0PAVReplicator@@A 1002a054     libvcruntime:undname.obj
 0003:00001058       ?pTemplateArgList@UnDecorator@@0PAVReplicator@@A 1002a058     libvcruntime:undname.obj
 0003:0000105c       ?gName@UnDecorator@@0PBDB  1002a05c     libvcruntime:undname.obj
 0003:00001060       ?name@UnDecorator@@0PBDB   1002a060     libvcruntime:undname.obj
 0003:00001064       ?disableFlags@UnDecorator@@0KA 1002a064     libvcruntime:undname.obj
 0003:00001068       ?fExplicitTemplateParams@UnDecorator@@0_NA 1002a068     libvcruntime:undname.obj
 0003:00001069       ?fGetTemplateArgumentList@UnDecorator@@0_NA 1002a069     libvcruntime:undname.obj
 0003:0000106c       ?m_pGetParameter@UnDecorator@@0P6APADJ@ZA 1002a06c     libvcruntime:undname.obj
 0003:00001070       ?m_CHPENameOffset@UnDecorator@@0KA 1002a070     libvcruntime:undname.obj
 0003:00001074       ?m_recursionLevel@UnDecorator@@0KA 1002a074     libvcruntime:undname.obj
 0003:000010b8       ?c_exit_complete@?1???R<lambda_6e4b09c48022b2350581041d5f6b0c4c>@@QBE@XZ@4_NA 1002a0b8     libucrt:exit.obj
 0003:000011c8       __environ_table            1002a1c8     libucrt:environment_initialization.obj
 0003:000011cc       __wenviron_table           1002a1cc     libucrt:environment_initialization.obj
 0003:000011d0       ___dcrt_initial_wide_environment 1002a1d0     libucrt:environment_initialization.obj
 0003:000011d4       ___dcrt_initial_narrow_environment 1002a1d4     libucrt:environment_initialization.obj
 0003:000011d8       ___acrt_atexit_table       1002a1d8     libucrt:onexit.obj
 0003:000011e4       ___acrt_at_quick_exit_table 1002a1e4     libucrt:onexit.obj
 0003:000012d8       __nstream                  1002a2d8     libucrt:_file.obj
 0003:000012dc       ___piob                    1002a2dc     libucrt:_file.obj
 0003:000012e4       ___acrt_stdout_buffer      1002a2e4     libucrt:_sftbuf.obj
 0003:000012e8       ___acrt_stderr_buffer      1002a2e8     libucrt:_sftbuf.obj
 0003:000012ec       ___acrt_locale_changed_data 1002a2ec     libucrt:wsetlocale.obj
 0003:000012f0       ___acrt_current_locale_data 1002a2f0     libucrt:nlsdata.obj
 0003:000012f8       ___pioinfo                 1002a2f8     libucrt:ioinit.obj
 0003:000014f8       __nhandle                  1002a4f8     libucrt:ioinit.obj
 0003:00001654       __mbctype                  1002a654     libucrt:mbctype.obj
 0003:00001658       __mbcasemap                1002a658     libucrt:mbctype.obj
 0003:0000165c       ___acrt_current_multibyte_data 1002a65c     libucrt:mbctype.obj
 0003:00001668       __pgmptr                   1002a668     libucrt:argv_data.obj
 0003:0000166c       ___argc                    1002a66c     libucrt:argv_data.obj
 0003:00001670       ___argv                    1002a670     libucrt:argv_data.obj
 0003:00001674       ___wargv                   1002a674     libucrt:argv_data.obj
 0003:00001678       __acmdln                   1002a678     libucrt:argv_data.obj
 0003:0000167c       __wcmdln                   1002a67c     libucrt:argv_data.obj
 0003:00001680       ___acrt_heap               1002a680     libucrt:heap_handle.obj
 0003:0000169c       ___acrt_lconv_static_null  1002a69c     libucrt:localeconv.obj
 0003:000016a0       ___acrt_lconv_static_W_null 1002a6a0     libucrt:localeconv.obj
 0003:000016b0       ___fastflag                1002a6b0     libucrt:fp_flags.obj
 0003:000016b8       ___dyn_tls_init_callback   1002a6b8     <common>
 0003:000016bc       ___scrt_ucrt_dll_is_in_use 1002a6bc     <common>
 0003:000016c0       __pmatherr                 1002a6c0     <common>
 0003:000016c4       ___use_sse2_mathfcns       1002a6c4     <common>

 entry point at        0001:0000b91d

 Static symbols

 0000:fffcf000       .debug$S                   10000000     OPOSKeylock.exp
 0000:fffcf000       .debug$S                   10000000     advapi32:ADVAPI32.dll
 0000:fffcf000       .debug$S                   10000000     advapi32:ADVAPI32.dll
 0000:fffcf000       .debug$S                   10000000     advapi32:ADVAPI32.dll
 0000:fffcf000       .debug$S                   10000000     advapi32:ADVAPI32.dll
 0000:fffcf000       .debug$S                   10000000     advapi32:ADVAPI32.dll
 0000:fffcf000       .debug$S                   10000000     advapi32:ADVAPI32.dll
 0000:fffcf000       .debug$S                   10000000     advapi32:ADVAPI32.dll
 0000:fffcf000       .debug$S                   10000000     advapi32:ADVAPI32.dll
 0000:fffcf000       .debug$S                   10000000     advapi32:ADVAPI32.dll
 0000:fffcf000       .debug$S                   10000000     gdi32:GDI32.dll
 0000:fffcf000       .debug$S                   10000000     gdi32:GDI32.dll
 0000:fffcf000       .debug$S                   10000000     gdi32:GDI32.dll
 0000:fffcf000       .debug$S                   10000000     gdi32:GDI32.dll
 0000:fffcf000       .debug$S                   10000000     gdi32:GDI32.dll
 0000:fffcf000       .debug$S                   10000000     gdi32:GDI32.dll
 0000:fffcf000       .debug$S                   10000000     gdi32:GDI32.dll
 0000:fffcf000       .debug$S                   10000000     gdi32:GDI32.dll
 0000:fffcf000       .debug$S                   10000000     gdi32:GDI32.dll
 0000:fffcf000       .debug$S                   10000000     gdi32:GDI32.dll
 0000:fffcf000       .debug$S                   10000000     gdi32:GDI32.dll
 0000:fffcf000       .debug$S                   10000000     gdi32:GDI32.dll
 0000:fffcf000       .debug$S                   10000000     gdi32:GDI32.dll
 0000:fffcf000       .debug$S                   10000000     gdi32:GDI32.dll
 0000:fffcf000       .debug$S                   10000000     gdi32:GDI32.dll
 0000:fffcf000       .debug$S                   10000000     gdi32:GDI32.dll
 0000:fffcf000       .debug$S                   10000000     gdi32:GDI32.dll
 0000:fffcf000       .debug$S                   10000000     gdi32:GDI32.dll
 0000:fffcf000       .debug$S                   10000000     gdi32:GDI32.dll
 0000:fffcf000       .debug$S                   10000000     kernel32:KERNEL32.dll
 0000:fffcf000       .debug$S                   10000000     kernel32:KERNEL32.dll
 0000:fffcf000       .debug$S                   10000000     kernel32:KERNEL32.dll
 0000:fffcf000       .debug$S                   10000000     kernel32:KERNEL32.dll
 0000:fffcf000       .debug$S                   10000000     kernel32:KERNEL32.dll
 0000:fffcf000       .debug$S                   10000000     kernel32:KERNEL32.dll
 0000:fffcf000       .debug$S                   10000000     kernel32:KERNEL32.dll
 0000:fffcf000       .debug$S                   10000000     kernel32:KERNEL32.dll
 0000:fffcf000       .debug$S                   10000000     kernel32:KERNEL32.dll
 0000:fffcf000       .debug$S                   10000000     kernel32:KERNEL32.dll
 0000:fffcf000       .debug$S                   10000000     kernel32:KERNEL32.dll
 0000:fffcf000       .debug$S                   10000000     kernel32:KERNEL32.dll
 0000:fffcf000       .debug$S                   10000000     kernel32:KERNEL32.dll
 0000:fffcf000       .debug$S                   10000000     kernel32:KERNEL32.dll
 0000:fffcf000       .debug$S                   10000000     kernel32:KERNEL32.dll
 0000:fffcf000       .debug$S                   10000000     kernel32:KERNEL32.dll
 0000:fffcf000       .debug$S                   10000000     kernel32:KERNEL32.dll
 0000:fffcf000       .debug$S                   10000000     kernel32:KERNEL32.dll
 0000:fffcf000       .debug$S                   10000000     kernel32:KERNEL32.dll
 0000:fffcf000       .debug$S                   10000000     kernel32:KERNEL32.dll
 0000:fffcf000       .debug$S                   10000000     kernel32:KERNEL32.dll
 0000:fffcf000       .debug$S                   10000000     kernel32:KERNEL32.dll
 0000:fffcf000       .debug$S                   10000000     kernel32:KERNEL32.dll
 0000:fffcf000       .debug$S                   10000000     kernel32:KERNEL32.dll
 0000:fffcf000       .debug$S                   10000000     kernel32:KERNEL32.dll
 0000:fffcf000       .debug$S                   10000000     kernel32:KERNEL32.dll
 0000:fffcf000       .debug$S                   10000000     kernel32:KERNEL32.dll
 0000:fffcf000       .debug$S                   10000000     kernel32:KERNEL32.dll
 0000:fffcf000       .debug$S                   10000000     kernel32:KERNEL32.dll
 0000:fffcf000       .debug$S                   10000000     kernel32:KERNEL32.dll
 0000:fffcf000       .debug$S                   10000000     kernel32:KERNEL32.dll
 0000:fffcf000       .debug$S                   10000000     kernel32:KERNEL32.dll
 0000:fffcf000       .debug$S                   10000000     kernel32:KERNEL32.dll
 0000:fffcf000       .debug$S                   10000000     kernel32:KERNEL32.dll
 0000:fffcf000       .debug$S                   10000000     kernel32:KERNEL32.dll
 0000:fffcf000       .debug$S                   10000000     kernel32:KERNEL32.dll
 0000:fffcf000       .debug$S                   10000000     kernel32:KERNEL32.dll
 0000:fffcf000       .debug$S                   10000000     kernel32:KERNEL32.dll
 0000:fffcf000       .debug$S                   10000000     kernel32:KERNEL32.dll
 0000:fffcf000       .debug$S                   10000000     kernel32:KERNEL32.dll
 0000:fffcf000       .debug$S                   10000000     kernel32:KERNEL32.dll
 0000:fffcf000       .debug$S                   10000000     kernel32:KERNEL32.dll
 0000:fffcf000       .debug$S                   10000000     kernel32:KERNEL32.dll
 0000:fffcf000       .debug$S                   10000000     kernel32:KERNEL32.dll
 0000:fffcf000       .debug$S                   10000000     kernel32:KERNEL32.dll
 0000:fffcf000       .debug$S                   10000000     kernel32:KERNEL32.dll
 0000:fffcf000       .debug$S                   10000000     kernel32:KERNEL32.dll
 0000:fffcf000       .debug$S                   10000000     kernel32:KERNEL32.dll
 0000:fffcf000       .debug$S                   10000000     kernel32:KERNEL32.dll
 0000:fffcf000       .debug$S                   10000000     kernel32:KERNEL32.dll
 0000:fffcf000       .debug$S                   10000000     kernel32:KERNEL32.dll
 0000:fffcf000       .debug$S                   10000000     kernel32:KERNEL32.dll
 0000:fffcf000       .debug$S                   10000000     kernel32:KERNEL32.dll
 0000:fffcf000       .debug$S                   10000000     kernel32:KERNEL32.dll
 0000:fffcf000       .debug$S                   10000000     kernel32:KERNEL32.dll
 0000:fffcf000       .debug$S                   10000000     kernel32:KERNEL32.dll
 0000:fffcf000       .debug$S                   10000000     kernel32:KERNEL32.dll
 0000:fffcf000       .debug$S                   10000000     kernel32:KERNEL32.dll
 0000:fffcf000       .debug$S                   10000000     kernel32:KERNEL32.dll
 0000:fffcf000       .debug$S                   10000000     kernel32:KERNEL32.dll
 0000:fffcf000       .debug$S                   10000000     kernel32:KERNEL32.dll
 0000:fffcf000       .debug$S                   10000000     kernel32:KERNEL32.dll
 0000:fffcf000       .debug$S                   10000000     kernel32:KERNEL32.dll
 0000:fffcf000       .debug$S                   10000000     kernel32:KERNEL32.dll
 0000:fffcf000       .debug$S                   10000000     kernel32:KERNEL32.dll
 0000:fffcf000       .debug$S                   10000000     kernel32:KERNEL32.dll
 0000:fffcf000       .debug$S                   10000000     kernel32:KERNEL32.dll
 0000:fffcf000       .debug$S                   10000000     kernel32:KERNEL32.dll
 0000:fffcf000       .debug$S                   10000000     kernel32:KERNEL32.dll
 0000:fffcf000       .debug$S                   10000000     kernel32:KERNEL32.dll
 0000:fffcf000       .debug$S                   10000000     kernel32:KERNEL32.dll
 0000:fffcf000       .debug$S                   10000000     kernel32:KERNEL32.dll
 0000:fffcf000       .debug$S                   10000000     kernel32:KERNEL32.dll
 0000:fffcf000       .debug$S                   10000000     kernel32:KERNEL32.dll
 0000:fffcf000       .debug$S                   10000000     kernel32:KERNEL32.dll
 0000:fffcf000       .debug$S                   10000000     kernel32:KERNEL32.dll
 0000:fffcf000       .debug$S                   10000000     kernel32:KERNEL32.dll
 0000:fffcf000       .debug$S                   10000000     kernel32:KERNEL32.dll
 0000:fffcf000       .debug$S                   10000000     kernel32:KERNEL32.dll
 0000:fffcf000       .debug$S                   10000000     kernel32:KERNEL32.dll
 0000:fffcf000       .debug$S                   10000000     kernel32:KERNEL32.dll
 0000:fffcf000       .debug$S                   10000000     kernel32:KERNEL32.dll
 0000:fffcf000       .debug$S                   10000000     kernel32:KERNEL32.dll
 0000:fffcf000       .debug$S                   10000000     kernel32:KERNEL32.dll
 0000:fffcf000       .debug$S                   10000000     kernel32:KERNEL32.dll
 0000:fffcf000       .debug$S                   10000000     kernel32:KERNEL32.dll
 0000:fffcf000       .debug$S                   10000000     kernel32:KERNEL32.dll
 0000:fffcf000       .debug$S                   10000000     kernel32:KERNEL32.dll
 0000:fffcf000       .debug$S                   10000000     kernel32:KERNEL32.dll
 0000:fffcf000       .debug$S                   10000000     kernel32:KERNEL32.dll
 0000:fffcf000       .debug$S                   10000000     kernel32:KERNEL32.dll
 0000:fffcf000       .debug$S                   10000000     kernel32:KERNEL32.dll
 0000:fffcf000       .debug$S                   10000000     kernel32:KERNEL32.dll
 0000:fffcf000       .debug$S                   10000000     kernel32:KERNEL32.dll
 0000:fffcf000       .debug$S                   10000000     kernel32:KERNEL32.dll
 0000:fffcf000       .debug$S                   10000000     kernel32:KERNEL32.dll
 0000:fffcf000       .debug$S                   10000000     kernel32:KERNEL32.dll
 0000:fffcf000       .debug$S                   10000000     kernel32:KERNEL32.dll
 0000:fffcf000       .debug$S                   10000000     kernel32:KERNEL32.dll
 0000:fffcf000       .debug$S                   10000000     kernel32:KERNEL32.dll
 0000:fffcf000       .debug$S                   10000000     kernel32:KERNEL32.dll
 0000:fffcf000       .debug$S                   10000000     kernel32:KERNEL32.dll
 0000:fffcf000       .debug$S                   10000000     kernel32:KERNEL32.dll
 0000:fffcf000       .debug$S                   10000000     kernel32:KERNEL32.dll
 0000:fffcf000       .debug$S                   10000000     kernel32:KERNEL32.dll
 0000:fffcf000       .debug$S                   10000000     kernel32:KERNEL32.dll
 0000:fffcf000       .debug$S                   10000000     ole32:ole32.dll
 0000:fffcf000       .debug$S                   10000000     ole32:ole32.dll
 0000:fffcf000       .debug$S                   10000000     ole32:ole32.dll
 0000:fffcf000       .debug$S                   10000000     ole32:ole32.dll
 0000:fffcf000       .debug$S                   10000000     ole32:ole32.dll
 0000:fffcf000       .debug$S                   10000000     ole32:ole32.dll
 0000:fffcf000       .debug$S                   10000000     ole32:ole32.dll
 0000:fffcf000       .debug$S                   10000000     ole32:ole32.dll
 0000:fffcf000       .debug$S                   10000000     ole32:ole32.dll
 0000:fffcf000       .debug$S                   10000000     ole32:ole32.dll
 0000:fffcf000       .debug$S                   10000000     ole32:ole32.dll
 0000:fffcf000       .debug$S                   10000000     ole32:ole32.dll
 0000:fffcf000       .debug$S                   10000000     ole32:ole32.dll
 0000:fffcf000       .debug$S                   10000000     ole32:ole32.dll
 0000:fffcf000       .debug$S                   10000000     oleaut32:OLEAUT32.dll
 0000:fffcf000       .debug$S                   10000000     oleaut32:OLEAUT32.dll
 0000:fffcf000       .debug$S                   10000000     oleaut32:OLEAUT32.dll
 0000:fffcf000       .debug$S                   10000000     oleaut32:OLEAUT32.dll
 0000:fffcf000       .debug$S                   10000000     oleaut32:OLEAUT32.dll
 0000:fffcf000       .debug$S                   10000000     oleaut32:OLEAUT32.dll
 0000:fffcf000       .debug$S                   10000000     oleaut32:OLEAUT32.dll
 0000:fffcf000       .debug$S                   10000000     oleaut32:OLEAUT32.dll
 0000:fffcf000       .debug$S                   10000000     oleaut32:OLEAUT32.dll
 0000:fffcf000       .debug$S                   10000000     oleaut32:OLEAUT32.dll
 0000:fffcf000       .debug$S                   10000000     oleaut32:OLEAUT32.dll
 0000:fffcf000       .debug$S                   10000000     oleaut32:OLEAUT32.dll
 0000:fffcf000       .debug$S                   10000000     oleaut32:OLEAUT32.dll
 0000:fffcf000       .debug$S                   10000000     oleaut32:OLEAUT32.dll
 0000:fffcf000       .debug$S                   10000000     oleaut32:OLEAUT32.dll
 0000:fffcf000       .debug$S                   10000000     oleaut32:OLEAUT32.dll
 0000:fffcf000       .debug$S                   10000000     user32:USER32.dll
 0000:fffcf000       .debug$S                   10000000     user32:USER32.dll
 0000:fffcf000       .debug$S                   10000000     user32:USER32.dll
 0000:fffcf000       .debug$S                   10000000     user32:USER32.dll
 0000:fffcf000       .debug$S                   10000000     user32:USER32.dll
 0000:fffcf000       .debug$S                   10000000     user32:USER32.dll
 0000:fffcf000       .debug$S                   10000000     user32:USER32.dll
 0000:fffcf000       .debug$S                   10000000     user32:USER32.dll
 0000:fffcf000       .debug$S                   10000000     user32:USER32.dll
 0000:fffcf000       .debug$S                   10000000     user32:USER32.dll
 0000:fffcf000       .debug$S                   10000000     user32:USER32.dll
 0000:fffcf000       .debug$S                   10000000     user32:USER32.dll
 0000:fffcf000       .debug$S                   10000000     user32:USER32.dll
 0000:fffcf000       .debug$S                   10000000     user32:USER32.dll
 0000:fffcf000       .debug$S                   10000000     user32:USER32.dll
 0000:fffcf000       .debug$S                   10000000     user32:USER32.dll
 0000:fffcf000       .debug$S                   10000000     user32:USER32.dll
 0000:fffcf000       .debug$S                   10000000     user32:USER32.dll
 0000:fffcf000       .debug$S                   10000000     user32:USER32.dll
 0000:fffcf000       .debug$S                   10000000     user32:USER32.dll
 0000:fffcf000       .debug$S                   10000000     user32:USER32.dll
 0000:fffcf000       .debug$S                   10000000     user32:USER32.dll
 0000:fffcf000       .debug$S                   10000000     user32:USER32.dll
 0000:fffcf000       .debug$S                   10000000     user32:USER32.dll
 0000:fffcf000       .debug$S                   10000000     user32:USER32.dll
 0000:fffcf000       .debug$S                   10000000     user32:USER32.dll
 0000:fffcf000       .debug$S                   10000000     user32:USER32.dll
 0000:fffcf000       .debug$S                   10000000     user32:USER32.dll
 0000:fffcf000       .debug$S                   10000000     user32:USER32.dll
 0000:fffcf000       .debug$S                   10000000     user32:USER32.dll
 0000:fffcf000       .debug$S                   10000000     user32:USER32.dll
 0000:fffcf000       .debug$S                   10000000     user32:USER32.dll
 0000:fffcf000       .debug$S                   10000000     user32:USER32.dll
 0000:fffcf000       .debug$S                   10000000     user32:USER32.dll
 0000:fffcf000       .debug$S                   10000000     user32:USER32.dll
 0001:00000000       ??__E_AtlComModule@ATL@@YAXXZ 10001000 f   OposVariant.obj
 0001:00000016       ??__E_AtlWinModule@ATL@@YAXXZ 10001016 f   OposVariant.obj
 0001:0000002c       ??__E?pConnMap@?$IConnectionPointContainerImpl@VCOPOSKeylock@@@ATL@@0PBU_ATL_CONNMAP_ENTRY@2@B@@YAXXZ 1000102c f   Keylock.obj
 0001:0000003a       ??__E_Module@@YAXXZ        1000103a f   Keylock.obj
 0001:00000064       ??__E_AtlBaseModule@ATL@@YAXXZ 10001064 f   atls:atlbase.obj
 0001:00000bf8       $LN24                      10001bf8     Keylock.obj
 0001:0000569b       $LN48                      1000669b     Keylock.obj
 0001:000056b3       $LN47                      100066b3     Keylock.obj
 0001:00007860       $LN38                      10008860     Keylock.obj
 0001:00007878       $LN37                      10008878     Keylock.obj
 0001:00008f68       $LN76                      10009f68     Keylock.obj
 0001:00008f80       $LN75                      10009f80     Keylock.obj
 0001:00009339       _memcpy_s                  1000a339 f   Keylock.obj
 0001:0000adae       ?find_pe_section@@YAPAU_IMAGE_SECTION_HEADER@@QAEI@Z 1000bdae f   LIBCMT:utility.obj
 0001:0000b0cd       ?__scrt_initialize_thread_safe_statics@@YAHXZ 1000c0cd f   LIBCMT:thread_safe_statics.obj
 0001:0000b0f4       ?__scrt_initialize_thread_safe_statics_platform_specific@@YAXXZ 1000c0f4 f   LIBCMT:thread_safe_statics.obj
 0001:0000b176       ?__scrt_uninitialize_thread_safe_statics@@YAXXZ 1000c176 f   LIBCMT:thread_safe_statics.obj
 0001:0000b4e5       __catch$??2@YAPAXIABUnothrow_t@std@@@Z$0 1000c4e5 f   LIBCMT:new_scalar_nothrow.obj
 0001:0000b520       $$000000                   1000c520     LIBCMT:sehprolg4gs.obj
 0001:0000b580       $$000000                   1000c580     LIBCMT:alloca16.obj
 0001:0000b5b0       $$000000                   1000c5b0     LIBCMT:chkstk.obj
 0001:0000b5dd       ?dllmain_crt_dispatch@@YGHQAUHINSTANCE__@@KQAX@Z 1000c5dd f   LIBCMT:dll_dllmain.obj
 0001:0000b630       ?dllmain_crt_process_attach@@YAHQAUHINSTANCE__@@QAX@Z 1000c630 f   LIBCMT:dll_dllmain.obj
 0001:0000b737       ?dllmain_crt_process_detach@@YAH_N@Z 1000c737 f   LIBCMT:dll_dllmain.obj
 0001:0000b7e7       ?dllmain_dispatch@@YAHQAUHINSTANCE__@@KQAX@Z 1000c7e7 f   LIBCMT:dll_dllmain.obj
 0001:0000b8f2       ?dllmain_raw@@YGHQAUHINSTANCE__@@KQAX@Z 1000c8f2 f   LIBCMT:dll_dllmain.obj
 0001:0000bc70       $$000000                   1000cc70     LIBCMT:sehprolg4.obj
 0001:0000bccc       ___get_entropy             1000cccc f   LIBCMT:gs_support.obj
 0001:0000bfc3       ??$GetProcAddressAll@P6GP6GJPAUHWND__@@IIJ@ZPAUAtlThunkData_t@@@Z@@YAP6GP6GJPAUHWND__@@IIJ@ZPAUAtlThunkData_t@@@ZPAP6GP6GJ0IIJ@Z1@Z@Z 1000cfc3 f   atls:atlthunk.obj
 0001:0000bfc3       ??$GetProcAddressAll@P6GPAUAtlThunkData_t@@XZ@@YAP6GPAUAtlThunkData_t@@XZPAP6GPAU0@XZ@Z 1000cfc3 f   atls:atlthunk.obj
 0001:0000bfc3       ??$GetProcAddressAll@P6GXPAUAtlThunkData_t@@@Z@@YAP6GXPAUAtlThunkData_t@@@ZPAP6GX0@Z@Z 1000cfc3 f   atls:atlthunk.obj
 0001:0000bfc3       ??$GetProcAddressAll@P6GXPAUAtlThunkData_t@@PAXI@Z@@YAP6GXPAUAtlThunkData_t@@PAXI@ZPAP6GX01I@Z@Z 1000cfc3 f   atls:atlthunk.obj
 0001:0000c073       ?GetProcAddressSingle@@YA_NPAUHINSTANCE__@@PBDPAPAX@Z 1000d073 f   atls:atlthunk.obj
 0001:0000c1c5       ?__InitializeThunkPool@@YAHXZ 1000d1c5 f   atls:atlthunk.obj
 0001:0000c610       _ValidateLocalCookies      1000d610 f   libvcruntime:chandler4.obj
 0001:0000d63a       $LN1250                    1000e63a     libvcruntime:memcmp.obj
 0001:0000d6c0       $$000000                   1000e6c0     libvcruntime:memcpy.obj
 0001:0000d924       TrailingUpVec              1000e924     libvcruntime:memcpy.obj
 0001:0000d9d0       TrailingDownVec            1000e9d0     libvcruntime:memcpy.obj
 0001:0000dc40       $$000000                   1000ec40     libvcruntime:memset.obj
 0001:0000e243       ?_FilterSetCurrentException@@YAKPAU_EXCEPTION_POINTERS@@E@Z 1000f243 f   libvcruntime:ehhelpers.obj
 0001:0000e490       $$000000                   1000f490     libvcruntime:memmove.obj
 0001:0000e6f4       TrailingUpVec              1000f6f4     libvcruntime:memmove.obj
 0001:0000e7a0       TrailingDownVec            1000f7a0     libvcruntime:memmove.obj
 0001:0000ea10       $$000000                   1000fa10     libvcruntime:exsup4.obj
 0001:0000eaa0       __unwind_handler4          1000faa0 f   libvcruntime:exsup4.obj
 0001:0000ed7f       ??$BuildCatchObjectHelperInternal@V__FrameHandler3@@@@YAHPAUEHExceptionRecord@@PAXPBU_s_HandlerType@@PBU_s_CatchableType@@@Z 1000fd7f f   libvcruntime:frame.obj
 0001:0000eebd       ??$BuildCatchObjectInternal@V__FrameHandler3@@@@YAXPAUEHExceptionRecord@@PAXPBU_s_HandlerType@@PBU_s_CatchableType@@@Z 1000febd f   libvcruntime:frame.obj
 0001:0000ef56       ??$CatchIt@V__FrameHandler3@@@@YAXPAUEHExceptionRecord@@PAUEHRegistrationNode@@PAU_CONTEXT@@PAXPBU_s_FuncInfo@@PBU_s_HandlerType@@PBU_s_CatchableType@@PBU_s_TryBlockMapEntry@@H1EE@Z 1000ff56 f   libvcruntime:frame.obj
 0001:0000efd6       ??$FindHandler@V__FrameHandler3@@@@YAXPAUEHExceptionRecord@@PAUEHRegistrationNode@@PAU_CONTEXT@@PAXPBU_s_FuncInfo@@EH1@Z 1000ffd6 f   libvcruntime:frame.obj
 0001:0000f38c       ??$FindHandlerForForeignException@V__FrameHandler3@@@@YAXPAUEHExceptionRecord@@PAUEHRegistrationNode@@PAU_CONTEXT@@PAXPBU_s_FuncInfo@@HH1@Z 1001038c f   libvcruntime:frame.obj
 0001:0000f6a4       ?CallCatchBlock@@YAPAXPAUEHExceptionRecord@@PAUEHRegistrationNode@@PAU_CONTEXT@@PBU_s_FuncInfo@@PAXHK@Z 100106a4 f   libvcruntime:frame.obj
 0001:0000f868       ?CallUnexpected@@YAXPBU_s_ESTypeList@@@Z 10010868 f   libvcruntime:frame.obj
 0001:0000f888       __catch$?CallUnexpected@@YAXPBU_s_ESTypeList@@@Z$0 10010888 f   libvcruntime:frame.obj
 0001:0000f8a2       ?ExFilterRethrow@@YAHPAU_EXCEPTION_POINTERS@@@Z 100108a2 f   libvcruntime:frame.obj
 0001:0000f9ec       ?IsInExceptionSpec@@YAEPAUEHExceptionRecord@@PBU_s_ESTypeList@@@Z 100109ec f   libvcruntime:frame.obj
 0001:0000fac0       $$000000                   10010ac0     libvcruntime:lowhelpr.obj
 0001:0000fb10       $$000000                   10010b10     libvcruntime:exsup.obj
 0001:0000fb31       __unwind_handler           10010b31 f   libvcruntime:exsup.obj
 0001:0000fc4e       ?try_get_first_available_module@@YAPAUHINSTANCE__@@QBW4module_id@?A0x9d0f8d90@@0@Z 10010c4e f   libvcruntime:winapi_downlevel.obj
 0001:0000fce8       ?try_get_function@@YAPAXW4function_id@?A0x9d0f8d90@@QBDQBW4module_id@2@2@Z 10010ce8 f   libvcruntime:winapi_downlevel.obj
 0001:00010372       ??$common_tcsncpy_s@_W@@YAHQA_WIQB_WI@Z 10011372 f   libucrt:wcsncpy_s.obj
 0001:00010448       ??$common_vsprintf@Vformat_validation_base@__crt_stdio_output@@_W@@YAH_KQA_WIQB_WQAU__crt_locale_pointers@@QAD@Z 10011448 f   libucrt:output.obj
 0001:000105cf       ??$common_vsprintf_s@_W@@YAH_KQA_WIQB_WQAU__crt_locale_pointers@@QAD@Z 100115cf f   libucrt:output.obj
 0001:00010d33       $LN48                      10011d33     libucrt:output.obj
 0001:0001123c       $LN18                      1001223c     libucrt:output.obj
 0001:00011250       $LN17                      10012250     libucrt:output.obj
 0001:00011aab       ??$?RV<lambda_03b1d95aef87969028cfba75ccab2455>@@AAV<lambda_6e4b09c48022b2350581041d5f6b0c4c>@@V<lambda_22bdf7517842c4b3e53723af5aa32b9e>@@@?$__crt_seh_guarded_call@X@@QAEX$$QAV<lambda_03b1d95aef87969028cfba75ccab2455>@@AAV<lambda_6e4b09c48022b2350581041d5f6b0c4c>@@$$QAV<lambda_22bdf7517842c4b3e53723af5aa32b9e>@@@Z 10012aab f   libucrt:exit.obj
 0001:00011af8       ??R<lambda_6e4b09c48022b2350581041d5f6b0c4c>@@QBE@XZ 10012af8 f   libucrt:exit.obj
 0001:00011bd2       ?atexit_exception_filter@@YAHK@Z 10012bd2 f   libucrt:exit.obj
 0001:00011be5       ?common_exit@@YAXHW4_crt_exit_cleanup_mode@@W4_crt_exit_return_mode@@@Z 10012be5 f   libucrt:exit.obj
 0001:00011c49       ?exit_or_terminate_process@@YAXI@Z 10012c49 f   libucrt:exit.obj
 0001:00011c8b       ?is_managed_app@@YA_NXZ    10012c8b f   libucrt:exit.obj
 0001:00011cce       ?try_cor_exit_process@@YAXI@Z 10012cce f   libucrt:exit.obj
 0001:00011d5c       ??$common_configure_argv@D@@YAHW4_crt_argv_mode@@@Z 10012d5c f   libucrt:argv_parsing.obj
 0001:00011e92       ??$parse_command_line@D@@YAXPADPAPAD0PAI2@Z 10012e92 f   libucrt:argv_parsing.obj
 0001:00012060       ??$common_initialize_environment_nolock@D@@YAHXZ 10013060 f   libucrt:environment_initialization.obj
 0001:000120b3       ??$create_environment@D@@YAQAPADQAD@Z 100130b3 f   libucrt:environment_initialization.obj
 0001:00012183       ??$free_environment@D@@YAXQAPAD@Z 10013183 f   libucrt:environment_initialization.obj
 0001:00012183       ??$free_environment@_W@@YAXQAPA_W@Z 10013183 f   libucrt:environment_initialization.obj
 0001:000121db       ??$uninitialize_environment_internal@D@@YAXAAPAPAD@Z 100131db f   libucrt:environment_initialization.obj
 0001:000121f6       ??$uninitialize_environment_internal@_W@@YAXAAPAPA_W@Z 100131f6 f   libucrt:environment_initialization.obj
 0001:0001224d       ??$?RV<lambda_69a2805e680e0e292e8ba93315fe43a8>@@AAV<lambda_f03950bc5685219e0bcd2087efbe011e>@@V<lambda_03fcd07e894ec930e3f35da366ca99d6>@@@?$__crt_seh_guarded_call@H@@QAEH$$QAV<lambda_69a2805e680e0e292e8ba93315fe43a8>@@AAV<lambda_f03950bc5685219e0bcd2087efbe011e>@@$$QAV<lambda_03fcd07e894ec930e3f35da366ca99d6>@@@Z 1001324d f   libucrt:onexit.obj
 0001:000122a8       ??$?RV<lambda_8e746cf0007f6ed984d6f78af1fec997>@@AAV<lambda_22ebabd17bc4fa466a2aca6d8deb888d>@@V<lambda_18ed0c0b38a6dc0daf1e7ac6d6adf05e>@@@?$__crt_seh_guarded_call@H@@QAEH$$QAV<lambda_8e746cf0007f6ed984d6f78af1fec997>@@AAV<lambda_22ebabd17bc4fa466a2aca6d8deb888d>@@$$QAV<lambda_18ed0c0b38a6dc0daf1e7ac6d6adf05e>@@@Z 100132a8 f   libucrt:onexit.obj
 0001:00012322       ??R<lambda_22ebabd17bc4fa466a2aca6d8deb888d>@@QBEHXZ 10013322 f   libucrt:onexit.obj
 0001:0001244b       ??R<lambda_f03950bc5685219e0bcd2087efbe011e>@@QBEHXZ 1001344b f   libucrt:onexit.obj
 0001:000125c4       _initialize_global_variables 100135c4 f   libucrt:initialization.obj
 0001:000125d1       _initialize_c              100135d1 f   libucrt:initialization.obj
 0001:000125eb       _initialize_environment    100135eb f   libucrt:initialization.obj
 0001:000125eb       _initialize_global_state_isolation 100135eb f   libucrt:initialization.obj
 0001:000125eb       _report_memory_leaks       100135eb f   libucrt:initialization.obj
 0001:000125eb       _uninitialize_c            100135eb f   libucrt:initialization.obj
 0001:000125eb       _uninitialize_global_state_isolation 100135eb f   libucrt:initialization.obj
 0001:000125ee       _uninitialize_environment  100135ee f   libucrt:initialization.obj
 0001:000125f6       _initialize_pointers       100135f6 f   libucrt:initialization.obj
 0001:00012624       _uninitialize_vcruntime    10013624 f   libucrt:initialization.obj
 0001:0001262d       _uninitialize_allocated_memory 1001362d f   libucrt:initialization.obj
 0001:00012644       _uninitialize_allocated_io_buffers 10013644 f   libucrt:initialization.obj
 0001:00012694       ??R<lambda_af42a3ee9806e9a7305d451646e05244>@@QBEXAAPAU__crt_multibyte_data@@@Z 10013694 f   libucrt:initialization.obj
 0001:00012f80       $$000000                   10013f80     libucrt:strncmp.obj
 0001:0001306c       ??$?RV<lambda_15ade71b0218206bbe3333a0c9b79046>@@AAV<lambda_da44e0f8b0f19ba52fefafb335991732>@@V<lambda_207f2d024fc103971653565357d6cd41>@@@?$__crt_seh_guarded_call@X@@QAEX$$QAV<lambda_15ade71b0218206bbe3333a0c9b79046>@@AAV<lambda_da44e0f8b0f19ba52fefafb335991732>@@$$QAV<lambda_207f2d024fc103971653565357d6cd41>@@@Z 1001406c f   libucrt:per_thread_data.obj
 0001:000130be       ??$?RV<lambda_38edbb1296d33220d7e4dd0ed76b244a>@@AAV<lambda_5ce1d447e08cb34b2473517608e21441>@@V<lambda_fb385d3da700c9147fc39e65dd577a8c>@@@?$__crt_seh_guarded_call@X@@QAEX$$QAV<lambda_38edbb1296d33220d7e4dd0ed76b244a>@@AAV<lambda_5ce1d447e08cb34b2473517608e21441>@@$$QAV<lambda_fb385d3da700c9147fc39e65dd577a8c>@@@Z 100140be f   libucrt:per_thread_data.obj
 0001:00013129       ??$?RV<lambda_6affb1475c98b40b75cdec977db92e3c>@@AAV<lambda_b8d4b9c228a6ecc3f80208dbb4b4a104>@@V<lambda_608742c3c92a14382c1684fc64f96c88>@@@?$__crt_seh_guarded_call@X@@QAEX$$QAV<lambda_6affb1475c98b40b75cdec977db92e3c>@@AAV<lambda_b8d4b9c228a6ecc3f80208dbb4b4a104>@@$$QAV<lambda_608742c3c92a14382c1684fc64f96c88>@@@Z 10014129 f   libucrt:per_thread_data.obj
 0001:0001317e       ??$?RV<lambda_a7e850c220f1c8d1e6efeecdedd162c6>@@AAV<lambda_46720907175c18b6c9d2717bc0d2d362>@@V<lambda_9048902d66e8d99359bc9897bbb930a8>@@@?$__crt_seh_guarded_call@X@@QAEX$$QAV<lambda_a7e850c220f1c8d1e6efeecdedd162c6>@@AAV<lambda_46720907175c18b6c9d2717bc0d2d362>@@$$QAV<lambda_9048902d66e8d99359bc9897bbb930a8>@@@Z 1001417e f   libucrt:per_thread_data.obj
 0001:000131d8       ?construct_ptd@@YAXQAU__acrt_ptd@@QAPAU__crt_locale_data@@@Z 100141d8 f   libucrt:per_thread_data.obj
 0001:00013271       ?destroy_fls@@YGXPAX@Z     10014271 f   libucrt:per_thread_data.obj
 0001:00013292       ?destroy_ptd@@YAXQAU__acrt_ptd@@@Z 10014292 f   libucrt:per_thread_data.obj
 0001:0001335f       ?replace_current_thread_locale_nolock@@YAXQAU__acrt_ptd@@QAU__crt_locale_data@@@Z 1001435f f   libucrt:per_thread_data.obj
 0001:0001376f       ?try_get_AreFileApisANSI@@YAP6GHXZXZ 1001476f f   libucrt:winapi_thunks.obj
 0001:00013789       ?try_get_LCMapStringEx@@YAP6GHPB_WK0HPA_WHPAU_nlsversioninfo@@PAXJ@ZXZ 10014789 f   libucrt:winapi_thunks.obj
 0001:000137a3       ?try_get_LocaleNameToLCID@@YAP6GKPB_WK@ZXZ 100147a3 f   libucrt:winapi_thunks.obj
 0001:000137bd       ?try_get_first_available_module@@YAPAUHINSTANCE__@@QBW4module_id@?A0x391cf84c@@0@Z 100147bd f   libucrt:winapi_thunks.obj
 0001:00013884       ?try_get_function@@YAPAXW4function_id@?A0x391cf84c@@QBDQBW4module_id@2@2@Z 10014884 f   libucrt:winapi_thunks.obj
 0001:00013fe7       ?fe_to_nearest@@YA_NQBN_KF@Z 10014fe7 f   libucrt:cvt.obj
 0001:0001408a       ?fp_format_a@@YAHQBNPADIQADIH_NIQAU__crt_locale_pointers@@W4__acrt_rounding_mode@@@Z 1001508a f   libucrt:cvt.obj
 0001:00014399       ?fp_format_e@@YAHQBNQADI1IH_NIQAU__crt_locale_pointers@@W4__acrt_rounding_mode@@@Z 10015399 f   libucrt:cvt.obj
 0001:00014441       ?fp_format_e_internal@@YAHQADIH_NIQAU_strflt@@1QAU__crt_locale_pointers@@@Z 10015441 f   libucrt:cvt.obj
 0001:00014589       ?fp_format_f@@YAHQBNQADI1IHQAU__crt_locale_pointers@@W4__acrt_rounding_mode@@@Z 10015589 f   libucrt:cvt.obj
 0001:0001461a       ?fp_format_f_internal@@YAHQADIHQAU_strflt@@_NQAU__crt_locale_pointers@@@Z 1001561a f   libucrt:cvt.obj
 0001:00014712       ?fp_format_g@@YAHQBNQADI1IH_NIQAU__crt_locale_pointers@@@Z 10015712 f   libucrt:cvt.obj
 0001:000147db       ?fp_format_nan_or_infinity@@YAHW4__acrt_fp_class@@_NPADI1@Z 100157db f   libucrt:cvt.obj
 0001:00014870       ?shift_bytes@@YAXQADI0H@Z  10015870 f   libucrt:cvt.obj
 0001:000148a4       ?should_round_up@@YA_NQBN_KFW4__acrt_rounding_mode@@@Z 100158a4 f   libucrt:cvt.obj
 0001:00014c0d       ??$?RV<lambda_e5124f882df8998aaf41531e079ba474>@@AAV<lambda_3e16ef9562a7dcce91392c22ab16ea36>@@V<lambda_e25ca0880e6ef98be67edffd8c599615>@@@?$__crt_seh_guarded_call@X@@QAEX$$QAV<lambda_e5124f882df8998aaf41531e079ba474>@@AAV<lambda_3e16ef9562a7dcce91392c22ab16ea36>@@$$QAV<lambda_e25ca0880e6ef98be67edffd8c599615>@@@Z 10015c0d f   libucrt:wsetlocale.obj
 0001:00014cad       ?initialize_inherited_file_handles_nolock@@YAXXZ 10015cad f   libucrt:ioinit.obj
 0001:00014d63       ?initialize_stdio_handles_nolock@@YAXXZ 10015d63 f   libucrt:ioinit.obj
 0001:00014f74       ?<lambda_invoker_cdecl>@<lambda_838c7f62c73c983481e27c09e84b0b5d>@@CAHPBX0@Z 10015f74 f   libucrt:argv_wildcards.obj
 0001:00014f8c       ??$__acrt_convert_wcs_mbs_cp@D_WV<lambda_62f6974d9771e494a5ea317cc32e971c>@@U__crt_win32_buffer_internal_dynamic_resizing@@@@YAHQBDAAV?$__crt_win32_buffer@_WU__crt_win32_buffer_internal_dynamic_resizing@@@@ABV<lambda_62f6974d9771e494a5ea317cc32e971c>@@I@Z 10015f8c f   libucrt:argv_wildcards.obj
 0001:0001503e       ??$__acrt_convert_wcs_mbs_cp@_WDV<lambda_28bda7af82a03b66c1cb3803a755f95d>@@U__crt_win32_buffer_internal_dynamic_resizing@@@@YAHQB_WAAV?$__crt_win32_buffer@DU__crt_win32_buffer_internal_dynamic_resizing@@@@ABV<lambda_28bda7af82a03b66c1cb3803a755f95d>@@I@Z 1001603e f   libucrt:argv_wildcards.obj
 0001:0001512a       ??$common_expand_argv_wildcards@D@@YAHQAPADQAPAPAD@Z 1001612a f   libucrt:argv_wildcards.obj
 0001:00015319       ??$copy_and_add_argument_to_buffer@D@@YAHQBD0IAAV?$argument_list@D@?A0x5f5c8891@@@Z 10016319 f   libucrt:argv_wildcards.obj
 0001:000153ca       ??$expand_argument_wildcards@D@@YAHQAD0AAV?$argument_list@D@?A0x5f5c8891@@@Z 100163ca f   libucrt:argv_wildcards.obj
 0001:00015714       ?expand_if_necessary@?$argument_list@D@?A0x5f5c8891@@AAEHXZ 10016714 f   libucrt:argv_wildcards.obj
 0001:000157a6       ??$__acrt_convert_wcs_mbs_cp@_WDV<lambda_0fec1a7b3f42a53036604e18c2d5e07e>@@U__crt_win32_buffer_no_resizing@@@@YAHQB_WAAV?$__crt_win32_buffer@DU__crt_win32_buffer_no_resizing@@@@ABV<lambda_0fec1a7b3f42a53036604e18c2d5e07e>@@I@Z 100167a6 f   libucrt:getmodulefilenamea.obj
 0001:00015949       ??$?RV<lambda_ceb1ee4838e85a9d631eb091e2fbe199>@@AAV<lambda_ae742caa10f662c28703da3d2ea5e57e>@@V<lambda_cd08b5d6af4937fe54fc07d0c9bf6b37>@@@?$__crt_seh_guarded_call@X@@QAEX$$QAV<lambda_ceb1ee4838e85a9d631eb091e2fbe199>@@AAV<lambda_ae742caa10f662c28703da3d2ea5e57e>@@$$QAV<lambda_cd08b5d6af4937fe54fc07d0c9bf6b37>@@@Z 10016949 f   libucrt:mbctype.obj
 0001:00015996       ??R<lambda_ae742caa10f662c28703da3d2ea5e57e>@@QBEXXZ 10016996 f   libucrt:mbctype.obj
 0001:00015a19       ?CPtoLocaleName@@YAPB_WH@Z 10016a19 f   libucrt:mbctype.obj
 0001:00015a57       ?getSystemCP@@YAHH@Z       10016a57 f   libucrt:mbctype.obj
 0001:00015ac8       ?setSBCS@@YAXPAU__crt_multibyte_data@@@Z 10016ac8 f   libucrt:mbctype.obj
 0001:00015b2d       ?setSBUpLow@@YAXPAU__crt_multibyte_data@@@Z 10016b2d f   libucrt:mbctype.obj
 0001:00015cad       ?setmbcp_internal@@YAHH_NQAU__acrt_ptd@@QAPAU__crt_multibyte_data@@@Z 10016cad f   libucrt:mbctype.obj
 0001:00015dc1       ?update_thread_multibyte_data_internal@@YAPAU__crt_multibyte_data@@QAU__acrt_ptd@@QAPAU1@@Z 10016dc1 f   libucrt:mbctype.obj
 0001:000160af       _memcpy_s                  100170af f   libucrt:cfout.obj
 0001:000160af       _memcpy_s                  100170af f   libucrt:mbctype.obj
 0001:00016130       ?x_ismbbtype_l@@YAHPAU__crt_locale_pointers@@IHH@Z 10017130 f   libucrt:ismbbyte.obj
 0001:000162eb       ?find_end_of_double_null_terminated_sequence@@YAPB_WQB_W@Z 100172eb f   libucrt:get_environment_from_os.obj
 0001:0001645a       ??$?RV<lambda_cbab9ec6f41b0180b23cc171c22676b0>@@AAV<lambda_44731a7d0e6d81c3e6aa82d741081786>@@V<lambda_4b292cb8dd18144e164572427af410ab>@@@?$__crt_seh_guarded_call@P6AXH@Z@@QAEP6AXH@Z$$QAV<lambda_cbab9ec6f41b0180b23cc171c22676b0>@@AAV<lambda_44731a7d0e6d81c3e6aa82d741081786>@@$$QAV<lambda_4b292cb8dd18144e164572427af410ab>@@@Z 1001745a f   libucrt:signal.obj
 0001:000164be       ?get_global_action_nolock@@YAPAP6AXH@ZH@Z 100174be f   libucrt:signal.obj
 0001:00016500       ?siglookup@@YAPAU__crt_signal_action_t@@HQAU1@@Z 10017500 f   libucrt:signal.obj
 0001:000167b9       ??$?RV<lambda_2866be3712abc81a800a822484c830d8>@@AAV<lambda_39ca0ed439415581b5b15c265174cece>@@V<lambda_2b24c74d71094a6cd0cb82e44167d71b>@@@?$__crt_seh_guarded_call@X@@QAEX$$QAV<lambda_2866be3712abc81a800a822484c830d8>@@AAV<lambda_39ca0ed439415581b5b15c265174cece>@@$$QAV<lambda_2b24c74d71094a6cd0cb82e44167d71b>@@@Z 100177b9 f   libucrt:fflush.obj
 0001:00016845       ??$?RV<lambda_2cc53f568c5a2bb6f192f930a45d44ea>@@AAV<lambda_ab61a845afdef5b7c387490eaf3616ee>@@V<lambda_c2ffc0b7726aa6be21d5f0026187e748>@@@?$__crt_seh_guarded_call@X@@QAEX$$QAV<lambda_2cc53f568c5a2bb6f192f930a45d44ea>@@AAV<lambda_ab61a845afdef5b7c387490eaf3616ee>@@$$QAV<lambda_c2ffc0b7726aa6be21d5f0026187e748>@@@Z 10017845 f   libucrt:fflush.obj
 0001:000168f1       ?common_flush_all@@YAH_N@Z 100178f1 f   libucrt:fflush.obj
 0001:0001693e       ?common_flush_all_should_try_to_flush_stream@@YA_NV__crt_stdio_stream@@QAH@Z 1001793e f   libucrt:fflush.obj
 0001:00016971       ?is_stream_flushable_or_commitable@@YA_NJ@Z 10017971 f   libucrt:fflush.obj
 0001:00016e7a       ?GetTableIndexFromLocaleName@@YAHPB_W@Z 10017e7a f   libucrt:lcidtoname_downlevel.obj
 0001:00016f30       ??R<lambda_3d301b9e52f5099be73030e1f0bf487e>@@QBEIPBD@Z 10017f30 f   libucrt:mbrtowc.obj
 0001:000170b6       ?should_round_up@@YA_NQBDHW4__acrt_has_trailing_digits@@W4__acrt_rounding_mode@@@Z 100180b6 f   libucrt:_fptostr.obj
 0001:00018e54       ?free_crt_array_internal@@YAXQAPBXI@Z 10019e54 f   libucrt:inittime.obj
 0001:0001981e       ??$common_tcsncpy_s@D@@YAHQADIQBDI@Z 1001a81e f   libucrt:strncpy_s.obj
 0001:000198e0       $$000000                   1001a8e0     libucrt:strpbrk.obj
 0001:000199c4       ?__acrt_LCMapStringA_stat@@YAHPAU__crt_locale_pointers@@PB_WKPBDHPADHHH@Z 1001a9c4 f   libucrt:lcmapstringa.obj
 0001:00019bf7       ?initialize_multibyte@@YAHXZ 1001abf7 f   libucrt:multibyte_initializer.obj
 0001:00019c06       ??$?RV<lambda_9e9de3de5fa147e2223d7db92bc10aa6>@@AAV<lambda_38ce7e780aa69e748d6df282ebc68efe>@@V<lambda_8ca6da459f0f6780f1cff60fdc3d00e5>@@@?$__crt_seh_guarded_call@H@@QAEH$$QAV<lambda_9e9de3de5fa147e2223d7db92bc10aa6>@@AAV<lambda_38ce7e780aa69e748d6df282ebc68efe>@@$$QAV<lambda_8ca6da459f0f6780f1cff60fdc3d00e5>@@@Z 1001ac06 f   libucrt:commit.obj
 0001:00019d25       ?write_double_translated_ansi_nolock@@YA?AUwrite_result@?A0x17268360@@HQBDI@Z 1001ad25 f   libucrt:write.obj
 0001:0001a0d1       ?write_double_translated_unicode_nolock@@YA?AUwrite_result@?A0x17268360@@QBDI@Z 1001b0d1 f   libucrt:write.obj
 0001:0001a139       ?write_requires_double_translation_nolock@@YA_NH@Z 1001b139 f   libucrt:write.obj
 0001:0001a1aa       ?write_text_ansi_nolock@@YA?AUwrite_result@?A0x17268360@@HQBDI@Z 1001b1aa f   libucrt:write.obj
 0001:0001a285       ?write_text_utf16le_nolock@@YA?AUwrite_result@?A0x17268360@@HQBDI@Z 1001b285 f   libucrt:write.obj
 0001:0001a36e       ?write_text_utf8_nolock@@YA?AUwrite_result@?A0x17268360@@HQBDI@Z 1001b36e f   libucrt:write.obj
 0001:0001aa90       $$000000                   1001ba90     libucrt:log10_impl.obj
 0001:0001aba0       $$000000                   1001bba0     libucrt:ceil_pentium4.obj
 0001:0001acbd       ?to_abstract_control@@YA?AW4__acrt_fenv_abstract_control@@W4__acrt_fenv_machine_sse_control@@@Z 1001bcbd f   libucrt:_fenvutils.obj
 0001:0001ad79       ?to_abstract_control@@YA?AW4__acrt_fenv_abstract_control@@W4__acrt_fenv_machine_x87_control@@@Z 1001bd79 f   libucrt:_fenvutils.obj
 0001:0001ae32       ?to_machine_sse_control@@YA?AW4__acrt_fenv_machine_sse_control@@W4__acrt_fenv_abstract_control@@@Z 1001be32 f   libucrt:_fenvutils.obj
 0001:0001aeff       ?to_machine_x87_control@@YA?AW4__acrt_fenv_machine_x87_control@@W4__acrt_fenv_abstract_control@@@Z 1001beff f   libucrt:_fenvutils.obj
 0001:0001b293       ??$common_lseek_nolock@_J@@YA_JH_JH@Z 1001c293 f   libucrt:lseek.obj
 0001:0001b479       ___hw_cw_sse2              1001c479 f   libucrt:ieee87.obj
 0001:0001b8ff       __hw_cw                    1001c8ff f   libucrt:ieee87.obj
 0001:0001b9b0       $$000000                   1001c9b0     libucrt:log10_pentium4.obj
 0001:0001bc40       $$000000                   1001cc40     libucrt:87tran.obj
 0001:0001be50       $$000000                   1001ce50     libucrt:87disp.obj
 0001:0001c0b0       $$000000                   1001d0b0     libucrt:common.obj
 0001:0001c240       $$000000                   1001d240     libucrt:genexcep.obj
 0001:0001c53c       ??$?RV<lambda_218ce3db14220d0be481dae8ef3383b6>@@AAV<lambda_628dfdc04ba53c8bfc02c9951375f3f5>@@V<lambda_57dc472bd5c9d5f3b2cbca59b8a843ae>@@@?$__crt_seh_guarded_call@H@@QAEH$$QAV<lambda_218ce3db14220d0be481dae8ef3383b6>@@AAV<lambda_628dfdc04ba53c8bfc02c9951375f3f5>@@$$QAV<lambda_57dc472bd5c9d5f3b2cbca59b8a843ae>@@@Z 1001d53c f   libucrt:close.obj
 0001:0001c730       $$000000                   1001d730     libucrt:_strnicm.obj
 0001:0001c791       ?__dcrt_lowio_initialize_console_output@@YAXXZ 1001d791 f   libucrt:initcon.obj
 0001:0001d670       $$000000                   1001e670     LIBCMT:ulldvrm.obj
 0001:0001d710       $$000000                   1001e710     LIBCMT:llmul.obj
 0001:0001d750       $$000000                   1001e750     LIBCMT:lldvrm.obj
 0001:0001d830       $$000000                   1001e830     LIBCMT:llshl.obj
 0001:0001d850       $$000000                   1001e850     LIBCMT:ullshr.obj
 0001:0001d870       $$000000                   1001e870     LIBCMT:ftol2.obj
 0001:0001db10       $$000000                   1001eb10     libvcruntime:strrchr.obj
 0001:0001dc50       $$000000                   1001ec50     libvcruntime:strchr.obj
 0001:0001ddf3       __ehhandler$??2@YAPAXIABUnothrow_t@std@@@Z 1001edf3 f   LIBCMT:new_scalar_nothrow.obj
 0001:0001de0e       __ehhandler$?CallUnexpected@@YAXPBU_s_ESTypeList@@@Z 1001ee0e f   libvcruntime:frame.obj
 0001:0001de29       ??__F_AtlComModule@ATL@@YAXXZ 1001ee29 f   OposVariant.obj
 0001:0001de33       ??__F_AtlWinModule@ATL@@YAXXZ 1001ee33 f   OposVariant.obj
 0001:0001de4d       ??__F_Module@@YAXXZ        1001ee4d f   Keylock.obj
 0001:0001de61       ??__F_AtlBaseModule@ATL@@YAXXZ 1001ee61 f   atls:atlbase.obj
 0002:00000304       ?_AtlBaseModule$initializer$@ATL@@3P6AXXZA 1001f304     atls:atlbase.obj
 0002:00000308       ?_AtlComModule$initializer$@ATL@@3P6AXXZA 1001f308     OposVariant.obj
 0002:0000030c       ?_AtlWinModule$initializer$@ATL@@3P6AXXZA 1001f30c     OposVariant.obj
 0002:00000310       ?_Module$initializer$@@3P6AXXZA 1001f310     Keylock.obj
 0002:00000314       ??pConnMap$initializer$@?$IConnectionPointContainerImpl@VCOPOSKeylock@@@ATL@@0P6AXXZA@@3P6AXXZA 1001f314     Keylock.obj
 0002:00000320       ?__scrt_initialize_tss_var@@3P6AHXZA 1001f320     LIBCMT:thread_safe_statics.obj
 0002:00001788       _GS_ExceptionPointers      10020788     LIBCMT:gs_report.obj
 0002:00001918       ?tokenTable@@3QBUStringLiteral@@B 10020918     libvcruntime:undname.obj
 0002:00001998       ?nameTable@@3QBUStringLiteral@@B 10020998     libvcruntime:undname.obj
 0002:00001c30       ?rttiTable@@3QBUStringLiteral@@B 10020c30     libvcruntime:undname.obj
 0002:00001c58       ?IndirectionName@@3QBUStringLiteral@@B 10020c58     libvcruntime:undname.obj
 0002:00001c88       ?PrefixName@@3QBUStringLiteral@@B 10020c88     libvcruntime:undname.obj
 0002:000022b8       ?module_names@?A0x9d0f8d90@@3QBQB_WB 100212b8     libvcruntime:winapi_downlevel.obj
 0002:00002360       ?candidate_modules@?1??try_get_FlsAlloc@@YAP6GKP6GXPAX@Z@ZXZ@4QBW4module_id@?A0x9d0f8d90@@B 10021360     libvcruntime:winapi_downlevel.obj
 0002:00002374       ?candidate_modules@?1??try_get_FlsFree@@YAP6GHK@ZXZ@4QBW4module_id@?A0x9d0f8d90@@B 10021374     libvcruntime:winapi_downlevel.obj
 0002:00002384       ?candidate_modules@?1??try_get_FlsGetValue@@YAP6GPAXK@ZXZ@4QBW4module_id@?A0x9d0f8d90@@B 10021384     libvcruntime:winapi_downlevel.obj
 0002:00002398       ?candidate_modules@?1??try_get_FlsSetValue@@YAP6GHKPAX@ZXZ@4QBW4module_id@?A0x9d0f8d90@@B 10021398     libvcruntime:winapi_downlevel.obj
 0002:000023ac       ?candidate_modules@?1??try_get_InitializeCriticalSectionEx@@YAP6GHPAU_RTL_CRITICAL_SECTION@@KK@ZXZ@4QBW4module_id@?A0x9d0f8d90@@B 100213ac     libvcruntime:winapi_downlevel.obj
 0002:000023d0       ?errtable@@3QBUerrentry@?A0x31fdb9ec@@B 100213d0     libucrt:errno.obj
 0002:00002a18       ___acrt_initializers       10021a18     libucrt:initialization.obj
 0002:00002a98       ?module_names@?A0x391cf84c@@3QBQB_WB 10021a98     libucrt:winapi_thunks.obj
 0002:00002f10       ?candidate_modules@?1??try_get_AreFileApisANSI@@YAP6GHXZXZ@4QBW4module_id@?A0x391cf84c@@B 10021f10     libucrt:winapi_thunks.obj
 0002:00002f24       ?candidate_modules@?1??try_get_FlsAlloc@@YAP6GKP6GXPAX@Z@ZXZ@4QBW4module_id@?A0x391cf84c@@B 10021f24     libucrt:winapi_thunks.obj
 0002:00002f2c       ?candidate_modules@?1??try_get_FlsFree@@YAP6GHK@ZXZ@4QBW4module_id@?A0x391cf84c@@B 10021f2c     libucrt:winapi_thunks.obj
 0002:00002f34       ?candidate_modules@?1??try_get_FlsGetValue@@YAP6GPAXK@ZXZ@4QBW4module_id@?A0x391cf84c@@B 10021f34     libucrt:winapi_thunks.obj
 0002:00002f3c       ?candidate_modules@?1??try_get_FlsSetValue@@YAP6GHKPAX@ZXZ@4QBW4module_id@?A0x391cf84c@@B 10021f3c     libucrt:winapi_thunks.obj
 0002:00002f44       ?candidate_modules@?1??try_get_InitializeCriticalSectionEx@@YAP6GHPAU_RTL_CRITICAL_SECTION@@KK@ZXZ@4QBW4module_id@?A0x391cf84c@@B 10021f44     libucrt:winapi_thunks.obj
 0002:00002f4c       ?candidate_modules@?1??try_get_LCMapStringEx@@YAP6GHPB_WK0HPA_WHPAU_nlsversioninfo@@PAXJ@ZXZ@4QBW4module_id@?A0x391cf84c@@B 10021f4c     libucrt:winapi_thunks.obj
 0002:00002f64       ?candidate_modules@?1??try_get_LocaleNameToLCID@@YAP6GKPB_WK@ZXZ@4QBW4module_id@?A0x391cf84c@@B 10021f64     libucrt:winapi_thunks.obj
 0002:00002f80       ?candidate_modules@?1??try_get_AppPolicyGetProcessTerminationMethod@@YAP6GJPAXPAW4AppPolicyProcessTerminationMethod@@@ZXZ@4QBW4module_id@?A0x391cf84c@@B 10021f80     libucrt:winapi_thunks.obj
 0002:00002fac       ?candidate_modules@?1??try_get_SetThreadStackGuarantee@@YAP6GHPAK@ZXZ@4QBW4module_id@?A0x391cf84c@@B 10021fac     libucrt:winapi_thunks.obj
 0002:00002fd0       ?strings@?1??fp_format_nan_or_infinity@@YAHW4__acrt_fp_class@@_NPADI1@Z@4QAY03QBDA 10021fd0     libucrt:cvt.obj
 0002:00003518       ?_mb_locale_names@@3QBQB_WB 10022518     libucrt:mbctype.obj
 0002:00003d60       ?LcidToLocaleNameTable@?A0x881e4c05@@3QBULcidToLocaleName@1@B 10022d60     libucrt:lcidtoname_downlevel.obj
 0002:00004e88       ?LocaleNameToIndexTable@?A0x881e4c05@@3QBULocaleNameIndex@1@B 10023e88     libucrt:lcidtoname_downlevel.obj
 0002:000067c0       LOG_name                   100257c0     libucrt:log10_impl.obj
 0002:000067d0       _One                       100257d0     libucrt:ceil_pentium4.obj
 0002:000067e0       _Bns                       100257e0     libucrt:ceil_pentium4.obj
 0002:000067f0       _Zero                      100257f0     libucrt:ceil_pentium4.obj
 0002:00006800       _S                         10025800     libucrt:ceil_pentium4.obj
 0002:00006810       _NegZero                   10025810     libucrt:ceil_pentium4.obj
 0002:00006820       emask                      10025820     libucrt:log10_pentium4.obj
 0002:00006830       CC                         10025830     libucrt:log10_pentium4.obj
 0002:00006840       Magic                      10025840     libucrt:log10_pentium4.obj
 0002:00006850       hi_mask                    10025850     libucrt:log10_pentium4.obj
 0002:00006860       LOG10_2                    10025860     libucrt:log10_pentium4.obj
 0002:00006870       place_L                    10025870     libucrt:log10_pentium4.obj
 0002:00006890       One                        10025890     libucrt:log10_pentium4.obj
 0002:000068a0       Zero                       100258a0     libucrt:log10_pentium4.obj
 0002:000068b0       Two52                      100258b0     libucrt:log10_pentium4.obj
 0002:000068c0       Infs                       100258c0     libucrt:log10_pentium4.obj
 0002:000068d0       NaN                        100258d0     libucrt:log10_pentium4.obj
 0002:000068e0       coeff                      100258e0     libucrt:log10_pentium4.obj
 0002:0000693e       _log2max                   1002593e     libucrt:87tran.obj
 0002:00006948       _smallarg                  10025948     libucrt:87tran.obj
 0002:00006952       _half                      10025952     libucrt:87tran.obj
 0002:0000699e       One                        1002599e     libucrt:87disp.obj
 0002:000069a6       Three                      100259a6     libucrt:87disp.obj
 0002:000069ae       XAMtoTagTab                100259ae     libucrt:87disp.obj
 0002:000069c0       One                        100259c0     libucrt:common.obj
 0002:000069d4       DblMax                     100259d4     libucrt:common.obj
 0002:000069dc       DblMin                     100259dc     libucrt:common.obj
 0002:000069e4       IeeeAdjO                   100259e4     libucrt:common.obj
 0002:000069ec       IeeeAdjU                   100259ec     libucrt:common.obj
 0002:000069f4       _infinity                  100259f4     libucrt:common.obj
 0002:000069fc       _zero                      100259fc     libucrt:common.obj
 0002:00006a48       _over                      10025a48     libucrt:fpctrl.obj
 0002:00006a54       _under                     10025a54     libucrt:fpctrl.obj
 0002:00007288       ?_names@?1??_get_fname@@9@9 10026288     libucrt:fpexcept.obj
 0002:00007430       two32                      10026430     LIBCMT:ftol2.obj
 0002:00007434       two63                      10026434     LIBCMT:ftol2.obj
 0002:00007438       _NaN                       10026438     LIBCMT:ftol2.obj
 0002:00007af0       __sehtable$?_AtlVerifyStackAvailable@_ATL_SAFE_ALLOCA_IMPL@ATL@@YA_NK@Z 10026af0     Keylock.obj
 0002:00007b10       __sehtable$___scrt_is_nonwritable_in_current_image 10026b10     LIBCMT:utility.obj
 0002:00007b2c       __catchsym$??2@YAPAXIABUnothrow_t@std@@@Z$2 10026b2c     LIBCMT:new_scalar_nothrow.obj
 0002:00007b3c       __unwindtable$??2@YAPAXIABUnothrow_t@std@@@Z 10026b3c     LIBCMT:new_scalar_nothrow.obj
 0002:00007b4c       __tryblocktable$??2@YAPAXIABUnothrow_t@std@@@Z 10026b4c     LIBCMT:new_scalar_nothrow.obj
 0002:00007b60       __ehfuncinfo$??2@YAPAXIABUnothrow_t@std@@@Z 10026b60     LIBCMT:new_scalar_nothrow.obj
 0002:00007b88       __sehtable$?dllmain_crt_process_attach@@YAHQAUHINSTANCE__@@QAX@Z 10026b88     LIBCMT:dll_dllmain.obj
 0002:00007ba8       __sehtable$?dllmain_crt_process_detach@@YAH_N@Z 10026ba8     LIBCMT:dll_dllmain.obj
 0002:00007bd0       __sehtable$?dllmain_dispatch@@YAHQAUHINSTANCE__@@KQAX@Z 10026bd0     LIBCMT:dll_dllmain.obj
 0002:00007c80       __sehtable$___DestructExceptionObject 10026c80     libvcruntime:ehhelpers.obj
 0002:00007ca0       __sehtable$?FrameUnwindToState@__FrameHandler3@@SAXPAUEHRegistrationNode@@PAXPBU_s_FuncInfo@@H@Z 10026ca0     libvcruntime:frame.obj
 0002:00007cc8       __sehtable$?CallCatchBlock@@YAPAXPAUEHExceptionRecord@@PAUEHRegistrationNode@@PAU_CONTEXT@@PBU_s_FuncInfo@@PAXHK@Z 10026cc8     libvcruntime:frame.obj
 0002:00007cf0       __catchsym$?CallUnexpected@@YAXPBU_s_ESTypeList@@@Z$2 10026cf0     libvcruntime:frame.obj
 0002:00007d00       __unwindtable$?CallUnexpected@@YAXPBU_s_ESTypeList@@@Z 10026d00     libvcruntime:frame.obj
 0002:00007d10       __tryblocktable$?CallUnexpected@@YAXPBU_s_ESTypeList@@@Z 10026d10     libvcruntime:frame.obj
 0002:00007d24       __ehfuncinfo$?CallUnexpected@@YAXPBU_s_ESTypeList@@@Z 10026d24     libvcruntime:frame.obj
 0002:00007d48       __sehtable$??$BuildCatchObjectHelperInternal@V__FrameHandler3@@@@YAHPAUEHExceptionRecord@@PAXPBU_s_HandlerType@@PBU_s_CatchableType@@@Z 10026d48     libvcruntime:frame.obj
 0002:00007d68       __sehtable$??$BuildCatchObjectInternal@V__FrameHandler3@@@@YAXPAUEHExceptionRecord@@PAXPBU_s_HandlerType@@PBU_s_CatchableType@@@Z 10026d68     libvcruntime:frame.obj
 0002:00007dc0       __sehtable$??R<lambda_6e4b09c48022b2350581041d5f6b0c4c>@@QBE@XZ 10026dc0     libucrt:exit.obj
 0002:00007de0       __sehtable$??$?RV<lambda_03b1d95aef87969028cfba75ccab2455>@@AAV<lambda_6e4b09c48022b2350581041d5f6b0c4c>@@V<lambda_22bdf7517842c4b3e53723af5aa32b9e>@@@?$__crt_seh_guarded_call@X@@QAEX$$QAV<lambda_03b1d95aef87969028cfba75ccab2455>@@AAV<lambda_6e4b09c48022b2350581041d5f6b0c4c>@@$$QAV<lambda_22bdf7517842c4b3e53723af5aa32b9e>@@@Z 10026de0     libucrt:exit.obj
 0002:00007e00       __sehtable$??$?RV<lambda_8e746cf0007f6ed984d6f78af1fec997>@@AAV<lambda_22ebabd17bc4fa466a2aca6d8deb888d>@@V<lambda_18ed0c0b38a6dc0daf1e7ac6d6adf05e>@@@?$__crt_seh_guarded_call@H@@QAEH$$QAV<lambda_8e746cf0007f6ed984d6f78af1fec997>@@AAV<lambda_22ebabd17bc4fa466a2aca6d8deb888d>@@$$QAV<lambda_18ed0c0b38a6dc0daf1e7ac6d6adf05e>@@@Z 10026e00     libucrt:onexit.obj
 0002:00007e20       __sehtable$??$?RV<lambda_69a2805e680e0e292e8ba93315fe43a8>@@AAV<lambda_f03950bc5685219e0bcd2087efbe011e>@@V<lambda_03fcd07e894ec930e3f35da366ca99d6>@@@?$__crt_seh_guarded_call@H@@QAEH$$QAV<lambda_69a2805e680e0e292e8ba93315fe43a8>@@AAV<lambda_f03950bc5685219e0bcd2087efbe011e>@@$$QAV<lambda_03fcd07e894ec930e3f35da366ca99d6>@@@Z 10026e20     libucrt:onexit.obj
 0002:00007e40       __sehtable$__query_new_handler 10026e40     libucrt:new_handler.obj
 0002:00007e60       __sehtable$_terminate      10026e60     libucrt:terminate.obj
 0002:00007e80       __sehtable$??$?RV<lambda_15ade71b0218206bbe3333a0c9b79046>@@AAV<lambda_da44e0f8b0f19ba52fefafb335991732>@@V<lambda_207f2d024fc103971653565357d6cd41>@@@?$__crt_seh_guarded_call@X@@QAEX$$QAV<lambda_15ade71b0218206bbe3333a0c9b79046>@@AAV<lambda_da44e0f8b0f19ba52fefafb335991732>@@$$QAV<lambda_207f2d024fc103971653565357d6cd41>@@@Z 10026e80     libucrt:per_thread_data.obj
 0002:00007ea0       __sehtable$??$?RV<lambda_a7e850c220f1c8d1e6efeecdedd162c6>@@AAV<lambda_46720907175c18b6c9d2717bc0d2d362>@@V<lambda_9048902d66e8d99359bc9897bbb930a8>@@@?$__crt_seh_guarded_call@X@@QAEX$$QAV<lambda_a7e850c220f1c8d1e6efeecdedd162c6>@@AAV<lambda_46720907175c18b6c9d2717bc0d2d362>@@$$QAV<lambda_9048902d66e8d99359bc9897bbb930a8>@@@Z 10026ea0     libucrt:per_thread_data.obj
 0002:00007ec0       __sehtable$??$?RV<lambda_38edbb1296d33220d7e4dd0ed76b244a>@@AAV<lambda_5ce1d447e08cb34b2473517608e21441>@@V<lambda_fb385d3da700c9147fc39e65dd577a8c>@@@?$__crt_seh_guarded_call@X@@QAEX$$QAV<lambda_38edbb1296d33220d7e4dd0ed76b244a>@@AAV<lambda_5ce1d447e08cb34b2473517608e21441>@@$$QAV<lambda_fb385d3da700c9147fc39e65dd577a8c>@@@Z 10026ec0     libucrt:per_thread_data.obj
 0002:00007ee0       __sehtable$??$?RV<lambda_6affb1475c98b40b75cdec977db92e3c>@@AAV<lambda_b8d4b9c228a6ecc3f80208dbb4b4a104>@@V<lambda_608742c3c92a14382c1684fc64f96c88>@@@?$__crt_seh_guarded_call@X@@QAEX$$QAV<lambda_6affb1475c98b40b75cdec977db92e3c>@@AAV<lambda_b8d4b9c228a6ecc3f80208dbb4b4a104>@@$$QAV<lambda_608742c3c92a14382c1684fc64f96c88>@@@Z 10026ee0     libucrt:per_thread_data.obj
 0002:00007f00       __sehtable$??$?RV<lambda_e5124f882df8998aaf41531e079ba474>@@AAV<lambda_3e16ef9562a7dcce91392c22ab16ea36>@@V<lambda_e25ca0880e6ef98be67edffd8c599615>@@@?$__crt_seh_guarded_call@X@@QAEX$$QAV<lambda_e5124f882df8998aaf41531e079ba474>@@AAV<lambda_3e16ef9562a7dcce91392c22ab16ea36>@@$$QAV<lambda_e25ca0880e6ef98be67edffd8c599615>@@@Z 10026f00     libucrt:wsetlocale.obj
 0002:00007f20       __sehtable$___acrt_initialize_lowio 10026f20     libucrt:ioinit.obj
 0002:00007f40       __sehtable$?update_thread_multibyte_data_internal@@YAPAU__crt_multibyte_data@@QAU__acrt_ptd@@QAPAU1@@Z 10026f40     libucrt:mbctype.obj
 0002:00007f60       __sehtable$??$?RV<lambda_ceb1ee4838e85a9d631eb091e2fbe199>@@AAV<lambda_ae742caa10f662c28703da3d2ea5e57e>@@V<lambda_cd08b5d6af4937fe54fc07d0c9bf6b37>@@@?$__crt_seh_guarded_call@X@@QAEX$$QAV<lambda_ceb1ee4838e85a9d631eb091e2fbe199>@@AAV<lambda_ae742caa10f662c28703da3d2ea5e57e>@@$$QAV<lambda_cd08b5d6af4937fe54fc07d0c9bf6b37>@@@Z 10026f60     libucrt:mbctype.obj
 0002:00007f80       __sehtable$_raise          10026f80     libucrt:signal.obj
 0002:00007fa0       __sehtable$??$?RV<lambda_cbab9ec6f41b0180b23cc171c22676b0>@@AAV<lambda_44731a7d0e6d81c3e6aa82d741081786>@@V<lambda_4b292cb8dd18144e164572427af410ab>@@@?$__crt_seh_guarded_call@P6AXH@Z@@QAEP6AXH@Z$$QAV<lambda_cbab9ec6f41b0180b23cc171c22676b0>@@AAV<lambda_44731a7d0e6d81c3e6aa82d741081786>@@$$QAV<lambda_4b292cb8dd18144e164572427af410ab>@@@Z 10026fa0     libucrt:signal.obj
 0002:00007fc0       __sehtable$??$?RV<lambda_2866be3712abc81a800a822484c830d8>@@AAV<lambda_39ca0ed439415581b5b15c265174cece>@@V<lambda_2b24c74d71094a6cd0cb82e44167d71b>@@@?$__crt_seh_guarded_call@X@@QAEX$$QAV<lambda_2866be3712abc81a800a822484c830d8>@@AAV<lambda_39ca0ed439415581b5b15c265174cece>@@$$QAV<lambda_2b24c74d71094a6cd0cb82e44167d71b>@@@Z 10026fc0     libucrt:fflush.obj
 0002:00007fe0       __sehtable$??$?RV<lambda_2cc53f568c5a2bb6f192f930a45d44ea>@@AAV<lambda_ab61a845afdef5b7c387490eaf3616ee>@@V<lambda_c2ffc0b7726aa6be21d5f0026187e748>@@@?$__crt_seh_guarded_call@X@@QAEX$$QAV<lambda_2cc53f568c5a2bb6f192f930a45d44ea>@@AAV<lambda_ab61a845afdef5b7c387490eaf3616ee>@@$$QAV<lambda_c2ffc0b7726aa6be21d5f0026187e748>@@@Z 10026fe0     libucrt:fflush.obj
 0002:00008000       __sehtable$___acrt_update_thread_locale_data 10027000     libucrt:locale_refcounting.obj
 0002:00008020       __sehtable$__fcloseall     10027020     libucrt:closeall.obj
 0002:00008040       __sehtable$___acrt_lowio_ensure_fh_exists 10027040     libucrt:osfinfo.obj
 0002:00008060       __sehtable$??$?RV<lambda_9e9de3de5fa147e2223d7db92bc10aa6>@@AAV<lambda_38ce7e780aa69e748d6df282ebc68efe>@@V<lambda_8ca6da459f0f6780f1cff60fdc3d00e5>@@@?$__crt_seh_guarded_call@H@@QAEH$$QAV<lambda_9e9de3de5fa147e2223d7db92bc10aa6>@@AAV<lambda_38ce7e780aa69e748d6df282ebc68efe>@@$$QAV<lambda_8ca6da459f0f6780f1cff60fdc3d00e5>@@@Z 10027060     libucrt:commit.obj
 0002:00008080       __sehtable$__write         10027080     libucrt:write.obj
 0002:000080a0       __sehtable$_fclose         100270a0     libucrt:fclose.obj
 0002:000080c0       __sehtable$??$?RV<lambda_218ce3db14220d0be481dae8ef3383b6>@@AAV<lambda_628dfdc04ba53c8bfc02c9951375f3f5>@@V<lambda_57dc472bd5c9d5f3b2cbca59b8a843ae>@@@?$__crt_seh_guarded_call@H@@QAEH$$QAV<lambda_218ce3db14220d0be481dae8ef3383b6>@@AAV<lambda_628dfdc04ba53c8bfc02c9951375f3f5>@@$$QAV<lambda_57dc472bd5c9d5f3b2cbca59b8a843ae>@@@Z 100270c0     libucrt:close.obj
 0002:000080e0       __sehtable$___set_fpsr_sse2 100270e0     libucrt:fpctrl.obj
 0002:00008100       __sehtable$__IsNonwritableInCurrentImage 10027100     LIBCMT:pesect.obj
 0002:00008130       .edata                     10027130     OPOSKeylock.exp
 0002:00008158       rgpv                       10027158     OPOSKeylock.exp
 0002:00008168       rgszName                   10027168     OPOSKeylock.exp
 0002:00008178       rgwOrd                     10027178     OPOSKeylock.exp
 0002:00008180       szName                     10027180     OPOSKeylock.exp
 0002:00008190       $N00001                    10027190     OPOSKeylock.exp
 0002:000081a0       $N00002                    100271a0     OPOSKeylock.exp
 0002:000081b2       $N00003                    100271b2     OPOSKeylock.exp
 0002:000081c4       $N00004                    100271c4     OPOSKeylock.exp
 0002:000087d2       .idata$6                   100277d2     kernel32:KERNEL32.dll
 0002:000089e6       .idata$6                   100279e6     user32:USER32.dll
 0002:00008b1a       .idata$6                   10027b1a     gdi32:GDI32.dll
 0002:00008bc0       .idata$6                   10027bc0     advapi32:ADVAPI32.dll
 0002:00008cdc       .idata$6                   10027cdc     ole32:ole32.dll
 0002:00008ce6       .idata$6                   10027ce6     oleaut32:OLEAUT32.dll
 0003:00000110       ?ObjectMap@@3PAU_ATL_OBJMAP_ENTRY30@ATL@@A 10029110     Keylock.obj
 0003:000001c8       ?s_SOMethodNames@@3PAPADA  100291c8     KeylockImpl.obj
 0003:00000210       ?s_RequiredMethodsPerRelease@@3PAHA 10029210     KeylockImpl.obj
 0003:00000260       ?__vcrt_flsindex@@3KA      10029260     libvcruntime:per_thread_data.obj
 0003:00000280       ?errno_no_memory@@3HA      10029280     libucrt:errno.obj
 0003:00000284       ?doserrno_no_memory@@3KA   10029284     libucrt:errno.obj
 0003:00000290       ?__acrt_flsindex@@3KA      10029290     libucrt:per_thread_data.obj
 0003:00000628       __mbctypes                 10029628     libucrt:mbctype.obj
 0003:00000730       __mbcasemaps               10029730     libucrt:mbctype.obj
 0003:00000830       ?__rgctypeflag@@3PADA      10029830     libucrt:mbctype.obj
 0003:00000838       ?__rgcode_page_info@@3PAUcode_page_info@@A 10029838     libucrt:mbctype.obj
 0003:00000a90       ?__dcrt_lowio_console_output_handle@@3PAXA 10029a90     libucrt:initcon.obj
 0003:00000a94       ?__DAZ_ENABLED@?1??__set_fpsr_sse2@@9@9 10029a94     libucrt:fpctrl.obj
 0003:00000c28       ?is_initialized_as_dll@@3_NA 10029c28     LIBCMT:utility.obj
 0003:00000c29       ?module_local_atexit_table_initialized@@3_NA 10029c29     LIBCMT:utility.obj
 0003:00000c2c       ?module_local_atexit_table@@3U_onexit_table_t@@A 10029c2c     LIBCMT:utility.obj
 0003:00000c38       ?module_local_at_quick_exit_table@@3U_onexit_table_t@@A 10029c38     LIBCMT:utility.obj
 0003:00000c44       ?g_tss_cv@@3U_RTL_CONDITION_VARIABLE@@A 10029c44     LIBCMT:thread_safe_statics.obj
 0003:00000c48       ?g_tss_event@@3PAXA        10029c48     LIBCMT:thread_safe_statics.obj
 0003:00000c4c       ?g_tss_mutex@@3U_RTL_CRITICAL_SECTION@@A 10029c4c     LIBCMT:thread_safe_statics.obj
 0003:00000c64       ?g_sleep_condition_variable_cs@@3P6GHPAU_RTL_CONDITION_VARIABLE@@PAU_RTL_CRITICAL_SECTION@@K@ZA 10029c64     LIBCMT:thread_safe_statics.obj
 0003:00000c68       ?g_wake_all_condition_variable@@3P6GXPAU_RTL_CONDITION_VARIABLE@@@ZA 10029c68     LIBCMT:thread_safe_statics.obj
 0003:00000c70       _GS_ExceptionRecord        10029c70     LIBCMT:gs_report.obj
 0003:00000cc0       _GS_ContextRecord          10029cc0     LIBCMT:gs_report.obj
 0003:00000f90       ?__proc_attached@@3HA      10029f90     LIBCMT:dll_dllmain.obj
 0003:00000fec       ?AllocateData@@3P6GPAUAtlThunkData_t@@XZA 10029fec     atls:atlthunk.obj
 0003:00000ff0       ?InitData@@3P6GXPAUAtlThunkData_t@@PAXI@ZA 10029ff0     atls:atlthunk.obj
 0003:00000ff4       ?DataToCode@@3P6GP6GJPAUHWND__@@IIJ@ZPAUAtlThunkData_t@@@ZA 10029ff4     atls:atlthunk.obj
 0003:00000ff8       ?FreeData@@3P6GXPAUAtlThunkData_t@@@ZA 10029ff8     atls:atlthunk.obj
 0003:00000ffc       ?Initialized@@3_NA         10029ffc     atls:atlthunk.obj
 0003:0000100c       ?__vcrt_startup_thread_ptd@@3U__vcrt_ptd@@A 1002a00c     libvcruntime:per_thread_data.obj
 0003:00001034       ___vcrt_lock_table         1002a034     libvcruntime:locks.obj
 0003:0000104c       ___vcrt_locks_initialized  1002a04c     libvcruntime:locks.obj
 0003:00001078       ?heap@@3V_HeapManager@@A   1002a078     libvcruntime:undname.obj
 0003:0000108c       ?module_handles@@3PAPAUHINSTANCE__@@A 1002a08c     libvcruntime:winapi_downlevel.obj
 0003:00001098       ?function_pointers@@3PAPAXA 1002a098     libvcruntime:winapi_downlevel.obj
 0003:000010ac       ?__acrt_invalid_parameter_handler@@3V?$dual_state_global@P6AXPB_W00II@Z@__crt_state_management@@A 1002a0ac     libucrt:invalid_parameter.obj
 0003:000010b0       ?c_termination_complete@@3JA 1002a0b0     libucrt:exit.obj
 0003:000010b4       ?thread_local_exit_callback_func@@3P6GXPAXK0@ZA 1002a0b4     libucrt:exit.obj
 0003:000010c0       ?program_name@?1???$common_configure_argv@D@@YAHW4_crt_argv_mode@@@Z@4PADA 1002a0c0     libucrt:argv_parsing.obj
 0003:000011f0       ?__acrt_new_handler@@3V?$dual_state_global@P6AHI@Z@__crt_state_management@@A 1002a1f0     libucrt:new_handler.obj
 0003:000011f8       ?module_handles@@3PAPAUHINSTANCE__@@A 1002a1f8     libucrt:winapi_thunks.obj
 0003:00001248       ?encoded_function_pointers@@3PAPAXA 1002a248     libucrt:winapi_thunks.obj
 0003:000012d0       ?internal_state@?1??_mbtowc_l@@9@4U_Mbstatet@@A 1002a2d0     libucrt:mbtowc.obj
 0003:000012e0       ?enable_percent_n@@3IA     1002a2e0     libucrt:printf_count_output.obj
 0003:00001500       ?__acrt_lock_table@@3PAU_RTL_CRITICAL_SECTION@@A 1002a500     libucrt:locks.obj
 0003:00001650       ?__acrt_locks_initialized@@3IA 1002a650     libucrt:locks.obj
 0003:00001660       ?fSystemSet@@3HA           1002a660     libucrt:mbctype.obj
 0003:00001664       ?initialized@?1??__acrt_initialize_multibyte@@9@4_NA 1002a664     libucrt:mbctype.obj
 0003:00001684       ?ctrlc_action@@3V?$dual_state_global@P6AXH@Z@__crt_state_management@@A 1002a684     libucrt:signal.obj
 0003:00001688       ?ctrlbreak_action@@3V?$dual_state_global@P6AXH@Z@__crt_state_management@@A 1002a688     libucrt:signal.obj
 0003:0000168c       ?abort_action@@3V?$dual_state_global@P6AXH@Z@__crt_state_management@@A 1002a68c     libucrt:signal.obj
 0003:00001690       ?term_action@@3V?$dual_state_global@P6AXH@Z@__crt_state_management@@A 1002a690     libucrt:signal.obj
 0003:00001694       ?user_matherr@@3V?$dual_state_global@P6AHPAU_exception@@@Z@__crt_state_management@@A 1002a694     libucrt:matherr.obj
 0003:00001698       ?__acrt_global_new_mode@@3V?$dual_state_global@J@__crt_state_management@@A 1002a698     libucrt:new_mode.obj
 0003:000016a4       ?internal_pst@?1??__mbrtoc32_utf8@__crt_mbstring@@YAIPA_UPBDIPAU_Mbstatet@@@Z@4U3@A 1002a6a4     libucrt:mbrtoc32.obj
 0003:000016ac       ?__acrt_app_type@@3W4_crt_app_type@@A 1002a6ac     libucrt:report_runtime_error.obj
 0003:000016b4       __pmatherr_set             1002a6b4     libucrt:libm_error.obj
 0004:00000220       $R000000                   1002b220     Keylock.res
 0004:00000ba8       $R000988                   1002bba8     Keylock.res
 0004:00000c90       $R000A70                   1002bc90     Keylock.res
 0004:00000ef8       $R000CD8                   1002bef8     Keylock.res
 0004:00001448       $R001228                   1002c448     Keylock.res
 0004:00003950       $R003730                   1002e950     Keylock.res
 0004:00003980       $R003760                   1002e980     Keylock.res
