 OPOSGestureControl

 Timestamp is 600f7b5a (Tue Jan 26 11:15:54 2021)

 Preferred load address is 10000000

 Start         Length     Name                   Class
 0001:00000000 00000080H .text$di                CODE
 0001:00000080 0001e5b3H .text$mn                CODE
 0001:0001e633 0000003aH .text$x                 CODE
 0001:0001e66d 00000042H .text$yd                CODE
 0002:00000000 000002fcH .idata$5                DATA
 0002:000002fc 00000004H .00cfg                  DATA
 0002:00000300 00000004H .CRT$XCA                DATA
 0002:00000304 00000004H .CRT$XCL                DATA
 0002:00000308 00000010H .CRT$XCU                DATA
 0002:00000318 00000004H .CRT$XCZ                DATA
 0002:0000031c 00000004H .CRT$XIA                DATA
 0002:00000320 00000010H .CRT$XIC                DATA
 0002:00000330 00000004H .CRT$XIZ                DATA
 0002:00000334 00000004H .CRT$XLA                DATA
 0002:00000338 00000004H .CRT$XLZ                DATA
 0002:0000033c 00000004H .CRT$XPA                DATA
 0002:00000340 00000008H .CRT$XPX                DATA
 0002:00000348 00000004H .CRT$XPXA               DATA
 0002:0000034c 00000004H .CRT$XPZ                DATA
 0002:00000350 00000004H .CRT$XTA                DATA
 0002:00000354 0000000cH .CRT$XTZ                DATA
 0002:00000358 00000000H .gfids$y                DATA
 0002:00000360 00007320H .rdata                  DATA
 0002:00007680 00000000H .rdata$CastGuardVftablesA DATA
 0002:00007680 00000000H .rdata$CastGuardVftablesC DATA
 0002:00007680 00000018H .rdata$T                DATA
 0002:00007698 00000178H .rdata$r                DATA
 0002:00007810 0000001cH .rdata$sxdata           DATA
 0002:0000782c 000003e4H .rdata$zzzdbg           DATA
 0002:00007c10 00000004H .rtc$IAA                DATA
 0002:00007c14 00000004H .rtc$IZZ                DATA
 0002:00007c18 00000004H .rtc$TAA                DATA
 0002:00007c1c 00000004H .rtc$TZZ                DATA
 0002:00007c20 00000004H .tls                    DATA
 0002:00007c24 00000004H .tls$                   DATA
 0002:00007c28 00000008H .tls$ZZZ                DATA
 0002:00007c30 0000062cH .xdata$x                DATA
 0002:0000825c 00000004H ATL$__a                 DATA
 0002:00008260 00000010H ATL$__z                 DATA
 0002:00008270 000000b0H .edata                  DATA
 0002:00008320 00000078H .idata$2                DATA
 0002:00008398 00000014H .idata$3                DATA
 0002:000083ac 000002fcH .idata$4                DATA
 0002:000086a8 00000bceH .idata$6                DATA
 0003:00000000 00000aa0H .data                   DATA
 0003:00000aa0 00000098H .data$r                 DATA
 0003:00000b38 00000b88H .bss                    DATA
 0004:00000000 00000220H .rsrc$01                DATA
 0004:00000220 000040a0H .rsrc$02                DATA

  Address         Publics by Value              Rva+Base       Lib:Object

 0000:00000000       ___guard_fids_count        00000000     <absolute>
 0000:00000000       ___guard_longjmp_table     00000000     <absolute>
 0000:00000000       ___guard_eh_cont_table     00000000     <absolute>
 0000:00000000       ___volatile_metadata       00000000     <absolute>
 0000:00000000       ___arm64x_extra_rfe_table  00000000     <absolute>
 0000:00000000       ___arm64x_redirection_metadata 00000000     <absolute>
 0000:00000000       ___guard_eh_cont_count     00000000     <absolute>
 0000:00000000       ___guard_iat_count         00000000     <absolute>
 0000:00000000       __except_list              00000000     <absolute>
 0000:00000000       ___x64_code_ranges_to_entry_points_count 00000000     <absolute>
 0000:00000000       ___hybrid_code_map_count   00000000     <absolute>
 0000:00000000       ___x64_code_ranges_to_entry_points 00000000     <absolute>
 0000:00000000       ___guard_iat_table         00000000     <absolute>
 0000:00000000       ___arm64x_native_entrypoint 00000000     <absolute>
 0000:00000000       ___hybrid_code_map         00000000     <absolute>
 0000:00000000       ___arm64x_extra_rfe_table_size 00000000     <absolute>
 0000:00000000       ___guard_longjmp_count     00000000     <absolute>
 0000:00000000       ___arm64x_redirection_metadata_count 00000000     <absolute>
 0000:00000000       ___hybrid_auxiliary_iat    00000000     <absolute>
 0000:00000000       ___dynamic_value_reloc_table 00000000     <absolute>
 0000:00000000       ___AbsoluteZero            00000000     <absolute>
 0000:00000000       ___enclave_config          00000000     <absolute>
 0000:00000000       ___guard_fids_table        00000000     <absolute>
 0000:00000007       ___safe_se_handler_count   00000007     <absolute>
 0000:0000002c       __tls_array                0000002c     <absolute>
 0000:00000100       ___guard_flags             00000100     <absolute>
 0000:00000000       ___ImageBase               10000000     <linker-defined>
 0001:00000080       ?DupWide@_CW@@AAEXXZ       10001080 f   CWString.obj
 0001:0000009c       ?cw_dup@@YGXPBDAAHAAPA_W1@Z 1000109c f   CWString.obj
 0001:00000124       ?cw_memcpy@@YGHPA_WPBDH@Z  10001124 f   CWString.obj
 0001:00000150       ?cw_strcpy@@YAHPA_WPBD@Z   10001150 f   CWString.obj
 0001:00000163       ?cw_strlen@@YAHPBD@Z       10001163 f   CWString.obj
 0001:0000017c       ??0CAtlComModule@ATL@@QAE@XZ 1000117c f i OposVariant.obj
 0001:000001c1       ??0CAtlWinModule@ATL@@QAE@XZ 100011c1 f i OposVariant.obj
 0001:000001f8       ??0OposDispParms@@QAE@PAVOposVariant@@H@Z 100011f8 f   OposVariant.obj
 0001:00000269       ??1OposDispParms@@QAE@XZ   10001269 f   OposVariant.obj
 0001:00000277       ??A?$CSimpleArray@GV?$CSimpleArrayEqualHelper@G@ATL@@@ATL@@QAEAAGH@Z 10001277 f i OposVariant.obj
 0001:0000029c       ??_Estringdispid@CComTypeInfoHolder@ATL@@QAEPAXI@Z 1000129c f i OposVariant.obj
 0001:00000308       ?AtlWinModuleInit@ATL@@YGJPAU_ATL_WIN_MODULE70@1@@Z 10001308 f i OposVariant.obj
 0001:0000032e       ?AtlWinModuleTerm@ATL@@YGJPAU_ATL_WIN_MODULE70@1@PAUHINSTANCE__@@@Z 1000132e f i OposVariant.obj
 0001:00000391       ?ChangeBSTR@OposVariant@@QAEXPAPA_WAAJ@Z 10001391 f   OposVariant.obj
 0001:000003d2       ?ChangeLONG@OposVariant@@QAEXPAJAAJ@Z 100013d2 f   OposVariant.obj
 0001:00000413       ?GetLONG@OposVariant@@QAEJXZ 10001413 f   OposVariant.obj
 0001:0000042e       ?Init@CComCriticalSection@ATL@@QAEJXZ 1000142e f i OposVariant.obj
 0001:00000456       ?RemoveAll@?$CSimpleArray@PAUHINSTANCE__@@V?$CSimpleArrayEqualHelper@PAUHINSTANCE__@@@ATL@@@ATL@@QAEXXZ 10001456 f i atls:atlbase.obj
 0001:00000456       ?RemoveAll@?$CSimpleArray@GV?$CSimpleArrayEqualHelper@G@ATL@@@ATL@@QAEXXZ 10001456 f i OposVariant.obj
 0001:00000473       ?SetBSTR@OposVariant@@QAEXPA_WAAJ@Z 10001473 f   OposVariant.obj
 0001:000004a7       ?SetBSTR_Copy@OposVariant@@QAEXPA_WAAJ@Z 100014a7 f   OposVariant.obj
 0001:000004f7       ?SetBSTR_InOutPtr@OposVariant@@QAE_NPAPA_WAAJ@Z 100014f7 f   OposVariant.obj
 0001:0000052e       ?SetDispatch_Ptr@OposVariant@@QAEXPAUIDispatch@@AAJ@Z 1000152e f   OposVariant.obj
 0001:00000569       ?SetLONG@OposVariant@@QAEXJ@Z 10001569 f   OposVariant.obj
 0001:0000058b       ?SetLONG_Ptr@OposVariant@@QAEXPAJAAJ@Z 1000158b f   OposVariant.obj
 0001:000005be       ?SetString@OposVariant@@QAEXPB_WAAJ@Z 100015be f   OposVariant.obj
 0001:00000604       ?SetVARIANT_BOOL@OposVariant@@QAEXF@Z 10001604 f   OposVariant.obj
 0001:0000062e       ?Term@CAtlComModule@ATL@@QAEXXZ 1000162e f i OposVariant.obj
 0001:00000678       ?_AtlRaiseException@ATL@@YAXKK@Z 10001678 f i OposVariant.obj
 0001:0000068d       ??_E?$CComObject@VCOPOSGestureControl@@@ATL@@W3AEPAXI@Z 1000168d f i GestureControl.obj
 0001:00000695       ??_E?$CComObject@VCOPOSGestureControl@@@ATL@@WEM@AEPAXI@Z 10001695 f i GestureControl.obj
 0001:0000069d       ?QueryInterface@?$CComObject@VCOPOSGestureControl@@@ATL@@WHA@AGJABU_GUID@@PAPAX@Z 1000169d f i GestureControl.obj
 0001:000006a7       ?AddRef@?$CComObject@VCOPOSGestureControl@@@ATL@@WHA@AGKXZ 100016a7 f i GestureControl.obj
 0001:000006b1       ?Release@?$CComObject@VCOPOSGestureControl@@@ATL@@WHA@AGKXZ 100016b1 f i GestureControl.obj
 0001:000006bb       ?QueryInterface@?$CComObject@VCOPOSGestureControl@@@ATL@@WHE@AGJABU_GUID@@PAPAX@Z 100016bb f i GestureControl.obj
 0001:000006c5       ?AddRef@?$CComObject@VCOPOSGestureControl@@@ATL@@WHE@AGKXZ 100016c5 f i GestureControl.obj
 0001:000006cf       ?Release@?$CComObject@VCOPOSGestureControl@@@ATL@@WHE@AGKXZ 100016cf f i GestureControl.obj
 0001:000006d9       ?QueryInterface@?$CComObject@VCOPOSGestureControl@@@ATL@@WHI@AGJABU_GUID@@PAPAX@Z 100016d9 f i GestureControl.obj
 0001:000006e3       ?AddRef@?$CComObject@VCOPOSGestureControl@@@ATL@@WHI@AGKXZ 100016e3 f i GestureControl.obj
 0001:000006ed       ?Release@?$CComObject@VCOPOSGestureControl@@@ATL@@WHI@AGKXZ 100016ed f i GestureControl.obj
 0001:000006f7       ?QueryInterface@?$CComObject@VCOPOSGestureControl@@@ATL@@WHM@AGJABU_GUID@@PAPAX@Z 100016f7 f i GestureControl.obj
 0001:00000701       ?AddRef@?$CComObject@VCOPOSGestureControl@@@ATL@@WHM@AGKXZ 10001701 f i GestureControl.obj
 0001:0000070b       ?Release@?$CComObject@VCOPOSGestureControl@@@ATL@@WHM@AGKXZ 1000170b f i GestureControl.obj
 0001:00000715       ?QueryInterface@?$CComObject@VCOPOSGestureControl@@@ATL@@WIA@AGJABU_GUID@@PAPAX@Z 10001715 f i GestureControl.obj
 0001:00000722       ?AddRef@?$CComObject@VCOPOSGestureControl@@@ATL@@WIA@AGKXZ 10001722 f i GestureControl.obj
 0001:0000072f       ?Release@?$CComObject@VCOPOSGestureControl@@@ATL@@WIA@AGKXZ 1000172f f i GestureControl.obj
 0001:0000073c       ?QueryInterface@?$CComObject@VCOPOSGestureControl@@@ATL@@WIE@AGJABU_GUID@@PAPAX@Z 1000173c f i GestureControl.obj
 0001:00000749       ?AddRef@?$CComObject@VCOPOSGestureControl@@@ATL@@WIE@AGKXZ 10001749 f i GestureControl.obj
 0001:00000756       ?Release@?$CComObject@VCOPOSGestureControl@@@ATL@@WIE@AGKXZ 10001756 f i GestureControl.obj
 0001:00000763       ?QueryInterface@?$CComObject@VCOPOSGestureControl@@@ATL@@WII@AGJABU_GUID@@PAPAX@Z 10001763 f i GestureControl.obj
 0001:00000770       ?AddRef@?$CComObject@VCOPOSGestureControl@@@ATL@@WII@AGKXZ 10001770 f i GestureControl.obj
 0001:0000077d       ?Release@?$CComObject@VCOPOSGestureControl@@@ATL@@WII@AGKXZ 1000177d f i GestureControl.obj
 0001:0000078a       ?QueryInterface@?$CComObject@VCOPOSGestureControl@@@ATL@@WIM@AGJABU_GUID@@PAPAX@Z 1000178a f i GestureControl.obj
 0001:00000797       ?AddRef@?$CComObject@VCOPOSGestureControl@@@ATL@@WIM@AGKXZ 10001797 f i GestureControl.obj
 0001:000007a4       ?Release@?$CComObject@VCOPOSGestureControl@@@ATL@@WIM@AGKXZ 100017a4 f i GestureControl.obj
 0001:000007b1       ?QueryInterface@?$CComObject@VCOPOSGestureControl@@@ATL@@WJA@AGJABU_GUID@@PAPAX@Z 100017b1 f i GestureControl.obj
 0001:000007be       ?AddRef@?$CComObject@VCOPOSGestureControl@@@ATL@@WJA@AGKXZ 100017be f i GestureControl.obj
 0001:000007cb       ?Release@?$CComObject@VCOPOSGestureControl@@@ATL@@WJA@AGKXZ 100017cb f i GestureControl.obj
 0001:000007d8       ?QueryInterface@?$CComObject@VCOPOSGestureControl@@@ATL@@WJE@AGJABU_GUID@@PAPAX@Z 100017d8 f i GestureControl.obj
 0001:000007e5       ?AddRef@?$CComObject@VCOPOSGestureControl@@@ATL@@WJE@AGKXZ 100017e5 f i GestureControl.obj
 0001:000007f2       ?Release@?$CComObject@VCOPOSGestureControl@@@ATL@@WJE@AGKXZ 100017f2 f i GestureControl.obj
 0001:000007ff       ?QueryInterface@?$CComObject@VCOPOSGestureControl@@@ATL@@WJI@AGJABU_GUID@@PAPAX@Z 100017ff f i GestureControl.obj
 0001:0000080c       ?AddRef@?$CComObject@VCOPOSGestureControl@@@ATL@@WJI@AGKXZ 1000180c f i GestureControl.obj
 0001:00000819       ?Release@?$CComObject@VCOPOSGestureControl@@@ATL@@WJI@AGKXZ 10001819 f i GestureControl.obj
 0001:00000826       ?QueryInterface@?$CComObject@VCOPOSGestureControl@@@ATL@@WJM@AGJABU_GUID@@PAPAX@Z 10001826 f i GestureControl.obj
 0001:00000833       ?AddRef@?$CComObject@VCOPOSGestureControl@@@ATL@@WJM@AGKXZ 10001833 f i GestureControl.obj
 0001:00000840       ?Release@?$CComObject@VCOPOSGestureControl@@@ATL@@WJM@AGKXZ 10001840 f i GestureControl.obj
 0001:0000084d       ?QueryInterface@?$CComObject@VCOPOSGestureControl@@@ATL@@WKA@AGJABU_GUID@@PAPAX@Z 1000184d f i GestureControl.obj
 0001:0000085a       ?AddRef@?$CComObject@VCOPOSGestureControl@@@ATL@@WKA@AGKXZ 1000185a f i GestureControl.obj
 0001:00000867       ?Release@?$CComObject@VCOPOSGestureControl@@@ATL@@WKA@AGKXZ 10001867 f i GestureControl.obj
 0001:00000874       ?AddRef@?$CComObject@VCOPOSGestureControl@@@ATL@@WKI@AGKXZ 10001874 f i GestureControl.obj
 0001:00000881       ?Release@?$CComObject@VCOPOSGestureControl@@@ATL@@WKI@AGKXZ 10001881 f i GestureControl.obj
 0001:0000088e       ?AddRef@?$CComObject@VCOPOSGestureControl@@@ATL@@WLE@AGKXZ 1000188e f i GestureControl.obj
 0001:0000089b       ?Release@?$CComObject@VCOPOSGestureControl@@@ATL@@WLE@AGKXZ 1000189b f i GestureControl.obj
 0001:000008a8       ??_E?$CComContainedObject@VCOPOSGestureControl@@@ATL@@W3AEPAXI@Z 100018a8 f i GestureControl.obj
 0001:000008b0       ??_E?$CComContainedObject@VCOPOSGestureControl@@@ATL@@WEM@AEPAXI@Z 100018b0 f i GestureControl.obj
 0001:000008b8       ?QueryInterface@?$CComContainedObject@VCOPOSGestureControl@@@ATL@@WHA@AGJABU_GUID@@PAPAX@Z 100018b8 f i GestureControl.obj
 0001:000008c2       ?AddRef@?$CComContainedObject@VCOPOSGestureControl@@@ATL@@WHA@AGKXZ 100018c2 f i GestureControl.obj
 0001:000008cc       ?Release@?$CComContainedObject@VCOPOSGestureControl@@@ATL@@WHA@AGKXZ 100018cc f i GestureControl.obj
 0001:000008d6       ?QueryInterface@?$CComContainedObject@VCOPOSGestureControl@@@ATL@@WHE@AGJABU_GUID@@PAPAX@Z 100018d6 f i GestureControl.obj
 0001:000008e0       ?AddRef@?$CComContainedObject@VCOPOSGestureControl@@@ATL@@WHE@AGKXZ 100018e0 f i GestureControl.obj
 0001:000008ea       ?Release@?$CComContainedObject@VCOPOSGestureControl@@@ATL@@WHE@AGKXZ 100018ea f i GestureControl.obj
 0001:000008f4       ?QueryInterface@?$CComContainedObject@VCOPOSGestureControl@@@ATL@@WHI@AGJABU_GUID@@PAPAX@Z 100018f4 f i GestureControl.obj
 0001:000008fe       ?AddRef@?$CComContainedObject@VCOPOSGestureControl@@@ATL@@WHI@AGKXZ 100018fe f i GestureControl.obj
 0001:00000908       ?Release@?$CComContainedObject@VCOPOSGestureControl@@@ATL@@WHI@AGKXZ 10001908 f i GestureControl.obj
 0001:00000912       ?QueryInterface@?$CComContainedObject@VCOPOSGestureControl@@@ATL@@WHM@AGJABU_GUID@@PAPAX@Z 10001912 f i GestureControl.obj
 0001:0000091c       ?AddRef@?$CComContainedObject@VCOPOSGestureControl@@@ATL@@WHM@AGKXZ 1000191c f i GestureControl.obj
 0001:00000926       ?Release@?$CComContainedObject@VCOPOSGestureControl@@@ATL@@WHM@AGKXZ 10001926 f i GestureControl.obj
 0001:00000930       ?QueryInterface@?$CComContainedObject@VCOPOSGestureControl@@@ATL@@WIA@AGJABU_GUID@@PAPAX@Z 10001930 f i GestureControl.obj
 0001:0000093d       ?AddRef@?$CComContainedObject@VCOPOSGestureControl@@@ATL@@WIA@AGKXZ 1000193d f i GestureControl.obj
 0001:0000094a       ?Release@?$CComContainedObject@VCOPOSGestureControl@@@ATL@@WIA@AGKXZ 1000194a f i GestureControl.obj
 0001:00000957       ?QueryInterface@?$CComContainedObject@VCOPOSGestureControl@@@ATL@@WIE@AGJABU_GUID@@PAPAX@Z 10001957 f i GestureControl.obj
 0001:00000964       ?AddRef@?$CComContainedObject@VCOPOSGestureControl@@@ATL@@WIE@AGKXZ 10001964 f i GestureControl.obj
 0001:00000971       ?Release@?$CComContainedObject@VCOPOSGestureControl@@@ATL@@WIE@AGKXZ 10001971 f i GestureControl.obj
 0001:0000097e       ?QueryInterface@?$CComContainedObject@VCOPOSGestureControl@@@ATL@@WII@AGJABU_GUID@@PAPAX@Z 1000197e f i GestureControl.obj
 0001:0000098b       ?AddRef@?$CComContainedObject@VCOPOSGestureControl@@@ATL@@WII@AGKXZ 1000198b f i GestureControl.obj
 0001:00000998       ?Release@?$CComContainedObject@VCOPOSGestureControl@@@ATL@@WII@AGKXZ 10001998 f i GestureControl.obj
 0001:000009a5       ?QueryInterface@?$CComContainedObject@VCOPOSGestureControl@@@ATL@@WIM@AGJABU_GUID@@PAPAX@Z 100019a5 f i GestureControl.obj
 0001:000009b2       ?AddRef@?$CComContainedObject@VCOPOSGestureControl@@@ATL@@WIM@AGKXZ 100019b2 f i GestureControl.obj
 0001:000009bf       ?Release@?$CComContainedObject@VCOPOSGestureControl@@@ATL@@WIM@AGKXZ 100019bf f i GestureControl.obj
 0001:000009cc       ?QueryInterface@?$CComContainedObject@VCOPOSGestureControl@@@ATL@@WJA@AGJABU_GUID@@PAPAX@Z 100019cc f i GestureControl.obj
 0001:000009d9       ?AddRef@?$CComContainedObject@VCOPOSGestureControl@@@ATL@@WJA@AGKXZ 100019d9 f i GestureControl.obj
 0001:000009e6       ?Release@?$CComContainedObject@VCOPOSGestureControl@@@ATL@@WJA@AGKXZ 100019e6 f i GestureControl.obj
 0001:000009f3       ?QueryInterface@?$CComContainedObject@VCOPOSGestureControl@@@ATL@@WJE@AGJABU_GUID@@PAPAX@Z 100019f3 f i GestureControl.obj
 0001:00000a00       ?AddRef@?$CComContainedObject@VCOPOSGestureControl@@@ATL@@WJE@AGKXZ 10001a00 f i GestureControl.obj
 0001:00000a0d       ?Release@?$CComContainedObject@VCOPOSGestureControl@@@ATL@@WJE@AGKXZ 10001a0d f i GestureControl.obj
 0001:00000a1a       ?QueryInterface@?$CComContainedObject@VCOPOSGestureControl@@@ATL@@WJI@AGJABU_GUID@@PAPAX@Z 10001a1a f i GestureControl.obj
 0001:00000a27       ?AddRef@?$CComContainedObject@VCOPOSGestureControl@@@ATL@@WJI@AGKXZ 10001a27 f i GestureControl.obj
 0001:00000a34       ?Release@?$CComContainedObject@VCOPOSGestureControl@@@ATL@@WJI@AGKXZ 10001a34 f i GestureControl.obj
 0001:00000a41       ?QueryInterface@?$CComContainedObject@VCOPOSGestureControl@@@ATL@@WJM@AGJABU_GUID@@PAPAX@Z 10001a41 f i GestureControl.obj
 0001:00000a4e       ?AddRef@?$CComContainedObject@VCOPOSGestureControl@@@ATL@@WJM@AGKXZ 10001a4e f i GestureControl.obj
 0001:00000a5b       ?Release@?$CComContainedObject@VCOPOSGestureControl@@@ATL@@WJM@AGKXZ 10001a5b f i GestureControl.obj
 0001:00000a68       ?QueryInterface@?$CComContainedObject@VCOPOSGestureControl@@@ATL@@WKA@AGJABU_GUID@@PAPAX@Z 10001a68 f i GestureControl.obj
 0001:00000a75       ?AddRef@?$CComContainedObject@VCOPOSGestureControl@@@ATL@@WKA@AGKXZ 10001a75 f i GestureControl.obj
 0001:00000a82       ?Release@?$CComContainedObject@VCOPOSGestureControl@@@ATL@@WKA@AGKXZ 10001a82 f i GestureControl.obj
 0001:00000a8f       ?AddRef@?$CComContainedObject@VCOPOSGestureControl@@@ATL@@WKI@AGKXZ 10001a8f f i GestureControl.obj
 0001:00000a9c       ?Release@?$CComContainedObject@VCOPOSGestureControl@@@ATL@@WKI@AGKXZ 10001a9c f i GestureControl.obj
 0001:00000aa9       ?AddRef@?$CComContainedObject@VCOPOSGestureControl@@@ATL@@WLE@AGKXZ 10001aa9 f i GestureControl.obj
 0001:00000ab6       ?Release@?$CComContainedObject@VCOPOSGestureControl@@@ATL@@WLE@AGKXZ 10001ab6 f i GestureControl.obj
 0001:00000ac3       ?CreateInstance@CComClassFactory@ATL@@UAGJPAUIUnknown@@ABU_GUID@@PAPAX@Z 10001ac3 f i GestureControl.obj
 0001:00000b01       ?LockServer@CComClassFactory@ATL@@UAGJH@Z 10001b01 f i GestureControl.obj
 0001:00000b20       ??_ECComClassFactory@ATL@@UAEPAXI@Z 10001b20 f i GestureControl.obj
 0001:00000b20       ??_GCComClassFactory@ATL@@UAEPAXI@Z 10001b20 f i GestureControl.obj
 0001:00000b4b       ?GetWindowProc@?$CWindowImplBaseT@VCWindow@ATL@@V?$CWinTraits@$0FGAAAAAA@$0A@@2@@ATL@@UAEP6GJPAUHWND__@@IIJ@ZXZ 10001b4b f i GestureControl.obj
 0001:00000b51       ?StartWindowProc@?$CWindowImplBaseT@VCWindow@ATL@@V?$CWinTraits@$0FGAAAAAA@$0A@@2@@ATL@@SGJPAUHWND__@@IIJ@Z 10001b51 f i GestureControl.obj
 0001:00000ba5       ?ObjectMain@CComObjectRootBase@ATL@@SGX_N@Z 10001ba5 f i GestureControl.obj
 0001:00000ba5       ?OnFinalMessage@?$CWindowImplBaseT@VCWindow@ATL@@V?$CWinTraits@$0FGAAAAAA@$0A@@2@@ATL@@UAEXPAUHWND__@@@Z 10001ba5 f i GestureControl.obj
 0001:00000ba8       ?GetTypeInfoCount@?$IDispatchImpl@UIOPOSGestureControl@@$1?IID_IOPOSGestureControl@@3U_GUID@@B$1?LIBID_OposGestureControl_CCO@@3U3@B$00$0A@VCComTypeInfoHolder@ATL@@@ATL@@UAGJPAI@Z 10001ba8 f i GestureControl.obj
 0001:00000bc5       ?GetTypeInfo@?$IDispatchImpl@UIOPOSGestureControl@@$1?IID_IOPOSGestureControl@@3U_GUID@@B$1?LIBID_OposGestureControl_CCO@@3U3@B$00$0A@VCComTypeInfoHolder@ATL@@@ATL@@UAGJIKPAPAUITypeInfo@@@Z 10001bc5 f i GestureControl.obj
 0001:00000be9       ?GetIDsOfNames@?$IDispatchImpl@UIOPOSGestureControl@@$1?IID_IOPOSGestureControl@@3U_GUID@@B$1?LIBID_OposGestureControl_CCO@@3U3@B$00$0A@VCComTypeInfoHolder@ATL@@@ATL@@UAGJABU_GUID@@PAPA_WIKPAJ@Z 10001be9 f i GestureControl.obj
 0001:00000c09       ?Invoke@?$IDispatchImpl@UIOPOSGestureControl@@$1?IID_IOPOSGestureControl@@3U_GUID@@B$1?LIBID_OposGestureControl_CCO@@3U3@B$00$0A@VCComTypeInfoHolder@ATL@@@ATL@@UAGJJABU_GUID@@KGPAUtagDISPPARAMS@@PAUtagVARIANT@@PAUtagEXCEPINFO@@PAI@Z 10001c09 f i GestureControl.obj
 0001:00000c17       ?CreateControlWindow@?$CComControl@VCOPOSGestureControl@@V?$CWindowImpl@VCOPOSGestureControl@@VCWindow@ATL@@V?$CWinTraits@$0FGAAAAAA@$0A@@3@@ATL@@@ATL@@UAEPAUHWND__@@PAU3@AAUtagRECT@@@Z 10001c17 f i GestureControl.obj
 0001:00000c46       ?ControlQueryInterface@?$CComControl@VCOPOSGestureControl@@V?$CWindowImpl@VCOPOSGestureControl@@VCWindow@ATL@@V?$CWinTraits@$0FGAAAAAA@$0A@@3@@ATL@@@ATL@@UAEJABU_GUID@@PAPAX@Z 10001c46 f i GestureControl.obj
 0001:00000c61       ?GetUserClassID@?$IOleObjectImpl@VCOPOSGestureControl@@@ATL@@UAGJPAU_GUID@@@Z 10001c61 f i GestureControl.obj
 0001:00000c61       ?GetClassID@?$IPersistStreamInitImpl@VCOPOSGestureControl@@@ATL@@UAGJPAU_GUID@@@Z 10001c61 f i GestureControl.obj
 0001:00000c61       ?GetClassID@?$IPersistStorageImpl@VCOPOSGestureControl@@@ATL@@UAGJPAU_GUID@@@Z 10001c61 f i GestureControl.obj
 0001:00000c85       ?IsDirty@?$IPersistStreamInitImpl@VCOPOSGestureControl@@@ATL@@UAGJXZ 10001c85 f i GestureControl.obj
 0001:00000ca4       ?Load@?$IPersistStreamInitImpl@VCOPOSGestureControl@@@ATL@@UAGJPAUIStream@@@Z 10001ca4 f i GestureControl.obj
 0001:00000cc3       ?Save@?$IPersistStreamInitImpl@VCOPOSGestureControl@@@ATL@@UAGJPAUIStream@@H@Z 10001cc3 f i GestureControl.obj
 0001:00000ce5       ?GetSizeMax@?$IPersistStreamInitImpl@VCOPOSGestureControl@@@ATL@@UAGJPAT_ULARGE_INTEGER@@@Z 10001ce5 f i GestureControl.obj
 0001:00000ec4       ?InitNew@?$IPersistStreamInitImpl@VCOPOSGestureControl@@@ATL@@UAGJXZ 10001ec4 f i GestureControl.obj
 0001:00000ee1       ?OnMnemonic@?$IOleControlImpl@VCOPOSGestureControl@@@ATL@@UAGJPAUtagMSG@@@Z 10001ee1 f i GestureControl.obj
 0001:00000ee1       ?GetControlInfo@?$IOleControlImpl@VCOPOSGestureControl@@@ATL@@UAGJPAUtagCONTROLINFO@@@Z 10001ee1 f i GestureControl.obj
 0001:00000ee1       ?ContextSensitiveHelp@?$IOleInPlaceActiveObjectImpl@VCOPOSGestureControl@@@ATL@@UAGJH@Z 10001ee1 f i GestureControl.obj
 0001:00000ee1       ?Unfreeze@?$IViewObjectExImpl@VCOPOSGestureControl@@@ATL@@UAGJK@Z 10001ee1 f i GestureControl.obj
 0001:00000ee1       ?SODataDummy@COPOSGestureControl@@MAGJJ@Z 10001ee1 f i GestureControl.obj
 0001:00000ee1       ?ContextSensitiveHelp@?$IOleInPlaceObjectWindowlessImpl@VCOPOSGestureControl@@@ATL@@UAGJH@Z 10001ee1 f i GestureControl.obj
 0001:00000ee1       ?GetDropTarget@?$IOleInPlaceObjectWindowlessImpl@VCOPOSGestureControl@@@ATL@@UAGJPAPAUIDropTarget@@@Z 10001ee1 f i GestureControl.obj
 0001:00000ee1       ?QueryGetData@?$IDataObjectImpl@VCOPOSGestureControl@@@ATL@@UAGJPAUtagFORMATETC@@@Z 10001ee1 f i GestureControl.obj
 0001:00000ee1       ?SetColorScheme@?$IOleObjectImpl@VCOPOSGestureControl@@@ATL@@UAGJPAUtagLOGPALETTE@@@Z 10001ee1 f i GestureControl.obj
 0001:00000ee9       ?OnAmbientPropertyChange@?$IOleControlImpl@VCOPOSGestureControl@@@ATL@@UAGJJ@Z 10001ee9 f i GestureControl.obj
 0001:00000ee9       ?EnableModeless@?$IOleInPlaceActiveObjectImpl@VCOPOSGestureControl@@@ATL@@UAGJH@Z 10001ee9 f i GestureControl.obj
 0001:00000ee9       ?SaveCompleted@?$IPersistStorageImpl@VCOPOSGestureControl@@@ATL@@UAGJPAUIStorage@@@Z 10001ee9 f i GestureControl.obj
 0001:00000ee9       ?OnFrameWindowActivate@?$IOleInPlaceActiveObjectImpl@VCOPOSGestureControl@@@ATL@@UAGJH@Z 10001ee9 f i GestureControl.obj
 0001:00000eee       ?SetClientSite@?$IOleObjectImpl@VCOPOSGestureControl@@@ATL@@UAGJPAUIOleClientSite@@@Z 10001eee f i GestureControl.obj
 0001:00000f0b       ?GetClientSite@?$IOleObjectImpl@VCOPOSGestureControl@@@ATL@@UAGJPAPAUIOleClientSite@@@Z 10001f0b f i GestureControl.obj
 0001:00000f28       ?SetHostNames@?$IOleObjectImpl@VCOPOSGestureControl@@@ATL@@UAGJPB_W0@Z 10001f28 f i GestureControl.obj
 0001:00000f2d       ?Close@?$IOleObjectImpl@VCOPOSGestureControl@@@ATL@@UAGJK@Z 10001f2d f i GestureControl.obj
 0001:00000f4a       ?GetRect@?$IViewObjectExImpl@VCOPOSGestureControl@@@ATL@@UAGJKPAU_RECTL@@@Z 10001f4a f i GestureControl.obj
 0001:00000f4a       ?EnumFormatEtc@?$IDataObjectImpl@VCOPOSGestureControl@@@ATL@@UAGJKPAPAUIEnumFORMATETC@@@Z 10001f4a f i GestureControl.obj
 0001:00000f4a       ?GetDataHere@?$IDataObjectImpl@VCOPOSGestureControl@@@ATL@@UAGJPAUtagFORMATETC@@PAUtagSTGMEDIUM@@@Z 10001f4a f i GestureControl.obj
 0001:00000f4a       ?GetCanonicalFormatEtc@?$IDataObjectImpl@VCOPOSGestureControl@@@ATL@@UAGJPAUtagFORMATETC@@0@Z 10001f4a f i GestureControl.obj
 0001:00000f4a       ?SetMoniker@?$IOleObjectImpl@VCOPOSGestureControl@@@ATL@@UAGJKPAUIMoniker@@@Z 10001f4a f i GestureControl.obj
 0001:00000f4a       ?GetClipboardData@?$IOleObjectImpl@VCOPOSGestureControl@@@ATL@@UAGJKPAPAUIDataObject@@@Z 10001f4a f i GestureControl.obj
 0001:00000f4a       ?QueryInterface@CRegObject@ATL@@UAGJABU_GUID@@PAPAX@Z 10001f4a f i GestureControl.obj
 0001:00000f52       ?GetMoniker@?$IOleObjectImpl@VCOPOSGestureControl@@@ATL@@UAGJKKPAPAUIMoniker@@@Z 10001f52 f i GestureControl.obj
 0001:00000f52       ?InitFromData@?$IOleObjectImpl@VCOPOSGestureControl@@@ATL@@UAGJPAUIDataObject@@HK@Z 10001f52 f i GestureControl.obj
 0001:00000f52       ?SetData@?$IDataObjectImpl@VCOPOSGestureControl@@@ATL@@UAGJPAUtagFORMATETC@@PAUtagSTGMEDIUM@@H@Z 10001f52 f i GestureControl.obj
 0001:00000f5a       ?DoVerb@?$IOleObjectImpl@VCOPOSGestureControl@@@ATL@@UAGJJPAUtagMSG@@PAUIOleClientSite@@JPAUHWND__@@PBUtagRECT@@@Z 10001f5a f i GestureControl.obj
 0001:0000104e       ?EnumVerbs@?$IOleObjectImpl@VCOPOSGestureControl@@@ATL@@UAGJPAPAUIEnumOLEVERB@@@Z 1000204e f i GestureControl.obj
 0001:00001070       ?IsUpToDate@?$IOleObjectImpl@VCOPOSGestureControl@@@ATL@@UAGJXZ 10002070 f i GestureControl.obj
 0001:00001070       ?HandsOffStorage@?$IPersistStorageImpl@VCOPOSGestureControl@@@ATL@@UAGJXZ 10002070 f i GestureControl.obj
 0001:00001070       ?Release@CRegObject@ATL@@UAGKXZ 10002070 f i GestureControl.obj
 0001:00001070       ?Update@?$IOleObjectImpl@VCOPOSGestureControl@@@ATL@@UAGJXZ 10002070 f i GestureControl.obj
 0001:00001075       ?GetUserType@?$IOleObjectImpl@VCOPOSGestureControl@@@ATL@@UAGJKPAPA_W@Z 10002075 f i GestureControl.obj
 0001:0000108d       ?SetExtent@?$IOleObjectImpl@VCOPOSGestureControl@@@ATL@@UAGJKPAUtagSIZE@@@Z 1000208d f i GestureControl.obj
 0001:000010ad       ?GetExtent@?$IOleObjectImpl@VCOPOSGestureControl@@@ATL@@UAGJKPAUtagSIZE@@@Z 100020ad f i GestureControl.obj
 0001:000010eb       ?Advise@?$IOleObjectImpl@VCOPOSGestureControl@@@ATL@@UAGJPAUIAdviseSink@@PAK@Z 100020eb f i GestureControl.obj
 0001:0000110b       ?Unadvise@?$IOleObjectImpl@VCOPOSGestureControl@@@ATL@@UAGJK@Z 1000210b f i GestureControl.obj
 0001:0000113a       ?EnumAdvise@?$IOleObjectImpl@VCOPOSGestureControl@@@ATL@@UAGJPAPAUIEnumSTATDATA@@@Z 1000213a f i GestureControl.obj
 0001:0000117a       ?GetMiscStatus@?$IOleObjectImpl@VCOPOSGestureControl@@@ATL@@UAGJKPAK@Z 1000217a f i GestureControl.obj
 0001:00001192       ?GetWindow@?$IOleInPlaceActiveObjectImpl@VCOPOSGestureControl@@@ATL@@UAGJPAPAUHWND__@@@Z 10002192 f i GestureControl.obj
 0001:000011df       ?TranslateAcceleratorW@?$IOleInPlaceActiveObjectImpl@VCOPOSGestureControl@@@ATL@@UAGJPAUtagMSG@@@Z 100021df f i GestureControl.obj
 0001:0000128d       ?OnDocWindowActivate@?$IOleInPlaceActiveObjectImpl@VCOPOSGestureControl@@@ATL@@UAGJH@Z 1000228d f i GestureControl.obj
 0001:000012af       ?ResizeBorder@?$IOleInPlaceActiveObjectImpl@VCOPOSGestureControl@@@ATL@@UAGJPBUtagRECT@@PAUIOleInPlaceUIWindow@@H@Z 100022af f i GestureControl.obj
 0001:000012b4       ?Draw@?$IViewObjectExImpl@VCOPOSGestureControl@@@ATL@@UAGJKJPAXPAUtagDVTARGETDEVICE@@PAUHDC__@@2PBU_RECTL@@3P6GHK@ZK@Z 100022b4 f i GestureControl.obj
 0001:000012e6       ?GetColorSet@?$IViewObjectExImpl@VCOPOSGestureControl@@@ATL@@UAGJKJPAXPAUtagDVTARGETDEVICE@@PAUHDC__@@PAPAUtagLOGPALETTE@@@Z 100022e6 f i GestureControl.obj
 0001:000012ee       ?Freeze@?$IViewObjectExImpl@VCOPOSGestureControl@@@ATL@@UAGJKJPAXPAK@Z 100022ee f i GestureControl.obj
 0001:000012f6       ?SetAdvise@?$IViewObjectExImpl@VCOPOSGestureControl@@@ATL@@UAGJKKPAUIAdviseSink@@@Z 100022f6 f i GestureControl.obj
 0001:00001315       ?GetAdvise@?$IViewObjectExImpl@VCOPOSGestureControl@@@ATL@@UAGJPAK0PAPAUIAdviseSink@@@Z 10002315 f i GestureControl.obj
 0001:0000134a       ?GetExtent@?$IViewObjectExImpl@VCOPOSGestureControl@@@ATL@@UAGJKJPAUtagDVTARGETDEVICE@@PAUtagSIZE@@@Z 1000234a f i GestureControl.obj
 0001:0000137b       ?GetViewStatus@?$IViewObjectExImpl@VCOPOSGestureControl@@@ATL@@UAGJPAK@Z 1000237b f i GestureControl.obj
 0001:00001398       ?QueryHitPoint@?$IViewObjectExImpl@VCOPOSGestureControl@@@ATL@@UAGJKPBUtagRECT@@UtagPOINT@@JPAK@Z 10002398 f i GestureControl.obj
 0001:000013d9       ?QueryHitRect@?$IViewObjectExImpl@VCOPOSGestureControl@@@ATL@@UAGJKPBUtagRECT@@0JPAK@Z 100023d9 f i GestureControl.obj
 0001:00001434       ?GetNaturalExtent@?$IViewObjectExImpl@VCOPOSGestureControl@@@ATL@@UAGJKJPAUtagDVTARGETDEVICE@@PAUHDC__@@PAUtagExtentInfo@@PAUtagSIZE@@@Z 10002434 f i GestureControl.obj
 0001:0000147f       ?GetWindow@?$IOleInPlaceObjectWindowlessImpl@VCOPOSGestureControl@@@ATL@@UAGJPAPAUHWND__@@@Z 1000247f f i GestureControl.obj
 0001:000014cc       ?InPlaceDeactivate@?$IOleInPlaceObjectWindowlessImpl@VCOPOSGestureControl@@@ATL@@UAGJXZ 100024cc f i GestureControl.obj
 0001:000014e6       ?UIDeactivate@?$IOleInPlaceObjectWindowlessImpl@VCOPOSGestureControl@@@ATL@@UAGJXZ 100024e6 f i GestureControl.obj
 0001:00001500       ?SetObjectRects@?$IOleInPlaceObjectWindowlessImpl@VCOPOSGestureControl@@@ATL@@UAGJPBUtagRECT@@0@Z 10002500 f i GestureControl.obj
 0001:00001520       ?ReactivateAndUndo@?$IOleInPlaceObjectWindowlessImpl@VCOPOSGestureControl@@@ATL@@UAGJXZ 10002520 f i GestureControl.obj
 0001:00001528       ?OnWindowMessage@?$IOleInPlaceObjectWindowlessImpl@VCOPOSGestureControl@@@ATL@@UAGJIIJPAJ@Z 10002528 f i GestureControl.obj
 0001:00001598       ?EnumConnectionPoints@?$IConnectionPointContainerImpl@VCOPOSGestureControl@@@ATL@@UAGJPAPAUIEnumConnectionPoints@@@Z 10002598 f i GestureControl.obj
 0001:00001724       ?FindConnectionPoint@?$IConnectionPointContainerImpl@VCOPOSGestureControl@@@ATL@@UAGJABU_GUID@@PAPAUIConnectionPoint@@@Z 10002724 f i GestureControl.obj
 0001:000017c7       ?IsDirty@?$IPersistStorageImpl@VCOPOSGestureControl@@@ATL@@UAGJXZ 100027c7 f i GestureControl.obj
 0001:000017f7       ?InitNew@?$IPersistStorageImpl@VCOPOSGestureControl@@@ATL@@UAGJPAUIStorage@@@Z 100027f7 f i GestureControl.obj
 0001:00001827       ?Load@?$IPersistStorageImpl@VCOPOSGestureControl@@@ATL@@UAGJPAUIStorage@@@Z 10002827 f i GestureControl.obj
 0001:00001893       ?Save@?$IPersistStorageImpl@VCOPOSGestureControl@@@ATL@@UAGJPAUIStorage@@H@Z 10002893 f i GestureControl.obj
 0001:00001906       ?GetPages@?$ISpecifyPropertyPagesImpl@VCOPOSGestureControl@@@ATL@@UAGJPAUtagCAUUID@@@Z 10002906 f i GestureControl.obj
 0001:0000191d       ?QuickActivate@?$IQuickActivateImpl@VCOPOSGestureControl@@@ATL@@UAGJPAUtagQACONTAINER@@PAUtagQACONTROL@@@Z 1000291d f i GestureControl.obj
 0001:00001940       ?SetContentExtent@?$IQuickActivateImpl@VCOPOSGestureControl@@@ATL@@UAGJPAUtagSIZE@@@Z 10002940 f i GestureControl.obj
 0001:0000196c       ?GetContentExtent@?$IQuickActivateImpl@VCOPOSGestureControl@@@ATL@@UAGJPAUtagSIZE@@@Z 1000296c f i GestureControl.obj
 0001:000019a8       ?GetData@?$IDataObjectImpl@VCOPOSGestureControl@@@ATL@@UAGJPAUtagFORMATETC@@PAUtagSTGMEDIUM@@@Z 100029a8 f i GestureControl.obj
 0001:000019cb       ?DAdvise@?$IDataObjectImpl@VCOPOSGestureControl@@@ATL@@UAGJPAUtagFORMATETC@@KPAUIAdviseSink@@PAK@Z 100029cb f i GestureControl.obj
 0001:00001a0c       ?DUnadvise@?$IDataObjectImpl@VCOPOSGestureControl@@@ATL@@UAGJK@Z 10002a0c f i GestureControl.obj
 0001:00001a3a       ?EnumDAdvise@?$IDataObjectImpl@VCOPOSGestureControl@@@ATL@@UAGJPAPAUIEnumSTATDATA@@@Z 10002a3a f i GestureControl.obj
 0001:00001a79       ?GetClassInfoW@?$IProvideClassInfo2Impl@$1?CLSID_OPOSGestureControl@@3U_GUID@@B$1?DIID__IOPOSGestureControlEvents@@3U2@B$1?LIBID_OposGestureControl_CCO@@3U2@B$00$0A@VCComTypeInfoHolder@ATL@@@ATL@@UAGJPAPAUITypeInfo@@@Z 10002a79 f i GestureControl.obj
 0001:00001a8f       ?GetGUID@?$IProvideClassInfo2Impl@$1?CLSID_OPOSGestureControl@@3U_GUID@@B$1?DIID__IOPOSGestureControlEvents@@3U2@B$1?LIBID_OposGestureControl_CCO@@3U2@B$00$0A@VCComTypeInfoHolder@ATL@@@ATL@@UAGJKPAU_GUID@@@Z 10002a8f f i GestureControl.obj
 0001:00001acd       __get_startup_argv_mode    10002acd f i LIBCMT:argv_mode.obj
 0001:00001acd       ?FAccessAllowed@?$IObjectSafetyImpl@VCOPOSGestureControl@@$02@ATL@@MAEHXZ 10002acd f i GestureControl.obj
 0001:00001ad1       ?GetInterfaceSafetyOptions@?$IObjectSafetyImpl@VCOPOSGestureControl@@$02@ATL@@UAGJABU_GUID@@PAK1@Z 10002ad1 f i GestureControl.obj
 0001:00001b45       ?SetInterfaceSafetyOptions@?$IObjectSafetyImpl@VCOPOSGestureControl@@$02@ATL@@UAGJABU_GUID@@KK@Z 10002b45 f i GestureControl.obj
 0001:00001bbf       ?_LocCPQueryInterface@?$IConnectionPointImpl@VCOPOSGestureControl@@$1?IID_IPropertyNotifySink@@3U_GUID@@BVCComDynamicUnkArray@ATL@@@ATL@@UAGJABU_GUID@@PAPAX@Z 10002bbf f i GestureControl.obj
 0001:00001bbf       ?_LocCPQueryInterface@?$IConnectionPointImpl@VCOPOSGestureControl@@$1?DIID__IOPOSGestureControlEvents@@3U_GUID@@BVCComDynamicUnkArray@ATL@@@ATL@@UAGJABU_GUID@@PAPAX@Z 10002bbf f i GestureControl.obj
 0001:00001c0c       ?GetConnectionInterface@?$IConnectionPointImpl@VCOPOSGestureControl@@$1?IID_IPropertyNotifySink@@3U_GUID@@BVCComDynamicUnkArray@ATL@@@ATL@@UAGJPAU_GUID@@@Z 10002c0c f i GestureControl.obj
 0001:00001c30       ?GetConnectionPointContainer@?$IConnectionPointImpl@VCOPOSGestureControl@@$1?IID_IPropertyNotifySink@@3U_GUID@@BVCComDynamicUnkArray@ATL@@@ATL@@UAGJPAPAUIConnectionPointContainer@@@Z 10002c30 f i GestureControl.obj
 0001:00001c53       ?Advise@?$IConnectionPointImpl@VCOPOSGestureControl@@$1?DIID__IOPOSGestureControlEvents@@3U_GUID@@BVCComDynamicUnkArray@ATL@@@ATL@@UAGJPAUIUnknown@@PAK@Z 10002c53 f i GestureControl.obj
 0001:00001c53       ?Advise@?$IConnectionPointImpl@VCOPOSGestureControl@@$1?IID_IPropertyNotifySink@@3U_GUID@@BVCComDynamicUnkArray@ATL@@@ATL@@UAGJPAUIUnknown@@PAK@Z 10002c53 f i GestureControl.obj
 0001:00001cf3       ?Unadvise@?$IConnectionPointImpl@VCOPOSGestureControl@@$1?IID_IPropertyNotifySink@@3U_GUID@@BVCComDynamicUnkArray@ATL@@@ATL@@UAGJK@Z 10002cf3 f i GestureControl.obj
 0001:00001cf3       ?Unadvise@?$IConnectionPointImpl@VCOPOSGestureControl@@$1?DIID__IOPOSGestureControlEvents@@3U_GUID@@BVCComDynamicUnkArray@ATL@@@ATL@@UAGJK@Z 10002cf3 f i GestureControl.obj
 0001:00001d33       ?EnumConnections@?$IConnectionPointImpl@VCOPOSGestureControl@@$1?IID_IPropertyNotifySink@@3U_GUID@@BVCComDynamicUnkArray@ATL@@@ATL@@UAGJPAPAUIEnumConnections@@@Z 10002d33 f i GestureControl.obj
 0001:00001d33       ?EnumConnections@?$IConnectionPointImpl@VCOPOSGestureControl@@$1?DIID__IOPOSGestureControlEvents@@3U_GUID@@BVCComDynamicUnkArray@ATL@@@ATL@@UAGJPAPAUIEnumConnections@@@Z 10002d33 f i GestureControl.obj
 0001:00001e2e       ?GetObjectDescription@?$CComCoClass@VCOPOSGestureControl@@$1?CLSID_OPOSGestureControl@@3U_GUID@@B@ATL@@SGPB_WXZ 10002e2e f i GestureControl.obj
 0001:00001e2e       ?GetCategoryMap@CComObjectRootBase@ATL@@SAPBU_ATL_CATMAP_ENTRY@2@XZ 10002e2e f i GestureControl.obj
 0001:00001e31       ?GetConnectionInterface@?$IConnectionPointImpl@VCOPOSGestureControl@@$1?DIID__IOPOSGestureControlEvents@@3U_GUID@@BVCComDynamicUnkArray@ATL@@@ATL@@UAGJPAU_GUID@@@Z 10002e31 f i GestureControl.obj
 0001:00001e55       ?GetConnectionPointContainer@?$IConnectionPointImpl@VCOPOSGestureControl@@$1?DIID__IOPOSGestureControlEvents@@3U_GUID@@BVCComDynamicUnkArray@ATL@@@ATL@@UAGJPAPAUIConnectionPointContainer@@@Z 10002e55 f i GestureControl.obj
 0001:00001e78       ?UpdateRegistry@COPOSGestureControl@@SGJH@Z 10002e78 f i GestureControl.obj
 0001:00001e90       ?ProcessWindowMessage@COPOSGestureControl@@UAEHPAUHWND__@@IIJAAJK@Z 10002e90 f i GestureControl.obj
 0001:00001ed9       ?Lock@CAtlModule@ATL@@UAEJXZ 10002ed9 f i GestureControl.obj
 0001:00001ee3       ?Unlock@CAtlModule@ATL@@UAEJXZ 10002ee3 f i GestureControl.obj
 0001:00001eed       ?SODirectIO@COPOSGestureControl@@MAGJJPAJPAPA_W@Z 10002eed f i GestureControl.obj
 0001:00001f36       ?GetLockCount@CAtlModule@ATL@@UAEJXZ 10002f36 f i GestureControl.obj
 0001:00001f3a       ?SOError@COPOSGestureControl@@MAGJJJJPAJ@Z 10002f3a f i GestureControl.obj
 0001:00001f8f       ?GetGITPtr@CAtlModule@ATL@@UAEJPAPAUIGlobalInterfaceTable@@@Z 10002f8f f i GestureControl.obj
 0001:00001fdb       ?SOOutputComplete@COPOSGestureControl@@MAGJJ@Z 10002fdb f i GestureControl.obj
 0001:00002014       ?SOStatusUpdate@COPOSGestureControl@@MAGJJ@Z 10003014 f i GestureControl.obj
 0001:0000204d       ?AddCommonRGSReplacements@?$CAtlModuleT@VCComModule@ATL@@@ATL@@UAEJPAUIRegistrarBase@@@Z 1000304d f i GestureControl.obj
 0001:00002067       ?UpdateRegistryFromResourceD@CComModule@ATL@@UAGJIHPAU_ATL_REGMAP_ENTRY@2@@Z 10003067 f i GestureControl.obj
 0001:00002067       ?UpdateRegistryFromResourceD@CComModule@ATL@@UAGJPB_WHPAU_ATL_REGMAP_ENTRY@2@@Z 10003067 f i GestureControl.obj
 0001:0000206f       ?UpdateRegistryFromResource@CComModule@ATL@@UAGJPB_WHPAU_ATL_REGMAP_ENTRY@2@@Z 1000306f f i GestureControl.obj
 0001:00002078       ?UpdateRegistryFromResource@CComModule@ATL@@UAGJIHPAU_ATL_REGMAP_ENTRY@2@@Z 10003078 f i GestureControl.obj
 0001:00002081       ??_GCComModule@ATL@@UAEPAXI@Z 10003081 f i GestureControl.obj
 0001:00002081       ??_ECComModule@ATL@@UAEPAXI@Z 10003081 f i GestureControl.obj
 0001:000020a9       ?CreateInstance@?$CComCreator@V?$CComObjectCached@VCComClassFactory@ATL@@@ATL@@@ATL@@SGJPAXABU_GUID@@PAPAX@Z 100030a9 f i GestureControl.obj
 0001:00002149       ?CreateInstance@?$CComCreator2@V?$CComCreator@V?$CComObject@VCOPOSGestureControl@@@ATL@@@ATL@@V?$CComCreator@V?$CComAggObject@VCOPOSGestureControl@@@ATL@@@2@@ATL@@SGJPAXABU_GUID@@PAPAX@Z 10003149 f i GestureControl.obj
 0001:00002169       ?AddRef@?$CComObjectCached@VCComClassFactory@ATL@@@ATL@@UAGKXZ 10003169 f i GestureControl.obj
 0001:00002190       ?Release@?$CComObjectCached@VCComClassFactory@ATL@@@ATL@@UAGKXZ 10003190 f i GestureControl.obj
 0001:000021c6       ?QueryInterface@?$CComObjectCached@VCComClassFactory@ATL@@@ATL@@UAGJABU_GUID@@PAPAX@Z 100031c6 f i GestureControl.obj
 0001:000021e0       ??_E?$CComObjectCached@VCComClassFactory@ATL@@@ATL@@UAEPAXI@Z 100031e0 f i GestureControl.obj
 0001:000021e0       ??_G?$CComObjectCached@VCComClassFactory@ATL@@@ATL@@UAEPAXI@Z 100031e0 f i GestureControl.obj
 0001:00002202       ?Next@?$CComEnumImpl@UIEnumConnectionPoints@@$1?_GUID_b196b285_bab4_101a_b69c_00aa00341d07@@3U__s_GUID@@BPAUIConnectionPoint@@V?$_CopyInterface@UIConnectionPoint@@@ATL@@@ATL@@UAGJKPAPAUIConnectionPoint@@PAK@Z 10003202 f i GestureControl.obj
 0001:000022d9       ?Skip@?$CComEnumImpl@UIEnumConnectionPoints@@$1?_GUID_b196b285_bab4_101a_b69c_00aa00341d07@@3U__s_GUID@@BPAUIConnectionPoint@@V?$_CopyInterface@UIConnectionPoint@@@ATL@@@ATL@@UAGJK@Z 100032d9 f i GestureControl.obj
 0001:00002306       ?Reset@?$CComEnumImpl@UIEnumConnectionPoints@@$1?_GUID_b196b285_bab4_101a_b69c_00aa00341d07@@3U__s_GUID@@BPAUIConnectionPoint@@V?$_CopyInterface@UIConnectionPoint@@@ATL@@@ATL@@UAGJXZ 10003306 f i GestureControl.obj
 0001:00002306       ?Reset@?$CComEnumImpl@UIEnumConnections@@$1?_GUID_b196b287_bab4_101a_b69c_00aa00341d07@@3U__s_GUID@@BUtagCONNECTDATA@@V?$_Copy@UtagCONNECTDATA@@@ATL@@@ATL@@UAGJXZ 10003306 f i GestureControl.obj
 0001:00002318       ?Clone@?$CComEnumImpl@UIEnumConnectionPoints@@$1?_GUID_b196b285_bab4_101a_b69c_00aa00341d07@@3U__s_GUID@@BPAUIConnectionPoint@@V?$_CopyInterface@UIConnectionPoint@@@ATL@@@ATL@@UAGJPAPAUIEnumConnectionPoints@@@Z 10003318 f i GestureControl.obj
 0001:000023f9       ?AddRef@?$CComObject@V?$CComEnum@UIEnumConnectionPoints@@$1?_GUID_b196b285_bab4_101a_b69c_00aa00341d07@@3U__s_GUID@@BPAUIConnectionPoint@@V?$_CopyInterface@UIConnectionPoint@@@ATL@@VCComSingleThreadModel@6@@ATL@@@ATL@@UAGKXZ 100033f9 f i GestureControl.obj
 0001:000023f9       ?AddRef@?$CComObject@V?$CComEnum@UIEnumConnections@@$1?_GUID_b196b287_bab4_101a_b69c_00aa00341d07@@3U__s_GUID@@BUtagCONNECTDATA@@V?$_Copy@UtagCONNECTDATA@@@ATL@@VCComSingleThreadModel@6@@ATL@@@ATL@@UAGKXZ 100033f9 f i GestureControl.obj
 0001:0000240a       ?Release@?$CComObject@V?$CComEnum@UIEnumConnectionPoints@@$1?_GUID_b196b285_bab4_101a_b69c_00aa00341d07@@3U__s_GUID@@BPAUIConnectionPoint@@V?$_CopyInterface@UIConnectionPoint@@@ATL@@VCComSingleThreadModel@6@@ATL@@@ATL@@UAGKXZ 1000340a f i GestureControl.obj
 0001:0000240a       ?Release@?$CComObject@V?$CComEnum@UIEnumConnections@@$1?_GUID_b196b287_bab4_101a_b69c_00aa00341d07@@3U__s_GUID@@BUtagCONNECTDATA@@V?$_Copy@UtagCONNECTDATA@@@ATL@@VCComSingleThreadModel@6@@ATL@@@ATL@@UAGKXZ 1000340a f i GestureControl.obj
 0001:00002446       ?QueryInterface@?$CComObject@V?$CComEnum@UIEnumConnectionPoints@@$1?_GUID_b196b285_bab4_101a_b69c_00aa00341d07@@3U__s_GUID@@BPAUIConnectionPoint@@V?$_CopyInterface@UIConnectionPoint@@@ATL@@VCComSingleThreadModel@6@@ATL@@@ATL@@UAGJABU_GUID@@PAPAX@Z 10003446 f i GestureControl.obj
 0001:00002460       ??_E?$CComObject@V?$CComEnum@UIEnumConnectionPoints@@$1?_GUID_b196b285_bab4_101a_b69c_00aa00341d07@@3U__s_GUID@@BPAUIConnectionPoint@@V?$_CopyInterface@UIConnectionPoint@@@ATL@@VCComSingleThreadModel@6@@ATL@@@ATL@@UAEPAXI@Z 10003460 f i GestureControl.obj
 0001:00002460       ??_G?$CComObject@V?$CComEnum@UIEnumConnectionPoints@@$1?_GUID_b196b285_bab4_101a_b69c_00aa00341d07@@3U__s_GUID@@BPAUIConnectionPoint@@V?$_CopyInterface@UIConnectionPoint@@@ATL@@VCComSingleThreadModel@6@@ATL@@@ATL@@UAEPAXI@Z 10003460 f i GestureControl.obj
 0001:00002482       ?AddRef@CRegObject@ATL@@UAGKXZ 10003482 f i GestureControl.obj
 0001:00002488       ?AddReplacement@CRegObject@ATL@@UAGJPB_W0@Z 10003488 f i GestureControl.obj
 0001:000024c1       ?ClearReplacements@CRegObject@ATL@@UAGJXZ 100034c1 f i GestureControl.obj
 0001:000024d3       ??_GCRegObject@ATL@@UAEPAXI@Z 100034d3 f i GestureControl.obj
 0001:000024d3       ??_ECRegObject@ATL@@UAEPAXI@Z 100034d3 f i GestureControl.obj
 0001:000024f5       ?AddRef@?$CComAggObject@VCOPOSGestureControl@@@ATL@@UAGKXZ 100034f5 f i GestureControl.obj
 0001:00002506       ?Release@?$CComAggObject@VCOPOSGestureControl@@@ATL@@UAGKXZ 10003506 f i GestureControl.obj
 0001:00002542       ?QueryInterface@?$CComAggObject@VCOPOSGestureControl@@@ATL@@UAGJABU_GUID@@PAPAX@Z 10003542 f i GestureControl.obj
 0001:00002591       ?AddRef@?$CComContainedObject@VCOPOSGestureControl@@@ATL@@UAGKXZ 10003591 f i GestureControl.obj
 0001:000025a7       ?Release@?$CComContainedObject@VCOPOSGestureControl@@@ATL@@UAGKXZ 100035a7 f i GestureControl.obj
 0001:000025bd       ?QueryInterface@?$CComContainedObject@VCOPOSGestureControl@@@ATL@@UAGJABU_GUID@@PAPAX@Z 100035bd f i GestureControl.obj
 0001:000025d8       ??_G?$CComAggObject@VCOPOSGestureControl@@@ATL@@UAEPAXI@Z 100035d8 f i GestureControl.obj
 0001:000025d8       ??_E?$CComAggObject@VCOPOSGestureControl@@@ATL@@UAEPAXI@Z 100035d8 f i GestureControl.obj
 0001:000025fd       ?AddRef@?$CComObject@VCOPOSGestureControl@@@ATL@@UAGKXZ 100035fd f i GestureControl.obj
 0001:00002614       ?Release@?$CComObject@VCOPOSGestureControl@@@ATL@@UAGKXZ 10003614 f i GestureControl.obj
 0001:00002656       ?QueryInterface@?$CComObject@VCOPOSGestureControl@@@ATL@@UAGJABU_GUID@@PAPAX@Z 10003656 f i GestureControl.obj
 0001:00002670       ?OnDrawAdvanced@CComControlBase@ATL@@UAEJAAUATL_DRAWINFO@@@Z 10003670 f i GestureControl.obj
 0001:00002763       ?Next@?$CComEnumImpl@UIEnumConnections@@$1?_GUID_b196b287_bab4_101a_b69c_00aa00341d07@@3U__s_GUID@@BUtagCONNECTDATA@@V?$_Copy@UtagCONNECTDATA@@@ATL@@@ATL@@UAGJKPAUtagCONNECTDATA@@PAK@Z 10003763 f i GestureControl.obj
 0001:0000283a       ?Skip@?$CComEnumImpl@UIEnumConnections@@$1?_GUID_b196b287_bab4_101a_b69c_00aa00341d07@@3U__s_GUID@@BUtagCONNECTDATA@@V?$_Copy@UtagCONNECTDATA@@@ATL@@@ATL@@UAGJK@Z 1000383a f i GestureControl.obj
 0001:00002867       ?Clone@?$CComEnumImpl@UIEnumConnections@@$1?_GUID_b196b287_bab4_101a_b69c_00aa00341d07@@3U__s_GUID@@BUtagCONNECTDATA@@V?$_Copy@UtagCONNECTDATA@@@ATL@@@ATL@@UAGJPAPAUIEnumConnections@@@Z 10003867 f i GestureControl.obj
 0001:00002948       ?QueryInterface@?$CComObject@V?$CComEnum@UIEnumConnections@@$1?_GUID_b196b287_bab4_101a_b69c_00aa00341d07@@3U__s_GUID@@BUtagCONNECTDATA@@V?$_Copy@UtagCONNECTDATA@@@ATL@@VCComSingleThreadModel@6@@ATL@@@ATL@@UAGJABU_GUID@@PAPAX@Z 10003948 f i GestureControl.obj
 0001:00002962       ??_G?$CComObject@V?$CComEnum@UIEnumConnections@@$1?_GUID_b196b287_bab4_101a_b69c_00aa00341d07@@3U__s_GUID@@BUtagCONNECTDATA@@V?$_Copy@UtagCONNECTDATA@@@ATL@@VCComSingleThreadModel@6@@ATL@@@ATL@@UAEPAXI@Z 10003962 f i GestureControl.obj
 0001:00002962       ??_E?$CComObject@V?$CComEnum@UIEnumConnections@@$1?_GUID_b196b287_bab4_101a_b69c_00aa00341d07@@3U__s_GUID@@BUtagCONNECTDATA@@V?$_Copy@UtagCONNECTDATA@@@ATL@@VCComSingleThreadModel@6@@ATL@@@ATL@@UAEPAXI@Z 10003962 f i GestureControl.obj
 0001:00002984       ??$?4UITypeInfo2@@@?$CComPtr@UITypeInfo@@@ATL@@QAEPAUITypeInfo@@ABV?$CComPtr@UITypeInfo2@@@1@@Z 10003984 f i GestureControl.obj
 0001:000029b1       ??$AtlAdd@K@ATL@@YAJPAKKK@Z 100039b1 f i GestureControl.obj
 0001:000029d4       ??$AtlAdd@_K@ATL@@YAJPA_K_K1@Z 100039d4 f i GestureControl.obj
 0001:00002a0c       ??$AtlAddThrow@K@ATL@@YAKKK@Z 10003a0c f i GestureControl.obj
 0001:00002a32       ??$AtlModuleRegisterWndClassInfoT@VAtlModuleRegisterWndClassInfoParamW@ATL@@@ATL@@YAGPAU_ATL_BASE_MODULE70@0@PAU_ATL_WIN_MODULE70@0@PAU_ATL_WNDCLASSINFOW@0@PAP6GJPAUHWND__@@IIJ@ZVAtlModuleRegisterWndClassInfoParamW@0@@Z 10003a32 f i GestureControl.obj
 0001:00002b80       ??$AtlMultiply@H@ATL@@YAJPAHHH@Z 10003b80 f i GestureControl.obj
 0001:00002bb8       ??$AtlMultiply@I@ATL@@YAJPAIII@Z 10003bb8 f i GestureControl.obj
 0001:00002bb8       ??$AtlMultiply@K@ATL@@YAJPAKKK@Z 10003bb8 f i GestureControl.obj
 0001:00002bda       ??$AtlMultiplyThrow@I@ATL@@YAIII@Z 10003bda f i GestureControl.obj
 0001:00002c00       ??0?$CComAggObject@VCOPOSGestureControl@@@ATL@@QAE@PAX@Z 10003c00 f i GestureControl.obj
 0001:00002c2d       ??0?$CComContainedObject@VCOPOSGestureControl@@@ATL@@QAE@PAX@Z 10003c2d f i GestureControl.obj
 0001:00002ce6       ??0?$CComObject@V?$CComEnum@UIEnumConnectionPoints@@$1?_GUID_b196b285_bab4_101a_b69c_00aa00341d07@@3U__s_GUID@@BPAUIConnectionPoint@@V?$_CopyInterface@UIConnectionPoint@@@ATL@@VCComSingleThreadModel@6@@ATL@@@ATL@@QAE@PAX@Z 10003ce6 f i GestureControl.obj
 0001:00002d14       ??0?$CComObject@V?$CComEnum@UIEnumConnections@@$1?_GUID_b196b287_bab4_101a_b69c_00aa00341d07@@3U__s_GUID@@BUtagCONNECTDATA@@V?$_Copy@UtagCONNECTDATA@@@ATL@@VCComSingleThreadModel@6@@ATL@@@ATL@@QAE@PAX@Z 10003d14 f i GestureControl.obj
 0001:00002d42       ??0?$CComObject@VCOPOSGestureControl@@@ATL@@QAE@PAX@Z 10003d42 f i GestureControl.obj
 0001:00002df9       ??0?$CComQIPtr@UIOleControlSite@@$1?_GUID_b196b289_bab4_101a_b69c_00aa00341d07@@3U__s_GUID@@B@ATL@@QAE@PAUIUnknown@@@Z 10003df9 f i GestureControl.obj
 0001:00002e22       ??0CAtlModule@ATL@@QAE@XZ  10003e22 f i GestureControl.obj
 0001:00002e63       ??0CParseBuffer@CRegParser@ATL@@QAE@H@Z 10003e63 f i GestureControl.obj
 0001:00002e99       ??0_ATL_MSG@ATL@@QAE@PAUHWND__@@IIJH@Z 10003e99 f i GestureControl.obj
 0001:00002ed1       ??1?$CComAggObject@VCOPOSGestureControl@@@ATL@@UAE@XZ 10003ed1 f i GestureControl.obj
 0001:00002ef5       ??1?$CComEnumImpl@UIEnumConnectionPoints@@$1?_GUID_b196b285_bab4_101a_b69c_00aa00341d07@@3U__s_GUID@@BPAUIConnectionPoint@@V?$_CopyInterface@UIConnectionPoint@@@ATL@@@ATL@@UAE@XZ 10003ef5 f i GestureControl.obj
 0001:00002f35       ??1?$CComEnumImpl@UIEnumConnections@@$1?_GUID_b196b287_bab4_101a_b69c_00aa00341d07@@3U__s_GUID@@BUtagCONNECTDATA@@V?$_Copy@UtagCONNECTDATA@@@ATL@@@ATL@@UAE@XZ 10003f35 f i GestureControl.obj
 0001:00002f75       ??1?$CComObject@V?$CComEnum@UIEnumConnectionPoints@@$1?_GUID_b196b285_bab4_101a_b69c_00aa00341d07@@3U__s_GUID@@BPAUIConnectionPoint@@V?$_CopyInterface@UIConnectionPoint@@@ATL@@VCComSingleThreadModel@6@@ATL@@@ATL@@UAE@XZ 10003f75 f i GestureControl.obj
 0001:00002f98       ??1?$CComObject@V?$CComEnum@UIEnumConnections@@$1?_GUID_b196b287_bab4_101a_b69c_00aa00341d07@@3U__s_GUID@@BUtagCONNECTDATA@@V?$_Copy@UtagCONNECTDATA@@@ATL@@VCComSingleThreadModel@6@@ATL@@@ATL@@UAE@XZ 10003f98 f i GestureControl.obj
 0001:00002fbb       ??1?$CComObject@VCOPOSGestureControl@@@ATL@@UAE@XZ 10003fbb f i GestureControl.obj
 0001:00003079       ??1?$CComObjectCached@VCComClassFactory@ATL@@@ATL@@UAE@XZ 10004079 f i GestureControl.obj
 0001:0000308f       ??1?$CComObjectRootEx@VCComMultiThreadModel@ATL@@@ATL@@QAE@XZ 1000408f f i GestureControl.obj
 0001:000030a4       ??1CRegObject@ATL@@UAE@XZ  100040a4 f i GestureControl.obj
 0001:000030c4       ??4?$CComPtr@UIOleClientSite@@@ATL@@QAEPAUIOleClientSite@@PAU2@@Z 100040c4 f i GestureControl.obj
 0001:000030c4       ??4?$CComPtr@UIAdviseSink@@@ATL@@QAEPAUIAdviseSink@@PAU2@@Z 100040c4 f i GestureControl.obj
 0001:000030c4       ??4?$CComPtr@UIUnknown@@@ATL@@QAEPAUIUnknown@@PAU2@@Z 100040c4 f i GestureControl.obj
 0001:000030f8       ??_E?$CComContainedObject@VCOPOSGestureControl@@@ATL@@UAEPAXI@Z 100040f8 f i GestureControl.obj
 0001:000030f8       ??_G?$CComContainedObject@VCOPOSGestureControl@@@ATL@@UAEPAXI@Z 100040f8 f i GestureControl.obj
 0001:0000311d       ??_G?$CComObject@VCOPOSGestureControl@@@ATL@@UAEPAXI@Z 1000411d f i GestureControl.obj
 0001:0000311d       ??_E?$CComObject@VCOPOSGestureControl@@@ATL@@UAEPAXI@Z 1000411d f i GestureControl.obj
 0001:00003142       ?Add@?$CSimpleArray@GV?$CSimpleArrayEqualHelper@G@ATL@@@ATL@@QAEHABG@Z 10004142 f i GestureControl.obj
 0001:000031c6       ?Add@?$CSimpleMap@PA_WPA_WVCExpansionVectorEqualHelper@ATL@@@ATL@@QAEHABQA_W0@Z 100041c6 f i GestureControl.obj
 0001:0000321b       ?Add@CComDynamicUnkArray@ATL@@QAEKPAUIUnknown@@@Z 1000421b f i GestureControl.obj
 0001:000032d1       ?Add@CExpansionVector@ATL@@QAEHPB_W0@Z 100042d1 f i GestureControl.obj
 0001:000033da       ?AddString@CParseBuffer@CRegParser@ATL@@QAEHPB_W@Z 100043da f i GestureControl.obj
 0001:0000340f       ?AddTermFunc@CAtlModule@ATL@@QAEJP6GXK@ZK@Z 1000440f f i GestureControl.obj
 0001:00003472       ?AddValue@CRegParser@ATL@@IAEJAAVCRegKey@2@PB_WPA_W@Z 10004472 f i GestureControl.obj
 0001:0000378c       ?Allocate@?$CAtlSafeAllocBufferManager@VCCRTAllocator@ATL@@@_ATL_SAFE_ALLOCA_IMPL@ATL@@QAEPAXK@Z 1000478c f i GestureControl.obj
 0001:000037b9       ?Allocate@?$CTempBuffer@E$0BAA@VCCRTAllocator@ATL@@@ATL@@QAEPAEI@Z 100047b9 f i GestureControl.obj
 0001:000037e8       ?Allocate@?$CTempBuffer@_W$0BAA@VCCRTAllocator@ATL@@@ATL@@QAEPA_WI@Z 100047e8 f i GestureControl.obj
 0001:00003817       ?Allocate@?$CTempBuffer@_W$0EAA@VCCRTAllocator@ATL@@@ATL@@QAEPA_WI@Z 10004817 f i GestureControl.obj
 0001:00003846       ?AllocateHeap@?$CTempBuffer@E$0BAA@VCCRTAllocator@ATL@@@ATL@@AAEXI@Z 10004846 f i GestureControl.obj
 0001:00003846       ?AllocateHeap@?$CTempBuffer@_W$0EAA@VCCRTAllocator@ATL@@@ATL@@AAEXI@Z 10004846 f i GestureControl.obj
 0001:00003846       ?AllocateHeap@?$CTempBuffer@_W$0BAA@VCCRTAllocator@ATL@@@ATL@@AAEXI@Z 10004846 f i GestureControl.obj
 0001:0000386b       ?Append@CParseBuffer@CRegParser@ATL@@QAEHPB_WH@Z 1000486b f i GestureControl.obj
 0001:000038f9       ?AtlCoTaskMemCAlloc@ATL@@YAPAXKK@Z 100048f9 f i GestureControl.obj
 0001:00003926       ?AtlCoTaskMemRecalloc@ATL@@YAPAXPAXKK@Z 10004926 f i GestureControl.obj
 0001:00003956       ?AtlComModuleGetClassObject@ATL@@YGJPAU_ATL_COM_MODULE70@1@ABU_GUID@@1PAPAX@Z 10004956 f i GestureControl.obj
 0001:00003a49       ?AtlComModuleRegisterServer@ATL@@YGJPAU_ATL_COM_MODULE70@1@HPBU_GUID@@@Z 10004a49 f i GestureControl.obj
 0001:00003ad1       ?AtlComModuleUnregisterServer@ATL@@YGJPAU_ATL_COM_MODULE70@1@HPBU_GUID@@@Z 10004ad1 f i GestureControl.obj
 0001:00003b59       ?AtlComQIPtrAssign2@ATL@@YAXPAPAUIUnknown@@PAU2@ABU_GUID@@@Z 10004b59 f i GestureControl.obj
 0001:00003b88       ?AtlCreateTargetDC@ATL@@YGPAUHDC__@@PAU2@PAUtagDVTARGETDEVICE@@@Z 10004b88 f i GestureControl.obj
 0001:00003bf1       ?AtlCrtErrorCheck@ATL@@YAHH@Z 10004bf1 f i GestureControl.obj
 0001:00003c2c       ?AtlHiMetricToPixel@ATL@@YGXPBUtagSIZE@@PAU2@@Z 10004c2c f i GestureControl.obj
 0001:00003ca1       ?AtlHresultFromLastError@ATL@@YAJXZ 10004ca1 f i GestureControl.obj
 0001:00003cb8       ?AtlHresultFromWin32@ATL@@YAJK@Z 10004cb8 f i GestureControl.obj
 0001:00003ccd       ?AtlInternalOleLoadFromStream@ATL@@YAJPAUIStream@@ABU_GUID@@PAPAXTClassesAllowedInStream@1@K@Z 10004ccd f i GestureControl.obj
 0001:00003deb       ?AtlInternalQueryInterface@ATL@@YGJPAXPBU_ATL_INTMAP_ENTRY@1@ABU_GUID@@PAPAX@Z 10004deb f i GestureControl.obj
 0001:00003e8e       ?AtlLoadTypeLib@ATL@@YGJPAUHINSTANCE__@@PB_WPAPA_WPAPAUITypeLib@@@Z 10004e8e f i GestureControl.obj
 0001:0000406c       ?AtlRegisterClassCategoriesHelper@ATL@@YGJABU_GUID@@PBU_ATL_CATMAP_ENTRY@1@H@Z 1000506c f i GestureControl.obj
 0001:00004368       ?AtlRegisterTypeLib@ATL@@YGJPAUHINSTANCE__@@PB_W@Z 10005368 f i GestureControl.obj
 0001:000044f0       ?AtlThrowImpl@ATL@@YGXJ@Z  100054f0 f i GestureControl.obj
 0001:0000450e       ?AtlUnRegisterTypeLib@ATL@@YGJPAUHINSTANCE__@@PB_W@Z 1000550e f i GestureControl.obj
 0001:000045b9       ?AtlWinModuleAddCreateWndData@ATL@@YGXPAU_ATL_WIN_MODULE70@1@PAU_AtlCreateWndData@1@PAX@Z 100055b9 f i GestureControl.obj
 0001:0000460d       ?AtlWinModuleExtractCreateWndData@ATL@@YGPAXPAU_ATL_WIN_MODULE70@1@@Z 1000560d f i GestureControl.obj
 0001:00004670       ?AtlWinModuleRegisterClassExW@ATL@@YGGPAU_ATL_WIN_MODULE70@1@PBUtagWNDCLASSEXW@@@Z 10005670 f i GestureControl.obj
 0001:000046af       ?CanForceRemoveKey@CRegParser@ATL@@IAEHPB_W@Z 100056af f i GestureControl.obj
 0001:000046de       ?ChToByte@CRegParser@ATL@@KAE_W@Z 100056de f i GestureControl.obj
 0001:00004711       ?Cleanup@CComTypeInfoHolder@ATL@@SGXK@Z 10005711 f i GestureControl.obj
 0001:00004744       ?ClearReplacements@CExpansionVector@ATL@@QAEJXZ 10005744 f i GestureControl.obj
 0001:00004781       ?Close@CRegKey@ATL@@QAEJXZ 10005781 f i GestureControl.obj
 0001:0000479b       ?CreateInstance@?$CComCreator@V?$CComAggObject@VCOPOSGestureControl@@@ATL@@@ATL@@SGJPAXABU_GUID@@PAPAX@Z 1000579b f i GestureControl.obj
 0001:00004810       ?CreateInstance@?$CComCreator@V?$CComObject@VCOPOSGestureControl@@@ATL@@@ATL@@SGJPAXABU_GUID@@PAPAX@Z 10005810 f i GestureControl.obj
 0001:00004890       ?CreateInstance@?$CComObject@V?$CComEnum@UIEnumConnectionPoints@@$1?_GUID_b196b285_bab4_101a_b69c_00aa00341d07@@3U__s_GUID@@BPAUIConnectionPoint@@V?$_CopyInterface@UIConnectionPoint@@@ATL@@VCComSingleThreadModel@6@@ATL@@@ATL@@SGJPAPAV12@@Z 10005890 f i GestureControl.obj
 0001:000048da       ?CreateInstance@?$CComObject@V?$CComEnum@UIEnumConnections@@$1?_GUID_b196b287_bab4_101a_b69c_00aa00341d07@@3U__s_GUID@@BUtagCONNECTDATA@@V?$_Copy@UtagCONNECTDATA@@@ATL@@VCComSingleThreadModel@6@@ATL@@@ATL@@SGJPAPAV12@@Z 100058da f i GestureControl.obj
 0001:00004924       ?DefaultReflectionHandler@?$CWindowImplRoot@VCWindow@ATL@@@ATL@@SAHPAUHWND__@@IIJAAJ@Z 10005924 f i GestureControl.obj
 0001:00004997       ?DeleteSubKey@CRegKey@ATL@@QAEJPB_W@Z 10005997 f i GestureControl.obj
 0001:00004a10       ?DoEvent@COPOSGestureControl@@IAEXIIJ@Z 10005a10 f i GestureControl.obj
 0001:00004a90       ?DoVerbHide@?$IOleObjectImpl@VCOPOSGestureControl@@@ATL@@QAEJPBUtagRECT@@PAUHWND__@@@Z 10005a90 f i GestureControl.obj
 0001:00004ac6       ?DoVerbInPlaceActivate@?$IOleObjectImpl@VCOPOSGestureControl@@@ATL@@QAEJPBUtagRECT@@PAUHWND__@@@Z 10005ac6 f i GestureControl.obj
 0001:00004af9       ?DoVerbPrimary@?$IOleObjectImpl@VCOPOSGestureControl@@@ATL@@QAEJPBUtagRECT@@PAUHWND__@@@Z 10005af9 f i GestureControl.obj
 0001:00004b85       ?DoVerbProperties@CComControlBase@ATL@@QAEJPBUtagRECT@@PAUHWND__@@@Z 10005b85 f i GestureControl.obj
 0001:00004d04       ?DoVerbUIActivate@?$IOleObjectImpl@VCOPOSGestureControl@@@ATL@@QAEJPBUtagRECT@@PAUHWND__@@@Z 10005d04 f i GestureControl.obj
 0001:00004d41       ?DoesVerbActivate@CComControlBase@ATL@@QAEHJ@Z 10005d41 f i GestureControl.obj
 0001:00004d62       ?DoesVerbUIActivate@CComControlBase@ATL@@QAEHJ@Z 10005d62 f i GestureControl.obj
 0001:00004d97       ?EndOfVar@CRegParser@ATL@@IAEHXZ 10005d97 f i GestureControl.obj
 0001:00004db7       ?EscapeSingleQuote@CAtlModule@ATL@@SAXPA_WIPB_W@Z 10005db7 f i GestureControl.obj
 0001:00004e06       ?FindKey@?$CSimpleMap@PA_WPA_WVCExpansionVectorEqualHelper@ATL@@@ATL@@QBEHABQA_W@Z 10005e06 f i GestureControl.obj
 0001:00004e3d       ?FireTheEvent@?$CProxy_IOPOSEvents@VCOPOSGestureControl@@@@IAEXPAVOposVariant@@IAAJPB_WJ@Z 10005e3d f i GestureControl.obj
 0001:00004ecf       ?FireViewChange@CComControlBase@ATL@@QAEJXZ 10005ecf f i GestureControl.obj
 0001:00004f18       ?Fire_DirectIOEvent@?$CProxy_IOPOSEvents@VCOPOSGestureControl@@@@QAEXJPAJPAPA_W@Z 10005f18 f i GestureControl.obj
 0001:00005004       ?Fire_ErrorEvent@?$CProxy_IOPOSEvents@VCOPOSGestureControl@@@@QAEXJJJPAJ@Z 10006004 f i GestureControl.obj
 0001:000050f5       ?Fire_OutputCompleteEvent@?$CProxy_IOPOSEvents@VCOPOSGestureControl@@@@QAEXJ@Z 100060f5 f i GestureControl.obj
 0001:0000518b       ?Fire_StatusUpdateEvent@?$CProxy_IOPOSEvents@VCOPOSGestureControl@@@@QAEXJ@Z 1000618b f i GestureControl.obj
 0001:00005221       ?FreeHeap@?$CTempBuffer@E$0BAA@VCCRTAllocator@ATL@@@ATL@@AAEXXZ 10006221 f i GestureControl.obj
 0001:00005221       ?FreeHeap@?$CTempBuffer@_W$0EAA@VCCRTAllocator@ATL@@@ATL@@AAEXXZ 10006221 f i GestureControl.obj
 0001:00005221       ?FreeHeap@?$CTempBuffer@_W$0BAA@VCCRTAllocator@ATL@@@ATL@@AAEXXZ 10006221 f i GestureControl.obj
 0001:0000522a       ?GetAmbientLocaleID@CComControlBase@ATL@@QAEJAAK@Z 1000622a f i GestureControl.obj
 0001:00005286       ?GetAmbientUserMode@CComControlBase@ATL@@QAEJAAH@Z 10006286 f i GestureControl.obj
 0001:000052f6       ?GetAt@CComDynamicUnkArray@ATL@@QAEPAUIUnknown@@H@Z 100062f6 f i GestureControl.obj
 0001:00005312       ?GetClassObject@CComModule@ATL@@QAEJABU_GUID@@0PAPAX@Z 10006312 f i GestureControl.obj
 0001:000053b4       ?GetConnMap@COPOSGestureControl@@SAPBU_ATL_CONNMAP_ENTRY@ATL@@PAH@Z 100063b4 f i GestureControl.obj
 0001:00005424       ?GetCookie@CComDynamicUnkArray@ATL@@QAGKPAPAUIUnknown@@@Z 10006424 f i GestureControl.obj
 0001:0000545c       ?GetIDsOfNames@CComTypeInfoHolder@ATL@@QAEJABU_GUID@@PAPA_WIKPAJ@Z 1000645c f i GestureControl.obj
 0001:00005583       ?GetKeyAt@?$CSimpleMap@PA_WPA_WVCExpansionVectorEqualHelper@ATL@@@ATL@@QBEAAPA_WH@Z 10006583 f i GestureControl.obj
 0001:000055a8       ?GetPagesHelper@?$ISpecifyPropertyPagesImpl@VCOPOSGestureControl@@@ATL@@IAEJPAUtagCAUUID@@PBUATL_PROPMAP_ENTRY@2@@Z 100065a8 f i GestureControl.obj
 0001:000056cf       ?GetProperty@?$CComPtr@UIDispatch@@@ATL@@SAJPAUIDispatch@@JPAUtagVARIANT@@@Z 100066cf f i GestureControl.obj
 0001:0000571e       ?GetSizeMax@CComVariant@ATL@@QBEJPAT_ULARGE_INTEGER@@@Z 1000671e f i GestureControl.obj
 0001:000058e0       ?GetTI@CComTypeInfoHolder@ATL@@QAEJK@Z 100068e0 f i GestureControl.obj
 0001:00005abf       ?GetTI@CComTypeInfoHolder@ATL@@QAEJKPAPAUITypeInfo@@@Z 10006abf f i GestureControl.obj
 0001:00005b01       ?GetUnknown@CComDynamicUnkArray@ATL@@QAGPAUIUnknown@@K@Z 10006b01 f i GestureControl.obj
 0001:00005b22       ?GetValueAt@?$CSimpleMap@PA_WPA_WVCExpansionVectorEqualHelper@ATL@@@ATL@@QBEAAPA_WH@Z 10006b22 f i GestureControl.obj
 0001:00005b48       ?GetZoomInfo@CComControlBase@ATL@@QAEXAAUATL_DRAWINFO@@@Z 10006b48 f i GestureControl.obj
 0001:00005bdb       ?HKeyFromString@CRegParser@ATL@@KAPAUHKEY__@@PA_W@Z 10006bdb f i GestureControl.obj
 0001:00005c09       ?HasSubKeys@CRegParser@ATL@@IAEHPAUHKEY__@@@Z 10006c09 f i GestureControl.obj
 0001:00005c3e       ?IDataObject_GetData@CComControlBase@ATL@@QAEJPAUtagFORMATETC@@PAUtagSTGMEDIUM@@@Z 10006c3e f i GestureControl.obj
 0001:00005de4       ?IOleInPlaceObject_InPlaceDeactivate@CComControlBase@ATL@@QAEJXZ 10006de4 f i GestureControl.obj
 0001:00005e6b       ?IOleInPlaceObject_SetObjectRects@CComControlBase@ATL@@QAEJPBUtagRECT@@0@Z 10006e6b f i GestureControl.obj
 0001:00005f38       ?IOleInPlaceObject_UIDeactivate@CComControlBase@ATL@@QAEJXZ 10006f38 f i GestureControl.obj
 0001:00005ffa       ?IOleObject_Advise@CComControlBase@ATL@@QAEJPAUIAdviseSink@@PAK@Z 10006ffa f i GestureControl.obj
 0001:00006024       ?IOleObject_Close@CComControlBase@ATL@@QAEJK@Z 10007024 f i GestureControl.obj
 0001:00006108       ?IOleObject_GetClientSite@CComControlBase@ATL@@QAEJPAPAUIOleClientSite@@@Z 10007108 f i GestureControl.obj
 0001:00006131       ?IOleObject_SetClientSite@CComControlBase@ATL@@QAEJPAUIOleClientSite@@@Z 10007131 f i GestureControl.obj
 0001:00006170       ?IOleObject_SetExtent@CComControlBase@ATL@@QAEJKPAUtagSIZE@@@Z 10007170 f i GestureControl.obj
 0001:00006222       ?IPSI_GetIPersistStreamInit@?$IPersistStorageImpl@VCOPOSGestureControl@@@ATL@@AAEPAUIPersistStreamInit@@XZ 10007222 f i GestureControl.obj
 0001:000062ca       ?IPersistStreamInit_Load@?$IPersistStreamInitImpl@VCOPOSGestureControl@@@ATL@@QAEJPAUIStream@@PBUATL_PROPMAP_ENTRY@2@@Z 100072ca f i GestureControl.obj
 0001:0000653f       ?IPersistStreamInit_Save@?$IPersistStreamInitImpl@VCOPOSGestureControl@@@ATL@@QAEJPAUIStream@@HPBUATL_PROPMAP_ENTRY@2@@Z 1000753f f i GestureControl.obj
 0001:0000672d       ?IQuickActivate_QuickActivate@CComControlBase@ATL@@QAEJPAUtagQACONTAINER@@PAUtagQACONTROL@@@Z 1000772d f i GestureControl.obj
 0001:0000696f       ?IViewObject_Draw@CComControlBase@ATL@@QAEJKJPAXPAUtagDVTARGETDEVICE@@PAUHDC__@@2PBU_RECTL@@3@Z 1000796f f i GestureControl.obj
 0001:00006a17       ?InPlaceActivate@CComControlBase@ATL@@QAEJJPBUtagRECT@@@Z 10007a17 f i GestureControl.obj
 0001:00006c88       ?Init@?$CComEnumImpl@UIEnumConnectionPoints@@$1?_GUID_b196b285_bab4_101a_b69c_00aa00341d07@@3U__s_GUID@@BPAUIConnectionPoint@@V?$_CopyInterface@UIConnectionPoint@@@ATL@@@ATL@@QAEJPAPAUIConnectionPoint@@0PAUIUnknown@@W4CComEnumFlags@2@@Z 10007c88 f i GestureControl.obj
 0001:00006d67       ?Init@?$CComEnumImpl@UIEnumConnections@@$1?_GUID_b196b287_bab4_101a_b69c_00aa00341d07@@3U__s_GUID@@BUtagCONNECTDATA@@V?$_Copy@UtagCONNECTDATA@@@ATL@@@ATL@@QAEJPAUtagCONNECTDATA@@0PAUIUnknown@@W4CComEnumFlags@2@@Z 10007d67 f i GestureControl.obj
 0001:00006e46       ?Init@CComModule@ATL@@QAEJPAU_ATL_OBJMAP_ENTRY30@2@PAUHINSTANCE__@@PBU_GUID@@@Z 10007e46 f i GestureControl.obj
 0001:00006ea5       ?Init@CDynamicStdCallThunk2@ATL@@QAEHKPAX@Z 10007ea5 f i GestureControl.obj
 0001:00006ed0       ?InlineIsEqualUnknown@ATL@@YGHABU_GUID@@@Z 10007ed0 f i GestureControl.obj
 0001:00006ef8       ?InternalSetAtIndex@?$CSimpleMap@PA_WPA_WVCExpansionVectorEqualHelper@ATL@@@ATL@@QAEXHABQA_W0@Z 10007ef8 f i GestureControl.obj
 0001:00006f22       ?Invoke@CComTypeInfoHolder@ATL@@QAEJPAUIDispatch@@JABU_GUID@@KGPAUtagDISPPARAMS@@PAUtagVARIANT@@PAUtagEXCEPINFO@@PAI@Z 10007f22 f i GestureControl.obj
 0001:00006f65       ?IsEqualObject@?$CComPtrBase@UIOleClientSite@@@ATL@@QAE_NPAUIUnknown@@@Z 10007f65 f i GestureControl.obj
 0001:00006f65       ?IsEqualObject@?$CComPtrBase@UITypeInfo@@@ATL@@QAE_NPAUIUnknown@@@Z 10007f65 f i GestureControl.obj
 0001:00006fd2       ?IsSpace@CRegParser@ATL@@IAEH_W@Z 10007fd2 f i GestureControl.obj
 0001:00006ffc       ?LoadNameCache@CComTypeInfoHolder@ATL@@QAEJPAUITypeInfo@@@Z 10007ffc f i GestureControl.obj
 0001:00007131       ?Lookup@?$CSimpleMap@PA_WPA_WVCExpansionVectorEqualHelper@ATL@@@ATL@@QBEPA_WABQA_W@Z 10008131 f i GestureControl.obj
 0001:00007157       ?NextToken@CRegParser@ATL@@IAEJPA_W@Z 10008157 f i GestureControl.obj
 0001:0000728f       ?OnKillFocus@CComControlBase@ATL@@QAEJIIJAAH@Z 1000828f f i GestureControl.obj
 0001:000072ea       ?OnMouseActivate@CComControlBase@ATL@@QAEJIIJAAH@Z 100082ea f i GestureControl.obj
 0001:00007358       ?OnPaint@CComControlBase@ATL@@QAEJIIJAAH@Z 10008358 f i GestureControl.obj
 0001:0000740a       ?OnSetFocus@CComControlBase@ATL@@QAEJIIJAAH@Z 1000840a f i GestureControl.obj
 0001:00007493       ?Open@CRegKey@ATL@@QAEJPAUHKEY__@@PB_WK@Z 10008493 f i GestureControl.obj
 0001:000074e8       ?PreProcessBuffer@CRegParser@ATL@@QAEJPA_WPAPA_W@Z 100084e8 f i GestureControl.obj
 0001:00007757       ?ProcessWindowMessage@?$CComControl@VCOPOSGestureControl@@V?$CWindowImpl@VCOPOSGestureControl@@VCWindow@ATL@@V?$CWinTraits@$0FGAAAAAA@$0A@@3@@ATL@@@ATL@@UAEHPAUHWND__@@IIJAAJK@Z 10008757 f i GestureControl.obj
 0001:000077f6       ?ReadFromStream@CComBSTR@ATL@@QAEJPAUIStream@@@Z 100087f6 f i GestureControl.obj
 0001:00007919       ?ReadFromStream@CComVariant@ATL@@QAEJPAUIStream@@GTClassesAllowedInStream@2@K@Z 10008919 f i GestureControl.obj
 0001:00007aa3       ?RecurseDeleteKey@CRegKey@ATL@@QAEJPB_W@Z 10008aa3 f i GestureControl.obj
 0001:00007b91       ?RegCreateKeyExW@CAtlTransactionManager@ATL@@QAEJPAUHKEY__@@PB_WKPA_WKKQAU_SECURITY_ATTRIBUTES@@PAPAU3@PAK@Z 10008b91 f i GestureControl.obj
 0001:00007bf4       ?RegDeleteKeyW@CAtlTransactionManager@ATL@@QAEJPAUHKEY__@@PB_W@Z 10008bf4 f i GestureControl.obj
 0001:00007c46       ?RegOpenKeyExW@CAtlTransactionManager@ATL@@QAEJPAUHKEY__@@PB_WKKPAPAU3@@Z 10008c46 f i GestureControl.obj
 0001:00007c9d       ?Register@_ATL_WNDCLASSINFOW@ATL@@QAEGPAP6GJPAUHWND__@@IIJ@Z@Z 10008c9d f i GestureControl.obj
 0001:00007cbd       ?RegisterBuffer@CRegParser@ATL@@QAEJPA_WH@Z 10008cbd f i GestureControl.obj
 0001:00007e04       ?RegisterFromResource@CRegObject@ATL@@IAEJPB_W00H@Z 10008e04 f i GestureControl.obj
 0001:00007f3a       ?RegisterServer@?$CAtlModuleT@VCComModule@ATL@@@ATL@@QAEJHPBU_GUID@@@Z 10008f3a f i GestureControl.obj
 0001:00007f68       ?RegisterServer@CComModule@ATL@@QAEJHPBU_GUID@@@Z 10008f68 f i GestureControl.obj
 0001:00007fde       ?RegisterSubkeys@CRegParser@ATL@@IAEJPA_WPAUHKEY__@@HH@Z 10008fde f i GestureControl.obj
 0001:0000868b       ?Remove@CComDynamicUnkArray@ATL@@QAEHK@Z 1000968b f i GestureControl.obj
 0001:000086b4       ?RemoveAll@?$CSimpleMap@PA_WPA_WVCExpansionVectorEqualHelper@ATL@@@ATL@@QAEXXZ 100096b4 f i GestureControl.obj
 0001:000086e0       ?ResourceRegisterSz@CRegObject@ATL@@QAGJPB_W00@Z 100096e0 f i GestureControl.obj
 0001:0000870d       ?ResourceUnregisterSz@CRegObject@ATL@@QAGJPB_W00@Z 1000970d f i GestureControl.obj
 0001:0000873a       ?SendOnDataChange@CComControlBase@ATL@@QAEJK@Z 1000973a f i GestureControl.obj
 0001:00008787       ?SetControlFocus@CComControlBase@ATL@@QAEHH@Z 10009787 f i GestureControl.obj
 0001:00008824       ?SetMultiStringValue@CRegKey@ATL@@QAEJPB_W0@Z 10009824 f i GestureControl.obj
 0001:00008880       ?SetStringValue@CRegKey@ATL@@QAEJPB_W0K@Z 10009880 f i GestureControl.obj
 0001:000088c9       ?SkipAssignment@CRegParser@ATL@@IAEJPA_W@Z 100098c9 f i GestureControl.obj
 0001:0000892e       ?SkipWhiteSpace@CRegParser@ATL@@IAEXXZ 1000992e f i GestureControl.obj
 0001:00008950       ?StrChrW@CRegParser@ATL@@KAPA_WPA_W_W@Z 10009950 f i GestureControl.obj
 0001:0000898d       ?Term@CAtlModule@ATL@@QAEXXZ 1000998d f i GestureControl.obj
 0001:000089e0       ?Term@CComModule@ATL@@QAEXXZ 100099e0 f i GestureControl.obj
 0001:00008a38       ?UnregisterServer@?$CAtlModuleT@VCComModule@ATL@@@ATL@@QAEJHPBU_GUID@@@Z 10009a38 f i GestureControl.obj
 0001:00008a5e       ?UnregisterServer@CComModule@ATL@@QAEJHPBU_GUID@@@Z 10009a5e f i GestureControl.obj
 0001:00008ad4       ?UpdateRegistryFromResource@CAtlModule@ATL@@QAGJIHPAU_ATL_REGMAP_ENTRY@2@@Z 10009ad4 f i GestureControl.obj
 0001:00008c9f       ?UpdateRegistryFromResource@CAtlModule@ATL@@QAGJPB_WHPAU_ATL_REGMAP_ENTRY@2@@Z 10009c9f f i GestureControl.obj
 0001:00008e70       ?VTFromRegType@CRegParser@ATL@@KAHPB_WAAG@Z 10009e70 f i GestureControl.obj
 0001:00008edd       ?WindowProc@?$CWindowImplBaseT@VCWindow@ATL@@V?$CWinTraits@$0FGAAAAAA@$0A@@2@@ATL@@SGJPAUHWND__@@IIJ@Z 10009edd f i GestureControl.obj
 0001:00008fcf       ?WriteToStream@CComBSTR@ATL@@QAEJPAUIStream@@@Z 10009fcf f i GestureControl.obj
 0001:00009031       ?WriteToStream@CComVariant@ATL@@QAEJPAUIStream@@@Z 1000a031 f i GestureControl.obj
 0001:000091ab       ?WriteToStream@CComVariant@ATL@@QAEJPAUIStream@@G@Z 1000a1ab f i GestureControl.obj
 0001:00009214       ?_AtlInitialConstruct@?$CComObjectRootEx@VCComMultiThreadModel@ATL@@@ATL@@QAEJXZ 1000a214 f i GestureControl.obj
 0001:00009229       ?_AtlVerifyStackAvailable@_ATL_SAFE_ALLOCA_IMPL@ATL@@YA_NK@Z 1000a229 f i GestureControl.obj
 0001:000092a7       ?atlCreate@?$CWindowImpl@VCOPOSGestureControl@@VCWindow@ATL@@V?$CWinTraits@$0FGAAAAAA@$0A@@3@@ATL@@QAEPAUHWND__@@PAU3@V_U_RECT@2@PB_WKKV_U_MENUorID@2@PAX@Z 1000a2a7 f i GestureControl.obj
 0001:000092eb       ?atlCreate@?$CWindowImplBaseT@VCWindow@ATL@@V?$CWinTraits@$0FGAAAAAA@$0A@@2@@ATL@@QAEPAUHWND__@@PAU3@V_U_RECT@2@PB_WKKV_U_MENUorID@2@GPAX@Z 1000a2eb f i GestureControl.obj
 0001:00009387       ?copy@?$_Copy@UtagCONNECTDATA@@@ATL@@SAJPAUtagCONNECTDATA@@PBU3@@Z 1000a387 f i GestureControl.obj
 0001:000093bd       ?copy@?$_CopyInterface@UIConnectionPoint@@@ATL@@SAJPAPAUIConnectionPoint@@PBQAU3@@Z 1000a3bd f i GestureControl.obj
 0001:000093eb       ?memcpy_s@Checked@ATL@@YAXPAXIPBXI@Z 1000a3eb f i GestureControl.obj
 0001:0000940a       ?ocscpy_s@@YA_NPA_WIPB_W@Z 1000a40a f i GestureControl.obj
 0001:00009454       ?wcscpy_s@Checked@ATL@@YAXPA_WIPB_W@Z 1000a454 f i GestureControl.obj
 0001:00009470       _DllCanUnloadNow@0         1000a470 f   GestureControl.obj
 0001:0000947c       _DllGetClassObject@12      1000a47c f   GestureControl.obj
 0001:0000948a       _DllMain@12                1000a48a f   GestureControl.obj
 0001:000094cc       _DllRegisterServer@0       1000a4cc f   GestureControl.obj
 0001:000094db       _DllUnregisterServer@0     1000a4db f   GestureControl.obj
 0001:000094ea       _InlineIsEqualGUID         1000a4ea f i GestureControl.obj
 0001:0000951a       ___local_stdio_printf_options 1000a51a f i GestureControl.obj
 0001:00009520       __vswprintf_s_l            1000a520 f i GestureControl.obj
 0001:000095cd       _swprintf_s                1000a5cd f i GestureControl.obj
 0001:000095e9       ??0?$CComControl@VCOPOSGestureControl@@V?$CWindowImpl@VCOPOSGestureControl@@VCWindow@ATL@@V?$CWinTraits@$0FGAAAAAA@$0A@@3@@ATL@@@ATL@@QAE@XZ 1000a5e9 f i GestureControlImpl.obj
 0001:00009610       ??0?$CProxy_IOPOSEvents@VCOPOSGestureControl@@@@QAE@XZ 1000a610 f i GestureControlImpl.obj
 0001:00009633       ??0CComControlBase@ATL@@QAE@AAPAUHWND__@@@Z 1000a633 f i GestureControlImpl.obj
 0001:00009683       ??0COPOSGestureControl@@QAE@XZ 1000a683 f   GestureControlImpl.obj
 0001:000096b9       ??1?$CComControl@VCOPOSGestureControl@@V?$CWindowImpl@VCOPOSGestureControl@@VCWindow@ATL@@V?$CWinTraits@$0FGAAAAAA@$0A@@3@@ATL@@@ATL@@UAE@XZ 1000a6b9 f i GestureControlImpl.obj
 0001:000096d2       ??1?$IConnectionPointImpl@VCOPOSGestureControl@@$1?IID_IPropertyNotifySink@@3U_GUID@@BVCComDynamicUnkArray@ATL@@@ATL@@QAE@XZ 1000a6d2 f i GestureControlImpl.obj
 0001:000096d2       ??1?$IConnectionPointImpl@VCOPOSGestureControl@@$1?DIID__IOPOSGestureControlEvents@@3U_GUID@@BVCComDynamicUnkArray@ATL@@@ATL@@QAE@XZ 1000a6d2 f i GestureControlImpl.obj
 0001:0000970f       ??1CComControlBase@ATL@@UAE@XZ 1000a70f f i GestureControlImpl.obj
 0001:00009772       ??1COPOSGestureControl@@UAE@XZ 1000a772 f   GestureControlImpl.obj
 0001:000097ba       ?CheckHealth@COPOSGestureControl@@UAGJJPAJ@Z 1000a7ba f   GestureControlImpl.obj
 0001:00009809       ?ClaimDevice@COPOSGestureControl@@UAGJJPAJ@Z 1000a809 f   GestureControlImpl.obj
 0001:0000987e       ?ClearOutput@COPOSGestureControl@@UAGJPAJ@Z 1000a87e f   GestureControlImpl.obj
 0001:00009899       ?Close@COPOSGestureControl@@UAGJPAJ@Z 1000a899 f   GestureControlImpl.obj
 0001:00009907       ?CompareFirmwareVersion@COPOSGestureControl@@UAGJPA_WPAJ1@Z 1000a907 f   GestureControlImpl.obj
 0001:00009987       ?CreateMotion@COPOSGestureControl@@UAGJPA_W0PAJ@Z 1000a987 f   GestureControlImpl.obj
 0001:00009a07       ?CreatePose@COPOSGestureControl@@UAGJPA_WJPAJ@Z 1000aa07 f   GestureControlImpl.obj
 0001:00009a83       ?DirectIO@COPOSGestureControl@@UAGJJPAJPAPA_W0@Z 1000aa83 f   GestureControlImpl.obj
 0001:00009b31       ?DoInvoke@COPOSGestureControl@@IAEJJPAVOposVariant@@IHPAJ_N@Z 1000ab31 f   GestureControlImpl.obj
 0001:00009c0d       ?EventClose@COPOSGestureControl@@IAEXXZ 1000ac0d f i GestureControlImpl.obj
 0001:00009c40       ?EventInit@COPOSGestureControl@@IAEJXZ 1000ac40 f i GestureControlImpl.obj
 0001:00009d0c       ?EventUninit@COPOSGestureControl@@IAEXXZ 1000ad0c f i GestureControlImpl.obj
 0001:00009d5e       ?EventWindowProc@COPOSGestureControl@@IAGJIIJ@Z 1000ad5e f i GestureControlImpl.obj
 0001:00009e31       ?FinalConstruct@COPOSGestureControl@@QAEJXZ 1000ae31 f   GestureControlImpl.obj
 0001:00009e6a       ?FireEventCleanup@COPOSGestureControl@@IAEXXZ 1000ae6a f i GestureControlImpl.obj
 0001:00009e80       ?FireEventSetup@COPOSGestureControl@@IAE_NXZ 1000ae80 f i GestureControlImpl.obj
 0001:00009eb4       ?FreezeEvents@COPOSGestureControl@@MAGJH@Z 1000aeb4 f   GestureControlImpl.obj
 0001:00009f14       ?GetOposProp@COPOSGestureControl@@IAEJJPAFJ@Z 1000af14 f   GestureControlImpl.obj
 0001:00009f37       ?GetOposProp@COPOSGestureControl@@IAEJJPAJJ@Z 1000af37 f   GestureControlImpl.obj
 0001:0000a006       ?GetOposProp@COPOSGestureControl@@IAEJJPAPA_WJ@Z 1000b006 f   GestureControlImpl.obj
 0001:0000a0e2       ?GetPosition@COPOSGestureControl@@UAGJPA_WPAJ1@Z 1000b0e2 f   GestureControlImpl.obj
 0001:0000a162       ?OnDraw@COPOSGestureControl@@MAEJAAUATL_DRAWINFO@@@Z 1000b162 f   GestureControlImpl.obj
 0001:0000a202       ?Open@COPOSGestureControl@@UAGJPA_WPAJ@Z 1000b202 f   GestureControlImpl.obj
 0001:0000aa44       ?ReleaseDevice@COPOSGestureControl@@UAGJPAJ@Z 1000ba44 f   GestureControlImpl.obj
 0001:0000aa93       ?ResetStatistics@COPOSGestureControl@@UAGJPA_WPAJ@Z 1000ba93 f   GestureControlImpl.obj
 0001:0000aaea       ?RetrieveStatistics@COPOSGestureControl@@UAGJPAPA_WPAJ@Z 1000baea f   GestureControlImpl.obj
 0001:0000ab41       ?SOProcessID@COPOSGestureControl@@UAGJPAJ@Z 1000bb41 f   GestureControlImpl.obj
 0001:0000ab55       ?SetCOFreezeEvents@COPOSGestureControl@@IAEXF@Z 1000bb55 f   GestureControlImpl.obj
 0001:0000abf5       ?SetOposProp@COPOSGestureControl@@IAEJJJJ@Z 1000bbf5 f   GestureControlImpl.obj
 0001:0000acec       ?SetOposProp@COPOSGestureControl@@IAEJJPA_WJ@Z 1000bcec f   GestureControlImpl.obj
 0001:0000aded       ?SetPosition@COPOSGestureControl@@UAGJPA_WJFPAJ@Z 1000bded f   GestureControlImpl.obj
 0001:0000ae91       ?SetSpeed@COPOSGestureControl@@UAGJPA_WJPAJ@Z 1000be91 f   GestureControlImpl.obj
 0001:0000af0d       ?StartMotion@COPOSGestureControl@@UAGJPA_WPAJ@Z 1000bf0d f   GestureControlImpl.obj
 0001:0000af64       ?StartPose@COPOSGestureControl@@UAGJPA_WPAJ@Z 1000bf64 f   GestureControlImpl.obj
 0001:0000afbb       ?StopControl@COPOSGestureControl@@UAGJJPAJ@Z 1000bfbb f   GestureControlImpl.obj
 0001:0000b00a       ?UpdateFirmware@COPOSGestureControl@@UAGJPA_WPAJ@Z 1000c00a f   GestureControlImpl.obj
 0001:0000b061       ?UpdateStatistics@COPOSGestureControl@@UAGJPA_WPAJ@Z 1000c061 f   GestureControlImpl.obj
 0001:0000b0b8       ?get_AutoMode@COPOSGestureControl@@UAGJPAPA_W@Z 1000c0b8 f   GestureControlImpl.obj
 0001:0000b0d1       ?get_AutoModeList@COPOSGestureControl@@UAGJPAPA_W@Z 1000c0d1 f   GestureControlImpl.obj
 0001:0000b0ea       ?get_BinaryConversion@COPOSGestureControl@@UAGJPAJ@Z 1000c0ea f   GestureControlImpl.obj
 0001:0000b100       ?get_CapAssociatedHardTotalsDevice@COPOSGestureControl@@UAGJPAPA_W@Z 1000c100 f   GestureControlImpl.obj
 0001:0000b119       ?get_CapCompareFirmwareVersion@COPOSGestureControl@@UAGJPAF@Z 1000c119 f   GestureControlImpl.obj
 0001:0000b132       ?get_CapMotion@COPOSGestureControl@@UAGJPAF@Z 1000c132 f   GestureControlImpl.obj
 0001:0000b14b       ?get_CapMotionCreation@COPOSGestureControl@@UAGJPAF@Z 1000c14b f   GestureControlImpl.obj
 0001:0000b164       ?get_CapPose@COPOSGestureControl@@UAGJPAF@Z 1000c164 f   GestureControlImpl.obj
 0001:0000b17d       ?get_CapPoseCreation@COPOSGestureControl@@UAGJPAF@Z 1000c17d f   GestureControlImpl.obj
 0001:0000b196       ?get_CapPowerReporting@COPOSGestureControl@@UAGJPAJ@Z 1000c196 f   GestureControlImpl.obj
 0001:0000b1af       ?get_CapStatisticsReporting@COPOSGestureControl@@UAGJPAF@Z 1000c1af f   GestureControlImpl.obj
 0001:0000b1c8       ?get_CapStorage@COPOSGestureControl@@UAGJPAJ@Z 1000c1c8 f   GestureControlImpl.obj
 0001:0000b1e1       ?get_CapUpdateFirmware@COPOSGestureControl@@UAGJPAF@Z 1000c1e1 f   GestureControlImpl.obj
 0001:0000b1fa       ?get_CapUpdateStatistics@COPOSGestureControl@@UAGJPAF@Z 1000c1fa f   GestureControlImpl.obj
 0001:0000b213       ?get_CheckHealthText@COPOSGestureControl@@UAGJPAPA_W@Z 1000c213 f   GestureControlImpl.obj
 0001:0000b22c       ?get_Claimed@COPOSGestureControl@@UAGJPAF@Z 1000c22c f   GestureControlImpl.obj
 0001:0000b242       ?get_ControlObjectDescription@COPOSGestureControl@@UAGJPAPA_W@Z 1000c242 f   GestureControlImpl.obj
 0001:0000b290       ?get_ControlObjectVersion@COPOSGestureControl@@UAGJPAJ@Z 1000c290 f   GestureControlImpl.obj
 0001:0000b2a3       ?get_DeviceDescription@COPOSGestureControl@@UAGJPAPA_W@Z 1000c2a3 f   GestureControlImpl.obj
 0001:0000b2bc       ?get_DeviceEnabled@COPOSGestureControl@@UAGJPAF@Z 1000c2bc f   GestureControlImpl.obj
 0001:0000b2d2       ?get_DeviceName@COPOSGestureControl@@UAGJPAPA_W@Z 1000c2d2 f   GestureControlImpl.obj
 0001:0000b2eb       ?get_FreezeEvents@COPOSGestureControl@@UAGJPAF@Z 1000c2eb f   GestureControlImpl.obj
 0001:0000b301       ?get_JointList@COPOSGestureControl@@UAGJPAPA_W@Z 1000c301 f   GestureControlImpl.obj
 0001:0000b31a       ?get_MotionList@COPOSGestureControl@@UAGJPAPA_W@Z 1000c31a f   GestureControlImpl.obj
 0001:0000b333       ?get_OpenResult@COPOSGestureControl@@UAGJPAJ@Z 1000c333 f   GestureControlImpl.obj
 0001:0000b34a       ?get_OutputID@COPOSGestureControl@@UAGJPAJ@Z 1000c34a f   GestureControlImpl.obj
 0001:0000b360       ?get_PoseCreationMode@COPOSGestureControl@@UAGJPAF@Z 1000c360 f   GestureControlImpl.obj
 0001:0000b379       ?get_PoseList@COPOSGestureControl@@UAGJPAPA_W@Z 1000c379 f   GestureControlImpl.obj
 0001:0000b392       ?get_PowerNotify@COPOSGestureControl@@UAGJPAJ@Z 1000c392 f   GestureControlImpl.obj
 0001:0000b3a8       ?get_PowerState@COPOSGestureControl@@UAGJPAJ@Z 1000c3a8 f   GestureControlImpl.obj
 0001:0000b3be       ?get_ResultCode@COPOSGestureControl@@UAGJPAJ@Z 1000c3be f   GestureControlImpl.obj
 0001:0000b3fc       ?get_ResultCodeExtended@COPOSGestureControl@@UAGJPAJ@Z 1000c3fc f   GestureControlImpl.obj
 0001:0000b412       ?get_ServiceObjectDescription@COPOSGestureControl@@UAGJPAPA_W@Z 1000c412 f   GestureControlImpl.obj
 0001:0000b42b       ?get_ServiceObjectVersion@COPOSGestureControl@@UAGJPAJ@Z 1000c42b f   GestureControlImpl.obj
 0001:0000b441       ?get_State@COPOSGestureControl@@UAGJPAJ@Z 1000c441 f   GestureControlImpl.obj
 0001:0000b46d       ?get_Storage@COPOSGestureControl@@UAGJPAJ@Z 1000c46d f   GestureControlImpl.obj
 0001:0000b486       ?put_AutoMode@COPOSGestureControl@@UAGJPA_W@Z 1000c486 f   GestureControlImpl.obj
 0001:0000b49f       ?put_BinaryConversion@COPOSGestureControl@@UAGJJ@Z 1000c49f f   GestureControlImpl.obj
 0001:0000b4b5       ?put_DeviceEnabled@COPOSGestureControl@@UAGJF@Z 1000c4b5 f   GestureControlImpl.obj
 0001:0000b4d2       ?put_FreezeEvents@COPOSGestureControl@@UAGJF@Z 1000c4d2 f   GestureControlImpl.obj
 0001:0000b51e       ?put_PoseCreationMode@COPOSGestureControl@@UAGJF@Z 1000c51e f   GestureControlImpl.obj
 0001:0000b53e       ?put_PowerNotify@COPOSGestureControl@@UAGJJ@Z 1000c53e f   GestureControlImpl.obj
 0001:0000b554       ?put_Storage@COPOSGestureControl@@UAGJJ@Z 1000c554 f   GestureControlImpl.obj
 0001:0000b56d       ?s_EventWindowProc@COPOSGestureControl@@KGJPAUHWND__@@IIJ@Z 1000c56d f i GestureControlImpl.obj
 0001:0000b5bf       ??_U@YAPAXI@Z              1000c5bf f   LIBCMT:new_array.obj
 0001:0000b5c8       ??3@YAXPAXI@Z              1000c5c8 f   LIBCMT:delete_scalar_size.obj
 0001:0000b5d6       ??_V@YAXPAX@Z              1000c5d6 f   LIBCMT:delete_array.obj
 0001:0000b5db       ??_V@YAXPAXI@Z             1000c5db f   LIBCMT:delete_array_size.obj
 0001:0000b62d       ___scrt_acquire_startup_lock 1000c62d f   LIBCMT:utility.obj
 0001:0000b65f       ___scrt_dllmain_after_initialize_c 1000c65f f   LIBCMT:utility.obj
 0001:0000b68a       ___scrt_dllmain_before_initialize_c 1000c68a f   LIBCMT:utility.obj
 0001:0000b698       ___scrt_dllmain_crt_thread_attach 1000c698 f   LIBCMT:utility.obj
 0001:0000b6b7       ___scrt_dllmain_crt_thread_detach 1000c6b7 f   LIBCMT:utility.obj
 0001:0000b6c4       ___scrt_dllmain_exception_filter 1000c6c4 f   LIBCMT:utility.obj
 0001:0000b6f8       ___scrt_dllmain_uninitialize_c 1000c6f8 f   LIBCMT:utility.obj
 0001:0000b71b       ___scrt_dllmain_uninitialize_critical 1000c71b f   LIBCMT:utility.obj
 0001:0000b728       ___scrt_initialize_crt     1000c728 f   LIBCMT:utility.obj
 0001:0000b761       ___scrt_initialize_onexit_tables 1000c761 f   LIBCMT:utility.obj
 0001:0000b7e8       ___scrt_is_nonwritable_in_current_image 1000c7e8 f   LIBCMT:utility.obj
 0001:0000b87c       ___scrt_release_startup_lock 1000c87c f   LIBCMT:utility.obj
 0001:0000b899       ___scrt_uninitialize_crt   1000c899 f   LIBCMT:utility.obj
 0001:0000b8c1       __onexit                   1000c8c1 f   LIBCMT:utility.obj
 0001:0000b8ee       _atexit                    1000c8ee f   LIBCMT:utility.obj
 0001:0000b903       ??3@YAXPAX@Z               1000c903 f   LIBCMT:delete_scalar.obj
 0001:0000b9cd       __Init_thread_footer       1000c9cd f   LIBCMT:thread_safe_statics.obj
 0001:0000ba17       __Init_thread_header       1000ca17 f   LIBCMT:thread_safe_statics.obj
 0001:0000ba69       __Init_thread_notify       1000ca69 f   LIBCMT:thread_safe_statics.obj
 0001:0000ba9f       __Init_thread_wait         1000ca9f f   LIBCMT:thread_safe_statics.obj
 0001:0000baed       ___raise_securityfailure   1000caed f   LIBCMT:gs_report.obj
 0001:0000bb15       ___report_gsfailure        1000cb15 f   LIBCMT:gs_report.obj
 0001:0000bc0e       ___report_rangecheckfailure 1000cc0e f   LIBCMT:gs_report.obj
 0001:0000bc1a       ___report_securityfailure  1000cc1a f   LIBCMT:gs_report.obj
 0001:0000bce8       ??2@YAPAXIABUnothrow_t@std@@@Z 1000cce8 f   LIBCMT:new_scalar_nothrow.obj
 0001:0000bd3d       ??_U@YAPAXIABUnothrow_t@std@@@Z 1000cd3d f   LIBCMT:new_array_nothrow.obj
 0001:0000bd46       @__security_check_cookie@4 1000cd46 f   LIBCMT:secchk.obj
 0001:0000bd60       __SEH_prolog4_GS           1000cd60 f   LIBCMT:sehprolg4gs.obj
 0001:0000bda7       __SEH_epilog4_GS           1000cda7 f   LIBCMT:sehprolg4gs.obj
 0001:0000bdc0       __alloca_probe_16          1000cdc0 f   LIBCMT:alloca16.obj
 0001:0000bdd6       __alloca_probe_8           1000cdd6     LIBCMT:alloca16.obj
 0001:0000bdf0       __chkstk                   1000cdf0 f   LIBCMT:chkstk.obj
 0001:0000bdf0       __alloca_probe             1000cdf0 f   LIBCMT:chkstk.obj
 0001:0000c15d       __DllMainCRTStartup@12     1000d15d f   LIBCMT:dll_dllmain.obj
 0001:0000c180       ??2@YAPAXI@Z               1000d180 f   LIBCMT:new_scalar.obj
 0001:0000c1b0       ___isa_available_init      1000d1b0 f   LIBCMT:cpu_disp.obj
 0001:0000c380       ___scrt_is_ucrt_dll_in_use 1000d380 f   LIBCMT:ucrt_detection.obj
 0001:0000c38c       ___scrt_fastfail           1000d38c f   LIBCMT:utility_desktop.obj
 0001:0000c4a6       __crt_debugger_hook        1000d4a6 f   LIBCMT:utility_desktop.obj
 0001:0000c4b0       __SEH_prolog4              1000d4b0 f   LIBCMT:sehprolg4.obj
 0001:0000c4f4       __SEH_epilog4              1000d4f4 f   LIBCMT:sehprolg4.obj
 0001:0000c508       @_guard_check_icall_nop@4  1000d508 f i LIBCMT:guard_support.obj
 0001:0000c558       ___security_init_cookie    1000d558 f   LIBCMT:gs_support.obj
 0001:0000c5a3       ?__scrt_initialize_type_info@@YAXXZ 1000d5a3 f   LIBCMT:tncleanup.obj
 0001:0000c5af       ?__scrt_uninitialize_type_info@@YAXXZ 1000d5af f   LIBCMT:tncleanup.obj
 0001:0000c5bb       ___local_stdio_scanf_options 1000d5bb f i LIBCMT:default_local_stdio_options.obj
 0001:0000c5c1       ___scrt_initialize_default_local_stdio_options 1000d5c1 f   LIBCMT:default_local_stdio_options.obj
 0001:0000c5de       ___scrt_get_dyn_tls_init_callback 1000d5de f   LIBCMT:dyn_tls_init.obj
 0001:0000c5e4       __RTC_Initialize           1000d5e4 f   LIBCMT:initsect.obj
 0001:0000c610       __RTC_Terminate            1000d610 f   LIBCMT:initsect.obj
 0001:0000c63c       ??0bad_alloc@std@@QAE@ABV01@@Z 1000d63c f i LIBCMT:throw_bad_alloc.obj
 0001:0000c657       ??0bad_alloc@std@@QAE@XZ   1000d657 f i LIBCMT:throw_bad_alloc.obj
 0001:0000c66f       ??0bad_array_new_length@std@@QAE@ABV01@@Z 1000d66f f i LIBCMT:throw_bad_alloc.obj
 0001:0000c68a       ??0bad_array_new_length@std@@QAE@XZ 1000d68a f i LIBCMT:throw_bad_alloc.obj
 0001:0000c6a2       ??0exception@std@@QAE@ABV01@@Z 1000d6a2 f i LIBCMT:throw_bad_alloc.obj
 0001:0000c6ce       ??1bad_exception@std@@UAE@XZ 1000d6ce f i libvcruntime:frame.obj
 0001:0000c6ce       ??1bad_array_new_length@std@@UAE@XZ 1000d6ce f i LIBCMT:throw_bad_alloc.obj
 0001:0000c6ce       ??1bad_alloc@std@@UAE@XZ   1000d6ce f i LIBCMT:throw_bad_alloc.obj
 0001:0000c6df       ??_Gexception@std@@UAEPAXI@Z 1000d6df f i LIBCMT:throw_bad_alloc.obj
 0001:0000c6df       ??_Eexception@std@@UAEPAXI@Z 1000d6df f i LIBCMT:throw_bad_alloc.obj
 0001:0000c6df       ??_Ebad_exception@std@@UAEPAXI@Z 1000d6df f i libvcruntime:frame.obj
 0001:0000c6df       ??_Gbad_array_new_length@std@@UAEPAXI@Z 1000d6df f i LIBCMT:throw_bad_alloc.obj
 0001:0000c6df       ??_Ebad_alloc@std@@UAEPAXI@Z 1000d6df f i LIBCMT:throw_bad_alloc.obj
 0001:0000c6df       ??_Ebad_array_new_length@std@@UAEPAXI@Z 1000d6df f i LIBCMT:throw_bad_alloc.obj
 0001:0000c6df       ??_Gbad_exception@std@@UAEPAXI@Z 1000d6df f i libvcruntime:frame.obj
 0001:0000c6df       ??_Gbad_alloc@std@@UAEPAXI@Z 1000d6df f i LIBCMT:throw_bad_alloc.obj
 0001:0000c70c       ?__scrt_throw_std_bad_alloc@@YAXXZ 1000d70c f   LIBCMT:throw_bad_alloc.obj
 0001:0000c729       ?__scrt_throw_std_bad_array_new_length@@YAXXZ 1000d729 f   LIBCMT:throw_bad_alloc.obj
 0001:0000c746       ?what@exception@std@@UBEPBDXZ 1000d746 f i LIBCMT:throw_bad_alloc.obj
 0001:0000c753       ??_Etype_info@@UAEPAXI@Z   1000d753 f i LIBCMT:std_type_info_static.obj
 0001:0000c753       ??_Gtype_info@@UAEPAXI@Z   1000d753 f i LIBCMT:std_type_info_static.obj
 0001:0000c776       ??0CAtlBaseModule@ATL@@QAE@XZ 1000d776 f   atls:atlbase.obj
 0001:0000c7c9       ??0_ATL_BASE_MODULE70@ATL@@QAE@XZ 1000d7c9 f i atls:atlbase.obj
 0001:0000c7ec       ??1CAtlBaseModule@ATL@@QAE@XZ 1000d7ec f   atls:atlbase.obj
 0001:0000c8d9       ?Init@_stdcallthunk@ATL@@QAEHKPAX@Z 1000d8d9 f i atls:atlthunk.obj
 0001:0000c90e       ?__AllocStdCallThunk_cmn@@YAPAXXZ 1000d90e f   atls:atlthunk.obj
 0001:0000c9d4       ?__FreeStdCallThunk_cmn@@YAXPAX@Z 1000d9d4 f   atls:atlthunk.obj
 0001:0000ca6f       _AtlThunk_AllocateData@0   1000da6f f   atls:atlthunk.obj
 0001:0000cad4       _AtlThunk_DataToCode@4     1000dad4 f   atls:atlthunk.obj
 0001:0000cb1b       _AtlThunk_FreeData@4       1000db1b f   atls:atlthunk.obj
 0001:0000cb71       _AtlThunk_InitData@12      1000db71 f   atls:atlthunk.obj
 0001:0000cbc0       __get_purecall_handler     1000dbc0 f   libvcruntime:purevirt.obj
 0001:0000cbc6       __purecall                 1000dbc6 f   libvcruntime:purevirt.obj
 0001:0000cbe2       _wcsstr                    1000dbe2 f   libvcruntime:wcsstr.obj
 0001:0000ce90       __except_handler4          1000de90 f   libvcruntime:chandler4.obj
 0001:0000cfee       _memcmp                    1000dfee f   libvcruntime:memcmp.obj
 0001:0000df00       _memcpy                    1000ef00 f   libvcruntime:memcpy.obj
 0001:0000e480       _memset                    1000f480 f   libvcruntime:memset.obj
 0001:0000e5da       ___vcrt_initialize         1000f5da f   libvcruntime:initialization.obj
 0001:0000e5f9       ___vcrt_thread_attach      1000f5f9 f   libvcruntime:initialization.obj
 0001:0000e604       ___vcrt_thread_detach      1000f604 f   libvcruntime:initialization.obj
 0001:0000e60f       ___vcrt_uninitialize       1000f60f f   libvcruntime:initialization.obj
 0001:0000e626       ___vcrt_uninitialize_critical 1000f626 f   libvcruntime:initialization.obj
 0001:0000e62e       ?GetRangeOfTrysToCheck@__FrameHandler3@@SA?AU?$pair@Viterator@TryBlockMap@__FrameHandler3@@V123@@std@@AAVTryBlockMap@1@HPAXPBU_s_FuncInfo@@H@Z 1000f62e f   libvcruntime:trnsctrl.obj
 0001:0000e69e       ?_CallCatchBlock2@@YAPAXPAUEHRegistrationNode@@PBU_s_FuncInfo@@PAXHK@Z 1000f69e f   libvcruntime:trnsctrl.obj
 0001:0000e6fc       ?_CallSETranslator@@YAHPAUEHExceptionRecord@@PAUEHRegistrationNode@@PAX2PBU_s_FuncInfo@@H1@Z 1000f6fc f   libvcruntime:trnsctrl.obj
 0001:0000e7e2       ?_JumpToContinuation@@YGXPAXPAUEHRegistrationNode@@@Z 1000f7e2 f   libvcruntime:trnsctrl.obj
 0001:0000e812       ?_UnwindNestedFrames@@YGXPAUEHRegistrationNode@@PAUEHExceptionRecord@@@Z 1000f812 f   libvcruntime:trnsctrl.obj
 0001:0000e865       __CatchGuardHandler        1000f865 f   libvcruntime:trnsctrl.obj
 0001:0000e896       __CreateFrameInfo          1000f896 f   libvcruntime:trnsctrl.obj
 0001:0000e8ba       __FindAndUnlinkFrame       1000f8ba f   libvcruntime:trnsctrl.obj
 0001:0000e902       __TranslatorGuardHandler   1000f902 f   libvcruntime:trnsctrl.obj
 0001:0000e99f       ___CxxFrameHandler3        1000f99f f   libvcruntime:trnsctrl.obj
 0001:0000e9d5       ___DestructExceptionObject 1000f9d5 f   libvcruntime:ehhelpers.obj
 0001:0000ea76       ?_CallMemberFunction0@@YGXQAX0@Z 1000fa76 f i libvcruntime:ehhelpers.obj
 0001:0000eadb       __IsExceptionObjectToBeDestroyed 1000fadb f   libvcruntime:ehhelpers.obj
 0001:0000eb01       ___AdjustPointer           1000fb01 f   libvcruntime:ehhelpers.obj
 0001:0000eb26       ___FrameUnwindFilter       1000fb26 f   libvcruntime:ehhelpers.obj
 0001:0000eb7c       ___std_type_info_compare   1000fb7c f   libvcruntime:std_type_info.obj
 0001:0000ebb8       ___std_type_info_destroy_list 1000fbb8 f   libvcruntime:std_type_info.obj
 0001:0000ebdb       ___std_exception_copy      1000fbdb f   libvcruntime:std_exception.obj
 0001:0000ec3e       ___std_exception_destroy   1000fc3e f   libvcruntime:std_exception.obj
 0001:0000ec5d       __CxxThrowException@8      1000fc5d f   libvcruntime:throw.obj
 0001:0000ecd0       _memmove                   1000fcd0 f   libvcruntime:memmove.obj
 0001:0000f250       __local_unwind4            10010250 f   libvcruntime:exsup4.obj
 0001:0000f324       __seh_longjmp_unwind4@4    10010324 f   libvcruntime:exsup4.obj
 0001:0000f34c       @_EH4_CallFilterFunc@8     1001034c f   libvcruntime:exsup4.obj
 0001:0000f364       @_EH4_TransferToHandler@8  10010364 f   libvcruntime:exsup4.obj
 0001:0000f380       @_EH4_GlobalUnwind2@8      10010380 f   libvcruntime:exsup4.obj
 0001:0000f39c       @_EH4_LocalUnwind@16       1001039c f   libvcruntime:exsup4.obj
 0001:0000f3b3       ___except_validate_context_record 100103b3 f   libvcruntime:jbcxrval.obj
 0001:0000f3e3       ___except_validate_jump_buffer 100103e3 f   libvcruntime:jbcxrval.obj
 0001:0000f410       ___vcrt_freefls@4          10010410 f   libvcruntime:per_thread_data.obj
 0001:0000f42c       ___vcrt_freeptd            1001042c f   libvcruntime:per_thread_data.obj
 0001:0000f462       ___vcrt_getptd             10010462 f   libvcruntime:per_thread_data.obj
 0001:0000f470       ___vcrt_getptd_noexit      10010470 f   libvcruntime:per_thread_data.obj
 0001:0000f502       ___vcrt_initialize_ptd     10010502 f   libvcruntime:per_thread_data.obj
 0001:0000f535       ___vcrt_uninitialize_ptd   10010535 f   libvcruntime:per_thread_data.obj
 0001:0000f550       ___vcrt_initialize_locks   10010550 f   libvcruntime:locks.obj
 0001:0000f58c       ___vcrt_uninitialize_locks 1001058c f   libvcruntime:locks.obj
 0001:0000fcfe       ??$TypeMatchHelper@V__FrameHandler3@@@@YAHPBU_s_HandlerType@@PBU_s_CatchableType@@PBU_s_ThrowInfo@@@Z 10010cfe f i libvcruntime:frame.obj
 0001:0000fd8c       ??$__InternalCxxFrameHandler@V__FrameHandler3@@@@YA?AW4_EXCEPTION_DISPOSITION@@PAUEHExceptionRecord@@PAUEHRegistrationNode@@PAU_CONTEXT@@PAXPBU_s_FuncInfo@@H1E@Z 10010d8c f i libvcruntime:frame.obj
 0001:0000fe8e       ??0bad_exception@std@@QAE@ABV01@@Z 10010e8e f i libvcruntime:frame.obj
 0001:0000fea9       ??0bad_exception@std@@QAE@XZ 10010ea9 f i libvcruntime:frame.obj
 0001:0000fec1       ??8type_info@@QBE_NABV0@@Z 10010ec1 f i libvcruntime:frame.obj
 0001:0001012d       ?FrameUnwindToEmptyState@__FrameHandler3@@SAXPAUEHRegistrationNode@@PAXPBU_s_FuncInfo@@@Z 1001112d f   libvcruntime:frame.obj
 0001:00010145       ?FrameUnwindToState@__FrameHandler3@@SAXPAUEHRegistrationNode@@PAXPBU_s_FuncInfo@@H@Z 10011145 f   libvcruntime:frame.obj
 0001:000102c7       ?_CallMemberFunction1@@YGXQAX00@Z 100112c7 f i libvcruntime:frame.obj
 0001:000102d7       ?_CallMemberFunction2@@YGXQAX00H@Z 100112d7 f i libvcruntime:frame.obj
 0001:000102ea       ?getESTypes@__FrameHandler3@@SAPBU_s_ESTypeList@@PBU_s_FuncInfo@@@Z 100112ea f i libvcruntime:frame.obj
 0001:00010300       __CallSettingFrame@12      10011300 f   libvcruntime:lowhelpr.obj
 0001:00010327       __NLG_Return               10011327     libvcruntime:lowhelpr.obj
 0001:00010350       __global_unwind2           10011350 f   libvcruntime:exsup.obj
 0001:000103b6       __local_unwind2            100113b6 f   libvcruntime:exsup.obj
 0001:0001043a       __abnormal_termination     1001143a f   libvcruntime:exsup.obj
 0001:00010460       __NLG_Notify1              10011460 f   libvcruntime:exsup.obj
 0001:0001046c       __NLG_Notify               1001146c f   libvcruntime:exsup.obj
 0001:00010483       __NLG_Dispatch             10011483     libvcruntime:exsup.obj
 0001:00010483       __NLG_Dispatch2            10011483     libvcruntime:exsup.obj
 0001:0001048b       __NLG_Call                 1001148b f   libvcruntime:exsup.obj
 0001:0001048d       __NLG_Return2              1001148d     libvcruntime:exsup.obj
 0001:00010571       ___vcrt_FlsAlloc           10011571 f   libvcruntime:winapi_downlevel.obj
 0001:000105ac       ___vcrt_FlsFree            100115ac f   libvcruntime:winapi_downlevel.obj
 0001:000105e7       ___vcrt_FlsGetValue        100115e7 f   libvcruntime:winapi_downlevel.obj
 0001:00010622       ___vcrt_FlsSetValue        10011622 f   libvcruntime:winapi_downlevel.obj
 0001:00010660       ___vcrt_InitializeCriticalSectionEx 10011660 f   libvcruntime:winapi_downlevel.obj
 0001:000106a7       _unexpected                100116a7 f   libvcruntime:unexpected.obj
 0001:000106c4       ?GetCurrentState@__FrameHandler3@@SAHPAUEHRegistrationNode@@PAXPBU_s_FuncInfo@@@Z 100116c4 f   libvcruntime:ehstate.obj
 0001:000106e1       ?SetState@__FrameHandler3@@SAXPAUEHRegistrationNode@@PBU_s_FuncInfo@@H@Z 100116e1 f   libvcruntime:ehstate.obj
 0001:000106ef       _free                      100116ef f   libucrt:free.obj
 0001:0001070a       ___acrt_call_reportfault   1001170a f   libucrt:invalid_parameter.obj
 0001:00010843       ___acrt_initialize_invalid_parameter_handler 10011843 f   libucrt:invalid_parameter.obj
 0001:00010852       __invalid_parameter        10011852 f   libucrt:invalid_parameter.obj
 0001:000108b6       __invalid_parameter_noinfo 100118b6 f   libucrt:invalid_parameter.obj
 0001:000108c6       __invoke_watson            100118c6 f   libucrt:invalid_parameter.obj
 0001:000108fa       ___acrt_errno_from_os_error 100118fa f   libucrt:errno.obj
 0001:0001093d       ___acrt_errno_map_os_error 1001193d f   libucrt:errno.obj
 0001:00010960       ___doserrno                10011960 f   libucrt:errno.obj
 0001:00010973       __errno                    10011973 f   libucrt:errno.obj
 0001:00010986       _calloc                    10011986 f   libucrt:calloc.obj
 0001:00010991       _malloc                    10011991 f   libucrt:malloc.obj
 0001:0001099c       __recalloc                 1001199c f   libucrt:recalloc.obj
 0001:000109a7       __recalloc_base            100119a7 f   libucrt:recalloc.obj
 0001:00010a14       __resetstkoflw             10011a14 f   libucrt:resetstk.obj
 0001:00010ad9       _wcscat_s                  10011ad9 f   libucrt:wcscat_s.obj
 0001:00010b4e       _wcscpy_s                  10011b4e f   libucrt:wcscpy_s.obj
 0001:00010c7d       _wcsncpy_s                 10011c7d f   libucrt:wcsncpy_s.obj
 0001:00010e89       ??$count@D@formatting_buffer@__crt_stdio_output@@QBEIXZ 10011e89 f i libucrt:output.obj
 0001:00010ea1       ??$count@_W@formatting_buffer@__crt_stdio_output@@QBEIXZ 10011ea1 f i libucrt:output.obj
 0001:00010eba       ??$ensure_buffer_is_big_enough@D@formatting_buffer@__crt_stdio_output@@QAE_NI@Z 10011eba f i libucrt:output.obj
 0001:00010f37       ??$ensure_buffer_is_big_enough@_W@formatting_buffer@__crt_stdio_output@@QAE_NI@Z 10011f37 f i libucrt:output.obj
 0001:00010fb5       ??$is_wide_character_specifier@_W@__crt_stdio_output@@YA_N_K_WW4length_modifier@0@@Z 10011fb5 f i libucrt:output.obj
 0001:00011003       ??$scratch_data@D@formatting_buffer@__crt_stdio_output@@QAEPADXZ 10012003 f i libucrt:output.obj
 0001:00011021       ??$type_case_integer_parse_into_buffer@I@?$output_processor@_WV?$string_output_adapter@_W@__crt_stdio_output@@V?$format_validation_base@_WV?$string_output_adapter@_W@__crt_stdio_output@@@2@@__crt_stdio_output@@AAEXII_N@Z 10012021 f i libucrt:output.obj
 0001:000110a8       ??$type_case_integer_parse_into_buffer@_K@?$output_processor@_WV?$string_output_adapter@_W@__crt_stdio_output@@V?$format_validation_base@_WV?$string_output_adapter@_W@__crt_stdio_output@@@2@@__crt_stdio_output@@AAEX_KI_N@Z 100120a8 f i libucrt:output.obj
 0001:0001114a       ??$write_multiple_characters@V?$string_output_adapter@_W@__crt_stdio_output@@D@__crt_stdio_output@@YAXABV?$string_output_adapter@_W@0@DHQAH@Z 1001214a f i libucrt:output.obj
 0001:0001117b       ??0?$common_data@_W@__crt_stdio_output@@IAE@XZ 1001217b f i libucrt:output.obj
 0001:000111c5       ??0?$output_adapter_data@_WV?$string_output_adapter@_W@__crt_stdio_output@@@__crt_stdio_output@@IAE@ABV?$string_output_adapter@_W@1@_KQB_WQAU__crt_locale_pointers@@QAD@Z 100121c5 f i libucrt:output.obj
 0001:00011201       ??0_LocaleUpdate@@QAE@QAU__crt_locale_pointers@@@Z 10012201 f i libucrt:output.obj
 0001:00011284       ??1formatting_buffer@__crt_stdio_output@@QAE@XZ 10012284 f i libucrt:output.obj
 0001:0001129e       ??4?$__crt_unique_heap_ptr@DU__crt_internal_free_policy@@@@QAEAAV0@$$QAV0@@Z 1001229e f i libucrt:output.obj
 0001:000112d0       ?crop_zeroes@__crt_stdio_output@@YAXPADQAU__crt_locale_pointers@@@Z 100122d0 f i libucrt:output.obj
 0001:00011351       ?find_next_state@?$output_processor@_WV?$string_output_adapter@_W@__crt_stdio_output@@V?$format_validation_base@_WV?$string_output_adapter@_W@__crt_stdio_output@@@2@@__crt_stdio_output@@ABE?AW4state@2@_WW432@@Z 10012351 f i libucrt:output.obj
 0001:00011390       ?force_decimal_point@__crt_stdio_output@@YAXPADQAU__crt_locale_pointers@@@Z 10012390 f i libucrt:output.obj
 0001:000113f5       ?parse_int_from_format_string@?$output_processor@_WV?$string_output_adapter@_W@__crt_stdio_output@@V?$format_validation_base@_WV?$string_output_adapter@_W@__crt_stdio_output@@@2@@__crt_stdio_output@@AAE_NQAH@Z 100123f5 f i libucrt:output.obj
 0001:0001146b       ?process@?$output_processor@_WV?$string_output_adapter@_W@__crt_stdio_output@@V?$format_validation_base@_WV?$string_output_adapter@_W@__crt_stdio_output@@@2@@__crt_stdio_output@@QAEHXZ 1001246b f i libucrt:output.obj
 0001:00011593       ?state_case_flag@?$output_processor@_WV?$string_output_adapter@_W@__crt_stdio_output@@V?$format_validation_base@_WV?$string_output_adapter@_W@__crt_stdio_output@@@2@@__crt_stdio_output@@AAE_NXZ 10012593 f i libucrt:output.obj
 0001:000115d0       ?state_case_normal@?$output_processor@_WV?$string_output_adapter@_W@__crt_stdio_output@@V?$format_validation_base@_WV?$string_output_adapter@_W@__crt_stdio_output@@@2@@__crt_stdio_output@@AAE_NXZ 100125d0 f i libucrt:output.obj
 0001:000115ef       ?state_case_normal_common@?$output_processor@_WV?$string_output_adapter@_W@__crt_stdio_output@@V?$format_validation_base@_WV?$string_output_adapter@_W@__crt_stdio_output@@@2@@__crt_stdio_output@@AAE_NXZ 100125ef f i libucrt:output.obj
 0001:0001160a       ?state_case_precision@?$output_processor@_WV?$string_output_adapter@_W@__crt_stdio_output@@V?$format_validation_base@_WV?$string_output_adapter@_W@__crt_stdio_output@@@2@@__crt_stdio_output@@AAE_NXZ 1001260a f i libucrt:output.obj
 0001:00011631       ?state_case_size@?$output_processor@_WV?$string_output_adapter@_W@__crt_stdio_output@@V?$format_validation_base@_WV?$string_output_adapter@_W@__crt_stdio_output@@@2@@__crt_stdio_output@@AAE_NXZ 10012631 f i libucrt:output.obj
 0001:000117a9       ?state_case_type@?$output_processor@_WV?$string_output_adapter@_W@__crt_stdio_output@@V?$format_validation_base@_WV?$string_output_adapter@_W@__crt_stdio_output@@@2@@__crt_stdio_output@@AAE_NXZ 100127a9 f i libucrt:output.obj
 0001:00011a06       ?state_case_width@?$output_processor@_WV?$string_output_adapter@_W@__crt_stdio_output@@V?$format_validation_base@_WV?$string_output_adapter@_W@__crt_stdio_output@@@2@@__crt_stdio_output@@AAE_NXZ 10012a06 f i libucrt:output.obj
 0001:00011a40       ?to_integer_size@__crt_stdio_output@@YAIW4length_modifier@1@@Z 10012a40 f i libucrt:output.obj
 0001:00011a9c       ?type_case_Z@?$output_processor@_WV?$string_output_adapter@_W@__crt_stdio_output@@V?$format_validation_base@_WV?$string_output_adapter@_W@__crt_stdio_output@@@2@@__crt_stdio_output@@AAE_NXZ 10012a9c f i libucrt:output.obj
 0001:00011af6       ?type_case_a@?$output_processor@_WV?$string_output_adapter@_W@__crt_stdio_output@@V?$format_validation_base@_WV?$string_output_adapter@_W@__crt_stdio_output@@@2@@__crt_stdio_output@@AAE_NXZ 10012af6 f i libucrt:output.obj
 0001:00011c5d       ?type_case_c_tchar@?$output_processor@_WV?$string_output_adapter@_W@__crt_stdio_output@@V?$format_validation_base@_WV?$string_output_adapter@_W@__crt_stdio_output@@@2@@__crt_stdio_output@@AAE_N_W@Z 10012c5d f i libucrt:output.obj
 0001:00011cf3       ?type_case_integer@?$output_processor@_WV?$string_output_adapter@_W@__crt_stdio_output@@V?$format_validation_base@_WV?$string_output_adapter@_W@__crt_stdio_output@@@2@@__crt_stdio_output@@AAE_NI_N@Z 10012cf3 f i libucrt:output.obj
 0001:00011e48       ?type_case_n@?$output_processor@_WV?$string_output_adapter@_W@__crt_stdio_output@@V?$format_validation_base@_WV?$string_output_adapter@_W@__crt_stdio_output@@@2@@__crt_stdio_output@@AAE_NXZ 10012e48 f i libucrt:output.obj
 0001:00011ebc       ?type_case_o@?$output_processor@_WV?$string_output_adapter@_W@__crt_stdio_output@@V?$format_validation_base@_WV?$string_output_adapter@_W@__crt_stdio_output@@@2@@__crt_stdio_output@@AAE_NXZ 10012ebc f i libucrt:output.obj
 0001:00011edb       ?type_case_p@?$output_processor@_WV?$string_output_adapter@_W@__crt_stdio_output@@V?$format_validation_base@_WV?$string_output_adapter@_W@__crt_stdio_output@@@2@@__crt_stdio_output@@AAE_NXZ 10012edb f i libucrt:output.obj
 0001:00011ef3       ?type_case_s@?$output_processor@_WV?$string_output_adapter@_W@__crt_stdio_output@@V?$format_validation_base@_WV?$string_output_adapter@_W@__crt_stdio_output@@@2@@__crt_stdio_output@@AAE_NXZ 10012ef3 f i libucrt:output.obj
 0001:00011f66       ?type_case_s_compute_narrow_string_length@?$output_processor@_WV?$string_output_adapter@_W@__crt_stdio_output@@V?$format_validation_base@_WV?$string_output_adapter@_W@__crt_stdio_output@@@2@@__crt_stdio_output@@ABEHH_W@Z 10012f66 f i libucrt:output.obj
 0001:00011fad       ?validate@?$c_string_character_source@_W@__crt_strtox@@QBE_NXZ 10012fad f i libucrt:atox.obj
 0001:00011fad       ?validate@?$string_output_adapter@_W@__crt_stdio_output@@QBE_NXZ 10012fad f i libucrt:output.obj
 0001:00011fc8       ?validate_and_update_state_at_end_of_format_string@?$format_validation_base@_WV?$string_output_adapter@_W@__crt_stdio_output@@@__crt_stdio_output@@IBE_NXZ 10012fc8 f i libucrt:output.obj
 0001:00011fea       ?write_character@?$string_output_adapter@_W@__crt_stdio_output@@QBE_N_WQAH@Z 10012fea f i libucrt:output.obj
 0001:0001202f       ?write_stored_string_tchar@?$output_processor@_WV?$string_output_adapter@_W@__crt_stdio_output@@V?$format_validation_base@_WV?$string_output_adapter@_W@__crt_stdio_output@@@2@@__crt_stdio_output@@AAE_N_W@Z 1001302f f i libucrt:output.obj
 0001:000120bc       ?write_string@?$string_output_adapter@_W@__crt_stdio_output@@QBEXQB_WHQAHAAV__crt_deferred_errno_cache@@@Z 100130bc f i libucrt:output.obj
 0001:0001212d       ___acrt_locale_get_ctype_array_value 1001312d f i libucrt:output.obj
 0001:0001214f       ___stdio_common_vswprintf_s 1001314f f   libucrt:output.obj
 0001:00012173       __seh_filter_dll           10013173 f   libucrt:exception_filter.obj
 0001:00012193       __seh_filter_exe           10013193 f   libucrt:exception_filter.obj
 0001:00012561       ___acrt_initialize_thread_local_exit_callback 10013561 f   libucrt:exit.obj
 0001:00012570       __cexit                    10013570 f   libucrt:exit.obj
 0001:0001257f       __exit                     1001357f f   libucrt:exit.obj
 0001:00012595       __is_c_termination_complete 10013595 f   libucrt:exit.obj
 0001:00012846       ___acrt_allocate_buffer_for_argv 10013846 f   libucrt:argv_parsing.obj
 0001:00012895       __configure_narrow_argv    10013895 f   libucrt:argv_parsing.obj
 0001:000129f2       ??$uninitialize@A6AXAAPAPA_W@Z@?$dual_state_global@PAPA_W@__crt_state_management@@QAEXA6AXAAPAPA_W@Z@Z 100139f2 f i libucrt:environment_initialization.obj
 0001:000129f2       ??$uninitialize@A6AXAAPAPAD@Z@?$dual_state_global@PAPAD@__crt_state_management@@QAEXA6AXAAPAPAD@Z@Z 100139f2 f i libucrt:environment_initialization.obj
 0001:00012a51       ___dcrt_uninitialize_environments_nolock 10013a51 f   libucrt:environment_initialization.obj
 0001:00012a88       __initialize_narrow_environment 10013a88 f   libucrt:environment_initialization.obj
 0001:00012b43       ??$__crt_fast_encode_pointer@PAP6AXXZ@@YAPAP6AXXZQAP6AXXZ@Z 10013b43 f i libucrt:onexit.obj
 0001:00012b43       ??$__crt_fast_encode_pointer@P6AHXZ@@YAP6AHXZQ6AHXZ@Z 10013b43 f i libucrt:onexit.obj
 0001:00012b43       ??$__crt_fast_encode_pointer@PAX@@YAPAXQAX@Z 10013b43 f i libucrt:initialization.obj
 0001:00012d65       __crt_atexit               10013d65 f   libucrt:onexit.obj
 0001:00012d7b       __execute_onexit_table     10013d7b f   libucrt:onexit.obj
 0001:00012da8       __initialize_onexit_table  10013da8 f   libucrt:onexit.obj
 0001:00012dd1       __register_onexit_function 10013dd1 f   libucrt:onexit.obj
 0001:00012e2b       ___acrt_uninitialize_command_line 10013e2b f   libucrt:argv_data.obj
 0001:00012f02       ___acrt_initialize         10013f02 f   libucrt:initialization.obj
 0001:00012f14       ___acrt_thread_attach      10013f14 f   libucrt:initialization.obj
 0001:00012f1f       ___acrt_thread_detach      10013f1f f   libucrt:initialization.obj
 0001:00012f27       ___acrt_uninitialize       10013f27 f   libucrt:initialization.obj
 0001:00012f57       ___acrt_uninitialize_critical 10013f57 f   libucrt:initialization.obj
 0001:00012f69       __initterm                 10013f69 f   libucrt:initterm.obj
 0001:00012fae       __initterm_e               10013fae f   libucrt:initterm.obj
 0001:00012fdc       ___acrt_initialize_new_handler 10013fdc f   libucrt:new_handler.obj
 0001:00012feb       __callnewh                 10013feb f   libucrt:new_handler.obj
 0001:00013018       __query_new_handler        10014018 f   libucrt:new_handler.obj
 0001:00013074       _terminate                 10014074 f   libucrt:terminate.obj
 0001:000130b0       _abort                     100140b0 f   libucrt:abort.obj
 0001:000130f4       _strcpy_s                  100140f4 f   libucrt:strcpy_s.obj
 0001:0001314e       ??$is_overflow_condition@K@__crt_strtox@@YA_NIK@Z 1001414e f i libucrt:atox.obj
 0001:0001317f       ??$parse_integer@KV?$c_string_character_source@_W@__crt_strtox@@@__crt_strtox@@YAKQAU__crt_locale_pointers@@V?$c_string_character_source@_W@0@H_N@Z 1001417f f i libucrt:atox.obj
 0001:00013787       ?unget@?$c_string_character_source@_W@__crt_strtox@@QAEX_W@Z 10014787 f i libucrt:atox.obj
 0001:000137c0       _strncmp                   100147c0 f   libucrt:strncmp.obj
 0001:00013838       _wcsncmp                   10014838 f   libucrt:wcsncmp.obj
 0001:00013872       __free_base                10014872 f   libucrt:free_base.obj
 0001:00013bea       ___acrt_freeptd            10014bea f   libucrt:per_thread_data.obj
 0001:00013c16       ___acrt_getptd             10014c16 f   libucrt:per_thread_data.obj
 0001:00013cd3       ___acrt_getptd_head        10014cd3 f   libucrt:per_thread_data.obj
 0001:00013d6d       ___acrt_getptd_noexit      10014d6d f   libucrt:per_thread_data.obj
 0001:00013e22       ___acrt_initialize_ptd     10014e22 f   libucrt:per_thread_data.obj
 0001:00013e4e       ___acrt_uninitialize_ptd   10014e4e f   libucrt:per_thread_data.obj
 0001:00013e68       __calloc_base              10014e68 f   libucrt:calloc_base.obj
 0001:00013ec5       __malloc_base              10014ec5 f   libucrt:malloc_base.obj
 0001:00013f13       __msize_base               10014f13 f   libucrt:msize.obj
 0001:00013f46       __realloc_base             10014f46 f   libucrt:realloc_base.obj
 0001:00014147       ___acrt_AppPolicyGetProcessTerminationMethodInternal@4 10015147 f   libucrt:winapi_thunks.obj
 0001:00014187       ___acrt_AreFileApisANSI@0  10015187 f   libucrt:winapi_thunks.obj
 0001:000141a6       ___acrt_FlsAlloc@4         100151a6 f   libucrt:winapi_thunks.obj
 0001:000141e5       ___acrt_FlsFree@4          100151e5 f   libucrt:winapi_thunks.obj
 0001:00014224       ___acrt_FlsGetValue@4      10015224 f   libucrt:winapi_thunks.obj
 0001:00014263       ___acrt_FlsSetValue@8      10015263 f   libucrt:winapi_thunks.obj
 0001:000142a5       ___acrt_InitializeCriticalSectionEx@12 100152a5 f   libucrt:winapi_thunks.obj
 0001:000142f0       ___acrt_LCMapStringEx@36   100152f0 f   libucrt:winapi_thunks.obj
 0001:0001434d       ___acrt_LocaleNameToLCID@8 1001534d f   libucrt:winapi_thunks.obj
 0001:0001437e       ___acrt_SetThreadStackGuarantee@4 1001537e f   libucrt:winapi_thunks.obj
 0001:000143b9       ___acrt_initialize_winapi_thunks 100153b9 f   libucrt:winapi_thunks.obj
 0001:000143e4       ___acrt_uninitialize_winapi_thunks 100153e4 f   libucrt:winapi_thunks.obj
 0001:0001441a       ??$make_c_string_character_source@_WPAPA_W@__crt_strtox@@YA?AV?$c_string_character_source@_W@0@QB_WQAPA_W@Z 1001541a f i libucrt:strtox.obj
 0001:00014435       _wcstol                    10015435 f   libucrt:strtox.obj
 0001:0001445f       __mbtowc_l                 1001545f f   libucrt:mbtowc.obj
 0001:000145a1       _mbtowc                    100155a1 f   libucrt:mbtowc.obj
 0001:000145bb       _wcsnlen                   100155bb f   libucrt:strnlen.obj
 0001:0001476b       ___acrt_update_locale_info 1001576b f   libucrt:locale_update.obj
 0001:00014798       ___acrt_update_multibyte_info 10015798 f   libucrt:locale_update.obj
 0001:000147c5       ?__acrt_fp_classify@@YA?AW4__acrt_fp_class@@ABN@Z 100157c5 f i libucrt:cvt.obj
 0001:00015177       ___acrt_fp_format          10016177 f   libucrt:cvt.obj
 0001:000152d5       __fileno                   100162d5 f   libucrt:fileno.obj
 0001:000152fc       ___acrt_initialize_stdio   100162fc f   libucrt:_file.obj
 0001:000153c4       ___acrt_uninitialize_stdio 100163c4 f   libucrt:_file.obj
 0001:00015410       __lock_file                10016410 f   libucrt:_file.obj
 0001:00015424       __unlock_file              10016424 f   libucrt:_file.obj
 0001:00015438       __get_printf_count_output  10016438 f   libucrt:printf_count_output.obj
 0001:000154bb       ___acrt_set_locale_changed 100164bb f   libucrt:wsetlocale.obj
 0001:000154c6       ___acrt_uninitialize_locale 100164c6 f   libucrt:wsetlocale.obj
 0001:00015657       ___acrt_initialize_lowio   10016657 f   libucrt:ioinit.obj
 0001:000156b7       ___acrt_uninitialize_lowio 100166b7 f   libucrt:ioinit.obj
 0001:000156e3       ___acrt_initialize_locks   100166e3 f   libucrt:locks.obj
 0001:00015724       ___acrt_lock               10016724 f   libucrt:locks.obj
 0001:0001573b       ___acrt_uninitialize_locks 1001673b f   libucrt:locks.obj
 0001:0001576c       ___acrt_unlock             1001676c f   libucrt:locks.obj
 0001:00015783       ___acrt_get_process_end_policy 10016783 f   libucrt:win_policies.obj
 0001:0001594d       ??$__acrt_mbs_to_wcs_cp@U__crt_win32_buffer_internal_dynamic_resizing@@@@YAHQBDAAV?$__crt_win32_buffer@_WU__crt_win32_buffer_internal_dynamic_resizing@@@@I@Z 1001694d f i libucrt:argv_wildcards.obj
 0001:00015e61       ?__acrt_get_utf8_acp_compatibility_codepage@@YAIXZ 10016e61 f i libucrt:argv_wildcards.obj
 0001:00015ea0       ?_deallocate@?$__crt_win32_buffer@DU__crt_win32_buffer_internal_dynamic_resizing@@@@AAEXXZ 10016ea0 f i libucrt:argv_wildcards.obj
 0001:00015ea0       ?_deallocate@?$__crt_win32_buffer@_WU__crt_win32_buffer_internal_dynamic_resizing@@@@AAEXXZ 10016ea0 f i libucrt:argv_wildcards.obj
 0001:00015eba       ?allocate@?$__crt_win32_buffer@DU__crt_win32_buffer_internal_dynamic_resizing@@@@QAEHI@Z 10016eba f i libucrt:argv_wildcards.obj
 0001:00015ef6       ?allocate@?$__crt_win32_buffer@_WU__crt_win32_buffer_internal_dynamic_resizing@@@@QAEHI@Z 10016ef6 f i libucrt:argv_wildcards.obj
 0001:00015f35       ?allocate@__crt_win32_buffer_internal_dynamic_resizing@@SAHQAPAXIABV__crt_win32_buffer_empty_debug_info@@@Z 10016f35 f i libucrt:argv_wildcards.obj
 0001:00015fdb       ___acrt_expand_narrow_argv_wildcards 10016fdb f   libucrt:argv_wildcards.obj
 0001:000160ad       ?allocate@?$__crt_win32_buffer@DU__crt_win32_buffer_no_resizing@@@@QAEHI@Z 100170ad f i libucrt:getmodulefilenamea.obj
 0001:000160d4       ?set_to_nullptr@?$__crt_win32_buffer@DU__crt_win32_buffer_no_resizing@@@@QAEXXZ 100170d4 f i libucrt:getmodulefilenamea.obj
 0001:000160e8       ___acrt_GetModuleFileNameA 100170e8 f   libucrt:getmodulefilenamea.obj
 0001:000166a1       ___acrt_initialize_multibyte 100176a1 f   libucrt:mbctype.obj
 0001:000166e9       ___acrt_update_thread_multibyte_data 100176e9 f   libucrt:mbctype.obj
 0001:000166fc       __setmbcp_nolock           100176fc f   libucrt:mbctype.obj
 0001:000169c7       __ismbblead                100179c7 f   libucrt:ismbbyte.obj
 0001:000169df       ___acrt_initialize_command_line 100179df f   libucrt:argv_data.obj
 0001:000169f8       ___acrt_MultiByteToWideChar 100179f8 f   libucrt:multibytetowidechar.obj
 0001:00016a74       ___acrt_WideCharToMultiByte 10017a74 f   libucrt:widechartomultibyte.obj
 0001:00016b62       ___dcrt_get_narrow_environment_from_os 10017b62 f   libucrt:get_environment_from_os.obj
 0001:00016be6       ___acrt_initialize_heap    10017be6 f   libucrt:heap_handle.obj
 0001:00016bf7       ___acrt_uninitialize_heap  10017bf7 f   libucrt:heap_handle.obj
 0001:00016c01       ___acrt_execute_initializers 10017c01 f   libucrt:shared_initialization.obj
 0001:00016c69       ___acrt_execute_uninitializers 10017c69 f   libucrt:shared_initialization.obj
 0001:00016d68       ___acrt_get_sigabrt_handler 10017d68 f   libucrt:signal.obj
 0001:00016d8f       ___acrt_initialize_signal_handlers 10017d8f f   libucrt:signal.obj
 0001:00016dad       _raise                     10017dad f   libucrt:signal.obj
 0001:00016fa0       ___acrt_has_user_matherr   10017fa0 f   libucrt:matherr.obj
 0001:00016fb8       ___acrt_initialize_user_matherr 10017fb8 f   libucrt:matherr.obj
 0001:00016fc7       ___acrt_invoke_user_matherr 10017fc7 f   libucrt:matherr.obj
 0001:000171d6       ___acrt_stdio_flush_nolock 100181d6 f   libucrt:fflush.obj
 0001:0001723b       __fflush_nolock            1001823b f   libucrt:fflush.obj
 0001:00017283       __flushall                 10018283 f   libucrt:fflush.obj
 0001:0001728c       ___pctype_func             1001828c f   libucrt:ctype.obj
 0001:000172b0       _iswctype                  100182b0 f   libucrt:iswctype.obj
 0001:00017319       ___acrt_add_locale_ref     10018319 f   libucrt:locale_refcounting.obj
 0001:00017396       ___acrt_free_locale        10018396 f   libucrt:locale_refcounting.obj
 0001:000174de       ___acrt_locale_add_lc_time_reference 100184de f   libucrt:locale_refcounting.obj
 0001:00017507       ___acrt_locale_free_lc_time_if_unreferenced 10018507 f   libucrt:locale_refcounting.obj
 0001:00017538       ___acrt_locale_release_lc_time_reference 10018538 f   libucrt:locale_refcounting.obj
 0001:00017561       ___acrt_release_locale_ref 10018561 f   libucrt:locale_refcounting.obj
 0001:000175e2       ___acrt_update_thread_locale_data 100185e2 f   libucrt:locale_refcounting.obj
 0001:00017663       __updatetlocinfoEx_nolock  10018663 f   libucrt:locale_refcounting.obj
 0001:000176b3       __query_new_mode           100186b3 f   libucrt:new_mode.obj
 0001:0001770a       ___acrt_DownlevelLocaleNameToLCID 1001870a f   libucrt:lcidtoname_downlevel.obj
 0001:00017736       __isleadbyte_l             10018736 f i libucrt:_wctype.obj
 0001:0001779c       ?__mbrtowc_utf8@__crt_mbstring@@YAIPA_WPBDIPAU_Mbstatet@@@Z 1001879c f   libucrt:mbrtowc.obj
 0001:000177dc       ?__mbsrtowcs_utf8@__crt_mbstring@@YAIPA_WPAPBDIPAU_Mbstatet@@@Z 100187dc f   libucrt:mbrtowc.obj
 0001:000178d7       ?return_illegal_sequence@__crt_mbstring@@YAIPAU_Mbstatet@@@Z 100188d7 f i libucrt:c32rtomb.obj
 0001:00017961       ___acrt_fp_strflt_to_string 10018961 f   libucrt:_fptostr.obj
 0001:00017a40       ?divide@__crt_strtox@@YA_KAAUbig_integer@1@ABU21@@Z 10018a40 f i libucrt:cfout.obj
 0001:00017ed8       ___acrt_fltout             10018ed8 f   libucrt:cfout.obj
 0001:000193df       _fegetround                1001a3df f   libucrt:fegetround.obj
 0001:000193ec       __fcloseall                1001a3ec f   libucrt:closeall.obj
 0001:00019497       ___acrt_stdio_free_buffer_nolock 1001a497 f   libucrt:_freebuf.obj
 0001:000194d7       __isatty                   1001a4d7 f   libucrt:isatty.obj
 0001:0001952d       ___acrt_locale_free_monetary 1001a52d f   libucrt:initmon.obj
 0001:0001962b       ___acrt_locale_free_numeric 1001a62b f   libucrt:initnum.obj
 0001:000196cc       ___acrt_locale_free_time   1001a6cc f   libucrt:inittime.obj
 0001:000197b0       ___acrt_GetStringTypeA     1001a7b0 f   libucrt:getstringtypea.obj
 0001:000198b3       __freea_crt                1001a8b3 f i libucrt:getstringtypea.obj
 0001:000198d3       ___acrt_lowio_create_handle_array 1001a8d3 f   libucrt:osfinfo.obj
 0001:0001994e       ___acrt_lowio_destroy_handle_array 1001a94e f   libucrt:osfinfo.obj
 0001:00019983       ___acrt_lowio_ensure_fh_exists 1001a983 f   libucrt:osfinfo.obj
 0001:00019a21       ___acrt_lowio_lock_fh      1001aa21 f   libucrt:osfinfo.obj
 0001:00019a44       ___acrt_lowio_unlock_fh    1001aa44 f   libucrt:osfinfo.obj
 0001:00019a67       __free_osfhnd              1001aa67 f   libucrt:osfinfo.obj
 0001:00019af8       __get_osfhandle            1001aaf8 f   libucrt:osfinfo.obj
 0001:00019b70       _qsort                     1001ab70 f   libucrt:qsort.obj
 0001:0001a111       _strncpy_s                 1001b111 f   libucrt:strncpy_s.obj
 0001:0001a120       _strpbrk                   1001b120 f   libucrt:strpbrk.obj
 0001:0001a160       __mbsdec                   1001b160 f   libucrt:mbsdec.obj
 0001:0001a177       __mbsdec_l                 1001b177 f   libucrt:mbsdec.obj
 0001:0001a3ee       ___acrt_LCMapStringA       1001b3ee f   libucrt:lcmapstringa.obj
 0001:0001a4e8       __commit                   1001b4e8 f   libucrt:commit.obj
 0001:0001ace0       __write                    1001bce0 f   libucrt:write.obj
 0001:0001add2       __write_nolock             1001bdd2 f   libucrt:write.obj
 0001:0001afac       ___acrt_GetStringTypeW     1001bfac f   libucrt:getstringtypew.obj
 0001:0001afc5       ___ascii_wcsnicmp          1001bfc5 f   libucrt:wcsnicmp.obj
 0001:0001b014       ?__mbrtoc32_utf8@__crt_mbstring@@YAIPA_UPBDIPAU_Mbstatet@@@Z 1001c014 f   libucrt:mbrtoc32.obj
 0001:0001b1bb       __controlfp_s              1001c1bb f   libucrt:contrlfp.obj
 0001:0001b21a       _fegetenv                  1001c21a f   libucrt:fegetenv.obj
 0001:0001b237       _fesetenv                  1001c237 f   libucrt:fesetenv.obj
 0001:0001b282       _feholdexcept              1001c282 f   libucrt:feholdexcept.obj
 0001:0001b2d0       __CIlog10                  1001c2d0 f   libucrt:log10_impl.obj
 0001:0001b30b       __CIlog10_default          1001c30b f   libucrt:log10_impl.obj
 0001:0001b31f       __log10_default            1001c31f     libucrt:log10_impl.obj
 0001:0001b3e0       _ceil                      1001c3e0 f   libucrt:ceil_pentium4.obj
 0001:0001b420       __ceil_pentium4            1001c420 f   libucrt:ceil_pentium4.obj
 0001:0001b81a       ___acrt_fenv_get_common_round_control 1001c81a f   libucrt:_fenvutils.obj
 0001:0001b83c       ___acrt_fenv_get_control   1001c83c f   libucrt:_fenvutils.obj
 0001:0001b8bc       ___acrt_fenv_get_status    1001c8bc f   libucrt:_fenvutils.obj
 0001:0001b974       ___acrt_fenv_set_control   1001c974 f   libucrt:_fenvutils.obj
 0001:0001b9dc       ___acrt_fenv_set_status    1001c9dc f   libucrt:_fenvutils.obj
 0001:0001bb4f       __lseeki64_nolock          1001cb4f f   libucrt:lseek.obj
 0001:0001bb6a       __fclose_nolock            1001cb6a f   libucrt:fclose.obj
 0001:0001bbe1       _fclose                    1001cbe1 f   libucrt:fclose.obj
 0001:0001bc65       __query_app_type           1001cc65 f   libucrt:report_runtime_error.obj
 0001:0001bc6b       ___strncnt                 1001cc6b f   libucrt:strncnt.obj
 0001:0001bc87       __putwch_nolock            1001cc87 f   libucrt:putwch.obj
 0001:0001bd60       __clearfp                  1001cd60 f   libucrt:ieee87.obj
 0001:0001be3e       __control87                1001ce3e f   libucrt:ieee87.obj
 0001:0001c1dd       ___acrt_initialize_sse2    1001d1dd f   libucrt:mathfcns.obj
 0001:0001c1f0       __CIlog10_pentium4         1001d1f0 f   libucrt:log10_pentium4.obj
 0001:0001c208       __log10_pentium4           1001d208     libucrt:log10_pentium4.obj
 0001:0001c4a0       __fFEXP                    1001d4a0 f   libucrt:87tran.obj
 0001:0001c4f7       __rtinfpopse               1001d4f7     libucrt:87tran.obj
 0001:0001c4f9       __rtinfnpopse              1001d4f9     libucrt:87tran.obj
 0001:0001c509       __fFLN                     1001d509     libucrt:87tran.obj
 0001:0001c5be       __rtinfpop                 1001d5be     libucrt:87tran.obj
 0001:0001c5c0       __rtinfnpop                1001d5c0     libucrt:87tran.obj
 0001:0001c5d0       __rtforexpinf              1001d5d0 f   libucrt:87tran.obj
 0001:0001c5dd       __ffexpm1                  1001d5dd     libucrt:87tran.obj
 0001:0001c690       __trandisp1                1001d690 f   libucrt:87disp.obj
 0001:0001c705       __trandisp2                1001d705 f   libucrt:87disp.obj
 0001:0001c79f       __rttospopde               1001d79f     libucrt:87disp.obj
 0001:0001c7a4       __rttospop                 1001d7a4     libucrt:87disp.obj
 0001:0001c7b0       __rtnospop                 1001d7b0 f   libucrt:87disp.obj
 0001:0001c7c0       __rttosnpop                1001d7c0 f   libucrt:87disp.obj
 0001:0001c7c1       __rtnospopde               1001d7c1     libucrt:87disp.obj
 0001:0001c7c8       __rtzeropop                1001d7c8     libucrt:87disp.obj
 0001:0001c7ca       __rtzeronpop               1001d7ca     libucrt:87disp.obj
 0001:0001c7d0       __rtzerospop               1001d7d0 f   libucrt:87disp.obj
 0001:0001c7dd       __rtonepop                 1001d7dd     libucrt:87disp.obj
 0001:0001c7e0       __rtonenpop                1001d7e0 f   libucrt:87disp.obj
 0001:0001c7f0       __tosnan1                  1001d7f0 f   libucrt:87disp.obj
 0001:0001c820       __nosnan2                  1001d820 f   libucrt:87disp.obj
 0001:0001c830       __tosnan2                  1001d830 f   libucrt:87disp.obj
 0001:0001c860       __nan2                     1001d860 f   libucrt:87disp.obj
 0001:0001c8a0       __rtindfpop                1001d8a0 f   libucrt:87disp.obj
 0001:0001c8a2       __rtindfnpop               1001d8a2     libucrt:87disp.obj
 0001:0001c8b3       __rttosnpopde              1001d8b3     libucrt:87disp.obj
 0001:0001c8c0       __rtatan2inf               1001d8c0 f   libucrt:87disp.obj
 0001:0001c8dd       __rtchsifneg               1001d8dd     libucrt:87disp.obj
 0001:0001c8f0       __twoToTOS                 1001d8f0 f   libucrt:common.obj
 0001:0001c905       __load_CW                  1001d905 f   libucrt:common.obj
 0001:0001c91c       __convertTOStoQNaN         1001d91c f   libucrt:common.obj
 0001:0001c935       __fload_withFB             1001d935 f   libucrt:common.obj
 0001:0001c978       __checkTOS_withFB          1001d978 f   libucrt:common.obj
 0001:0001c98e       __fast_exit                1001d98e f   libucrt:common.obj
 0001:0001c99b       __math_exit                1001d99b f   libucrt:common.obj
 0001:0001c9c5       __check_overflow_exit      1001d9c5 f   libucrt:common.obj
 0001:0001c9d9       __check_range_exit         1001d9d9 f   libucrt:common.obj
 0001:0001ca80       __startTwoArgErrorHandling 1001da80 f   libucrt:genexcep.obj
 0001:0001ca97       __startOneArgErrorHandling 1001da97 f   libucrt:genexcep.obj
 0001:0001cad3       ___libm_error_support      1001dad3 f   libucrt:libm_error.obj
 0001:0001ccc7       __ceil_default             1001dcc7 f   libucrt:ceil.obj
 0001:0001ce08       __close                    1001de08 f   libucrt:close.obj
 0001:0001ce95       __close_nolock             1001de95 f   libucrt:close.obj
 0001:0001cf31       ?__acrt_stdio_free_stream@@YAXV__crt_stdio_stream@@@Z 1001df31 f   libucrt:stream.obj
 0001:0001cf70       ___ascii_strnicmp          1001df70 f   libucrt:_strnicm.obj
 0001:0001cff0       ___dcrt_lowio_ensure_console_output_initialized 1001dff0 f   libucrt:initcon.obj
 0001:0001d00f       ___dcrt_terminate_console_output 1001e00f f   libucrt:initcon.obj
 0001:0001d026       ___dcrt_write_console      1001e026 f   libucrt:initcon.obj
 0001:0001d07b       ___set_fpsr_sse2           1001e07b f   libucrt:fpctrl.obj
 0001:0001d0fb       __clrfp                    1001e0fb f   libucrt:fpctrl.obj
 0001:0001d10c       __ctrlfp                   1001e10c f   libucrt:fpctrl.obj
 0001:0001d136       __set_statfp               1001e136 f   libucrt:fpctrl.obj
 0001:0001d18f       __statfp                   1001e18f f   libucrt:fpctrl.obj
 0001:0001d19f       __d_inttype                1001e19f f   libucrt:powhlp.obj
 0001:0001d207       __powhlp                   1001e207 f   libucrt:powhlp.obj
 0001:0001d332       __87except                 1001e332 f   libucrt:87except.obj
 0001:0001d43c       __frnd                     1001e43c f   libucrt:frnd.obj
 0001:0001d450       __errcode                  1001e450 f   libucrt:fpexcept.obj
 0001:0001d484       __except1                  1001e484 f   libucrt:fpexcept.obj
 0001:0001d552       __handle_exc               1001e552 f   libucrt:fpexcept.obj
 0001:0001d73d       __raise_exc                1001e73d f   libucrt:fpexcept.obj
 0001:0001d760       __raise_exc_ex             1001e760 f   libucrt:fpexcept.obj
 0001:0001da56       __set_errno_from_matherr   1001ea56 f   libucrt:fpexcept.obj
 0001:0001da85       __umatherr                 1001ea85 f   libucrt:fpexcept.obj
 0001:0001db25       __decomp                   1001eb25 f   libucrt:util.obj
 0001:0001dbf7       __set_exp                  1001ebf7 f   libucrt:util.obj
 0001:0001dc24       __sptype                   1001ec24 f   libucrt:util.obj
 0001:0001dc82       __fpclass                  1001ec82 f   libucrt:ieeemisc.obj
 0001:0001dd26       _IsProcessorFeaturePresent@4 1001ed26 f   kernel32:KERNEL32.dll
 0001:0001dd30       __FindPESection            1001ed30 f   LIBCMT:pesect.obj
 0001:0001dd80       __IsNonwritableInCurrentImage 1001ed80 f   LIBCMT:pesect.obj
 0001:0001de40       __ValidateImageBase        1001ee40 f   LIBCMT:pesect.obj
 0001:0001de73       __EH_prolog3_catch         1001ee73 f   LIBCMT:ehprolg3.obj
 0001:0001deb0       __aulldvrm                 1001eeb0 f   LIBCMT:ulldvrm.obj
 0001:0001df50       __allmul                   1001ef50 f   LIBCMT:llmul.obj
 0001:0001df90       __alldvrm                  1001ef90 f   LIBCMT:lldvrm.obj
 0001:0001e070       __allshl                   1001f070 f   LIBCMT:llshl.obj
 0001:0001e090       __aullshr                  1001f090 f   LIBCMT:ullshr.obj
 0001:0001e0b0       __ftol2_sse                1001f0b0     LIBCMT:ftol2.obj
 0001:0001e0b0       __ftol2_sse_excpt          1001f0b0     LIBCMT:ftol2.obj
 0001:0001e0b0       __ftoi2                    1001f0b0 f   LIBCMT:ftol2.obj
 0001:0001e130       __ftoui2                   1001f130 f   LIBCMT:ftol2.obj
 0001:0001e1e0       __ftol2                    1001f1e0 f   LIBCMT:ftol2.obj
 0001:0001e290       __ftoul2                   1001f290 f   LIBCMT:ftol2.obj
 0001:0001e350       _strrchr                   1001f350 f   libvcruntime:strrchr.obj
 0001:0001e490       _strchr                    1001f490 f   libvcruntime:strchr.obj
 0001:0001e4fe       ___from_strstr_to_strchr   1001f4fe     libvcruntime:strchr.obj
 0001:0001e5bb       __filter_x86_sse2_floating_point_exception 1001f5bb f   LIBCMT:x86_exception_filter.obj
 0001:0001e5bb       __filter_x86_sse2_floating_point_exception_default 1001f5bb f   LIBCMT:x86_exception_filter.obj
 0002:00000000       __imp__RegQueryValueExW@24 10020000     advapi32:ADVAPI32.dll
 0002:00000004       __imp__RegSetValueExW@24   10020004     advapi32:ADVAPI32.dll
 0002:00000008       __imp__RegQueryInfoKeyW@48 10020008     advapi32:ADVAPI32.dll
 0002:0000000c       __imp__RegOpenKeyExW@20    1002000c     advapi32:ADVAPI32.dll
 0002:00000010       __imp__RegEnumKeyExW@32    10020010     advapi32:ADVAPI32.dll
 0002:00000014       __imp__RegDeleteValueW@8   10020014     advapi32:ADVAPI32.dll
 0002:00000018       __imp__RegDeleteKeyW@8     10020018     advapi32:ADVAPI32.dll
 0002:0000001c       __imp__RegCreateKeyExW@36  1002001c     advapi32:ADVAPI32.dll
 0002:00000020       __imp__RegCloseKey@4       10020020     advapi32:ADVAPI32.dll
 0002:00000024       \177ADVAPI32_NULL_THUNK_DATA 10020024     advapi32:ADVAPI32.dll
 0002:00000028       __imp__GetObjectW@12       10020028     gdi32:GDI32.dll
 0002:0000002c       __imp__SelectObject@8      1002002c     gdi32:GDI32.dll
 0002:00000030       __imp__DeleteObject@4      10020030     gdi32:GDI32.dll
 0002:00000034       __imp__CreateCompatibleDC@4 10020034     gdi32:GDI32.dll
 0002:00000038       __imp__BitBlt@36           10020038     gdi32:GDI32.dll
 0002:0000003c       __imp__SetWindowOrgEx@16   1002003c     gdi32:GDI32.dll
 0002:00000040       __imp__SetWindowExtEx@16   10020040     gdi32:GDI32.dll
 0002:00000044       __imp__SetViewportOrgEx@16 10020044     gdi32:GDI32.dll
 0002:00000048       __imp__LPtoDP@12           10020048     gdi32:GDI32.dll
 0002:0000004c       __imp__SetMapMode@8        1002004c     gdi32:GDI32.dll
 0002:00000050       __imp__SaveDC@4            10020050     gdi32:GDI32.dll
 0002:00000054       __imp__RestoreDC@8         10020054     gdi32:GDI32.dll
 0002:00000058       __imp__GetDeviceCaps@8     10020058     gdi32:GDI32.dll
 0002:0000005c       __imp__DeleteMetaFile@4    1002005c     gdi32:GDI32.dll
 0002:00000060       __imp__DeleteDC@4          10020060     gdi32:GDI32.dll
 0002:00000064       __imp__CreateRectRgnIndirect@4 10020064     gdi32:GDI32.dll
 0002:00000068       __imp__CreateMetaFileW@4   10020068     gdi32:GDI32.dll
 0002:0000006c       __imp__CreateDCW@16        1002006c     gdi32:GDI32.dll
 0002:00000070       __imp__CloseMetaFile@4     10020070     gdi32:GDI32.dll
 0002:00000074       \177GDI32_NULL_THUNK_DATA  10020074     gdi32:GDI32.dll
 0002:00000078       __imp__CloseHandle@4       10020078     kernel32:KERNEL32.dll
 0002:0000007c       __imp__SetEvent@4          1002007c     kernel32:KERNEL32.dll
 0002:00000080       __imp__CreateMutexW@12     10020080     kernel32:KERNEL32.dll
 0002:00000084       __imp__CreateEventW@16     10020084     kernel32:KERNEL32.dll
 0002:00000088       __imp__GetCurrentProcessId@0 10020088     kernel32:KERNEL32.dll
 0002:0000008c       __imp__CreateFileW@28      1002008c     kernel32:KERNEL32.dll
 0002:00000090       __imp__GetConsoleMode@8    10020090     kernel32:KERNEL32.dll
 0002:00000094       __imp__GetConsoleOutputCP@0 10020094     kernel32:KERNEL32.dll
 0002:00000098       __imp__WriteFile@20        10020098     kernel32:KERNEL32.dll
 0002:0000009c       __imp__FlushFileBuffers@4  1002009c     kernel32:KERNEL32.dll
 0002:000000a0       __imp__SetStdHandle@8      100200a0     kernel32:KERNEL32.dll
 0002:000000a4       __imp__GetStringTypeW@16   100200a4     kernel32:KERNEL32.dll
 0002:000000a8       __imp__SetFilePointerEx@20 100200a8     kernel32:KERNEL32.dll
 0002:000000ac       __imp__FreeEnvironmentStringsW@4 100200ac     kernel32:KERNEL32.dll
 0002:000000b0       __imp__GetEnvironmentStringsW@0 100200b0     kernel32:KERNEL32.dll
 0002:000000b4       __imp__lstrcmpiW@8         100200b4     kernel32:KERNEL32.dll
 0002:000000b8       __imp__GetCommandLineA@0   100200b8     kernel32:KERNEL32.dll
 0002:000000bc       __imp__GetCPInfo@8         100200bc     kernel32:KERNEL32.dll
 0002:000000c0       __imp__GetOEMCP@0          100200c0     kernel32:KERNEL32.dll
 0002:000000c4       __imp__GetACP@0            100200c4     kernel32:KERNEL32.dll
 0002:000000c8       __imp__IsValidCodePage@4   100200c8     kernel32:KERNEL32.dll
 0002:000000cc       __imp__FindNextFileW@8     100200cc     kernel32:KERNEL32.dll
 0002:000000d0       __imp__FindFirstFileExW@24 100200d0     kernel32:KERNEL32.dll
 0002:000000d4       __imp__FindClose@4         100200d4     kernel32:KERNEL32.dll
 0002:000000d8       __imp__GetFileType@4       100200d8     kernel32:KERNEL32.dll
 0002:000000dc       __imp__GetStdHandle@4      100200dc     kernel32:KERNEL32.dll
 0002:000000e0       __imp__LCMapStringW@24     100200e0     kernel32:KERNEL32.dll
 0002:000000e4       __imp__HeapReAlloc@16      100200e4     kernel32:KERNEL32.dll
 0002:000000e8       __imp__HeapSize@12         100200e8     kernel32:KERNEL32.dll
 0002:000000ec       __imp__MulDiv@12           100200ec     kernel32:KERNEL32.dll
 0002:000000f0       __imp__GlobalLock@4        100200f0     kernel32:KERNEL32.dll
 0002:000000f4       __imp__GlobalUnlock@4      100200f4     kernel32:KERNEL32.dll
 0002:000000f8       __imp__GlobalAlloc@8       100200f8     kernel32:KERNEL32.dll
 0002:000000fc       __imp__FindResourceW@12    100200fc     kernel32:KERNEL32.dll
 0002:00000100       __imp__SizeofResource@8    10020100     kernel32:KERNEL32.dll
 0002:00000104       __imp__LoadResource@8      10020104     kernel32:KERNEL32.dll
 0002:00000108       __imp__LoadLibraryExW@12   10020108     kernel32:KERNEL32.dll
 0002:0000010c       __imp__GetProcAddress@8    1002010c     kernel32:KERNEL32.dll
 0002:00000110       __imp__GetModuleHandleW@4  10020110     kernel32:KERNEL32.dll
 0002:00000114       __imp__GetModuleFileNameW@12 10020114     kernel32:KERNEL32.dll
 0002:00000118       __imp__FreeLibrary@4       10020118     kernel32:KERNEL32.dll
 0002:0000011c       __imp__DisableThreadLibraryCalls@4 1002011c     kernel32:KERNEL32.dll
 0002:00000120       __imp__GetCurrentThreadId@0 10020120     kernel32:KERNEL32.dll
 0002:00000124       __imp__Sleep@4             10020124     kernel32:KERNEL32.dll
 0002:00000128       __imp__WaitForSingleObject@8 10020128     kernel32:KERNEL32.dll
 0002:0000012c       __imp__ReleaseMutex@4      1002012c     kernel32:KERNEL32.dll
 0002:00000130       __imp__ResetEvent@4        10020130     kernel32:KERNEL32.dll
 0002:00000134       __imp__EnterCriticalSection@4 10020134     kernel32:KERNEL32.dll
 0002:00000138       __imp__LeaveCriticalSection@4 10020138     kernel32:KERNEL32.dll
 0002:0000013c       __imp__SetLastError@4      1002013c     kernel32:KERNEL32.dll
 0002:00000140       __imp__EncodePointer@4     10020140     kernel32:KERNEL32.dll
 0002:00000144       __imp__DeleteCriticalSection@4 10020144     kernel32:KERNEL32.dll
 0002:00000148       __imp__InitializeCriticalSectionEx@12 10020148     kernel32:KERNEL32.dll
 0002:0000014c       __imp__GetLastError@0      1002014c     kernel32:KERNEL32.dll
 0002:00000150       __imp__RaiseException@16   10020150     kernel32:KERNEL32.dll
 0002:00000154       __imp__DecodePointer@4     10020154     kernel32:KERNEL32.dll
 0002:00000158       __imp__WideCharToMultiByte@32 10020158     kernel32:KERNEL32.dll
 0002:0000015c       __imp__GetCommandLineW@0   1002015c     kernel32:KERNEL32.dll
 0002:00000160       __imp__MultiByteToWideChar@24 10020160     kernel32:KERNEL32.dll
 0002:00000164       __imp__WriteConsoleW@20    10020164     kernel32:KERNEL32.dll
 0002:00000168       __imp__GetModuleHandleExW@12 10020168     kernel32:KERNEL32.dll
 0002:0000016c       __imp__ExitProcess@4       1002016c     kernel32:KERNEL32.dll
 0002:00000170       __imp__VirtualQuery@12     10020170     kernel32:KERNEL32.dll
 0002:00000174       __imp__VirtualProtect@16   10020174     kernel32:KERNEL32.dll
 0002:00000178       __imp__GetSystemInfo@4     10020178     kernel32:KERNEL32.dll
 0002:0000017c       __imp__TlsFree@4           1002017c     kernel32:KERNEL32.dll
 0002:00000180       __imp__TlsSetValue@8       10020180     kernel32:KERNEL32.dll
 0002:00000184       __imp__TlsGetValue@4       10020184     kernel32:KERNEL32.dll
 0002:00000188       __imp__TlsAlloc@0          10020188     kernel32:KERNEL32.dll
 0002:0000018c       __imp__InterlockedFlushSList@4 1002018c     kernel32:KERNEL32.dll
 0002:00000190       __imp__RtlUnwind@16        10020190     kernel32:KERNEL32.dll
 0002:00000194       __imp__LoadLibraryExA@12   10020194     kernel32:KERNEL32.dll
 0002:00000198       __imp__VirtualFree@12      10020198     kernel32:KERNEL32.dll
 0002:0000019c       __imp__VirtualAlloc@16     1002019c     kernel32:KERNEL32.dll
 0002:000001a0       __imp__FlushInstructionCache@12 100201a0     kernel32:KERNEL32.dll
 0002:000001a4       __imp__InterlockedPushEntrySList@8 100201a4     kernel32:KERNEL32.dll
 0002:000001a8       __imp__InterlockedPopEntrySList@4 100201a8     kernel32:KERNEL32.dll
 0002:000001ac       __imp__GetProcessHeap@0    100201ac     kernel32:KERNEL32.dll
 0002:000001b0       __imp__HeapFree@12         100201b0     kernel32:KERNEL32.dll
 0002:000001b4       __imp__HeapAlloc@12        100201b4     kernel32:KERNEL32.dll
 0002:000001b8       __imp__OutputDebugStringW@4 100201b8     kernel32:KERNEL32.dll
 0002:000001bc       __imp__InitializeSListHead@4 100201bc     kernel32:KERNEL32.dll
 0002:000001c0       __imp__GetSystemTimeAsFileTime@4 100201c0     kernel32:KERNEL32.dll
 0002:000001c4       __imp__QueryPerformanceCounter@4 100201c4     kernel32:KERNEL32.dll
 0002:000001c8       __imp__GetStartupInfoW@4   100201c8     kernel32:KERNEL32.dll
 0002:000001cc       __imp__IsDebuggerPresent@0 100201cc     kernel32:KERNEL32.dll
 0002:000001d0       __imp__IsProcessorFeaturePresent@4 100201d0     kernel32:KERNEL32.dll
 0002:000001d4       __imp__TerminateProcess@8  100201d4     kernel32:KERNEL32.dll
 0002:000001d8       __imp__GetCurrentProcess@0 100201d8     kernel32:KERNEL32.dll
 0002:000001dc       __imp__SetUnhandledExceptionFilter@4 100201dc     kernel32:KERNEL32.dll
 0002:000001e0       __imp__UnhandledExceptionFilter@4 100201e0     kernel32:KERNEL32.dll
 0002:000001e4       __imp__InitializeCriticalSectionAndSpinCount@8 100201e4     kernel32:KERNEL32.dll
 0002:000001e8       __imp__WaitForSingleObjectEx@12 100201e8     kernel32:KERNEL32.dll
 0002:000001ec       \177KERNEL32_NULL_THUNK_DATA 100201ec     kernel32:KERNEL32.dll
 0002:000001f0       __imp__OleCreatePropertyFrame@44 100201f0     oleaut32:OLEAUT32.dll
 0002:000001f4       __imp__UnRegisterTypeLib@20 100201f4     oleaut32:OLEAUT32.dll
 0002:000001f8       __imp__RegisterTypeLib@12  100201f8     oleaut32:OLEAUT32.dll
 0002:000001fc       __imp__LoadRegTypeLib@20   100201fc     oleaut32:OLEAUT32.dll
 0002:00000200       __imp__LoadTypeLib@8       10020200     oleaut32:OLEAUT32.dll
 0002:00000204       __imp__VarUI4FromStr@16    10020204     oleaut32:OLEAUT32.dll
 0002:00000208       __imp__VariantInit@4       10020208     oleaut32:OLEAUT32.dll
 0002:0000020c       __imp__SysAllocStringByteLen@8 1002020c     oleaut32:OLEAUT32.dll
 0002:00000210       __imp__SysStringByteLen@4  10020210     oleaut32:OLEAUT32.dll
 0002:00000214       __imp__VariantChangeType@16 10020214     oleaut32:OLEAUT32.dll
 0002:00000218       __imp__VariantClear@4      10020218     oleaut32:OLEAUT32.dll
 0002:0000021c       __imp__SysStringLen@4      1002021c     oleaut32:OLEAUT32.dll
 0002:00000220       __imp__SysFreeString@4     10020220     oleaut32:OLEAUT32.dll
 0002:00000224       __imp__SysAllocStringLen@8 10020224     oleaut32:OLEAUT32.dll
 0002:00000228       __imp__SysAllocString@4    10020228     oleaut32:OLEAUT32.dll
 0002:0000022c       \177OLEAUT32_NULL_THUNK_DATA 1002022c     oleaut32:OLEAUT32.dll
 0002:00000230       __imp__UnregisterClassW@8  10020230     user32:USER32.dll
 0002:00000234       __imp__PostMessageW@16     10020234     user32:USER32.dll
 0002:00000238       __imp__DefWindowProcW@16   10020238     user32:USER32.dll
 0002:0000023c       __imp__CallWindowProcW@20  1002023c     user32:USER32.dll
 0002:00000240       __imp__RegisterClassExW@4  10020240     user32:USER32.dll
 0002:00000244       __imp__GetClassInfoExW@12  10020244     user32:USER32.dll
 0002:00000248       __imp__CreateWindowExW@48  10020248     user32:USER32.dll
 0002:0000024c       __imp__IsWindow@4          1002024c     user32:USER32.dll
 0002:00000250       __imp__IsChild@8           10020250     user32:USER32.dll
 0002:00000254       __imp__DestroyWindow@4     10020254     user32:USER32.dll
 0002:00000258       __imp__ShowWindow@8        10020258     user32:USER32.dll
 0002:0000025c       __imp__SetWindowPos@28     1002025c     user32:USER32.dll
 0002:00000260       __imp__CharNextW@4         10020260     user32:USER32.dll
 0002:00000264       __imp__SetFocus@4          10020264     user32:USER32.dll
 0002:00000268       __imp__LoadBitmapW@8       10020268     user32:USER32.dll
 0002:0000026c       __imp__RegisterClassW@4    1002026c     user32:USER32.dll
 0002:00000270       __imp__PeekMessageW@20     10020270     user32:USER32.dll
 0002:00000274       __imp__LoadCursorW@8       10020274     user32:USER32.dll
 0002:00000278       __imp__GetParent@4         10020278     user32:USER32.dll
 0002:0000027c       __imp__SetWindowLongW@12   1002027c     user32:USER32.dll
 0002:00000280       __imp__GetWindowLongW@8    10020280     user32:USER32.dll
 0002:00000284       __imp__PtInRect@12         10020284     user32:USER32.dll
 0002:00000288       __imp__EqualRect@8         10020288     user32:USER32.dll
 0002:0000028c       __imp__OffsetRect@12       1002028c     user32:USER32.dll
 0002:00000290       __imp__UnionRect@12        10020290     user32:USER32.dll
 0002:00000294       __imp__IntersectRect@12    10020294     user32:USER32.dll
 0002:00000298       __imp__GetClientRect@8     10020298     user32:USER32.dll
 0002:0000029c       __imp__InvalidateRect@12   1002029c     user32:USER32.dll
 0002:000002a0       __imp__SetWindowRgn@12     100202a0     user32:USER32.dll
 0002:000002a4       __imp__EndPaint@8          100202a4     user32:USER32.dll
 0002:000002a8       __imp__BeginPaint@8        100202a8     user32:USER32.dll
 0002:000002ac       __imp__ReleaseDC@8         100202ac     user32:USER32.dll
 0002:000002b0       __imp__GetDC@4             100202b0     user32:USER32.dll
 0002:000002b4       __imp__GetKeyState@4       100202b4     user32:USER32.dll
 0002:000002b8       __imp__GetFocus@0          100202b8     user32:USER32.dll
 0002:000002bc       \177USER32_NULL_THUNK_DATA 100202bc     user32:USER32.dll
 0002:000002c0       __imp__StringFromGUID2@12  100202c0     ole32:ole32.dll
 0002:000002c4       __imp__CoTaskMemAlloc@4    100202c4     ole32:ole32.dll
 0002:000002c8       __imp__CoTaskMemRealloc@8  100202c8     ole32:ole32.dll
 0002:000002cc       __imp__CoTaskMemFree@4     100202cc     ole32:ole32.dll
 0002:000002d0       __imp__ReadClassStm@8      100202d0     ole32:ole32.dll
 0002:000002d4       __imp__WriteClassStm@8     100202d4     ole32:ole32.dll
 0002:000002d8       __imp__CreateDataAdviseHolder@4 100202d8     ole32:ole32.dll
 0002:000002dc       __imp__OleSaveToStream@8   100202dc     ole32:ole32.dll
 0002:000002e0       __imp__CreateOleAdviseHolder@4 100202e0     ole32:ole32.dll
 0002:000002e4       __imp__OleRegGetUserType@12 100202e4     ole32:ole32.dll
 0002:000002e8       __imp__OleRegGetMiscStatus@12 100202e8     ole32:ole32.dll
 0002:000002ec       __imp__OleRegEnumVerbs@8   100202ec     ole32:ole32.dll
 0002:000002f0       __imp__CLSIDFromProgID@8   100202f0     ole32:ole32.dll
 0002:000002f4       __imp__CoCreateInstance@20 100202f4     ole32:ole32.dll
 0002:000002f8       \177ole32_NULL_THUNK_DATA  100202f8     ole32:ole32.dll
 0002:000002fc       ___guard_check_icall_fptr  100202fc     LIBCMT:guard_support.obj
 0002:00000300       ___xc_a                    10020300     LIBCMT:initializers.obj
 0002:00000318       ___xc_z                    10020318     LIBCMT:initializers.obj
 0002:0000031c       ___xi_a                    1002031c     LIBCMT:initializers.obj
 0002:00000324       ___acrt_stdio_initializer  10020324     libucrt:stdio_initializer.obj
 0002:00000328       ___acrt_multibyte_initializer 10020328     libucrt:multibyte_initializer.obj
 0002:0000032c       ___acrt_tran_sse2_initializer 1002032c     libucrt:sse2_initializer.obj
 0002:00000330       ___xi_z                    10020330     LIBCMT:initializers.obj
 0002:00000334       ___xl_a                    10020334     LIBCMT:tlssup.obj
 0002:00000338       ___xl_z                    10020338     LIBCMT:tlssup.obj
 0002:0000033c       ___xp_a                    1002033c     LIBCMT:initializers.obj
 0002:00000340       ___acrt_locale_terminator  10020340     libucrt:locale_initializer.obj
 0002:00000344       ___dcrt_console_output_terminator 10020344     libucrt:console_output_initializer.obj
 0002:00000348       ___acrt_stdio_terminator   10020348     libucrt:stdio_initializer.obj
 0002:0000034c       ___xp_z                    1002034c     LIBCMT:initializers.obj
 0002:00000350       ___xt_a                    10020350     LIBCMT:initializers.obj
 0002:00000354       ___xt_z                    10020354     LIBCMT:initializers.obj
 0002:00000360       ??_C@_13HADIAKP@?$AAS@     10020360     OposVariant.obj
 0002:00000364       ??_C@_13LHMFKAAD@?$AAM@    10020364     OposVariant.obj
 0002:00000368       ??_C@_13MKMNOPIJ@?$AAD@    10020368     OposVariant.obj
 0002:0000036c       ??_C@_13OPKGLAFF@?$AAB@    1002036c     OposVariant.obj
 0002:00000370       ??_C@_17LLMMEOJD@?$AAV?$AAa?$AAl@ 10020370     OposVariant.obj
 0002:00000378       ??_C@_1BI@JFAIJMHL@?$AAF?$AAo?$AAr?$AAc?$AAe?$AAR?$AAe?$AAm?$AAo?$AAv?$AAe@ 10020378     OposVariant.obj
 0002:00000390       ??_C@_1BC@GCKHIPE@?$AAN?$AAo?$AAR?$AAe?$AAm?$AAo?$AAv?$AAe@ 10020390     OposVariant.obj
 0002:000003a4       ??_C@_1O@JDLOHAN@?$AAD?$AAe?$AAl?$AAe?$AAt?$AAe@ 100203a4     OposVariant.obj
 0002:000003b4       ??_C@_11LOCGONAA@@         100203b4     OposVariant.obj
 0002:000003b8       ??_7CComClassFactory@ATL@@6B@ 100203b8     GestureControl.obj
 0002:000003d0       ?_entries@?1??_GetEntries@CComClassFactory@ATL@@SGPBU_ATL_INTMAP_ENTRY@3@XZ@4QBU43@B 100203d0     GestureControl.obj
 0002:000003e8       __GUID_00000001_0000_0000_c000_000000000046 100203e8     GestureControl.obj
 0002:000003f8       _IID_IOPOSGestureControl_1_16 100203f8     GestureControl.obj
 0002:00000408       _IID_IOPOSGestureControl   10020408     GestureControl.obj
 0002:00000418       _LIBID_OposGestureControl_CCO 10020418     GestureControl.obj
 0002:00000428       _DIID__IOPOSGestureControlEvents 10020428     GestureControl.obj
 0002:00000438       _CLSID_OPOSGestureControl  10020438     GestureControl.obj
 0002:00000448       ??_C@_1BK@BIGILECK@?$AAA?$AAd?$AAv?$AAa?$AAp?$AAi?$AA3?$AA2?$AA?4?$AAd?$AAl?$AAl@ 10020448     GestureControl.obj
 0002:00000464       __GUID_00000114_0000_0000_c000_000000000046 10020464     GestureControl.obj
 0002:00000474       ??_C@_0BI@MNCFCPFK@RegCreateKeyTransactedW@ 10020474     GestureControl.obj
 0002:0000048c       __GUID_b196b287_bab4_101a_b69c_00aa00341d07 1002048c     GestureControl.obj
 0002:0000049c       __GUID_b196b285_bab4_101a_b69c_00aa00341d07 1002049c     GestureControl.obj
 0002:000004ac       __GUID_a6bc3ac0_dbaa_11ce_9de3_00aa004bb851 100204ac     GestureControl.obj
 0002:000004bc       __GUID_0000010c_0000_0000_c000_000000000046 100204bc     GestureControl.obj
 0002:000004cc       __GUID_00000146_0000_0000_c000_000000000046 100204cc     GestureControl.obj
 0002:000004e0       ?_entries@?1??_GetEntries@COPOSGestureControl@@SGPBU_ATL_INTMAP_ENTRY@ATL@@XZ@4QBU34@B 100204e0     GestureControl.obj
 0002:00000600       __GUID_cf51ed10_62fe_11cf_bf86_00a0c9034836 10020600     GestureControl.obj
 0002:00000610       __GUID_0000010a_0000_0000_c000_000000000046 10020610     GestureControl.obj
 0002:00000620       __GUID_b196b283_bab4_101a_b69c_00aa00341d07 10020620     GestureControl.obj
 0002:00000630       __GUID_cb5bdc81_93c1_11cf_8f20_00805f2cd064 10020630     GestureControl.obj
 0002:00000640       ?pPropMap@?1??GetPropertyMap@COPOSGestureControl@@SAPBUATL_PROPMAP_ENTRY@ATL@@XZ@4QBU34@B 10020640     GestureControl.obj
 0002:000006ac       ??_C@_17DGDADEHL@?$AA_?$AAc?$AAx@ 100206ac     GestureControl.obj
 0002:000006b4       ??_C@_17IOIMFDBO@?$AA_?$AAc?$AAy@ 100206b4     GestureControl.obj
 0002:000006bc       ??_7CComModule@ATL@@6B@    100206bc     GestureControl.obj
 0002:000006e4       __GUID_922eada0_3424_11cf_b670_00aa004cd6d8 100206e4     GestureControl.obj
 0002:000006f4       __GUID_9c2cad80_3424_11cf_b670_00aa004cd6d8 100206f4     GestureControl.obj
 0002:00000704       __GUID_00000119_0000_0000_c000_000000000046 10020704     GestureControl.obj
 0002:00000714       __GUID_b196b289_bab4_101a_b69c_00aa00341d07 10020714     GestureControl.obj
 0002:00000724       __GUID_00000000_0000_0000_c000_000000000046 10020724     GestureControl.obj
 0002:00000734       __GUID_00020400_0000_0000_c000_000000000046 10020734     GestureControl.obj
 0002:00000744       ??_7?$CComObjectCached@VCComClassFactory@ATL@@@ATL@@6B@ 10020744     GestureControl.obj
 0002:0000075c       ??_C@_1CE@PGFMOFKI@?$AAS?$AAt?$AAa?$AAt?$AAu?$AAs?$AAU?$AAp?$AAd?$AAa?$AAt?$AAe?$AAE?$AAv?$AAe@ 1002075c     GestureControl.obj
 0002:00000780       ??_C@_1CI@HLBJDONE@?$AAO?$AAu?$AAt?$AAp?$AAu?$AAt?$AAC?$AAo?$AAm?$AAp?$AAl?$AAe?$AAt?$AAe?$AAE@ 10020780     GestureControl.obj
 0002:000007a8       ??_C@_1BG@LODEBHDD@?$AAE?$AAr?$AAr?$AAo?$AAr?$AAE?$AAv?$AAe?$AAn?$AAt@ 100207a8     GestureControl.obj
 0002:000007c0       ??_C@_1BM@CBGEBBBJ@?$AAD?$AAi?$AAr?$AAe?$AAc?$AAt?$AAI?$AAO?$AAE?$AAv?$AAe?$AAn?$AAt@ 100207c0     GestureControl.obj
 0002:000007dc       __GUID_b196b286_bab4_101a_b69c_00aa00341d07 100207dc     GestureControl.obj
 0002:000007ec       __GUID_00000117_0000_0000_c000_000000000046 100207ec     GestureControl.obj
 0002:000007fc       ??_C@_1BC@ENICKDH@?$AAC?$AAo?$AAn?$AAt?$AAe?$AAn?$AAt?$AAs@ 100207fc     GestureControl.obj
 0002:00000810       ??_7?$CComObject@V?$CComEnum@UIEnumConnectionPoints@@$1?_GUID_b196b285_bab4_101a_b69c_00aa00341d07@@3U__s_GUID@@BPAUIConnectionPoint@@V?$_CopyInterface@UIConnectionPoint@@@ATL@@VCComSingleThreadModel@6@@ATL@@@ATL@@6B@ 10020810     GestureControl.obj
 0002:00000830       ??_C@_1M@KANJNLFF@?$AAC?$AAL?$AAS?$AAI?$AAD@ 10020830     GestureControl.obj
 0002:0000083c       ??_C@_1M@EJNEECMJ@?$AAA?$AAp?$AAp?$AAI?$AAD@ 1002083c     GestureControl.obj
 0002:00000848       __GUID_0000010e_0000_0000_c000_000000000046 10020848     GestureControl.obj
 0002:00000858       __GUID_b196b288_bab4_101a_b69c_00aa00341d07 10020858     GestureControl.obj
 0002:00000868       ?rgszNeverDelete@CRegParser@ATL@@1QBQB_WB 10020868     GestureControl.obj
 0002:00000898       ??_7CRegObject@ATL@@6B@    10020898     GestureControl.obj
 0002:000008b0       __GUID_00000113_0000_0000_c000_000000000046 100208b0     GestureControl.obj
 0002:000008c0       __GUID_1c2056cc_5ef4_101b_8bc8_00aa003e3b29 100208c0     GestureControl.obj
 0002:000008d0       ??_C@_1CK@OEKPKBNA@?$AAC?$AAo?$AAm?$AAp?$AAo?$AAn?$AAe?$AAn?$AAt?$AA?5?$AAC?$AAa?$AAt?$AAe?$AAg@ 100208d0     GestureControl.obj
 0002:000008fc       ??_C@_1BC@NKMMNMGL@?$AAF?$AAi?$AAl?$AAe?$AAT?$AAy?$AAp?$AAe@ 100208fc     GestureControl.obj
 0002:00000910       ??_C@_1BE@EKPAFMCP@?$AAI?$AAn?$AAt?$AAe?$AAr?$AAf?$AAa?$AAc?$AAe@ 10020910     GestureControl.obj
 0002:00000924       ??_C@_1BC@MAICEHGI@?$AAH?$AAa?$AAr?$AAd?$AAw?$AAa?$AAr?$AAe@ 10020924     GestureControl.obj
 0002:00000938       ??_C@_19HLLLM@?$AAM?$AAi?$AAm?$AAe@ 10020938     GestureControl.obj
 0002:00000944       ??_C@_17OMAOINJK@?$AAS?$AAA?$AAM@ 10020944     GestureControl.obj
 0002:0000094c       ??_C@_1BC@IBECJAAI@?$AAS?$AAE?$AAC?$AAU?$AAR?$AAI?$AAT?$AAY@ 1002094c     GestureControl.obj
 0002:00000960       ??_C@_1O@GBFINDKL@?$AAS?$AAY?$AAS?$AAT?$AAE?$AAM@ 10020960     GestureControl.obj
 0002:00000970       ??_C@_1BC@EAHCMADO@?$AAS?$AAo?$AAf?$AAt?$AAw?$AAa?$AAr?$AAe@ 10020970     GestureControl.obj
 0002:00000984       ??_C@_1BA@JIHHIEDE@?$AAT?$AAy?$AAp?$AAe?$AAL?$AAi?$AAb@ 10020984     GestureControl.obj
 0002:00000998       ?map@?1??HKeyFromString@CRegParser@ATL@@KAPAUHKEY__@@PA_W@Z@4QBUkeymap@?1??123@KAPAU4@0@Z@B 10020998     GestureControl.obj
 0002:00000a08       ??_C@_19NCHLBIN@?$AAH?$AAK?$AAC?$AAR@ 10020a08     GestureControl.obj
 0002:00000a14       ??_C@_19JAPAIJDE@?$AAH?$AAK?$AAC?$AAU@ 10020a14     GestureControl.obj
 0002:00000a20       ??_C@_19PEALEEJB@?$AAH?$AAK?$AAL?$AAM@ 10020a20     GestureControl.obj
 0002:00000a2c       ??_C@_17PJOJPMPB@?$AAH?$AAK?$AAU@ 10020a2c     GestureControl.obj
 0002:00000a34       ??_C@_19PNBHMJPL@?$AAH?$AAK?$AAP?$AAD@ 10020a34     GestureControl.obj
 0002:00000a40       ??_C@_19GFFAIJHG@?$AAH?$AAK?$AAD?$AAD@ 10020a40     GestureControl.obj
 0002:00000a4c       ??_C@_19OFICIBHH@?$AAH?$AAK?$AAC?$AAC@ 10020a4c     GestureControl.obj
 0002:00000a58       ??_C@_1CE@PACHPJFI@?$AAH?$AAK?$AAE?$AAY?$AA_?$AAC?$AAL?$AAA?$AAS?$AAS?$AAE?$AAS?$AA_?$AAR?$AAO@ 10020a58     GestureControl.obj
 0002:00000a7c       ??_C@_1CE@HLHNCBPM@?$AAH?$AAK?$AAE?$AAY?$AA_?$AAC?$AAU?$AAR?$AAR?$AAE?$AAN?$AAT?$AA_?$AAU?$AAS@ 10020a7c     GestureControl.obj
 0002:00000aa0       ??_C@_1CG@GFBEANJL@?$AAH?$AAK?$AAE?$AAY?$AA_?$AAL?$AAO?$AAC?$AAA?$AAL?$AA_?$AAM?$AAA?$AAC?$AAH@ 10020aa0     GestureControl.obj
 0002:00000ac8       ??_C@_1BG@BGODANIO@?$AAH?$AAK?$AAE?$AAY?$AA_?$AAU?$AAS?$AAE?$AAR?$AAS@ 10020ac8     GestureControl.obj
 0002:00000ae0       ??_C@_1CM@KHNNAOIC@?$AAH?$AAK?$AAE?$AAY?$AA_?$AAP?$AAE?$AAR?$AAF?$AAO?$AAR?$AAM?$AAA?$AAN?$AAC@ 10020ae0     GestureControl.obj
 0002:00000b0c       ??_C@_1BM@HAGMMHIA@?$AAH?$AAK?$AAE?$AAY?$AA_?$AAD?$AAY?$AAN?$AA_?$AAD?$AAA?$AAT?$AAA@ 10020b0c     GestureControl.obj
 0002:00000b28       ??_C@_1CI@BBJOACGG@?$AAH?$AAK?$AAE?$AAY?$AA_?$AAC?$AAU?$AAR?$AAR?$AAE?$AAN?$AAT?$AA_?$AAC?$AAO@ 10020b28     GestureControl.obj
 0002:00000b50       __GUID_00000109_0000_0000_c000_000000000046 10020b50     GestureControl.obj
 0002:00000b60       __GUID_7fd52380_4e07_101b_ae2d_08002b2ec713 10020b60     GestureControl.obj
 0002:00000b70       __GUID_00000112_0000_0000_c000_000000000046 10020b70     GestureControl.obj
 0002:00000b80       __GUID_3af24292_0c96_11ce_a0cf_00aa00600ab8 10020b80     GestureControl.obj
 0002:00000b90       __GUID_00000127_0000_0000_c000_000000000046 10020b90     GestureControl.obj
 0002:00000ba0       __GUID_0000010d_0000_0000_c000_000000000046 10020ba0     GestureControl.obj
 0002:00000bb0       ??_C@_1EA@NHKLICFA@?$AAH?$AAK?$AAC?$AAU?$AA?$AN?$AA?6?$AA?$HL?$AA?7?$AAS?$AAo?$AAf?$AAt?$AAw?$AAa?$AAr@ 10020bb0     GestureControl.obj
 0002:00000bf0       ??_C@_1BE@LJOLIMEM@?$AA?$AN?$AA?6?$AA?7?$AA?$HN?$AA?$AN?$AA?6?$AA?$HN?$AA?$AN?$AA?6@ 10020bf0     GestureControl.obj
 0002:00000c04       ??_C@_1M@PPPPCDEP@?$AAA?$AAP?$AAP?$AAI?$AAD@ 10020c04     GestureControl.obj
 0002:00000c10       ??_C@_1O@MNLDABAF@?$AAM?$AAo?$AAd?$AAu?$AAl?$AAe@ 10020c10     GestureControl.obj
 0002:00000c20       ??_C@_1BG@JBACFMF@?$AAM?$AAo?$AAd?$AAu?$AAl?$AAe?$AA_?$AAR?$AAa?$AAw@ 10020c20     GestureControl.obj
 0002:00000c38       ??_C@_1BC@KAILKFFG@?$AAR?$AAE?$AAG?$AAI?$AAS?$AAT?$AAR?$AAY@ 10020c38     GestureControl.obj
 0002:00000c4c       ??_7?$CComContainedObject@VCOPOSGestureControl@@@ATL@@6B?$IDispatchImpl@UIOPOSGestureControl@@$1?IID_IOPOSGestureControl@@3U_GUID@@B$1?LIBID_OposGestureControl_CCO@@3U3@B$00$0A@VCComTypeInfoHolder@ATL@@@1@@ 10020c4c     GestureControl.obj
 0002:00000d7c       ??_7?$CComContainedObject@VCOPOSGestureControl@@@ATL@@6BCComControlBase@1@@ 10020d7c     GestureControl.obj
 0002:00000d90       ??_7?$CComContainedObject@VCOPOSGestureControl@@@ATL@@6B?$CWindowImpl@VCOPOSGestureControl@@VCWindow@ATL@@V?$CWinTraits@$0FGAAAAAA@$0A@@3@@1@@ 10020d90     GestureControl.obj
 0002:00000da0       ??_7?$CComContainedObject@VCOPOSGestureControl@@@ATL@@6B?$IPersistStreamInitImpl@VCOPOSGestureControl@@@1@@ 10020da0     GestureControl.obj
 0002:00000dc4       ??_7?$CComContainedObject@VCOPOSGestureControl@@@ATL@@6B?$IOleControlImpl@VCOPOSGestureControl@@@1@@ 10020dc4     GestureControl.obj
 0002:00000de0       ??_7?$CComContainedObject@VCOPOSGestureControl@@@ATL@@6B?$IOleObjectImpl@VCOPOSGestureControl@@@1@@ 10020de0     GestureControl.obj
 0002:00000e40       ??_7?$CComContainedObject@VCOPOSGestureControl@@@ATL@@6B?$IOleInPlaceActiveObjectImpl@VCOPOSGestureControl@@@1@@ 10020e40     GestureControl.obj
 0002:00000e68       ??_7?$CComContainedObject@VCOPOSGestureControl@@@ATL@@6B?$IViewObjectExImpl@VCOPOSGestureControl@@@1@@ 10020e68     GestureControl.obj
 0002:00000ea4       ??_7?$CComContainedObject@VCOPOSGestureControl@@@ATL@@6B?$IOleInPlaceObjectWindowlessImpl@VCOPOSGestureControl@@@1@@ 10020ea4     GestureControl.obj
 0002:00000ed0       ??_7?$CComContainedObject@VCOPOSGestureControl@@@ATL@@6B?$IConnectionPointContainerImpl@VCOPOSGestureControl@@@1@@ 10020ed0     GestureControl.obj
 0002:00000ee4       ??_7?$CComContainedObject@VCOPOSGestureControl@@@ATL@@6B?$IPersistStorageImpl@VCOPOSGestureControl@@@1@@ 10020ee4     GestureControl.obj
 0002:00000f0c       ??_7?$CComContainedObject@VCOPOSGestureControl@@@ATL@@6B?$ISpecifyPropertyPagesImpl@VCOPOSGestureControl@@@1@@ 10020f0c     GestureControl.obj
 0002:00000f1c       ??_7?$CComContainedObject@VCOPOSGestureControl@@@ATL@@6B?$IQuickActivateImpl@VCOPOSGestureControl@@@1@@ 10020f1c     GestureControl.obj
 0002:00000f34       ??_7?$CComContainedObject@VCOPOSGestureControl@@@ATL@@6B?$IDataObjectImpl@VCOPOSGestureControl@@@1@@ 10020f34     GestureControl.obj
 0002:00000f64       ??_7?$CComContainedObject@VCOPOSGestureControl@@@ATL@@6B?$IProvideClassInfo2Impl@$1?CLSID_OPOSGestureControl@@3U_GUID@@B$1?DIID__IOPOSGestureControlEvents@@3U2@B$1?LIBID_OposGestureControl_CCO@@3U2@B$00$0A@VCComTypeInfoHolder@ATL@@@1@@ 10020f64     GestureControl.obj
 0002:00000f78       ??_7?$CComContainedObject@VCOPOSGestureControl@@@ATL@@6B?$IObjectSafetyImpl@VCOPOSGestureControl@@$02@1@@ 10020f78     GestureControl.obj
 0002:00000f90       ??_7?$CComContainedObject@VCOPOSGestureControl@@@ATL@@6B?$IPropertyNotifySinkCP@VCOPOSGestureControl@@VCComDynamicUnkArray@ATL@@@1@@ 10020f90     GestureControl.obj
 0002:00000fb0       ??_7?$CComContainedObject@VCOPOSGestureControl@@@ATL@@6B?$CProxy_IOPOSEvents@VCOPOSGestureControl@@@@@ 10020fb0     GestureControl.obj
 0002:00000fd0       ??_7?$CComAggObject@VCOPOSGestureControl@@@ATL@@6B@ 10020fd0     GestureControl.obj
 0002:00000fe0       ??_7?$CComObject@VCOPOSGestureControl@@@ATL@@6B?$IDispatchImpl@UIOPOSGestureControl@@$1?IID_IOPOSGestureControl@@3U_GUID@@B$1?LIBID_OposGestureControl_CCO@@3U3@B$00$0A@VCComTypeInfoHolder@ATL@@@1@@ 10020fe0     GestureControl.obj
 0002:00001110       ??_7?$CComObject@VCOPOSGestureControl@@@ATL@@6BCComControlBase@1@@ 10021110     GestureControl.obj
 0002:00001124       ??_7?$CComObject@VCOPOSGestureControl@@@ATL@@6B?$CWindowImpl@VCOPOSGestureControl@@VCWindow@ATL@@V?$CWinTraits@$0FGAAAAAA@$0A@@3@@1@@ 10021124     GestureControl.obj
 0002:00001134       ??_7?$CComObject@VCOPOSGestureControl@@@ATL@@6B?$IPersistStreamInitImpl@VCOPOSGestureControl@@@1@@ 10021134     GestureControl.obj
 0002:00001158       ??_7?$CComObject@VCOPOSGestureControl@@@ATL@@6B?$IOleControlImpl@VCOPOSGestureControl@@@1@@ 10021158     GestureControl.obj
 0002:00001174       ??_7?$CComObject@VCOPOSGestureControl@@@ATL@@6B?$IOleObjectImpl@VCOPOSGestureControl@@@1@@ 10021174     GestureControl.obj
 0002:000011d4       ??_7?$CComObject@VCOPOSGestureControl@@@ATL@@6B?$IOleInPlaceActiveObjectImpl@VCOPOSGestureControl@@@1@@ 100211d4     GestureControl.obj
 0002:000011fc       ??_7?$CComObject@VCOPOSGestureControl@@@ATL@@6B?$IViewObjectExImpl@VCOPOSGestureControl@@@1@@ 100211fc     GestureControl.obj
 0002:00001238       ??_7?$CComObject@VCOPOSGestureControl@@@ATL@@6B?$IOleInPlaceObjectWindowlessImpl@VCOPOSGestureControl@@@1@@ 10021238     GestureControl.obj
 0002:00001264       ??_7?$CComObject@VCOPOSGestureControl@@@ATL@@6B?$IConnectionPointContainerImpl@VCOPOSGestureControl@@@1@@ 10021264     GestureControl.obj
 0002:00001278       ??_7?$CComObject@VCOPOSGestureControl@@@ATL@@6B?$IPersistStorageImpl@VCOPOSGestureControl@@@1@@ 10021278     GestureControl.obj
 0002:000012a0       ??_7?$CComObject@VCOPOSGestureControl@@@ATL@@6B?$ISpecifyPropertyPagesImpl@VCOPOSGestureControl@@@1@@ 100212a0     GestureControl.obj
 0002:000012b0       ??_7?$CComObject@VCOPOSGestureControl@@@ATL@@6B?$IQuickActivateImpl@VCOPOSGestureControl@@@1@@ 100212b0     GestureControl.obj
 0002:000012c8       ??_7?$CComObject@VCOPOSGestureControl@@@ATL@@6B?$IDataObjectImpl@VCOPOSGestureControl@@@1@@ 100212c8     GestureControl.obj
 0002:000012f8       ??_7?$CComObject@VCOPOSGestureControl@@@ATL@@6B?$IProvideClassInfo2Impl@$1?CLSID_OPOSGestureControl@@3U_GUID@@B$1?DIID__IOPOSGestureControlEvents@@3U2@B$1?LIBID_OposGestureControl_CCO@@3U2@B$00$0A@VCComTypeInfoHolder@ATL@@@1@@ 100212f8     GestureControl.obj
 0002:0000130c       ??_7?$CComObject@VCOPOSGestureControl@@@ATL@@6B?$IObjectSafetyImpl@VCOPOSGestureControl@@$02@1@@ 1002130c     GestureControl.obj
 0002:00001324       ??_7?$CComObject@VCOPOSGestureControl@@@ATL@@6B?$IPropertyNotifySinkCP@VCOPOSGestureControl@@VCComDynamicUnkArray@ATL@@@1@@ 10021324     GestureControl.obj
 0002:00001344       ??_7?$CComObject@VCOPOSGestureControl@@@ATL@@6B?$CProxy_IOPOSEvents@VCOPOSGestureControl@@@@@ 10021344     GestureControl.obj
 0002:00001364       ??_C@_1O@GBFKGNEO@?$AAA?$AAT?$AAL?$AA?3?$AA?$CF?$AAp@ 10021364     GestureControl.obj
 0002:00001374       ??_C@_1BA@PICGEGJB@?$AAD?$AAI?$AAS?$AAP?$AAL?$AAA?$AAY@ 10021374     GestureControl.obj
 0002:00001384       __GUID_9bfbbc02_eff1_101a_84ed_00aa00341d07 10021384     GestureControl.obj
 0002:00001394       __GUID_b196b284_bab4_101a_b69c_00aa00341d07 10021394     GestureControl.obj
 0002:000013a4       ?_entries@?1??_GetEntries@?$CComEnum@UIEnumConnectionPoints@@$1?_GUID_b196b285_bab4_101a_b69c_00aa00341d07@@3U__s_GUID@@BPAUIConnectionPoint@@V?$_CopyInterface@UIConnectionPoint@@@ATL@@VCComSingleThreadModel@6@@ATL@@SGPBU_ATL_INTMAP_ENTRY@3@XZ@4QBU43@B 100213a4     GestureControl.obj
 0002:000013bc       __GUID_00020412_0000_0000_c000_000000000046 100213bc     GestureControl.obj
 0002:000013cc       __GUID_00020401_0000_0000_c000_000000000046 100213cc     GestureControl.obj
 0002:000013dc       ??_7?$CComObject@V?$CComEnum@UIEnumConnections@@$1?_GUID_b196b287_bab4_101a_b69c_00aa00341d07@@3U__s_GUID@@BUtagCONNECTDATA@@V?$_Copy@UtagCONNECTDATA@@@ATL@@VCComSingleThreadModel@6@@ATL@@@ATL@@6B@ 100213dc     GestureControl.obj
 0002:000013fc       __GUID_55980ba0_35aa_11cf_b671_00aa004cd6d8 100213fc     GestureControl.obj
 0002:0000140c       __GUID_b196b28b_bab4_101a_b69c_00aa00341d07 1002140c     GestureControl.obj
 0002:0000141c       ?_entries@?1??_GetEntries@?$CComEnum@UIEnumConnections@@$1?_GUID_b196b287_bab4_101a_b69c_00aa00341d07@@3U__s_GUID@@BUtagCONNECTDATA@@V?$_Copy@UtagCONNECTDATA@@@ATL@@VCComSingleThreadModel@6@@ATL@@SGPBU_ATL_INTMAP_ENTRY@3@XZ@4QBU43@B 1002141c     GestureControl.obj
 0002:00001434       ??_C@_0BG@EKFFMJIO@RegOpenKeyTransactedW@ 10021434     GestureControl.obj
 0002:0000144c       ??_C@_0BI@HAKLOOGP@RegDeleteKeyTransactedW@ 1002144c     GestureControl.obj
 0002:00001464       ??_C@_0BA@LILAPHGE@RegDeleteKeyExW@ 10021464     GestureControl.obj
 0002:00001474       ??_C@_19ILOCMLCJ@?$AA?4?$AAt?$AAl?$AAb@ 10021474     GestureControl.obj
 0002:00001480       __GUID_0002e012_0000_0000_c000_000000000046 10021480     GestureControl.obj
 0002:00001490       ??_C@_1O@FHBGLCIO@?$AAC?$AAL?$AAS?$AAI?$AAD?$AA?2@ 10021490     GestureControl.obj
 0002:000014a0       ??_C@_1CK@IFBKBFAA@?$AA?2?$AAR?$AAe?$AAq?$AAu?$AAi?$AAr?$AAe?$AAd?$AA?5?$AAC?$AAa?$AAt?$AAe?$AAg@ 100214a0     GestureControl.obj
 0002:000014cc       ??_C@_1DA@BIHALFED@?$AA?2?$AAI?$AAm?$AAp?$AAl?$AAe?$AAm?$AAe?$AAn?$AAt?$AAe?$AAd?$AA?5?$AAC?$AAa@ 100214cc     GestureControl.obj
 0002:000014fc       ??_C@_1BK@EDKOLFBJ@?$AAO?$AAL?$AAE?$AAA?$AAU?$AAT?$AA3?$AA2?$AA?4?$AAD?$AAL?$AAL@ 100214fc     GestureControl.obj
 0002:00001518       ??_C@_0BJ@CNLFOMHB@UnRegisterTypeLibForUser@ 10021518     GestureControl.obj
 0002:00001534       ??_C@_0BH@LBOMMKPJ@RegisterTypeLibForUser@ 10021534     GestureControl.obj
 0002:0000154c       ??_C@_0P@MMNMMLGK@COFreezeEvents@ 1002154c     GestureControlImpl.obj
 0002:0000155c       ??_C@_0BC@OGCGGIMP@GetPropertyNumber@ 1002155c     GestureControlImpl.obj
 0002:00001570       ??_C@_0BC@MDCNODNB@SetPropertyNumber@ 10021570     GestureControlImpl.obj
 0002:00001584       ??_C@_0BC@CFCCMIMD@GetPropertyString@ 10021584     GestureControlImpl.obj
 0002:00001598       ??_C@_0BC@CJEDNN@SetPropertyString@ 10021598     GestureControlImpl.obj
 0002:000015ac       ??_C@_0M@LNPKKKDA@OpenService@ 100215ac     GestureControlImpl.obj
 0002:000015b8       ??_C@_0M@PCMCHHMH@CheckHealth@ 100215b8     GestureControlImpl.obj
 0002:000015c4       ??_C@_0M@JGMIDNEK@ClaimDevice@ 100215c4     GestureControlImpl.obj
 0002:000015d0       ??_C@_0M@JMBCPNGJ@ClearOutput@ 100215d0     GestureControlImpl.obj
 0002:000015dc       ??_C@_0N@DDFIIBMP@CloseService@ 100215dc     GestureControlImpl.obj
 0002:000015ec       ??_C@_08EEIHICPC@DirectIO@ 100215ec     GestureControlImpl.obj
 0002:000015f8       ??_C@_0O@BCPMENMJ@ReleaseDevice@ 100215f8     GestureControlImpl.obj
 0002:00001608       ??_C@_0BA@GFABKEEE@ResetStatistics@ 10021608     GestureControlImpl.obj
 0002:00001618       ??_C@_0BD@DPALHJGC@RetrieveStatistics@ 10021618     GestureControlImpl.obj
 0002:0000162c       ??_C@_0BB@KOHIKNFC@UpdateStatistics@ 1002162c     GestureControlImpl.obj
 0002:00001640       ??_C@_0BH@PBKBNMGB@CompareFirmwareVersion@ 10021640     GestureControlImpl.obj
 0002:00001658       ??_C@_0P@FBPDPIPA@UpdateFirmware@ 10021658     GestureControlImpl.obj
 0002:00001668       ??_C@_0N@DMKIKPMF@CreateMotion@ 10021668     GestureControlImpl.obj
 0002:00001678       ??_C@_0L@HGKOALDC@CreatePose@ 10021678     GestureControlImpl.obj
 0002:00001684       ??_C@_0M@GFJLCLIA@GetPosition@ 10021684     GestureControlImpl.obj
 0002:00001690       ??_C@_0M@GKIFPNAD@SetPosition@ 10021690     GestureControlImpl.obj
 0002:0000169c       ??_C@_08OCLIPGMK@SetSpeed@ 1002169c     GestureControlImpl.obj
 0002:000016a8       ??_C@_0M@GHKJBGOO@StartMotion@ 100216a8     GestureControlImpl.obj
 0002:000016b4       ??_C@_09BHHHHJO@StartPose@ 100216b4     GestureControlImpl.obj
 0002:000016c0       ??_C@_0M@POMOBNLD@StopControl@ 100216c0     GestureControlImpl.obj
 0002:000016cc       ??_7?$CProxy_IOPOSEvents@VCOPOSGestureControl@@@@6B@ 100216cc     GestureControlImpl.obj
 0002:000016ec       ??_C@_1BA@IFHENID@?$AA?$FL?$AAE?$AAr?$AAr?$AAo?$AAr?$AA?$FN@ 100216ec     GestureControlImpl.obj
 0002:000016fc       ??_C@_0DB@IEFPLEKC@SOFTWARE?2OLEforRetail?2ServiceOP@ 100216fc     GestureControlImpl.obj
 0002:00001730       ??_C@_1M@IAIJHCCH@?$AAC?$AAl?$AAo?$AAs?$AAe@ 10021730     GestureControlImpl.obj
 0002:0000173c       ??_C@_1M@PCPKGJAH@?$AAC?$AAl?$AAa?$AAi?$AAm@ 1002173c     GestureControlImpl.obj
 0002:00001748       ??_C@_1BA@NDFKIOCP@?$AAR?$AAe?$AAl?$AAe?$AAa?$AAs?$AAe@ 10021748     GestureControlImpl.obj
 0002:00001758       ??_C@_0P@JFFCLNID@GestureControl@ 10021758     GestureControlImpl.obj
 0002:00001768       ??_C@_1BM@IJMNMBPK@?$AAG?$AAe?$AAt?$AAO?$AAp?$AAe?$AAn?$AAR?$AAe?$AAs?$AAu?$AAl?$AAt@ 10021768     GestureControlImpl.obj
 0002:00001784       _IID_IPropertyNotifySink   10021784     uuid:ocidl_i.obj
 0002:00001794       _GUID_NULL                 10021794     uuid:cguid_i.obj
 0002:000017a4       _CLSID_StdGlobalInterfaceTable 100217a4     uuid:cguid_i.obj
 0002:000017b4       _IID_IDispatch             100217b4     uuid:oaidl_i.obj
 0002:000017c4       _CLSID_StdComponentCategoriesMgr 100217c4     uuid:ieguids.obj
 0002:000017d4       _IID_IUnknown              100217d4     uuid:unknwn_i.obj
 0002:000017e8       ??_C@_1EC@JIJBPKFM@?$AAa?$AAp?$AAi?$AA?9?$AAm?$AAs?$AA?9?$AAw?$AAi?$AAn?$AA?9?$AAc?$AAo?$AAr?$AAe@ 100217e8     LIBCMT:thread_safe_statics.obj
 0002:0000182c       ??_C@_1BK@MGMFAEKH@?$AAk?$AAe?$AAr?$AAn?$AAe?$AAl?$AA3?$AA2?$AA?4?$AAd?$AAl?$AAl@ 1002182c     LIBCMT:thread_safe_statics.obj
 0002:00001848       ??_C@_0BJ@JEBJOJFJ@SleepConditionVariableCS@ 10021848     LIBCMT:thread_safe_statics.obj
 0002:00001864       ??_C@_0BJ@PGPPEPCC@WakeAllConditionVariable@ 10021864     LIBCMT:thread_safe_statics.obj
 0002:0000187d       ?nothrow@std@@3Unothrow_t@1@B 1002187d     LIBCMT:std_nothrow.obj
 0002:00001888       __pRawDllMain              10021888     LIBCMT:dll_dllmain.obj
 0002:00001888       __pDefaultRawDllMain       10021888     LIBCMT:dll_dllmain.obj
 0002:00001890       ??_7exception@std@@6B@     10021890     LIBCMT:throw_bad_alloc.obj
 0002:00001898       ??_C@_0BC@EOODALEL@Unknown?5exception@ 10021898     LIBCMT:throw_bad_alloc.obj
 0002:000018b0       ??_7bad_alloc@std@@6B@     100218b0     LIBCMT:throw_bad_alloc.obj
 0002:000018b8       ??_C@_0P@GHFPNOJB@bad?5allocation@ 100218b8     LIBCMT:throw_bad_alloc.obj
 0002:000018cc       ??_7bad_array_new_length@std@@6B@ 100218cc     LIBCMT:throw_bad_alloc.obj
 0002:000018d4       ??_C@_0BF@KINCDENJ@bad?5array?5new?5length@ 100218d4     LIBCMT:throw_bad_alloc.obj
 0002:000018f0       ??_7type_info@@6B@         100218f0     LIBCMT:std_type_info_static.obj
 0002:000018f4       _GUID_ATLVer110            100218f4     atls:atlbase.obj
 0002:00001908       ??_C@_1IC@ONKHOIDK@?$AAE?$AAR?$AAR?$AAO?$AAR?$AA?5?$AA?3?$AA?5?$AAU?$AAn?$AAa?$AAb?$AAl?$AAe?$AA?5@ 10021908     atls:atlbase.obj
 0002:0000198c       ??_C@_0N@FJEPLCIH@atlthunk?4dll@ 1002198c     atls:atlthunk.obj
 0002:0000199c       ??_C@_0BG@GAKFHCBM@AtlThunk_AllocateData@ 1002199c     atls:atlthunk.obj
 0002:000019b4       ??_C@_0BC@JKONFIAH@AtlThunk_InitData@ 100219b4     atls:atlthunk.obj
 0002:000019c8       ??_C@_0BE@IAOEELAK@AtlThunk_DataToCode@ 100219c8     atls:atlthunk.obj
 0002:000019dc       ??_C@_0BC@GBGKAIPI@AtlThunk_FreeData@ 100219dc     atls:atlthunk.obj
 0002:000019f0       __pDestructExceptionObject 100219f0     libvcruntime:ehhelpers.obj
 0002:000019f8       ??_7bad_exception@std@@6B@ 100219f8     libvcruntime:frame.obj
 0002:00001a00       ??_C@_0O@DPKOEFFH@bad?5exception@ 10021a00     libvcruntime:frame.obj
 0002:00001d90       ??_C@_08EHJDFFNH@__based?$CI@ 10021d90     libvcruntime:undname.obj
 0002:00001d9c       ??_C@_07KOLFKCDI@__cdecl@  10021d9c     libvcruntime:undname.obj
 0002:00001da4       ??_C@_08GHMPAG@__pascal@   10021da4     libvcruntime:undname.obj
 0002:00001db0       ??_C@_09IFJBGAPI@__stdcall@ 10021db0     libvcruntime:undname.obj
 0002:00001dbc       ??_C@_0L@NPHFGOKO@__thiscall@ 10021dbc     libvcruntime:undname.obj
 0002:00001dc8       ??_C@_0L@JMKHOMEK@__fastcall@ 10021dc8     libvcruntime:undname.obj
 0002:00001dd4       ??_C@_0N@BCKKPABJ@__vectorcall@ 10021dd4     libvcruntime:undname.obj
 0002:00001de4       ??_C@_09HIJEGCPM@__clrcall@ 10021de4     libvcruntime:undname.obj
 0002:00001df0       ??_C@_06GHPCKEAG@__eabi@   10021df0     libvcruntime:undname.obj
 0002:00001df8       ??_C@_09IOPIDJLG@__swift_1@ 10021df8     libvcruntime:undname.obj
 0002:00001e04       ??_C@_09KFNFGKHF@__swift_2@ 10021e04     libvcruntime:undname.obj
 0002:00001e10       ??_C@_07JOMMBBKO@__ptr64@  10021e10     libvcruntime:undname.obj
 0002:00001e18       ??_C@_0L@PILCLIHE@__restrict@ 10021e18     libvcruntime:undname.obj
 0002:00001e24       ??_C@_0M@GFIIJFMG@__unaligned@ 10021e24     libvcruntime:undname.obj
 0002:00001e30       ??_C@_09DHDLOLLB@restrict?$CI@ 10021e30     libvcruntime:undname.obj
 0002:00001e3a       ??_C@_00CNPNBAHC@@         10021e3a     libvcruntime:undname.obj
 0002:00001e3c       ??_C@_04NIHEBCM@?5new@     10021e3c     libvcruntime:undname.obj
 0002:00001e44       ??_C@_07FPCDHGMM@?5delete@ 10021e44     libvcruntime:undname.obj
 0002:00001e4c       ??_C@_01NEMOKFLO@?$DN@     10021e4c     libvcruntime:undname.obj
 0002:00001e50       ??_C@_02GPIOPFAK@?$DO?$DO@ 10021e50     libvcruntime:undname.obj
 0002:00001e54       ??_C@_02FODMEDOG@?$DM?$DM@ 10021e54     libvcruntime:undname.obj
 0002:00001e58       ??_C@_01DCLJPIOD@?$CB@     10021e58     libvcruntime:undname.obj
 0002:00001e5c       ??_C@_02EGOFBIJA@?$DN?$DN@ 10021e5c     libvcruntime:undname.obj
 0002:00001e60       ??_C@_02FDNJECIE@?$CB?$DN@ 10021e60     libvcruntime:undname.obj
 0002:00001e64       ??_C@_02GPECMEKF@?$FL?$FN@ 10021e64     libvcruntime:undname.obj
 0002:00001e68       ??_C@_08LHJFAFGD@operator@ 10021e68     libvcruntime:undname.obj
 0002:00001e74       ??_C@_02HBOOOICD@?9?$DO@   10021e74     libvcruntime:undname.obj
 0002:00001e78       ??_C@_01NBENCBCI@?$CK@     10021e78     libvcruntime:undname.obj
 0002:00001e7c       ??_C@_02ECNGHCIF@?$CL?$CL@ 10021e7c     libvcruntime:undname.obj
 0002:00001e80       ??_C@_02BAABKJLB@?9?9@     10021e80     libvcruntime:undname.obj
 0002:00001e84       ??_C@_01JOAMLHOP@?9@       10021e84     libvcruntime:undname.obj
 0002:00001e88       ??_C@_01MIFGBAGJ@?$CL@     10021e88     libvcruntime:undname.obj
 0002:00001e8c       ??_C@_01HNPIGOCE@?$CG@     10021e8c     libvcruntime:undname.obj
 0002:00001e90       ??_C@_03MNHNFDLC@?9?$DO?$CK@ 10021e90     libvcruntime:undname.obj
 0002:00001e94       ??_C@_01KMDKNFGN@?1@       10021e94     libvcruntime:undname.obj
 0002:00001e98       ??_C@_01FGNFDNOH@?$CF@     10021e98     libvcruntime:undname.obj
 0002:00001e9c       ??_C@_01MNNFJEPP@?$DM@     10021e9c     libvcruntime:undname.obj
 0002:00001ea0       ??_C@_02EHCHHCKH@?$DM?$DN@ 10021ea0     libvcruntime:undname.obj
 0002:00001ea4       ??_C@_01PPODPGHN@?$DO@     10021ea4     libvcruntime:undname.obj
 0002:00001ea8       ??_C@_02EEKDKGMJ@?$DO?$DN@ 10021ea8     libvcruntime:undname.obj
 0002:00001eac       ??_C@_01IHBHIGKO@?0@       10021eac     libvcruntime:undname.obj
 0002:00001eb0       ??_C@_02HCKGKOFO@?$CI?$CJ@ 10021eb0     libvcruntime:undname.obj
 0002:00001eb4       ??_C@_01PJKLJHI@?$HO@      10021eb4     libvcruntime:undname.obj
 0002:00001eb8       ??_C@_01JKBOJNNK@?$FO@     10021eb8     libvcruntime:undname.obj
 0002:00001ebc       ??_C@_01DNKMNLPK@?$HM@     10021ebc     libvcruntime:undname.obj
 0002:00001ec0       ??_C@_02PPKAJPJL@?$CG?$CG@ 10021ec0     libvcruntime:undname.obj
 0002:00001ec4       ??_C@_02NONPIBCD@?$HM?$HM@ 10021ec4     libvcruntime:undname.obj
 0002:00001ec8       ??_C@_02FPIMKNGF@?$CK?$DN@ 10021ec8     libvcruntime:undname.obj
 0002:00001ecc       ??_C@_02FOEOMHFC@?$CL?$DN@ 10021ecc     libvcruntime:undname.obj
 0002:00001ed0       ??_C@_02FKMDLLOA@?9?$DN@   10021ed0     libvcruntime:undname.obj
 0002:00001ed4       ??_C@_02FJEHGPIO@?1?$DN@   10021ed4     libvcruntime:undname.obj
 0002:00001ed8       ??_C@_02FENAOKFI@?$CF?$DN@ 10021ed8     libvcruntime:undname.obj
 0002:00001edc       ??_C@_03IKFCCPFF@?$DO?$DO?$DN@ 10021edc     libvcruntime:undname.obj
 0002:00001ee0       ??_C@_03CDNPDDLA@?$DM?$DM?$DN@ 10021ee0     libvcruntime:undname.obj
 0002:00001ee4       ??_C@_02FGJGFEAB@?$CG?$DN@ 10021ee4     libvcruntime:undname.obj
 0002:00001ee8       ??_C@_02DHLNPPGH@?$HM?$DN@ 10021ee8     libvcruntime:undname.obj
 0002:00001eec       ??_C@_02MHEGNOJ@?$FO?$DN@  10021eec     libvcruntime:undname.obj
 0002:00001ef0       ??_C@_09IFPLHPGF@?$GAvftable?8@ 10021ef0     libvcruntime:undname.obj
 0002:00001efc       ??_C@_09BLBHBJP@?$GAvbtable?8@ 10021efc     libvcruntime:undname.obj
 0002:00001f08       ??_C@_07FEEIOKP@?$GAvcall?8@ 10021f08     libvcruntime:undname.obj
 0002:00001f10       ??_C@_08LLFFHHDJ@?$GAtypeof?8@ 10021f10     libvcruntime:undname.obj
 0002:00001f1c       ??_C@_0BF@KDPPACIK@?$GAlocal?5static?5guard?8@ 10021f1c     libvcruntime:undname.obj
 0002:00001f34       ??_C@_08OBABFOLI@?$GAstring?8@ 10021f34     libvcruntime:undname.obj
 0002:00001f40       ??_C@_0BD@JDLKDPAB@?$GAvbase?5destructor?8@ 10021f40     libvcruntime:undname.obj
 0002:00001f54       ??_C@_0BN@DEGPLNFK@?$GAvector?5deleting?5destructor?8@ 10021f54     libvcruntime:undname.obj
 0002:00001f74       ??_C@_0BO@OBMKPJIG@?$GAdefault?5constructor?5closure?8@ 10021f74     libvcruntime:undname.obj
 0002:00001f94       ??_C@_0BN@IMDCHIKM@?$GAscalar?5deleting?5destructor?8@ 10021f94     libvcruntime:undname.obj
 0002:00001fb4       ??_C@_0BO@PFGOCPJJ@?$GAvector?5constructor?5iterator?8@ 10021fb4     libvcruntime:undname.obj
 0002:00001fd4       ??_C@_0BN@LFPFMEDL@?$GAvector?5destructor?5iterator?8@ 10021fd4     libvcruntime:undname.obj
 0002:00001ff4       ??_C@_0CE@IKBNEHA@?$GAvector?5vbase?5constructor?5itera@ 10021ff4     libvcruntime:undname.obj
 0002:00002018       ??_C@_0BL@NILFHHPC@?$GAvirtual?5displacement?5map?8@ 10022018     libvcruntime:undname.obj
 0002:00002034       ??_C@_0CB@JONCMFFK@?$GAeh?5vector?5constructor?5iterator@ 10022034     libvcruntime:undname.obj
 0002:00002058       ??_C@_0CA@GCEOPDGL@?$GAeh?5vector?5destructor?5iterator?8@ 10022058     libvcruntime:undname.obj
 0002:00002078       ??_C@_0CH@OOJPLCPH@?$GAeh?5vector?5vbase?5constructor?5it@ 10022078     libvcruntime:undname.obj
 0002:000020a0       ??_C@_0BL@LLKPOHJI@?$GAcopy?5constructor?5closure?8@ 100220a0     libvcruntime:undname.obj
 0002:000020bc       ??_C@_0BA@KBCDOMBN@?$GAudt?5returning?8@ 100220bc     libvcruntime:undname.obj
 0002:000020cc       ??_C@_03KLGMFNMG@?$GAEH@   100220cc     libvcruntime:undname.obj
 0002:000020d0       ??_C@_05KHLCHHI@?$GARTTI@  100220d0     libvcruntime:undname.obj
 0002:000020d8       ??_C@_0BA@KKLDJDLB@?$GAlocal?5vftable?8@ 100220d8     libvcruntime:undname.obj
 0002:000020e8       ??_C@_0CE@IIHCMGGL@?$GAlocal?5vftable?5constructor?5clos@ 100220e8     libvcruntime:undname.obj
 0002:0000210c       ??_C@_06FHBGPFGH@?5new?$FL?$FN@ 1002210c     libvcruntime:undname.obj
 0002:00002114       ??_C@_09LBNFPBCA@?5delete?$FL?$FN@ 10022114     libvcruntime:undname.obj
 0002:00002120       ??_C@_0P@HJKNJFNN@?$GAomni?5callsig?8@ 10022120     libvcruntime:undname.obj
 0002:00002130       ??_C@_0BL@CNOONJFP@?$GAplacement?5delete?5closure?8@ 10022130     libvcruntime:undname.obj
 0002:0000214c       ??_C@_0BN@CKNJLHMB@?$GAplacement?5delete?$FL?$FN?5closure?8@ 1002214c     libvcruntime:undname.obj
 0002:0000216c       ??_C@_0CG@CFDHKGGD@?$GAmanaged?5vector?5constructor?5ite@ 1002216c     libvcruntime:undname.obj
 0002:00002194       ??_C@_0CF@IMGKMJNO@?$GAmanaged?5vector?5destructor?5iter@ 10022194     libvcruntime:undname.obj
 0002:000021bc       ??_C@_0CG@HLDDJMAG@?$GAeh?5vector?5copy?5constructor?5ite@ 100221bc     libvcruntime:undname.obj
 0002:000021e4       ??_C@_0CM@FCBBDIGB@?$GAeh?5vector?5vbase?5copy?5construct@ 100221e4     libvcruntime:undname.obj
 0002:00002210       ??_C@_0BL@CLIPGLGB@?$GAdynamic?5initializer?5for?5?8@ 10022210     libvcruntime:undname.obj
 0002:0000222c       ??_C@_0CB@PDBIFEP@?$GAdynamic?5atexit?5destructor?5for?5@ 1002222c     libvcruntime:undname.obj
 0002:00002250       ??_C@_0CD@CGAJBKEJ@?$GAvector?5copy?5constructor?5iterat@ 10022250     libvcruntime:undname.obj
 0002:00002274       ??_C@_0CJ@GJELGAMM@?$GAvector?5vbase?5copy?5constructor?5@ 10022274     libvcruntime:undname.obj
 0002:000022a0       ??_C@_0CL@FGIJHLCE@?$GAmanaged?5vector?5copy?5constructo@ 100222a0     libvcruntime:undname.obj
 0002:000022cc       ??_C@_0BM@PMGGMLDN@?$GAlocal?5static?5thread?5guard?8@ 100222cc     libvcruntime:undname.obj
 0002:000022e8       ??_C@_0N@BDNMDMOL@operator?5?$CC?$CC?5@ 100222e8     libvcruntime:undname.obj
 0002:000022f8       ??_C@_0BC@GGEBGALA@operator?5co_await@ 100222f8     libvcruntime:undname.obj
 0002:0000230c       ??_C@_0M@GAAIMMOH@operator?$DM?$DN?$DO@ 1002230c     libvcruntime:undname.obj
 0002:00002318       ??_C@_0BC@DAFEJGAK@?5Type?5Descriptor?8@ 10022318     libvcruntime:undname.obj
 0002:0000232c       ??_C@_0BM@LDKODKLH@?5Base?5Class?5Descriptor?5at?5?$CI@ 1002232c     libvcruntime:undname.obj
 0002:00002348       ??_C@_0BD@LGICGFMM@?5Base?5Class?5Array?8@ 10022348     libvcruntime:undname.obj
 0002:0000235c       ??_C@_0BN@MECKDCOJ@?5Class?5Hierarchy?5Descriptor?8@ 1002235c     libvcruntime:undname.obj
 0002:0000237c       ??_C@_0BK@CFCOFLF@?5Complete?5Object?5Locator?8@ 1002237c     libvcruntime:undname.obj
 0002:00002398       ??_C@_0BG@JNJLAMPM@?$GAanonymous?5namespace?8@ 10022398     libvcruntime:undname.obj
 0002:000023bc       ??_C@_1DM@KHCHBNEB@?$AAa?$AAp?$AAi?$AA?9?$AAm?$AAs?$AA?9?$AAw?$AAi?$AAn?$AA?9?$AAc?$AAo?$AAr?$AAe@ 100223bc     libvcruntime:winapi_downlevel.obj
 0002:000023f8       ??_C@_1DK@LPPGFMPP@?$AAa?$AAp?$AAi?$AA?9?$AAm?$AAs?$AA?9?$AAw?$AAi?$AAn?$AA?9?$AAc?$AAo?$AAr?$AAe@ 100223f8     libvcruntime:winapi_downlevel.obj
 0002:00002434       ??_C@_1BC@GDMECMAK@?$AAk?$AAe?$AAr?$AAn?$AAe?$AAl?$AA3?$AA2@ 10022434     libvcruntime:winapi_downlevel.obj
 0002:00002448       ??_C@_1BA@PFFKHIOG@?$AAa?$AAp?$AAi?$AA?9?$AAm?$AAs?$AA?9@ 10022448     libvcruntime:winapi_downlevel.obj
 0002:00002460       ??_C@_08KNHFBNJ@FlsAlloc@  10022460     libvcruntime:winapi_downlevel.obj
 0002:00002474       ??_C@_07PEJMOBNF@FlsFree@  10022474     libvcruntime:winapi_downlevel.obj
 0002:00002484       ??_C@_0M@GDNOONDI@FlsGetValue@ 10022484     libvcruntime:winapi_downlevel.obj
 0002:00002498       ??_C@_0M@JCPCPOEF@FlsSetValue@ 10022498     libvcruntime:winapi_downlevel.obj
 0002:000024ac       ??_C@_0BM@HCFOFFN@InitializeCriticalSectionEx@ 100224ac     libvcruntime:winapi_downlevel.obj
 0002:00002630       ?format_validation_lookup_table_spectre@__crt_stdio_output@@3V?$spectre_mitigated_lookup_table@Ustate_transition_pair@__crt_stdio_output@@$0IA@@1@B 10022630     libucrt:output.obj
 0002:00002a30       ??_C@_1O@CEDCILHN@?$AA?$CI?$AAn?$AAu?$AAl?$AAl?$AA?$CJ@ 10022a30     libucrt:output.obj
 0002:00002a40       ??_C@_06OJHGLDPL@?$CInull?$CJ@ 10022a40     libucrt:output.obj
 0002:00002a48       ___acrt_exception_action_table 10022a48     libucrt:exception_filter.obj
 0002:00002ad8       ___acrt_signal_action_table_count 10022ad8     libucrt:exception_filter.obj
 0002:00002adc       ___acrt_signal_action_first_fpe_index 10022adc     libucrt:exception_filter.obj
 0002:00002ae0       ___acrt_signal_action_fpe_count 10022ae0     libucrt:exception_filter.obj
 0002:00002ae4       ??_C@_1BI@BGOHAHKC@?$AAm?$AAs?$AAc?$AAo?$AAr?$AAe?$AAe?$AA?4?$AAd?$AAl?$AAl@ 10022ae4     libucrt:exit.obj
 0002:00002afc       ??_C@_0P@MIGLKIOC@CorExitProcess@ 10022afc     libucrt:exit.obj
 0002:00002be0       ??_C@_1EA@JGEFHKEI@?$AAa?$AAp?$AAi?$AA?9?$AAm?$AAs?$AA?9?$AAw?$AAi?$AAn?$AA?9?$AAc?$AAo?$AAr?$AAe@ 10022be0     libucrt:winapi_thunks.obj
 0002:00002c20       ??_C@_1DI@IJCEHOCB@?$AAa?$AAp?$AAi?$AA?9?$AAm?$AAs?$AA?9?$AAw?$AAi?$AAn?$AA?9?$AAc?$AAo?$AAr?$AAe@ 10022c20     libucrt:winapi_thunks.obj
 0002:00002c58       ??_C@_1EI@MPIAOHOC@?$AAa?$AAp?$AAi?$AA?9?$AAm?$AAs?$AA?9?$AAw?$AAi?$AAn?$AA?9?$AAc?$AAo?$AAr?$AAe@ 10022c58     libucrt:winapi_thunks.obj
 0002:00002ca0       ??_C@_1FK@FPHCKFIE@?$AAa?$AAp?$AAi?$AA?9?$AAm?$AAs?$AA?9?$AAw?$AAi?$AAn?$AA?9?$AAc?$AAo?$AAr?$AAe@ 10022ca0     libucrt:winapi_thunks.obj
 0002:00002d00       ??_C@_1EM@DILCGIIO@?$AAa?$AAp?$AAi?$AA?9?$AAm?$AAs?$AA?9?$AAw?$AAi?$AAn?$AA?9?$AAc?$AAo?$AAr?$AAe@ 10022d00     libucrt:winapi_thunks.obj
 0002:00002d4c       ??_C@_1DM@LNCGDDPN@?$AAa?$AAp?$AAi?$AA?9?$AAm?$AAs?$AA?9?$AAw?$AAi?$AAn?$AA?9?$AAc?$AAo?$AAr?$AAe@ 10022d4c     libucrt:winapi_thunks.obj
 0002:00002d88       ??_C@_1DO@FPAPJEMD@?$AAa?$AAp?$AAi?$AA?9?$AAm?$AAs?$AA?9?$AAw?$AAi?$AAn?$AA?9?$AAc?$AAo?$AAr?$AAe@ 10022d88     libucrt:winapi_thunks.obj
 0002:00002dc8       ??_C@_1DK@NDHNAHIO@?$AAa?$AAp?$AAi?$AA?9?$AAm?$AAs?$AA?9?$AAw?$AAi?$AAn?$AA?9?$AAc?$AAo?$AAr?$AAe@ 10022dc8     libucrt:winapi_thunks.obj
 0002:00002e04       ??_C@_1DM@KGHDGBCM@?$AAa?$AAp?$AAi?$AA?9?$AAm?$AAs?$AA?9?$AAw?$AAi?$AAn?$AA?9?$AAc?$AAo?$AAr?$AAe@ 10022e04     libucrt:winapi_thunks.obj
 0002:00002e40       ??_C@_1EO@IJIOEFOH@?$AAa?$AAp?$AAi?$AA?9?$AAm?$AAs?$AA?9?$AAw?$AAi?$AAn?$AA?9?$AAr?$AAt?$AAc?$AAo@ 10022e40     libucrt:winapi_thunks.obj
 0002:00002e90       ??_C@_1FG@HHGEKANL@?$AAa?$AAp?$AAi?$AA?9?$AAm?$AAs?$AA?9?$AAw?$AAi?$AAn?$AA?9?$AAs?$AAe?$AAc?$AAu@ 10022e90     libucrt:winapi_thunks.obj
 0002:00002ee8       ??_C@_1EG@DBIOJECG@?$AAe?$AAx?$AAt?$AA?9?$AAm?$AAs?$AA?9?$AAw?$AAi?$AAn?$AA?9?$AAn?$AAt?$AAu?$AAs@ 10022ee8     libucrt:winapi_thunks.obj
 0002:00002f30       ??_C@_1EO@FIHMJCLF@?$AAe?$AAx?$AAt?$AA?9?$AAm?$AAs?$AA?9?$AAw?$AAi?$AAn?$AA?9?$AAn?$AAt?$AAu?$AAs@ 10022f30     libucrt:winapi_thunks.obj
 0002:00002f80       ??_C@_1BC@DNHGCMLG@?$AAa?$AAd?$AAv?$AAa?$AAp?$AAi?$AA3?$AA2@ 10022f80     libucrt:winapi_thunks.obj
 0002:00002f94       ??_C@_1M@OAIMIKLP@?$AAn?$AAt?$AAd?$AAl?$AAl@ 10022f94     libucrt:winapi_thunks.obj
 0002:00002fa0       ??_C@_1EG@DPGNFKGC@?$AAa?$AAp?$AAi?$AA?9?$AAm?$AAs?$AA?9?$AAw?$AAi?$AAn?$AA?9?$AAa?$AAp?$AAp?$AAm@ 10022fa0     libucrt:winapi_thunks.obj
 0002:00002fe8       ??_C@_1O@BCCLBEOE@?$AAu?$AAs?$AAe?$AAr?$AA3?$AA2@ 10022fe8     libucrt:winapi_thunks.obj
 0002:00002ff8       ??_C@_1BA@IAIFMGEF@?$AAe?$AAx?$AAt?$AA?9?$AAm?$AAs?$AA?9@ 10022ff8     libucrt:winapi_thunks.obj
 0002:0000300c       ??_C@_0BA@FHFNEAED@AreFileApisANSI@ 1002300c     libucrt:winapi_thunks.obj
 0002:0000304c       ??_C@_0O@KKBNKAPF@LCMapStringEx@ 1002304c     libucrt:winapi_thunks.obj
 0002:00003064       ??_C@_0BB@HBDEELFH@LocaleNameToLCID@ 10023064     libucrt:winapi_thunks.obj
 0002:0000307c       ??_C@_0CF@OJOFEIGO@AppPolicyGetProcessTerminationM@ 1002307c     libucrt:winapi_thunks.obj
 0002:000030ac       ??_C@_0BI@BKLFFAPO@SetThreadStackGuarantee@ 100230ac     libucrt:winapi_thunks.obj
 0002:00003108       ??_C@_03OEIAHPBN@INF@      10023108     libucrt:cvt.obj
 0002:0000310c       ??_C@_03OJHLLCGB@inf@      1002310c     libucrt:cvt.obj
 0002:00003110       ??_C@_03LKNCIKJB@NAN@      10023110     libucrt:cvt.obj
 0002:00003114       ??_C@_03LHCJEHON@nan@      10023114     libucrt:cvt.obj
 0002:00003118       ??_C@_09OFJJIMPC@NAN?$CISNAN?$CJ@ 10023118     libucrt:cvt.obj
 0002:00003124       ??_C@_09IPFBKMDL@nan?$CIsnan?$CJ@ 10023124     libucrt:cvt.obj
 0002:00003130       ??_C@_08IKHNHAJ@NAN?$CIIND?$CJ@ 10023130     libucrt:cvt.obj
 0002:0000313c       ??_C@_08OFCDMILK@nan?$CIind?$CJ@ 1002313c     libucrt:cvt.obj
 0002:00003148       ??_C@_05KLBDPFGC@e?$CL000@ 10023148     libucrt:cvt.obj
 0002:00003150       ___lc_time_c               10023150     libucrt:nlsdata.obj
 0002:000032b4       ??_C@_03KOEHGMDN@Sun@      100232b4     libucrt:nlsdata.obj
 0002:000032b8       ??_C@_03PDAGKDH@Mon@       100232b8     libucrt:nlsdata.obj
 0002:000032bc       ??_C@_03NAGEINEP@Tue@      100232bc     libucrt:nlsdata.obj
 0002:000032c0       ??_C@_03MHOMLAJA@Wed@      100232c0     libucrt:nlsdata.obj
 0002:000032c4       ??_C@_03IOFIKPDN@Thu@      100232c4     libucrt:nlsdata.obj
 0002:000032c8       ??_C@_03IDIOELNC@Fri@      100232c8     libucrt:nlsdata.obj
 0002:000032cc       ??_C@_03FEFJNEK@Sat@       100232cc     libucrt:nlsdata.obj
 0002:000032d0       ??_C@_06OOPIFAJ@Sunday@    100232d0     libucrt:nlsdata.obj
 0002:000032d8       ??_C@_06JLEDEDGH@Monday@   100232d8     libucrt:nlsdata.obj
 0002:000032e0       ??_C@_07BAAGCFCM@Tuesday@  100232e0     libucrt:nlsdata.obj
 0002:000032e8       ??_C@_09DLIGFAKA@Wednesday@ 100232e8     libucrt:nlsdata.obj
 0002:000032f4       ??_C@_08HACCIKIA@Thursday@ 100232f4     libucrt:nlsdata.obj
 0002:00003300       ??_C@_06JECMNKMI@Friday@   10023300     libucrt:nlsdata.obj
 0002:00003308       ??_C@_08INBOOONO@Saturday@ 10023308     libucrt:nlsdata.obj
 0002:00003314       ??_C@_03JIHJHPIE@Jan@      10023314     libucrt:nlsdata.obj
 0002:00003318       ??_C@_03HJBDCHOM@Feb@      10023318     libucrt:nlsdata.obj
 0002:0000331c       ??_C@_03ODNJBKGA@Mar@      1002331c     libucrt:nlsdata.obj
 0002:00003320       ??_C@_03LEOLGMJP@Apr@      10023320     libucrt:nlsdata.obj
 0002:00003324       ??_C@_03CNMDKL@May@        10023324     libucrt:nlsdata.obj
 0002:00003328       ??_C@_03IDFGHECI@Jun@      10023328     libucrt:nlsdata.obj
 0002:0000332c       ??_C@_03LBGABGKK@Jul@      1002332c     libucrt:nlsdata.obj
 0002:00003330       ??_C@_03IFJFEIGA@Aug@      10023330     libucrt:nlsdata.obj
 0002:00003334       ??_C@_03GGCAPAJC@Sep@      10023334     libucrt:nlsdata.obj
 0002:00003338       ??_C@_03BMAOKBAD@Oct@      10023338     libucrt:nlsdata.obj
 0002:0000333c       ??_C@_03JPJOFNIA@Nov@      1002333c     libucrt:nlsdata.obj
 0002:00003340       ??_C@_03MKABNOCG@Dec@      10023340     libucrt:nlsdata.obj
 0002:00003344       ??_C@_07CGJPFGJA@January@  10023344     libucrt:nlsdata.obj
 0002:0000334c       ??_C@_08GNJGEPFN@February@ 1002334c     libucrt:nlsdata.obj
 0002:00003358       ??_C@_05HPCKOFNC@March@    10023358     libucrt:nlsdata.obj
 0002:00003360       ??_C@_05DMJDNLEJ@April@    10023360     libucrt:nlsdata.obj
 0002:00003368       ??_C@_04CNLMGBGM@June@     10023368     libucrt:nlsdata.obj
 0002:00003370       ??_C@_04MIEPOIFP@July@     10023370     libucrt:nlsdata.obj
 0002:00003378       ??_C@_06LBBHFDDG@August@   10023378     libucrt:nlsdata.obj
 0002:00003380       ??_C@_09BHHEALKD@September@ 10023380     libucrt:nlsdata.obj
 0002:0000338c       ??_C@_07JJNFCEND@October@  1002338c     libucrt:nlsdata.obj
 0002:00003394       ??_C@_08HCHEGEOA@November@ 10023394     libucrt:nlsdata.obj
 0002:000033a0       ??_C@_08EDHMEBNP@December@ 100233a0     libucrt:nlsdata.obj
 0002:000033ac       ??_C@_02DEDBPAFC@AM@       100233ac     libucrt:nlsdata.obj
 0002:000033b0       ??_C@_02CJNFDJBF@PM@       100233b0     libucrt:nlsdata.obj
 0002:000033b4       ??_C@_08BPBNCDIB@MM?1dd?1yy@ 100233b4     libucrt:nlsdata.obj
 0002:000033c0       ??_C@_0BE@CKGJFCPC@dddd?0?5MMMM?5dd?0?5yyyy@ 100233c0     libucrt:nlsdata.obj
 0002:000033d4       ??_C@_08JCCMCCIL@HH?3mm?3ss@ 100233d4     libucrt:nlsdata.obj
 0002:000033e0       ??_C@_17MBGCMIPB@?$AAS?$AAu?$AAn@ 100233e0     libucrt:nlsdata.obj
 0002:000033e8       ??_C@_17KBOMKBF@?$AAM?$AAo?$AAn@ 100233e8     libucrt:nlsdata.obj
 0002:000033f0       ??_C@_17BMKGEGOJ@?$AAT?$AAu?$AAe@ 100233f0     libucrt:nlsdata.obj
 0002:000033f8       ??_C@_17CJEDCEPE@?$AAW?$AAe?$AAd@ 100233f8     libucrt:nlsdata.obj
 0002:00003400       ??_C@_17PDPHAADD@?$AAT?$AAh?$AAu@ 10023400     libucrt:nlsdata.obj
 0002:00003408       ??_C@_17HFOLPPLP@?$AAF?$AAr?$AAi@ 10023408     libucrt:nlsdata.obj
 0002:00003410       ??_C@_17GGIBDPIH@?$AAS?$AAa?$AAt@ 10023410     libucrt:nlsdata.obj
 0002:00003418       ??_C@_1O@IHNHDHPB@?$AAS?$AAu?$AAn?$AAd?$AAa?$AAy@ 10023418     libucrt:nlsdata.obj
 0002:00003428       ??_C@_1O@MMNBFLIA@?$AAM?$AAo?$AAn?$AAd?$AAa?$AAy@ 10023428     libucrt:nlsdata.obj
 0002:00003438       ??_C@_1BA@ENFBFFEK@?$AAT?$AAu?$AAe?$AAs?$AAd?$AAa?$AAy@ 10023438     libucrt:nlsdata.obj
 0002:00003448       ??_C@_1BE@EBOGMDOH@?$AAW?$AAe?$AAd?$AAn?$AAe?$AAs?$AAd?$AAa?$AAy@ 10023448     libucrt:nlsdata.obj
 0002:0000345c       ??_C@_1BC@HHMNLIHE@?$AAT?$AAh?$AAu?$AAr?$AAs?$AAd?$AAa?$AAy@ 1002345c     libucrt:nlsdata.obj
 0002:00003470       ??_C@_1O@PDICJHAG@?$AAF?$AAr?$AAi?$AAd?$AAa?$AAy@ 10023470     libucrt:nlsdata.obj
 0002:00003480       ??_C@_1BC@ENMNNPAJ@?$AAS?$AAa?$AAt?$AAu?$AAr?$AAd?$AAa?$AAy@ 10023480     libucrt:nlsdata.obj
 0002:00003494       ??_C@_17DKNBKCHM@?$AAJ?$AAa?$AAn@ 10023494     libucrt:nlsdata.obj
 0002:0000349c       ??_C@_17LMDJEKJN@?$AAF?$AAe?$AAb@ 1002349c     libucrt:nlsdata.obj
 0002:000034a4       ??_C@_17CKNLEDEC@?$AAM?$AAa?$AAr@ 100234a4     libucrt:nlsdata.obj
 0002:000034ac       ??_C@_17LFPOIHDD@?$AAA?$AAp?$AAr@ 100234ac     libucrt:nlsdata.obj
 0002:000034b4       ??_C@_17PNNKMEED@?$AAM?$AAa?$AAy@ 100234b4     libucrt:nlsdata.obj
 0002:000034bc       ??_C@_17KCJGOCPB@?$AAJ?$AAu?$AAn@ 100234bc     libucrt:nlsdata.obj
 0002:000034c4       ??_C@_17IJPCKHK@?$AAJ?$AAu?$AAl@ 100234c4     libucrt:nlsdata.obj
 0002:000034cc       ??_C@_17ICPELBCN@?$AAA?$AAu?$AAg@ 100234cc     libucrt:nlsdata.obj
 0002:000034d4       ??_C@_17HCHCOKMG@?$AAS?$AAe?$AAp@ 100234d4     libucrt:nlsdata.obj
 0002:000034dc       ??_C@_17FNLKOI@?$AAO?$AAc?$AAt@ 100234dc     libucrt:nlsdata.obj
 0002:000034e4       ??_C@_17BBDMLCIG@?$AAN?$AAo?$AAv@ 100234e4     libucrt:nlsdata.obj
 0002:000034ec       ??_C@_17EGKACKIF@?$AAD?$AAe?$AAc@ 100234ec     libucrt:nlsdata.obj
 0002:000034f4       ??_C@_1BA@EFMEIEBA@?$AAJ?$AAa?$AAn?$AAu?$AAa?$AAr?$AAy@ 100234f4     libucrt:nlsdata.obj
 0002:00003504       ??_C@_1BC@JGDDFFAM@?$AAF?$AAe?$AAb?$AAr?$AAu?$AAa?$AAr?$AAy@ 10023504     libucrt:nlsdata.obj
 0002:00003518       ??_C@_1M@IKEENEDF@?$AAM?$AAa?$AAr?$AAc?$AAh@ 10023518     libucrt:nlsdata.obj
 0002:00003524       ??_C@_1M@GJNLMHFD@?$AAA?$AAp?$AAr?$AAi?$AAl@ 10023524     libucrt:nlsdata.obj
 0002:00003530       ??_C@_19EPFLPGAP@?$AAJ?$AAu?$AAn?$AAe@ 10023530     libucrt:nlsdata.obj
 0002:0000353c       ??_C@_19BIFMLPCD@?$AAJ?$AAu?$AAl?$AAy@ 1002353c     libucrt:nlsdata.obj
 0002:00003548       ??_C@_1O@PAHLKOAC@?$AAA?$AAu?$AAg?$AAu?$AAs?$AAt@ 10023548     libucrt:nlsdata.obj
 0002:00003558       ??_C@_1BE@DKAAMBJL@?$AAS?$AAe?$AAp?$AAt?$AAe?$AAm?$AAb?$AAe?$AAr@ 10023558     libucrt:nlsdata.obj
 0002:0000356c       ??_C@_1BA@EPANDLNG@?$AAO?$AAc?$AAt?$AAo?$AAb?$AAe?$AAr@ 1002356c     libucrt:nlsdata.obj
 0002:0000357c       ??_C@_1BC@BGLIFPF@?$AAN?$AAo?$AAv?$AAe?$AAm?$AAb?$AAe?$AAr@ 1002357c     libucrt:nlsdata.obj
 0002:00003590       ??_C@_1BC@FEMKIFH@?$AAD?$AAe?$AAc?$AAe?$AAm?$AAb?$AAe?$AAr@ 10023590     libucrt:nlsdata.obj
 0002:000035a4       ??_C@_15ODEHAHHF@?$AAA?$AAM@ 100235a4     libucrt:nlsdata.obj
 0002:000035ac       ??_C@_15CLMNNGEL@?$AAP?$AAM@ 100235ac     libucrt:nlsdata.obj
 0002:000035b4       ??_C@_1BC@IEBCMHCM@?$AAM?$AAM?$AA?1?$AAd?$AAd?$AA?1?$AAy?$AAy@ 100235b4     libucrt:nlsdata.obj
 0002:000035c8       ??_C@_1CI@KNAKOEBC@?$AAd?$AAd?$AAd?$AAd?$AA?0?$AA?5?$AAM?$AAM?$AAM?$AAM?$AA?5?$AAd?$AAd?$AA?0?$AA?5@ 100235c8     libucrt:nlsdata.obj
 0002:000035f0       ??_C@_1BC@GDGBMEMK@?$AAH?$AAH?$AA?3?$AAm?$AAm?$AA?3?$AAs?$AAs@ 100235f0     libucrt:nlsdata.obj
 0002:00003604       ??_C@_1M@BMHNFIME@?$AAe?$AAn?$AA?9?$AAU?$AAS@ 10023604     libucrt:nlsdata.obj
 0002:00003620       ??_C@_1M@HPNHIDJI@?$AAj?$AAa?$AA?9?$AAJ?$AAP@ 10023620     libucrt:mbctype.obj
 0002:0000362c       ??_C@_1M@BIBDDEMK@?$AAz?$AAh?$AA?9?$AAC?$AAN@ 1002362c     libucrt:mbctype.obj
 0002:00003638       ??_C@_1M@JLOOOEGK@?$AAk?$AAo?$AA?9?$AAK?$AAR@ 10023638     libucrt:mbctype.obj
 0002:00003644       ??_C@_1M@CLNBBOPM@?$AAz?$AAh?$AA?9?$AAT?$AAW@ 10023644     libucrt:mbctype.obj
 0002:00003650       ___newctype                10023650     libucrt:ctype.obj
 0002:00003950       ___newclmap                10023950     libucrt:ctype.obj
 0002:00003ad0       ___newcumap                10023ad0     libucrt:ctype.obj
 0002:00003c50       __wctype                   10023c50     libucrt:ctype.obj
 0002:00004578       ??_C@_15EMKDOKLE@?$AAa?$AAr@ 10024578     libucrt:lcidtoname_downlevel.obj
 0002:00004580       ??_C@_15KNPADPLH@?$AAb?$AAg@ 10024580     libucrt:lcidtoname_downlevel.obj
 0002:00004588       ??_C@_15EDMHLDMO@?$AAc?$AAa@ 10024588     libucrt:lcidtoname_downlevel.obj
 0002:00004590       ??_C@_1O@BPEAJADD@?$AAz?$AAh?$AA?9?$AAC?$AAH?$AAS@ 10024590     libucrt:lcidtoname_downlevel.obj
 0002:000045a0       ??_C@_15LJNHCMNK@?$AAc?$AAs@ 100245a0     libucrt:lcidtoname_downlevel.obj
 0002:000045a8       ??_C@_15FOMCIDHG@?$AAd?$AAa@ 100245a8     libucrt:lcidtoname_downlevel.obj
 0002:000045b0       ??_C@_15NBKABECB@?$AAd?$AAe@ 100245b0     libucrt:lcidtoname_downlevel.obj
 0002:000045b8       ??_C@_15GHPEIIAO@?$AAe?$AAl@ 100245b8     libucrt:lcidtoname_downlevel.obj
 0002:000045c0       ??_C@_15MNPNEAIF@?$AAe?$AAn@ 100245c0     libucrt:lcidtoname_downlevel.obj
 0002:000045c8       ??_C@_15GPIOMPMH@?$AAe?$AAs@ 100245c8     libucrt:lcidtoname_downlevel.obj
 0002:000045d0       ??_C@_15NGLOAKJC@?$AAf?$AAi@ 100245d0     libucrt:lcidtoname_downlevel.obj
 0002:000045d8       ??_C@_15FBKGNKAM@?$AAf?$AAr@ 100245d8     libucrt:lcidtoname_downlevel.obj
 0002:000045e0       ??_C@_15KGGCNEFK@?$AAh?$AAe@ 100245e0     libucrt:lcidtoname_downlevel.obj
 0002:000045e8       ??_C@_15PGHLIDMF@?$AAh?$AAu@ 100245e8     libucrt:lcidtoname_downlevel.obj
 0002:000045f0       ??_C@_15BIEMAPLM@?$AAi?$AAs@ 100245f0     libucrt:lcidtoname_downlevel.obj
 0002:000045f8       ??_C@_15IFJLDHAF@?$AAi?$AAt@ 100245f8     libucrt:lcidtoname_downlevel.obj
 0002:00004600       ??_C@_15GEMIOCAG@?$AAj?$AAa@ 10024600     libucrt:lcidtoname_downlevel.obj
 0002:00004608       ??_C@_15EPELEGJA@?$AAk?$AAo@ 10024608     libucrt:lcidtoname_downlevel.obj
 0002:00004610       ??_C@_15NDDHIMN@?$AAn?$AAl@ 10024610     libucrt:lcidtoname_downlevel.obj
 0002:00004618       ??_C@_15BPIGNHCD@?$AAn?$AAo@ 10024618     libucrt:lcidtoname_downlevel.obj
 0002:00004620       ??_C@_15DEOPBLCG@?$AAp?$AAl@ 10024620     libucrt:lcidtoname_downlevel.obj
 0002:00004628       ??_C@_15KBECGEFG@?$AAp?$AAt@ 10024628     libucrt:lcidtoname_downlevel.obj
 0002:00004630       ??_C@_15GLJCBFMD@?$AAr?$AAo@ 10024630     libucrt:lcidtoname_downlevel.obj
 0002:00004638       ??_C@_15FEDGKCDI@?$AAr?$AAu@ 10024638     libucrt:lcidtoname_downlevel.obj
 0002:00004640       ??_C@_15GLKMLLHM@?$AAh?$AAr@ 10024640     libucrt:lcidtoname_downlevel.obj
 0002:00004648       ??_C@_15CPKMFBDB@?$AAs?$AAk@ 10024648     libucrt:lcidtoname_downlevel.obj
 0002:00004650       ??_C@_15BAAIOGMK@?$AAs?$AAq@ 10024650     libucrt:lcidtoname_downlevel.obj
 0002:00004658       ??_C@_15INNPNOHD@?$AAs?$AAv@ 10024658     libucrt:lcidtoname_downlevel.obj
 0002:00004660       ??_C@_15CABMMOGH@?$AAt?$AAh@ 10024660     libucrt:lcidtoname_downlevel.obj
 0002:00004668       ??_C@_15BPLIHJJM@?$AAt?$AAr@ 10024668     libucrt:lcidtoname_downlevel.obj
 0002:00004670       ??_C@_15NEOEKKDJ@?$AAu?$AAr@ 10024670     libucrt:lcidtoname_downlevel.obj
 0002:00004678       ??_C@_15NFICGAJK@?$AAi?$AAd@ 10024678     libucrt:lcidtoname_downlevel.obj
 0002:00004680       ??_C@_15PJPFLCCM@?$AAu?$AAk@ 10024680     libucrt:lcidtoname_downlevel.obj
 0002:00004688       ??_C@_15HPJPHDM@?$AAb?$AAe@ 10024688     libucrt:lcidtoname_downlevel.obj
 0002:00004690       ??_C@_15LCHLGJII@?$AAs?$AAl@ 10024690     libucrt:lcidtoname_downlevel.obj
 0002:00004698       ??_C@_15PCFJPHHO@?$AAe?$AAt@ 10024698     libucrt:lcidtoname_downlevel.obj
 0002:000046a0       ??_C@_15HPFPGODN@?$AAl?$AAv@ 100246a0     libucrt:lcidtoname_downlevel.obj
 0002:000046a8       ??_C@_15NFFGKGLG@?$AAl?$AAt@ 100246a8     libucrt:lcidtoname_downlevel.obj
 0002:000046b0       ??_C@_15BDAKCCHN@?$AAf?$AAa@ 100246b0     libucrt:lcidtoname_downlevel.obj
 0002:000046b8       ??_C@_15NFGIAIAJ@?$AAv?$AAi@ 100246b8     libucrt:lcidtoname_downlevel.obj
 0002:000046c0       ??_C@_15LMKNDMHN@?$AAh?$AAy@ 100246c0     libucrt:lcidtoname_downlevel.obj
 0002:000046c8       ??_C@_15IJBHMCFL@?$AAa?$AAz@ 100246c8     libucrt:lcidtoname_downlevel.obj
 0002:000046d0       ??_C@_15EKOFJABL@?$AAe?$AAu@ 100246d0     libucrt:lcidtoname_downlevel.obj
 0002:000046d8       ??_C@_15BGHADCNK@?$AAm?$AAk@ 100246d8     libucrt:lcidtoname_downlevel.obj
 0002:000046e0       ??_C@_15JDNICKHM@?$AAa?$AAf@ 100246e0     libucrt:lcidtoname_downlevel.obj
 0002:000046e8       ??_C@_15KPJEDBKD@?$AAk?$AAa@ 100246e8     libucrt:lcidtoname_downlevel.obj
 0002:000046f0       ??_C@_15PDNFFFEO@?$AAf?$AAo@ 100246f0     libucrt:lcidtoname_downlevel.obj
 0002:000046f8       ??_C@_15OMLEGLOC@?$AAh?$AAi@ 100246f8     libucrt:lcidtoname_downlevel.obj
 0002:00004700       ??_C@_15IDNNENKK@?$AAm?$AAs@ 10024700     libucrt:lcidtoname_downlevel.obj
 0002:00004708       ??_C@_15MACJNBMH@?$AAk?$AAk@ 10024708     libucrt:lcidtoname_downlevel.obj
 0002:00004710       ??_C@_15DKDJEOND@?$AAk?$AAy@ 10024710     libucrt:lcidtoname_downlevel.obj
 0002:00004718       ??_C@_15DFGDLJBG@?$AAs?$AAw@ 10024718     libucrt:lcidtoname_downlevel.obj
 0002:00004720       ??_C@_15BBFAICNG@?$AAu?$AAz@ 10024720     libucrt:lcidtoname_downlevel.obj
 0002:00004728       ??_C@_15DKNDCGEA@?$AAt?$AAt@ 10024728     libucrt:lcidtoname_downlevel.obj
 0002:00004730       ??_C@_15MGIFMDPL@?$AAp?$AAa@ 10024730     libucrt:lcidtoname_downlevel.obj
 0002:00004738       ??_C@_15HCNDBBA@?$AAg?$AAu@ 10024738     libucrt:lcidtoname_downlevel.obj
 0002:00004740       ??_C@_15FNBEIBON@?$AAt?$AAa@ 10024740     libucrt:lcidtoname_downlevel.obj
 0002:00004748       ??_C@_15NCHGBGLK@?$AAt?$AAe@ 10024748     libucrt:lcidtoname_downlevel.obj
 0002:00004750       ??_C@_15PHPHCBPF@?$AAk?$AAn@ 10024750     libucrt:lcidtoname_downlevel.obj
 0002:00004758       ??_C@_15DLGBCKMP@?$AAm?$AAr@ 10024758     libucrt:lcidtoname_downlevel.obj
 0002:00004760       ??_C@_15EABBLBFF@?$AAs?$AAa@ 10024760     libucrt:lcidtoname_downlevel.obj
 0002:00004768       ??_C@_15CBKOMCOI@?$AAm?$AAn@ 10024768     libucrt:lcidtoname_downlevel.obj
 0002:00004770       ??_C@_15CKDMCJAF@?$AAg?$AAl@ 10024770     libucrt:lcidtoname_downlevel.obj
 0002:00004778       ??_C@_17CNJFBPG@?$AAk?$AAo?$AAk@ 10024778     libucrt:lcidtoname_downlevel.obj
 0002:00004780       ??_C@_17FFBJICPL@?$AAs?$AAy?$AAr@ 10024780     libucrt:lcidtoname_downlevel.obj
 0002:00004788       ??_C@_17KPNDCPAF@?$AAd?$AAi?$AAv@ 10024788     libucrt:lcidtoname_downlevel.obj
 0002:00004790       ??_C@_1M@OKAHONE@?$AAa?$AAr?$AA?9?$AAS?$AAA@ 10024790     libucrt:lcidtoname_downlevel.obj
 0002:0000479c       ??_C@_1M@FFFIGIGK@?$AAb?$AAg?$AA?9?$AAB?$AAG@ 1002479c     libucrt:lcidtoname_downlevel.obj
 0002:000047a8       ??_C@_1M@BJNKEDC@?$AAc?$AAa?$AA?9?$AAE?$AAS@ 100247a8     libucrt:lcidtoname_downlevel.obj
 0002:000047b4       ??_C@_1M@IJJHFJHA@?$AAc?$AAs?$AA?9?$AAC?$AAZ@ 100247b4     libucrt:lcidtoname_downlevel.obj
 0002:000047c0       ??_C@_1M@CLPEOBGI@?$AAd?$AAa?$AA?9?$AAD?$AAK@ 100247c0     libucrt:lcidtoname_downlevel.obj
 0002:000047cc       ??_C@_1M@MCMADGCB@?$AAd?$AAe?$AA?9?$AAD?$AAE@ 100247cc     libucrt:lcidtoname_downlevel.obj
 0002:000047d8       ??_C@_1M@OOCKEMAM@?$AAe?$AAl?$AA?9?$AAG?$AAR@ 100247d8     libucrt:lcidtoname_downlevel.obj
 0002:000047e4       ??_C@_1M@DDNJFGID@?$AAf?$AAi?$AA?9?$AAF?$AAI@ 100247e4     libucrt:lcidtoname_downlevel.obj
 0002:000047f0       ??_C@_1M@GLIPPMAC@?$AAf?$AAr?$AA?9?$AAF?$AAR@ 100247f0     libucrt:lcidtoname_downlevel.obj
 0002:000047fc       ??_C@_1M@GFMCHPE@?$AAh?$AAe?$AA?9?$AAI?$AAL@ 100247fc     libucrt:lcidtoname_downlevel.obj
 0002:00004808       ??_C@_1M@MHLPGNKM@?$AAh?$AAu?$AA?9?$AAH?$AAU@ 10024808     libucrt:lcidtoname_downlevel.obj
 0002:00004814       ??_C@_1M@LPDDNNPN@?$AAi?$AAs?$AA?9?$AAI?$AAS@ 10024814     libucrt:lcidtoname_downlevel.obj
 0002:00004820       ??_C@_1M@MADIPODN@?$AAi?$AAt?$AA?9?$AAI?$AAT@ 10024820     libucrt:lcidtoname_downlevel.obj
 0002:0000482c       ??_C@_1M@IHBJJGG@?$AAn?$AAl?$AA?9?$AAN?$AAL@ 1002482c     libucrt:lcidtoname_downlevel.obj
 0002:00004838       ??_C@_1M@EANAGDL@?$AAn?$AAb?$AA?9?$AAN?$AAO@ 10024838     libucrt:lcidtoname_downlevel.obj
 0002:00004844       ??_C@_1M@NEIEMEGP@?$AAp?$AAl?$AA?9?$AAP?$AAL@ 10024844     libucrt:lcidtoname_downlevel.obj
 0002:00004850       ??_C@_1M@BOCFIGEP@?$AAp?$AAt?$AA?9?$AAB?$AAR@ 10024850     libucrt:lcidtoname_downlevel.obj
 0002:0000485c       ??_C@_1M@IMPFOPBG@?$AAr?$AAo?$AA?9?$AAR?$AAO@ 1002485c     libucrt:lcidtoname_downlevel.obj
 0002:00004868       ??_C@_1M@IDNNEJMM@?$AAr?$AAu?$AA?9?$AAR?$AAU@ 10024868     libucrt:lcidtoname_downlevel.obj
 0002:00004874       ??_C@_1M@LILEEOGM@?$AAh?$AAr?$AA?9?$AAH?$AAR@ 10024874     libucrt:lcidtoname_downlevel.obj
 0002:00004880       ??_C@_1M@FKIFEHPB@?$AAs?$AAk?$AA?9?$AAS?$AAK@ 10024880     libucrt:lcidtoname_downlevel.obj
 0002:0000488c       ??_C@_1M@LJMAMNPJ@?$AAs?$AAq?$AA?9?$AAA?$AAL@ 1002488c     libucrt:lcidtoname_downlevel.obj
 0002:00004898       ??_C@_1M@GIAKDKJK@?$AAs?$AAv?$AA?9?$AAS?$AAE@ 10024898     libucrt:lcidtoname_downlevel.obj
 0002:000048a4       ??_C@_1M@MKJKIKCL@?$AAt?$AAh?$AA?9?$AAT?$AAH@ 100248a4     libucrt:lcidtoname_downlevel.obj
 0002:000048b0       ??_C@_1M@MFLCCMPB@?$AAt?$AAr?$AA?9?$AAT?$AAR@ 100248b0     libucrt:lcidtoname_downlevel.obj
 0002:000048bc       ??_C@_1M@OIJHDKJN@?$AAu?$AAr?$AA?9?$AAP?$AAK@ 100248bc     libucrt:lcidtoname_downlevel.obj
 0002:000048c8       ??_C@_1M@LHIPCIEK@?$AAi?$AAd?$AA?9?$AAI?$AAD@ 100248c8     libucrt:lcidtoname_downlevel.obj
 0002:000048d4       ??_C@_1M@MFMOBGI@?$AAu?$AAk?$AA?9?$AAU?$AAA@ 100248d4     libucrt:lcidtoname_downlevel.obj
 0002:000048e0       ??_C@_1M@OBGLJIPL@?$AAb?$AAe?$AA?9?$AAB?$AAY@ 100248e0     libucrt:lcidtoname_downlevel.obj
 0002:000048ec       ??_C@_1M@BCFAJEAD@?$AAs?$AAl?$AA?9?$AAS?$AAI@ 100248ec     libucrt:lcidtoname_downlevel.obj
 0002:000048f8       ??_C@_1M@FKFFEDDN@?$AAe?$AAt?$AA?9?$AAE?$AAE@ 100248f8     libucrt:lcidtoname_downlevel.obj
 0002:00004904       ??_C@_1M@KGKKAACI@?$AAl?$AAv?$AA?9?$AAL?$AAV@ 10024904     libucrt:lcidtoname_downlevel.obj
 0002:00004910       ??_C@_1M@IFGBIJO@?$AAl?$AAt?$AA?9?$AAL?$AAT@ 10024910     libucrt:lcidtoname_downlevel.obj
 0002:0000491c       ??_C@_1M@FGEAHEDM@?$AAf?$AAa?$AA?9?$AAI?$AAR@ 1002491c     libucrt:lcidtoname_downlevel.obj
 0002:00004928       ??_C@_1M@KBMAIBFN@?$AAv?$AAi?$AA?9?$AAV?$AAN@ 10024928     libucrt:lcidtoname_downlevel.obj
 0002:00004934       ??_C@_1M@GPCBKDJK@?$AAh?$AAy?$AA?9?$AAA?$AAM@ 10024934     libucrt:lcidtoname_downlevel.obj
 0002:00004940       ??_C@_1BG@BECMDDJB@?$AAa?$AAz?$AA?9?$AAA?$AAZ?$AA?9?$AAL?$AAa?$AAt?$AAn@ 10024940     libucrt:lcidtoname_downlevel.obj
 0002:00004958       ??_C@_1M@MAOFCAEA@?$AAe?$AAu?$AA?9?$AAE?$AAS@ 10024958     libucrt:lcidtoname_downlevel.obj
 0002:00004964       ??_C@_1M@IGHABKPI@?$AAm?$AAk?$AA?9?$AAM?$AAK@ 10024964     libucrt:lcidtoname_downlevel.obj
 0002:00004970       ??_C@_1M@IAIGNEJG@?$AAt?$AAn?$AA?9?$AAZ?$AAA@ 10024970     libucrt:lcidtoname_downlevel.obj
 0002:0000497c       ??_C@_1M@IIJCOJFA@?$AAx?$AAh?$AA?9?$AAZ?$AAA@ 1002497c     libucrt:lcidtoname_downlevel.obj
 0002:00004988       ??_C@_1M@LGPJHNJH@?$AAz?$AAu?$AA?9?$AAZ?$AAA@ 10024988     libucrt:lcidtoname_downlevel.obj
 0002:00004994       ??_C@_1M@HOKAOIO@?$AAa?$AAf?$AA?9?$AAZ?$AAA@ 10024994     libucrt:lcidtoname_downlevel.obj
 0002:000049a0       ??_C@_1M@DPCLHLIE@?$AAk?$AAa?$AA?9?$AAG?$AAE@ 100249a0     libucrt:lcidtoname_downlevel.obj
 0002:000049ac       ??_C@_1M@BLKMHJBI@?$AAf?$AAo?$AA?9?$AAF?$AAO@ 100249ac     libucrt:lcidtoname_downlevel.obj
 0002:000049b8       ??_C@_1M@LGGJAPPB@?$AAh?$AAi?$AA?9?$AAI?$AAN@ 100249b8     libucrt:lcidtoname_downlevel.obj
 0002:000049c4       ??_C@_1M@FIKPIHFE@?$AAm?$AAt?$AA?9?$AAM?$AAT@ 100249c4     libucrt:lcidtoname_downlevel.obj
 0002:000049d0       ??_C@_1M@HEGGPBFA@?$AAs?$AAe?$AA?9?$AAN?$AAO@ 100249d0     libucrt:lcidtoname_downlevel.obj
 0002:000049dc       ??_C@_1M@EIBJEEPA@?$AAm?$AAs?$AA?9?$AAM?$AAY@ 100249dc     libucrt:lcidtoname_downlevel.obj
 0002:000049e8       ??_C@_1M@FHLBGMPP@?$AAk?$AAk?$AA?9?$AAK?$AAZ@ 100249e8     libucrt:lcidtoname_downlevel.obj
 0002:000049f4       ??_C@_1M@NGJJLCGI@?$AAk?$AAy?$AA?9?$AAK?$AAG@ 100249f4     libucrt:lcidtoname_downlevel.obj
 0002:00004a00       ??_C@_1M@GIENNBFC@?$AAs?$AAw?$AA?9?$AAK?$AAE@ 10024a00     libucrt:lcidtoname_downlevel.obj
 0002:00004a0c       ??_C@_1BG@NDGMJIMJ@?$AAu?$AAz?$AA?9?$AAU?$AAZ?$AA?9?$AAL?$AAa?$AAt?$AAn@ 10024a0c     libucrt:lcidtoname_downlevel.obj
 0002:00004a24       ??_C@_1M@IDCCIHBC@?$AAt?$AAt?$AA?9?$AAR?$AAU@ 10024a24     libucrt:lcidtoname_downlevel.obj
 0002:00004a30       ??_C@_1M@LOICPMOJ@?$AAb?$AAn?$AA?9?$AAI?$AAN@ 10024a30     libucrt:lcidtoname_downlevel.obj
 0002:00004a3c       ??_C@_1M@KPKKNEAH@?$AAp?$AAa?$AA?9?$AAI?$AAN@ 10024a3c     libucrt:lcidtoname_downlevel.obj
 0002:00004a48       ??_C@_1M@PJGPPBOG@?$AAg?$AAu?$AA?9?$AAI?$AAN@ 10024a48     libucrt:lcidtoname_downlevel.obj
 0002:00004a54       ??_C@_1M@KMKMOPHI@?$AAt?$AAa?$AA?9?$AAI?$AAN@ 10024a54     libucrt:lcidtoname_downlevel.obj
 0002:00004a60       ??_C@_1M@KFEHEPAC@?$AAt?$AAe?$AA?9?$AAI?$AAN@ 10024a60     libucrt:lcidtoname_downlevel.obj
 0002:00004a6c       ??_C@_1M@CDCLMGHI@?$AAk?$AAn?$AA?9?$AAI?$AAN@ 10024a6c     libucrt:lcidtoname_downlevel.obj
 0002:00004a78       ??_C@_1M@MIODLDKF@?$AAm?$AAl?$AA?9?$AAI?$AAN@ 10024a78     libucrt:lcidtoname_downlevel.obj
 0002:00004a84       ??_C@_1M@PBIEACPO@?$AAm?$AAr?$AA?9?$AAI?$AAN@ 10024a84     libucrt:lcidtoname_downlevel.obj
 0002:00004a90       ??_C@_1M@NIDEAGPH@?$AAs?$AAa?$AA?9?$AAI?$AAN@ 10024a90     libucrt:lcidtoname_downlevel.obj
 0002:00004a9c       ??_C@_1M@FHIHCBIO@?$AAm?$AAn?$AA?9?$AAM?$AAN@ 10024a9c     libucrt:lcidtoname_downlevel.obj
 0002:00004aa8       ??_C@_1M@JAIJPENP@?$AAc?$AAy?$AA?9?$AAG?$AAB@ 10024aa8     libucrt:lcidtoname_downlevel.obj
 0002:00004ab4       ??_C@_1M@PHGFBEPN@?$AAg?$AAl?$AA?9?$AAE?$AAS@ 10024ab4     libucrt:lcidtoname_downlevel.obj
 0002:00004ac0       ??_C@_1O@KPIPDNCP@?$AAk?$AAo?$AAk?$AA?9?$AAI?$AAN@ 10024ac0     libucrt:lcidtoname_downlevel.obj
 0002:00004ad0       ??_C@_1O@KNHJLDJA@?$AAs?$AAy?$AAr?$AA?9?$AAS?$AAY@ 10024ad0     libucrt:lcidtoname_downlevel.obj
 0002:00004ae0       ??_C@_1O@MKEKBLAH@?$AAd?$AAi?$AAv?$AA?9?$AAM?$AAV@ 10024ae0     libucrt:lcidtoname_downlevel.obj
 0002:00004af0       ??_C@_1O@OHDCKDDF@?$AAq?$AAu?$AAz?$AA?9?$AAB?$AAO@ 10024af0     libucrt:lcidtoname_downlevel.obj
 0002:00004b00       ??_C@_1M@LEPJNLFD@?$AAn?$AAs?$AA?9?$AAZ?$AAA@ 10024b00     libucrt:lcidtoname_downlevel.obj
 0002:00004b0c       ??_C@_1M@OMLEIIJB@?$AAm?$AAi?$AA?9?$AAN?$AAZ@ 10024b0c     libucrt:lcidtoname_downlevel.obj
 0002:00004b18       ??_C@_1M@PMPEAILG@?$AAa?$AAr?$AA?9?$AAI?$AAQ@ 10024b18     libucrt:lcidtoname_downlevel.obj
 0002:00004b24       ??_C@_1M@CNKPNOEE@?$AAd?$AAe?$AA?9?$AAC?$AAH@ 10024b24     libucrt:lcidtoname_downlevel.obj
 0002:00004b30       ??_C@_1M@LKMGMLKO@?$AAe?$AAn?$AA?9?$AAG?$AAB@ 10024b30     libucrt:lcidtoname_downlevel.obj
 0002:00004b3c       ??_C@_1M@PGKJFFGL@?$AAe?$AAs?$AA?9?$AAM?$AAX@ 10024b3c     libucrt:lcidtoname_downlevel.obj
 0002:00004b48       ??_C@_1M@DNNANBDC@?$AAf?$AAr?$AA?9?$AAB?$AAE@ 10024b48     libucrt:lcidtoname_downlevel.obj
 0002:00004b54       ??_C@_1M@HLGMDFHM@?$AAi?$AAt?$AA?9?$AAC?$AAH@ 10024b54     libucrt:lcidtoname_downlevel.obj
 0002:00004b60       ??_C@_1M@CLLBGJH@?$AAn?$AAl?$AA?9?$AAB?$AAE@ 10024b60     libucrt:lcidtoname_downlevel.obj
 0002:00004b6c       ??_C@_1M@BODBOGLF@?$AAn?$AAn?$AA?9?$AAN?$AAO@ 10024b6c     libucrt:lcidtoname_downlevel.obj
 0002:00004b78       ??_C@_1M@HFFAHKAD@?$AAp?$AAt?$AA?9?$AAP?$AAT@ 10024b78     libucrt:lcidtoname_downlevel.obj
 0002:00004b84       ??_C@_1BG@LNOAKHIE@?$AAs?$AAr?$AA?9?$AAS?$AAP?$AA?9?$AAL?$AAa?$AAt?$AAn@ 10024b84     libucrt:lcidtoname_downlevel.obj
 0002:00004b9c       ??_C@_1M@HBMHBGAK@?$AAs?$AAv?$AA?9?$AAF?$AAI@ 10024b9c     libucrt:lcidtoname_downlevel.obj
 0002:00004ba8       ??_C@_1BG@DGCJGJBE@?$AAa?$AAz?$AA?9?$AAA?$AAZ?$AA?9?$AAC?$AAy?$AAr?$AAl@ 10024ba8     libucrt:lcidtoname_downlevel.obj
 0002:00004bc0       ??_C@_1M@KEJDAAHB@?$AAs?$AAe?$AA?9?$AAS?$AAE@ 10024bc0     libucrt:lcidtoname_downlevel.obj
 0002:00004bcc       ??_C@_1M@HEIBJJAD@?$AAm?$AAs?$AA?9?$AAB?$AAN@ 10024bcc     libucrt:lcidtoname_downlevel.obj
 0002:00004bd8       ??_C@_1BG@PBGJMCEM@?$AAu?$AAz?$AA?9?$AAU?$AAZ?$AA?9?$AAC?$AAy?$AAr?$AAl@ 10024bd8     libucrt:lcidtoname_downlevel.obj
 0002:00004bf0       ??_C@_1O@LAOBCMDF@?$AAq?$AAu?$AAz?$AA?9?$AAE?$AAC@ 10024bf0     libucrt:lcidtoname_downlevel.obj
 0002:00004c00       ??_C@_1M@POEEMAIO@?$AAa?$AAr?$AA?9?$AAE?$AAG@ 10024c00     libucrt:lcidtoname_downlevel.obj
 0002:00004c0c       ??_C@_1M@EFAKDEDL@?$AAz?$AAh?$AA?9?$AAH?$AAK@ 10024c0c     libucrt:lcidtoname_downlevel.obj
 0002:00004c18       ??_C@_1M@HKKIJHGI@?$AAd?$AAe?$AA?9?$AAA?$AAT@ 10024c18     libucrt:lcidtoname_downlevel.obj
 0002:00004c24       ??_C@_1M@KBFBEHJF@?$AAe?$AAn?$AA?9?$AAA?$AAU@ 10024c24     libucrt:lcidtoname_downlevel.obj
 0002:00004c30       ??_C@_1M@MNPLFAAH@?$AAe?$AAs?$AA?9?$AAE?$AAS@ 10024c30     libucrt:lcidtoname_downlevel.obj
 0002:00004c3c       ??_C@_1M@HJOOJFMA@?$AAf?$AAr?$AA?9?$AAC?$AAA@ 10024c3c     libucrt:lcidtoname_downlevel.obj
 0002:00004c48       ??_C@_1BG@JPOFPNAB@?$AAs?$AAr?$AA?9?$AAS?$AAP?$AA?9?$AAC?$AAy?$AAr?$AAl@ 10024c48     libucrt:lcidtoname_downlevel.obj
 0002:00004c60       ??_C@_1M@LNFOCMOB@?$AAs?$AAe?$AA?9?$AAF?$AAI@ 10024c60     libucrt:lcidtoname_downlevel.obj
 0002:00004c6c       ??_C@_1O@MGJBOAMB@?$AAq?$AAu?$AAz?$AA?9?$AAP?$AAE@ 10024c6c     libucrt:lcidtoname_downlevel.obj
 0002:00004c7c       ??_C@_1M@GJINLBOK@?$AAa?$AAr?$AA?9?$AAL?$AAY@ 10024c7c     libucrt:lcidtoname_downlevel.obj
 0002:00004c88       ??_C@_1M@GGMNHJNL@?$AAz?$AAh?$AA?9?$AAS?$AAG@ 10024c88     libucrt:lcidtoname_downlevel.obj
 0002:00004c94       ??_C@_1M@HOIKODND@?$AAd?$AAe?$AA?9?$AAL?$AAU@ 10024c94     libucrt:lcidtoname_downlevel.obj
 0002:00004ca0       ??_C@_1M@DDOCCGFG@?$AAe?$AAn?$AA?9?$AAC?$AAA@ 10024ca0     libucrt:lcidtoname_downlevel.obj
 0002:00004cac       ??_C@_1M@BNOEMJLF@?$AAe?$AAs?$AA?9?$AAG?$AAT@ 10024cac     libucrt:lcidtoname_downlevel.obj
 0002:00004cb8       ??_C@_1M@EOGNKEK@?$AAf?$AAr?$AA?9?$AAC?$AAH@ 10024cb8     libucrt:lcidtoname_downlevel.obj
 0002:00004cc4       ??_C@_1M@FLIDJFHL@?$AAh?$AAr?$AA?9?$AAB?$AAA@ 10024cc4     libucrt:lcidtoname_downlevel.obj
 0002:00004cd0       ??_C@_1O@FMCELNAJ@?$AAs?$AAm?$AAj?$AA?9?$AAN?$AAO@ 10024cd0     libucrt:lcidtoname_downlevel.obj
 0002:00004ce0       ??_C@_1M@JHGLJMGJ@?$AAa?$AAr?$AA?9?$AAD?$AAZ@ 10024ce0     libucrt:lcidtoname_downlevel.obj
 0002:00004cec       ??_C@_1M@JKKFDCNP@?$AAz?$AAh?$AA?9?$AAM?$AAO@ 10024cec     libucrt:lcidtoname_downlevel.obj
 0002:00004cf8       ??_C@_1M@GEEFALPE@?$AAd?$AAe?$AA?9?$AAL?$AAI@ 10024cf8     libucrt:lcidtoname_downlevel.obj
 0002:00004d04       ??_C@_1M@IGEOFBG@?$AAe?$AAn?$AA?9?$AAN?$AAZ@ 10024d04     libucrt:lcidtoname_downlevel.obj
 0002:00004d10       ??_C@_1M@KDBONEHP@?$AAe?$AAs?$AA?9?$AAC?$AAR@ 10024d10     libucrt:lcidtoname_downlevel.obj
 0002:00004d1c       ??_C@_1M@FHMDOHNN@?$AAf?$AAr?$AA?9?$AAL?$AAU@ 10024d1c     libucrt:lcidtoname_downlevel.obj
 0002:00004d28       ??_C@_1BG@NFKKMAFG@?$AAb?$AAs?$AA?9?$AAB?$AAA?$AA?9?$AAL?$AAa?$AAt?$AAn@ 10024d28     libucrt:lcidtoname_downlevel.obj
 0002:00004d40       ??_C@_1O@IMNBEMCI@?$AAs?$AAm?$AAj?$AA?9?$AAS?$AAE@ 10024d40     libucrt:lcidtoname_downlevel.obj
 0002:00004d50       ??_C@_1M@DHHMBNDP@?$AAa?$AAr?$AA?9?$AAM?$AAA@ 10024d50     libucrt:lcidtoname_downlevel.obj
 0002:00004d5c       ??_C@_1M@BNBLJCGH@?$AAe?$AAn?$AA?9?$AAI?$AAE@ 10024d5c     libucrt:lcidtoname_downlevel.obj
 0002:00004d68       ??_C@_1M@GEPAFMDL@?$AAe?$AAs?$AA?9?$AAP?$AAA@ 10024d68     libucrt:lcidtoname_downlevel.obj
 0002:00004d74       ??_C@_1M@OJONDMDL@?$AAf?$AAr?$AA?9?$AAM?$AAC@ 10024d74     libucrt:lcidtoname_downlevel.obj
 0002:00004d80       ??_C@_1BG@OBCNFJB@?$AAs?$AAr?$AA?9?$AAB?$AAA?$AA?9?$AAL?$AAa?$AAt?$AAn@ 10024d80     libucrt:lcidtoname_downlevel.obj
 0002:00004d98       ??_C@_1O@KEMEEGPO@?$AAs?$AAm?$AAa?$AA?9?$AAN?$AAO@ 10024d98     libucrt:lcidtoname_downlevel.obj
 0002:00004da8       ??_C@_1M@ELMGFODK@?$AAa?$AAr?$AA?9?$AAT?$AAN@ 10024da8     libucrt:lcidtoname_downlevel.obj
 0002:00004db4       ??_C@_1M@BHDLHFAF@?$AAe?$AAn?$AA?9?$AAZ?$AAA@ 10024db4     libucrt:lcidtoname_downlevel.obj
 0002:00004dc0       ??_C@_1M@BMGIGLIF@?$AAe?$AAs?$AA?9?$AAD?$AAO@ 10024dc0     libucrt:lcidtoname_downlevel.obj
 0002:00004dcc       ??_C@_1BG@CMBHIPBE@?$AAs?$AAr?$AA?9?$AAB?$AAA?$AA?9?$AAC?$AAy?$AAr?$AAl@ 10024dcc     libucrt:lcidtoname_downlevel.obj
 0002:00004de4       ??_C@_1O@HEDBLHNP@?$AAs?$AAm?$AAa?$AA?9?$AAS?$AAE@ 10024de4     libucrt:lcidtoname_downlevel.obj
 0002:00004df4       ??_C@_1M@DAGCADIM@?$AAa?$AAr?$AA?9?$AAO?$AAM@ 10024df4     libucrt:lcidtoname_downlevel.obj
 0002:00004e00       ??_C@_1M@FODLMICG@?$AAe?$AAn?$AA?9?$AAJ?$AAM@ 10024e00     libucrt:lcidtoname_downlevel.obj
 0002:00004e0c       ??_C@_1M@DNMLCIHB@?$AAe?$AAs?$AA?9?$AAV?$AAE@ 10024e0c     libucrt:lcidtoname_downlevel.obj
 0002:00004e18       ??_C@_1O@EOKHMKJK@?$AAs?$AAm?$AAs?$AA?9?$AAF?$AAI@ 10024e18     libucrt:lcidtoname_downlevel.obj
 0002:00004e28       ??_C@_1M@CAFJMKOF@?$AAa?$AAr?$AA?9?$AAY?$AAE@ 10024e28     libucrt:lcidtoname_downlevel.obj
 0002:00004e34       ??_C@_1M@CBFHIJLI@?$AAe?$AAn?$AA?9?$AAC?$AAB@ 10024e34     libucrt:lcidtoname_downlevel.obj
 0002:00004e40       ??_C@_1M@BGNFLDN@?$AAe?$AAs?$AA?9?$AAC?$AAO@ 10024e40     libucrt:lcidtoname_downlevel.obj
 0002:00004e4c       ??_C@_1O@JMPHMAMC@?$AAs?$AAm?$AAn?$AA?9?$AAF?$AAI@ 10024e4c     libucrt:lcidtoname_downlevel.obj
 0002:00004e5c       ??_C@_1M@JLANABKE@?$AAa?$AAr?$AA?9?$AAS?$AAY@ 10024e5c     libucrt:lcidtoname_downlevel.obj
 0002:00004e68       ??_C@_1M@HPKGCFGN@?$AAe?$AAn?$AA?9?$AAB?$AAZ@ 10024e68     libucrt:lcidtoname_downlevel.obj
 0002:00004e74       ??_C@_1M@OLJCMLGM@?$AAe?$AAs?$AA?9?$AAP?$AAE@ 10024e74     libucrt:lcidtoname_downlevel.obj
 0002:00004e80       ??_C@_1M@MKKGFKLE@?$AAa?$AAr?$AA?9?$AAJ?$AAO@ 10024e80     libucrt:lcidtoname_downlevel.obj
 0002:00004e8c       ??_C@_1M@EKPGLDNI@?$AAe?$AAn?$AA?9?$AAT?$AAT@ 10024e8c     libucrt:lcidtoname_downlevel.obj
 0002:00004e98       ??_C@_1M@OONGHFHE@?$AAe?$AAs?$AA?9?$AAA?$AAR@ 10024e98     libucrt:lcidtoname_downlevel.obj
 0002:00004ea4       ??_C@_1M@OOJFGBHE@?$AAa?$AAr?$AA?9?$AAL?$AAB@ 10024ea4     libucrt:lcidtoname_downlevel.obj
 0002:00004eb0       ??_C@_1M@GCEJHNEG@?$AAe?$AAn?$AA?9?$AAZ?$AAW@ 10024eb0     libucrt:lcidtoname_downlevel.obj
 0002:00004ebc       ??_C@_1M@JNOCAHJI@?$AAe?$AAs?$AA?9?$AAE?$AAC@ 10024ebc     libucrt:lcidtoname_downlevel.obj
 0002:00004ec8       ??_C@_1M@JEFHPGGB@?$AAa?$AAr?$AA?9?$AAK?$AAW@ 10024ec8     libucrt:lcidtoname_downlevel.obj
 0002:00004ed4       ??_C@_1M@MLKIBJOJ@?$AAe?$AAn?$AA?9?$AAP?$AAH@ 10024ed4     libucrt:lcidtoname_downlevel.obj
 0002:00004ee0       ??_C@_1M@BDNIPEND@?$AAe?$AAs?$AA?9?$AAC?$AAL@ 10024ee0     libucrt:lcidtoname_downlevel.obj
 0002:00004eec       ??_C@_1M@MPNMEKBD@?$AAa?$AAr?$AA?9?$AAA?$AAE@ 10024eec     libucrt:lcidtoname_downlevel.obj
 0002:00004ef8       ??_C@_1M@KBJALCPI@?$AAe?$AAs?$AA?9?$AAU?$AAY@ 10024ef8     libucrt:lcidtoname_downlevel.obj
 0002:00004f04       ??_C@_1M@LLCCOAGA@?$AAa?$AAr?$AA?9?$AAB?$AAH@ 10024f04     libucrt:lcidtoname_downlevel.obj
 0002:00004f10       ??_C@_1M@PBFNCDEL@?$AAe?$AAs?$AA?9?$AAP?$AAY@ 10024f10     libucrt:lcidtoname_downlevel.obj
 0002:00004f1c       ??_C@_1M@EDGINPNP@?$AAa?$AAr?$AA?9?$AAQ?$AAA@ 10024f1c     libucrt:lcidtoname_downlevel.obj
 0002:00004f28       ??_C@_1M@MKDBIIJI@?$AAe?$AAs?$AA?9?$AAB?$AAO@ 10024f28     libucrt:lcidtoname_downlevel.obj
 0002:00004f34       ??_C@_1M@CPKKEBLD@?$AAe?$AAs?$AA?9?$AAS?$AAV@ 10024f34     libucrt:lcidtoname_downlevel.obj
 0002:00004f40       ??_C@_1M@NDBGMMJL@?$AAe?$AAs?$AA?9?$AAH?$AAN@ 10024f40     libucrt:lcidtoname_downlevel.obj
 0002:00004f4c       ??_C@_1M@JIJIBHDP@?$AAe?$AAs?$AA?9?$AAN?$AAI@ 10024f4c     libucrt:lcidtoname_downlevel.obj
 0002:00004f58       ??_C@_1M@CGFMKEEK@?$AAe?$AAs?$AA?9?$AAP?$AAR@ 10024f58     libucrt:lcidtoname_downlevel.obj
 0002:00004f64       ??_C@_1O@ICJHKIIK@?$AAz?$AAh?$AA?9?$AAC?$AAH?$AAT@ 10024f64     libucrt:lcidtoname_downlevel.obj
 0002:00004f74       ??_C@_15CLNEJCE@?$AAs?$AAr@ 10024f74     libucrt:lcidtoname_downlevel.obj
 0002:000056a0       ??_C@_1M@KAHEKEIG@?$AAa?$AAf?$AA?9?$AAz?$AAa@ 100256a0     libucrt:lcidtoname_downlevel.obj
 0002:000056ac       ??_C@_1M@GIECOABL@?$AAa?$AAr?$AA?9?$AAa?$AAe@ 100256ac     libucrt:lcidtoname_downlevel.obj
 0002:000056b8       ??_C@_1M@BMLMEKGI@?$AAa?$AAr?$AA?9?$AAb?$AAh@ 100256b8     libucrt:lcidtoname_downlevel.obj
 0002:000056c4       ??_C@_1M@DAPFDGGB@?$AAa?$AAr?$AA?9?$AAd?$AAz@ 100256c4     libucrt:lcidtoname_downlevel.obj
 0002:000056d0       ??_C@_1M@FJNKGKIG@?$AAa?$AAr?$AA?9?$AAe?$AAg@ 100256d0     libucrt:lcidtoname_downlevel.obj
 0002:000056dc       ??_C@_1M@FLGKKCLO@?$AAa?$AAr?$AA?9?$AAi?$AAq@ 100256dc     libucrt:lcidtoname_downlevel.obj
 0002:000056e8       ??_C@_1M@GNDIPALM@?$AAa?$AAr?$AA?9?$AAj?$AAo@ 100256e8     libucrt:lcidtoname_downlevel.obj
 0002:000056f4       ??_C@_1M@DDMJFMGJ@?$AAa?$AAr?$AA?9?$AAk?$AAw@ 100256f4     libucrt:lcidtoname_downlevel.obj
 0002:00005700       ??_C@_1M@EJALMLHM@?$AAa?$AAr?$AA?9?$AAl?$AAb@ 10025700     libucrt:lcidtoname_downlevel.obj
 0002:0000570c       ??_C@_1M@MOBDBLOC@?$AAa?$AAr?$AA?9?$AAl?$AAy@ 1002570c     libucrt:lcidtoname_downlevel.obj
 0002:00005718       ??_C@_1M@JAOCLHDH@?$AAa?$AAr?$AA?9?$AAm?$AAa@ 10025718     libucrt:lcidtoname_downlevel.obj
 0002:00005724       ??_C@_1M@JHPMKJIE@?$AAa?$AAr?$AA?9?$AAo?$AAm@ 10025724     libucrt:lcidtoname_downlevel.obj
 0002:00005730       ??_C@_1M@OEPGHFNH@?$AAa?$AAr?$AA?9?$AAq?$AAa@ 10025730     libucrt:lcidtoname_downlevel.obj
 0002:0000573c       ??_C@_1M@KJDONENM@?$AAa?$AAr?$AA?9?$AAs?$AAa@ 1002573c     libucrt:lcidtoname_downlevel.obj
 0002:00005748       ??_C@_1M@DMJDKLKM@?$AAa?$AAr?$AA?9?$AAs?$AAy@ 10025748     libucrt:lcidtoname_downlevel.obj
 0002:00005754       ??_C@_1M@OMFIPEDC@?$AAa?$AAr?$AA?9?$AAt?$AAn@ 10025754     libucrt:lcidtoname_downlevel.obj
 0002:00005760       ??_C@_1M@IHMHGAON@?$AAa?$AAr?$AA?9?$AAy?$AAe@ 10025760     libucrt:lcidtoname_downlevel.obj
 0002:0000576c       ??_C@_1BG@KDCPGJGB@?$AAa?$AAz?$AA?9?$AAa?$AAz?$AA?9?$AAc?$AAy?$AAr?$AAl@ 1002576c     libucrt:lcidtoname_downlevel.obj
 0002:00005784       ??_C@_1BG@IBCKDDOE@?$AAa?$AAz?$AA?9?$AAa?$AAz?$AA?9?$AAl?$AAa?$AAt?$AAn@ 10025784     libucrt:lcidtoname_downlevel.obj
 0002:0000579c       ??_C@_1M@EGPFDCPD@?$AAb?$AAe?$AA?9?$AAb?$AAy@ 1002579c     libucrt:lcidtoname_downlevel.obj
 0002:000057a8       ??_C@_1M@PCMGMCGC@?$AAb?$AAg?$AA?9?$AAb?$AAg@ 100257a8     libucrt:lcidtoname_downlevel.obj
 0002:000057b4       ??_C@_1M@BJBMFGOB@?$AAb?$AAn?$AA?9?$AAi?$AAn@ 100257b4     libucrt:lcidtoname_downlevel.obj
 0002:000057c0       ??_C@_1BG@EAKMMACD@?$AAb?$AAs?$AA?9?$AAb?$AAa?$AA?9?$AAl?$AAa?$AAt?$AAn@ 100257c0     libucrt:lcidtoname_downlevel.obj
 0002:000057d8       ??_C@_1M@KGADAODK@?$AAc?$AAa?$AA?9?$AAe?$AAs@ 100257d8     libucrt:lcidtoname_downlevel.obj
 0002:000057e4       ??_C@_1M@COAJPDHI@?$AAc?$AAs?$AA?9?$AAc?$AAz@ 100257e4     libucrt:lcidtoname_downlevel.obj
 0002:000057f0       ??_C@_1M@DHBHFONH@?$AAc?$AAy?$AA?9?$AAg?$AAb@ 100257f0     libucrt:lcidtoname_downlevel.obj
 0002:000057fc       ??_C@_1M@IMGKELGA@?$AAd?$AAa?$AA?9?$AAd?$AAk@ 100257fc     libucrt:lcidtoname_downlevel.obj
 0002:00005808       ??_C@_1M@NNDGDNGA@?$AAd?$AAe?$AA?9?$AAa?$AAt@ 10025808     libucrt:lcidtoname_downlevel.obj
 0002:00005814       ??_C@_1M@IKDBHEEM@?$AAd?$AAe?$AA?9?$AAc?$AAh@ 10025814     libucrt:lcidtoname_downlevel.obj
 0002:00005820       ??_C@_1M@GFFOJMCJ@?$AAd?$AAe?$AA?9?$AAd?$AAe@ 10025820     libucrt:lcidtoname_downlevel.obj
 0002:0000582c       ??_C@_1M@MDNLKBPM@?$AAd?$AAe?$AA?9?$AAl?$AAi@ 1002582c     libucrt:lcidtoname_downlevel.obj
 0002:00005838       ??_C@_1M@NJBEEJNL@?$AAd?$AAe?$AA?9?$AAl?$AAu@ 10025838     libucrt:lcidtoname_downlevel.obj
 0002:00005844       ??_C@_1O@GNNELBAP@?$AAd?$AAi?$AAv?$AA?9?$AAm?$AAv@ 10025844     libucrt:lcidtoname_downlevel.obj
 0002:00005854       ??_C@_1M@EJLEOGAE@?$AAe?$AAl?$AA?9?$AAg?$AAr@ 10025854     libucrt:lcidtoname_downlevel.obj
 0002:00005860       ??_C@_1M@GMPONJN@?$AAe?$AAn?$AA?9?$AAa?$AAu@ 10025860     libucrt:lcidtoname_downlevel.obj
 0002:0000586c       ??_C@_1M@NIDIIPGF@?$AAe?$AAn?$AA?9?$AAb?$AAz@ 1002586c     libucrt:lcidtoname_downlevel.obj
 0002:00005878       ??_C@_1M@JEHMIMFO@?$AAe?$AAn?$AA?9?$AAc?$AAa@ 10025878     libucrt:lcidtoname_downlevel.obj
 0002:00005884       ??_C@_1M@IGMJCDLA@?$AAe?$AAn?$AA?9?$AAc?$AAb@ 10025884     libucrt:lcidtoname_downlevel.obj
 0002:00005890       ??_C@_1M@BNFIGBKG@?$AAe?$AAn?$AA?9?$AAg?$AAb@ 10025890     libucrt:lcidtoname_downlevel.obj
 0002:0000589c       ??_C@_1M@LKIFDIGP@?$AAe?$AAn?$AA?9?$AAi?$AAe@ 1002589c     libucrt:lcidtoname_downlevel.obj
 0002:000058a8       ??_C@_1M@PJKFGCCO@?$AAe?$AAn?$AA?9?$AAj?$AAm@ 100258a8     libucrt:lcidtoname_downlevel.obj
 0002:000058b4       ??_C@_1M@KPPKEPBO@?$AAe?$AAn?$AA?9?$AAn?$AAz@ 100258b4     libucrt:lcidtoname_downlevel.obj
 0002:000058c0       ??_C@_1M@GMDGLDOB@?$AAe?$AAn?$AA?9?$AAp?$AAh@ 100258c0     libucrt:lcidtoname_downlevel.obj
 0002:000058cc       ??_C@_1M@ONGIBJNA@?$AAe?$AAn?$AA?9?$AAt?$AAt@ 100258cc     libucrt:lcidtoname_downlevel.obj
 0002:000058d8       ??_C@_1M@LLODPCMM@?$AAe?$AAn?$AA?9?$AAu?$AAs@ 100258d8     libucrt:lcidtoname_downlevel.obj
 0002:000058e4       ??_C@_1M@LAKFNPAN@?$AAe?$AAn?$AA?9?$AAz?$AAa@ 100258e4     libucrt:lcidtoname_downlevel.obj
 0002:000058f0       ??_C@_1M@MFNHNHEO@?$AAe?$AAn?$AA?9?$AAz?$AAw@ 100258f0     libucrt:lcidtoname_downlevel.obj
 0002:000058fc       ??_C@_1M@EJEINPHM@?$AAe?$AAs?$AA?9?$AAa?$AAr@ 100258fc     libucrt:lcidtoname_downlevel.obj
 0002:00005908       ??_C@_1M@GNKPCCJA@?$AAe?$AAs?$AA?9?$AAb?$AAo@ 10025908     libucrt:lcidtoname_downlevel.obj
 0002:00005914       ??_C@_1M@LEEGFONL@?$AAe?$AAs?$AA?9?$AAc?$AAl@ 10025914     libucrt:lcidtoname_downlevel.obj
 0002:00005920       ??_C@_1M@KGPDPBDF@?$AAe?$AAs?$AA?9?$AAc?$AAo@ 10025920     libucrt:lcidtoname_downlevel.obj
 0002:0000592c       ??_C@_1M@EIAHOHH@?$AAe?$AAs?$AA?9?$AAc?$AAr@ 1002592c     libucrt:lcidtoname_downlevel.obj
 0002:00005938       ??_C@_1M@LLPGMBIN@?$AAe?$AAs?$AA?9?$AAd?$AAo@ 10025938     libucrt:lcidtoname_downlevel.obj
 0002:00005944       ??_C@_1M@DKHMKNJA@?$AAe?$AAs?$AA?9?$AAe?$AAc@ 10025944     libucrt:lcidtoname_downlevel.obj
 0002:00005950       ??_C@_1M@GKGFPKAP@?$AAe?$AAs?$AA?9?$AAe?$AAs@ 10025950     libucrt:lcidtoname_downlevel.obj
 0002:0000595c       ??_C@_1M@LKHKGDLN@?$AAe?$AAs?$AA?9?$AAg?$AAt@ 1002595c     libucrt:lcidtoname_downlevel.obj
 0002:00005968       ??_C@_1M@HEIIGGJD@?$AAe?$AAs?$AA?9?$AAh?$AAn@ 10025968     libucrt:lcidtoname_downlevel.obj
 0002:00005974       ??_C@_1M@FBDHPPGD@?$AAe?$AAs?$AA?9?$AAm?$AAx@ 10025974     libucrt:lcidtoname_downlevel.obj
 0002:00005980       ??_C@_1M@DPAGLNDH@?$AAe?$AAs?$AA?9?$AAn?$AAi@ 10025980     libucrt:lcidtoname_downlevel.obj
 0002:0000598c       ??_C@_1M@MDGOPGDD@?$AAe?$AAs?$AA?9?$AAp?$AAa@ 1002598c     libucrt:lcidtoname_downlevel.obj
 0002:00005998       ??_C@_1M@EMAMGBGE@?$AAe?$AAs?$AA?9?$AAp?$AAe@ 10025998     libucrt:lcidtoname_downlevel.obj
 0002:000059a4       ??_C@_1M@IBMCAOEC@?$AAe?$AAs?$AA?9?$AAp?$AAr@ 100259a4     libucrt:lcidtoname_downlevel.obj
 0002:000059b0       ??_C@_1M@FGMDIJED@?$AAe?$AAs?$AA?9?$AAp?$AAy@ 100259b0     libucrt:lcidtoname_downlevel.obj
 0002:000059bc       ??_C@_1M@IIDEOLLL@?$AAe?$AAs?$AA?9?$AAs?$AAv@ 100259bc     libucrt:lcidtoname_downlevel.obj
 0002:000059c8       ??_C@_1M@GAOBIPA@?$AAe?$AAs?$AA?9?$AAu?$AAy@ 100259c8     libucrt:lcidtoname_downlevel.obj
 0002:000059d4       ??_C@_1M@JKFFICHJ@?$AAe?$AAs?$AA?9?$AAv?$AAe@ 100259d4     libucrt:lcidtoname_downlevel.obj
 0002:000059e0       ??_C@_1M@PNMLOJDF@?$AAe?$AAt?$AA?9?$AAe?$AAe@ 100259e0     libucrt:lcidtoname_downlevel.obj
 0002:000059ec       ??_C@_1M@GHHLIKEI@?$AAe?$AAu?$AA?9?$AAe?$AAs@ 100259ec     libucrt:lcidtoname_downlevel.obj
 0002:000059f8       ??_C@_1M@PBNONODE@?$AAf?$AAa?$AA?9?$AAi?$AAr@ 100259f8     libucrt:lcidtoname_downlevel.obj
 0002:00005a04       ??_C@_1M@JEEHPMIL@?$AAf?$AAi?$AA?9?$AAf?$AAi@ 10025a04     libucrt:lcidtoname_downlevel.obj
 0002:00005a10       ??_C@_1M@LMDCNDBA@?$AAf?$AAo?$AA?9?$AAf?$AAo@ 10025a10     libucrt:lcidtoname_downlevel.obj
 0002:00005a1c       ??_C@_1M@JKEOHLDK@?$AAf?$AAr?$AA?9?$AAb?$AAe@ 10025a1c     libucrt:lcidtoname_downlevel.obj
 0002:00005a28       ??_C@_1M@NOHADPMI@?$AAf?$AAr?$AA?9?$AAc?$AAa@ 10025a28     libucrt:lcidtoname_downlevel.obj
 0002:00005a34       ??_C@_1M@KDHIHAEC@?$AAf?$AAr?$AA?9?$AAc?$AAh@ 10025a34     libucrt:lcidtoname_downlevel.obj
 0002:00005a40       ??_C@_1M@MMBBFGAK@?$AAf?$AAr?$AA?9?$AAf?$AAr@ 10025a40     libucrt:lcidtoname_downlevel.obj
 0002:00005a4c       ??_C@_1M@PAFNENNF@?$AAf?$AAr?$AA?9?$AAl?$AAu@ 10025a4c     libucrt:lcidtoname_downlevel.obj
 0002:00005a58       ??_C@_1M@EOHDJGDD@?$AAf?$AAr?$AA?9?$AAm?$AAc@ 10025a58     libucrt:lcidtoname_downlevel.obj
 0002:00005a64       ??_C@_1M@FAPLLOPF@?$AAg?$AAl?$AA?9?$AAe?$AAs@ 10025a64     libucrt:lcidtoname_downlevel.obj
 0002:00005a70       ??_C@_1M@FOPBFLOO@?$AAg?$AAu?$AA?9?$AAi?$AAn@ 10025a70     libucrt:lcidtoname_downlevel.obj
 0002:00005a7c       ??_C@_1M@KBMCINPM@?$AAh?$AAe?$AA?9?$AAi?$AAl@ 10025a7c     libucrt:lcidtoname_downlevel.obj
 0002:00005a88       ??_C@_1M@BBPHKFPJ@?$AAh?$AAi?$AA?9?$AAi?$AAn@ 10025a88     libucrt:lcidtoname_downlevel.obj
 0002:00005a94       ??_C@_1M@PMBNDPHD@?$AAh?$AAr?$AA?9?$AAb?$AAa@ 10025a94     libucrt:lcidtoname_downlevel.obj
 0002:00005aa0       ??_C@_1M@BPCKOEGE@?$AAh?$AAr?$AA?9?$AAh?$AAr@ 10025aa0     libucrt:lcidtoname_downlevel.obj
 0002:00005aac       ??_C@_1M@GACBMHKE@?$AAh?$AAu?$AA?9?$AAh?$AAu@ 10025aac     libucrt:lcidtoname_downlevel.obj
 0002:00005ab8       ??_C@_1M@MILPAJJC@?$AAh?$AAy?$AA?9?$AAa?$AAm@ 10025ab8     libucrt:lcidtoname_downlevel.obj
 0002:00005ac4       ??_C@_1M@BABBICEC@?$AAi?$AAd?$AA?9?$AAi?$AAd@ 10025ac4     libucrt:lcidtoname_downlevel.obj
 0002:00005ad0       ??_C@_1M@BIKNHHPF@?$AAi?$AAs?$AA?9?$AAi?$AAs@ 10025ad0     libucrt:lcidtoname_downlevel.obj
 0002:00005adc       ??_C@_1M@NMPCJPHE@?$AAi?$AAt?$AA?9?$AAc?$AAh@ 10025adc     libucrt:lcidtoname_downlevel.obj
 0002:00005ae8       ??_C@_1M@GHKGFEDF@?$AAi?$AAt?$AA?9?$AAi?$AAt@ 10025ae8     libucrt:lcidtoname_downlevel.obj
 0002:00005af4       ??_C@_1M@NIEJCJJA@?$AAj?$AAa?$AA?9?$AAj?$AAp@ 10025af4     libucrt:lcidtoname_downlevel.obj
 0002:00005b00       ??_C@_1M@JILFNBIM@?$AAk?$AAa?$AA?9?$AAg?$AAe@ 10025b00     libucrt:lcidtoname_downlevel.obj
 0002:00005b0c       ??_C@_1M@PACPMGPH@?$AAk?$AAk?$AA?9?$AAk?$AAz@ 10025b0c     libucrt:lcidtoname_downlevel.obj
 0002:00005b18       ??_C@_1M@IELFGMHA@?$AAk?$AAn?$AA?9?$AAi?$AAn@ 10025b18     libucrt:lcidtoname_downlevel.obj
 0002:00005b24       ??_C@_1O@IBBJHCH@?$AAk?$AAo?$AAk?$AA?9?$AAi?$AAn@ 10025b24     libucrt:lcidtoname_downlevel.obj
 0002:00005b34       ??_C@_1M@DMHAEOGC@?$AAk?$AAo?$AA?9?$AAk?$AAr@ 10025b34     libucrt:lcidtoname_downlevel.obj
 0002:00005b40       ??_C@_1M@HBAHBIGA@?$AAk?$AAy?$AA?9?$AAk?$AAg@ 10025b40     libucrt:lcidtoname_downlevel.obj
 0002:00005b4c       ??_C@_1M@KPMILCJG@?$AAl?$AAt?$AA?9?$AAl?$AAt@ 10025b4c     libucrt:lcidtoname_downlevel.obj
 0002:00005b58       ??_C@_1M@BDEKKCA@?$AAl?$AAv?$AA?9?$AAl?$AAv@ 10025b58     libucrt:lcidtoname_downlevel.obj
 0002:00005b64       ??_C@_1M@ELCKCCJJ@?$AAm?$AAi?$AA?9?$AAn?$AAz@ 10025b64     libucrt:lcidtoname_downlevel.obj
 0002:00005b70       ??_C@_1M@CBOOLAPA@?$AAm?$AAk?$AA?9?$AAm?$AAk@ 10025b70     libucrt:lcidtoname_downlevel.obj
 0002:00005b7c       ??_C@_1M@GPHNBJKN@?$AAm?$AAl?$AA?9?$AAi?$AAn@ 10025b7c     libucrt:lcidtoname_downlevel.obj
 0002:00005b88       ??_C@_1M@PABJILIG@?$AAm?$AAn?$AA?9?$AAm?$AAn@ 10025b88     libucrt:lcidtoname_downlevel.obj
 0002:00005b94       ??_C@_1M@FGBKKIPG@?$AAm?$AAr?$AA?9?$AAi?$AAn@ 10025b94     libucrt:lcidtoname_downlevel.obj
 0002:00005ba0       ??_C@_1M@NDBPDDAL@?$AAm?$AAs?$AA?9?$AAb?$AAn@ 10025ba0     libucrt:lcidtoname_downlevel.obj
 0002:00005bac       ??_C@_1M@OPIHOOPI@?$AAm?$AAs?$AA?9?$AAm?$AAy@ 10025bac     libucrt:lcidtoname_downlevel.obj
 0002:00005bb8       ??_C@_1M@PPDBCNFM@?$AAm?$AAt?$AA?9?$AAm?$AAt@ 10025bb8     libucrt:lcidtoname_downlevel.obj
 0002:00005bc4       ??_C@_1M@KDJDKMDD@?$AAn?$AAb?$AA?9?$AAn?$AAo@ 10025bc4     libucrt:lcidtoname_downlevel.obj
 0002:00005bd0       ??_C@_1M@KFCFLMJP@?$AAn?$AAl?$AA?9?$AAb?$AAe@ 10025bd0     libucrt:lcidtoname_downlevel.obj
 0002:00005bdc       ??_C@_1M@KPOPDDGO@?$AAn?$AAl?$AA?9?$AAn?$AAl@ 10025bdc     libucrt:lcidtoname_downlevel.obj
 0002:00005be8       ??_C@_1M@LJKPEMLN@?$AAn?$AAn?$AA?9?$AAn?$AAo@ 10025be8     libucrt:lcidtoname_downlevel.obj
 0002:00005bf4       ??_C@_1M@BDGHHBFL@?$AAn?$AAs?$AA?9?$AAz?$AAa@ 10025bf4     libucrt:lcidtoname_downlevel.obj
 0002:00005c00       ??_C@_1M@IDEHOAP@?$AAp?$AAa?$AA?9?$AAi?$AAn@ 10025c00     libucrt:lcidtoname_downlevel.obj
 0002:00005c0c       ??_C@_1M@HDBKGOGH@?$AAp?$AAl?$AA?9?$AAp?$AAl@ 10025c0c     libucrt:lcidtoname_downlevel.obj
 0002:00005c18       ??_C@_1M@LJLLCMEH@?$AAp?$AAt?$AA?9?$AAb?$AAr@ 10025c18     libucrt:lcidtoname_downlevel.obj
 0002:00005c24       ??_C@_1M@NCMONAAL@?$AAp?$AAt?$AA?9?$AAp?$AAt@ 10025c24     libucrt:lcidtoname_downlevel.obj
 0002:00005c30       ??_C@_1O@EAKMAJDN@?$AAq?$AAu?$AAz?$AA?9?$AAb?$AAo@ 10025c30     libucrt:lcidtoname_downlevel.obj
 0002:00005c40       ??_C@_1O@BHHPIGDN@?$AAq?$AAu?$AAz?$AA?9?$AAe?$AAc@ 10025c40     libucrt:lcidtoname_downlevel.obj
 0002:00005c50       ??_C@_1O@GBAPEKMJ@?$AAq?$AAu?$AAz?$AA?9?$AAp?$AAe@ 10025c50     libucrt:lcidtoname_downlevel.obj
 0002:00005c60       ??_C@_1M@CLGLEFBO@?$AAr?$AAo?$AA?9?$AAr?$AAo@ 10025c60     libucrt:lcidtoname_downlevel.obj
 0002:00005c6c       ??_C@_1M@CEEDODME@?$AAr?$AAu?$AA?9?$AAr?$AAu@ 10025c6c     libucrt:lcidtoname_downlevel.obj
 0002:00005c78       ??_C@_1M@HPKKKMPP@?$AAs?$AAa?$AA?9?$AAi?$AAn@ 10025c78     libucrt:lcidtoname_downlevel.obj
 0002:00005c84       ??_C@_1M@BKMAIGOJ@?$AAs?$AAe?$AA?9?$AAf?$AAi@ 10025c84     libucrt:lcidtoname_downlevel.obj
 0002:00005c90       ??_C@_1M@NDPIFLFI@?$AAs?$AAe?$AA?9?$AAn?$AAo@ 10025c90     libucrt:lcidtoname_downlevel.obj
 0002:00005c9c       ??_C@_1M@DANKKHJ@?$AAs?$AAe?$AA?9?$AAs?$AAe@ 10025c9c     libucrt:lcidtoname_downlevel.obj
 0002:00005ca8       ??_C@_1M@PNBLONPJ@?$AAs?$AAk?$AA?9?$AAs?$AAk@ 10025ca8     libucrt:lcidtoname_downlevel.obj
 0002:00005cb4       ??_C@_1M@LFMODOAL@?$AAs?$AAl?$AA?9?$AAs?$AAi@ 10025cb4     libucrt:lcidtoname_downlevel.obj
 0002:00005cc0       ??_C@_1O@DFKOMPG@?$AAs?$AAm?$AAa?$AA?9?$AAn?$AAo@ 10025cc0     libucrt:lcidtoname_downlevel.obj
 0002:00005cd0       ??_C@_1O@NDKPBNNH@?$AAs?$AAm?$AAa?$AA?9?$AAs?$AAe@ 10025cd0     libucrt:lcidtoname_downlevel.obj
 0002:00005ce0       ??_C@_1O@PLLKBHAB@?$AAs?$AAm?$AAj?$AA?9?$AAn?$AAo@ 10025ce0     libucrt:lcidtoname_downlevel.obj
 0002:00005cf0       ??_C@_1O@CLEPOGCA@?$AAs?$AAm?$AAj?$AA?9?$AAs?$AAe@ 10025cf0     libucrt:lcidtoname_downlevel.obj
 0002:00005d00       ??_C@_1O@DLGJGKMK@?$AAs?$AAm?$AAn?$AA?9?$AAf?$AAi@ 10025d00     libucrt:lcidtoname_downlevel.obj
 0002:00005d10       ??_C@_1O@OJDJGAJC@?$AAs?$AAm?$AAs?$AA?9?$AAf?$AAi@ 10025d10     libucrt:lcidtoname_downlevel.obj
 0002:00005d20       ??_C@_1M@BOFOGHPB@?$AAs?$AAq?$AA?9?$AAa?$AAl@ 10025d20     libucrt:lcidtoname_downlevel.obj
 0002:00005d2c       ??_C@_1BG@LJBBIPGB@?$AAs?$AAr?$AA?9?$AAb?$AAa?$AA?9?$AAc?$AAy?$AAr?$AAl@ 10025d2c     libucrt:lcidtoname_downlevel.obj
 0002:00005d44       ??_C@_1BG@JLBENFOE@?$AAs?$AAr?$AA?9?$AAb?$AAa?$AA?9?$AAl?$AAa?$AAt?$AAn@ 10025d44     libucrt:lcidtoname_downlevel.obj
 0002:00005d5c       ??_C@_1BG@KODPNHE@?$AAs?$AAr?$AA?9?$AAs?$AAp?$AA?9?$AAc?$AAy?$AAr?$AAl@ 10025d5c     libucrt:lcidtoname_downlevel.obj
 0002:00005d74       ??_C@_1BG@CIOGKHPB@?$AAs?$AAr?$AA?9?$AAs?$AAp?$AA?9?$AAl?$AAa?$AAt?$AAn@ 10025d74     libucrt:lcidtoname_downlevel.obj
 0002:00005d8c       ??_C@_1M@NGFJLMAC@?$AAs?$AAv?$AA?9?$AAf?$AAi@ 10025d8c     libucrt:lcidtoname_downlevel.obj
 0002:00005d98       ??_C@_1M@MPJEJAJC@?$AAs?$AAv?$AA?9?$AAs?$AAe@ 10025d98     libucrt:lcidtoname_downlevel.obj
 0002:00005da4       ??_C@_1M@MPNDHLFK@?$AAs?$AAw?$AA?9?$AAk?$AAe@ 10025da4     libucrt:lcidtoname_downlevel.obj
 0002:00005db0       ??_C@_1O@KOHBJJI@?$AAs?$AAy?$AAr?$AA?9?$AAs?$AAy@ 10025db0     libucrt:lcidtoname_downlevel.obj
 0002:00005dc0       ??_C@_1M@LDCEFHA@?$AAt?$AAa?$AA?9?$AAi?$AAn@ 10025dc0     libucrt:lcidtoname_downlevel.obj
 0002:00005dcc       ??_C@_1M@CNJOFAK@?$AAt?$AAe?$AA?9?$AAi?$AAn@ 10025dcc     libucrt:lcidtoname_downlevel.obj
 0002:00005dd8       ??_C@_1M@GNAECACD@?$AAt?$AAh?$AA?9?$AAt?$AAh@ 10025dd8     libucrt:lcidtoname_downlevel.obj
 0002:00005de4       ??_C@_1M@CHBIHOJO@?$AAt?$AAn?$AA?9?$AAz?$AAa@ 10025de4     libucrt:lcidtoname_downlevel.obj
 0002:00005df0       ??_C@_1M@GCCMIGPJ@?$AAt?$AAr?$AA?9?$AAt?$AAr@ 10025df0     libucrt:lcidtoname_downlevel.obj
 0002:00005dfc       ??_C@_1M@CELMCNBK@?$AAt?$AAt?$AA?9?$AAr?$AAu@ 10025dfc     libucrt:lcidtoname_downlevel.obj
 0002:00005e08       ??_C@_1M@KLMCELGA@?$AAu?$AAk?$AA?9?$AAu?$AAa@ 10025e08     libucrt:lcidtoname_downlevel.obj
 0002:00005e14       ??_C@_1M@EPAJJAJF@?$AAu?$AAr?$AA?9?$AAp?$AAk@ 10025e14     libucrt:lcidtoname_downlevel.obj
 0002:00005e20       ??_C@_1BG@GEGPMCDJ@?$AAu?$AAz?$AA?9?$AAu?$AAz?$AA?9?$AAc?$AAy?$AAr?$AAl@ 10025e20     libucrt:lcidtoname_downlevel.obj
 0002:00005e38       ??_C@_1BG@EGGKJILM@?$AAu?$AAz?$AA?9?$AAu?$AAz?$AA?9?$AAl?$AAa?$AAt?$AAn@ 10025e38     libucrt:lcidtoname_downlevel.obj
 0002:00005e50       ??_C@_1M@GFOCLFF@?$AAv?$AAi?$AA?9?$AAv?$AAn@ 10025e50     libucrt:lcidtoname_downlevel.obj
 0002:00005e5c       ??_C@_1M@CPAMEDFI@?$AAx?$AAh?$AA?9?$AAz?$AAa@ 10025e5c     libucrt:lcidtoname_downlevel.obj
 0002:00005e68       ??_C@_1O@EBKIFIGN@?$AAz?$AAh?$AA?9?$AAc?$AAh?$AAs@ 10025e68     libucrt:lcidtoname_downlevel.obj
 0002:00005e78       ??_C@_1O@NMHPGANE@?$AAz?$AAh?$AA?9?$AAc?$AAh?$AAt@ 10025e78     libucrt:lcidtoname_downlevel.obj
 0002:00005e88       ??_C@_1M@LPINJOMC@?$AAz?$AAh?$AA?9?$AAc?$AAn@ 10025e88     libucrt:lcidtoname_downlevel.obj
 0002:00005e94       ??_C@_1M@OCJEJODD@?$AAz?$AAh?$AA?9?$AAh?$AAk@ 10025e94     libucrt:lcidtoname_downlevel.obj
 0002:00005ea0       ??_C@_1M@DNDLJINH@?$AAz?$AAh?$AA?9?$AAm?$AAo@ 10025ea0     libucrt:lcidtoname_downlevel.obj
 0002:00005eac       ??_C@_1M@MBFDNDND@?$AAz?$AAh?$AA?9?$AAs?$AAg@ 10025eac     libucrt:lcidtoname_downlevel.obj
 0002:00005eb8       ??_C@_1M@IMEPLEPE@?$AAz?$AAh?$AA?9?$AAt?$AAw@ 10025eb8     libucrt:lcidtoname_downlevel.obj
 0002:00005ec4       ??_C@_1M@BBGHNHJP@?$AAz?$AAu?$AA?9?$AAz?$AAa@ 10025ec4     libucrt:lcidtoname_downlevel.obj
 0002:00005ed0       ?large_power_data@?1??multiply_by_power_of_ten@__crt_strtox@@YA_NAAUbig_integer@2@I@Z@4QBIB 10025ed0     libucrt:cfout.obj
 0002:000067d8       ?large_power_indices@?1??multiply_by_power_of_ten@__crt_strtox@@YA_NAAUbig_integer@2@I@Z@4QBUunpack_index@?1??12@YA_N0I@Z@B 100267d8     libucrt:cfout.obj
 0002:00006870       ?small_powers_of_ten@?1??multiply_by_power_of_ten@__crt_strtox@@YA_NAAUbig_integer@2@I@Z@4QBIB 10026870     libucrt:cfout.obj
 0002:00006894       ??_C@_01GBGANLPD@0@        10026894     libucrt:cfout.obj
 0002:00006898       ??_C@_05DNEBIAHO@1?$CDINF@ 10026898     libucrt:cfout.obj
 0002:000068a0       ??_C@_06IMKFLFPG@1?$CDQNAN@ 100268a0     libucrt:cfout.obj
 0002:000068a8       ??_C@_06PGGFOGJG@1?$CDSNAN@ 100268a8     libucrt:cfout.obj
 0002:000068b0       ??_C@_05PHHOCPM@1?$CDIND@  100268b0     libucrt:cfout.obj
 0002:00006a20       __infinity                 10026a20     libucrt:87tran.obj
 0002:00006a2a       __minfinity                10026a2a     libucrt:87tran.obj
 0002:00006a34       __logemax                  10026a34     libucrt:87tran.obj
 0002:00006a5a       __OP_EXPjmptab             10026a5a     libucrt:87tran.obj
 0002:00006a80       __indefinite               10026a80     libucrt:87disp.obj
 0002:00006a8a       __piby2                    10026a8a     libucrt:87disp.obj
 0002:00006a94       __piby4                    10026a94     libucrt:87disp.obj
 0002:00006ac8       __DEFAULT_CW_in_mem        10026ac8     libucrt:common.obj
 0002:00006aca       __pi_by_2_to_61            10026aca     libucrt:common.obj
 0002:00006b04       ??_C@_03MGHMBJCF@log@      10026b04     libucrt:libm_error.obj
 0002:00006b08       ??_C@_05HGHHAHAP@log10@    10026b08     libucrt:libm_error.obj
 0002:00006b10       ??_C@_03KHJOGHMM@exp@      10026b10     libucrt:libm_error.obj
 0002:00006b14       ??_C@_03JGHBODFD@pow@      10026b14     libucrt:libm_error.obj
 0002:00006b18       ??_C@_04FIHNOPOL@asin@     10026b18     libucrt:libm_error.obj
 0002:00006b20       ??_C@_04PDIFKINK@acos@     10026b20     libucrt:libm_error.obj
 0002:00006b28       ??_C@_04EIAKFFMI@sqrt@     10026b28     libucrt:libm_error.obj
 0002:00006b30       __real@3ff0000000000000    10026b30     libucrt:libm_error.obj
 0002:00006b38       ??_C@_1BA@BALFACEM@?$AAC?$AAO?$AAN?$AAO?$AAU?$AAT?$AA$@ 10026b38     libucrt:initcon.obj
 0002:00006b60       ___acrt_log10_table_t      10026b60     libucrt:log10_tables.obj
 0002:00006f70       ___acrt_log10_table_cb     10026f70     libucrt:log10_tables.obj
 0002:00007380       __real@3fe0000000000000    10027380     libucrt:powhlp.obj
 0002:00007470       ??_C@_04COOMCNPB@sinh@     10027470     libucrt:fpexcept.obj
 0002:00007478       ??_C@_04HPJJNFIM@cosh@     10027478     libucrt:fpexcept.obj
 0002:00007480       ??_C@_04FJHINJAO@tanh@     10027480     libucrt:fpexcept.obj
 0002:00007488       ??_C@_04MLLJIGOK@atan@     10027488     libucrt:fpexcept.obj
 0002:00007490       ??_C@_05KNGEOGJB@atan2@    10027490     libucrt:fpexcept.obj
 0002:00007498       ??_C@_03BLEJJJBH@sin@      10027498     libucrt:fpexcept.obj
 0002:0000749c       ??_C@_03LALBNOCG@cos@      1002749c     libucrt:fpexcept.obj
 0002:000074a0       ??_C@_03IIINPABG@tan@      100274a0     libucrt:fpexcept.obj
 0002:000074a4       ??_C@_04GFPJNGEK@ceil@     100274a4     libucrt:fpexcept.obj
 0002:000074ac       ??_C@_05PBJFFIGL@floor@    100274ac     libucrt:fpexcept.obj
 0002:000074b4       ??_C@_04ODHECPBC@fabs@     100274b4     libucrt:fpexcept.obj
 0002:000074bc       ??_C@_04EHEDPDJG@modf@     100274bc     libucrt:fpexcept.obj
 0002:000074c4       ??_C@_05CEJMAHNP@ldexp@    100274c4     libucrt:fpexcept.obj
 0002:000074cc       ??_C@_05KBKMEMPO@_cabs@    100274cc     libucrt:fpexcept.obj
 0002:000074d4       ??_C@_06MEIMCGCF@_hypot@   100274d4     libucrt:fpexcept.obj
 0002:000074dc       ??_C@_04KEPJIHGP@fmod@     100274dc     libucrt:fpexcept.obj
 0002:000074e4       ??_C@_05GKKHEGJL@frexp@    100274e4     libucrt:fpexcept.obj
 0002:000074ec       ??_C@_03MJLDFKDL@_y0@      100274ec     libucrt:fpexcept.obj
 0002:000074f0       ??_C@_03NAKIGLHK@_y1@      100274f0     libucrt:fpexcept.obj
 0002:000074f4       ??_C@_03ONILCKOB@_yn@      100274f4     libucrt:fpexcept.obj
 0002:000074f8       ??_C@_05JGDBENOH@_logb@    100274f8     libucrt:fpexcept.obj
 0002:00007500       ??_C@_0L@KDOEJCKC@_nextafter@ 10027500     libucrt:fpexcept.obj
 0002:00007510       __d_inf                    10027510     libucrt:util.obj
 0002:00007518       __d_max                    10027518     libucrt:util.obj
 0002:00007520       __d_mzero                  10027520     libucrt:util.obj
 0002:00007590       __load_config_used         10027590     LIBCMT:loadcfg.obj
 0002:00007680       __tls_used                 10027680     LIBCMT:tlssup.obj
 0002:00007698       ??_R4exception@std@@6B@    10027698     LIBCMT:throw_bad_alloc.obj
 0002:000076ac       ??_R3exception@std@@8      100276ac     LIBCMT:throw_bad_alloc.obj
 0002:000076bc       ??_R2exception@std@@8      100276bc     LIBCMT:throw_bad_alloc.obj
 0002:000076c4       ??_R1A@?0A@EA@exception@std@@8 100276c4     LIBCMT:throw_bad_alloc.obj
 0002:000076e0       ??_R4bad_alloc@std@@6B@    100276e0     LIBCMT:throw_bad_alloc.obj
 0002:000076f4       ??_R3bad_alloc@std@@8      100276f4     LIBCMT:throw_bad_alloc.obj
 0002:00007704       ??_R2bad_alloc@std@@8      10027704     LIBCMT:throw_bad_alloc.obj
 0002:00007710       ??_R1A@?0A@EA@bad_alloc@std@@8 10027710     LIBCMT:throw_bad_alloc.obj
 0002:0000772c       ??_R4bad_array_new_length@std@@6B@ 1002772c     LIBCMT:throw_bad_alloc.obj
 0002:00007740       ??_R3bad_array_new_length@std@@8 10027740     LIBCMT:throw_bad_alloc.obj
 0002:00007750       ??_R2bad_array_new_length@std@@8 10027750     LIBCMT:throw_bad_alloc.obj
 0002:00007760       ??_R1A@?0A@EA@bad_array_new_length@std@@8 10027760     LIBCMT:throw_bad_alloc.obj
 0002:0000777c       ??_R4type_info@@6B@        1002777c     LIBCMT:std_type_info_static.obj
 0002:00007790       ??_R3type_info@@8          10027790     LIBCMT:std_type_info_static.obj
 0002:000077a0       ??_R2type_info@@8          100277a0     LIBCMT:std_type_info_static.obj
 0002:000077a8       ??_R1A@?0A@EA@type_info@@8 100277a8     LIBCMT:std_type_info_static.obj
 0002:000077c4       ??_R4bad_exception@std@@6B@ 100277c4     libvcruntime:frame.obj
 0002:000077d8       ??_R3bad_exception@std@@8  100277d8     libvcruntime:frame.obj
 0002:000077e8       ??_R2bad_exception@std@@8  100277e8     libvcruntime:frame.obj
 0002:000077f4       ??_R1A@?0A@EA@bad_exception@std@@8 100277f4     libvcruntime:frame.obj
 0002:00007810       ___safe_se_handler_table   10027810     <linker-defined>
 0002:00007c10       ___rtc_iaa                 10027c10     LIBCMT:initsect.obj
 0002:00007c14       ___rtc_izz                 10027c14     LIBCMT:initsect.obj
 0002:00007c18       ___rtc_taa                 10027c18     LIBCMT:initsect.obj
 0002:00007c1c       ___rtc_tzz                 10027c1c     LIBCMT:initsect.obj
 0002:00007c20       __tls_start                10027c20     LIBCMT:tlssup.obj
 0002:00007c24       __Init_thread_epoch        10027c24     LIBCMT:thread_safe_statics.obj
 0002:00007c28       __tls_end                  10027c28     LIBCMT:tlssup.obj
 0002:00007d2c       __TI2?AVbad_alloc@std@@    10027d2c     LIBCMT:throw_bad_alloc.obj
 0002:00007d3c       __CTA2?AVbad_alloc@std@@   10027d3c     LIBCMT:throw_bad_alloc.obj
 0002:00007d48       __CT??_R0?AVbad_alloc@std@@@8??0bad_alloc@std@@QAE@ABV01@@Z12 10027d48     LIBCMT:throw_bad_alloc.obj
 0002:00007d64       __CT??_R0?AVexception@std@@@8??0exception@std@@QAE@ABV01@@Z12 10027d64     LIBCMT:throw_bad_alloc.obj
 0002:00007d80       __TI3?AVbad_array_new_length@std@@ 10027d80     LIBCMT:throw_bad_alloc.obj
 0002:00007d90       __CTA3?AVbad_array_new_length@std@@ 10027d90     LIBCMT:throw_bad_alloc.obj
 0002:00007da0       __CT??_R0?AVbad_array_new_length@std@@@8??0bad_array_new_length@std@@QAE@ABV01@@Z12 10027da0     LIBCMT:throw_bad_alloc.obj
 0002:00007ec4       __TI2?AVbad_exception@std@@ 10027ec4     libvcruntime:frame.obj
 0002:00007ed4       __CTA2?AVbad_exception@std@@ 10027ed4     libvcruntime:frame.obj
 0002:00007ee0       __CT??_R0?AVbad_exception@std@@@8??0bad_exception@std@@QAE@ABV01@@Z12 10027ee0     libvcruntime:frame.obj
 0002:0000825c       ___pobjMapEntryFirst       1002825c     OposVariant.obj
 0002:00008260       ___pobjMapEntryLast        10028260     OposVariant.obj
 0002:00008320       __IMPORT_DESCRIPTOR_KERNEL32 10028320     kernel32:KERNEL32.dll
 0002:00008334       __IMPORT_DESCRIPTOR_USER32 10028334     user32:USER32.dll
 0002:00008348       __IMPORT_DESCRIPTOR_GDI32  10028348     gdi32:GDI32.dll
 0002:0000835c       __IMPORT_DESCRIPTOR_ADVAPI32 1002835c     advapi32:ADVAPI32.dll
 0002:00008370       __IMPORT_DESCRIPTOR_ole32  10028370     ole32:ole32.dll
 0002:00008384       __IMPORT_DESCRIPTOR_OLEAUT32 10028384     oleaut32:OLEAUT32.dll
 0002:00008398       __NULL_IMPORT_DESCRIPTOR   10028398     kernel32:KERNEL32.dll
 0003:00000000       ?s_Claim@?7??GetIDsOfNames@CComTypeInfoHolder@ATL@@QAEJABU_GUID@@PAPA_WIKPAJ@Z@4PA_WA 1002a000     GestureControl.obj
 0003:00000018       ?s_Release@?7??GetIDsOfNames@CComTypeInfoHolder@ATL@@QAEJABU_GUID@@PAPA_WIKPAJ@Z@4PA_WA 1002a018     GestureControl.obj
 0003:00000034       ?_tih@?$IDispatchImpl@UIOPOSGestureControl@@$1?IID_IOPOSGestureControl@@3U_GUID@@B$1?LIBID_OposGestureControl_CCO@@3U3@B$00$0A@VCComTypeInfoHolder@ATL@@@ATL@@1VCComTypeInfoHolder@2@A 1002a034     GestureControl.obj
 0003:00000050       ?_tih@?$IProvideClassInfo2Impl@$1?CLSID_OPOSGestureControl@@3U_GUID@@B$1?DIID__IOPOSGestureControlEvents@@3U2@B$1?LIBID_OposGestureControl_CCO@@3U2@B$00$0A@VCComTypeInfoHolder@ATL@@@ATL@@1VCComTypeInfoHolder@2@A 1002a050     GestureControl.obj
 0003:0000006c       ?vszContents@?6??Save@?$IPersistStorageImpl@VCOPOSGestureControl@@@ATL@@UAGJPAUIStorage@@H@Z@4PB_WB 1002a06c     GestureControl.obj
 0003:00000070       ?wc@?1??GetWndClassInfo@?$CWindowImpl@VCOPOSGestureControl@@VCWindow@ATL@@V?$CWinTraits@$0FGAAAAAA@$0A@@3@@ATL@@SAAAU_ATL_WNDCLASSINFOW@3@XZ@4U43@A 1002a070     GestureControl.obj
 0003:000000fc       ?rcDefault@CWindow@ATL@@2UtagRECT@@A 1002a0fc     GestureControl.obj
 0003:00000158       ?g_WindowName@@3PA_WA      1002a158     GestureControlImpl.obj
 0003:00000184       ?g_ControlDescription@@3PADA 1002a184     GestureControlImpl.obj
 0003:000001bc       ?g_ControlVersion@@3JA     1002a1bc     GestureControlImpl.obj
 0003:0000022c       ___scrt_native_dllmain_reason 1002a22c     LIBCMT:utility.obj
 0003:00000230       __Init_global_epoch        1002a230     LIBCMT:thread_safe_statics.obj
 0003:00000240       ___security_cookie_complement 1002a240     LIBCMT:gs_cookie.obj
 0003:00000244       ___security_cookie         1002a244     LIBCMT:gs_cookie.obj
 0003:00000248       ___isa_enabled             1002a248     LIBCMT:cpu_disp.obj
 0003:00000260       __NLG_Destination          1002a260     libvcruntime:exsup.obj
 0003:00000278       ___abort_behavior          1002a278     libucrt:abort.obj
 0003:00000288       __iob                      1002a288     libucrt:_file.obj
 0003:00000330       ___acrt_initial_locale_data 1002a330     libucrt:nlsdata.obj
 0003:000003e8       ___acrt_initial_locale_pointers 1002a3e8     libucrt:nlsdata.obj
 0003:000003f0       ___acrt_wide_c_locale_string 1002a3f0     libucrt:nlsdata.obj
 0003:000003f8       ___acrt_initial_multibyte_data 1002a3f8     libucrt:mbctype.obj
 0003:00000918       __pwctype                  1002a918     libucrt:ctype.obj
 0003:0000091c       ___globallocalestatus      1002a91c     libucrt:glstatus.obj
 0003:00000920       ___acrt_lconv_c            1002a920     libucrt:localeconv.obj
 0003:00000970       ___acrt_lconv_static_decimal 1002a970     libucrt:localeconv.obj
 0003:00000974       ___acrt_lconv_static_W_decimal 1002a974     libucrt:localeconv.obj
 0003:00000980       __lookuptrailbytes         1002a980     libucrt:read.obj
 0003:00000a90       __fltused                  1002aa90     LIBCMT:fltused.obj
 0003:00000aa0       ??_R0?AVbad_alloc@std@@@8  1002aaa0     LIBCMT:throw_bad_alloc.obj
 0003:00000abc       ??_R0?AVexception@std@@@8  1002aabc     LIBCMT:throw_bad_alloc.obj
 0003:00000ad8       ??_R0?AVbad_array_new_length@std@@@8 1002aad8     LIBCMT:throw_bad_alloc.obj
 0003:00000b00       ??_R0?AVtype_info@@@8      1002ab00     LIBCMT:std_type_info_static.obj
 0003:00000b18       ??_R0?AVbad_exception@std@@@8 1002ab18     libvcruntime:frame.obj
 0003:00000b38       ?m_bInitFailed@CAtlBaseModule@ATL@@2_NA 1002ab38     OposVariant.obj
 0003:00000b3c       ?_pPerfRegFunc@ATL@@3P6AJPAUHINSTANCE__@@@ZA 1002ab3c     OposVariant.obj
 0003:00000b40       ?_pPerfUnRegFunc@ATL@@3P6AJXZA 1002ab40     OposVariant.obj
 0003:00000b44       ?_AtlRegisterPerUser@ATL@@3_NA 1002ab44     OposVariant.obj
 0003:00000b48       ?_pAtlModule@ATL@@3PAVCAtlModule@1@A 1002ab48     OposVariant.obj
 0003:00000b4c       ?_pModule@ATL@@3PAVCComModule@1@A 1002ab4c     OposVariant.obj
 0003:00000b50       ?_AtlComModule@ATL@@3VCAtlComModule@1@A 1002ab50     OposVariant.obj
 0003:00000b78       ?_AtlWinModule@ATL@@3VCAtlWinModule@1@A 1002ab78     OposVariant.obj
 0003:00000ba4       ?m_libid@CAtlModule@ATL@@2U_GUID@@A 1002aba4     GestureControl.obj
 0003:00000bb4       ?_entries@?1??GetConnMap@COPOSGestureControl@@SAPBU_ATL_CONNMAP_ENTRY@ATL@@PAH@Z@4QBU34@B 1002abb4     GestureControl.obj
 0003:00000bc0       ?$TSS0@?1??GetConnMap@COPOSGestureControl@@SAPBU_ATL_CONNMAP_ENTRY@ATL@@PAH@Z@4HA 1002abc0     GestureControl.obj
 0003:00000bc8       ?_OptionsStorage@?1??__local_stdio_printf_options@@9@4_KA 1002abc8     GestureControl.obj
 0003:00000bd0       ?pfnRegDeleteKeyEx@?1??DeleteSubKey@CRegKey@ATL@@QAEJPB_W@Z@4P6GJPAUHKEY__@@0KK@ZA 1002abd0     GestureControl.obj
 0003:00000bd4       ?bInitialized@?1??DeleteSubKey@CRegKey@ATL@@QAEJPB_W@Z@4_NA 1002abd4     GestureControl.obj
 0003:00000bd8       ?_Module@@3VCComModule@ATL@@A 1002abd8     GestureControl.obj
 0003:00000c08       ?pConnMap@?$IConnectionPointContainerImpl@VCOPOSGestureControl@@@ATL@@0PBU_ATL_CONNMAP_ENTRY@2@B 1002ac08     GestureControl.obj
 0003:00000c0c       ?s_nInstances@COPOSGestureControl@@1HA 1002ac0c     GestureControlImpl.obj
 0003:00000c10       ___scrt_current_native_startup_state 1002ac10     LIBCMT:utility.obj
 0003:00000c14       ___scrt_native_startup_lock 1002ac14     LIBCMT:utility.obj
 0003:00000f7c       __tls_index                1002af7c     LIBCMT:tlssup.obj
 0003:00000f84       ___isa_available           1002af84     LIBCMT:cpu_disp.obj
 0003:00000f88       ___favor                   1002af88     LIBCMT:cpu_disp.obj
 0003:00000f8c       ___scrt_debugger_hook_flag 1002af8c     LIBCMT:utility_desktop.obj
 0003:00000f90       ___castguard_check_failure_os_handled_fptr 1002af90     LIBCMT:guard_support.obj
 0003:00000f98       ?__type_info_root_node@@3U__type_info_node@@A 1002af98     LIBCMT:tncleanup.obj
 0003:00000fa0       ?_OptionsStorage@?1??__local_stdio_scanf_options@@9@4_KA 1002afa0     LIBCMT:default_local_stdio_options.obj
 0003:00000fa8       ?_AtlBaseModule@ATL@@3VCAtlBaseModule@1@A 1002afa8     atls:atlbase.obj
 0003:00000fe0       ?__AtlThunkPool@@3PAT_SLIST_HEADER@@A 1002afe0     atls:atlthunk.obj
 0003:00000ff8       ___@@_PchSym_@00@UztvmgUPdlipUFHUhUrmgvinvwrzgvUexgllohUzgohOmzgrevkilqPBACIAJCBDBUlyqiUcIGUhgwzucOlyq@4B2008FD98C1DD4 1002aff8     atls:stdafx.obj
 0003:00000ffc       ?__WinRTOutOfMemoryExceptionCallback@@3P6GPAXXZA 1002affc     libvcruntime:ehhelpers.obj
 0003:00001000       ___pPurecall               1002b000     libvcruntime:purevirt_data.obj
 0003:00001048       ?pArgList@UnDecorator@@0PAVReplicator@@A 1002b048     libvcruntime:undname.obj
 0003:0000104c       ?pZNameList@UnDecorator@@0PAVReplicator@@A 1002b04c     libvcruntime:undname.obj
 0003:00001050       ?pTemplateArgList@UnDecorator@@0PAVReplicator@@A 1002b050     libvcruntime:undname.obj
 0003:00001054       ?gName@UnDecorator@@0PBDB  1002b054     libvcruntime:undname.obj
 0003:00001058       ?name@UnDecorator@@0PBDB   1002b058     libvcruntime:undname.obj
 0003:0000105c       ?disableFlags@UnDecorator@@0KA 1002b05c     libvcruntime:undname.obj
 0003:00001060       ?fExplicitTemplateParams@UnDecorator@@0_NA 1002b060     libvcruntime:undname.obj
 0003:00001061       ?fGetTemplateArgumentList@UnDecorator@@0_NA 1002b061     libvcruntime:undname.obj
 0003:00001064       ?m_pGetParameter@UnDecorator@@0P6APADJ@ZA 1002b064     libvcruntime:undname.obj
 0003:00001068       ?m_CHPENameOffset@UnDecorator@@0KA 1002b068     libvcruntime:undname.obj
 0003:0000106c       ?m_recursionLevel@UnDecorator@@0KA 1002b06c     libvcruntime:undname.obj
 0003:000010b0       ?c_exit_complete@?1???R<lambda_6e4b09c48022b2350581041d5f6b0c4c>@@QBE@XZ@4_NA 1002b0b0     libucrt:exit.obj
 0003:000011c0       __environ_table            1002b1c0     libucrt:environment_initialization.obj
 0003:000011c4       __wenviron_table           1002b1c4     libucrt:environment_initialization.obj
 0003:000011c8       ___dcrt_initial_wide_environment 1002b1c8     libucrt:environment_initialization.obj
 0003:000011cc       ___dcrt_initial_narrow_environment 1002b1cc     libucrt:environment_initialization.obj
 0003:000011d0       ___acrt_atexit_table       1002b1d0     libucrt:onexit.obj
 0003:000011dc       ___acrt_at_quick_exit_table 1002b1dc     libucrt:onexit.obj
 0003:000012d0       __nstream                  1002b2d0     libucrt:_file.obj
 0003:000012d4       ___piob                    1002b2d4     libucrt:_file.obj
 0003:000012dc       ___acrt_stdout_buffer      1002b2dc     libucrt:_sftbuf.obj
 0003:000012e0       ___acrt_stderr_buffer      1002b2e0     libucrt:_sftbuf.obj
 0003:000012e4       ___acrt_locale_changed_data 1002b2e4     libucrt:wsetlocale.obj
 0003:000012e8       ___acrt_current_locale_data 1002b2e8     libucrt:nlsdata.obj
 0003:000012f0       ___pioinfo                 1002b2f0     libucrt:ioinit.obj
 0003:000014f0       __nhandle                  1002b4f0     libucrt:ioinit.obj
 0003:0000164c       __mbctype                  1002b64c     libucrt:mbctype.obj
 0003:00001650       __mbcasemap                1002b650     libucrt:mbctype.obj
 0003:00001654       ___acrt_current_multibyte_data 1002b654     libucrt:mbctype.obj
 0003:00001660       __pgmptr                   1002b660     libucrt:argv_data.obj
 0003:00001664       ___argc                    1002b664     libucrt:argv_data.obj
 0003:00001668       ___argv                    1002b668     libucrt:argv_data.obj
 0003:0000166c       ___wargv                   1002b66c     libucrt:argv_data.obj
 0003:00001670       __acmdln                   1002b670     libucrt:argv_data.obj
 0003:00001674       __wcmdln                   1002b674     libucrt:argv_data.obj
 0003:00001678       ___acrt_heap               1002b678     libucrt:heap_handle.obj
 0003:00001694       ___acrt_lconv_static_null  1002b694     libucrt:localeconv.obj
 0003:00001698       ___acrt_lconv_static_W_null 1002b698     libucrt:localeconv.obj
 0003:000016a8       ___fastflag                1002b6a8     libucrt:fp_flags.obj
 0003:000016b0       ___dyn_tls_init_callback   1002b6b0     <common>
 0003:000016b4       ___scrt_ucrt_dll_is_in_use 1002b6b4     <common>
 0003:000016b8       __pmatherr                 1002b6b8     <common>
 0003:000016bc       ___use_sse2_mathfcns       1002b6bc     <common>

 entry point at        0001:0000c15d

 Static symbols

 0000:fffcd000       .debug$S                   10000000     OPOSGestureControl.exp
 0000:fffcd000       .debug$S                   10000000     advapi32:ADVAPI32.dll
 0000:fffcd000       .debug$S                   10000000     advapi32:ADVAPI32.dll
 0000:fffcd000       .debug$S                   10000000     advapi32:ADVAPI32.dll
 0000:fffcd000       .debug$S                   10000000     advapi32:ADVAPI32.dll
 0000:fffcd000       .debug$S                   10000000     advapi32:ADVAPI32.dll
 0000:fffcd000       .debug$S                   10000000     advapi32:ADVAPI32.dll
 0000:fffcd000       .debug$S                   10000000     advapi32:ADVAPI32.dll
 0000:fffcd000       .debug$S                   10000000     advapi32:ADVAPI32.dll
 0000:fffcd000       .debug$S                   10000000     advapi32:ADVAPI32.dll
 0000:fffcd000       .debug$S                   10000000     gdi32:GDI32.dll
 0000:fffcd000       .debug$S                   10000000     gdi32:GDI32.dll
 0000:fffcd000       .debug$S                   10000000     gdi32:GDI32.dll
 0000:fffcd000       .debug$S                   10000000     gdi32:GDI32.dll
 0000:fffcd000       .debug$S                   10000000     gdi32:GDI32.dll
 0000:fffcd000       .debug$S                   10000000     gdi32:GDI32.dll
 0000:fffcd000       .debug$S                   10000000     gdi32:GDI32.dll
 0000:fffcd000       .debug$S                   10000000     gdi32:GDI32.dll
 0000:fffcd000       .debug$S                   10000000     gdi32:GDI32.dll
 0000:fffcd000       .debug$S                   10000000     gdi32:GDI32.dll
 0000:fffcd000       .debug$S                   10000000     gdi32:GDI32.dll
 0000:fffcd000       .debug$S                   10000000     gdi32:GDI32.dll
 0000:fffcd000       .debug$S                   10000000     gdi32:GDI32.dll
 0000:fffcd000       .debug$S                   10000000     gdi32:GDI32.dll
 0000:fffcd000       .debug$S                   10000000     gdi32:GDI32.dll
 0000:fffcd000       .debug$S                   10000000     gdi32:GDI32.dll
 0000:fffcd000       .debug$S                   10000000     gdi32:GDI32.dll
 0000:fffcd000       .debug$S                   10000000     gdi32:GDI32.dll
 0000:fffcd000       .debug$S                   10000000     gdi32:GDI32.dll
 0000:fffcd000       .debug$S                   10000000     kernel32:KERNEL32.dll
 0000:fffcd000       .debug$S                   10000000     kernel32:KERNEL32.dll
 0000:fffcd000       .debug$S                   10000000     kernel32:KERNEL32.dll
 0000:fffcd000       .debug$S                   10000000     kernel32:KERNEL32.dll
 0000:fffcd000       .debug$S                   10000000     kernel32:KERNEL32.dll
 0000:fffcd000       .debug$S                   10000000     kernel32:KERNEL32.dll
 0000:fffcd000       .debug$S                   10000000     kernel32:KERNEL32.dll
 0000:fffcd000       .debug$S                   10000000     kernel32:KERNEL32.dll
 0000:fffcd000       .debug$S                   10000000     kernel32:KERNEL32.dll
 0000:fffcd000       .debug$S                   10000000     kernel32:KERNEL32.dll
 0000:fffcd000       .debug$S                   10000000     kernel32:KERNEL32.dll
 0000:fffcd000       .debug$S                   10000000     kernel32:KERNEL32.dll
 0000:fffcd000       .debug$S                   10000000     kernel32:KERNEL32.dll
 0000:fffcd000       .debug$S                   10000000     kernel32:KERNEL32.dll
 0000:fffcd000       .debug$S                   10000000     kernel32:KERNEL32.dll
 0000:fffcd000       .debug$S                   10000000     kernel32:KERNEL32.dll
 0000:fffcd000       .debug$S                   10000000     kernel32:KERNEL32.dll
 0000:fffcd000       .debug$S                   10000000     kernel32:KERNEL32.dll
 0000:fffcd000       .debug$S                   10000000     kernel32:KERNEL32.dll
 0000:fffcd000       .debug$S                   10000000     kernel32:KERNEL32.dll
 0000:fffcd000       .debug$S                   10000000     kernel32:KERNEL32.dll
 0000:fffcd000       .debug$S                   10000000     kernel32:KERNEL32.dll
 0000:fffcd000       .debug$S                   10000000     kernel32:KERNEL32.dll
 0000:fffcd000       .debug$S                   10000000     kernel32:KERNEL32.dll
 0000:fffcd000       .debug$S                   10000000     kernel32:KERNEL32.dll
 0000:fffcd000       .debug$S                   10000000     kernel32:KERNEL32.dll
 0000:fffcd000       .debug$S                   10000000     kernel32:KERNEL32.dll
 0000:fffcd000       .debug$S                   10000000     kernel32:KERNEL32.dll
 0000:fffcd000       .debug$S                   10000000     kernel32:KERNEL32.dll
 0000:fffcd000       .debug$S                   10000000     kernel32:KERNEL32.dll
 0000:fffcd000       .debug$S                   10000000     kernel32:KERNEL32.dll
 0000:fffcd000       .debug$S                   10000000     kernel32:KERNEL32.dll
 0000:fffcd000       .debug$S                   10000000     kernel32:KERNEL32.dll
 0000:fffcd000       .debug$S                   10000000     kernel32:KERNEL32.dll
 0000:fffcd000       .debug$S                   10000000     kernel32:KERNEL32.dll
 0000:fffcd000       .debug$S                   10000000     kernel32:KERNEL32.dll
 0000:fffcd000       .debug$S                   10000000     kernel32:KERNEL32.dll
 0000:fffcd000       .debug$S                   10000000     kernel32:KERNEL32.dll
 0000:fffcd000       .debug$S                   10000000     kernel32:KERNEL32.dll
 0000:fffcd000       .debug$S                   10000000     kernel32:KERNEL32.dll
 0000:fffcd000       .debug$S                   10000000     kernel32:KERNEL32.dll
 0000:fffcd000       .debug$S                   10000000     kernel32:KERNEL32.dll
 0000:fffcd000       .debug$S                   10000000     kernel32:KERNEL32.dll
 0000:fffcd000       .debug$S                   10000000     kernel32:KERNEL32.dll
 0000:fffcd000       .debug$S                   10000000     kernel32:KERNEL32.dll
 0000:fffcd000       .debug$S                   10000000     kernel32:KERNEL32.dll
 0000:fffcd000       .debug$S                   10000000     kernel32:KERNEL32.dll
 0000:fffcd000       .debug$S                   10000000     kernel32:KERNEL32.dll
 0000:fffcd000       .debug$S                   10000000     kernel32:KERNEL32.dll
 0000:fffcd000       .debug$S                   10000000     kernel32:KERNEL32.dll
 0000:fffcd000       .debug$S                   10000000     kernel32:KERNEL32.dll
 0000:fffcd000       .debug$S                   10000000     kernel32:KERNEL32.dll
 0000:fffcd000       .debug$S                   10000000     kernel32:KERNEL32.dll
 0000:fffcd000       .debug$S                   10000000     kernel32:KERNEL32.dll
 0000:fffcd000       .debug$S                   10000000     kernel32:KERNEL32.dll
 0000:fffcd000       .debug$S                   10000000     kernel32:KERNEL32.dll
 0000:fffcd000       .debug$S                   10000000     kernel32:KERNEL32.dll
 0000:fffcd000       .debug$S                   10000000     kernel32:KERNEL32.dll
 0000:fffcd000       .debug$S                   10000000     kernel32:KERNEL32.dll
 0000:fffcd000       .debug$S                   10000000     kernel32:KERNEL32.dll
 0000:fffcd000       .debug$S                   10000000     kernel32:KERNEL32.dll
 0000:fffcd000       .debug$S                   10000000     kernel32:KERNEL32.dll
 0000:fffcd000       .debug$S                   10000000     kernel32:KERNEL32.dll
 0000:fffcd000       .debug$S                   10000000     kernel32:KERNEL32.dll
 0000:fffcd000       .debug$S                   10000000     kernel32:KERNEL32.dll
 0000:fffcd000       .debug$S                   10000000     kernel32:KERNEL32.dll
 0000:fffcd000       .debug$S                   10000000     kernel32:KERNEL32.dll
 0000:fffcd000       .debug$S                   10000000     kernel32:KERNEL32.dll
 0000:fffcd000       .debug$S                   10000000     kernel32:KERNEL32.dll
 0000:fffcd000       .debug$S                   10000000     kernel32:KERNEL32.dll
 0000:fffcd000       .debug$S                   10000000     kernel32:KERNEL32.dll
 0000:fffcd000       .debug$S                   10000000     kernel32:KERNEL32.dll
 0000:fffcd000       .debug$S                   10000000     kernel32:KERNEL32.dll
 0000:fffcd000       .debug$S                   10000000     kernel32:KERNEL32.dll
 0000:fffcd000       .debug$S                   10000000     kernel32:KERNEL32.dll
 0000:fffcd000       .debug$S                   10000000     kernel32:KERNEL32.dll
 0000:fffcd000       .debug$S                   10000000     kernel32:KERNEL32.dll
 0000:fffcd000       .debug$S                   10000000     kernel32:KERNEL32.dll
 0000:fffcd000       .debug$S                   10000000     kernel32:KERNEL32.dll
 0000:fffcd000       .debug$S                   10000000     kernel32:KERNEL32.dll
 0000:fffcd000       .debug$S                   10000000     kernel32:KERNEL32.dll
 0000:fffcd000       .debug$S                   10000000     kernel32:KERNEL32.dll
 0000:fffcd000       .debug$S                   10000000     kernel32:KERNEL32.dll
 0000:fffcd000       .debug$S                   10000000     kernel32:KERNEL32.dll
 0000:fffcd000       .debug$S                   10000000     kernel32:KERNEL32.dll
 0000:fffcd000       .debug$S                   10000000     kernel32:KERNEL32.dll
 0000:fffcd000       .debug$S                   10000000     kernel32:KERNEL32.dll
 0000:fffcd000       .debug$S                   10000000     kernel32:KERNEL32.dll
 0000:fffcd000       .debug$S                   10000000     kernel32:KERNEL32.dll
 0000:fffcd000       .debug$S                   10000000     kernel32:KERNEL32.dll
 0000:fffcd000       .debug$S                   10000000     kernel32:KERNEL32.dll
 0000:fffcd000       .debug$S                   10000000     kernel32:KERNEL32.dll
 0000:fffcd000       .debug$S                   10000000     kernel32:KERNEL32.dll
 0000:fffcd000       .debug$S                   10000000     kernel32:KERNEL32.dll
 0000:fffcd000       .debug$S                   10000000     kernel32:KERNEL32.dll
 0000:fffcd000       .debug$S                   10000000     kernel32:KERNEL32.dll
 0000:fffcd000       .debug$S                   10000000     kernel32:KERNEL32.dll
 0000:fffcd000       .debug$S                   10000000     kernel32:KERNEL32.dll
 0000:fffcd000       .debug$S                   10000000     kernel32:KERNEL32.dll
 0000:fffcd000       .debug$S                   10000000     kernel32:KERNEL32.dll
 0000:fffcd000       .debug$S                   10000000     kernel32:KERNEL32.dll
 0000:fffcd000       .debug$S                   10000000     kernel32:KERNEL32.dll
 0000:fffcd000       .debug$S                   10000000     kernel32:KERNEL32.dll
 0000:fffcd000       .debug$S                   10000000     kernel32:KERNEL32.dll
 0000:fffcd000       .debug$S                   10000000     kernel32:KERNEL32.dll
 0000:fffcd000       .debug$S                   10000000     kernel32:KERNEL32.dll
 0000:fffcd000       .debug$S                   10000000     ole32:ole32.dll
 0000:fffcd000       .debug$S                   10000000     ole32:ole32.dll
 0000:fffcd000       .debug$S                   10000000     ole32:ole32.dll
 0000:fffcd000       .debug$S                   10000000     ole32:ole32.dll
 0000:fffcd000       .debug$S                   10000000     ole32:ole32.dll
 0000:fffcd000       .debug$S                   10000000     ole32:ole32.dll
 0000:fffcd000       .debug$S                   10000000     ole32:ole32.dll
 0000:fffcd000       .debug$S                   10000000     ole32:ole32.dll
 0000:fffcd000       .debug$S                   10000000     ole32:ole32.dll
 0000:fffcd000       .debug$S                   10000000     ole32:ole32.dll
 0000:fffcd000       .debug$S                   10000000     ole32:ole32.dll
 0000:fffcd000       .debug$S                   10000000     ole32:ole32.dll
 0000:fffcd000       .debug$S                   10000000     ole32:ole32.dll
 0000:fffcd000       .debug$S                   10000000     ole32:ole32.dll
 0000:fffcd000       .debug$S                   10000000     oleaut32:OLEAUT32.dll
 0000:fffcd000       .debug$S                   10000000     oleaut32:OLEAUT32.dll
 0000:fffcd000       .debug$S                   10000000     oleaut32:OLEAUT32.dll
 0000:fffcd000       .debug$S                   10000000     oleaut32:OLEAUT32.dll
 0000:fffcd000       .debug$S                   10000000     oleaut32:OLEAUT32.dll
 0000:fffcd000       .debug$S                   10000000     oleaut32:OLEAUT32.dll
 0000:fffcd000       .debug$S                   10000000     oleaut32:OLEAUT32.dll
 0000:fffcd000       .debug$S                   10000000     oleaut32:OLEAUT32.dll
 0000:fffcd000       .debug$S                   10000000     oleaut32:OLEAUT32.dll
 0000:fffcd000       .debug$S                   10000000     oleaut32:OLEAUT32.dll
 0000:fffcd000       .debug$S                   10000000     oleaut32:OLEAUT32.dll
 0000:fffcd000       .debug$S                   10000000     oleaut32:OLEAUT32.dll
 0000:fffcd000       .debug$S                   10000000     oleaut32:OLEAUT32.dll
 0000:fffcd000       .debug$S                   10000000     oleaut32:OLEAUT32.dll
 0000:fffcd000       .debug$S                   10000000     oleaut32:OLEAUT32.dll
 0000:fffcd000       .debug$S                   10000000     oleaut32:OLEAUT32.dll
 0000:fffcd000       .debug$S                   10000000     user32:USER32.dll
 0000:fffcd000       .debug$S                   10000000     user32:USER32.dll
 0000:fffcd000       .debug$S                   10000000     user32:USER32.dll
 0000:fffcd000       .debug$S                   10000000     user32:USER32.dll
 0000:fffcd000       .debug$S                   10000000     user32:USER32.dll
 0000:fffcd000       .debug$S                   10000000     user32:USER32.dll
 0000:fffcd000       .debug$S                   10000000     user32:USER32.dll
 0000:fffcd000       .debug$S                   10000000     user32:USER32.dll
 0000:fffcd000       .debug$S                   10000000     user32:USER32.dll
 0000:fffcd000       .debug$S                   10000000     user32:USER32.dll
 0000:fffcd000       .debug$S                   10000000     user32:USER32.dll
 0000:fffcd000       .debug$S                   10000000     user32:USER32.dll
 0000:fffcd000       .debug$S                   10000000     user32:USER32.dll
 0000:fffcd000       .debug$S                   10000000     user32:USER32.dll
 0000:fffcd000       .debug$S                   10000000     user32:USER32.dll
 0000:fffcd000       .debug$S                   10000000     user32:USER32.dll
 0000:fffcd000       .debug$S                   10000000     user32:USER32.dll
 0000:fffcd000       .debug$S                   10000000     user32:USER32.dll
 0000:fffcd000       .debug$S                   10000000     user32:USER32.dll
 0000:fffcd000       .debug$S                   10000000     user32:USER32.dll
 0000:fffcd000       .debug$S                   10000000     user32:USER32.dll
 0000:fffcd000       .debug$S                   10000000     user32:USER32.dll
 0000:fffcd000       .debug$S                   10000000     user32:USER32.dll
 0000:fffcd000       .debug$S                   10000000     user32:USER32.dll
 0000:fffcd000       .debug$S                   10000000     user32:USER32.dll
 0000:fffcd000       .debug$S                   10000000     user32:USER32.dll
 0000:fffcd000       .debug$S                   10000000     user32:USER32.dll
 0000:fffcd000       .debug$S                   10000000     user32:USER32.dll
 0000:fffcd000       .debug$S                   10000000     user32:USER32.dll
 0000:fffcd000       .debug$S                   10000000     user32:USER32.dll
 0000:fffcd000       .debug$S                   10000000     user32:USER32.dll
 0000:fffcd000       .debug$S                   10000000     user32:USER32.dll
 0000:fffcd000       .debug$S                   10000000     user32:USER32.dll
 0000:fffcd000       .debug$S                   10000000     user32:USER32.dll
 0000:fffcd000       .debug$S                   10000000     user32:USER32.dll
 0001:00000000       ??__E_AtlComModule@ATL@@YAXXZ 10001000 f   OposVariant.obj
 0001:00000016       ??__E_AtlWinModule@ATL@@YAXXZ 10001016 f   OposVariant.obj
 0001:0000002c       ??__E?pConnMap@?$IConnectionPointContainerImpl@VCOPOSGestureControl@@@ATL@@0PBU_ATL_CONNMAP_ENTRY@2@B@@YAXXZ 1000102c f   GestureControl.obj
 0001:0000003a       ??__E_Module@@YAXXZ        1000103a f   GestureControl.obj
 0001:00000064       ??__E_AtlBaseModule@ATL@@YAXXZ 10001064 f   atls:atlbase.obj
 0001:0000102e       $LN24                      1000202e     GestureControl.obj
 0001:000058b2       $LN48                      100068b2     GestureControl.obj
 0001:000058ca       $LN47                      100068ca     GestureControl.obj
 0001:00007a75       $LN38                      10008a75     GestureControl.obj
 0001:00007a8d       $LN37                      10008a8d     GestureControl.obj
 0001:0000917d       $LN76                      1000a17d     GestureControl.obj
 0001:00009195       $LN75                      1000a195     GestureControl.obj
 0001:0000954e       _memcpy_s                  1000a54e f   GestureControl.obj
 0001:0000b5e9       ?find_pe_section@@YAPAU_IMAGE_SECTION_HEADER@@QAEI@Z 1000c5e9 f   LIBCMT:utility.obj
 0001:0000b908       ?__scrt_initialize_thread_safe_statics@@YAHXZ 1000c908 f   LIBCMT:thread_safe_statics.obj
 0001:0000b92f       ?__scrt_initialize_thread_safe_statics_platform_specific@@YAXXZ 1000c92f f   LIBCMT:thread_safe_statics.obj
 0001:0000b9b1       ?__scrt_uninitialize_thread_safe_statics@@YAXXZ 1000c9b1 f   LIBCMT:thread_safe_statics.obj
 0001:0000bd20       __catch$??2@YAPAXIABUnothrow_t@std@@@Z$0 1000cd20 f   LIBCMT:new_scalar_nothrow.obj
 0001:0000bd60       $$000000                   1000cd60     LIBCMT:sehprolg4gs.obj
 0001:0000bdc0       $$000000                   1000cdc0     LIBCMT:alloca16.obj
 0001:0000bdf0       $$000000                   1000cdf0     LIBCMT:chkstk.obj
 0001:0000be1d       ?dllmain_crt_dispatch@@YGHQAUHINSTANCE__@@KQAX@Z 1000ce1d f   LIBCMT:dll_dllmain.obj
 0001:0000be70       ?dllmain_crt_process_attach@@YAHQAUHINSTANCE__@@QAX@Z 1000ce70 f   LIBCMT:dll_dllmain.obj
 0001:0000bf77       ?dllmain_crt_process_detach@@YAH_N@Z 1000cf77 f   LIBCMT:dll_dllmain.obj
 0001:0000c027       ?dllmain_dispatch@@YAHQAUHINSTANCE__@@KQAX@Z 1000d027 f   LIBCMT:dll_dllmain.obj
 0001:0000c132       ?dllmain_raw@@YGHQAUHINSTANCE__@@KQAX@Z 1000d132 f   LIBCMT:dll_dllmain.obj
 0001:0000c4b0       $$000000                   1000d4b0     LIBCMT:sehprolg4.obj
 0001:0000c50b       ___get_entropy             1000d50b f   LIBCMT:gs_support.obj
 0001:0000c802       ??$GetProcAddressAll@P6GP6GJPAUHWND__@@IIJ@ZPAUAtlThunkData_t@@@Z@@YAP6GP6GJPAUHWND__@@IIJ@ZPAUAtlThunkData_t@@@ZPAP6GP6GJ0IIJ@Z1@Z@Z 1000d802 f   atls:atlthunk.obj
 0001:0000c802       ??$GetProcAddressAll@P6GPAUAtlThunkData_t@@XZ@@YAP6GPAUAtlThunkData_t@@XZPAP6GPAU0@XZ@Z 1000d802 f   atls:atlthunk.obj
 0001:0000c802       ??$GetProcAddressAll@P6GXPAUAtlThunkData_t@@@Z@@YAP6GXPAUAtlThunkData_t@@@ZPAP6GX0@Z@Z 1000d802 f   atls:atlthunk.obj
 0001:0000c802       ??$GetProcAddressAll@P6GXPAUAtlThunkData_t@@PAXI@Z@@YAP6GXPAUAtlThunkData_t@@PAXI@ZPAP6GX01I@Z@Z 1000d802 f   atls:atlthunk.obj
 0001:0000c8b2       ?GetProcAddressSingle@@YA_NPAUHINSTANCE__@@PBDPAPAX@Z 1000d8b2 f   atls:atlthunk.obj
 0001:0000ca04       ?__InitializeThunkPool@@YAHXZ 1000da04 f   atls:atlthunk.obj
 0001:0000ce50       _ValidateLocalCookies      1000de50 f   libvcruntime:chandler4.obj
 0001:0000de7a       $LN1250                    1000ee7a     libvcruntime:memcmp.obj
 0001:0000df00       $$000000                   1000ef00     libvcruntime:memcpy.obj
 0001:0000e164       TrailingUpVec              1000f164     libvcruntime:memcpy.obj
 0001:0000e210       TrailingDownVec            1000f210     libvcruntime:memcpy.obj
 0001:0000e480       $$000000                   1000f480     libvcruntime:memset.obj
 0001:0000ea83       ?_FilterSetCurrentException@@YAKPAU_EXCEPTION_POINTERS@@E@Z 1000fa83 f   libvcruntime:ehhelpers.obj
 0001:0000ecd0       $$000000                   1000fcd0     libvcruntime:memmove.obj
 0001:0000ef34       TrailingUpVec              1000ff34     libvcruntime:memmove.obj
 0001:0000efe0       TrailingDownVec            1000ffe0     libvcruntime:memmove.obj
 0001:0000f250       $$000000                   10010250     libvcruntime:exsup4.obj
 0001:0000f2dd       __unwind_handler4          100102dd f   libvcruntime:exsup4.obj
 0001:0000f5bb       ??$BuildCatchObjectHelperInternal@V__FrameHandler3@@@@YAHPAUEHExceptionRecord@@PAXPBU_s_HandlerType@@PBU_s_CatchableType@@@Z 100105bb f   libvcruntime:frame.obj
 0001:0000f6f9       ??$BuildCatchObjectInternal@V__FrameHandler3@@@@YAXPAUEHExceptionRecord@@PAXPBU_s_HandlerType@@PBU_s_CatchableType@@@Z 100106f9 f   libvcruntime:frame.obj
 0001:0000f792       ??$CatchIt@V__FrameHandler3@@@@YAXPAUEHExceptionRecord@@PAUEHRegistrationNode@@PAU_CONTEXT@@PAXPBU_s_FuncInfo@@PBU_s_HandlerType@@PBU_s_CatchableType@@PBU_s_TryBlockMapEntry@@H1EE@Z 10010792 f   libvcruntime:frame.obj
 0001:0000f812       ??$FindHandler@V__FrameHandler3@@@@YAXPAUEHExceptionRecord@@PAUEHRegistrationNode@@PAU_CONTEXT@@PAXPBU_s_FuncInfo@@EH1@Z 10010812 f   libvcruntime:frame.obj
 0001:0000fbc8       ??$FindHandlerForForeignException@V__FrameHandler3@@@@YAXPAUEHExceptionRecord@@PAUEHRegistrationNode@@PAU_CONTEXT@@PAXPBU_s_FuncInfo@@HH1@Z 10010bc8 f   libvcruntime:frame.obj
 0001:0000fee0       ?CallCatchBlock@@YAPAXPAUEHExceptionRecord@@PAUEHRegistrationNode@@PAU_CONTEXT@@PBU_s_FuncInfo@@PAXHK@Z 10010ee0 f   libvcruntime:frame.obj
 0001:000100a4       ?CallUnexpected@@YAXPBU_s_ESTypeList@@@Z 100110a4 f   libvcruntime:frame.obj
 0001:000100c4       __catch$?CallUnexpected@@YAXPBU_s_ESTypeList@@@Z$0 100110c4 f   libvcruntime:frame.obj
 0001:000100e3       ?ExFilterRethrow@@YAHPAU_EXCEPTION_POINTERS@@@Z 100110e3 f   libvcruntime:frame.obj
 0001:0001022d       ?IsInExceptionSpec@@YAEPAUEHExceptionRecord@@PBU_s_ESTypeList@@@Z 1001122d f   libvcruntime:frame.obj
 0001:00010300       $$000000                   10011300     libvcruntime:lowhelpr.obj
 0001:00010350       $$000000                   10011350     libvcruntime:exsup.obj
 0001:00010371       __unwind_handler           10011371 f   libvcruntime:exsup.obj
 0001:0001048e       ?try_get_first_available_module@@YAPAUHINSTANCE__@@QBW4module_id@?A0xb97aeec8@@0@Z 1001148e f   libvcruntime:winapi_downlevel.obj
 0001:00010528       ?try_get_function@@YAPAXW4function_id@?A0xb97aeec8@@QBDQBW4module_id@2@2@Z 10011528 f   libvcruntime:winapi_downlevel.obj
 0001:00010bb2       ??$common_tcsncpy_s@_W@@YAHQA_WIQB_WI@Z 10011bb2 f   libucrt:wcsncpy_s.obj
 0001:00010c88       ??$common_vsprintf@Vformat_validation_base@__crt_stdio_output@@_W@@YAH_KQA_WIQB_WQAU__crt_locale_pointers@@QAD@Z 10011c88 f   libucrt:output.obj
 0001:00010e0f       ??$common_vsprintf_s@_W@@YAH_KQA_WIQB_WQAU__crt_locale_pointers@@QAD@Z 10011e0f f   libucrt:output.obj
 0001:00011573       $LN48                      10012573     libucrt:output.obj
 0001:00011a7c       $LN18                      10012a7c     libucrt:output.obj
 0001:00011a90       $LN17                      10012a90     libucrt:output.obj
 0001:000122eb       ??$?RV<lambda_03b1d95aef87969028cfba75ccab2455>@@AAV<lambda_6e4b09c48022b2350581041d5f6b0c4c>@@V<lambda_22bdf7517842c4b3e53723af5aa32b9e>@@@?$__crt_seh_guarded_call@X@@QAEX$$QAV<lambda_03b1d95aef87969028cfba75ccab2455>@@AAV<lambda_6e4b09c48022b2350581041d5f6b0c4c>@@$$QAV<lambda_22bdf7517842c4b3e53723af5aa32b9e>@@@Z 100132eb f   libucrt:exit.obj
 0001:00012338       ??R<lambda_6e4b09c48022b2350581041d5f6b0c4c>@@QBE@XZ 10013338 f   libucrt:exit.obj
 0001:00012412       ?atexit_exception_filter@@YAHK@Z 10013412 f   libucrt:exit.obj
 0001:00012425       ?common_exit@@YAXHW4_crt_exit_cleanup_mode@@W4_crt_exit_return_mode@@@Z 10013425 f   libucrt:exit.obj
 0001:00012489       ?exit_or_terminate_process@@YAXI@Z 10013489 f   libucrt:exit.obj
 0001:000124cb       ?is_managed_app@@YA_NXZ    100134cb f   libucrt:exit.obj
 0001:0001250e       ?try_cor_exit_process@@YAXI@Z 1001350e f   libucrt:exit.obj
 0001:0001259c       ??$common_configure_argv@D@@YAHW4_crt_argv_mode@@@Z 1001359c f   libucrt:argv_parsing.obj
 0001:000126d2       ??$parse_command_line@D@@YAXPADPAPAD0PAI2@Z 100136d2 f   libucrt:argv_parsing.obj
 0001:000128a0       ??$common_initialize_environment_nolock@D@@YAHXZ 100138a0 f   libucrt:environment_initialization.obj
 0001:000128f3       ??$create_environment@D@@YAQAPADQAD@Z 100138f3 f   libucrt:environment_initialization.obj
 0001:000129c3       ??$free_environment@D@@YAXQAPAD@Z 100139c3 f   libucrt:environment_initialization.obj
 0001:000129c3       ??$free_environment@_W@@YAXQAPA_W@Z 100139c3 f   libucrt:environment_initialization.obj
 0001:00012a1b       ??$uninitialize_environment_internal@D@@YAXAAPAPAD@Z 10013a1b f   libucrt:environment_initialization.obj
 0001:00012a36       ??$uninitialize_environment_internal@_W@@YAXAAPAPA_W@Z 10013a36 f   libucrt:environment_initialization.obj
 0001:00012a8d       ??$?RV<lambda_69a2805e680e0e292e8ba93315fe43a8>@@AAV<lambda_f03950bc5685219e0bcd2087efbe011e>@@V<lambda_03fcd07e894ec930e3f35da366ca99d6>@@@?$__crt_seh_guarded_call@H@@QAEH$$QAV<lambda_69a2805e680e0e292e8ba93315fe43a8>@@AAV<lambda_f03950bc5685219e0bcd2087efbe011e>@@$$QAV<lambda_03fcd07e894ec930e3f35da366ca99d6>@@@Z 10013a8d f   libucrt:onexit.obj
 0001:00012ae8       ??$?RV<lambda_8e746cf0007f6ed984d6f78af1fec997>@@AAV<lambda_22ebabd17bc4fa466a2aca6d8deb888d>@@V<lambda_18ed0c0b38a6dc0daf1e7ac6d6adf05e>@@@?$__crt_seh_guarded_call@H@@QAEH$$QAV<lambda_8e746cf0007f6ed984d6f78af1fec997>@@AAV<lambda_22ebabd17bc4fa466a2aca6d8deb888d>@@$$QAV<lambda_18ed0c0b38a6dc0daf1e7ac6d6adf05e>@@@Z 10013ae8 f   libucrt:onexit.obj
 0001:00012b62       ??R<lambda_22ebabd17bc4fa466a2aca6d8deb888d>@@QBEHXZ 10013b62 f   libucrt:onexit.obj
 0001:00012c8b       ??R<lambda_f03950bc5685219e0bcd2087efbe011e>@@QBEHXZ 10013c8b f   libucrt:onexit.obj
 0001:00012e04       _initialize_global_variables 10013e04 f   libucrt:initialization.obj
 0001:00012e11       _initialize_c              10013e11 f   libucrt:initialization.obj
 0001:00012e2b       _initialize_environment    10013e2b f   libucrt:initialization.obj
 0001:00012e2b       _initialize_global_state_isolation 10013e2b f   libucrt:initialization.obj
 0001:00012e2b       _report_memory_leaks       10013e2b f   libucrt:initialization.obj
 0001:00012e2b       _uninitialize_c            10013e2b f   libucrt:initialization.obj
 0001:00012e2b       _uninitialize_global_state_isolation 10013e2b f   libucrt:initialization.obj
 0001:00012e2e       _uninitialize_environment  10013e2e f   libucrt:initialization.obj
 0001:00012e36       _initialize_pointers       10013e36 f   libucrt:initialization.obj
 0001:00012e64       _uninitialize_vcruntime    10013e64 f   libucrt:initialization.obj
 0001:00012e6d       _uninitialize_allocated_memory 10013e6d f   libucrt:initialization.obj
 0001:00012e84       _uninitialize_allocated_io_buffers 10013e84 f   libucrt:initialization.obj
 0001:00012ed4       ??R<lambda_af42a3ee9806e9a7305d451646e05244>@@QBEXAAPAU__crt_multibyte_data@@@Z 10013ed4 f   libucrt:initialization.obj
 0001:000137c0       $$000000                   100147c0     libucrt:strncmp.obj
 0001:000138ac       ??$?RV<lambda_15ade71b0218206bbe3333a0c9b79046>@@AAV<lambda_da44e0f8b0f19ba52fefafb335991732>@@V<lambda_207f2d024fc103971653565357d6cd41>@@@?$__crt_seh_guarded_call@X@@QAEX$$QAV<lambda_15ade71b0218206bbe3333a0c9b79046>@@AAV<lambda_da44e0f8b0f19ba52fefafb335991732>@@$$QAV<lambda_207f2d024fc103971653565357d6cd41>@@@Z 100148ac f   libucrt:per_thread_data.obj
 0001:000138fe       ??$?RV<lambda_38edbb1296d33220d7e4dd0ed76b244a>@@AAV<lambda_5ce1d447e08cb34b2473517608e21441>@@V<lambda_fb385d3da700c9147fc39e65dd577a8c>@@@?$__crt_seh_guarded_call@X@@QAEX$$QAV<lambda_38edbb1296d33220d7e4dd0ed76b244a>@@AAV<lambda_5ce1d447e08cb34b2473517608e21441>@@$$QAV<lambda_fb385d3da700c9147fc39e65dd577a8c>@@@Z 100148fe f   libucrt:per_thread_data.obj
 0001:00013969       ??$?RV<lambda_6affb1475c98b40b75cdec977db92e3c>@@AAV<lambda_b8d4b9c228a6ecc3f80208dbb4b4a104>@@V<lambda_608742c3c92a14382c1684fc64f96c88>@@@?$__crt_seh_guarded_call@X@@QAEX$$QAV<lambda_6affb1475c98b40b75cdec977db92e3c>@@AAV<lambda_b8d4b9c228a6ecc3f80208dbb4b4a104>@@$$QAV<lambda_608742c3c92a14382c1684fc64f96c88>@@@Z 10014969 f   libucrt:per_thread_data.obj
 0001:000139be       ??$?RV<lambda_a7e850c220f1c8d1e6efeecdedd162c6>@@AAV<lambda_46720907175c18b6c9d2717bc0d2d362>@@V<lambda_9048902d66e8d99359bc9897bbb930a8>@@@?$__crt_seh_guarded_call@X@@QAEX$$QAV<lambda_a7e850c220f1c8d1e6efeecdedd162c6>@@AAV<lambda_46720907175c18b6c9d2717bc0d2d362>@@$$QAV<lambda_9048902d66e8d99359bc9897bbb930a8>@@@Z 100149be f   libucrt:per_thread_data.obj
 0001:00013a18       ?construct_ptd@@YAXQAU__acrt_ptd@@QAPAU__crt_locale_data@@@Z 10014a18 f   libucrt:per_thread_data.obj
 0001:00013ab1       ?destroy_fls@@YGXPAX@Z     10014ab1 f   libucrt:per_thread_data.obj
 0001:00013ad2       ?destroy_ptd@@YAXQAU__acrt_ptd@@@Z 10014ad2 f   libucrt:per_thread_data.obj
 0001:00013b9f       ?replace_current_thread_locale_nolock@@YAXQAU__acrt_ptd@@QAU__crt_locale_data@@@Z 10014b9f f   libucrt:per_thread_data.obj
 0001:00013faf       ?try_get_AreFileApisANSI@@YAP6GHXZXZ 10014faf f   libucrt:winapi_thunks.obj
 0001:00013fc9       ?try_get_LCMapStringEx@@YAP6GHPB_WK0HPA_WHPAU_nlsversioninfo@@PAXJ@ZXZ 10014fc9 f   libucrt:winapi_thunks.obj
 0001:00013fe3       ?try_get_LocaleNameToLCID@@YAP6GKPB_WK@ZXZ 10014fe3 f   libucrt:winapi_thunks.obj
 0001:00013ffd       ?try_get_first_available_module@@YAPAUHINSTANCE__@@QBW4module_id@?A0x391cf84c@@0@Z 10014ffd f   libucrt:winapi_thunks.obj
 0001:000140c4       ?try_get_function@@YAPAXW4function_id@?A0x391cf84c@@QBDQBW4module_id@2@2@Z 100150c4 f   libucrt:winapi_thunks.obj
 0001:00014827       ?fe_to_nearest@@YA_NQBN_KF@Z 10015827 f   libucrt:cvt.obj
 0001:000148ca       ?fp_format_a@@YAHQBNPADIQADIH_NIQAU__crt_locale_pointers@@W4__acrt_rounding_mode@@@Z 100158ca f   libucrt:cvt.obj
 0001:00014bd9       ?fp_format_e@@YAHQBNQADI1IH_NIQAU__crt_locale_pointers@@W4__acrt_rounding_mode@@@Z 10015bd9 f   libucrt:cvt.obj
 0001:00014c81       ?fp_format_e_internal@@YAHQADIH_NIQAU_strflt@@1QAU__crt_locale_pointers@@@Z 10015c81 f   libucrt:cvt.obj
 0001:00014dc9       ?fp_format_f@@YAHQBNQADI1IHQAU__crt_locale_pointers@@W4__acrt_rounding_mode@@@Z 10015dc9 f   libucrt:cvt.obj
 0001:00014e5a       ?fp_format_f_internal@@YAHQADIHQAU_strflt@@_NQAU__crt_locale_pointers@@@Z 10015e5a f   libucrt:cvt.obj
 0001:00014f52       ?fp_format_g@@YAHQBNQADI1IH_NIQAU__crt_locale_pointers@@@Z 10015f52 f   libucrt:cvt.obj
 0001:0001501b       ?fp_format_nan_or_infinity@@YAHW4__acrt_fp_class@@_NPADI1@Z 1001601b f   libucrt:cvt.obj
 0001:000150b0       ?shift_bytes@@YAXQADI0H@Z  100160b0 f   libucrt:cvt.obj
 0001:000150e4       ?should_round_up@@YA_NQBN_KFW4__acrt_rounding_mode@@@Z 100160e4 f   libucrt:cvt.obj
 0001:0001544d       ??$?RV<lambda_e5124f882df8998aaf41531e079ba474>@@AAV<lambda_3e16ef9562a7dcce91392c22ab16ea36>@@V<lambda_e25ca0880e6ef98be67edffd8c599615>@@@?$__crt_seh_guarded_call@X@@QAEX$$QAV<lambda_e5124f882df8998aaf41531e079ba474>@@AAV<lambda_3e16ef9562a7dcce91392c22ab16ea36>@@$$QAV<lambda_e25ca0880e6ef98be67edffd8c599615>@@@Z 1001644d f   libucrt:wsetlocale.obj
 0001:000154ed       ?initialize_inherited_file_handles_nolock@@YAXXZ 100164ed f   libucrt:ioinit.obj
 0001:000155a3       ?initialize_stdio_handles_nolock@@YAXXZ 100165a3 f   libucrt:ioinit.obj
 0001:000157b4       ?<lambda_invoker_cdecl>@<lambda_838c7f62c73c983481e27c09e84b0b5d>@@CAHPBX0@Z 100167b4 f   libucrt:argv_wildcards.obj
 0001:000157cc       ??$__acrt_convert_wcs_mbs_cp@D_WV<lambda_62f6974d9771e494a5ea317cc32e971c>@@U__crt_win32_buffer_internal_dynamic_resizing@@@@YAHQBDAAV?$__crt_win32_buffer@_WU__crt_win32_buffer_internal_dynamic_resizing@@@@ABV<lambda_62f6974d9771e494a5ea317cc32e971c>@@I@Z 100167cc f   libucrt:argv_wildcards.obj
 0001:0001587e       ??$__acrt_convert_wcs_mbs_cp@_WDV<lambda_28bda7af82a03b66c1cb3803a755f95d>@@U__crt_win32_buffer_internal_dynamic_resizing@@@@YAHQB_WAAV?$__crt_win32_buffer@DU__crt_win32_buffer_internal_dynamic_resizing@@@@ABV<lambda_28bda7af82a03b66c1cb3803a755f95d>@@I@Z 1001687e f   libucrt:argv_wildcards.obj
 0001:0001596a       ??$common_expand_argv_wildcards@D@@YAHQAPADQAPAPAD@Z 1001696a f   libucrt:argv_wildcards.obj
 0001:00015b59       ??$copy_and_add_argument_to_buffer@D@@YAHQBD0IAAV?$argument_list@D@?A0x5f5c8891@@@Z 10016b59 f   libucrt:argv_wildcards.obj
 0001:00015c0a       ??$expand_argument_wildcards@D@@YAHQAD0AAV?$argument_list@D@?A0x5f5c8891@@@Z 10016c0a f   libucrt:argv_wildcards.obj
 0001:00015f54       ?expand_if_necessary@?$argument_list@D@?A0x5f5c8891@@AAEHXZ 10016f54 f   libucrt:argv_wildcards.obj
 0001:00015fe6       ??$__acrt_convert_wcs_mbs_cp@_WDV<lambda_0fec1a7b3f42a53036604e18c2d5e07e>@@U__crt_win32_buffer_no_resizing@@@@YAHQB_WAAV?$__crt_win32_buffer@DU__crt_win32_buffer_no_resizing@@@@ABV<lambda_0fec1a7b3f42a53036604e18c2d5e07e>@@I@Z 10016fe6 f   libucrt:getmodulefilenamea.obj
 0001:00016189       ??$?RV<lambda_ceb1ee4838e85a9d631eb091e2fbe199>@@AAV<lambda_ae742caa10f662c28703da3d2ea5e57e>@@V<lambda_cd08b5d6af4937fe54fc07d0c9bf6b37>@@@?$__crt_seh_guarded_call@X@@QAEX$$QAV<lambda_ceb1ee4838e85a9d631eb091e2fbe199>@@AAV<lambda_ae742caa10f662c28703da3d2ea5e57e>@@$$QAV<lambda_cd08b5d6af4937fe54fc07d0c9bf6b37>@@@Z 10017189 f   libucrt:mbctype.obj
 0001:000161d6       ??R<lambda_ae742caa10f662c28703da3d2ea5e57e>@@QBEXXZ 100171d6 f   libucrt:mbctype.obj
 0001:00016259       ?CPtoLocaleName@@YAPB_WH@Z 10017259 f   libucrt:mbctype.obj
 0001:00016297       ?getSystemCP@@YAHH@Z       10017297 f   libucrt:mbctype.obj
 0001:00016308       ?setSBCS@@YAXPAU__crt_multibyte_data@@@Z 10017308 f   libucrt:mbctype.obj
 0001:0001636d       ?setSBUpLow@@YAXPAU__crt_multibyte_data@@@Z 1001736d f   libucrt:mbctype.obj
 0001:000164ed       ?setmbcp_internal@@YAHH_NQAU__acrt_ptd@@QAPAU__crt_multibyte_data@@@Z 100174ed f   libucrt:mbctype.obj
 0001:00016601       ?update_thread_multibyte_data_internal@@YAPAU__crt_multibyte_data@@QAU__acrt_ptd@@QAPAU1@@Z 10017601 f   libucrt:mbctype.obj
 0001:000168ef       _memcpy_s                  100178ef f   libucrt:cfout.obj
 0001:000168ef       _memcpy_s                  100178ef f   libucrt:mbctype.obj
 0001:00016970       ?x_ismbbtype_l@@YAHPAU__crt_locale_pointers@@IHH@Z 10017970 f   libucrt:ismbbyte.obj
 0001:00016b2b       ?find_end_of_double_null_terminated_sequence@@YAPB_WQB_W@Z 10017b2b f   libucrt:get_environment_from_os.obj
 0001:00016c9a       ??$?RV<lambda_cbab9ec6f41b0180b23cc171c22676b0>@@AAV<lambda_44731a7d0e6d81c3e6aa82d741081786>@@V<lambda_4b292cb8dd18144e164572427af410ab>@@@?$__crt_seh_guarded_call@P6AXH@Z@@QAEP6AXH@Z$$QAV<lambda_cbab9ec6f41b0180b23cc171c22676b0>@@AAV<lambda_44731a7d0e6d81c3e6aa82d741081786>@@$$QAV<lambda_4b292cb8dd18144e164572427af410ab>@@@Z 10017c9a f   libucrt:signal.obj
 0001:00016cfe       ?get_global_action_nolock@@YAPAP6AXH@ZH@Z 10017cfe f   libucrt:signal.obj
 0001:00016d40       ?siglookup@@YAPAU__crt_signal_action_t@@HQAU1@@Z 10017d40 f   libucrt:signal.obj
 0001:00016ff9       ??$?RV<lambda_2866be3712abc81a800a822484c830d8>@@AAV<lambda_39ca0ed439415581b5b15c265174cece>@@V<lambda_2b24c74d71094a6cd0cb82e44167d71b>@@@?$__crt_seh_guarded_call@X@@QAEX$$QAV<lambda_2866be3712abc81a800a822484c830d8>@@AAV<lambda_39ca0ed439415581b5b15c265174cece>@@$$QAV<lambda_2b24c74d71094a6cd0cb82e44167d71b>@@@Z 10017ff9 f   libucrt:fflush.obj
 0001:00017085       ??$?RV<lambda_2cc53f568c5a2bb6f192f930a45d44ea>@@AAV<lambda_ab61a845afdef5b7c387490eaf3616ee>@@V<lambda_c2ffc0b7726aa6be21d5f0026187e748>@@@?$__crt_seh_guarded_call@X@@QAEX$$QAV<lambda_2cc53f568c5a2bb6f192f930a45d44ea>@@AAV<lambda_ab61a845afdef5b7c387490eaf3616ee>@@$$QAV<lambda_c2ffc0b7726aa6be21d5f0026187e748>@@@Z 10018085 f   libucrt:fflush.obj
 0001:00017131       ?common_flush_all@@YAH_N@Z 10018131 f   libucrt:fflush.obj
 0001:0001717e       ?common_flush_all_should_try_to_flush_stream@@YA_NV__crt_stdio_stream@@QAH@Z 1001817e f   libucrt:fflush.obj
 0001:000171b1       ?is_stream_flushable_or_commitable@@YA_NJ@Z 100181b1 f   libucrt:fflush.obj
 0001:000176ba       ?GetTableIndexFromLocaleName@@YAHPB_W@Z 100186ba f   libucrt:lcidtoname_downlevel.obj
 0001:00017770       ??R<lambda_3d301b9e52f5099be73030e1f0bf487e>@@QBEIPBD@Z 10018770 f   libucrt:mbrtowc.obj
 0001:000178f6       ?should_round_up@@YA_NQBDHW4__acrt_has_trailing_digits@@W4__acrt_rounding_mode@@@Z 100188f6 f   libucrt:_fptostr.obj
 0001:00019694       ?free_crt_array_internal@@YAXQAPBXI@Z 1001a694 f   libucrt:inittime.obj
 0001:0001a05e       ??$common_tcsncpy_s@D@@YAHQADIQBDI@Z 1001b05e f   libucrt:strncpy_s.obj
 0001:0001a120       $$000000                   1001b120     libucrt:strpbrk.obj
 0001:0001a204       ?__acrt_LCMapStringA_stat@@YAHPAU__crt_locale_pointers@@PB_WKPBDHPADHHH@Z 1001b204 f   libucrt:lcmapstringa.obj
 0001:0001a437       ?initialize_multibyte@@YAHXZ 1001b437 f   libucrt:multibyte_initializer.obj
 0001:0001a446       ??$?RV<lambda_9e9de3de5fa147e2223d7db92bc10aa6>@@AAV<lambda_38ce7e780aa69e748d6df282ebc68efe>@@V<lambda_8ca6da459f0f6780f1cff60fdc3d00e5>@@@?$__crt_seh_guarded_call@H@@QAEH$$QAV<lambda_9e9de3de5fa147e2223d7db92bc10aa6>@@AAV<lambda_38ce7e780aa69e748d6df282ebc68efe>@@$$QAV<lambda_8ca6da459f0f6780f1cff60fdc3d00e5>@@@Z 1001b446 f   libucrt:commit.obj
 0001:0001a565       ?write_double_translated_ansi_nolock@@YA?AUwrite_result@?A0x17268360@@HQBDI@Z 1001b565 f   libucrt:write.obj
 0001:0001a911       ?write_double_translated_unicode_nolock@@YA?AUwrite_result@?A0x17268360@@QBDI@Z 1001b911 f   libucrt:write.obj
 0001:0001a979       ?write_requires_double_translation_nolock@@YA_NH@Z 1001b979 f   libucrt:write.obj
 0001:0001a9ea       ?write_text_ansi_nolock@@YA?AUwrite_result@?A0x17268360@@HQBDI@Z 1001b9ea f   libucrt:write.obj
 0001:0001aac5       ?write_text_utf16le_nolock@@YA?AUwrite_result@?A0x17268360@@HQBDI@Z 1001bac5 f   libucrt:write.obj
 0001:0001abae       ?write_text_utf8_nolock@@YA?AUwrite_result@?A0x17268360@@HQBDI@Z 1001bbae f   libucrt:write.obj
 0001:0001b2d0       $$000000                   1001c2d0     libucrt:log10_impl.obj
 0001:0001b3e0       $$000000                   1001c3e0     libucrt:ceil_pentium4.obj
 0001:0001b4fd       ?to_abstract_control@@YA?AW4__acrt_fenv_abstract_control@@W4__acrt_fenv_machine_sse_control@@@Z 1001c4fd f   libucrt:_fenvutils.obj
 0001:0001b5b9       ?to_abstract_control@@YA?AW4__acrt_fenv_abstract_control@@W4__acrt_fenv_machine_x87_control@@@Z 1001c5b9 f   libucrt:_fenvutils.obj
 0001:0001b672       ?to_machine_sse_control@@YA?AW4__acrt_fenv_machine_sse_control@@W4__acrt_fenv_abstract_control@@@Z 1001c672 f   libucrt:_fenvutils.obj
 0001:0001b73f       ?to_machine_x87_control@@YA?AW4__acrt_fenv_machine_x87_control@@W4__acrt_fenv_abstract_control@@@Z 1001c73f f   libucrt:_fenvutils.obj
 0001:0001bad3       ??$common_lseek_nolock@_J@@YA_JH_JH@Z 1001cad3 f   libucrt:lseek.obj
 0001:0001bcb9       ___hw_cw_sse2              1001ccb9 f   libucrt:ieee87.obj
 0001:0001c13f       __hw_cw                    1001d13f f   libucrt:ieee87.obj
 0001:0001c1f0       $$000000                   1001d1f0     libucrt:log10_pentium4.obj
 0001:0001c480       $$000000                   1001d480     libucrt:87tran.obj
 0001:0001c690       $$000000                   1001d690     libucrt:87disp.obj
 0001:0001c8f0       $$000000                   1001d8f0     libucrt:common.obj
 0001:0001ca80       $$000000                   1001da80     libucrt:genexcep.obj
 0001:0001cd7c       ??$?RV<lambda_218ce3db14220d0be481dae8ef3383b6>@@AAV<lambda_628dfdc04ba53c8bfc02c9951375f3f5>@@V<lambda_57dc472bd5c9d5f3b2cbca59b8a843ae>@@@?$__crt_seh_guarded_call@H@@QAEH$$QAV<lambda_218ce3db14220d0be481dae8ef3383b6>@@AAV<lambda_628dfdc04ba53c8bfc02c9951375f3f5>@@$$QAV<lambda_57dc472bd5c9d5f3b2cbca59b8a843ae>@@@Z 1001dd7c f   libucrt:close.obj
 0001:0001cf70       $$000000                   1001df70     libucrt:_strnicm.obj
 0001:0001cfd1       ?__dcrt_lowio_initialize_console_output@@YAXXZ 1001dfd1 f   libucrt:initcon.obj
 0001:0001deb0       $$000000                   1001eeb0     LIBCMT:ulldvrm.obj
 0001:0001df50       $$000000                   1001ef50     LIBCMT:llmul.obj
 0001:0001df90       $$000000                   1001ef90     LIBCMT:lldvrm.obj
 0001:0001e070       $$000000                   1001f070     LIBCMT:llshl.obj
 0001:0001e090       $$000000                   1001f090     LIBCMT:ullshr.obj
 0001:0001e0b0       $$000000                   1001f0b0     LIBCMT:ftol2.obj
 0001:0001e350       $$000000                   1001f350     libvcruntime:strrchr.obj
 0001:0001e490       $$000000                   1001f490     libvcruntime:strchr.obj
 0001:0001e633       __ehhandler$??2@YAPAXIABUnothrow_t@std@@@Z 1001f633 f   LIBCMT:new_scalar_nothrow.obj
 0001:0001e650       __ehhandler$?CallUnexpected@@YAXPBU_s_ESTypeList@@@Z 1001f650 f   libvcruntime:frame.obj
 0001:0001e66d       ??__F_AtlComModule@ATL@@YAXXZ 1001f66d f   OposVariant.obj
 0001:0001e677       ??__F_AtlWinModule@ATL@@YAXXZ 1001f677 f   OposVariant.obj
 0001:0001e691       ??__F_Module@@YAXXZ        1001f691 f   GestureControl.obj
 0001:0001e6a5       ??__F_AtlBaseModule@ATL@@YAXXZ 1001f6a5 f   atls:atlbase.obj
 0002:00000304       ?_AtlBaseModule$initializer$@ATL@@3P6AXXZA 10020304     atls:atlbase.obj
 0002:00000308       ?_AtlComModule$initializer$@ATL@@3P6AXXZA 10020308     OposVariant.obj
 0002:0000030c       ?_AtlWinModule$initializer$@ATL@@3P6AXXZA 1002030c     OposVariant.obj
 0002:00000310       ?_Module$initializer$@@3P6AXXZA 10020310     GestureControl.obj
 0002:00000314       ??pConnMap$initializer$@?$IConnectionPointContainerImpl@VCOPOSGestureControl@@@ATL@@0P6AXXZA@@3P6AXXZA 10020314     GestureControl.obj
 0002:00000320       ?__scrt_initialize_tss_var@@3P6AHXZA 10020320     LIBCMT:thread_safe_statics.obj
 0002:00001880       _GS_ExceptionPointers      10021880     LIBCMT:gs_report.obj
 0002:00001a10       ?tokenTable@@3QBUStringLiteral@@B 10021a10     libvcruntime:undname.obj
 0002:00001a90       ?nameTable@@3QBUStringLiteral@@B 10021a90     libvcruntime:undname.obj
 0002:00001d28       ?rttiTable@@3QBUStringLiteral@@B 10021d28     libvcruntime:undname.obj
 0002:00001d50       ?IndirectionName@@3QBUStringLiteral@@B 10021d50     libvcruntime:undname.obj
 0002:00001d80       ?PrefixName@@3QBUStringLiteral@@B 10021d80     libvcruntime:undname.obj
 0002:000023b0       ?module_names@?A0xb97aeec8@@3QBQB_WB 100223b0     libvcruntime:winapi_downlevel.obj
 0002:00002458       ?candidate_modules@?1??try_get_FlsAlloc@@YAP6GKP6GXPAX@Z@ZXZ@4QBW4module_id@?A0xb97aeec8@@B 10022458     libvcruntime:winapi_downlevel.obj
 0002:0000246c       ?candidate_modules@?1??try_get_FlsFree@@YAP6GHK@ZXZ@4QBW4module_id@?A0xb97aeec8@@B 1002246c     libvcruntime:winapi_downlevel.obj
 0002:0000247c       ?candidate_modules@?1??try_get_FlsGetValue@@YAP6GPAXK@ZXZ@4QBW4module_id@?A0xb97aeec8@@B 1002247c     libvcruntime:winapi_downlevel.obj
 0002:00002490       ?candidate_modules@?1??try_get_FlsSetValue@@YAP6GHKPAX@ZXZ@4QBW4module_id@?A0xb97aeec8@@B 10022490     libvcruntime:winapi_downlevel.obj
 0002:000024a4       ?candidate_modules@?1??try_get_InitializeCriticalSectionEx@@YAP6GHPAU_RTL_CRITICAL_SECTION@@KK@ZXZ@4QBW4module_id@?A0xb97aeec8@@B 100224a4     libvcruntime:winapi_downlevel.obj
 0002:000024c8       ?errtable@@3QBUerrentry@?A0x31fdb9ec@@B 100224c8     libucrt:errno.obj
 0002:00002b10       ___acrt_initializers       10022b10     libucrt:initialization.obj
 0002:00002b90       ?module_names@?A0x391cf84c@@3QBQB_WB 10022b90     libucrt:winapi_thunks.obj
 0002:00003008       ?candidate_modules@?1??try_get_AreFileApisANSI@@YAP6GHXZXZ@4QBW4module_id@?A0x391cf84c@@B 10023008     libucrt:winapi_thunks.obj
 0002:0000301c       ?candidate_modules@?1??try_get_FlsAlloc@@YAP6GKP6GXPAX@Z@ZXZ@4QBW4module_id@?A0x391cf84c@@B 1002301c     libucrt:winapi_thunks.obj
 0002:00003024       ?candidate_modules@?1??try_get_FlsFree@@YAP6GHK@ZXZ@4QBW4module_id@?A0x391cf84c@@B 10023024     libucrt:winapi_thunks.obj
 0002:0000302c       ?candidate_modules@?1??try_get_FlsGetValue@@YAP6GPAXK@ZXZ@4QBW4module_id@?A0x391cf84c@@B 1002302c     libucrt:winapi_thunks.obj
 0002:00003034       ?candidate_modules@?1??try_get_FlsSetValue@@YAP6GHKPAX@ZXZ@4QBW4module_id@?A0x391cf84c@@B 10023034     libucrt:winapi_thunks.obj
 0002:0000303c       ?candidate_modules@?1??try_get_InitializeCriticalSectionEx@@YAP6GHPAU_RTL_CRITICAL_SECTION@@KK@ZXZ@4QBW4module_id@?A0x391cf84c@@B 1002303c     libucrt:winapi_thunks.obj
 0002:00003044       ?candidate_modules@?1??try_get_LCMapStringEx@@YAP6GHPB_WK0HPA_WHPAU_nlsversioninfo@@PAXJ@ZXZ@4QBW4module_id@?A0x391cf84c@@B 10023044     libucrt:winapi_thunks.obj
 0002:0000305c       ?candidate_modules@?1??try_get_LocaleNameToLCID@@YAP6GKPB_WK@ZXZ@4QBW4module_id@?A0x391cf84c@@B 1002305c     libucrt:winapi_thunks.obj
 0002:00003078       ?candidate_modules@?1??try_get_AppPolicyGetProcessTerminationMethod@@YAP6GJPAXPAW4AppPolicyProcessTerminationMethod@@@ZXZ@4QBW4module_id@?A0x391cf84c@@B 10023078     libucrt:winapi_thunks.obj
 0002:000030a4       ?candidate_modules@?1??try_get_SetThreadStackGuarantee@@YAP6GHPAK@ZXZ@4QBW4module_id@?A0x391cf84c@@B 100230a4     libucrt:winapi_thunks.obj
 0002:000030c8       ?strings@?1??fp_format_nan_or_infinity@@YAHW4__acrt_fp_class@@_NPADI1@Z@4QAY03QBDA 100230c8     libucrt:cvt.obj
 0002:00003610       ?_mb_locale_names@@3QBQB_WB 10023610     libucrt:mbctype.obj
 0002:00003e58       ?LcidToLocaleNameTable@?A0x881e4c05@@3QBULcidToLocaleName@1@B 10023e58     libucrt:lcidtoname_downlevel.obj
 0002:00004f80       ?LocaleNameToIndexTable@?A0x881e4c05@@3QBULocaleNameIndex@1@B 10024f80     libucrt:lcidtoname_downlevel.obj
 0002:000068c0       LOG_name                   100268c0     libucrt:log10_impl.obj
 0002:000068d0       _One                       100268d0     libucrt:ceil_pentium4.obj
 0002:000068e0       _Bns                       100268e0     libucrt:ceil_pentium4.obj
 0002:000068f0       _Zero                      100268f0     libucrt:ceil_pentium4.obj
 0002:00006900       _S                         10026900     libucrt:ceil_pentium4.obj
 0002:00006910       _NegZero                   10026910     libucrt:ceil_pentium4.obj
 0002:00006920       emask                      10026920     libucrt:log10_pentium4.obj
 0002:00006930       CC                         10026930     libucrt:log10_pentium4.obj
 0002:00006940       Magic                      10026940     libucrt:log10_pentium4.obj
 0002:00006950       hi_mask                    10026950     libucrt:log10_pentium4.obj
 0002:00006960       LOG10_2                    10026960     libucrt:log10_pentium4.obj
 0002:00006970       place_L                    10026970     libucrt:log10_pentium4.obj
 0002:00006990       One                        10026990     libucrt:log10_pentium4.obj
 0002:000069a0       Zero                       100269a0     libucrt:log10_pentium4.obj
 0002:000069b0       Two52                      100269b0     libucrt:log10_pentium4.obj
 0002:000069c0       Infs                       100269c0     libucrt:log10_pentium4.obj
 0002:000069d0       NaN                        100269d0     libucrt:log10_pentium4.obj
 0002:000069e0       coeff                      100269e0     libucrt:log10_pentium4.obj
 0002:00006a3e       _log2max                   10026a3e     libucrt:87tran.obj
 0002:00006a48       _smallarg                  10026a48     libucrt:87tran.obj
 0002:00006a52       _half                      10026a52     libucrt:87tran.obj
 0002:00006a9e       One                        10026a9e     libucrt:87disp.obj
 0002:00006aa6       Three                      10026aa6     libucrt:87disp.obj
 0002:00006aae       XAMtoTagTab                10026aae     libucrt:87disp.obj
 0002:00006ac0       One                        10026ac0     libucrt:common.obj
 0002:00006ad4       DblMax                     10026ad4     libucrt:common.obj
 0002:00006adc       DblMin                     10026adc     libucrt:common.obj
 0002:00006ae4       IeeeAdjO                   10026ae4     libucrt:common.obj
 0002:00006aec       IeeeAdjU                   10026aec     libucrt:common.obj
 0002:00006af4       _infinity                  10026af4     libucrt:common.obj
 0002:00006afc       _zero                      10026afc     libucrt:common.obj
 0002:00006b48       _over                      10026b48     libucrt:fpctrl.obj
 0002:00006b54       _under                     10026b54     libucrt:fpctrl.obj
 0002:00007388       ?_names@?1??_get_fname@@9@9 10027388     libucrt:fpexcept.obj
 0002:00007530       two32                      10027530     LIBCMT:ftol2.obj
 0002:00007534       two63                      10027534     LIBCMT:ftol2.obj
 0002:00007538       _NaN                       10027538     LIBCMT:ftol2.obj
 0002:00007c30       __sehtable$?_AtlVerifyStackAvailable@_ATL_SAFE_ALLOCA_IMPL@ATL@@YA_NK@Z 10027c30     GestureControl.obj
 0002:00007c50       __sehtable$___scrt_is_nonwritable_in_current_image 10027c50     LIBCMT:utility.obj
 0002:00007c6c       __catchsym$??2@YAPAXIABUnothrow_t@std@@@Z$2 10027c6c     LIBCMT:new_scalar_nothrow.obj
 0002:00007c7c       __unwindtable$??2@YAPAXIABUnothrow_t@std@@@Z 10027c7c     LIBCMT:new_scalar_nothrow.obj
 0002:00007c8c       __tryblocktable$??2@YAPAXIABUnothrow_t@std@@@Z 10027c8c     LIBCMT:new_scalar_nothrow.obj
 0002:00007ca0       __ehfuncinfo$??2@YAPAXIABUnothrow_t@std@@@Z 10027ca0     LIBCMT:new_scalar_nothrow.obj
 0002:00007cc8       __sehtable$?dllmain_crt_process_attach@@YAHQAUHINSTANCE__@@QAX@Z 10027cc8     LIBCMT:dll_dllmain.obj
 0002:00007ce8       __sehtable$?dllmain_crt_process_detach@@YAH_N@Z 10027ce8     LIBCMT:dll_dllmain.obj
 0002:00007d10       __sehtable$?dllmain_dispatch@@YAHQAUHINSTANCE__@@KQAX@Z 10027d10     LIBCMT:dll_dllmain.obj
 0002:00007dc0       __sehtable$___DestructExceptionObject 10027dc0     libvcruntime:ehhelpers.obj
 0002:00007de0       __sehtable$?FrameUnwindToState@__FrameHandler3@@SAXPAUEHRegistrationNode@@PAXPBU_s_FuncInfo@@H@Z 10027de0     libvcruntime:frame.obj
 0002:00007e08       __sehtable$?CallCatchBlock@@YAPAXPAUEHExceptionRecord@@PAUEHRegistrationNode@@PAU_CONTEXT@@PBU_s_FuncInfo@@PAXHK@Z 10027e08     libvcruntime:frame.obj
 0002:00007e30       __catchsym$?CallUnexpected@@YAXPBU_s_ESTypeList@@@Z$2 10027e30     libvcruntime:frame.obj
 0002:00007e40       __unwindtable$?CallUnexpected@@YAXPBU_s_ESTypeList@@@Z 10027e40     libvcruntime:frame.obj
 0002:00007e50       __tryblocktable$?CallUnexpected@@YAXPBU_s_ESTypeList@@@Z 10027e50     libvcruntime:frame.obj
 0002:00007e64       __ehfuncinfo$?CallUnexpected@@YAXPBU_s_ESTypeList@@@Z 10027e64     libvcruntime:frame.obj
 0002:00007e88       __sehtable$??$BuildCatchObjectHelperInternal@V__FrameHandler3@@@@YAHPAUEHExceptionRecord@@PAXPBU_s_HandlerType@@PBU_s_CatchableType@@@Z 10027e88     libvcruntime:frame.obj
 0002:00007ea8       __sehtable$??$BuildCatchObjectInternal@V__FrameHandler3@@@@YAXPAUEHExceptionRecord@@PAXPBU_s_HandlerType@@PBU_s_CatchableType@@@Z 10027ea8     libvcruntime:frame.obj
 0002:00007f00       __sehtable$??R<lambda_6e4b09c48022b2350581041d5f6b0c4c>@@QBE@XZ 10027f00     libucrt:exit.obj
 0002:00007f20       __sehtable$??$?RV<lambda_03b1d95aef87969028cfba75ccab2455>@@AAV<lambda_6e4b09c48022b2350581041d5f6b0c4c>@@V<lambda_22bdf7517842c4b3e53723af5aa32b9e>@@@?$__crt_seh_guarded_call@X@@QAEX$$QAV<lambda_03b1d95aef87969028cfba75ccab2455>@@AAV<lambda_6e4b09c48022b2350581041d5f6b0c4c>@@$$QAV<lambda_22bdf7517842c4b3e53723af5aa32b9e>@@@Z 10027f20     libucrt:exit.obj
 0002:00007f40       __sehtable$??$?RV<lambda_8e746cf0007f6ed984d6f78af1fec997>@@AAV<lambda_22ebabd17bc4fa466a2aca6d8deb888d>@@V<lambda_18ed0c0b38a6dc0daf1e7ac6d6adf05e>@@@?$__crt_seh_guarded_call@H@@QAEH$$QAV<lambda_8e746cf0007f6ed984d6f78af1fec997>@@AAV<lambda_22ebabd17bc4fa466a2aca6d8deb888d>@@$$QAV<lambda_18ed0c0b38a6dc0daf1e7ac6d6adf05e>@@@Z 10027f40     libucrt:onexit.obj
 0002:00007f60       __sehtable$??$?RV<lambda_69a2805e680e0e292e8ba93315fe43a8>@@AAV<lambda_f03950bc5685219e0bcd2087efbe011e>@@V<lambda_03fcd07e894ec930e3f35da366ca99d6>@@@?$__crt_seh_guarded_call@H@@QAEH$$QAV<lambda_69a2805e680e0e292e8ba93315fe43a8>@@AAV<lambda_f03950bc5685219e0bcd2087efbe011e>@@$$QAV<lambda_03fcd07e894ec930e3f35da366ca99d6>@@@Z 10027f60     libucrt:onexit.obj
 0002:00007f80       __sehtable$__query_new_handler 10027f80     libucrt:new_handler.obj
 0002:00007fa0       __sehtable$_terminate      10027fa0     libucrt:terminate.obj
 0002:00007fc0       __sehtable$??$?RV<lambda_15ade71b0218206bbe3333a0c9b79046>@@AAV<lambda_da44e0f8b0f19ba52fefafb335991732>@@V<lambda_207f2d024fc103971653565357d6cd41>@@@?$__crt_seh_guarded_call@X@@QAEX$$QAV<lambda_15ade71b0218206bbe3333a0c9b79046>@@AAV<lambda_da44e0f8b0f19ba52fefafb335991732>@@$$QAV<lambda_207f2d024fc103971653565357d6cd41>@@@Z 10027fc0     libucrt:per_thread_data.obj
 0002:00007fe0       __sehtable$??$?RV<lambda_a7e850c220f1c8d1e6efeecdedd162c6>@@AAV<lambda_46720907175c18b6c9d2717bc0d2d362>@@V<lambda_9048902d66e8d99359bc9897bbb930a8>@@@?$__crt_seh_guarded_call@X@@QAEX$$QAV<lambda_a7e850c220f1c8d1e6efeecdedd162c6>@@AAV<lambda_46720907175c18b6c9d2717bc0d2d362>@@$$QAV<lambda_9048902d66e8d99359bc9897bbb930a8>@@@Z 10027fe0     libucrt:per_thread_data.obj
 0002:00008000       __sehtable$??$?RV<lambda_38edbb1296d33220d7e4dd0ed76b244a>@@AAV<lambda_5ce1d447e08cb34b2473517608e21441>@@V<lambda_fb385d3da700c9147fc39e65dd577a8c>@@@?$__crt_seh_guarded_call@X@@QAEX$$QAV<lambda_38edbb1296d33220d7e4dd0ed76b244a>@@AAV<lambda_5ce1d447e08cb34b2473517608e21441>@@$$QAV<lambda_fb385d3da700c9147fc39e65dd577a8c>@@@Z 10028000     libucrt:per_thread_data.obj
 0002:00008020       __sehtable$??$?RV<lambda_6affb1475c98b40b75cdec977db92e3c>@@AAV<lambda_b8d4b9c228a6ecc3f80208dbb4b4a104>@@V<lambda_608742c3c92a14382c1684fc64f96c88>@@@?$__crt_seh_guarded_call@X@@QAEX$$QAV<lambda_6affb1475c98b40b75cdec977db92e3c>@@AAV<lambda_b8d4b9c228a6ecc3f80208dbb4b4a104>@@$$QAV<lambda_608742c3c92a14382c1684fc64f96c88>@@@Z 10028020     libucrt:per_thread_data.obj
 0002:00008040       __sehtable$??$?RV<lambda_e5124f882df8998aaf41531e079ba474>@@AAV<lambda_3e16ef9562a7dcce91392c22ab16ea36>@@V<lambda_e25ca0880e6ef98be67edffd8c599615>@@@?$__crt_seh_guarded_call@X@@QAEX$$QAV<lambda_e5124f882df8998aaf41531e079ba474>@@AAV<lambda_3e16ef9562a7dcce91392c22ab16ea36>@@$$QAV<lambda_e25ca0880e6ef98be67edffd8c599615>@@@Z 10028040     libucrt:wsetlocale.obj
 0002:00008060       __sehtable$___acrt_initialize_lowio 10028060     libucrt:ioinit.obj
 0002:00008080       __sehtable$?update_thread_multibyte_data_internal@@YAPAU__crt_multibyte_data@@QAU__acrt_ptd@@QAPAU1@@Z 10028080     libucrt:mbctype.obj
 0002:000080a0       __sehtable$??$?RV<lambda_ceb1ee4838e85a9d631eb091e2fbe199>@@AAV<lambda_ae742caa10f662c28703da3d2ea5e57e>@@V<lambda_cd08b5d6af4937fe54fc07d0c9bf6b37>@@@?$__crt_seh_guarded_call@X@@QAEX$$QAV<lambda_ceb1ee4838e85a9d631eb091e2fbe199>@@AAV<lambda_ae742caa10f662c28703da3d2ea5e57e>@@$$QAV<lambda_cd08b5d6af4937fe54fc07d0c9bf6b37>@@@Z 100280a0     libucrt:mbctype.obj
 0002:000080c0       __sehtable$_raise          100280c0     libucrt:signal.obj
 0002:000080e0       __sehtable$??$?RV<lambda_cbab9ec6f41b0180b23cc171c22676b0>@@AAV<lambda_44731a7d0e6d81c3e6aa82d741081786>@@V<lambda_4b292cb8dd18144e164572427af410ab>@@@?$__crt_seh_guarded_call@P6AXH@Z@@QAEP6AXH@Z$$QAV<lambda_cbab9ec6f41b0180b23cc171c22676b0>@@AAV<lambda_44731a7d0e6d81c3e6aa82d741081786>@@$$QAV<lambda_4b292cb8dd18144e164572427af410ab>@@@Z 100280e0     libucrt:signal.obj
 0002:00008100       __sehtable$??$?RV<lambda_2866be3712abc81a800a822484c830d8>@@AAV<lambda_39ca0ed439415581b5b15c265174cece>@@V<lambda_2b24c74d71094a6cd0cb82e44167d71b>@@@?$__crt_seh_guarded_call@X@@QAEX$$QAV<lambda_2866be3712abc81a800a822484c830d8>@@AAV<lambda_39ca0ed439415581b5b15c265174cece>@@$$QAV<lambda_2b24c74d71094a6cd0cb82e44167d71b>@@@Z 10028100     libucrt:fflush.obj
 0002:00008120       __sehtable$??$?RV<lambda_2cc53f568c5a2bb6f192f930a45d44ea>@@AAV<lambda_ab61a845afdef5b7c387490eaf3616ee>@@V<lambda_c2ffc0b7726aa6be21d5f0026187e748>@@@?$__crt_seh_guarded_call@X@@QAEX$$QAV<lambda_2cc53f568c5a2bb6f192f930a45d44ea>@@AAV<lambda_ab61a845afdef5b7c387490eaf3616ee>@@$$QAV<lambda_c2ffc0b7726aa6be21d5f0026187e748>@@@Z 10028120     libucrt:fflush.obj
 0002:00008140       __sehtable$___acrt_update_thread_locale_data 10028140     libucrt:locale_refcounting.obj
 0002:00008160       __sehtable$__fcloseall     10028160     libucrt:closeall.obj
 0002:00008180       __sehtable$___acrt_lowio_ensure_fh_exists 10028180     libucrt:osfinfo.obj
 0002:000081a0       __sehtable$??$?RV<lambda_9e9de3de5fa147e2223d7db92bc10aa6>@@AAV<lambda_38ce7e780aa69e748d6df282ebc68efe>@@V<lambda_8ca6da459f0f6780f1cff60fdc3d00e5>@@@?$__crt_seh_guarded_call@H@@QAEH$$QAV<lambda_9e9de3de5fa147e2223d7db92bc10aa6>@@AAV<lambda_38ce7e780aa69e748d6df282ebc68efe>@@$$QAV<lambda_8ca6da459f0f6780f1cff60fdc3d00e5>@@@Z 100281a0     libucrt:commit.obj
 0002:000081c0       __sehtable$__write         100281c0     libucrt:write.obj
 0002:000081e0       __sehtable$_fclose         100281e0     libucrt:fclose.obj
 0002:00008200       __sehtable$??$?RV<lambda_218ce3db14220d0be481dae8ef3383b6>@@AAV<lambda_628dfdc04ba53c8bfc02c9951375f3f5>@@V<lambda_57dc472bd5c9d5f3b2cbca59b8a843ae>@@@?$__crt_seh_guarded_call@H@@QAEH$$QAV<lambda_218ce3db14220d0be481dae8ef3383b6>@@AAV<lambda_628dfdc04ba53c8bfc02c9951375f3f5>@@$$QAV<lambda_57dc472bd5c9d5f3b2cbca59b8a843ae>@@@Z 10028200     libucrt:close.obj
 0002:00008220       __sehtable$___set_fpsr_sse2 10028220     libucrt:fpctrl.obj
 0002:00008240       __sehtable$__IsNonwritableInCurrentImage 10028240     LIBCMT:pesect.obj
 0002:00008270       .edata                     10028270     OPOSGestureControl.exp
 0002:00008298       rgpv                       10028298     OPOSGestureControl.exp
 0002:000082a8       rgszName                   100282a8     OPOSGestureControl.exp
 0002:000082b8       rgwOrd                     100282b8     OPOSGestureControl.exp
 0002:000082c0       szName                     100282c0     OPOSGestureControl.exp
 0002:000082d7       $N00001                    100282d7     OPOSGestureControl.exp
 0002:000082e7       $N00002                    100282e7     OPOSGestureControl.exp
 0002:000082f9       $N00003                    100282f9     OPOSGestureControl.exp
 0002:0000830b       $N00004                    1002830b     OPOSGestureControl.exp
 0002:0000891a       .idata$6                   1002891a     kernel32:KERNEL32.dll
 0002:00008b2e       .idata$6                   10028b2e     user32:USER32.dll
 0002:00008c62       .idata$6                   10028c62     gdi32:GDI32.dll
 0002:00008d08       .idata$6                   10028d08     advapi32:ADVAPI32.dll
 0002:00008e24       .idata$6                   10028e24     ole32:ole32.dll
 0002:00008e2e       .idata$6                   10028e2e     oleaut32:OLEAUT32.dll
 0003:00000110       ?ObjectMap@@3PAU_ATL_OBJMAP_ENTRY30@ATL@@A 1002a110     GestureControl.obj
 0003:000001c0       ?s_SOMethodNames@@3PAPADA  1002a1c0     GestureControlImpl.obj
 0003:00000228       ?s_RequiredMethodsPerRelease@@3PAHA 1002a228     GestureControlImpl.obj
 0003:00000250       ?__vcrt_flsindex@@3KA      1002a250     libvcruntime:per_thread_data.obj
 0003:00000270       ?errno_no_memory@@3HA      1002a270     libucrt:errno.obj
 0003:00000274       ?doserrno_no_memory@@3KA   1002a274     libucrt:errno.obj
 0003:00000280       ?__acrt_flsindex@@3KA      1002a280     libucrt:per_thread_data.obj
 0003:00000618       __mbctypes                 1002a618     libucrt:mbctype.obj
 0003:00000720       __mbcasemaps               1002a720     libucrt:mbctype.obj
 0003:00000820       ?__rgctypeflag@@3PADA      1002a820     libucrt:mbctype.obj
 0003:00000828       ?__rgcode_page_info@@3PAUcode_page_info@@A 1002a828     libucrt:mbctype.obj
 0003:00000a80       ?__dcrt_lowio_console_output_handle@@3PAXA 1002aa80     libucrt:initcon.obj
 0003:00000a84       ?__DAZ_ENABLED@?1??__set_fpsr_sse2@@9@9 1002aa84     libucrt:fpctrl.obj
 0003:00000c18       ?is_initialized_as_dll@@3_NA 1002ac18     LIBCMT:utility.obj
 0003:00000c19       ?module_local_atexit_table_initialized@@3_NA 1002ac19     LIBCMT:utility.obj
 0003:00000c1c       ?module_local_atexit_table@@3U_onexit_table_t@@A 1002ac1c     LIBCMT:utility.obj
 0003:00000c28       ?module_local_at_quick_exit_table@@3U_onexit_table_t@@A 1002ac28     LIBCMT:utility.obj
 0003:00000c34       ?g_tss_cv@@3U_RTL_CONDITION_VARIABLE@@A 1002ac34     LIBCMT:thread_safe_statics.obj
 0003:00000c38       ?g_tss_event@@3PAXA        1002ac38     LIBCMT:thread_safe_statics.obj
 0003:00000c3c       ?g_tss_mutex@@3U_RTL_CRITICAL_SECTION@@A 1002ac3c     LIBCMT:thread_safe_statics.obj
 0003:00000c54       ?g_sleep_condition_variable_cs@@3P6GHPAU_RTL_CONDITION_VARIABLE@@PAU_RTL_CRITICAL_SECTION@@K@ZA 1002ac54     LIBCMT:thread_safe_statics.obj
 0003:00000c58       ?g_wake_all_condition_variable@@3P6GXPAU_RTL_CONDITION_VARIABLE@@@ZA 1002ac58     LIBCMT:thread_safe_statics.obj
 0003:00000c60       _GS_ExceptionRecord        1002ac60     LIBCMT:gs_report.obj
 0003:00000cb0       _GS_ContextRecord          1002acb0     LIBCMT:gs_report.obj
 0003:00000f80       ?__proc_attached@@3HA      1002af80     LIBCMT:dll_dllmain.obj
 0003:00000fe4       ?AllocateData@@3P6GPAUAtlThunkData_t@@XZA 1002afe4     atls:atlthunk.obj
 0003:00000fe8       ?InitData@@3P6GXPAUAtlThunkData_t@@PAXI@ZA 1002afe8     atls:atlthunk.obj
 0003:00000fec       ?DataToCode@@3P6GP6GJPAUHWND__@@IIJ@ZPAUAtlThunkData_t@@@ZA 1002afec     atls:atlthunk.obj
 0003:00000ff0       ?FreeData@@3P6GXPAUAtlThunkData_t@@@ZA 1002aff0     atls:atlthunk.obj
 0003:00000ff4       ?Initialized@@3_NA         1002aff4     atls:atlthunk.obj
 0003:00001004       ?__vcrt_startup_thread_ptd@@3U__vcrt_ptd@@A 1002b004     libvcruntime:per_thread_data.obj
 0003:0000102c       ___vcrt_lock_table         1002b02c     libvcruntime:locks.obj
 0003:00001044       ___vcrt_locks_initialized  1002b044     libvcruntime:locks.obj
 0003:00001070       ?heap@@3V_HeapManager@@A   1002b070     libvcruntime:undname.obj
 0003:00001084       ?module_handles@@3PAPAUHINSTANCE__@@A 1002b084     libvcruntime:winapi_downlevel.obj
 0003:00001090       ?function_pointers@@3PAPAXA 1002b090     libvcruntime:winapi_downlevel.obj
 0003:000010a4       ?__acrt_invalid_parameter_handler@@3V?$dual_state_global@P6AXPB_W00II@Z@__crt_state_management@@A 1002b0a4     libucrt:invalid_parameter.obj
 0003:000010a8       ?c_termination_complete@@3JA 1002b0a8     libucrt:exit.obj
 0003:000010ac       ?thread_local_exit_callback_func@@3P6GXPAXK0@ZA 1002b0ac     libucrt:exit.obj
 0003:000010b8       ?program_name@?1???$common_configure_argv@D@@YAHW4_crt_argv_mode@@@Z@4PADA 1002b0b8     libucrt:argv_parsing.obj
 0003:000011e8       ?__acrt_new_handler@@3V?$dual_state_global@P6AHI@Z@__crt_state_management@@A 1002b1e8     libucrt:new_handler.obj
 0003:000011f0       ?module_handles@@3PAPAUHINSTANCE__@@A 1002b1f0     libucrt:winapi_thunks.obj
 0003:00001240       ?encoded_function_pointers@@3PAPAXA 1002b240     libucrt:winapi_thunks.obj
 0003:000012c8       ?internal_state@?1??_mbtowc_l@@9@4U_Mbstatet@@A 1002b2c8     libucrt:mbtowc.obj
 0003:000012d8       ?enable_percent_n@@3IA     1002b2d8     libucrt:printf_count_output.obj
 0003:000014f8       ?__acrt_lock_table@@3PAU_RTL_CRITICAL_SECTION@@A 1002b4f8     libucrt:locks.obj
 0003:00001648       ?__acrt_locks_initialized@@3IA 1002b648     libucrt:locks.obj
 0003:00001658       ?fSystemSet@@3HA           1002b658     libucrt:mbctype.obj
 0003:0000165c       ?initialized@?1??__acrt_initialize_multibyte@@9@4_NA 1002b65c     libucrt:mbctype.obj
 0003:0000167c       ?ctrlc_action@@3V?$dual_state_global@P6AXH@Z@__crt_state_management@@A 1002b67c     libucrt:signal.obj
 0003:00001680       ?ctrlbreak_action@@3V?$dual_state_global@P6AXH@Z@__crt_state_management@@A 1002b680     libucrt:signal.obj
 0003:00001684       ?abort_action@@3V?$dual_state_global@P6AXH@Z@__crt_state_management@@A 1002b684     libucrt:signal.obj
 0003:00001688       ?term_action@@3V?$dual_state_global@P6AXH@Z@__crt_state_management@@A 1002b688     libucrt:signal.obj
 0003:0000168c       ?user_matherr@@3V?$dual_state_global@P6AHPAU_exception@@@Z@__crt_state_management@@A 1002b68c     libucrt:matherr.obj
 0003:00001690       ?__acrt_global_new_mode@@3V?$dual_state_global@J@__crt_state_management@@A 1002b690     libucrt:new_mode.obj
 0003:0000169c       ?internal_pst@?1??__mbrtoc32_utf8@__crt_mbstring@@YAIPA_UPBDIPAU_Mbstatet@@@Z@4U3@A 1002b69c     libucrt:mbrtoc32.obj
 0003:000016a4       ?__acrt_app_type@@3W4_crt_app_type@@A 1002b6a4     libucrt:report_runtime_error.obj
 0003:000016ac       __pmatherr_set             1002b6ac     libucrt:libm_error.obj
 0004:00000220       $R000000                   1002c220     GestureControl.res
 0004:00000b70       $R000950                   1002cb70     GestureControl.res
 0004:00000c58       $R000A38                   1002cc58     GestureControl.res
 0004:00000ec0       $R000CA0                   1002cec0     GestureControl.res
 0004:000013a0       $R001180                   1002d3a0     GestureControl.res
 0004:00004100       $R003EE0                   10030100     GestureControl.res
 0004:00004140       $R003F20                   10030140     GestureControl.res
