 OPOSMICR

 Timestamp is 5d429eb4 (Thu Aug  1 17:11:32 2019)

 Preferred load address is 10000000

 Start         Length     Name                   Class
 0001:00000000 00000080H .text$di                CODE
 0001:00000080 0001d413H .text$mn                CODE
 0001:0001d493 00000036H .text$x                 CODE
 0001:0001d4c9 00000042H .text$yd                CODE
 0002:00000000 000002fcH .idata$5                DATA
 0002:000002fc 00000004H .00cfg                  DATA
 0002:00000300 00000004H .CRT$XCA                DATA
 0002:00000304 00000004H .CRT$XCL                DATA
 0002:00000308 00000010H .CRT$XCU                DATA
 0002:00000318 00000004H .CRT$XCZ                DATA
 0002:0000031c 00000004H .CRT$XIA                DATA
 0002:00000320 00000010H .CRT$XIC                DATA
 0002:00000330 00000004H .CRT$XIZ                DATA
 0002:00000334 00000004H .CRT$XLA                DATA
 0002:00000338 00000004H .CRT$XLZ                DATA
 0002:0000033c 00000004H .CRT$XPA                DATA
 0002:00000340 00000008H .CRT$XPX                DATA
 0002:00000348 00000004H .CRT$XPXA               DATA
 0002:0000034c 00000004H .CRT$XPZ                DATA
 0002:00000350 00000004H .CRT$XTA                DATA
 0002:00000354 0000000cH .CRT$XTZ                DATA
 0002:00000358 00000000H .gfids$y                DATA
 0002:00000360 00006d4cH .rdata                  DATA
 0002:000070ac 00000018H .rdata$T                DATA
 0002:000070c4 0000017cH .rdata$r                DATA
 0002:00007240 0000001cH .rdata$sxdata           DATA
 0002:0000725c 000003d8H .rdata$zzzdbg           DATA
 0002:00007634 00000004H .rtc$IAA                DATA
 0002:00007638 00000004H .rtc$IZZ                DATA
 0002:0000763c 00000004H .rtc$TAA                DATA
 0002:00007640 00000004H .rtc$TZZ                DATA
 0002:00007644 00000004H .tls                    DATA
 0002:00007648 00000004H .tls$                   DATA
 0002:0000764c 00000004H .tls$ZZZ                DATA
 0002:00007650 00000604H .xdata$x                DATA
 0002:00007c54 00000004H ATL$__a                 DATA
 0002:00007c58 00000008H ATL$__z                 DATA
 0002:00007c60 000000a8H .edata                  DATA
 0002:00007d08 00000078H .idata$2                DATA
 0002:00007d80 00000014H .idata$3                DATA
 0002:00007d94 000002fcH .idata$4                DATA
 0002:00008090 00000bc8H .idata$6                DATA
 0003:00000000 00000aa0H .data                   DATA
 0003:00000aa0 00000098H .data$r                 DATA
 0003:00000b38 00000b80H .bss                    DATA
 0004:00000000 00000220H .rsrc$01                DATA
 0004:00000220 00003fc0H .rsrc$02                DATA

  Address         Publics by Value              Rva+Base       Lib:Object

 0000:00000000       ___guard_fids_count        00000000     <absolute>
 0000:00000000       ___hybrid_code_map_count   00000000     <absolute>
 0000:00000000       ___guard_iat_count         00000000     <absolute>
 0000:00000000       ___hybrid_auxiliary_iat    00000000     <absolute>
 0000:00000000       ___volatile_metadata       00000000     <absolute>
 0000:00000000       ___dynamic_value_reloc_table 00000000     <absolute>
 0000:00000000       ___guard_longjmp_count     00000000     <absolute>
 0000:00000000       ___guard_fids_table        00000000     <absolute>
 0000:00000000       ___guard_longjmp_table     00000000     <absolute>
 0000:00000000       ___AbsoluteZero            00000000     <absolute>
 0000:00000000       __except_list              00000000     <absolute>
 0000:00000000       ___guard_iat_table         00000000     <absolute>
 0000:00000000       ___enclave_config          00000000     <absolute>
 0000:00000000       ___hybrid_code_map         00000000     <absolute>
 0000:00000007       ___safe_se_handler_count   00000007     <absolute>
 0000:0000002c       __tls_array                0000002c     <absolute>
 0000:00000100       ___guard_flags             00000100     <absolute>
 0000:00000000       ___ImageBase               10000000     <linker-defined>
 0001:00000080       ?DupWide@_CW@@AAEXXZ       10001080 f   CWString.obj
 0001:0000009c       ?cw_dup@@YGXPBDAAHAAPA_W1@Z 1000109c f   CWString.obj
 0001:0000010b       ?cw_memcpy@@YGHPA_WPBDH@Z  1000110b f   CWString.obj
 0001:00000137       ?cw_strcpy@@YAHPA_WPBD@Z   10001137 f   CWString.obj
 0001:0000014a       ?cw_strlen@@YAHPBD@Z       1000114a f   CWString.obj
 0001:00000163       ??0CAtlComModule@ATL@@QAE@XZ 10001163 f i OposVariant.obj
 0001:000001a8       ??0CAtlWinModule@ATL@@QAE@XZ 100011a8 f i OposVariant.obj
 0001:000001df       ??0OposDispParms@@QAE@PAVOposVariant@@H@Z 100011df f   OposVariant.obj
 0001:00000250       ??1OposDispParms@@QAE@XZ   10001250 f   OposVariant.obj
 0001:0000025e       ??A?$CSimpleArray@GV?$CSimpleArrayEqualHelper@G@ATL@@@ATL@@QAEAAGH@Z 1000125e f i OposVariant.obj
 0001:00000283       ??_Estringdispid@CComTypeInfoHolder@ATL@@QAEPAXI@Z 10001283 f i OposVariant.obj
 0001:000002ef       ?AtlWinModuleInit@ATL@@YGJPAU_ATL_WIN_MODULE70@1@@Z 100012ef f i OposVariant.obj
 0001:00000315       ?AtlWinModuleTerm@ATL@@YGJPAU_ATL_WIN_MODULE70@1@PAUHINSTANCE__@@@Z 10001315 f i OposVariant.obj
 0001:00000378       ?ChangeBSTR@OposVariant@@QAEXPAPA_WAAJ@Z 10001378 f   OposVariant.obj
 0001:000003b9       ?ChangeLONG@OposVariant@@QAEXPAJAAJ@Z 100013b9 f   OposVariant.obj
 0001:000003fa       ?GetLONG@OposVariant@@QAEJXZ 100013fa f   OposVariant.obj
 0001:00000415       ?Init@CComCriticalSection@ATL@@QAEJXZ 10001415 f i OposVariant.obj
 0001:0000043d       ?RemoveAll@?$CSimpleArray@PAUHINSTANCE__@@V?$CSimpleArrayEqualHelper@PAUHINSTANCE__@@@ATL@@@ATL@@QAEXXZ 1000143d f i atls:atlbase.obj
 0001:0000043d       ?RemoveAll@?$CSimpleArray@GV?$CSimpleArrayEqualHelper@G@ATL@@@ATL@@QAEXXZ 1000143d f i OposVariant.obj
 0001:0000045a       ?SetBSTR@OposVariant@@QAEXPA_WAAJ@Z 1000145a f   OposVariant.obj
 0001:0000048e       ?SetBSTR_Copy@OposVariant@@QAEXPA_WAAJ@Z 1000148e f   OposVariant.obj
 0001:000004de       ?SetBSTR_InOutPtr@OposVariant@@QAE_NPAPA_WAAJ@Z 100014de f   OposVariant.obj
 0001:00000515       ?SetDispatch_Ptr@OposVariant@@QAEXPAUIDispatch@@AAJ@Z 10001515 f   OposVariant.obj
 0001:00000550       ?SetLONG@OposVariant@@QAEXJ@Z 10001550 f   OposVariant.obj
 0001:00000572       ?SetLONG_Ptr@OposVariant@@QAEXPAJAAJ@Z 10001572 f   OposVariant.obj
 0001:000005a5       ?SetString@OposVariant@@QAEXPB_WAAJ@Z 100015a5 f   OposVariant.obj
 0001:000005eb       ?SetVARIANT_BOOL@OposVariant@@QAEXF@Z 100015eb f   OposVariant.obj
 0001:00000615       ?Term@CAtlComModule@ATL@@QAEXXZ 10001615 f i OposVariant.obj
 0001:0000065f       ?_AtlRaiseException@ATL@@YAXKK@Z 1000165f f i OposVariant.obj
 0001:00000674       ?AddRef@?$CComObjectCached@VCComClassFactory@ATL@@@ATL@@UAGKXZ 10001674 f i MICR.obj
 0001:0000069b       ?Release@?$CComObjectCached@VCComClassFactory@ATL@@@ATL@@UAGKXZ 1000169b f i MICR.obj
 0001:000006d1       ?QueryInterface@?$CComObjectCached@VCComClassFactory@ATL@@@ATL@@UAGJABU_GUID@@PAPAX@Z 100016d1 f i MICR.obj
 0001:000006eb       ??_G?$CComObjectCached@VCComClassFactory@ATL@@@ATL@@UAEPAXI@Z 100016eb f i MICR.obj
 0001:000006eb       ??_E?$CComObjectCached@VCComClassFactory@ATL@@@ATL@@UAEPAXI@Z 100016eb f i MICR.obj
 0001:0000070d       ?AddRef@?$CComAggObject@VCOPOSMICR@@@ATL@@UAGKXZ 1000170d f i MICR.obj
 0001:0000071e       ?Release@?$CComAggObject@VCOPOSMICR@@@ATL@@UAGKXZ 1000171e f i MICR.obj
 0001:0000075a       ?QueryInterface@?$CComAggObject@VCOPOSMICR@@@ATL@@UAGJABU_GUID@@PAPAX@Z 1000175a f i MICR.obj
 0001:000007a9       ?AddRef@?$CComContainedObject@VCOPOSMICR@@@ATL@@UAGKXZ 100017a9 f i MICR.obj
 0001:000007bf       ?Release@?$CComContainedObject@VCOPOSMICR@@@ATL@@UAGKXZ 100017bf f i MICR.obj
 0001:000007d5       ?QueryInterface@?$CComContainedObject@VCOPOSMICR@@@ATL@@UAGJABU_GUID@@PAPAX@Z 100017d5 f i MICR.obj
 0001:000007f0       ??_G?$CComAggObject@VCOPOSMICR@@@ATL@@UAEPAXI@Z 100017f0 f i MICR.obj
 0001:000007f0       ??_E?$CComAggObject@VCOPOSMICR@@@ATL@@UAEPAXI@Z 100017f0 f i MICR.obj
 0001:00000815       ?AddRef@?$CComObject@VCOPOSMICR@@@ATL@@UAGKXZ 10001815 f i MICR.obj
 0001:0000082c       ?Release@?$CComObject@VCOPOSMICR@@@ATL@@UAGKXZ 1000182c f i MICR.obj
 0001:0000086e       ?QueryInterface@?$CComObject@VCOPOSMICR@@@ATL@@UAGJABU_GUID@@PAPAX@Z 1000186e f i MICR.obj
 0001:00000888       ?Lock@CAtlModule@ATL@@UAEJXZ 10001888 f i MICR.obj
 0001:00000892       ?Unlock@CAtlModule@ATL@@UAEJXZ 10001892 f i MICR.obj
 0001:0000089c       ?GetLockCount@CAtlModule@ATL@@UAEJXZ 1000189c f i MICR.obj
 0001:000008a0       ?GetGITPtr@CAtlModule@ATL@@UAEJPAPAUIGlobalInterfaceTable@@@Z 100018a0 f i MICR.obj
 0001:000008ec       ?AddCommonRGSReplacements@?$CAtlModuleT@VCComModule@ATL@@@ATL@@UAEJPAUIRegistrarBase@@@Z 100018ec f i MICR.obj
 0001:00000906       ?UpdateRegistryFromResourceD@CComModule@ATL@@UAGJPB_WHPAU_ATL_REGMAP_ENTRY@2@@Z 10001906 f i MICR.obj
 0001:00000906       ?UpdateRegistryFromResourceD@CComModule@ATL@@UAGJIHPAU_ATL_REGMAP_ENTRY@2@@Z 10001906 f i MICR.obj
 0001:0000090e       ?UpdateRegistryFromResource@CComModule@ATL@@UAGJPB_WHPAU_ATL_REGMAP_ENTRY@2@@Z 1000190e f i MICR.obj
 0001:00000917       ?UpdateRegistryFromResource@CComModule@ATL@@UAGJIHPAU_ATL_REGMAP_ENTRY@2@@Z 10001917 f i MICR.obj
 0001:00000920       ??_GCComModule@ATL@@UAEPAXI@Z 10001920 f i MICR.obj
 0001:00000920       ??_ECComModule@ATL@@UAEPAXI@Z 10001920 f i MICR.obj
 0001:00000948       ?OnDrawAdvanced@CComControlBase@ATL@@UAEJAAUATL_DRAWINFO@@@Z 10001948 f i MICR.obj
 0001:00000a37       ?Next@?$CComEnumImpl@UIEnumConnections@@$1?_GUID_b196b287_bab4_101a_b69c_00aa00341d07@@3U__s_GUID@@BUtagCONNECTDATA@@V?$_Copy@UtagCONNECTDATA@@@ATL@@@ATL@@UAGJKPAUtagCONNECTDATA@@PAK@Z 10001a37 f i MICR.obj
 0001:00000b0e       ?Skip@?$CComEnumImpl@UIEnumConnections@@$1?_GUID_b196b287_bab4_101a_b69c_00aa00341d07@@3U__s_GUID@@BUtagCONNECTDATA@@V?$_Copy@UtagCONNECTDATA@@@ATL@@@ATL@@UAGJK@Z 10001b0e f i MICR.obj
 0001:00000b3b       ?Reset@?$CComEnumImpl@UIEnumConnections@@$1?_GUID_b196b287_bab4_101a_b69c_00aa00341d07@@3U__s_GUID@@BUtagCONNECTDATA@@V?$_Copy@UtagCONNECTDATA@@@ATL@@@ATL@@UAGJXZ 10001b3b f i MICR.obj
 0001:00000b3b       ?Reset@?$CComEnumImpl@UIEnumConnectionPoints@@$1?_GUID_b196b285_bab4_101a_b69c_00aa00341d07@@3U__s_GUID@@BPAUIConnectionPoint@@V?$_CopyInterface@UIConnectionPoint@@@ATL@@@ATL@@UAGJXZ 10001b3b f i MICR.obj
 0001:00000b4d       ?Clone@?$CComEnumImpl@UIEnumConnections@@$1?_GUID_b196b287_bab4_101a_b69c_00aa00341d07@@3U__s_GUID@@BUtagCONNECTDATA@@V?$_Copy@UtagCONNECTDATA@@@ATL@@@ATL@@UAGJPAPAUIEnumConnections@@@Z 10001b4d f i MICR.obj
 0001:00000c2e       ?AddRef@?$CComObject@V?$CComEnum@UIEnumConnections@@$1?_GUID_b196b287_bab4_101a_b69c_00aa00341d07@@3U__s_GUID@@BUtagCONNECTDATA@@V?$_Copy@UtagCONNECTDATA@@@ATL@@VCComSingleThreadModel@6@@ATL@@@ATL@@UAGKXZ 10001c2e f i MICR.obj
 0001:00000c2e       ?AddRef@?$CComObject@V?$CComEnum@UIEnumConnectionPoints@@$1?_GUID_b196b285_bab4_101a_b69c_00aa00341d07@@3U__s_GUID@@BPAUIConnectionPoint@@V?$_CopyInterface@UIConnectionPoint@@@ATL@@VCComSingleThreadModel@6@@ATL@@@ATL@@UAGKXZ 10001c2e f i MICR.obj
 0001:00000c3f       ?Release@?$CComObject@V?$CComEnum@UIEnumConnectionPoints@@$1?_GUID_b196b285_bab4_101a_b69c_00aa00341d07@@3U__s_GUID@@BPAUIConnectionPoint@@V?$_CopyInterface@UIConnectionPoint@@@ATL@@VCComSingleThreadModel@6@@ATL@@@ATL@@UAGKXZ 10001c3f f i MICR.obj
 0001:00000c3f       ?Release@?$CComObject@V?$CComEnum@UIEnumConnections@@$1?_GUID_b196b287_bab4_101a_b69c_00aa00341d07@@3U__s_GUID@@BUtagCONNECTDATA@@V?$_Copy@UtagCONNECTDATA@@@ATL@@VCComSingleThreadModel@6@@ATL@@@ATL@@UAGKXZ 10001c3f f i MICR.obj
 0001:00000c7b       ?QueryInterface@?$CComObject@V?$CComEnum@UIEnumConnections@@$1?_GUID_b196b287_bab4_101a_b69c_00aa00341d07@@3U__s_GUID@@BUtagCONNECTDATA@@V?$_Copy@UtagCONNECTDATA@@@ATL@@VCComSingleThreadModel@6@@ATL@@@ATL@@UAGJABU_GUID@@PAPAX@Z 10001c7b f i MICR.obj
 0001:00000c95       ??_E?$CComObject@V?$CComEnum@UIEnumConnections@@$1?_GUID_b196b287_bab4_101a_b69c_00aa00341d07@@3U__s_GUID@@BUtagCONNECTDATA@@V?$_Copy@UtagCONNECTDATA@@@ATL@@VCComSingleThreadModel@6@@ATL@@@ATL@@UAEPAXI@Z 10001c95 f i MICR.obj
 0001:00000c95       ??_G?$CComObject@V?$CComEnum@UIEnumConnections@@$1?_GUID_b196b287_bab4_101a_b69c_00aa00341d07@@3U__s_GUID@@BUtagCONNECTDATA@@V?$_Copy@UtagCONNECTDATA@@@ATL@@VCComSingleThreadModel@6@@ATL@@@ATL@@UAEPAXI@Z 10001c95 f i MICR.obj
 0001:00000cb7       ?GetRect@?$IViewObjectExImpl@VCOPOSMICR@@@ATL@@UAGJKPAU_RECTL@@@Z 10001cb7 f i MICR.obj
 0001:00000cb7       ?GetClipboardData@?$IOleObjectImpl@VCOPOSMICR@@@ATL@@UAGJKPAPAUIDataObject@@@Z 10001cb7 f i MICR.obj
 0001:00000cb7       ?GetDataHere@?$IDataObjectImpl@VCOPOSMICR@@@ATL@@UAGJPAUtagFORMATETC@@PAUtagSTGMEDIUM@@@Z 10001cb7 f i MICR.obj
 0001:00000cb7       ?EnumFormatEtc@?$IDataObjectImpl@VCOPOSMICR@@@ATL@@UAGJKPAPAUIEnumFORMATETC@@@Z 10001cb7 f i MICR.obj
 0001:00000cb7       ?SetMoniker@?$IOleObjectImpl@VCOPOSMICR@@@ATL@@UAGJKPAUIMoniker@@@Z 10001cb7 f i MICR.obj
 0001:00000cb7       ?QueryInterface@CRegObject@ATL@@UAGJABU_GUID@@PAPAX@Z 10001cb7 f i MICR.obj
 0001:00000cb7       ?GetCanonicalFormatEtc@?$IDataObjectImpl@VCOPOSMICR@@@ATL@@UAGJPAUtagFORMATETC@@0@Z 10001cb7 f i MICR.obj
 0001:00000cbf       ?AddRef@CRegObject@ATL@@UAGKXZ 10001cbf f i MICR.obj
 0001:00000cc5       ?IsUpToDate@?$IOleObjectImpl@VCOPOSMICR@@@ATL@@UAGJXZ 10001cc5 f i MICR.obj
 0001:00000cc5       ?Update@?$IOleObjectImpl@VCOPOSMICR@@@ATL@@UAGJXZ 10001cc5 f i MICR.obj
 0001:00000cc5       ?HandsOffStorage@?$IPersistStorageImpl@VCOPOSMICR@@@ATL@@UAGJXZ 10001cc5 f i MICR.obj
 0001:00000cc5       ?Release@CRegObject@ATL@@UAGKXZ 10001cc5 f i MICR.obj
 0001:00000cca       ?AddReplacement@CRegObject@ATL@@UAGJPB_W0@Z 10001cca f i MICR.obj
 0001:00000d03       ?ClearReplacements@CRegObject@ATL@@UAGJXZ 10001d03 f i MICR.obj
 0001:00000d15       ??_ECRegObject@ATL@@UAEPAXI@Z 10001d15 f i MICR.obj
 0001:00000d15       ??_GCRegObject@ATL@@UAEPAXI@Z 10001d15 f i MICR.obj
 0001:00000d37       ??_E?$CComObject@VCOPOSMICR@@@ATL@@W3AEPAXI@Z 10001d37 f i MICR.obj
 0001:00000d3f       ??_E?$CComObject@VCOPOSMICR@@@ATL@@WEM@AEPAXI@Z 10001d3f f i MICR.obj
 0001:00000d47       ?QueryInterface@?$CComObject@VCOPOSMICR@@@ATL@@WHA@AGJABU_GUID@@PAPAX@Z 10001d47 f i MICR.obj
 0001:00000d51       ?AddRef@?$CComObject@VCOPOSMICR@@@ATL@@WHA@AGKXZ 10001d51 f i MICR.obj
 0001:00000d5b       ?Release@?$CComObject@VCOPOSMICR@@@ATL@@WHA@AGKXZ 10001d5b f i MICR.obj
 0001:00000d65       ?QueryInterface@?$CComObject@VCOPOSMICR@@@ATL@@WHE@AGJABU_GUID@@PAPAX@Z 10001d65 f i MICR.obj
 0001:00000d6f       ?AddRef@?$CComObject@VCOPOSMICR@@@ATL@@WHE@AGKXZ 10001d6f f i MICR.obj
 0001:00000d79       ?Release@?$CComObject@VCOPOSMICR@@@ATL@@WHE@AGKXZ 10001d79 f i MICR.obj
 0001:00000d83       ?QueryInterface@?$CComObject@VCOPOSMICR@@@ATL@@WHI@AGJABU_GUID@@PAPAX@Z 10001d83 f i MICR.obj
 0001:00000d8d       ?AddRef@?$CComObject@VCOPOSMICR@@@ATL@@WHI@AGKXZ 10001d8d f i MICR.obj
 0001:00000d97       ?Release@?$CComObject@VCOPOSMICR@@@ATL@@WHI@AGKXZ 10001d97 f i MICR.obj
 0001:00000da1       ?QueryInterface@?$CComObject@VCOPOSMICR@@@ATL@@WHM@AGJABU_GUID@@PAPAX@Z 10001da1 f i MICR.obj
 0001:00000dab       ?AddRef@?$CComObject@VCOPOSMICR@@@ATL@@WHM@AGKXZ 10001dab f i MICR.obj
 0001:00000db5       ?Release@?$CComObject@VCOPOSMICR@@@ATL@@WHM@AGKXZ 10001db5 f i MICR.obj
 0001:00000dbf       ?QueryInterface@?$CComObject@VCOPOSMICR@@@ATL@@WIA@AGJABU_GUID@@PAPAX@Z 10001dbf f i MICR.obj
 0001:00000dcc       ?AddRef@?$CComObject@VCOPOSMICR@@@ATL@@WIA@AGKXZ 10001dcc f i MICR.obj
 0001:00000dd9       ?Release@?$CComObject@VCOPOSMICR@@@ATL@@WIA@AGKXZ 10001dd9 f i MICR.obj
 0001:00000de6       ?QueryInterface@?$CComObject@VCOPOSMICR@@@ATL@@WIE@AGJABU_GUID@@PAPAX@Z 10001de6 f i MICR.obj
 0001:00000df3       ?AddRef@?$CComObject@VCOPOSMICR@@@ATL@@WIE@AGKXZ 10001df3 f i MICR.obj
 0001:00000e00       ?Release@?$CComObject@VCOPOSMICR@@@ATL@@WIE@AGKXZ 10001e00 f i MICR.obj
 0001:00000e0d       ?QueryInterface@?$CComObject@VCOPOSMICR@@@ATL@@WII@AGJABU_GUID@@PAPAX@Z 10001e0d f i MICR.obj
 0001:00000e1a       ?AddRef@?$CComObject@VCOPOSMICR@@@ATL@@WII@AGKXZ 10001e1a f i MICR.obj
 0001:00000e27       ?Release@?$CComObject@VCOPOSMICR@@@ATL@@WII@AGKXZ 10001e27 f i MICR.obj
 0001:00000e34       ?QueryInterface@?$CComObject@VCOPOSMICR@@@ATL@@WIM@AGJABU_GUID@@PAPAX@Z 10001e34 f i MICR.obj
 0001:00000e41       ?AddRef@?$CComObject@VCOPOSMICR@@@ATL@@WIM@AGKXZ 10001e41 f i MICR.obj
 0001:00000e4e       ?Release@?$CComObject@VCOPOSMICR@@@ATL@@WIM@AGKXZ 10001e4e f i MICR.obj
 0001:00000e5b       ?QueryInterface@?$CComObject@VCOPOSMICR@@@ATL@@WJA@AGJABU_GUID@@PAPAX@Z 10001e5b f i MICR.obj
 0001:00000e68       ?AddRef@?$CComObject@VCOPOSMICR@@@ATL@@WJA@AGKXZ 10001e68 f i MICR.obj
 0001:00000e75       ?Release@?$CComObject@VCOPOSMICR@@@ATL@@WJA@AGKXZ 10001e75 f i MICR.obj
 0001:00000e82       ?QueryInterface@?$CComObject@VCOPOSMICR@@@ATL@@WJE@AGJABU_GUID@@PAPAX@Z 10001e82 f i MICR.obj
 0001:00000e8f       ?AddRef@?$CComObject@VCOPOSMICR@@@ATL@@WJE@AGKXZ 10001e8f f i MICR.obj
 0001:00000e9c       ?Release@?$CComObject@VCOPOSMICR@@@ATL@@WJE@AGKXZ 10001e9c f i MICR.obj
 0001:00000ea9       ?QueryInterface@?$CComObject@VCOPOSMICR@@@ATL@@WJI@AGJABU_GUID@@PAPAX@Z 10001ea9 f i MICR.obj
 0001:00000eb6       ?AddRef@?$CComObject@VCOPOSMICR@@@ATL@@WJI@AGKXZ 10001eb6 f i MICR.obj
 0001:00000ec3       ?Release@?$CComObject@VCOPOSMICR@@@ATL@@WJI@AGKXZ 10001ec3 f i MICR.obj
 0001:00000ed0       ?QueryInterface@?$CComObject@VCOPOSMICR@@@ATL@@WJM@AGJABU_GUID@@PAPAX@Z 10001ed0 f i MICR.obj
 0001:00000edd       ?AddRef@?$CComObject@VCOPOSMICR@@@ATL@@WJM@AGKXZ 10001edd f i MICR.obj
 0001:00000eea       ?Release@?$CComObject@VCOPOSMICR@@@ATL@@WJM@AGKXZ 10001eea f i MICR.obj
 0001:00000ef7       ?QueryInterface@?$CComObject@VCOPOSMICR@@@ATL@@WKA@AGJABU_GUID@@PAPAX@Z 10001ef7 f i MICR.obj
 0001:00000f04       ?AddRef@?$CComObject@VCOPOSMICR@@@ATL@@WKA@AGKXZ 10001f04 f i MICR.obj
 0001:00000f11       ?Release@?$CComObject@VCOPOSMICR@@@ATL@@WKA@AGKXZ 10001f11 f i MICR.obj
 0001:00000f1e       ?AddRef@?$CComObject@VCOPOSMICR@@@ATL@@WKI@AGKXZ 10001f1e f i MICR.obj
 0001:00000f2b       ?Release@?$CComObject@VCOPOSMICR@@@ATL@@WKI@AGKXZ 10001f2b f i MICR.obj
 0001:00000f38       ?AddRef@?$CComObject@VCOPOSMICR@@@ATL@@WLE@AGKXZ 10001f38 f i MICR.obj
 0001:00000f45       ?Release@?$CComObject@VCOPOSMICR@@@ATL@@WLE@AGKXZ 10001f45 f i MICR.obj
 0001:00000f52       ??_E?$CComContainedObject@VCOPOSMICR@@@ATL@@W3AEPAXI@Z 10001f52 f i MICR.obj
 0001:00000f5a       ??_E?$CComContainedObject@VCOPOSMICR@@@ATL@@WEM@AEPAXI@Z 10001f5a f i MICR.obj
 0001:00000f62       ?QueryInterface@?$CComContainedObject@VCOPOSMICR@@@ATL@@WHA@AGJABU_GUID@@PAPAX@Z 10001f62 f i MICR.obj
 0001:00000f6c       ?AddRef@?$CComContainedObject@VCOPOSMICR@@@ATL@@WHA@AGKXZ 10001f6c f i MICR.obj
 0001:00000f76       ?Release@?$CComContainedObject@VCOPOSMICR@@@ATL@@WHA@AGKXZ 10001f76 f i MICR.obj
 0001:00000f80       ?QueryInterface@?$CComContainedObject@VCOPOSMICR@@@ATL@@WHE@AGJABU_GUID@@PAPAX@Z 10001f80 f i MICR.obj
 0001:00000f8a       ?AddRef@?$CComContainedObject@VCOPOSMICR@@@ATL@@WHE@AGKXZ 10001f8a f i MICR.obj
 0001:00000f94       ?Release@?$CComContainedObject@VCOPOSMICR@@@ATL@@WHE@AGKXZ 10001f94 f i MICR.obj
 0001:00000f9e       ?QueryInterface@?$CComContainedObject@VCOPOSMICR@@@ATL@@WHI@AGJABU_GUID@@PAPAX@Z 10001f9e f i MICR.obj
 0001:00000fa8       ?AddRef@?$CComContainedObject@VCOPOSMICR@@@ATL@@WHI@AGKXZ 10001fa8 f i MICR.obj
 0001:00000fb2       ?Release@?$CComContainedObject@VCOPOSMICR@@@ATL@@WHI@AGKXZ 10001fb2 f i MICR.obj
 0001:00000fbc       ?QueryInterface@?$CComContainedObject@VCOPOSMICR@@@ATL@@WHM@AGJABU_GUID@@PAPAX@Z 10001fbc f i MICR.obj
 0001:00000fc6       ?AddRef@?$CComContainedObject@VCOPOSMICR@@@ATL@@WHM@AGKXZ 10001fc6 f i MICR.obj
 0001:00000fd0       ?Release@?$CComContainedObject@VCOPOSMICR@@@ATL@@WHM@AGKXZ 10001fd0 f i MICR.obj
 0001:00000fda       ?QueryInterface@?$CComContainedObject@VCOPOSMICR@@@ATL@@WIA@AGJABU_GUID@@PAPAX@Z 10001fda f i MICR.obj
 0001:00000fe7       ?AddRef@?$CComContainedObject@VCOPOSMICR@@@ATL@@WIA@AGKXZ 10001fe7 f i MICR.obj
 0001:00000ff4       ?Release@?$CComContainedObject@VCOPOSMICR@@@ATL@@WIA@AGKXZ 10001ff4 f i MICR.obj
 0001:00001001       ?QueryInterface@?$CComContainedObject@VCOPOSMICR@@@ATL@@WIE@AGJABU_GUID@@PAPAX@Z 10002001 f i MICR.obj
 0001:0000100e       ?AddRef@?$CComContainedObject@VCOPOSMICR@@@ATL@@WIE@AGKXZ 1000200e f i MICR.obj
 0001:0000101b       ?Release@?$CComContainedObject@VCOPOSMICR@@@ATL@@WIE@AGKXZ 1000201b f i MICR.obj
 0001:00001028       ?QueryInterface@?$CComContainedObject@VCOPOSMICR@@@ATL@@WII@AGJABU_GUID@@PAPAX@Z 10002028 f i MICR.obj
 0001:00001035       ?AddRef@?$CComContainedObject@VCOPOSMICR@@@ATL@@WII@AGKXZ 10002035 f i MICR.obj
 0001:00001042       ?Release@?$CComContainedObject@VCOPOSMICR@@@ATL@@WII@AGKXZ 10002042 f i MICR.obj
 0001:0000104f       ?QueryInterface@?$CComContainedObject@VCOPOSMICR@@@ATL@@WIM@AGJABU_GUID@@PAPAX@Z 1000204f f i MICR.obj
 0001:0000105c       ?AddRef@?$CComContainedObject@VCOPOSMICR@@@ATL@@WIM@AGKXZ 1000205c f i MICR.obj
 0001:00001069       ?Release@?$CComContainedObject@VCOPOSMICR@@@ATL@@WIM@AGKXZ 10002069 f i MICR.obj
 0001:00001076       ?QueryInterface@?$CComContainedObject@VCOPOSMICR@@@ATL@@WJA@AGJABU_GUID@@PAPAX@Z 10002076 f i MICR.obj
 0001:00001083       ?AddRef@?$CComContainedObject@VCOPOSMICR@@@ATL@@WJA@AGKXZ 10002083 f i MICR.obj
 0001:00001090       ?Release@?$CComContainedObject@VCOPOSMICR@@@ATL@@WJA@AGKXZ 10002090 f i MICR.obj
 0001:0000109d       ?QueryInterface@?$CComContainedObject@VCOPOSMICR@@@ATL@@WJE@AGJABU_GUID@@PAPAX@Z 1000209d f i MICR.obj
 0001:000010aa       ?AddRef@?$CComContainedObject@VCOPOSMICR@@@ATL@@WJE@AGKXZ 100020aa f i MICR.obj
 0001:000010b7       ?Release@?$CComContainedObject@VCOPOSMICR@@@ATL@@WJE@AGKXZ 100020b7 f i MICR.obj
 0001:000010c4       ?QueryInterface@?$CComContainedObject@VCOPOSMICR@@@ATL@@WJI@AGJABU_GUID@@PAPAX@Z 100020c4 f i MICR.obj
 0001:000010d1       ?AddRef@?$CComContainedObject@VCOPOSMICR@@@ATL@@WJI@AGKXZ 100020d1 f i MICR.obj
 0001:000010de       ?Release@?$CComContainedObject@VCOPOSMICR@@@ATL@@WJI@AGKXZ 100020de f i MICR.obj
 0001:000010eb       ?QueryInterface@?$CComContainedObject@VCOPOSMICR@@@ATL@@WJM@AGJABU_GUID@@PAPAX@Z 100020eb f i MICR.obj
 0001:000010f8       ?AddRef@?$CComContainedObject@VCOPOSMICR@@@ATL@@WJM@AGKXZ 100020f8 f i MICR.obj
 0001:00001105       ?Release@?$CComContainedObject@VCOPOSMICR@@@ATL@@WJM@AGKXZ 10002105 f i MICR.obj
 0001:00001112       ?QueryInterface@?$CComContainedObject@VCOPOSMICR@@@ATL@@WKA@AGJABU_GUID@@PAPAX@Z 10002112 f i MICR.obj
 0001:0000111f       ?AddRef@?$CComContainedObject@VCOPOSMICR@@@ATL@@WKA@AGKXZ 1000211f f i MICR.obj
 0001:0000112c       ?Release@?$CComContainedObject@VCOPOSMICR@@@ATL@@WKA@AGKXZ 1000212c f i MICR.obj
 0001:00001139       ?AddRef@?$CComContainedObject@VCOPOSMICR@@@ATL@@WKI@AGKXZ 10002139 f i MICR.obj
 0001:00001146       ?Release@?$CComContainedObject@VCOPOSMICR@@@ATL@@WKI@AGKXZ 10002146 f i MICR.obj
 0001:00001153       ?AddRef@?$CComContainedObject@VCOPOSMICR@@@ATL@@WLE@AGKXZ 10002153 f i MICR.obj
 0001:00001160       ?Release@?$CComContainedObject@VCOPOSMICR@@@ATL@@WLE@AGKXZ 10002160 f i MICR.obj
 0001:0000116d       ?GetWindowProc@?$CWindowImplBaseT@VCWindow@ATL@@V?$CWinTraits@$0FGAAAAAA@$0A@@2@@ATL@@UAEP6GJPAUHWND__@@IIJ@ZXZ 1000216d f i MICR.obj
 0001:00001173       ?StartWindowProc@?$CWindowImplBaseT@VCWindow@ATL@@V?$CWinTraits@$0FGAAAAAA@$0A@@2@@ATL@@SGJPAUHWND__@@IIJ@Z 10002173 f i MICR.obj
 0001:000011c7       ?ObjectMain@CComObjectRootBase@ATL@@SGX_N@Z 100021c7 f i MICR.obj
 0001:000011c7       ?OnFinalMessage@?$CWindowImplBaseT@VCWindow@ATL@@V?$CWinTraits@$0FGAAAAAA@$0A@@2@@ATL@@UAEXPAUHWND__@@@Z 100021c7 f i MICR.obj
 0001:000011ca       ?GetTypeInfoCount@?$IDispatchImpl@UIOPOSMICR@@$1?IID_IOPOSMICR@@3U_GUID@@B$1?LIBID_OposMICR_CCO@@3U3@B$00$0A@VCComTypeInfoHolder@ATL@@@ATL@@UAGJPAI@Z 100021ca f i MICR.obj
 0001:000011e7       ?GetTypeInfo@?$IDispatchImpl@UIOPOSMICR@@$1?IID_IOPOSMICR@@3U_GUID@@B$1?LIBID_OposMICR_CCO@@3U3@B$00$0A@VCComTypeInfoHolder@ATL@@@ATL@@UAGJIKPAPAUITypeInfo@@@Z 100021e7 f i MICR.obj
 0001:0000120b       ?GetIDsOfNames@?$IDispatchImpl@UIOPOSMICR@@$1?IID_IOPOSMICR@@3U_GUID@@B$1?LIBID_OposMICR_CCO@@3U3@B$00$0A@VCComTypeInfoHolder@ATL@@@ATL@@UAGJABU_GUID@@PAPA_WIKPAJ@Z 1000220b f i MICR.obj
 0001:0000122b       ?Invoke@?$IDispatchImpl@UIOPOSMICR@@$1?IID_IOPOSMICR@@3U_GUID@@B$1?LIBID_OposMICR_CCO@@3U3@B$00$0A@VCComTypeInfoHolder@ATL@@@ATL@@UAGJJABU_GUID@@KGPAUtagDISPPARAMS@@PAUtagVARIANT@@PAUtagEXCEPINFO@@PAI@Z 1000222b f i MICR.obj
 0001:00001239       ?CreateControlWindow@?$CComControl@VCOPOSMICR@@V?$CWindowImpl@VCOPOSMICR@@VCWindow@ATL@@V?$CWinTraits@$0FGAAAAAA@$0A@@3@@ATL@@@ATL@@UAEPAUHWND__@@PAU3@AAUtagRECT@@@Z 10002239 f i MICR.obj
 0001:00001268       ?ControlQueryInterface@?$CComControl@VCOPOSMICR@@V?$CWindowImpl@VCOPOSMICR@@VCWindow@ATL@@V?$CWinTraits@$0FGAAAAAA@$0A@@3@@ATL@@@ATL@@UAEJABU_GUID@@PAPAX@Z 10002268 f i MICR.obj
 0001:00001283       ?GetClassID@?$IPersistStreamInitImpl@VCOPOSMICR@@@ATL@@UAGJPAU_GUID@@@Z 10002283 f i MICR.obj
 0001:00001283       ?GetClassID@?$IPersistStorageImpl@VCOPOSMICR@@@ATL@@UAGJPAU_GUID@@@Z 10002283 f i MICR.obj
 0001:00001283       ?GetUserClassID@?$IOleObjectImpl@VCOPOSMICR@@@ATL@@UAGJPAU_GUID@@@Z 10002283 f i MICR.obj
 0001:000012a7       ?IsDirty@?$IPersistStreamInitImpl@VCOPOSMICR@@@ATL@@UAGJXZ 100022a7 f i MICR.obj
 0001:000012c6       ?Load@?$IPersistStreamInitImpl@VCOPOSMICR@@@ATL@@UAGJPAUIStream@@@Z 100022c6 f i MICR.obj
 0001:000012e5       ?Save@?$IPersistStreamInitImpl@VCOPOSMICR@@@ATL@@UAGJPAUIStream@@H@Z 100022e5 f i MICR.obj
 0001:00001307       ?GetSizeMax@?$IPersistStreamInitImpl@VCOPOSMICR@@@ATL@@UAGJPAT_ULARGE_INTEGER@@@Z 10002307 f i MICR.obj
 0001:000014bc       ?InitNew@?$IPersistStreamInitImpl@VCOPOSMICR@@@ATL@@UAGJXZ 100024bc f i MICR.obj
 0001:000014d9       ?SetColorScheme@?$IOleObjectImpl@VCOPOSMICR@@@ATL@@UAGJPAUtagLOGPALETTE@@@Z 100024d9 f i MICR.obj
 0001:000014d9       ?Unfreeze@?$IViewObjectExImpl@VCOPOSMICR@@@ATL@@UAGJK@Z 100024d9 f i MICR.obj
 0001:000014d9       ?QueryGetData@?$IDataObjectImpl@VCOPOSMICR@@@ATL@@UAGJPAUtagFORMATETC@@@Z 100024d9 f i MICR.obj
 0001:000014d9       ?SOOutputCompleteDummy@COPOSMICR@@MAGJJ@Z 100024d9 f i MICR.obj
 0001:000014d9       ?GetDropTarget@?$IOleInPlaceObjectWindowlessImpl@VCOPOSMICR@@@ATL@@UAGJPAPAUIDropTarget@@@Z 100024d9 f i MICR.obj
 0001:000014d9       ?GetControlInfo@?$IOleControlImpl@VCOPOSMICR@@@ATL@@UAGJPAUtagCONTROLINFO@@@Z 100024d9 f i MICR.obj
 0001:000014d9       ?ContextSensitiveHelp@?$IOleInPlaceActiveObjectImpl@VCOPOSMICR@@@ATL@@UAGJH@Z 100024d9 f i MICR.obj
 0001:000014d9       ?ContextSensitiveHelp@?$IOleInPlaceObjectWindowlessImpl@VCOPOSMICR@@@ATL@@UAGJH@Z 100024d9 f i MICR.obj
 0001:000014d9       ?OnMnemonic@?$IOleControlImpl@VCOPOSMICR@@@ATL@@UAGJPAUtagMSG@@@Z 100024d9 f i MICR.obj
 0001:000014e1       ?OnAmbientPropertyChange@?$IOleControlImpl@VCOPOSMICR@@@ATL@@UAGJJ@Z 100024e1 f i MICR.obj
 0001:000014e1       ?SaveCompleted@?$IPersistStorageImpl@VCOPOSMICR@@@ATL@@UAGJPAUIStorage@@@Z 100024e1 f i MICR.obj
 0001:000014e1       ?OnFrameWindowActivate@?$IOleInPlaceActiveObjectImpl@VCOPOSMICR@@@ATL@@UAGJH@Z 100024e1 f i MICR.obj
 0001:000014e1       ?EnableModeless@?$IOleInPlaceActiveObjectImpl@VCOPOSMICR@@@ATL@@UAGJH@Z 100024e1 f i MICR.obj
 0001:000014e6       ?SetClientSite@?$IOleObjectImpl@VCOPOSMICR@@@ATL@@UAGJPAUIOleClientSite@@@Z 100024e6 f i MICR.obj
 0001:00001503       ?GetClientSite@?$IOleObjectImpl@VCOPOSMICR@@@ATL@@UAGJPAPAUIOleClientSite@@@Z 10002503 f i MICR.obj
 0001:00001520       ?SetHostNames@?$IOleObjectImpl@VCOPOSMICR@@@ATL@@UAGJPB_W0@Z 10002520 f i MICR.obj
 0001:00001525       ?Close@?$IOleObjectImpl@VCOPOSMICR@@@ATL@@UAGJK@Z 10002525 f i MICR.obj
 0001:00001542       ?InitFromData@?$IOleObjectImpl@VCOPOSMICR@@@ATL@@UAGJPAUIDataObject@@HK@Z 10002542 f i MICR.obj
 0001:00001542       ?GetMoniker@?$IOleObjectImpl@VCOPOSMICR@@@ATL@@UAGJKKPAPAUIMoniker@@@Z 10002542 f i MICR.obj
 0001:00001542       ?SetData@?$IDataObjectImpl@VCOPOSMICR@@@ATL@@UAGJPAUtagFORMATETC@@PAUtagSTGMEDIUM@@H@Z 10002542 f i MICR.obj
 0001:0000154a       ?DoVerb@?$IOleObjectImpl@VCOPOSMICR@@@ATL@@UAGJJPAUtagMSG@@PAUIOleClientSite@@JPAUHWND__@@PBUtagRECT@@@Z 1000254a f i MICR.obj
 0001:00001662       ?EnumVerbs@?$IOleObjectImpl@VCOPOSMICR@@@ATL@@UAGJPAPAUIEnumOLEVERB@@@Z 10002662 f i MICR.obj
 0001:00001684       ?GetUserType@?$IOleObjectImpl@VCOPOSMICR@@@ATL@@UAGJKPAPA_W@Z 10002684 f i MICR.obj
 0001:0000169c       ?SetExtent@?$IOleObjectImpl@VCOPOSMICR@@@ATL@@UAGJKPAUtagSIZE@@@Z 1000269c f i MICR.obj
 0001:000016bc       ?GetExtent@?$IOleObjectImpl@VCOPOSMICR@@@ATL@@UAGJKPAUtagSIZE@@@Z 100026bc f i MICR.obj
 0001:000016fa       ?Advise@?$IOleObjectImpl@VCOPOSMICR@@@ATL@@UAGJPAUIAdviseSink@@PAK@Z 100026fa f i MICR.obj
 0001:0000171a       ?Unadvise@?$IOleObjectImpl@VCOPOSMICR@@@ATL@@UAGJK@Z 1000271a f i MICR.obj
 0001:00001749       ?EnumAdvise@?$IOleObjectImpl@VCOPOSMICR@@@ATL@@UAGJPAPAUIEnumSTATDATA@@@Z 10002749 f i MICR.obj
 0001:00001789       ?GetMiscStatus@?$IOleObjectImpl@VCOPOSMICR@@@ATL@@UAGJKPAK@Z 10002789 f i MICR.obj
 0001:000017a1       ?GetWindow@?$IOleInPlaceActiveObjectImpl@VCOPOSMICR@@@ATL@@UAGJPAPAUHWND__@@@Z 100027a1 f i MICR.obj
 0001:000017ee       ?TranslateAcceleratorW@?$IOleInPlaceActiveObjectImpl@VCOPOSMICR@@@ATL@@UAGJPAUtagMSG@@@Z 100027ee f i MICR.obj
 0001:0000188c       ?OnDocWindowActivate@?$IOleInPlaceActiveObjectImpl@VCOPOSMICR@@@ATL@@UAGJH@Z 1000288c f i MICR.obj
 0001:000018ae       ?ResizeBorder@?$IOleInPlaceActiveObjectImpl@VCOPOSMICR@@@ATL@@UAGJPBUtagRECT@@PAUIOleInPlaceUIWindow@@H@Z 100028ae f i MICR.obj
 0001:000018b3       ?Draw@?$IViewObjectExImpl@VCOPOSMICR@@@ATL@@UAGJKJPAXPAUtagDVTARGETDEVICE@@PAUHDC__@@2PBU_RECTL@@3P6GHK@ZK@Z 100028b3 f i MICR.obj
 0001:000018e5       ?GetColorSet@?$IViewObjectExImpl@VCOPOSMICR@@@ATL@@UAGJKJPAXPAUtagDVTARGETDEVICE@@PAUHDC__@@PAPAUtagLOGPALETTE@@@Z 100028e5 f i MICR.obj
 0001:000018ed       ?Freeze@?$IViewObjectExImpl@VCOPOSMICR@@@ATL@@UAGJKJPAXPAK@Z 100028ed f i MICR.obj
 0001:000018f5       ?SetAdvise@?$IViewObjectExImpl@VCOPOSMICR@@@ATL@@UAGJKKPAUIAdviseSink@@@Z 100028f5 f i MICR.obj
 0001:00001914       ?GetAdvise@?$IViewObjectExImpl@VCOPOSMICR@@@ATL@@UAGJPAK0PAPAUIAdviseSink@@@Z 10002914 f i MICR.obj
 0001:00001949       ?GetExtent@?$IViewObjectExImpl@VCOPOSMICR@@@ATL@@UAGJKJPAUtagDVTARGETDEVICE@@PAUtagSIZE@@@Z 10002949 f i MICR.obj
 0001:0000197a       ?GetViewStatus@?$IViewObjectExImpl@VCOPOSMICR@@@ATL@@UAGJPAK@Z 1000297a f i MICR.obj
 0001:00001997       ?QueryHitPoint@?$IViewObjectExImpl@VCOPOSMICR@@@ATL@@UAGJKPBUtagRECT@@UtagPOINT@@JPAK@Z 10002997 f i MICR.obj
 0001:000019d8       ?QueryHitRect@?$IViewObjectExImpl@VCOPOSMICR@@@ATL@@UAGJKPBUtagRECT@@0JPAK@Z 100029d8 f i MICR.obj
 0001:00001a33       ?GetNaturalExtent@?$IViewObjectExImpl@VCOPOSMICR@@@ATL@@UAGJKJPAUtagDVTARGETDEVICE@@PAUHDC__@@PAUtagExtentInfo@@PAUtagSIZE@@@Z 10002a33 f i MICR.obj
 0001:00001a7e       ?GetWindow@?$IOleInPlaceObjectWindowlessImpl@VCOPOSMICR@@@ATL@@UAGJPAPAUHWND__@@@Z 10002a7e f i MICR.obj
 0001:00001acb       ?InPlaceDeactivate@?$IOleInPlaceObjectWindowlessImpl@VCOPOSMICR@@@ATL@@UAGJXZ 10002acb f i MICR.obj
 0001:00001ae5       ?UIDeactivate@?$IOleInPlaceObjectWindowlessImpl@VCOPOSMICR@@@ATL@@UAGJXZ 10002ae5 f i MICR.obj
 0001:00001aff       ?SetObjectRects@?$IOleInPlaceObjectWindowlessImpl@VCOPOSMICR@@@ATL@@UAGJPBUtagRECT@@0@Z 10002aff f i MICR.obj
 0001:00001b1f       ?ReactivateAndUndo@?$IOleInPlaceObjectWindowlessImpl@VCOPOSMICR@@@ATL@@UAGJXZ 10002b1f f i MICR.obj
 0001:00001b27       ?OnWindowMessage@?$IOleInPlaceObjectWindowlessImpl@VCOPOSMICR@@@ATL@@UAGJIIJPAJ@Z 10002b27 f i MICR.obj
 0001:00001b97       ?EnumConnectionPoints@?$IConnectionPointContainerImpl@VCOPOSMICR@@@ATL@@UAGJPAPAUIEnumConnectionPoints@@@Z 10002b97 f i MICR.obj
 0001:00001d11       ?FindConnectionPoint@?$IConnectionPointContainerImpl@VCOPOSMICR@@@ATL@@UAGJABU_GUID@@PAPAUIConnectionPoint@@@Z 10002d11 f i MICR.obj
 0001:00001db4       ?IsDirty@?$IPersistStorageImpl@VCOPOSMICR@@@ATL@@UAGJXZ 10002db4 f i MICR.obj
 0001:00001de8       ?InitNew@?$IPersistStorageImpl@VCOPOSMICR@@@ATL@@UAGJPAUIStorage@@@Z 10002de8 f i MICR.obj
 0001:00001e1c       ?Load@?$IPersistStorageImpl@VCOPOSMICR@@@ATL@@UAGJPAUIStorage@@@Z 10002e1c f i MICR.obj
 0001:00001e88       ?Save@?$IPersistStorageImpl@VCOPOSMICR@@@ATL@@UAGJPAUIStorage@@H@Z 10002e88 f i MICR.obj
 0001:00001efb       ?GetPages@?$ISpecifyPropertyPagesImpl@VCOPOSMICR@@@ATL@@UAGJPAUtagCAUUID@@@Z 10002efb f i MICR.obj
 0001:00001f12       ?QuickActivate@?$IQuickActivateImpl@VCOPOSMICR@@@ATL@@UAGJPAUtagQACONTAINER@@PAUtagQACONTROL@@@Z 10002f12 f i MICR.obj
 0001:00001f35       ?SetContentExtent@?$IQuickActivateImpl@VCOPOSMICR@@@ATL@@UAGJPAUtagSIZE@@@Z 10002f35 f i MICR.obj
 0001:00001f61       ?GetContentExtent@?$IQuickActivateImpl@VCOPOSMICR@@@ATL@@UAGJPAUtagSIZE@@@Z 10002f61 f i MICR.obj
 0001:00001f81       ?GetData@?$IDataObjectImpl@VCOPOSMICR@@@ATL@@UAGJPAUtagFORMATETC@@PAUtagSTGMEDIUM@@@Z 10002f81 f i MICR.obj
 0001:00001fa4       ?DAdvise@?$IDataObjectImpl@VCOPOSMICR@@@ATL@@UAGJPAUtagFORMATETC@@KPAUIAdviseSink@@PAK@Z 10002fa4 f i MICR.obj
 0001:00001fe5       ?DUnadvise@?$IDataObjectImpl@VCOPOSMICR@@@ATL@@UAGJK@Z 10002fe5 f i MICR.obj
 0001:00002013       ?EnumDAdvise@?$IDataObjectImpl@VCOPOSMICR@@@ATL@@UAGJPAPAUIEnumSTATDATA@@@Z 10003013 f i MICR.obj
 0001:00002052       ?GetClassInfoW@?$IProvideClassInfo2Impl@$1?CLSID_OPOSMICR@@3U_GUID@@B$1?DIID__IOPOSMICREvents@@3U2@B$1?LIBID_OposMICR_CCO@@3U2@B$00$0A@VCComTypeInfoHolder@ATL@@@ATL@@UAGJPAPAUITypeInfo@@@Z 10003052 f i MICR.obj
 0001:00002068       ?GetGUID@?$IProvideClassInfo2Impl@$1?CLSID_OPOSMICR@@3U_GUID@@B$1?DIID__IOPOSMICREvents@@3U2@B$1?LIBID_OposMICR_CCO@@3U2@B$00$0A@VCComTypeInfoHolder@ATL@@@ATL@@UAGJKPAU_GUID@@@Z 10003068 f i MICR.obj
 0001:000020a6       __get_startup_argv_mode    100030a6 f i LIBCMT:argv_mode.obj
 0001:000020a6       ?FAccessAllowed@?$IObjectSafetyImpl@VCOPOSMICR@@$02@ATL@@MAEHXZ 100030a6 f i MICR.obj
 0001:000020aa       ?GetInterfaceSafetyOptions@?$IObjectSafetyImpl@VCOPOSMICR@@$02@ATL@@UAGJABU_GUID@@PAK1@Z 100030aa f i MICR.obj
 0001:0000211e       ?SetInterfaceSafetyOptions@?$IObjectSafetyImpl@VCOPOSMICR@@$02@ATL@@UAGJABU_GUID@@KK@Z 1000311e f i MICR.obj
 0001:00002198       ?_LocCPQueryInterface@?$IConnectionPointImpl@VCOPOSMICR@@$1?DIID__IOPOSMICREvents@@3U_GUID@@BVCComDynamicUnkArray@ATL@@@ATL@@UAGJABU_GUID@@PAPAX@Z 10003198 f i MICR.obj
 0001:00002198       ?_LocCPQueryInterface@?$IConnectionPointImpl@VCOPOSMICR@@$1?IID_IPropertyNotifySink@@3U_GUID@@BVCComDynamicUnkArray@ATL@@@ATL@@UAGJABU_GUID@@PAPAX@Z 10003198 f i MICR.obj
 0001:000021e5       ?GetConnectionInterface@?$IConnectionPointImpl@VCOPOSMICR@@$1?IID_IPropertyNotifySink@@3U_GUID@@BVCComDynamicUnkArray@ATL@@@ATL@@UAGJPAU_GUID@@@Z 100031e5 f i MICR.obj
 0001:00002209       ?GetConnectionPointContainer@?$IConnectionPointImpl@VCOPOSMICR@@$1?IID_IPropertyNotifySink@@3U_GUID@@BVCComDynamicUnkArray@ATL@@@ATL@@UAGJPAPAUIConnectionPointContainer@@@Z 10003209 f i MICR.obj
 0001:0000222c       ?Advise@?$IConnectionPointImpl@VCOPOSMICR@@$1?IID_IPropertyNotifySink@@3U_GUID@@BVCComDynamicUnkArray@ATL@@@ATL@@UAGJPAUIUnknown@@PAK@Z 1000322c f i MICR.obj
 0001:0000222c       ?Advise@?$IConnectionPointImpl@VCOPOSMICR@@$1?DIID__IOPOSMICREvents@@3U_GUID@@BVCComDynamicUnkArray@ATL@@@ATL@@UAGJPAUIUnknown@@PAK@Z 1000322c f i MICR.obj
 0001:000022cd       ?Unadvise@?$IConnectionPointImpl@VCOPOSMICR@@$1?IID_IPropertyNotifySink@@3U_GUID@@BVCComDynamicUnkArray@ATL@@@ATL@@UAGJK@Z 100032cd f i MICR.obj
 0001:000022cd       ?Unadvise@?$IConnectionPointImpl@VCOPOSMICR@@$1?DIID__IOPOSMICREvents@@3U_GUID@@BVCComDynamicUnkArray@ATL@@@ATL@@UAGJK@Z 100032cd f i MICR.obj
 0001:0000230d       ?EnumConnections@?$IConnectionPointImpl@VCOPOSMICR@@$1?IID_IPropertyNotifySink@@3U_GUID@@BVCComDynamicUnkArray@ATL@@@ATL@@UAGJPAPAUIEnumConnections@@@Z 1000330d f i MICR.obj
 0001:0000230d       ?EnumConnections@?$IConnectionPointImpl@VCOPOSMICR@@$1?DIID__IOPOSMICREvents@@3U_GUID@@BVCComDynamicUnkArray@ATL@@@ATL@@UAGJPAPAUIEnumConnections@@@Z 1000330d f i MICR.obj
 0001:00002413       ?GetCategoryMap@CComObjectRootBase@ATL@@SAPBU_ATL_CATMAP_ENTRY@2@XZ 10003413 f i MICR.obj
 0001:00002413       ?GetObjectDescription@?$CComCoClass@VCOPOSMICR@@$1?CLSID_OPOSMICR@@3U_GUID@@B@ATL@@SGPB_WXZ 10003413 f i MICR.obj
 0001:00002416       ?GetConnectionInterface@?$IConnectionPointImpl@VCOPOSMICR@@$1?DIID__IOPOSMICREvents@@3U_GUID@@BVCComDynamicUnkArray@ATL@@@ATL@@UAGJPAU_GUID@@@Z 10003416 f i MICR.obj
 0001:0000243a       ?GetConnectionPointContainer@?$IConnectionPointImpl@VCOPOSMICR@@$1?DIID__IOPOSMICREvents@@3U_GUID@@BVCComDynamicUnkArray@ATL@@@ATL@@UAGJPAPAUIConnectionPointContainer@@@Z 1000343a f i MICR.obj
 0001:0000245d       ?UpdateRegistry@COPOSMICR@@SGJH@Z 1000345d f i MICR.obj
 0001:00002475       ?ProcessWindowMessage@COPOSMICR@@UAEHPAUHWND__@@IIJAAJK@Z 10003475 f i MICR.obj
 0001:000024be       ?SOData@COPOSMICR@@MAGJJ@Z 100034be f i MICR.obj
 0001:000024f7       ?SODirectIO@COPOSMICR@@MAGJJPAJPAPA_W@Z 100034f7 f i MICR.obj
 0001:00002540       ?SOError@COPOSMICR@@MAGJJJJPAJ@Z 10003540 f i MICR.obj
 0001:00002595       ?SOStatusUpdate@COPOSMICR@@MAGJJ@Z 10003595 f i MICR.obj
 0001:000025ce       ?CreateInstance@?$CComCreator@V?$CComObjectCached@VCComClassFactory@ATL@@@ATL@@@ATL@@SGJPAXABU_GUID@@PAPAX@Z 100035ce f i MICR.obj
 0001:00002661       ?CreateInstance@?$CComCreator2@V?$CComCreator@V?$CComObject@VCOPOSMICR@@@ATL@@@ATL@@V?$CComCreator@V?$CComAggObject@VCOPOSMICR@@@ATL@@@2@@ATL@@SGJPAXABU_GUID@@PAPAX@Z 10003661 f i MICR.obj
 0001:00002681       ?Next@?$CComEnumImpl@UIEnumConnectionPoints@@$1?_GUID_b196b285_bab4_101a_b69c_00aa00341d07@@3U__s_GUID@@BPAUIConnectionPoint@@V?$_CopyInterface@UIConnectionPoint@@@ATL@@@ATL@@UAGJKPAPAUIConnectionPoint@@PAK@Z 10003681 f i MICR.obj
 0001:00002758       ?Skip@?$CComEnumImpl@UIEnumConnectionPoints@@$1?_GUID_b196b285_bab4_101a_b69c_00aa00341d07@@3U__s_GUID@@BPAUIConnectionPoint@@V?$_CopyInterface@UIConnectionPoint@@@ATL@@@ATL@@UAGJK@Z 10003758 f i MICR.obj
 0001:00002785       ?Clone@?$CComEnumImpl@UIEnumConnectionPoints@@$1?_GUID_b196b285_bab4_101a_b69c_00aa00341d07@@3U__s_GUID@@BPAUIConnectionPoint@@V?$_CopyInterface@UIConnectionPoint@@@ATL@@@ATL@@UAGJPAPAUIEnumConnectionPoints@@@Z 10003785 f i MICR.obj
 0001:00002866       ?QueryInterface@?$CComObject@V?$CComEnum@UIEnumConnectionPoints@@$1?_GUID_b196b285_bab4_101a_b69c_00aa00341d07@@3U__s_GUID@@BPAUIConnectionPoint@@V?$_CopyInterface@UIConnectionPoint@@@ATL@@VCComSingleThreadModel@6@@ATL@@@ATL@@UAGJABU_GUID@@PAPAX@Z 10003866 f i MICR.obj
 0001:00002880       ??_E?$CComObject@V?$CComEnum@UIEnumConnectionPoints@@$1?_GUID_b196b285_bab4_101a_b69c_00aa00341d07@@3U__s_GUID@@BPAUIConnectionPoint@@V?$_CopyInterface@UIConnectionPoint@@@ATL@@VCComSingleThreadModel@6@@ATL@@@ATL@@UAEPAXI@Z 10003880 f i MICR.obj
 0001:00002880       ??_G?$CComObject@V?$CComEnum@UIEnumConnectionPoints@@$1?_GUID_b196b285_bab4_101a_b69c_00aa00341d07@@3U__s_GUID@@BPAUIConnectionPoint@@V?$_CopyInterface@UIConnectionPoint@@@ATL@@VCComSingleThreadModel@6@@ATL@@@ATL@@UAEPAXI@Z 10003880 f i MICR.obj
 0001:000028a2       ?CreateInstance@CComClassFactory@ATL@@UAGJPAUIUnknown@@ABU_GUID@@PAPAX@Z 100038a2 f i MICR.obj
 0001:000028e0       ?LockServer@CComClassFactory@ATL@@UAGJH@Z 100038e0 f i MICR.obj
 0001:000028ff       ??_GCComClassFactory@ATL@@UAEPAXI@Z 100038ff f i MICR.obj
 0001:000028ff       ??_ECComClassFactory@ATL@@UAEPAXI@Z 100038ff f i MICR.obj
 0001:0000292a       ??$?4UITypeInfo2@@@?$CComPtr@UITypeInfo@@@ATL@@QAEPAUITypeInfo@@ABV?$CComPtr@UITypeInfo2@@@1@@Z 1000392a f i MICR.obj
 0001:00002957       ??$AtlAdd@K@ATL@@YAJPAKKK@Z 10003957 f i MICR.obj
 0001:0000297a       ??$AtlAdd@_K@ATL@@YAJPA_K_K1@Z 1000397a f i MICR.obj
 0001:000029b2       ??$AtlAddThrow@K@ATL@@YAKKK@Z 100039b2 f i MICR.obj
 0001:000029d8       ??$AtlModuleRegisterWndClassInfoT@VAtlModuleRegisterWndClassInfoParamW@ATL@@@ATL@@YAGPAU_ATL_BASE_MODULE70@0@PAU_ATL_WIN_MODULE70@0@PAU_ATL_WNDCLASSINFOW@0@PAP6GJPAUHWND__@@IIJ@ZVAtlModuleRegisterWndClassInfoParamW@0@@Z 100039d8 f i MICR.obj
 0001:00002b26       ??$AtlMultiply@H@ATL@@YAJPAHHH@Z 10003b26 f i MICR.obj
 0001:00002b5e       ??$AtlMultiply@K@ATL@@YAJPAKKK@Z 10003b5e f i MICR.obj
 0001:00002b5e       ??$AtlMultiply@I@ATL@@YAJPAIII@Z 10003b5e f i MICR.obj
 0001:00002b80       ??$AtlMultiplyThrow@I@ATL@@YAIII@Z 10003b80 f i MICR.obj
 0001:00002ba6       ??0?$CComAggObject@VCOPOSMICR@@@ATL@@QAE@PAX@Z 10003ba6 f i MICR.obj
 0001:00002bd3       ??0?$CComContainedObject@VCOPOSMICR@@@ATL@@QAE@PAX@Z 10003bd3 f i MICR.obj
 0001:00002c8c       ??0?$CComObject@V?$CComEnum@UIEnumConnectionPoints@@$1?_GUID_b196b285_bab4_101a_b69c_00aa00341d07@@3U__s_GUID@@BPAUIConnectionPoint@@V?$_CopyInterface@UIConnectionPoint@@@ATL@@VCComSingleThreadModel@6@@ATL@@@ATL@@QAE@PAX@Z 10003c8c f i MICR.obj
 0001:00002cba       ??0?$CComObject@V?$CComEnum@UIEnumConnections@@$1?_GUID_b196b287_bab4_101a_b69c_00aa00341d07@@3U__s_GUID@@BUtagCONNECTDATA@@V?$_Copy@UtagCONNECTDATA@@@ATL@@VCComSingleThreadModel@6@@ATL@@@ATL@@QAE@PAX@Z 10003cba f i MICR.obj
 0001:00002ce8       ??0?$CComObject@VCOPOSMICR@@@ATL@@QAE@PAX@Z 10003ce8 f i MICR.obj
 0001:00002d9f       ??0?$CComQIPtr@UIOleControlSite@@$1?_GUID_b196b289_bab4_101a_b69c_00aa00341d07@@3U__s_GUID@@B@ATL@@QAE@PAUIUnknown@@@Z 10003d9f f i MICR.obj
 0001:00002dc8       ??0CAtlModule@ATL@@QAE@XZ  10003dc8 f i MICR.obj
 0001:00002e09       ??0CParseBuffer@CRegParser@ATL@@QAE@H@Z 10003e09 f i MICR.obj
 0001:00002e3f       ??0_ATL_MSG@ATL@@QAE@PAUHWND__@@IIJH@Z 10003e3f f i MICR.obj
 0001:00002e77       ??1?$CComAggObject@VCOPOSMICR@@@ATL@@UAE@XZ 10003e77 f i MICR.obj
 0001:00002e9b       ??1?$CComEnumImpl@UIEnumConnectionPoints@@$1?_GUID_b196b285_bab4_101a_b69c_00aa00341d07@@3U__s_GUID@@BPAUIConnectionPoint@@V?$_CopyInterface@UIConnectionPoint@@@ATL@@@ATL@@UAE@XZ 10003e9b f i MICR.obj
 0001:00002edb       ??1?$CComEnumImpl@UIEnumConnections@@$1?_GUID_b196b287_bab4_101a_b69c_00aa00341d07@@3U__s_GUID@@BUtagCONNECTDATA@@V?$_Copy@UtagCONNECTDATA@@@ATL@@@ATL@@UAE@XZ 10003edb f i MICR.obj
 0001:00002f1b       ??1?$CComObject@V?$CComEnum@UIEnumConnectionPoints@@$1?_GUID_b196b285_bab4_101a_b69c_00aa00341d07@@3U__s_GUID@@BPAUIConnectionPoint@@V?$_CopyInterface@UIConnectionPoint@@@ATL@@VCComSingleThreadModel@6@@ATL@@@ATL@@UAE@XZ 10003f1b f i MICR.obj
 0001:00002f3e       ??1?$CComObject@V?$CComEnum@UIEnumConnections@@$1?_GUID_b196b287_bab4_101a_b69c_00aa00341d07@@3U__s_GUID@@BUtagCONNECTDATA@@V?$_Copy@UtagCONNECTDATA@@@ATL@@VCComSingleThreadModel@6@@ATL@@@ATL@@UAE@XZ 10003f3e f i MICR.obj
 0001:00002f61       ??1?$CComObject@VCOPOSMICR@@@ATL@@UAE@XZ 10003f61 f i MICR.obj
 0001:0000301f       ??1?$CComObjectCached@VCComClassFactory@ATL@@@ATL@@UAE@XZ 1000401f f i MICR.obj
 0001:00003035       ??1?$CComObjectRootEx@VCComMultiThreadModel@ATL@@@ATL@@QAE@XZ 10004035 f i MICR.obj
 0001:0000304a       ??1CRegObject@ATL@@UAE@XZ  1000404a f i MICR.obj
 0001:0000306a       ??4?$CComPtr@UIOleClientSite@@@ATL@@QAEPAUIOleClientSite@@PAU2@@Z 1000406a f i MICR.obj
 0001:0000306a       ??4?$CComPtr@UIAdviseSink@@@ATL@@QAEPAUIAdviseSink@@PAU2@@Z 1000406a f i MICR.obj
 0001:0000306a       ??4?$CComPtr@UIUnknown@@@ATL@@QAEPAUIUnknown@@PAU2@@Z 1000406a f i MICR.obj
 0001:0000309e       ??4?$CComQIPtr@UIOleObject@@$1?_GUID_00000112_0000_0000_c000_000000000046@@3U__s_GUID@@B@ATL@@QAEPAUIOleObject@@PAUIUnknown@@@Z 1000409e f i MICR.obj
 0001:000030c3       ??4?$CComQIPtr@UISpecifyPropertyPages@@$1?_GUID_b196b28b_bab4_101a_b69c_00aa00341d07@@3U__s_GUID@@B@ATL@@QAEPAUISpecifyPropertyPages@@PAUIUnknown@@@Z 100040c3 f i MICR.obj
 0001:000030e8       ??_E?$CComContainedObject@VCOPOSMICR@@@ATL@@UAEPAXI@Z 100040e8 f i MICR.obj
 0001:000030e8       ??_G?$CComContainedObject@VCOPOSMICR@@@ATL@@UAEPAXI@Z 100040e8 f i MICR.obj
 0001:0000310d       ??_G?$CComObject@VCOPOSMICR@@@ATL@@UAEPAXI@Z 1000410d f i MICR.obj
 0001:0000310d       ??_E?$CComObject@VCOPOSMICR@@@ATL@@UAEPAXI@Z 1000410d f i MICR.obj
 0001:00003132       ?Add@?$CSimpleArray@GV?$CSimpleArrayEqualHelper@G@ATL@@@ATL@@QAEHABG@Z 10004132 f i MICR.obj
 0001:000031b6       ?Add@?$CSimpleMap@PA_WPA_WVCExpansionVectorEqualHelper@ATL@@@ATL@@QAEHABQA_W0@Z 100041b6 f i MICR.obj
 0001:0000320b       ?Add@CComDynamicUnkArray@ATL@@QAEKPAUIUnknown@@@Z 1000420b f i MICR.obj
 0001:000032c1       ?Add@CExpansionVector@ATL@@QAEHPB_W0@Z 100042c1 f i MICR.obj
 0001:000033c5       ?AddString@CParseBuffer@CRegParser@ATL@@QAEHPB_W@Z 100043c5 f i MICR.obj
 0001:000033fa       ?AddValue@CRegParser@ATL@@IAEJAAVCRegKey@2@PB_WPA_W@Z 100043fa f i MICR.obj
 0001:0000371b       ?Allocate@?$CAtlSafeAllocBufferManager@VCCRTAllocator@ATL@@@_ATL_SAFE_ALLOCA_IMPL@ATL@@QAEPAXK@Z 1000471b f i MICR.obj
 0001:00003748       ?Allocate@?$CTempBuffer@E$0BAA@VCCRTAllocator@ATL@@@ATL@@QAEPAEI@Z 10004748 f i MICR.obj
 0001:00003777       ?Allocate@?$CTempBuffer@_W$0BAA@VCCRTAllocator@ATL@@@ATL@@QAEPA_WI@Z 10004777 f i MICR.obj
 0001:000037a6       ?Allocate@?$CTempBuffer@_W$0EAA@VCCRTAllocator@ATL@@@ATL@@QAEPA_WI@Z 100047a6 f i MICR.obj
 0001:000037d5       ?AllocateHeap@?$CTempBuffer@_W$0EAA@VCCRTAllocator@ATL@@@ATL@@AAEXI@Z 100047d5 f i MICR.obj
 0001:000037d5       ?AllocateHeap@?$CTempBuffer@_W$0BAA@VCCRTAllocator@ATL@@@ATL@@AAEXI@Z 100047d5 f i MICR.obj
 0001:000037d5       ?AllocateHeap@?$CTempBuffer@E$0BAA@VCCRTAllocator@ATL@@@ATL@@AAEXI@Z 100047d5 f i MICR.obj
 0001:000037fa       ?Append@CParseBuffer@CRegParser@ATL@@QAEHPB_WH@Z 100047fa f i MICR.obj
 0001:00003888       ?AtlCallTermFunc@ATL@@YGXPAU_ATL_MODULE70@1@@Z 10004888 f i MICR.obj
 0001:000038cc       ?AtlCoTaskMemCAlloc@ATL@@YAPAXKK@Z 100048cc f i MICR.obj
 0001:000038f9       ?AtlCoTaskMemRecalloc@ATL@@YAPAXPAXKK@Z 100048f9 f i MICR.obj
 0001:00003929       ?AtlComModuleGetClassObject@ATL@@YGJPAU_ATL_COM_MODULE70@1@ABU_GUID@@1PAPAX@Z 10004929 f i MICR.obj
 0001:00003a1c       ?AtlComModuleRegisterServer@ATL@@YGJPAU_ATL_COM_MODULE70@1@HPBU_GUID@@@Z 10004a1c f i MICR.obj
 0001:00003aa4       ?AtlComModuleUnregisterServer@ATL@@YGJPAU_ATL_COM_MODULE70@1@HPBU_GUID@@@Z 10004aa4 f i MICR.obj
 0001:00003b2c       ?AtlComQIPtrAssign2@ATL@@YAXPAPAUIUnknown@@PAU2@ABU_GUID@@@Z 10004b2c f i MICR.obj
 0001:00003b5b       ?AtlCreateTargetDC@ATL@@YGPAUHDC__@@PAU2@PAUtagDVTARGETDEVICE@@@Z 10004b5b f i MICR.obj
 0001:00003bc4       ?AtlCrtErrorCheck@ATL@@YAHH@Z 10004bc4 f i MICR.obj
 0001:00003bff       ?AtlHiMetricToPixel@ATL@@YGXPBUtagSIZE@@PAU2@@Z 10004bff f i MICR.obj
 0001:00003c74       ?AtlHresultFromLastError@ATL@@YAJXZ 10004c74 f i MICR.obj
 0001:00003c8b       ?AtlHresultFromWin32@ATL@@YAJK@Z 10004c8b f i MICR.obj
 0001:00003ca0       ?AtlIPersistStreamInit_Load@ATL@@YGJPAUIStream@@PBUATL_PROPMAP_ENTRY@1@PAXPAUIUnknown@@@Z 10004ca0 f i MICR.obj
 0001:00003e80       ?AtlIPersistStreamInit_Save@ATL@@YGJPAUIStream@@HPBUATL_PROPMAP_ENTRY@1@PAXPAUIUnknown@@@Z 10004e80 f i MICR.obj
 0001:00004018       ?AtlInternalOleLoadFromStream@ATL@@YAJPAUIStream@@ABU_GUID@@PAPAXTClassesAllowedInStream@1@K@Z 10005018 f i MICR.obj
 0001:0000413e       ?AtlInternalQueryInterface@ATL@@YGJPAXPBU_ATL_INTMAP_ENTRY@1@ABU_GUID@@PAPAX@Z 1000513e f i MICR.obj
 0001:000041e1       ?AtlLoadTypeLib@ATL@@YGJPAUHINSTANCE__@@PB_WPAPA_WPAPAUITypeLib@@@Z 100051e1 f i MICR.obj
 0001:000043bf       ?AtlModuleAddTermFunc@ATL@@YGJPAU_ATL_MODULE70@1@P6GXK@ZK@Z 100053bf f i MICR.obj
 0001:0000441c       ?AtlRegisterClassCategoriesHelper@ATL@@YGJABU_GUID@@PBU_ATL_CATMAP_ENTRY@1@H@Z 1000541c f i MICR.obj
 0001:000046fc       ?AtlRegisterTypeLib@ATL@@YGJPAUHINSTANCE__@@PB_W@Z 100056fc f i MICR.obj
 0001:00004884       ?AtlThrowImpl@ATL@@YGXJ@Z  10005884 f i MICR.obj
 0001:000048a2       ?AtlUnRegisterTypeLib@ATL@@YGJPAUHINSTANCE__@@PB_W@Z 100058a2 f i MICR.obj
 0001:0000494d       ?AtlWinModuleAddCreateWndData@ATL@@YGXPAU_ATL_WIN_MODULE70@1@PAU_AtlCreateWndData@1@PAX@Z 1000594d f i MICR.obj
 0001:000049a1       ?AtlWinModuleExtractCreateWndData@ATL@@YGPAXPAU_ATL_WIN_MODULE70@1@@Z 100059a1 f i MICR.obj
 0001:00004a04       ?AtlWinModuleRegisterClassExW@ATL@@YGGPAU_ATL_WIN_MODULE70@1@PBUtagWNDCLASSEXW@@@Z 10005a04 f i MICR.obj
 0001:00004a43       ?CanForceRemoveKey@CRegParser@ATL@@IAEHPB_W@Z 10005a43 f i MICR.obj
 0001:00004a72       ?ChToByte@CRegParser@ATL@@KAE_W@Z 10005a72 f i MICR.obj
 0001:00004aa5       ?Cleanup@CComTypeInfoHolder@ATL@@SGXK@Z 10005aa5 f i MICR.obj
 0001:00004ad8       ?ClearReplacements@CExpansionVector@ATL@@QAEJXZ 10005ad8 f i MICR.obj
 0001:00004b15       ?Close@CRegKey@ATL@@QAEJXZ 10005b15 f i MICR.obj
 0001:00004b2f       ?CreateInstance@?$CComCreator@V?$CComAggObject@VCOPOSMICR@@@ATL@@@ATL@@SGJPAXABU_GUID@@PAPAX@Z 10005b2f f i MICR.obj
 0001:00004ba5       ?CreateInstance@?$CComCreator@V?$CComObject@VCOPOSMICR@@@ATL@@@ATL@@SGJPAXABU_GUID@@PAPAX@Z 10005ba5 f i MICR.obj
 0001:00004c26       ?CreateInstance@?$CComObject@V?$CComEnum@UIEnumConnectionPoints@@$1?_GUID_b196b285_bab4_101a_b69c_00aa00341d07@@3U__s_GUID@@BPAUIConnectionPoint@@V?$_CopyInterface@UIConnectionPoint@@@ATL@@VCComSingleThreadModel@6@@ATL@@@ATL@@SGJPAPAV12@@Z 10005c26 f i MICR.obj
 0001:00004c6d       ?CreateInstance@?$CComObject@V?$CComEnum@UIEnumConnections@@$1?_GUID_b196b287_bab4_101a_b69c_00aa00341d07@@3U__s_GUID@@BUtagCONNECTDATA@@V?$_Copy@UtagCONNECTDATA@@@ATL@@VCComSingleThreadModel@6@@ATL@@@ATL@@SGJPAPAV12@@Z 10005c6d f i MICR.obj
 0001:00004cb4       ?DefaultReflectionHandler@?$CWindowImplRoot@VCWindow@ATL@@@ATL@@SAHPAUHWND__@@IIJAAJ@Z 10005cb4 f i MICR.obj
 0001:00004d27       ?DeleteSubKey@CRegKey@ATL@@QAEJPB_W@Z 10005d27 f i MICR.obj
 0001:00004da0       ?DoEvent@COPOSMICR@@IAEXIIJ@Z 10005da0 f i MICR.obj
 0001:00004e20       ?DoVerbHide@?$IOleObjectImpl@VCOPOSMICR@@@ATL@@QAEJPBUtagRECT@@PAUHWND__@@@Z 10005e20 f i MICR.obj
 0001:00004e56       ?DoVerbInPlaceActivate@?$IOleObjectImpl@VCOPOSMICR@@@ATL@@QAEJPBUtagRECT@@PAUHWND__@@@Z 10005e56 f i MICR.obj
 0001:00004e89       ?DoVerbPrimary@?$IOleObjectImpl@VCOPOSMICR@@@ATL@@QAEJPBUtagRECT@@PAUHWND__@@@Z 10005e89 f i MICR.obj
 0001:00004f15       ?DoVerbProperties@CComControlBase@ATL@@QAEJPBUtagRECT@@PAUHWND__@@@Z 10005f15 f i MICR.obj
 0001:0000503c       ?DoVerbShow@?$IOleObjectImpl@VCOPOSMICR@@@ATL@@QAEJPBUtagRECT@@PAUHWND__@@@Z 1000603c f i MICR.obj
 0001:00005061       ?DoVerbUIActivate@?$IOleObjectImpl@VCOPOSMICR@@@ATL@@QAEJPBUtagRECT@@PAUHWND__@@@Z 10006061 f i MICR.obj
 0001:0000509e       ?DoesVerbActivate@CComControlBase@ATL@@QAEHJ@Z 1000609e f i MICR.obj
 0001:000050bf       ?DoesVerbUIActivate@CComControlBase@ATL@@QAEHJ@Z 100060bf f i MICR.obj
 0001:000050f4       ?EndOfVar@CRegParser@ATL@@IAEHXZ 100060f4 f i MICR.obj
 0001:00005114       ?EscapeSingleQuote@CAtlModule@ATL@@SAXPA_WIPB_W@Z 10006114 f i MICR.obj
 0001:00005163       ?FindKey@?$CSimpleMap@PA_WPA_WVCExpansionVectorEqualHelper@ATL@@@ATL@@QBEHABQA_W@Z 10006163 f i MICR.obj
 0001:0000519a       ?FireTheEvent@?$CProxy_IOPOSEvents@VCOPOSMICR@@@@IAEXPAVOposVariant@@IAAJPB_WJ@Z 1000619a f i MICR.obj
 0001:0000522c       ?FireViewChange@CComControlBase@ATL@@QAEJXZ 1000622c f i MICR.obj
 0001:00005275       ?Fire_DataEvent@?$CProxy_IOPOSEvents@VCOPOSMICR@@@@QAEXJ@Z 10006275 f i MICR.obj
 0001:00005301       ?Fire_DirectIOEvent@?$CProxy_IOPOSEvents@VCOPOSMICR@@@@QAEXJPAJPAPA_W@Z 10006301 f i MICR.obj
 0001:000053e7       ?Fire_ErrorEvent@?$CProxy_IOPOSEvents@VCOPOSMICR@@@@QAEXJJJPAJ@Z 100063e7 f i MICR.obj
 0001:000054ce       ?Fire_StatusUpdateEvent@?$CProxy_IOPOSEvents@VCOPOSMICR@@@@QAEXJ@Z 100064ce f i MICR.obj
 0001:0000555a       ?FreeHeap@?$CTempBuffer@_W$0BAA@VCCRTAllocator@ATL@@@ATL@@AAEXXZ 1000655a f i MICR.obj
 0001:0000555a       ?FreeHeap@?$CTempBuffer@_W$0EAA@VCCRTAllocator@ATL@@@ATL@@AAEXXZ 1000655a f i MICR.obj
 0001:0000555a       ?FreeHeap@?$CTempBuffer@E$0BAA@VCCRTAllocator@ATL@@@ATL@@AAEXXZ 1000655a f i MICR.obj
 0001:00005563       ?GetAmbientLocaleID@CComControlBase@ATL@@QAEJAAK@Z 10006563 f i MICR.obj
 0001:000055bf       ?GetAmbientUserMode@CComControlBase@ATL@@QAEJAAH@Z 100065bf f i MICR.obj
 0001:0000562f       ?GetAt@CComDynamicUnkArray@ATL@@QAEPAUIUnknown@@H@Z 1000662f f i MICR.obj
 0001:0000564b       ?GetClassObject@CComModule@ATL@@QAEJABU_GUID@@0PAPAX@Z 1000664b f i MICR.obj
 0001:000056ed       ?GetConnMap@COPOSMICR@@SAPBU_ATL_CONNMAP_ENTRY@ATL@@PAH@Z 100066ed f i MICR.obj
 0001:0000575d       ?GetCookie@CComDynamicUnkArray@ATL@@QAGKPAPAUIUnknown@@@Z 1000675d f i MICR.obj
 0001:00005795       ?GetIDsOfNames@CComTypeInfoHolder@ATL@@QAEJABU_GUID@@PAPA_WIKPAJ@Z 10006795 f i MICR.obj
 0001:000058a3       ?GetKeyAt@?$CSimpleMap@PA_WPA_WVCExpansionVectorEqualHelper@ATL@@@ATL@@QBEAAPA_WH@Z 100068a3 f i MICR.obj
 0001:000058c8       ?GetPagesHelper@?$ISpecifyPropertyPagesImpl@VCOPOSMICR@@@ATL@@IAEJPAUtagCAUUID@@PBUATL_PROPMAP_ENTRY@2@@Z 100068c8 f i MICR.obj
 0001:000059ef       ?GetProperty@?$CComPtr@UIDispatch@@@ATL@@SAJPAUIDispatch@@JPAUtagVARIANT@@@Z 100069ef f i MICR.obj
 0001:00005a3e       ?GetSizeMax@CComVariant@ATL@@QBEJPAT_ULARGE_INTEGER@@@Z 10006a3e f i MICR.obj
 0001:00005bf8       ?GetStreamSize@CComBSTR@ATL@@SAKPA_W@Z 10006bf8 f i MICR.obj
 0001:00005c12       ?GetTI@CComTypeInfoHolder@ATL@@QAEJK@Z 10006c12 f i MICR.obj
 0001:00005dfb       ?GetTI@CComTypeInfoHolder@ATL@@QAEJKPAPAUITypeInfo@@@Z 10006dfb f i MICR.obj
 0001:00005e3d       ?GetUnknown@CComDynamicUnkArray@ATL@@QAGPAUIUnknown@@K@Z 10006e3d f i MICR.obj
 0001:00005e5e       ?GetValueAt@?$CSimpleMap@PA_WPA_WVCExpansionVectorEqualHelper@ATL@@@ATL@@QBEAAPA_WH@Z 10006e5e f i MICR.obj
 0001:00005e84       ?GetZoomInfo@CComControlBase@ATL@@QAEXAAUATL_DRAWINFO@@@Z 10006e84 f i MICR.obj
 0001:00005f17       ?HKeyFromString@CRegParser@ATL@@KAPAUHKEY__@@PA_W@Z 10006f17 f i MICR.obj
 0001:00005f45       ?HasSubKeys@CRegParser@ATL@@IAEHPAUHKEY__@@@Z 10006f45 f i MICR.obj
 0001:00005f7a       ?IDataObject_GetData@CComControlBase@ATL@@QAEJPAUtagFORMATETC@@PAUtagSTGMEDIUM@@@Z 10006f7a f i MICR.obj
 0001:00006120       ?IOleInPlaceObject_InPlaceDeactivate@CComControlBase@ATL@@QAEJXZ 10007120 f i MICR.obj
 0001:000061a7       ?IOleInPlaceObject_SetObjectRects@CComControlBase@ATL@@QAEJPBUtagRECT@@0@Z 100071a7 f i MICR.obj
 0001:00006274       ?IOleInPlaceObject_UIDeactivate@CComControlBase@ATL@@QAEJXZ 10007274 f i MICR.obj
 0001:00006336       ?IOleObject_Advise@CComControlBase@ATL@@QAEJPAUIAdviseSink@@PAK@Z 10007336 f i MICR.obj
 0001:00006360       ?IOleObject_Close@CComControlBase@ATL@@QAEJK@Z 10007360 f i MICR.obj
 0001:00006444       ?IOleObject_GetClientSite@CComControlBase@ATL@@QAEJPAPAUIOleClientSite@@@Z 10007444 f i MICR.obj
 0001:0000646d       ?IOleObject_SetClientSite@CComControlBase@ATL@@QAEJPAUIOleClientSite@@@Z 1000746d f i MICR.obj
 0001:000064ac       ?IOleObject_SetExtent@CComControlBase@ATL@@QAEJKPAUtagSIZE@@@Z 100074ac f i MICR.obj
 0001:00006560       ?IPSI_GetIPersistStreamInit@?$IPersistStorageImpl@VCOPOSMICR@@@ATL@@AAEPAUIPersistStreamInit@@XZ 10007560 f i MICR.obj
 0001:000065a2       ?IPersistStreamInit_Load@?$IPersistStreamInitImpl@VCOPOSMICR@@@ATL@@QAEJPAUIStream@@PBUATL_PROPMAP_ENTRY@2@@Z 100075a2 f i MICR.obj
 0001:000065ce       ?IPersistStreamInit_Save@?$IPersistStreamInitImpl@VCOPOSMICR@@@ATL@@QAEJPAUIStream@@HPBUATL_PROPMAP_ENTRY@2@@Z 100075ce f i MICR.obj
 0001:00006603       ?IQuickActivate_QuickActivate@CComControlBase@ATL@@QAEJPAUtagQACONTAINER@@PAUtagQACONTROL@@@Z 10007603 f i MICR.obj
 0001:00006845       ?IViewObject_Draw@CComControlBase@ATL@@QAEJKJPAXPAUtagDVTARGETDEVICE@@PAUHDC__@@2PBU_RECTL@@3@Z 10007845 f i MICR.obj
 0001:000068ed       ?InPlaceActivate@CComControlBase@ATL@@QAEJJPBUtagRECT@@@Z 100078ed f i MICR.obj
 0001:00006b5e       ?Init@?$CComEnumImpl@UIEnumConnectionPoints@@$1?_GUID_b196b285_bab4_101a_b69c_00aa00341d07@@3U__s_GUID@@BPAUIConnectionPoint@@V?$_CopyInterface@UIConnectionPoint@@@ATL@@@ATL@@QAEJPAPAUIConnectionPoint@@0PAUIUnknown@@W4CComEnumFlags@2@@Z 10007b5e f i MICR.obj
 0001:00006c3d       ?Init@?$CComEnumImpl@UIEnumConnections@@$1?_GUID_b196b287_bab4_101a_b69c_00aa00341d07@@3U__s_GUID@@BUtagCONNECTDATA@@V?$_Copy@UtagCONNECTDATA@@@ATL@@@ATL@@QAEJPAUtagCONNECTDATA@@0PAUIUnknown@@W4CComEnumFlags@2@@Z 10007c3d f i MICR.obj
 0001:00006d1c       ?Init@CComModule@ATL@@QAEJPAU_ATL_OBJMAP_ENTRY30@2@PAUHINSTANCE__@@PBU_GUID@@@Z 10007d1c f i MICR.obj
 0001:00006d7b       ?Init@CDynamicStdCallThunk2@ATL@@QAEHKPAX@Z 10007d7b f i MICR.obj
 0001:00006da6       ?InlineIsEqualUnknown@ATL@@YGHABU_GUID@@@Z 10007da6 f i MICR.obj
 0001:00006dce       ?InternalGetSite@CComControlBase@ATL@@QAEJABU_GUID@@PAPAX@Z 10007dce f i MICR.obj
 0001:00006dfc       ?InternalSetAtIndex@?$CSimpleMap@PA_WPA_WVCExpansionVectorEqualHelper@ATL@@@ATL@@QAEXHABQA_W0@Z 10007dfc f i MICR.obj
 0001:00006e26       ?Invoke@CComTypeInfoHolder@ATL@@QAEJPAUIDispatch@@JABU_GUID@@KGPAUtagDISPPARAMS@@PAUtagVARIANT@@PAUtagEXCEPINFO@@PAI@Z 10007e26 f i MICR.obj
 0001:00006e69       ?IsEqualObject@?$CComPtrBase@UITypeInfo@@@ATL@@QAE_NPAUIUnknown@@@Z 10007e69 f i MICR.obj
 0001:00006e69       ?IsEqualObject@?$CComPtrBase@UIOleClientSite@@@ATL@@QAE_NPAUIUnknown@@@Z 10007e69 f i MICR.obj
 0001:00006ed6       ?IsSpace@CRegParser@ATL@@IAEH_W@Z 10007ed6 f i MICR.obj
 0001:00006f00       ?LoadNameCache@CComTypeInfoHolder@ATL@@QAEJPAUITypeInfo@@@Z 10007f00 f i MICR.obj
 0001:0000704e       ?Lookup@?$CSimpleMap@PA_WPA_WVCExpansionVectorEqualHelper@ATL@@@ATL@@QBEPA_WABQA_W@Z 1000804e f i MICR.obj
 0001:00007074       ?NextToken@CRegParser@ATL@@IAEJPA_W@Z 10008074 f i MICR.obj
 0001:000071ac       ?OnKillFocus@CComControlBase@ATL@@QAEJIIJAAH@Z 100081ac f i MICR.obj
 0001:00007207       ?OnMouseActivate@CComControlBase@ATL@@QAEJIIJAAH@Z 10008207 f i MICR.obj
 0001:00007275       ?OnPaint@CComControlBase@ATL@@QAEJIIJAAH@Z 10008275 f i MICR.obj
 0001:00007327       ?OnSetFocus@CComControlBase@ATL@@QAEJIIJAAH@Z 10008327 f i MICR.obj
 0001:000073b0       ?Open@CRegKey@ATL@@QAEJPAUHKEY__@@PB_WK@Z 100083b0 f i MICR.obj
 0001:00007405       ?PreProcessBuffer@CRegParser@ATL@@QAEJPA_WPAPA_W@Z 10008405 f i MICR.obj
 0001:0000766f       ?ProcessWindowMessage@?$CComControl@VCOPOSMICR@@V?$CWindowImpl@VCOPOSMICR@@VCWindow@ATL@@V?$CWinTraits@$0FGAAAAAA@$0A@@3@@ATL@@@ATL@@UAEHPAUHWND__@@IIJAAJK@Z 1000866f f i MICR.obj
 0001:0000770e       ?PutProperty@?$CComPtr@UIDispatch@@@ATL@@SAJPAUIDispatch@@JPAUtagVARIANT@@@Z 1000870e f i MICR.obj
 0001:000077a0       ?ReadFromStream@CComBSTR@ATL@@QAEJPAUIStream@@@Z 100087a0 f i MICR.obj
 0001:000078ce       ?ReadFromStream@CComVariant@ATL@@QAEJPAUIStream@@GTClassesAllowedInStream@2@K@Z 100088ce f i MICR.obj
 0001:00007a54       ?RecurseDeleteKey@CRegKey@ATL@@QAEJPB_W@Z 10008a54 f i MICR.obj
 0001:00007b16       ?RegCreateKeyExW@CAtlTransactionManager@ATL@@QAEJPAUHKEY__@@PB_WKPA_WKKQAU_SECURITY_ATTRIBUTES@@PAPAU3@PAK@Z 10008b16 f i MICR.obj
 0001:00007b79       ?RegDeleteKeyW@CAtlTransactionManager@ATL@@QAEJPAUHKEY__@@PB_W@Z 10008b79 f i MICR.obj
 0001:00007bcb       ?RegOpenKeyExW@CAtlTransactionManager@ATL@@QAEJPAUHKEY__@@PB_WKKPAPAU3@@Z 10008bcb f i MICR.obj
 0001:00007c22       ?Register@_ATL_WNDCLASSINFOW@ATL@@QAEGPAP6GJPAUHWND__@@IIJ@Z@Z 10008c22 f i MICR.obj
 0001:00007c42       ?RegisterBuffer@CRegParser@ATL@@QAEJPA_WH@Z 10008c42 f i MICR.obj
 0001:00007d7b       ?RegisterFromResource@CRegObject@ATL@@IAEJPB_W00H@Z 10008d7b f i MICR.obj
 0001:00007eb1       ?RegisterServer@?$CAtlModuleT@VCComModule@ATL@@@ATL@@QAEJHPBU_GUID@@@Z 10008eb1 f i MICR.obj
 0001:00007edf       ?RegisterServer@CComModule@ATL@@QAEJHPBU_GUID@@@Z 10008edf f i MICR.obj
 0001:00007f55       ?RegisterSubkeys@CRegParser@ATL@@IAEJPA_WPAUHKEY__@@HH@Z 10008f55 f i MICR.obj
 0001:00008527       ?Remove@CComDynamicUnkArray@ATL@@QAEHK@Z 10009527 f i MICR.obj
 0001:00008550       ?RemoveAll@?$CSimpleMap@PA_WPA_WVCExpansionVectorEqualHelper@ATL@@@ATL@@QAEXXZ 10009550 f i MICR.obj
 0001:0000857c       ?ResourceRegisterSz@CRegObject@ATL@@QAGJPB_W00@Z 1000957c f i MICR.obj
 0001:000085a9       ?ResourceUnregisterSz@CRegObject@ATL@@QAGJPB_W00@Z 100095a9 f i MICR.obj
 0001:000085d6       ?SendOnDataChange@CComControlBase@ATL@@QAEJK@Z 100095d6 f i MICR.obj
 0001:00008623       ?SetControlFocus@CComControlBase@ATL@@QAEHH@Z 10009623 f i MICR.obj
 0001:000086c0       ?SetMultiStringValue@CRegKey@ATL@@QAEJPB_W0@Z 100096c0 f i MICR.obj
 0001:0000871c       ?SetStringValue@CRegKey@ATL@@QAEJPB_W0K@Z 1000971c f i MICR.obj
 0001:00008765       ?SkipAssignment@CRegParser@ATL@@IAEJPA_W@Z 10009765 f i MICR.obj
 0001:000087ca       ?SkipWhiteSpace@CRegParser@ATL@@IAEXXZ 100097ca f i MICR.obj
 0001:000087ec       ?StrChrW@CRegParser@ATL@@KAPA_WPA_W_W@Z 100097ec f i MICR.obj
 0001:00008829       ?Term@CAtlModule@ATL@@QAEXXZ 10009829 f i MICR.obj
 0001:00008862       ?Term@CComModule@ATL@@QAEXXZ 10009862 f i MICR.obj
 0001:000088ba       ?UnregisterServer@?$CAtlModuleT@VCComModule@ATL@@@ATL@@QAEJHPBU_GUID@@@Z 100098ba f i MICR.obj
 0001:000088e0       ?UnregisterServer@CComModule@ATL@@QAEJHPBU_GUID@@@Z 100098e0 f i MICR.obj
 0001:00008956       ?UpdateRegistryFromResource@CAtlModule@ATL@@QAGJIHPAU_ATL_REGMAP_ENTRY@2@@Z 10009956 f i MICR.obj
 0001:00008b21       ?UpdateRegistryFromResource@CAtlModule@ATL@@QAGJPB_WHPAU_ATL_REGMAP_ENTRY@2@@Z 10009b21 f i MICR.obj
 0001:00008cf2       ?VTFromRegType@CRegParser@ATL@@KAHPB_WAAG@Z 10009cf2 f i MICR.obj
 0001:00008d5f       ?WindowProc@?$CWindowImplBaseT@VCWindow@ATL@@V?$CWinTraits@$0FGAAAAAA@$0A@@2@@ATL@@SGJPAUHWND__@@IIJ@Z 10009d5f f i MICR.obj
 0001:00008e51       ?WriteToStream@CComBSTR@ATL@@QAEJPAUIStream@@@Z 10009e51 f i MICR.obj
 0001:00008ea8       ?WriteToStream@CComVariant@ATL@@QAEJPAUIStream@@@Z 10009ea8 f i MICR.obj
 0001:00009022       ?WriteToStream@CComVariant@ATL@@QAEJPAUIStream@@G@Z 1000a022 f i MICR.obj
 0001:0000908b       ?_AtlInitialConstruct@?$CComObjectRootEx@VCComMultiThreadModel@ATL@@@ATL@@QAEJXZ 1000a08b f i MICR.obj
 0001:000090a0       ?_AtlVerifyStackAvailable@_ATL_SAFE_ALLOCA_IMPL@ATL@@YA_NK@Z 1000a0a0 f i MICR.obj
 0001:0000911e       ?atlCreate@?$CWindowImpl@VCOPOSMICR@@VCWindow@ATL@@V?$CWinTraits@$0FGAAAAAA@$0A@@3@@ATL@@QAEPAUHWND__@@PAU3@V_U_RECT@2@PB_WKKV_U_MENUorID@2@PAX@Z 1000a11e f i MICR.obj
 0001:00009162       ?atlCreate@?$CWindowImplBaseT@VCWindow@ATL@@V?$CWinTraits@$0FGAAAAAA@$0A@@2@@ATL@@QAEPAUHWND__@@PAU3@V_U_RECT@2@PB_WKKV_U_MENUorID@2@GPAX@Z 1000a162 f i MICR.obj
 0001:000091fe       ?atlCreate@CRegKey@ATL@@QAEJPAUHKEY__@@PB_WPA_WKKPAU_SECURITY_ATTRIBUTES@@PAK@Z 1000a1fe f i MICR.obj
 0001:0000926d       ?copy@?$_Copy@UtagCONNECTDATA@@@ATL@@SAJPAUtagCONNECTDATA@@PBU3@@Z 1000a26d f i MICR.obj
 0001:000092a3       ?copy@?$_CopyInterface@UIConnectionPoint@@@ATL@@SAJPAPAUIConnectionPoint@@PBQAU3@@Z 1000a2a3 f i MICR.obj
 0001:000092d1       ?memcpy_s@Checked@ATL@@YAXPAXIPBXI@Z 1000a2d1 f i MICR.obj
 0001:000092f0       ?ocscpy_s@@YA_NPA_WIPB_W@Z 1000a2f0 f i MICR.obj
 0001:0000931f       ?ocslen@@YAHPB_W@Z         1000a31f f i MICR.obj
 0001:0000933f       ?wcscpy_s@Checked@ATL@@YAXPA_WIPB_W@Z 1000a33f f i MICR.obj
 0001:0000935b       _DllCanUnloadNow@0         1000a35b f   MICR.obj
 0001:00009367       _DllGetClassObject@12      1000a367 f   MICR.obj
 0001:00009375       _DllMain@12                1000a375 f   MICR.obj
 0001:000093b7       _DllRegisterServer@0       1000a3b7 f   MICR.obj
 0001:000093c6       _DllUnregisterServer@0     1000a3c6 f   MICR.obj
 0001:000093d5       _InlineIsEqualGUID         1000a3d5 f i MICR.obj
 0001:00009405       ___local_stdio_printf_options 1000a405 f i MICR.obj
 0001:0000940b       __vswprintf_s_l            1000a40b f i MICR.obj
 0001:000094b8       _swprintf_s                1000a4b8 f i MICR.obj
 0001:000094d4       ??0?$CComControl@VCOPOSMICR@@V?$CWindowImpl@VCOPOSMICR@@VCWindow@ATL@@V?$CWinTraits@$0FGAAAAAA@$0A@@3@@ATL@@@ATL@@QAE@XZ 1000a4d4 f i MICRImpl.obj
 0001:000094fb       ??0?$CProxy_IOPOSEvents@VCOPOSMICR@@@@QAE@XZ 1000a4fb f i MICRImpl.obj
 0001:0000951b       ??0CComControlBase@ATL@@QAE@AAPAUHWND__@@@Z 1000a51b f i MICRImpl.obj
 0001:00009565       ??0COPOSMICR@@QAE@XZ       1000a565 f   MICRImpl.obj
 0001:0000959b       ??1?$CComControl@VCOPOSMICR@@V?$CWindowImpl@VCOPOSMICR@@VCWindow@ATL@@V?$CWinTraits@$0FGAAAAAA@$0A@@3@@ATL@@@ATL@@UAE@XZ 1000a59b f i MICRImpl.obj
 0001:000095b4       ??1?$IConnectionPointImpl@VCOPOSMICR@@$1?IID_IPropertyNotifySink@@3U_GUID@@BVCComDynamicUnkArray@ATL@@@ATL@@QAE@XZ 1000a5b4 f i MICRImpl.obj
 0001:000095b4       ??1?$IConnectionPointImpl@VCOPOSMICR@@$1?DIID__IOPOSMICREvents@@3U_GUID@@BVCComDynamicUnkArray@ATL@@@ATL@@QAE@XZ 1000a5b4 f i MICRImpl.obj
 0001:000095f1       ??1CComControlBase@ATL@@UAE@XZ 1000a5f1 f i MICRImpl.obj
 0001:00009654       ??1COPOSMICR@@UAE@XZ       1000a654 f   MICRImpl.obj
 0001:0000969c       ??1OposVariantResult@@QAE@XZ 1000a69c f i MICRImpl.obj
 0001:000096bd       ??1_CW@@QAE@XZ             1000a6bd f i MICRImpl.obj
 0001:000096d6       ?BeginInsertion@COPOSMICR@@UAGJJPAJ@Z 1000a6d6 f   MICRImpl.obj
 0001:00009725       ?BeginRemoval@COPOSMICR@@UAGJJPAJ@Z 1000a725 f   MICRImpl.obj
 0001:00009774       ?CheckHealth@COPOSMICR@@UAGJJPAJ@Z 1000a774 f   MICRImpl.obj
 0001:000097c3       ?ClaimDevice@COPOSMICR@@UAGJJPAJ@Z 1000a7c3 f   MICRImpl.obj
 0001:00009838       ?ClearInput@COPOSMICR@@UAGJPAJ@Z 1000a838 f   MICRImpl.obj
 0001:00009853       ?ClearInputProperties@COPOSMICR@@UAGJPAJ@Z 1000a853 f   MICRImpl.obj
 0001:0000986e       ?Close@COPOSMICR@@UAGJPAJ@Z 1000a86e f   MICRImpl.obj
 0001:000098dc       ?CompareFirmwareVersion@COPOSMICR@@UAGJPA_WPAJ1@Z 1000a8dc f   MICRImpl.obj
 0001:0000995c       ?DirectIO@COPOSMICR@@UAGJJPAJPAPA_W0@Z 1000a95c f   MICRImpl.obj
 0001:00009a0a       ?DoInvoke@COPOSMICR@@IAEJJPAVOposVariant@@IHPAJ_N@Z 1000aa0a f   MICRImpl.obj
 0001:00009acc       ?EndInsertion@COPOSMICR@@UAGJPAJ@Z 1000aacc f   MICRImpl.obj
 0001:00009ae7       ?EndRemoval@COPOSMICR@@UAGJPAJ@Z 1000aae7 f   MICRImpl.obj
 0001:00009b02       ?EventClose@COPOSMICR@@IAEXXZ 1000ab02 f i MICRImpl.obj
 0001:00009b35       ?EventInit@COPOSMICR@@IAEJXZ 1000ab35 f i MICRImpl.obj
 0001:00009c01       ?EventUninit@COPOSMICR@@IAEXXZ 1000ac01 f i MICRImpl.obj
 0001:00009c53       ?EventWindowProc@COPOSMICR@@IAGJIIJ@Z 1000ac53 f i MICRImpl.obj
 0001:00009d27       ?FinalConstruct@COPOSMICR@@QAEJXZ 1000ad27 f   MICRImpl.obj
 0001:00009d60       ?FireEventCleanup@COPOSMICR@@IAEXXZ 1000ad60 f i MICRImpl.obj
 0001:00009d76       ?FireEventSetup@COPOSMICR@@IAE_NXZ 1000ad76 f i MICRImpl.obj
 0001:00009daa       ?FreezeEvents@COPOSMICR@@MAGJH@Z 1000adaa f   MICRImpl.obj
 0001:00009e0a       ?GetOposProp@COPOSMICR@@IAEJJPAFJ@Z 1000ae0a f   MICRImpl.obj
 0001:00009e2d       ?GetOposProp@COPOSMICR@@IAEJJPAJJ@Z 1000ae2d f   MICRImpl.obj
 0001:00009eeb       ?GetOposProp@COPOSMICR@@IAEJJPAPA_WJ@Z 1000aeeb f   MICRImpl.obj
 0001:00009fb6       ?OnDraw@COPOSMICR@@MAEJAAUATL_DRAWINFO@@@Z 1000afb6 f   MICRImpl.obj
 0001:0000a056       ?Open@COPOSMICR@@UAGJPA_WPAJ@Z 1000b056 f   MICRImpl.obj
 0001:0000a7f0       ?ReleaseDevice@COPOSMICR@@UAGJPAJ@Z 1000b7f0 f   MICRImpl.obj
 0001:0000a83f       ?ResetStatistics@COPOSMICR@@UAGJPA_WPAJ@Z 1000b83f f   MICRImpl.obj
 0001:0000a896       ?RetrieveStatistics@COPOSMICR@@UAGJPAPA_WPAJ@Z 1000b896 f   MICRImpl.obj
 0001:0000a8ed       ?SOProcessID@COPOSMICR@@UAGJPAJ@Z 1000b8ed f   MICRImpl.obj
 0001:0000a901       ?SetCOFreezeEvents@COPOSMICR@@IAEXF@Z 1000b901 f   MICRImpl.obj
 0001:0000a98c       ?SetOposProp@COPOSMICR@@IAEJJJJ@Z 1000b98c f   MICRImpl.obj
 0001:0000aa6a       ?UpdateFirmware@COPOSMICR@@UAGJPA_WPAJ@Z 1000ba6a f   MICRImpl.obj
 0001:0000aac1       ?UpdateStatistics@COPOSMICR@@UAGJPA_WPAJ@Z 1000bac1 f   MICRImpl.obj
 0001:0000ab18       ?get_AccountNumber@COPOSMICR@@UAGJPAPA_W@Z 1000bb18 f   MICRImpl.obj
 0001:0000ab31       ?get_Amount@COPOSMICR@@UAGJPAPA_W@Z 1000bb31 f   MICRImpl.obj
 0001:0000ab4a       ?get_AutoDisable@COPOSMICR@@UAGJPAF@Z 1000bb4a f   MICRImpl.obj
 0001:0000ab60       ?get_BankNumber@COPOSMICR@@UAGJPAPA_W@Z 1000bb60 f   MICRImpl.obj
 0001:0000ab79       ?get_BinaryConversion@COPOSMICR@@UAGJPAJ@Z 1000bb79 f   MICRImpl.obj
 0001:0000ab8f       ?get_CapCompareFirmwareVersion@COPOSMICR@@UAGJPAF@Z 1000bb8f f   MICRImpl.obj
 0001:0000aba8       ?get_CapPowerReporting@COPOSMICR@@UAGJPAJ@Z 1000bba8 f   MICRImpl.obj
 0001:0000abc1       ?get_CapStatisticsReporting@COPOSMICR@@UAGJPAF@Z 1000bbc1 f   MICRImpl.obj
 0001:0000abda       ?get_CapUpdateFirmware@COPOSMICR@@UAGJPAF@Z 1000bbda f   MICRImpl.obj
 0001:0000abf3       ?get_CapUpdateStatistics@COPOSMICR@@UAGJPAF@Z 1000bbf3 f   MICRImpl.obj
 0001:0000ac0c       ?get_CapValidationDevice@COPOSMICR@@UAGJPAF@Z 1000bc0c f   MICRImpl.obj
 0001:0000ac25       ?get_CheckHealthText@COPOSMICR@@UAGJPAPA_W@Z 1000bc25 f   MICRImpl.obj
 0001:0000ac3e       ?get_CheckType@COPOSMICR@@UAGJPAJ@Z 1000bc3e f   MICRImpl.obj
 0001:0000ac57       ?get_Claimed@COPOSMICR@@UAGJPAF@Z 1000bc57 f   MICRImpl.obj
 0001:0000ac6d       ?get_ControlObjectDescription@COPOSMICR@@UAGJPAPA_W@Z 1000bc6d f   MICRImpl.obj
 0001:0000acaa       ?get_ControlObjectVersion@COPOSMICR@@UAGJPAJ@Z 1000bcaa f   MICRImpl.obj
 0001:0000acbd       ?get_CountryCode@COPOSMICR@@UAGJPAJ@Z 1000bcbd f   MICRImpl.obj
 0001:0000acd6       ?get_DataCount@COPOSMICR@@UAGJPAJ@Z 1000bcd6 f   MICRImpl.obj
 0001:0000acec       ?get_DataEventEnabled@COPOSMICR@@UAGJPAF@Z 1000bcec f   MICRImpl.obj
 0001:0000ad02       ?get_DeviceDescription@COPOSMICR@@UAGJPAPA_W@Z 1000bd02 f   MICRImpl.obj
 0001:0000ad1b       ?get_DeviceEnabled@COPOSMICR@@UAGJPAF@Z 1000bd1b f   MICRImpl.obj
 0001:0000ad31       ?get_DeviceName@COPOSMICR@@UAGJPAPA_W@Z 1000bd31 f   MICRImpl.obj
 0001:0000ad4a       ?get_EPC@COPOSMICR@@UAGJPAPA_W@Z 1000bd4a f   MICRImpl.obj
 0001:0000ad63       ?get_FreezeEvents@COPOSMICR@@UAGJPAF@Z 1000bd63 f   MICRImpl.obj
 0001:0000ad79       ?get_OpenResult@COPOSMICR@@UAGJPAJ@Z 1000bd79 f   MICRImpl.obj
 0001:0000ad90       ?get_PowerNotify@COPOSMICR@@UAGJPAJ@Z 1000bd90 f   MICRImpl.obj
 0001:0000ada6       ?get_PowerState@COPOSMICR@@UAGJPAJ@Z 1000bda6 f   MICRImpl.obj
 0001:0000adbc       ?get_RawData@COPOSMICR@@UAGJPAPA_W@Z 1000bdbc f   MICRImpl.obj
 0001:0000add5       ?get_ResultCode@COPOSMICR@@UAGJPAJ@Z 1000bdd5 f   MICRImpl.obj
 0001:0000ae13       ?get_ResultCodeExtended@COPOSMICR@@UAGJPAJ@Z 1000be13 f   MICRImpl.obj
 0001:0000ae29       ?get_SerialNumber@COPOSMICR@@UAGJPAPA_W@Z 1000be29 f   MICRImpl.obj
 0001:0000ae42       ?get_ServiceObjectDescription@COPOSMICR@@UAGJPAPA_W@Z 1000be42 f   MICRImpl.obj
 0001:0000ae5b       ?get_ServiceObjectVersion@COPOSMICR@@UAGJPAJ@Z 1000be5b f   MICRImpl.obj
 0001:0000ae71       ?get_State@COPOSMICR@@UAGJPAJ@Z 1000be71 f   MICRImpl.obj
 0001:0000ae9d       ?get_TransitNumber@COPOSMICR@@UAGJPAPA_W@Z 1000be9d f   MICRImpl.obj
 0001:0000aeb6       ?put_AutoDisable@COPOSMICR@@UAGJF@Z 1000beb6 f   MICRImpl.obj
 0001:0000aed3       ?put_BinaryConversion@COPOSMICR@@UAGJJ@Z 1000bed3 f   MICRImpl.obj
 0001:0000aee9       ?put_DataEventEnabled@COPOSMICR@@UAGJF@Z 1000bee9 f   MICRImpl.obj
 0001:0000af06       ?put_DeviceEnabled@COPOSMICR@@UAGJF@Z 1000bf06 f   MICRImpl.obj
 0001:0000af23       ?put_FreezeEvents@COPOSMICR@@UAGJF@Z 1000bf23 f   MICRImpl.obj
 0001:0000af6f       ?put_PowerNotify@COPOSMICR@@UAGJJ@Z 1000bf6f f   MICRImpl.obj
 0001:0000af85       ?s_EventWindowProc@COPOSMICR@@KGJPAUHWND__@@IIJ@Z 1000bf85 f i MICRImpl.obj
 0001:0000afd7       ??_U@YAPAXI@Z              1000bfd7 f   LIBCMT:new_array.obj
 0001:0000afe0       ??3@YAXPAXI@Z              1000bfe0 f   LIBCMT:delete_scalar_size.obj
 0001:0000afee       ??_V@YAXPAX@Z              1000bfee f   LIBCMT:delete_array.obj
 0001:0000aff3       ??_V@YAXPAXI@Z             1000bff3 f   LIBCMT:delete_array_size.obj
 0001:0000b045       ___scrt_acquire_startup_lock 1000c045 f   LIBCMT:utility.obj
 0001:0000b077       ___scrt_dllmain_after_initialize_c 1000c077 f   LIBCMT:utility.obj
 0001:0000b0a2       ___scrt_dllmain_before_initialize_c 1000c0a2 f   LIBCMT:utility.obj
 0001:0000b0b0       ___scrt_dllmain_crt_thread_attach 1000c0b0 f   LIBCMT:utility.obj
 0001:0000b0cf       ___scrt_dllmain_crt_thread_detach 1000c0cf f   LIBCMT:utility.obj
 0001:0000b0dc       ___scrt_dllmain_exception_filter 1000c0dc f   LIBCMT:utility.obj
 0001:0000b110       ___scrt_dllmain_uninitialize_c 1000c110 f   LIBCMT:utility.obj
 0001:0000b133       ___scrt_dllmain_uninitialize_critical 1000c133 f   LIBCMT:utility.obj
 0001:0000b140       ___scrt_initialize_crt     1000c140 f   LIBCMT:utility.obj
 0001:0000b179       ___scrt_initialize_onexit_tables 1000c179 f   LIBCMT:utility.obj
 0001:0000b200       ___scrt_is_nonwritable_in_current_image 1000c200 f   LIBCMT:utility.obj
 0001:0000b294       ___scrt_release_startup_lock 1000c294 f   LIBCMT:utility.obj
 0001:0000b2b1       ___scrt_uninitialize_crt   1000c2b1 f   LIBCMT:utility.obj
 0001:0000b2d9       __onexit                   1000c2d9 f   LIBCMT:utility.obj
 0001:0000b306       _atexit                    1000c306 f   LIBCMT:utility.obj
 0001:0000b31b       ??3@YAXPAX@Z               1000c31b f   LIBCMT:delete_scalar.obj
 0001:0000b3e5       __Init_thread_footer       1000c3e5 f   LIBCMT:thread_safe_statics.obj
 0001:0000b42f       __Init_thread_header       1000c42f f   LIBCMT:thread_safe_statics.obj
 0001:0000b481       __Init_thread_notify       1000c481 f   LIBCMT:thread_safe_statics.obj
 0001:0000b4b7       __Init_thread_wait         1000c4b7 f   LIBCMT:thread_safe_statics.obj
 0001:0000b505       ___raise_securityfailure   1000c505 f   LIBCMT:gs_report.obj
 0001:0000b52d       ___report_gsfailure        1000c52d f   LIBCMT:gs_report.obj
 0001:0000b626       ___report_rangecheckfailure 1000c626 f   LIBCMT:gs_report.obj
 0001:0000b632       ___report_securityfailure  1000c632 f   LIBCMT:gs_report.obj
 0001:0000b700       ??2@YAPAXIABUnothrow_t@std@@@Z 1000c700 f   LIBCMT:new_scalar_nothrow.obj
 0001:0000b750       ??_U@YAPAXIABUnothrow_t@std@@@Z 1000c750 f   LIBCMT:new_array_nothrow.obj
 0001:0000b759       @__security_check_cookie@4 1000c759 f   LIBCMT:secchk.obj
 0001:0000b770       __SEH_prolog4_GS           1000c770 f   LIBCMT:sehprolg4gs.obj
 0001:0000b7b9       __SEH_epilog4_GS           1000c7b9 f   LIBCMT:sehprolg4gs.obj
 0001:0000b7d0       __alloca_probe_16          1000c7d0 f   LIBCMT:alloca16.obj
 0001:0000b7e6       __alloca_probe_8           1000c7e6     LIBCMT:alloca16.obj
 0001:0000b800       __chkstk                   1000c800 f   LIBCMT:chkstk.obj
 0001:0000b800       __alloca_probe             1000c800 f   LIBCMT:chkstk.obj
 0001:0000bb48       __DllMainCRTStartup@12     1000cb48 f   LIBCMT:dll_dllmain.obj
 0001:0000bb6b       ??2@YAPAXI@Z               1000cb6b f   LIBCMT:new_scalar.obj
 0001:0000bb9b       ___isa_available_init      1000cb9b f   LIBCMT:cpu_disp.obj
 0001:0000bd32       ___scrt_is_ucrt_dll_in_use 1000cd32 f   LIBCMT:ucrt_detection.obj
 0001:0000bd3e       ___scrt_fastfail           1000cd3e f   LIBCMT:utility_desktop.obj
 0001:0000be58       __crt_debugger_hook        1000ce58 f   LIBCMT:utility_desktop.obj
 0001:0000be60       __SEH_prolog4              1000ce60 f   LIBCMT:sehprolg4.obj
 0001:0000bea6       __SEH_epilog4              1000cea6 f   LIBCMT:sehprolg4.obj
 0001:0000bebb       @_guard_check_icall_nop@4  1000cebb f i LIBCMT:guard_support.obj
 0001:0000bf09       ___security_init_cookie    1000cf09 f   LIBCMT:gs_support.obj
 0001:0000bf54       ?__scrt_initialize_type_info@@YAXXZ 1000cf54 f   LIBCMT:tncleanup.obj
 0001:0000bf60       ?__scrt_uninitialize_type_info@@YAXXZ 1000cf60 f   LIBCMT:tncleanup.obj
 0001:0000bf6c       ___local_stdio_scanf_options 1000cf6c f i LIBCMT:default_local_stdio_options.obj
 0001:0000bf72       ___scrt_initialize_default_local_stdio_options 1000cf72 f   LIBCMT:default_local_stdio_options.obj
 0001:0000bf8f       ___scrt_get_dyn_tls_init_callback 1000cf8f f   LIBCMT:dyn_tls_init.obj
 0001:0000bf95       __RTC_Initialize           1000cf95 f   LIBCMT:initsect.obj
 0001:0000bfc1       __RTC_Terminate            1000cfc1 f   LIBCMT:initsect.obj
 0001:0000bfed       ??0bad_alloc@std@@QAE@ABV01@@Z 1000cfed f i LIBCMT:throw_bad_alloc.obj
 0001:0000c008       ??0bad_alloc@std@@QAE@XZ   1000d008 f i LIBCMT:throw_bad_alloc.obj
 0001:0000c020       ??0bad_array_new_length@std@@QAE@ABV01@@Z 1000d020 f i LIBCMT:throw_bad_alloc.obj
 0001:0000c03b       ??0bad_array_new_length@std@@QAE@XZ 1000d03b f i LIBCMT:throw_bad_alloc.obj
 0001:0000c053       ??0exception@std@@QAE@ABV01@@Z 1000d053 f i LIBCMT:throw_bad_alloc.obj
 0001:0000c07f       ??1bad_alloc@std@@UAE@XZ   1000d07f f i LIBCMT:throw_bad_alloc.obj
 0001:0000c07f       ??1bad_exception@std@@UAE@XZ 1000d07f f i libvcruntime:frame.obj
 0001:0000c07f       ??1bad_array_new_length@std@@UAE@XZ 1000d07f f i LIBCMT:throw_bad_alloc.obj
 0001:0000c090       ??_Ebad_alloc@std@@UAEPAXI@Z 1000d090 f i LIBCMT:throw_bad_alloc.obj
 0001:0000c090       ??_Gbad_alloc@std@@UAEPAXI@Z 1000d090 f i LIBCMT:throw_bad_alloc.obj
 0001:0000c090       ??_Gbad_exception@std@@UAEPAXI@Z 1000d090 f i libvcruntime:frame.obj
 0001:0000c090       ??_Gbad_array_new_length@std@@UAEPAXI@Z 1000d090 f i LIBCMT:throw_bad_alloc.obj
 0001:0000c090       ??_Ebad_array_new_length@std@@UAEPAXI@Z 1000d090 f i LIBCMT:throw_bad_alloc.obj
 0001:0000c090       ??_Gexception@std@@UAEPAXI@Z 1000d090 f i LIBCMT:throw_bad_alloc.obj
 0001:0000c090       ??_Eexception@std@@UAEPAXI@Z 1000d090 f i LIBCMT:throw_bad_alloc.obj
 0001:0000c090       ??_Ebad_exception@std@@UAEPAXI@Z 1000d090 f i libvcruntime:frame.obj
 0001:0000c0bd       ?__scrt_throw_std_bad_alloc@@YAXXZ 1000d0bd f   LIBCMT:throw_bad_alloc.obj
 0001:0000c0da       ?__scrt_throw_std_bad_array_new_length@@YAXXZ 1000d0da f   LIBCMT:throw_bad_alloc.obj
 0001:0000c0f7       ?what@exception@std@@UBEPBDXZ 1000d0f7 f i LIBCMT:throw_bad_alloc.obj
 0001:0000c104       ??_Etype_info@@UAEPAXI@Z   1000d104 f i LIBCMT:std_type_info_static.obj
 0001:0000c104       ??_Gtype_info@@UAEPAXI@Z   1000d104 f i LIBCMT:std_type_info_static.obj
 0001:0000c127       ??0CAtlBaseModule@ATL@@QAE@XZ 1000d127 f   atls:atlbase.obj
 0001:0000c17a       ??0_ATL_BASE_MODULE70@ATL@@QAE@XZ 1000d17a f i atls:atlbase.obj
 0001:0000c19d       ??1CAtlBaseModule@ATL@@QAE@XZ 1000d19d f   atls:atlbase.obj
 0001:0000c28a       ?Init@_stdcallthunk@ATL@@QAEHKPAX@Z 1000d28a f i atls:atlthunk.obj
 0001:0000c2bf       ?__AllocStdCallThunk_cmn@@YAPAXXZ 1000d2bf f   atls:atlthunk.obj
 0001:0000c385       ?__FreeStdCallThunk_cmn@@YAXPAX@Z 1000d385 f   atls:atlthunk.obj
 0001:0000c420       _AtlThunk_AllocateData@0   1000d420 f   atls:atlthunk.obj
 0001:0000c485       _AtlThunk_DataToCode@4     1000d485 f   atls:atlthunk.obj
 0001:0000c4cc       _AtlThunk_FreeData@4       1000d4cc f   atls:atlthunk.obj
 0001:0000c522       _AtlThunk_InitData@12      1000d522 f   atls:atlthunk.obj
 0001:0000c571       __purecall                 1000d571 f   libvcruntime:purevirt.obj
 0001:0000c58c       _wcsstr                    1000d58c f   libvcruntime:wcsstr.obj
 0001:0000c850       __except_handler4          1000d850 f   libvcruntime:chandler4.obj
 0001:0000c9ae       _memcmp                    1000d9ae f   libvcruntime:memcmp.obj
 0001:0000d960       _memcpy                    1000e960 f   libvcruntime:memcpy.obj
 0001:0000dee0       _memset                    1000eee0 f   libvcruntime:memset.obj
 0001:0000e03a       ___vcrt_initialize         1000f03a f   libvcruntime:initialization.obj
 0001:0000e059       ___vcrt_thread_attach      1000f059 f   libvcruntime:initialization.obj
 0001:0000e064       ___vcrt_thread_detach      1000f064 f   libvcruntime:initialization.obj
 0001:0000e06f       ___vcrt_uninitialize       1000f06f f   libvcruntime:initialization.obj
 0001:0000e086       ___vcrt_uninitialize_critical 1000f086 f   libvcruntime:initialization.obj
 0001:0000e08e       ?GetRangeOfTrysToCheck@__FrameHandler3@@SA?AU?$pair@Viterator@TryBlockMap@__FrameHandler3@@V123@@std@@AAVTryBlockMap@1@HPAXPBU_s_FuncInfo@@H@Z 1000f08e f   libvcruntime:trnsctrl.obj
 0001:0000e0fe       ?_CallCatchBlock2@@YAPAXPAUEHRegistrationNode@@PBU_s_FuncInfo@@PAXHK@Z 1000f0fe f   libvcruntime:trnsctrl.obj
 0001:0000e15c       ?_CallSETranslator@@YAHPAUEHExceptionRecord@@PAUEHRegistrationNode@@PAX2PBU_s_FuncInfo@@H1@Z 1000f15c f   libvcruntime:trnsctrl.obj
 0001:0000e242       ?_JumpToContinuation@@YGXPAXPAUEHRegistrationNode@@@Z 1000f242 f   libvcruntime:trnsctrl.obj
 0001:0000e272       ?_UnwindNestedFrames@@YGXPAUEHRegistrationNode@@PAUEHExceptionRecord@@@Z 1000f272 f   libvcruntime:trnsctrl.obj
 0001:0000e2c5       __CatchGuardHandler        1000f2c5 f   libvcruntime:trnsctrl.obj
 0001:0000e2f6       __CreateFrameInfo          1000f2f6 f   libvcruntime:trnsctrl.obj
 0001:0000e31a       __FindAndUnlinkFrame       1000f31a f   libvcruntime:trnsctrl.obj
 0001:0000e362       __TranslatorGuardHandler   1000f362 f   libvcruntime:trnsctrl.obj
 0001:0000e3ff       ___CxxFrameHandler3        1000f3ff f   libvcruntime:trnsctrl.obj
 0001:0000e435       ___std_type_info_compare   1000f435 f   libvcruntime:std_type_info.obj
 0001:0000e471       ___std_type_info_destroy_list 1000f471 f   libvcruntime:std_type_info.obj
 0001:0000e494       ___std_exception_copy      1000f494 f   libvcruntime:std_exception.obj
 0001:0000e4f7       ___std_exception_destroy   1000f4f7 f   libvcruntime:std_exception.obj
 0001:0000e516       __CxxThrowException@8      1000f516 f   libvcruntime:throw.obj
 0001:0000e590       _memmove                   1000f590 f   libvcruntime:memmove.obj
 0001:0000eb10       __local_unwind4            1000fb10 f   libvcruntime:exsup4.obj
 0001:0000ebe8       __seh_longjmp_unwind4@4    1000fbe8 f   libvcruntime:exsup4.obj
 0001:0000ec10       @_EH4_CallFilterFunc@8     1000fc10 f   libvcruntime:exsup4.obj
 0001:0000ec28       @_EH4_TransferToHandler@8  1000fc28 f   libvcruntime:exsup4.obj
 0001:0000ec44       @_EH4_GlobalUnwind2@8      1000fc44 f   libvcruntime:exsup4.obj
 0001:0000ec60       @_EH4_LocalUnwind@16       1000fc60 f   libvcruntime:exsup4.obj
 0001:0000ec77       ___except_validate_context_record 1000fc77 f   libvcruntime:jbcxrval.obj
 0001:0000eca7       ___except_validate_jump_buffer 1000fca7 f   libvcruntime:jbcxrval.obj
 0001:0000ecd4       ___vcrt_freefls@4          1000fcd4 f   libvcruntime:per_thread_data.obj
 0001:0000ecf0       ___vcrt_freeptd            1000fcf0 f   libvcruntime:per_thread_data.obj
 0001:0000ed26       ___vcrt_getptd             1000fd26 f   libvcruntime:per_thread_data.obj
 0001:0000ed34       ___vcrt_getptd_noexit      1000fd34 f   libvcruntime:per_thread_data.obj
 0001:0000edc6       ___vcrt_initialize_ptd     1000fdc6 f   libvcruntime:per_thread_data.obj
 0001:0000edf9       ___vcrt_uninitialize_ptd   1000fdf9 f   libvcruntime:per_thread_data.obj
 0001:0000ee14       ___vcrt_initialize_locks   1000fe14 f   libvcruntime:locks.obj
 0001:0000ee50       ___vcrt_uninitialize_locks 1000fe50 f   libvcruntime:locks.obj
 0001:0000f5ab       ??$TypeMatchHelper@V__FrameHandler3@@@@YAHPBU_s_HandlerType@@PBU_s_CatchableType@@PBU_s_ThrowInfo@@@Z 100105ab f i libvcruntime:frame.obj
 0001:0000f639       ??$__InternalCxxFrameHandler@V__FrameHandler3@@@@YA?AW4_EXCEPTION_DISPOSITION@@PAUEHExceptionRecord@@PAUEHRegistrationNode@@PAU_CONTEXT@@PAXPBU_s_FuncInfo@@H1E@Z 10010639 f i libvcruntime:frame.obj
 0001:0000f73b       ??0bad_exception@std@@QAE@ABV01@@Z 1001073b f i libvcruntime:frame.obj
 0001:0000f756       ??0bad_exception@std@@QAE@XZ 10010756 f i libvcruntime:frame.obj
 0001:0000f76e       ??8type_info@@QBE_NABV0@@Z 1001076e f i libvcruntime:frame.obj
 0001:0000f9d5       ?FrameUnwindToEmptyState@__FrameHandler3@@SAXPAUEHRegistrationNode@@PAXPBU_s_FuncInfo@@@Z 100109d5 f   libvcruntime:frame.obj
 0001:0000f9ed       ?FrameUnwindToState@__FrameHandler3@@SAXPAUEHRegistrationNode@@PAXPBU_s_FuncInfo@@H@Z 100109ed f   libvcruntime:frame.obj
 0001:0000fb6f       ?_CallMemberFunction1@@YGXQAX00@Z 10010b6f f i libvcruntime:frame.obj
 0001:0000fb7f       ?_CallMemberFunction2@@YGXQAX00H@Z 10010b7f f i libvcruntime:frame.obj
 0001:0000fb92       ?getESTypes@__FrameHandler3@@SAPBU_s_ESTypeList@@PBU_s_FuncInfo@@@Z 10010b92 f i libvcruntime:frame.obj
 0001:0000fba0       __CallSettingFrame@12      10010ba0 f   libvcruntime:lowhelpr.obj
 0001:0000fbc7       __NLG_Return               10010bc7     libvcruntime:lowhelpr.obj
 0001:0000fbf0       __global_unwind2           10010bf0 f   libvcruntime:exsup.obj
 0001:0000fc56       __local_unwind2            10010c56 f   libvcruntime:exsup.obj
 0001:0000fcda       __abnormal_termination     10010cda f   libvcruntime:exsup.obj
 0001:0000fd00       __NLG_Notify1              10010d00 f   libvcruntime:exsup.obj
 0001:0000fd0c       __NLG_Notify               10010d0c f   libvcruntime:exsup.obj
 0001:0000fd23       __NLG_Dispatch2            10010d23     libvcruntime:exsup.obj
 0001:0000fd23       __NLG_Dispatch             10010d23     libvcruntime:exsup.obj
 0001:0000fd2b       __NLG_Call                 10010d2b f   libvcruntime:exsup.obj
 0001:0000fd2d       __NLG_Return2              10010d2d     libvcruntime:exsup.obj
 0001:0000fe23       ___vcrt_FlsAlloc           10010e23 f   libvcruntime:winapi_downlevel.obj
 0001:0000fe5e       ___vcrt_FlsFree            10010e5e f   libvcruntime:winapi_downlevel.obj
 0001:0000fe99       ___vcrt_FlsGetValue        10010e99 f   libvcruntime:winapi_downlevel.obj
 0001:0000fed4       ___vcrt_FlsSetValue        10010ed4 f   libvcruntime:winapi_downlevel.obj
 0001:0000ff12       ___vcrt_InitializeCriticalSectionEx 10010f12 f   libvcruntime:winapi_downlevel.obj
 0001:0000ff59       _unexpected                10010f59 f   libvcruntime:unexpected.obj
 0001:0000ff76       ?GetCurrentState@__FrameHandler3@@SAHPAUEHRegistrationNode@@PAXPBU_s_FuncInfo@@@Z 10010f76 f   libvcruntime:ehstate.obj
 0001:0000ff93       ?SetState@__FrameHandler3@@SAXPAUEHRegistrationNode@@PBU_s_FuncInfo@@H@Z 10010f93 f   libvcruntime:ehstate.obj
 0001:0000ffa1       ___DestructExceptionObject 10010fa1 f   libvcruntime:ehhelpers.obj
 0001:00010041       ?_CallMemberFunction0@@YGXQAX0@Z 10011041 f i libvcruntime:ehhelpers.obj
 0001:0001004e       __IsExceptionObjectToBeDestroyed 1001104e f   libvcruntime:ehhelpers.obj
 0001:00010074       ___AdjustPointer           10011074 f   libvcruntime:ehhelpers.obj
 0001:00010099       ___FrameUnwindFilter       10011099 f   libvcruntime:ehhelpers.obj
 0001:000100de       _free                      100110de f   libucrt:free.obj
 0001:000100f9       ___acrt_call_reportfault   100110f9 f   libucrt:invalid_parameter.obj
 0001:00010232       ___acrt_initialize_invalid_parameter_handler 10011232 f   libucrt:invalid_parameter.obj
 0001:00010241       __invalid_parameter        10011241 f   libucrt:invalid_parameter.obj
 0001:000102a5       __invalid_parameter_noinfo 100112a5 f   libucrt:invalid_parameter.obj
 0001:000102b5       __invoke_watson            100112b5 f   libucrt:invalid_parameter.obj
 0001:000102e9       ___acrt_errno_from_os_error 100112e9 f   libucrt:errno.obj
 0001:0001032c       ___acrt_errno_map_os_error 1001132c f   libucrt:errno.obj
 0001:0001034f       ___doserrno                1001134f f   libucrt:errno.obj
 0001:00010362       __errno                    10011362 f   libucrt:errno.obj
 0001:00010375       _calloc                    10011375 f   libucrt:calloc.obj
 0001:00010380       _malloc                    10011380 f   libucrt:malloc.obj
 0001:0001038b       __recalloc                 1001138b f   libucrt:recalloc.obj
 0001:00010396       __recalloc_base            10011396 f   libucrt:recalloc.obj
 0001:00010403       __resetstkoflw             10011403 f   libucrt:resetstk.obj
 0001:000104c8       _wcscat_s                  100114c8 f   libucrt:wcscat_s.obj
 0001:0001053d       _wcscpy_s                  1001153d f   libucrt:wcscpy_s.obj
 0001:0001066c       _wcsncpy_s                 1001166c f   libucrt:wcsncpy_s.obj
 0001:00010878       ??$count@D@formatting_buffer@__crt_stdio_output@@QBEIXZ 10011878 f i libucrt:output.obj
 0001:00010890       ??$count@_W@formatting_buffer@__crt_stdio_output@@QBEIXZ 10011890 f i libucrt:output.obj
 0001:000108a9       ??$ensure_buffer_is_big_enough@D@formatting_buffer@__crt_stdio_output@@QAE_NI@Z 100118a9 f i libucrt:output.obj
 0001:00010926       ??$ensure_buffer_is_big_enough@_W@formatting_buffer@__crt_stdio_output@@QAE_NI@Z 10011926 f i libucrt:output.obj
 0001:000109a4       ??$is_wide_character_specifier@_W@__crt_stdio_output@@YA_N_K_WW4length_modifier@0@@Z 100119a4 f i libucrt:output.obj
 0001:000109f2       ??$scratch_data@D@formatting_buffer@__crt_stdio_output@@QAEPADXZ 100119f2 f i libucrt:output.obj
 0001:00010a10       ??$type_case_integer_parse_into_buffer@I@?$output_processor@_WV?$string_output_adapter@_W@__crt_stdio_output@@V?$format_validation_base@_WV?$string_output_adapter@_W@__crt_stdio_output@@@2@@__crt_stdio_output@@AAEXII_N@Z 10011a10 f i libucrt:output.obj
 0001:00010a97       ??$type_case_integer_parse_into_buffer@_K@?$output_processor@_WV?$string_output_adapter@_W@__crt_stdio_output@@V?$format_validation_base@_WV?$string_output_adapter@_W@__crt_stdio_output@@@2@@__crt_stdio_output@@AAEX_KI_N@Z 10011a97 f i libucrt:output.obj
 0001:00010b39       ??$write_multiple_characters@V?$string_output_adapter@_W@__crt_stdio_output@@D@__crt_stdio_output@@YAXABV?$string_output_adapter@_W@0@DHQAH@Z 10011b39 f i libucrt:output.obj
 0001:00010b6a       ??0?$common_data@_W@__crt_stdio_output@@IAE@XZ 10011b6a f i libucrt:output.obj
 0001:00010bb4       ??0?$output_adapter_data@_WV?$string_output_adapter@_W@__crt_stdio_output@@@__crt_stdio_output@@IAE@ABV?$string_output_adapter@_W@1@_KQB_WQAU__crt_locale_pointers@@QAD@Z 10011bb4 f i libucrt:output.obj
 0001:00010bf0       ??0_LocaleUpdate@@QAE@QAU__crt_locale_pointers@@@Z 10011bf0 f i libucrt:output.obj
 0001:00010c73       ??1formatting_buffer@__crt_stdio_output@@QAE@XZ 10011c73 f i libucrt:output.obj
 0001:00010c8d       ??4?$__crt_unique_heap_ptr@DU__crt_internal_free_policy@@@@QAEAAV0@$$QAV0@@Z 10011c8d f i libucrt:output.obj
 0001:00010cb1       ?crop_zeroes@__crt_stdio_output@@YAXPADQAU__crt_locale_pointers@@@Z 10011cb1 f i libucrt:output.obj
 0001:00010d11       ?find_next_state@?$output_processor@_WV?$string_output_adapter@_W@__crt_stdio_output@@V?$format_validation_base@_WV?$string_output_adapter@_W@__crt_stdio_output@@@2@@__crt_stdio_output@@ABE?AW4state@2@_WW432@@Z 10011d11 f i libucrt:output.obj
 0001:00010d53       ?force_decimal_point@__crt_stdio_output@@YAXPADQAU__crt_locale_pointers@@@Z 10011d53 f i libucrt:output.obj
 0001:00010daf       ?parse_int_from_format_string@?$output_processor@_WV?$string_output_adapter@_W@__crt_stdio_output@@V?$format_validation_base@_WV?$string_output_adapter@_W@__crt_stdio_output@@@2@@__crt_stdio_output@@AAE_NQAH@Z 10011daf f i libucrt:output.obj
 0001:00010e25       ?process@?$output_processor@_WV?$string_output_adapter@_W@__crt_stdio_output@@V?$format_validation_base@_WV?$string_output_adapter@_W@__crt_stdio_output@@@2@@__crt_stdio_output@@QAEHXZ 10011e25 f i libucrt:output.obj
 0001:00010f4d       ?state_case_flag@?$output_processor@_WV?$string_output_adapter@_W@__crt_stdio_output@@V?$format_validation_base@_WV?$string_output_adapter@_W@__crt_stdio_output@@@2@@__crt_stdio_output@@AAE_NXZ 10011f4d f i libucrt:output.obj
 0001:00010f8a       ?state_case_normal@?$output_processor@_WV?$string_output_adapter@_W@__crt_stdio_output@@V?$format_validation_base@_WV?$string_output_adapter@_W@__crt_stdio_output@@@2@@__crt_stdio_output@@AAE_NXZ 10011f8a f i libucrt:output.obj
 0001:00010fa9       ?state_case_normal_common@?$output_processor@_WV?$string_output_adapter@_W@__crt_stdio_output@@V?$format_validation_base@_WV?$string_output_adapter@_W@__crt_stdio_output@@@2@@__crt_stdio_output@@AAE_NXZ 10011fa9 f i libucrt:output.obj
 0001:00010fc4       ?state_case_precision@?$output_processor@_WV?$string_output_adapter@_W@__crt_stdio_output@@V?$format_validation_base@_WV?$string_output_adapter@_W@__crt_stdio_output@@@2@@__crt_stdio_output@@AAE_NXZ 10011fc4 f i libucrt:output.obj
 0001:00010feb       ?state_case_size@?$output_processor@_WV?$string_output_adapter@_W@__crt_stdio_output@@V?$format_validation_base@_WV?$string_output_adapter@_W@__crt_stdio_output@@@2@@__crt_stdio_output@@AAE_NXZ 10011feb f i libucrt:output.obj
 0001:00011163       ?state_case_type@?$output_processor@_WV?$string_output_adapter@_W@__crt_stdio_output@@V?$format_validation_base@_WV?$string_output_adapter@_W@__crt_stdio_output@@@2@@__crt_stdio_output@@AAE_NXZ 10012163 f i libucrt:output.obj
 0001:000113c8       ?state_case_width@?$output_processor@_WV?$string_output_adapter@_W@__crt_stdio_output@@V?$format_validation_base@_WV?$string_output_adapter@_W@__crt_stdio_output@@@2@@__crt_stdio_output@@AAE_NXZ 100123c8 f i libucrt:output.obj
 0001:000113f4       ?to_integer_size@__crt_stdio_output@@YAIW4length_modifier@1@@Z 100123f4 f i libucrt:output.obj
 0001:00011448       ?type_case_Z@?$output_processor@_WV?$string_output_adapter@_W@__crt_stdio_output@@V?$format_validation_base@_WV?$string_output_adapter@_W@__crt_stdio_output@@@2@@__crt_stdio_output@@AAE_NXZ 10012448 f i libucrt:output.obj
 0001:000114a2       ?type_case_a@?$output_processor@_WV?$string_output_adapter@_W@__crt_stdio_output@@V?$format_validation_base@_WV?$string_output_adapter@_W@__crt_stdio_output@@@2@@__crt_stdio_output@@AAE_NXZ 100124a2 f i libucrt:output.obj
 0001:00011607       ?type_case_c_tchar@?$output_processor@_WV?$string_output_adapter@_W@__crt_stdio_output@@V?$format_validation_base@_WV?$string_output_adapter@_W@__crt_stdio_output@@@2@@__crt_stdio_output@@AAE_N_W@Z 10012607 f i libucrt:output.obj
 0001:0001169d       ?type_case_integer@?$output_processor@_WV?$string_output_adapter@_W@__crt_stdio_output@@V?$format_validation_base@_WV?$string_output_adapter@_W@__crt_stdio_output@@@2@@__crt_stdio_output@@AAE_NI_N@Z 1001269d f i libucrt:output.obj
 0001:000117f2       ?type_case_n@?$output_processor@_WV?$string_output_adapter@_W@__crt_stdio_output@@V?$format_validation_base@_WV?$string_output_adapter@_W@__crt_stdio_output@@@2@@__crt_stdio_output@@AAE_NXZ 100127f2 f i libucrt:output.obj
 0001:00011866       ?type_case_o@?$output_processor@_WV?$string_output_adapter@_W@__crt_stdio_output@@V?$format_validation_base@_WV?$string_output_adapter@_W@__crt_stdio_output@@@2@@__crt_stdio_output@@AAE_NXZ 10012866 f i libucrt:output.obj
 0001:00011885       ?type_case_p@?$output_processor@_WV?$string_output_adapter@_W@__crt_stdio_output@@V?$format_validation_base@_WV?$string_output_adapter@_W@__crt_stdio_output@@@2@@__crt_stdio_output@@AAE_NXZ 10012885 f i libucrt:output.obj
 0001:0001189d       ?type_case_s@?$output_processor@_WV?$string_output_adapter@_W@__crt_stdio_output@@V?$format_validation_base@_WV?$string_output_adapter@_W@__crt_stdio_output@@@2@@__crt_stdio_output@@AAE_NXZ 1001289d f i libucrt:output.obj
 0001:00011910       ?type_case_s_compute_narrow_string_length@?$output_processor@_WV?$string_output_adapter@_W@__crt_stdio_output@@V?$format_validation_base@_WV?$string_output_adapter@_W@__crt_stdio_output@@@2@@__crt_stdio_output@@ABEHH_W@Z 10012910 f i libucrt:output.obj
 0001:00011957       ?validate@?$c_string_character_source@_W@__crt_strtox@@QBE_NXZ 10012957 f i libucrt:atox.obj
 0001:00011957       ?validate@?$string_output_adapter@_W@__crt_stdio_output@@QBE_NXZ 10012957 f i libucrt:output.obj
 0001:00011972       ?validate_and_update_state_at_end_of_format_string@?$format_validation_base@_WV?$string_output_adapter@_W@__crt_stdio_output@@@__crt_stdio_output@@IBE_NXZ 10012972 f i libucrt:output.obj
 0001:00011994       ?write_character@?$string_output_adapter@_W@__crt_stdio_output@@QBE_N_WQAH@Z 10012994 f i libucrt:output.obj
 0001:000119d9       ?write_stored_string_tchar@?$output_processor@_WV?$string_output_adapter@_W@__crt_stdio_output@@V?$format_validation_base@_WV?$string_output_adapter@_W@__crt_stdio_output@@@2@@__crt_stdio_output@@AAE_N_W@Z 100129d9 f i libucrt:output.obj
 0001:00011a6c       ?write_string@?$string_output_adapter@_W@__crt_stdio_output@@QBEXQB_WHQAHAAV__crt_deferred_errno_cache@@@Z 10012a6c f i libucrt:output.obj
 0001:00011add       ___acrt_locale_get_ctype_array_value 10012add f i libucrt:output.obj
 0001:00011aff       ___stdio_common_vswprintf_s 10012aff f   libucrt:output.obj
 0001:00011b23       __seh_filter_dll           10012b23 f   libucrt:exception_filter.obj
 0001:00011b43       __seh_filter_exe           10012b43 f   libucrt:exception_filter.obj
 0001:00011f11       ___acrt_initialize_thread_local_exit_callback 10012f11 f   libucrt:exit.obj
 0001:00011f20       __cexit                    10012f20 f   libucrt:exit.obj
 0001:00011f2f       __exit                     10012f2f f   libucrt:exit.obj
 0001:00011f45       __is_c_termination_complete 10012f45 f   libucrt:exit.obj
 0001:000121f9       ___acrt_allocate_buffer_for_argv 100131f9 f   libucrt:argv_parsing.obj
 0001:00012248       __configure_narrow_argv    10013248 f   libucrt:argv_parsing.obj
 0001:000123a5       ??$uninitialize@A6AXAAPAPA_W@Z@?$dual_state_global@PAPA_W@__crt_state_management@@QAEXA6AXAAPAPA_W@Z@Z 100133a5 f i libucrt:environment_initialization.obj
 0001:000123a5       ??$uninitialize@A6AXAAPAPAD@Z@?$dual_state_global@PAPAD@__crt_state_management@@QAEXA6AXAAPAPAD@Z@Z 100133a5 f i libucrt:environment_initialization.obj
 0001:00012404       ___dcrt_uninitialize_environments_nolock 10013404 f   libucrt:environment_initialization.obj
 0001:0001243b       __initialize_narrow_environment 1001343b f   libucrt:environment_initialization.obj
 0001:000124f6       ??$__crt_fast_encode_pointer@PAX@@YAPAXQAX@Z 100134f6 f i libucrt:initialization.obj
 0001:000124f6       ??$__crt_fast_encode_pointer@P6AHXZ@@YAP6AHXZQ6AHXZ@Z 100134f6 f i libucrt:onexit.obj
 0001:000124f6       ??$__crt_fast_encode_pointer@PAP6AXXZ@@YAPAP6AXXZQAP6AXXZ@Z 100134f6 f i libucrt:onexit.obj
 0001:00012718       __crt_atexit               10013718 f   libucrt:onexit.obj
 0001:0001272e       __execute_onexit_table     1001372e f   libucrt:onexit.obj
 0001:0001275b       __initialize_onexit_table  1001375b f   libucrt:onexit.obj
 0001:00012784       __register_onexit_function 10013784 f   libucrt:onexit.obj
 0001:000127b7       ___acrt_uninitialize_command_line 100137b7 f   libucrt:argv_data.obj
 0001:000128b5       ___acrt_initialize         100138b5 f   libucrt:initialization.obj
 0001:000128c7       ___acrt_thread_attach      100138c7 f   libucrt:initialization.obj
 0001:000128d2       ___acrt_thread_detach      100138d2 f   libucrt:initialization.obj
 0001:000128da       ___acrt_uninitialize       100138da f   libucrt:initialization.obj
 0001:0001290a       ___acrt_uninitialize_critical 1001390a f   libucrt:initialization.obj
 0001:0001291c       __initterm                 1001391c f   libucrt:initterm.obj
 0001:00012961       __initterm_e               10013961 f   libucrt:initterm.obj
 0001:0001298f       ___acrt_initialize_new_handler 1001398f f   libucrt:new_handler.obj
 0001:0001299e       __callnewh                 1001399e f   libucrt:new_handler.obj
 0001:000129cb       __query_new_handler        100139cb f   libucrt:new_handler.obj
 0001:00012a27       _terminate                 10013a27 f   libucrt:terminate.obj
 0001:00012a63       _abort                     10013a63 f   libucrt:abort.obj
 0001:00012aa7       _strcpy_s                  10013aa7 f   libucrt:strcpy_s.obj
 0001:00012b01       ??$is_overflow_condition@K@__crt_strtox@@YA_NIK@Z 10013b01 f i libucrt:atox.obj
 0001:00012b32       ??$parse_integer@KV?$c_string_character_source@_W@__crt_strtox@@@__crt_strtox@@YAKQAU__crt_locale_pointers@@V?$c_string_character_source@_W@0@H_N@Z 10013b32 f i libucrt:atox.obj
 0001:0001313a       ?unget@?$c_string_character_source@_W@__crt_strtox@@QAEX_W@Z 1001413a f i libucrt:atox.obj
 0001:00013170       _strncmp                   10014170 f   libucrt:strncmp.obj
 0001:000131e8       _wcsncmp                   100141e8 f   libucrt:wcsncmp.obj
 0001:00013222       __free_base                10014222 f   libucrt:free_base.obj
 0001:0001359a       ___acrt_freeptd            1001459a f   libucrt:per_thread_data.obj
 0001:000135c6       ___acrt_getptd             100145c6 f   libucrt:per_thread_data.obj
 0001:00013683       ___acrt_getptd_head        10014683 f   libucrt:per_thread_data.obj
 0001:0001371d       ___acrt_getptd_noexit      1001471d f   libucrt:per_thread_data.obj
 0001:000137d2       ___acrt_initialize_ptd     100147d2 f   libucrt:per_thread_data.obj
 0001:000137fe       ___acrt_uninitialize_ptd   100147fe f   libucrt:per_thread_data.obj
 0001:00013818       __calloc_base              10014818 f   libucrt:calloc_base.obj
 0001:00013875       __malloc_base              10014875 f   libucrt:malloc_base.obj
 0001:000138c3       __msize_base               100148c3 f   libucrt:msize.obj
 0001:000138f6       __realloc_base             100148f6 f   libucrt:realloc_base.obj
 0001:00013af7       ___acrt_AppPolicyGetProcessTerminationMethodInternal@4 10014af7 f   libucrt:winapi_thunks.obj
 0001:00013b37       ___acrt_AreFileApisANSI@0  10014b37 f   libucrt:winapi_thunks.obj
 0001:00013b56       ___acrt_FlsAlloc@4         10014b56 f   libucrt:winapi_thunks.obj
 0001:00013b95       ___acrt_FlsFree@4          10014b95 f   libucrt:winapi_thunks.obj
 0001:00013bd4       ___acrt_FlsGetValue@4      10014bd4 f   libucrt:winapi_thunks.obj
 0001:00013c13       ___acrt_FlsSetValue@8      10014c13 f   libucrt:winapi_thunks.obj
 0001:00013c55       ___acrt_InitializeCriticalSectionEx@12 10014c55 f   libucrt:winapi_thunks.obj
 0001:00013ca0       ___acrt_LCMapStringEx@36   10014ca0 f   libucrt:winapi_thunks.obj
 0001:00013cfd       ___acrt_LocaleNameToLCID@8 10014cfd f   libucrt:winapi_thunks.obj
 0001:00013d2e       ___acrt_SetThreadStackGuarantee@4 10014d2e f   libucrt:winapi_thunks.obj
 0001:00013d69       ___acrt_initialize_winapi_thunks 10014d69 f   libucrt:winapi_thunks.obj
 0001:00013d94       ___acrt_uninitialize_winapi_thunks 10014d94 f   libucrt:winapi_thunks.obj
 0001:00013dca       ??$make_c_string_character_source@_WPAPA_W@__crt_strtox@@YA?AV?$c_string_character_source@_W@0@QB_WQAPA_W@Z 10014dca f i libucrt:strtox.obj
 0001:00013de5       _wcstol                    10014de5 f   libucrt:strtox.obj
 0001:00013e0f       __mbtowc_l                 10014e0f f   libucrt:mbtowc.obj
 0001:00013f51       _mbtowc                    10014f51 f   libucrt:mbtowc.obj
 0001:00013f6b       _wcsnlen                   10014f6b f   libucrt:strnlen.obj
 0001:0001411b       ___acrt_update_locale_info 1001511b f   libucrt:locale_update.obj
 0001:00014148       ___acrt_update_multibyte_info 10015148 f   libucrt:locale_update.obj
 0001:00014175       ?__acrt_fp_classify@@YA?AW4__acrt_fp_class@@ABN@Z 10015175 f i libucrt:cvt.obj
 0001:000149c0       ___acrt_fp_format          100159c0 f   libucrt:cvt.obj
 0001:00014afb       __fileno                   10015afb f   libucrt:fileno.obj
 0001:00014b22       ___acrt_initialize_stdio   10015b22 f   libucrt:_file.obj
 0001:00014bea       ___acrt_uninitialize_stdio 10015bea f   libucrt:_file.obj
 0001:00014c36       __lock_file                10015c36 f   libucrt:_file.obj
 0001:00014c4a       __unlock_file              10015c4a f   libucrt:_file.obj
 0001:00014c5e       __get_printf_count_output  10015c5e f   libucrt:printf_count_output.obj
 0001:00014ce1       ___acrt_set_locale_changed 10015ce1 f   libucrt:wsetlocale.obj
 0001:00014cec       ___acrt_uninitialize_locale 10015cec f   libucrt:wsetlocale.obj
 0001:00014e7d       ___acrt_initialize_lowio   10015e7d f   libucrt:ioinit.obj
 0001:00014edd       ___acrt_uninitialize_lowio 10015edd f   libucrt:ioinit.obj
 0001:00014f09       ___acrt_initialize_locks   10015f09 f   libucrt:locks.obj
 0001:00014f4a       ___acrt_lock               10015f4a f   libucrt:locks.obj
 0001:00014f61       ___acrt_uninitialize_locks 10015f61 f   libucrt:locks.obj
 0001:00014f92       ___acrt_unlock             10015f92 f   libucrt:locks.obj
 0001:00014fa9       ___acrt_get_process_end_policy 10015fa9 f   libucrt:win_policies.obj
 0001:00015173       ??$__acrt_mbs_to_wcs_cp@U__crt_win32_buffer_internal_dynamic_resizing@@@@YAHQBDAAV?$__crt_win32_buffer@_WU__crt_win32_buffer_internal_dynamic_resizing@@@@I@Z 10016173 f i libucrt:argv_wildcards.obj
 0001:00015687       ?__acrt_get_utf8_acp_compatibility_codepage@@YAIXZ 10016687 f i libucrt:argv_wildcards.obj
 0001:000156c6       ?_deallocate@?$__crt_win32_buffer@DU__crt_win32_buffer_internal_dynamic_resizing@@@@AAEXXZ 100166c6 f i libucrt:argv_wildcards.obj
 0001:000156c6       ?_deallocate@?$__crt_win32_buffer@_WU__crt_win32_buffer_internal_dynamic_resizing@@@@AAEXXZ 100166c6 f i libucrt:argv_wildcards.obj
 0001:000156e0       ?allocate@?$__crt_win32_buffer@DU__crt_win32_buffer_internal_dynamic_resizing@@@@QAEHI@Z 100166e0 f i libucrt:argv_wildcards.obj
 0001:0001571c       ?allocate@?$__crt_win32_buffer@_WU__crt_win32_buffer_internal_dynamic_resizing@@@@QAEHI@Z 1001671c f i libucrt:argv_wildcards.obj
 0001:0001575b       ?allocate@__crt_win32_buffer_internal_dynamic_resizing@@SAHQAPAXIABV__crt_win32_buffer_empty_debug_info@@@Z 1001675b f i libucrt:argv_wildcards.obj
 0001:00015801       ___acrt_expand_narrow_argv_wildcards 10016801 f   libucrt:argv_wildcards.obj
 0001:000158d3       ?allocate@?$__crt_win32_buffer@DU__crt_win32_buffer_no_resizing@@@@QAEHI@Z 100168d3 f i libucrt:getmodulefilenamea.obj
 0001:000158fa       ?set_to_nullptr@?$__crt_win32_buffer@DU__crt_win32_buffer_no_resizing@@@@QAEXXZ 100168fa f i libucrt:getmodulefilenamea.obj
 0001:0001590e       ___acrt_GetModuleFileNameA 1001690e f   libucrt:getmodulefilenamea.obj
 0001:00015ecd       ___acrt_initialize_multibyte 10016ecd f   libucrt:mbctype.obj
 0001:00015f15       ___acrt_update_thread_multibyte_data 10016f15 f   libucrt:mbctype.obj
 0001:00015f28       __setmbcp_nolock           10016f28 f   libucrt:mbctype.obj
 0001:000161f3       __ismbblead                100171f3 f   libucrt:ismbbyte.obj
 0001:0001620b       ___acrt_initialize_command_line 1001720b f   libucrt:argv_data.obj
 0001:00016224       ___acrt_MultiByteToWideChar 10017224 f   libucrt:multibytetowidechar.obj
 0001:000162a0       ___acrt_WideCharToMultiByte 100172a0 f   libucrt:widechartomultibyte.obj
 0001:00016384       ___dcrt_get_narrow_environment_from_os 10017384 f   libucrt:get_environment_from_os.obj
 0001:00016408       ___acrt_initialize_heap    10017408 f   libucrt:heap_handle.obj
 0001:00016419       ___acrt_uninitialize_heap  10017419 f   libucrt:heap_handle.obj
 0001:00016423       ___acrt_execute_initializers 10017423 f   libucrt:shared_initialization.obj
 0001:0001648b       ___acrt_execute_uninitializers 1001748b f   libucrt:shared_initialization.obj
 0001:0001658a       ___acrt_get_sigabrt_handler 1001758a f   libucrt:signal.obj
 0001:000165b1       ___acrt_initialize_signal_handlers 100175b1 f   libucrt:signal.obj
 0001:000165cf       ___fpecode                 100175cf f   libucrt:signal.obj
 0001:000165d8       _raise                     100175d8 f   libucrt:signal.obj
 0001:000167d3       ___acrt_has_user_matherr   100177d3 f   libucrt:matherr.obj
 0001:000167eb       ___acrt_initialize_user_matherr 100177eb f   libucrt:matherr.obj
 0001:000167fa       ___acrt_invoke_user_matherr 100177fa f   libucrt:matherr.obj
 0001:00016a09       ___acrt_stdio_flush_nolock 10017a09 f   libucrt:fflush.obj
 0001:00016a6e       __fflush_nolock            10017a6e f   libucrt:fflush.obj
 0001:00016ab6       __flushall                 10017ab6 f   libucrt:fflush.obj
 0001:00016abf       ___pctype_func             10017abf f   libucrt:ctype.obj
 0001:00016ae3       _iswctype                  10017ae3 f   libucrt:iswctype.obj
 0001:00016b4c       ___acrt_add_locale_ref     10017b4c f   libucrt:locale_refcounting.obj
 0001:00016bc9       ___acrt_free_locale        10017bc9 f   libucrt:locale_refcounting.obj
 0001:00016d11       ___acrt_locale_add_lc_time_reference 10017d11 f   libucrt:locale_refcounting.obj
 0001:00016d3a       ___acrt_locale_free_lc_time_if_unreferenced 10017d3a f   libucrt:locale_refcounting.obj
 0001:00016d6b       ___acrt_locale_release_lc_time_reference 10017d6b f   libucrt:locale_refcounting.obj
 0001:00016d94       ___acrt_release_locale_ref 10017d94 f   libucrt:locale_refcounting.obj
 0001:00016e15       ___acrt_update_thread_locale_data 10017e15 f   libucrt:locale_refcounting.obj
 0001:00016e96       __updatetlocinfoEx_nolock  10017e96 f   libucrt:locale_refcounting.obj
 0001:00016ee6       __query_new_mode           10017ee6 f   libucrt:new_mode.obj
 0001:00016f3d       ___acrt_DownlevelLocaleNameToLCID 10017f3d f   libucrt:lcidtoname_downlevel.obj
 0001:00016f69       __isleadbyte_l             10017f69 f i libucrt:_wctype.obj
 0001:00016fcf       ?__mbrtowc_utf8@__crt_mbstring@@YAIPA_WPBDIPAU_Mbstatet@@@Z 10017fcf f   libucrt:mbrtowc.obj
 0001:0001700f       ?__mbsrtowcs_utf8@__crt_mbstring@@YAIPA_WPAPBDIPAU_Mbstatet@@@Z 1001800f f   libucrt:mbrtowc.obj
 0001:0001710a       ?return_illegal_sequence@__crt_mbstring@@YAIPAU_Mbstatet@@@Z 1001810a f i libucrt:c32rtomb.obj
 0001:00017129       ___acrt_fp_strflt_to_string 10018129 f   libucrt:_fptostr.obj
 0001:000171f0       ?divide@__crt_strtox@@YA_KAAUbig_integer@1@ABU21@@Z 100181f0 f i libucrt:cfout.obj
 0001:00017688       ___acrt_fltout             10018688 f   libucrt:cfout.obj
 0001:000189d2       __fcloseall                100199d2 f   libucrt:closeall.obj
 0001:00018a7d       ___acrt_stdio_free_buffer_nolock 10019a7d f   libucrt:_freebuf.obj
 0001:00018abd       __isatty                   10019abd f   libucrt:isatty.obj
 0001:00018b13       ___acrt_locale_free_monetary 10019b13 f   libucrt:initmon.obj
 0001:00018c11       ___acrt_locale_free_numeric 10019c11 f   libucrt:initnum.obj
 0001:00018cb2       ___acrt_locale_free_time   10019cb2 f   libucrt:inittime.obj
 0001:00018d96       ___acrt_GetStringTypeA     10019d96 f   libucrt:getstringtypea.obj
 0001:00018e99       __freea_crt                10019e99 f i libucrt:getstringtypea.obj
 0001:00018eb9       ___acrt_lowio_create_handle_array 10019eb9 f   libucrt:osfinfo.obj
 0001:00018f34       ___acrt_lowio_destroy_handle_array 10019f34 f   libucrt:osfinfo.obj
 0001:00018f69       ___acrt_lowio_ensure_fh_exists 10019f69 f   libucrt:osfinfo.obj
 0001:00019007       ___acrt_lowio_lock_fh      1001a007 f   libucrt:osfinfo.obj
 0001:0001902a       ___acrt_lowio_unlock_fh    1001a02a f   libucrt:osfinfo.obj
 0001:0001904d       __free_osfhnd              1001a04d f   libucrt:osfinfo.obj
 0001:000190de       __get_osfhandle            1001a0de f   libucrt:osfinfo.obj
 0001:00019190       _qsort                     1001a190 f   libucrt:qsort.obj
 0001:00019687       _strncpy_s                 1001a687 f   libucrt:strncpy_s.obj
 0001:000196a0       _strpbrk                   1001a6a0 f   libucrt:strpbrk.obj
 0001:000196e0       __mbsdec                   1001a6e0 f   libucrt:mbsdec.obj
 0001:000196f7       __mbsdec_l                 1001a6f7 f   libucrt:mbsdec.obj
 0001:0001996e       ___acrt_LCMapStringA       1001a96e f   libucrt:lcmapstringa.obj
 0001:00019a68       __commit                   1001aa68 f   libucrt:commit.obj
 0001:0001a25e       __write                    1001b25e f   libucrt:write.obj
 0001:0001a350       __write_nolock             1001b350 f   libucrt:write.obj
 0001:0001a532       ___acrt_GetStringTypeW     1001b532 f   libucrt:getstringtypew.obj
 0001:0001a54b       ___ascii_wcsnicmp          1001b54b f   libucrt:wcsnicmp.obj
 0001:0001a59a       ?__mbrtoc32_utf8@__crt_mbstring@@YAIPA_UPBDIPAU_Mbstatet@@@Z 1001b59a f   libucrt:mbrtoc32.obj
 0001:0001a741       _fegetenv                  1001b741 f   libucrt:fegetenv.obj
 0001:0001a75e       _fesetenv                  1001b75e f   libucrt:fesetenv.obj
 0001:0001a7a9       _feholdexcept              1001b7a9 f   libucrt:feholdexcept.obj
 0001:0001a800       __CIlog10                  1001b800 f   libucrt:log10_impl.obj
 0001:0001a83b       __CIlog10_default          1001b83b f   libucrt:log10_impl.obj
 0001:0001a84f       __log10_default            1001b84f     libucrt:log10_impl.obj
 0001:0001a910       _ceil                      1001b910 f   libucrt:ceil_pentium4.obj
 0001:0001a950       __ceil_pentium4            1001b950 f   libucrt:ceil_pentium4.obj
 0001:0001aaa9       __lseeki64_nolock          1001baa9 f   libucrt:lseek.obj
 0001:0001aac4       __fclose_nolock            1001bac4 f   libucrt:fclose.obj
 0001:0001ab3b       _fclose                    1001bb3b f   libucrt:fclose.obj
 0001:0001abbf       __query_app_type           1001bbbf f   libucrt:report_runtime_error.obj
 0001:0001abc5       ___strncnt                 1001bbc5 f   libucrt:strncnt.obj
 0001:0001abe1       __putwch_nolock            1001bbe1 f   libucrt:putwch.obj
 0001:0001af20       ___acrt_fenv_get_control   1001bf20 f   libucrt:_fenvutils.obj
 0001:0001afa0       ___acrt_fenv_get_status    1001bfa0 f   libucrt:_fenvutils.obj
 0001:0001b058       ___acrt_fenv_set_control   1001c058 f   libucrt:_fenvutils.obj
 0001:0001b0c0       ___acrt_fenv_set_status    1001c0c0 f   libucrt:_fenvutils.obj
 0001:0001b1b7       __clearfp                  1001c1b7 f   libucrt:ieee87.obj
 0001:0001b295       ___acrt_initialize_sse2    1001c295 f   libucrt:mathfcns.obj
 0001:0001b2b0       __CIlog10_pentium4         1001c2b0 f   libucrt:log10_pentium4.obj
 0001:0001b2c8       __log10_pentium4           1001c2c8     libucrt:log10_pentium4.obj
 0001:0001b560       __fFEXP                    1001c560 f   libucrt:87tran.obj
 0001:0001b5b7       __rtinfpopse               1001c5b7     libucrt:87tran.obj
 0001:0001b5b9       __rtinfnpopse              1001c5b9     libucrt:87tran.obj
 0001:0001b5c9       __fFLN                     1001c5c9     libucrt:87tran.obj
 0001:0001b67e       __rtinfpop                 1001c67e     libucrt:87tran.obj
 0001:0001b680       __rtinfnpop                1001c680     libucrt:87tran.obj
 0001:0001b690       __rtforexpinf              1001c690 f   libucrt:87tran.obj
 0001:0001b69d       __ffexpm1                  1001c69d     libucrt:87tran.obj
 0001:0001b750       __trandisp1                1001c750 f   libucrt:87disp.obj
 0001:0001b7c5       __trandisp2                1001c7c5 f   libucrt:87disp.obj
 0001:0001b85f       __rttospopde               1001c85f     libucrt:87disp.obj
 0001:0001b864       __rttospop                 1001c864     libucrt:87disp.obj
 0001:0001b870       __rtnospop                 1001c870 f   libucrt:87disp.obj
 0001:0001b880       __rttosnpop                1001c880 f   libucrt:87disp.obj
 0001:0001b881       __rtnospopde               1001c881     libucrt:87disp.obj
 0001:0001b888       __rtzeropop                1001c888     libucrt:87disp.obj
 0001:0001b88a       __rtzeronpop               1001c88a     libucrt:87disp.obj
 0001:0001b890       __rtzerospop               1001c890 f   libucrt:87disp.obj
 0001:0001b89d       __rtonepop                 1001c89d     libucrt:87disp.obj
 0001:0001b8a0       __rtonenpop                1001c8a0 f   libucrt:87disp.obj
 0001:0001b8b0       __tosnan1                  1001c8b0 f   libucrt:87disp.obj
 0001:0001b8e0       __nosnan2                  1001c8e0 f   libucrt:87disp.obj
 0001:0001b8f0       __tosnan2                  1001c8f0 f   libucrt:87disp.obj
 0001:0001b920       __nan2                     1001c920 f   libucrt:87disp.obj
 0001:0001b960       __rtindfpop                1001c960 f   libucrt:87disp.obj
 0001:0001b962       __rtindfnpop               1001c962     libucrt:87disp.obj
 0001:0001b973       __rttosnpopde              1001c973     libucrt:87disp.obj
 0001:0001b980       __rtatan2inf               1001c980 f   libucrt:87disp.obj
 0001:0001b99d       __rtchsifneg               1001c99d     libucrt:87disp.obj
 0001:0001b9b0       __twoToTOS                 1001c9b0 f   libucrt:common.obj
 0001:0001b9c5       __load_CW                  1001c9c5 f   libucrt:common.obj
 0001:0001b9dc       __convertTOStoQNaN         1001c9dc f   libucrt:common.obj
 0001:0001b9f5       __fload_withFB             1001c9f5 f   libucrt:common.obj
 0001:0001ba38       __checkTOS_withFB          1001ca38 f   libucrt:common.obj
 0001:0001ba4e       __fast_exit                1001ca4e f   libucrt:common.obj
 0001:0001ba5b       __math_exit                1001ca5b f   libucrt:common.obj
 0001:0001ba85       __check_overflow_exit      1001ca85 f   libucrt:common.obj
 0001:0001ba99       __check_range_exit         1001ca99 f   libucrt:common.obj
 0001:0001bb40       __startTwoArgErrorHandling 1001cb40 f   libucrt:genexcep.obj
 0001:0001bb57       __startOneArgErrorHandling 1001cb57 f   libucrt:genexcep.obj
 0001:0001bb93       ___libm_error_support      1001cb93 f   libucrt:libm_error.obj
 0001:0001bd87       __ceil_default             1001cd87 f   libucrt:ceil.obj
 0001:0001bec8       __close                    1001cec8 f   libucrt:close.obj
 0001:0001bf55       __close_nolock             1001cf55 f   libucrt:close.obj
 0001:0001bff1       ?__acrt_stdio_free_stream@@YAXV__crt_stdio_stream@@@Z 1001cff1 f   libucrt:stream.obj
 0001:0001c030       ___ascii_strnicmp          1001d030 f   libucrt:_strnicm.obj
 0001:0001c0b0       ___dcrt_lowio_ensure_console_output_initialized 1001d0b0 f   libucrt:initcon.obj
 0001:0001c0cf       ___dcrt_terminate_console_output 1001d0cf f   libucrt:initcon.obj
 0001:0001c0e6       ___dcrt_write_console      1001d0e6 f   libucrt:initcon.obj
 0001:0001c13b       __clrfp                    1001d13b f   libucrt:fpctrl.obj
 0001:0001c14c       __ctrlfp                   1001d14c f   libucrt:fpctrl.obj
 0001:0001c176       __set_statfp               1001d176 f   libucrt:fpctrl.obj
 0001:0001c1cf       __statfp                   1001d1cf f   libucrt:fpctrl.obj
 0001:0001c1df       __d_inttype                1001d1df f   libucrt:powhlp.obj
 0001:0001c247       __powhlp                   1001d247 f   libucrt:powhlp.obj
 0001:0001c372       __87except                 1001d372 f   libucrt:87except.obj
 0001:0001c47c       __frnd                     1001d47c f   libucrt:frnd.obj
 0001:0001c490       __errcode                  1001d490 f   libucrt:fpexcept.obj
 0001:0001c4c4       __except1                  1001d4c4 f   libucrt:fpexcept.obj
 0001:0001c592       __handle_exc               1001d592 f   libucrt:fpexcept.obj
 0001:0001c77d       __raise_exc                1001d77d f   libucrt:fpexcept.obj
 0001:0001c7a0       __raise_exc_ex             1001d7a0 f   libucrt:fpexcept.obj
 0001:0001ca96       __set_errno_from_matherr   1001da96 f   libucrt:fpexcept.obj
 0001:0001cac5       __umatherr                 1001dac5 f   libucrt:fpexcept.obj
 0001:0001cb65       __decomp                   1001db65 f   libucrt:util.obj
 0001:0001cc37       __set_exp                  1001dc37 f   libucrt:util.obj
 0001:0001cc64       __sptype                   1001dc64 f   libucrt:util.obj
 0001:0001ccc2       __fpclass                  1001dcc2 f   libucrt:ieeemisc.obj
 0001:0001cd66       _IsProcessorFeaturePresent@4 1001dd66 f   kernel32:KERNEL32.dll
 0001:0001cd70       __FindPESection            1001dd70 f   LIBCMT:pesect.obj
 0001:0001cdc0       __IsNonwritableInCurrentImage 1001ddc0 f   LIBCMT:pesect.obj
 0001:0001ce80       __ValidateImageBase        1001de80 f   LIBCMT:pesect.obj
 0001:0001ceb3       __EH_prolog3_catch         1001deb3 f   LIBCMT:ehprolg3.obj
 0001:0001cef0       __aulldvrm                 1001def0 f   LIBCMT:ulldvrm.obj
 0001:0001cf90       __allmul                   1001df90 f   LIBCMT:llmul.obj
 0001:0001cfd0       __alldvrm                  1001dfd0 f   LIBCMT:lldvrm.obj
 0001:0001d0b0       __aullshr                  1001e0b0 f   LIBCMT:ullshr.obj
 0001:0001d0d0       __allshl                   1001e0d0 f   LIBCMT:llshl.obj
 0001:0001d0f0       __ftol2_sse                1001e0f0 f   LIBCMT:ftol2.obj
 0001:0001d0f9       __ftol2_pentium4           1001e0f9 f   LIBCMT:ftol2.obj
 0001:0001d10c       __ftol2_sse_excpt          1001e10c f   LIBCMT:ftol2.obj
 0001:0001d130       __ftol2                    1001e130 f   LIBCMT:ftol2.obj
 0001:0001d1b0       _strrchr                   1001e1b0 f   libvcruntime:strrchr.obj
 0001:0001d2f0       _strchr                    1001e2f0 f   libvcruntime:strchr.obj
 0001:0001d35e       ___from_strstr_to_strchr   1001e35e     libvcruntime:strchr.obj
 0001:0001d41b       __filter_x86_sse2_floating_point_exception 1001e41b f   LIBCMT:x86_exception_filter.obj
 0001:0001d41b       __filter_x86_sse2_floating_point_exception_default 1001e41b f   LIBCMT:x86_exception_filter.obj
 0002:00000000       __imp__RegQueryValueExW@24 1001f000     advapi32:ADVAPI32.dll
 0002:00000004       __imp__RegSetValueExW@24   1001f004     advapi32:ADVAPI32.dll
 0002:00000008       __imp__RegQueryInfoKeyW@48 1001f008     advapi32:ADVAPI32.dll
 0002:0000000c       __imp__RegOpenKeyExW@20    1001f00c     advapi32:ADVAPI32.dll
 0002:00000010       __imp__RegEnumKeyExW@32    1001f010     advapi32:ADVAPI32.dll
 0002:00000014       __imp__RegDeleteValueW@8   1001f014     advapi32:ADVAPI32.dll
 0002:00000018       __imp__RegDeleteKeyW@8     1001f018     advapi32:ADVAPI32.dll
 0002:0000001c       __imp__RegCreateKeyExW@36  1001f01c     advapi32:ADVAPI32.dll
 0002:00000020       __imp__RegCloseKey@4       1001f020     advapi32:ADVAPI32.dll
 0002:00000024       \177ADVAPI32_NULL_THUNK_DATA 1001f024     advapi32:ADVAPI32.dll
 0002:00000028       __imp__GetObjectW@12       1001f028     gdi32:GDI32.dll
 0002:0000002c       __imp__SelectObject@8      1001f02c     gdi32:GDI32.dll
 0002:00000030       __imp__DeleteObject@4      1001f030     gdi32:GDI32.dll
 0002:00000034       __imp__CreateCompatibleDC@4 1001f034     gdi32:GDI32.dll
 0002:00000038       __imp__BitBlt@36           1001f038     gdi32:GDI32.dll
 0002:0000003c       __imp__SetWindowOrgEx@16   1001f03c     gdi32:GDI32.dll
 0002:00000040       __imp__SetWindowExtEx@16   1001f040     gdi32:GDI32.dll
 0002:00000044       __imp__SetViewportOrgEx@16 1001f044     gdi32:GDI32.dll
 0002:00000048       __imp__LPtoDP@12           1001f048     gdi32:GDI32.dll
 0002:0000004c       __imp__SetMapMode@8        1001f04c     gdi32:GDI32.dll
 0002:00000050       __imp__SaveDC@4            1001f050     gdi32:GDI32.dll
 0002:00000054       __imp__RestoreDC@8         1001f054     gdi32:GDI32.dll
 0002:00000058       __imp__GetDeviceCaps@8     1001f058     gdi32:GDI32.dll
 0002:0000005c       __imp__DeleteMetaFile@4    1001f05c     gdi32:GDI32.dll
 0002:00000060       __imp__DeleteDC@4          1001f060     gdi32:GDI32.dll
 0002:00000064       __imp__CreateRectRgnIndirect@4 1001f064     gdi32:GDI32.dll
 0002:00000068       __imp__CreateMetaFileW@4   1001f068     gdi32:GDI32.dll
 0002:0000006c       __imp__CreateDCW@16        1001f06c     gdi32:GDI32.dll
 0002:00000070       __imp__CloseMetaFile@4     1001f070     gdi32:GDI32.dll
 0002:00000074       \177GDI32_NULL_THUNK_DATA  1001f074     gdi32:GDI32.dll
 0002:00000078       __imp__CloseHandle@4       1001f078     kernel32:KERNEL32.dll
 0002:0000007c       __imp__SetEvent@4          1001f07c     kernel32:KERNEL32.dll
 0002:00000080       __imp__CreateMutexW@12     1001f080     kernel32:KERNEL32.dll
 0002:00000084       __imp__CreateEventW@16     1001f084     kernel32:KERNEL32.dll
 0002:00000088       __imp__GetCurrentProcessId@0 1001f088     kernel32:KERNEL32.dll
 0002:0000008c       __imp__CreateFileW@28      1001f08c     kernel32:KERNEL32.dll
 0002:00000090       __imp__GetConsoleMode@8    1001f090     kernel32:KERNEL32.dll
 0002:00000094       __imp__GetConsoleCP@0      1001f094     kernel32:KERNEL32.dll
 0002:00000098       __imp__WriteFile@20        1001f098     kernel32:KERNEL32.dll
 0002:0000009c       __imp__FlushFileBuffers@4  1001f09c     kernel32:KERNEL32.dll
 0002:000000a0       __imp__SetStdHandle@8      1001f0a0     kernel32:KERNEL32.dll
 0002:000000a4       __imp__GetStringTypeW@16   1001f0a4     kernel32:KERNEL32.dll
 0002:000000a8       __imp__SetFilePointerEx@20 1001f0a8     kernel32:KERNEL32.dll
 0002:000000ac       __imp__FreeEnvironmentStringsW@4 1001f0ac     kernel32:KERNEL32.dll
 0002:000000b0       __imp__GetEnvironmentStringsW@0 1001f0b0     kernel32:KERNEL32.dll
 0002:000000b4       __imp__lstrcmpiW@8         1001f0b4     kernel32:KERNEL32.dll
 0002:000000b8       __imp__GetCommandLineA@0   1001f0b8     kernel32:KERNEL32.dll
 0002:000000bc       __imp__GetCPInfo@8         1001f0bc     kernel32:KERNEL32.dll
 0002:000000c0       __imp__GetOEMCP@0          1001f0c0     kernel32:KERNEL32.dll
 0002:000000c4       __imp__GetACP@0            1001f0c4     kernel32:KERNEL32.dll
 0002:000000c8       __imp__IsValidCodePage@4   1001f0c8     kernel32:KERNEL32.dll
 0002:000000cc       __imp__FindNextFileW@8     1001f0cc     kernel32:KERNEL32.dll
 0002:000000d0       __imp__FindFirstFileExW@24 1001f0d0     kernel32:KERNEL32.dll
 0002:000000d4       __imp__FindClose@4         1001f0d4     kernel32:KERNEL32.dll
 0002:000000d8       __imp__GetFileType@4       1001f0d8     kernel32:KERNEL32.dll
 0002:000000dc       __imp__GetStdHandle@4      1001f0dc     kernel32:KERNEL32.dll
 0002:000000e0       __imp__LCMapStringW@24     1001f0e0     kernel32:KERNEL32.dll
 0002:000000e4       __imp__HeapReAlloc@16      1001f0e4     kernel32:KERNEL32.dll
 0002:000000e8       __imp__HeapSize@12         1001f0e8     kernel32:KERNEL32.dll
 0002:000000ec       __imp__MulDiv@12           1001f0ec     kernel32:KERNEL32.dll
 0002:000000f0       __imp__GlobalLock@4        1001f0f0     kernel32:KERNEL32.dll
 0002:000000f4       __imp__GlobalUnlock@4      1001f0f4     kernel32:KERNEL32.dll
 0002:000000f8       __imp__GlobalAlloc@8       1001f0f8     kernel32:KERNEL32.dll
 0002:000000fc       __imp__FindResourceW@12    1001f0fc     kernel32:KERNEL32.dll
 0002:00000100       __imp__SizeofResource@8    1001f100     kernel32:KERNEL32.dll
 0002:00000104       __imp__LoadResource@8      1001f104     kernel32:KERNEL32.dll
 0002:00000108       __imp__LoadLibraryExW@12   1001f108     kernel32:KERNEL32.dll
 0002:0000010c       __imp__GetProcAddress@8    1001f10c     kernel32:KERNEL32.dll
 0002:00000110       __imp__GetModuleHandleW@4  1001f110     kernel32:KERNEL32.dll
 0002:00000114       __imp__GetModuleFileNameW@12 1001f114     kernel32:KERNEL32.dll
 0002:00000118       __imp__FreeLibrary@4       1001f118     kernel32:KERNEL32.dll
 0002:0000011c       __imp__DisableThreadLibraryCalls@4 1001f11c     kernel32:KERNEL32.dll
 0002:00000120       __imp__GetCurrentThreadId@0 1001f120     kernel32:KERNEL32.dll
 0002:00000124       __imp__Sleep@4             1001f124     kernel32:KERNEL32.dll
 0002:00000128       __imp__WaitForSingleObject@8 1001f128     kernel32:KERNEL32.dll
 0002:0000012c       __imp__ReleaseMutex@4      1001f12c     kernel32:KERNEL32.dll
 0002:00000130       __imp__ResetEvent@4        1001f130     kernel32:KERNEL32.dll
 0002:00000134       __imp__EnterCriticalSection@4 1001f134     kernel32:KERNEL32.dll
 0002:00000138       __imp__LeaveCriticalSection@4 1001f138     kernel32:KERNEL32.dll
 0002:0000013c       __imp__SetLastError@4      1001f13c     kernel32:KERNEL32.dll
 0002:00000140       __imp__EncodePointer@4     1001f140     kernel32:KERNEL32.dll
 0002:00000144       __imp__DeleteCriticalSection@4 1001f144     kernel32:KERNEL32.dll
 0002:00000148       __imp__InitializeCriticalSectionEx@12 1001f148     kernel32:KERNEL32.dll
 0002:0000014c       __imp__GetLastError@0      1001f14c     kernel32:KERNEL32.dll
 0002:00000150       __imp__RaiseException@16   1001f150     kernel32:KERNEL32.dll
 0002:00000154       __imp__DecodePointer@4     1001f154     kernel32:KERNEL32.dll
 0002:00000158       __imp__WideCharToMultiByte@32 1001f158     kernel32:KERNEL32.dll
 0002:0000015c       __imp__GetCommandLineW@0   1001f15c     kernel32:KERNEL32.dll
 0002:00000160       __imp__MultiByteToWideChar@24 1001f160     kernel32:KERNEL32.dll
 0002:00000164       __imp__WriteConsoleW@20    1001f164     kernel32:KERNEL32.dll
 0002:00000168       __imp__GetModuleHandleExW@12 1001f168     kernel32:KERNEL32.dll
 0002:0000016c       __imp__ExitProcess@4       1001f16c     kernel32:KERNEL32.dll
 0002:00000170       __imp__VirtualQuery@12     1001f170     kernel32:KERNEL32.dll
 0002:00000174       __imp__VirtualProtect@16   1001f174     kernel32:KERNEL32.dll
 0002:00000178       __imp__GetSystemInfo@4     1001f178     kernel32:KERNEL32.dll
 0002:0000017c       __imp__TlsFree@4           1001f17c     kernel32:KERNEL32.dll
 0002:00000180       __imp__TlsSetValue@8       1001f180     kernel32:KERNEL32.dll
 0002:00000184       __imp__TlsGetValue@4       1001f184     kernel32:KERNEL32.dll
 0002:00000188       __imp__TlsAlloc@0          1001f188     kernel32:KERNEL32.dll
 0002:0000018c       __imp__InterlockedFlushSList@4 1001f18c     kernel32:KERNEL32.dll
 0002:00000190       __imp__RtlUnwind@16        1001f190     kernel32:KERNEL32.dll
 0002:00000194       __imp__LoadLibraryExA@12   1001f194     kernel32:KERNEL32.dll
 0002:00000198       __imp__VirtualFree@12      1001f198     kernel32:KERNEL32.dll
 0002:0000019c       __imp__VirtualAlloc@16     1001f19c     kernel32:KERNEL32.dll
 0002:000001a0       __imp__FlushInstructionCache@12 1001f1a0     kernel32:KERNEL32.dll
 0002:000001a4       __imp__InterlockedPushEntrySList@8 1001f1a4     kernel32:KERNEL32.dll
 0002:000001a8       __imp__InterlockedPopEntrySList@4 1001f1a8     kernel32:KERNEL32.dll
 0002:000001ac       __imp__GetProcessHeap@0    1001f1ac     kernel32:KERNEL32.dll
 0002:000001b0       __imp__HeapFree@12         1001f1b0     kernel32:KERNEL32.dll
 0002:000001b4       __imp__HeapAlloc@12        1001f1b4     kernel32:KERNEL32.dll
 0002:000001b8       __imp__OutputDebugStringW@4 1001f1b8     kernel32:KERNEL32.dll
 0002:000001bc       __imp__InitializeSListHead@4 1001f1bc     kernel32:KERNEL32.dll
 0002:000001c0       __imp__GetSystemTimeAsFileTime@4 1001f1c0     kernel32:KERNEL32.dll
 0002:000001c4       __imp__QueryPerformanceCounter@4 1001f1c4     kernel32:KERNEL32.dll
 0002:000001c8       __imp__GetStartupInfoW@4   1001f1c8     kernel32:KERNEL32.dll
 0002:000001cc       __imp__IsDebuggerPresent@0 1001f1cc     kernel32:KERNEL32.dll
 0002:000001d0       __imp__IsProcessorFeaturePresent@4 1001f1d0     kernel32:KERNEL32.dll
 0002:000001d4       __imp__TerminateProcess@8  1001f1d4     kernel32:KERNEL32.dll
 0002:000001d8       __imp__GetCurrentProcess@0 1001f1d8     kernel32:KERNEL32.dll
 0002:000001dc       __imp__SetUnhandledExceptionFilter@4 1001f1dc     kernel32:KERNEL32.dll
 0002:000001e0       __imp__UnhandledExceptionFilter@4 1001f1e0     kernel32:KERNEL32.dll
 0002:000001e4       __imp__InitializeCriticalSectionAndSpinCount@8 1001f1e4     kernel32:KERNEL32.dll
 0002:000001e8       __imp__WaitForSingleObjectEx@12 1001f1e8     kernel32:KERNEL32.dll
 0002:000001ec       \177KERNEL32_NULL_THUNK_DATA 1001f1ec     kernel32:KERNEL32.dll
 0002:000001f0       __imp__OleCreatePropertyFrame@44 1001f1f0     oleaut32:OLEAUT32.dll
 0002:000001f4       __imp__UnRegisterTypeLib@20 1001f1f4     oleaut32:OLEAUT32.dll
 0002:000001f8       __imp__RegisterTypeLib@12  1001f1f8     oleaut32:OLEAUT32.dll
 0002:000001fc       __imp__LoadRegTypeLib@20   1001f1fc     oleaut32:OLEAUT32.dll
 0002:00000200       __imp__LoadTypeLib@8       1001f200     oleaut32:OLEAUT32.dll
 0002:00000204       __imp__VarUI4FromStr@16    1001f204     oleaut32:OLEAUT32.dll
 0002:00000208       __imp__VariantInit@4       1001f208     oleaut32:OLEAUT32.dll
 0002:0000020c       __imp__SysAllocStringByteLen@8 1001f20c     oleaut32:OLEAUT32.dll
 0002:00000210       __imp__SysStringByteLen@4  1001f210     oleaut32:OLEAUT32.dll
 0002:00000214       __imp__VariantChangeType@16 1001f214     oleaut32:OLEAUT32.dll
 0002:00000218       __imp__VariantClear@4      1001f218     oleaut32:OLEAUT32.dll
 0002:0000021c       __imp__SysStringLen@4      1001f21c     oleaut32:OLEAUT32.dll
 0002:00000220       __imp__SysFreeString@4     1001f220     oleaut32:OLEAUT32.dll
 0002:00000224       __imp__SysAllocStringLen@8 1001f224     oleaut32:OLEAUT32.dll
 0002:00000228       __imp__SysAllocString@4    1001f228     oleaut32:OLEAUT32.dll
 0002:0000022c       \177OLEAUT32_NULL_THUNK_DATA 1001f22c     oleaut32:OLEAUT32.dll
 0002:00000230       __imp__UnregisterClassW@8  1001f230     user32:USER32.dll
 0002:00000234       __imp__PostMessageW@16     1001f234     user32:USER32.dll
 0002:00000238       __imp__DefWindowProcW@16   1001f238     user32:USER32.dll
 0002:0000023c       __imp__CallWindowProcW@20  1001f23c     user32:USER32.dll
 0002:00000240       __imp__RegisterClassExW@4  1001f240     user32:USER32.dll
 0002:00000244       __imp__GetClassInfoExW@12  1001f244     user32:USER32.dll
 0002:00000248       __imp__CreateWindowExW@48  1001f248     user32:USER32.dll
 0002:0000024c       __imp__IsWindow@4          1001f24c     user32:USER32.dll
 0002:00000250       __imp__IsChild@8           1001f250     user32:USER32.dll
 0002:00000254       __imp__DestroyWindow@4     1001f254     user32:USER32.dll
 0002:00000258       __imp__ShowWindow@8        1001f258     user32:USER32.dll
 0002:0000025c       __imp__SetWindowPos@28     1001f25c     user32:USER32.dll
 0002:00000260       __imp__CharNextW@4         1001f260     user32:USER32.dll
 0002:00000264       __imp__SetFocus@4          1001f264     user32:USER32.dll
 0002:00000268       __imp__LoadBitmapW@8       1001f268     user32:USER32.dll
 0002:0000026c       __imp__RegisterClassW@4    1001f26c     user32:USER32.dll
 0002:00000270       __imp__PeekMessageW@20     1001f270     user32:USER32.dll
 0002:00000274       __imp__LoadCursorW@8       1001f274     user32:USER32.dll
 0002:00000278       __imp__GetParent@4         1001f278     user32:USER32.dll
 0002:0000027c       __imp__SetWindowLongW@12   1001f27c     user32:USER32.dll
 0002:00000280       __imp__GetWindowLongW@8    1001f280     user32:USER32.dll
 0002:00000284       __imp__PtInRect@12         1001f284     user32:USER32.dll
 0002:00000288       __imp__EqualRect@8         1001f288     user32:USER32.dll
 0002:0000028c       __imp__OffsetRect@12       1001f28c     user32:USER32.dll
 0002:00000290       __imp__UnionRect@12        1001f290     user32:USER32.dll
 0002:00000294       __imp__IntersectRect@12    1001f294     user32:USER32.dll
 0002:00000298       __imp__GetClientRect@8     1001f298     user32:USER32.dll
 0002:0000029c       __imp__InvalidateRect@12   1001f29c     user32:USER32.dll
 0002:000002a0       __imp__SetWindowRgn@12     1001f2a0     user32:USER32.dll
 0002:000002a4       __imp__EndPaint@8          1001f2a4     user32:USER32.dll
 0002:000002a8       __imp__BeginPaint@8        1001f2a8     user32:USER32.dll
 0002:000002ac       __imp__ReleaseDC@8         1001f2ac     user32:USER32.dll
 0002:000002b0       __imp__GetDC@4             1001f2b0     user32:USER32.dll
 0002:000002b4       __imp__GetKeyState@4       1001f2b4     user32:USER32.dll
 0002:000002b8       __imp__GetFocus@0          1001f2b8     user32:USER32.dll
 0002:000002bc       \177USER32_NULL_THUNK_DATA 1001f2bc     user32:USER32.dll
 0002:000002c0       __imp__StringFromGUID2@12  1001f2c0     ole32:ole32.dll
 0002:000002c4       __imp__CoTaskMemAlloc@4    1001f2c4     ole32:ole32.dll
 0002:000002c8       __imp__CoTaskMemRealloc@8  1001f2c8     ole32:ole32.dll
 0002:000002cc       __imp__CoTaskMemFree@4     1001f2cc     ole32:ole32.dll
 0002:000002d0       __imp__ReadClassStm@8      1001f2d0     ole32:ole32.dll
 0002:000002d4       __imp__WriteClassStm@8     1001f2d4     ole32:ole32.dll
 0002:000002d8       __imp__CreateDataAdviseHolder@4 1001f2d8     ole32:ole32.dll
 0002:000002dc       __imp__OleSaveToStream@8   1001f2dc     ole32:ole32.dll
 0002:000002e0       __imp__CreateOleAdviseHolder@4 1001f2e0     ole32:ole32.dll
 0002:000002e4       __imp__OleRegGetUserType@12 1001f2e4     ole32:ole32.dll
 0002:000002e8       __imp__OleRegGetMiscStatus@12 1001f2e8     ole32:ole32.dll
 0002:000002ec       __imp__OleRegEnumVerbs@8   1001f2ec     ole32:ole32.dll
 0002:000002f0       __imp__CLSIDFromProgID@8   1001f2f0     ole32:ole32.dll
 0002:000002f4       __imp__CoCreateInstance@20 1001f2f4     ole32:ole32.dll
 0002:000002f8       \177ole32_NULL_THUNK_DATA  1001f2f8     ole32:ole32.dll
 0002:000002fc       ___guard_check_icall_fptr  1001f2fc     LIBCMT:guard_support.obj
 0002:00000300       ___xc_a                    1001f300     LIBCMT:initializers.obj
 0002:00000318       ___xc_z                    1001f318     LIBCMT:initializers.obj
 0002:0000031c       ___xi_a                    1001f31c     LIBCMT:initializers.obj
 0002:00000324       ___acrt_stdio_initializer  1001f324     libucrt:stdio_initializer.obj
 0002:00000328       ___acrt_multibyte_initializer 1001f328     libucrt:multibyte_initializer.obj
 0002:0000032c       ___acrt_tran_sse2_initializer 1001f32c     libucrt:sse2_initializer.obj
 0002:00000330       ___xi_z                    1001f330     LIBCMT:initializers.obj
 0002:00000334       ___xl_a                    1001f334     LIBCMT:tlssup.obj
 0002:00000338       ___xl_z                    1001f338     LIBCMT:tlssup.obj
 0002:0000033c       ___xp_a                    1001f33c     LIBCMT:initializers.obj
 0002:00000340       ___acrt_locale_terminator  1001f340     libucrt:locale_initializer.obj
 0002:00000344       ___dcrt_console_output_terminator 1001f344     libucrt:console_output_initializer.obj
 0002:00000348       ___acrt_stdio_terminator   1001f348     libucrt:stdio_initializer.obj
 0002:0000034c       ___xp_z                    1001f34c     LIBCMT:initializers.obj
 0002:00000350       ___xt_a                    1001f350     LIBCMT:initializers.obj
 0002:00000354       ___xt_z                    1001f354     LIBCMT:initializers.obj
 0002:00000360       ??_C@_13HADIAKP@?$AAS@     1001f360     OposVariant.obj
 0002:00000364       ??_C@_13LHMFKAAD@?$AAM@    1001f364     OposVariant.obj
 0002:00000368       ??_C@_13MKMNOPIJ@?$AAD@    1001f368     OposVariant.obj
 0002:0000036c       ??_C@_13OPKGLAFF@?$AAB@    1001f36c     OposVariant.obj
 0002:00000370       ??_C@_17LLMMEOJD@?$AAV?$AAa?$AAl@ 1001f370     OposVariant.obj
 0002:00000378       ??_C@_1BI@JFAIJMHL@?$AAF?$AAo?$AAr?$AAc?$AAe?$AAR?$AAe?$AAm?$AAo?$AAv?$AAe@ 1001f378     OposVariant.obj
 0002:00000390       ??_C@_1BC@GCKHIPE@?$AAN?$AAo?$AAR?$AAe?$AAm?$AAo?$AAv?$AAe@ 1001f390     OposVariant.obj
 0002:000003a4       ??_C@_1O@JDLOHAN@?$AAD?$AAe?$AAl?$AAe?$AAt?$AAe@ 1001f3a4     OposVariant.obj
 0002:000003b4       ??_C@_11LOCGONAA@@         1001f3b4     OposVariant.obj
 0002:000003b8       __GUID_0000010e_0000_0000_c000_000000000046 1001f3b8     MICR.obj
 0002:000003c8       __GUID_b196b288_bab4_101a_b69c_00aa00341d07 1001f3c8     MICR.obj
 0002:000003d8       __GUID_00000113_0000_0000_c000_000000000046 1001f3d8     MICR.obj
 0002:000003e8       __GUID_1c2056cc_5ef4_101b_8bc8_00aa003e3b29 1001f3e8     MICR.obj
 0002:000003f8       ??_7?$CComObjectCached@VCComClassFactory@ATL@@@ATL@@6B@ 1001f3f8     MICR.obj
 0002:00000410       __GUID_00000112_0000_0000_c000_000000000046 1001f410     MICR.obj
 0002:00000420       ??_C@_1BK@BIGILECK@?$AAA?$AAd?$AAv?$AAa?$AAp?$AAi?$AA3?$AA2?$AA?4?$AAd?$AAl?$AAl@ 1001f420     MICR.obj
 0002:0000043c       __GUID_3af24292_0c96_11ce_a0cf_00aa00600ab8 1001f43c     MICR.obj
 0002:0000044c       ??_C@_0BI@MNCFCPFK@RegCreateKeyTransactedW@ 1001f44c     MICR.obj
 0002:00000464       __GUID_00000127_0000_0000_c000_000000000046 1001f464     MICR.obj
 0002:00000474       __GUID_0000010d_0000_0000_c000_000000000046 1001f474     MICR.obj
 0002:00000484       ??_C@_1M@PPPPCDEP@?$AAA?$AAP?$AAP?$AAI?$AAD@ 1001f484     MICR.obj
 0002:00000490       __GUID_b196b287_bab4_101a_b69c_00aa00341d07 1001f490     MICR.obj
 0002:000004a0       __GUID_b196b285_bab4_101a_b69c_00aa00341d07 1001f4a0     MICR.obj
 0002:000004b0       ??_7?$CComContainedObject@VCOPOSMICR@@@ATL@@6B?$IDispatchImpl@UIOPOSMICR@@$1?IID_IOPOSMICR@@3U_GUID@@B$1?LIBID_OposMICR_CCO@@3U3@B$00$0A@VCComTypeInfoHolder@ATL@@@1@@ 1001f4b0     MICR.obj
 0002:000005cc       ??_7?$CComContainedObject@VCOPOSMICR@@@ATL@@6BCComControlBase@1@@ 1001f5cc     MICR.obj
 0002:000005e0       ??_7?$CComContainedObject@VCOPOSMICR@@@ATL@@6B?$CWindowImpl@VCOPOSMICR@@VCWindow@ATL@@V?$CWinTraits@$0FGAAAAAA@$0A@@3@@1@@ 1001f5e0     MICR.obj
 0002:000005f0       ??_7?$CComContainedObject@VCOPOSMICR@@@ATL@@6B?$IPersistStreamInitImpl@VCOPOSMICR@@@1@@ 1001f5f0     MICR.obj
 0002:00000614       ??_7?$CComContainedObject@VCOPOSMICR@@@ATL@@6B?$IOleControlImpl@VCOPOSMICR@@@1@@ 1001f614     MICR.obj
 0002:00000630       ??_7?$CComContainedObject@VCOPOSMICR@@@ATL@@6B?$IOleObjectImpl@VCOPOSMICR@@@1@@ 1001f630     MICR.obj
 0002:00000690       ??_7?$CComContainedObject@VCOPOSMICR@@@ATL@@6B?$IOleInPlaceActiveObjectImpl@VCOPOSMICR@@@1@@ 1001f690     MICR.obj
 0002:000006b8       ??_7?$CComContainedObject@VCOPOSMICR@@@ATL@@6B?$IViewObjectExImpl@VCOPOSMICR@@@1@@ 1001f6b8     MICR.obj
 0002:000006f4       ??_7?$CComContainedObject@VCOPOSMICR@@@ATL@@6B?$IOleInPlaceObjectWindowlessImpl@VCOPOSMICR@@@1@@ 1001f6f4     MICR.obj
 0002:00000720       ??_7?$CComContainedObject@VCOPOSMICR@@@ATL@@6B?$IConnectionPointContainerImpl@VCOPOSMICR@@@1@@ 1001f720     MICR.obj
 0002:00000734       ??_7?$CComContainedObject@VCOPOSMICR@@@ATL@@6B?$IPersistStorageImpl@VCOPOSMICR@@@1@@ 1001f734     MICR.obj
 0002:0000075c       ??_7?$CComContainedObject@VCOPOSMICR@@@ATL@@6B?$ISpecifyPropertyPagesImpl@VCOPOSMICR@@@1@@ 1001f75c     MICR.obj
 0002:0000076c       ??_7?$CComContainedObject@VCOPOSMICR@@@ATL@@6B?$IQuickActivateImpl@VCOPOSMICR@@@1@@ 1001f76c     MICR.obj
 0002:00000784       ??_7?$CComContainedObject@VCOPOSMICR@@@ATL@@6B?$IDataObjectImpl@VCOPOSMICR@@@1@@ 1001f784     MICR.obj
 0002:000007b4       ??_7?$CComContainedObject@VCOPOSMICR@@@ATL@@6B?$IProvideClassInfo2Impl@$1?CLSID_OPOSMICR@@3U_GUID@@B$1?DIID__IOPOSMICREvents@@3U2@B$1?LIBID_OposMICR_CCO@@3U2@B$00$0A@VCComTypeInfoHolder@ATL@@@1@@ 1001f7b4     MICR.obj
 0002:000007c8       ??_7?$CComContainedObject@VCOPOSMICR@@@ATL@@6B?$IObjectSafetyImpl@VCOPOSMICR@@$02@1@@ 1001f7c8     MICR.obj
 0002:000007e0       ??_7?$CComContainedObject@VCOPOSMICR@@@ATL@@6B?$IPropertyNotifySinkCP@VCOPOSMICR@@VCComDynamicUnkArray@ATL@@@1@@ 1001f7e0     MICR.obj
 0002:00000800       ??_7?$CComContainedObject@VCOPOSMICR@@@ATL@@6B?$CProxy_IOPOSEvents@VCOPOSMICR@@@@@ 1001f800     MICR.obj
 0002:00000820       ??_7?$CComAggObject@VCOPOSMICR@@@ATL@@6B@ 1001f820     MICR.obj
 0002:00000830       ??_7?$CComObject@VCOPOSMICR@@@ATL@@6B?$IDispatchImpl@UIOPOSMICR@@$1?IID_IOPOSMICR@@3U_GUID@@B$1?LIBID_OposMICR_CCO@@3U3@B$00$0A@VCComTypeInfoHolder@ATL@@@1@@ 1001f830     MICR.obj
 0002:0000094c       ??_7?$CComObject@VCOPOSMICR@@@ATL@@6BCComControlBase@1@@ 1001f94c     MICR.obj
 0002:00000960       ??_7?$CComObject@VCOPOSMICR@@@ATL@@6B?$CWindowImpl@VCOPOSMICR@@VCWindow@ATL@@V?$CWinTraits@$0FGAAAAAA@$0A@@3@@1@@ 1001f960     MICR.obj
 0002:00000970       ??_7?$CComObject@VCOPOSMICR@@@ATL@@6B?$IPersistStreamInitImpl@VCOPOSMICR@@@1@@ 1001f970     MICR.obj
 0002:00000994       ??_7?$CComObject@VCOPOSMICR@@@ATL@@6B?$IOleControlImpl@VCOPOSMICR@@@1@@ 1001f994     MICR.obj
 0002:000009b0       ??_7?$CComObject@VCOPOSMICR@@@ATL@@6B?$IOleObjectImpl@VCOPOSMICR@@@1@@ 1001f9b0     MICR.obj
 0002:00000a10       ??_7?$CComObject@VCOPOSMICR@@@ATL@@6B?$IOleInPlaceActiveObjectImpl@VCOPOSMICR@@@1@@ 1001fa10     MICR.obj
 0002:00000a38       ??_7?$CComObject@VCOPOSMICR@@@ATL@@6B?$IViewObjectExImpl@VCOPOSMICR@@@1@@ 1001fa38     MICR.obj
 0002:00000a74       ??_7?$CComObject@VCOPOSMICR@@@ATL@@6B?$IOleInPlaceObjectWindowlessImpl@VCOPOSMICR@@@1@@ 1001fa74     MICR.obj
 0002:00000aa0       ??_7?$CComObject@VCOPOSMICR@@@ATL@@6B?$IConnectionPointContainerImpl@VCOPOSMICR@@@1@@ 1001faa0     MICR.obj
 0002:00000ab4       ??_7?$CComObject@VCOPOSMICR@@@ATL@@6B?$IPersistStorageImpl@VCOPOSMICR@@@1@@ 1001fab4     MICR.obj
 0002:00000adc       ??_7?$CComObject@VCOPOSMICR@@@ATL@@6B?$ISpecifyPropertyPagesImpl@VCOPOSMICR@@@1@@ 1001fadc     MICR.obj
 0002:00000aec       ??_7?$CComObject@VCOPOSMICR@@@ATL@@6B?$IQuickActivateImpl@VCOPOSMICR@@@1@@ 1001faec     MICR.obj
 0002:00000b04       ??_7?$CComObject@VCOPOSMICR@@@ATL@@6B?$IDataObjectImpl@VCOPOSMICR@@@1@@ 1001fb04     MICR.obj
 0002:00000b34       ??_7?$CComObject@VCOPOSMICR@@@ATL@@6B?$IProvideClassInfo2Impl@$1?CLSID_OPOSMICR@@3U_GUID@@B$1?DIID__IOPOSMICREvents@@3U2@B$1?LIBID_OposMICR_CCO@@3U2@B$00$0A@VCComTypeInfoHolder@ATL@@@1@@ 1001fb34     MICR.obj
 0002:00000b48       ??_7?$CComObject@VCOPOSMICR@@@ATL@@6B?$IObjectSafetyImpl@VCOPOSMICR@@$02@1@@ 1001fb48     MICR.obj
 0002:00000b60       ??_7?$CComObject@VCOPOSMICR@@@ATL@@6B?$IPropertyNotifySinkCP@VCOPOSMICR@@VCComDynamicUnkArray@ATL@@@1@@ 1001fb60     MICR.obj
 0002:00000b80       ??_7?$CComObject@VCOPOSMICR@@@ATL@@6B?$CProxy_IOPOSEvents@VCOPOSMICR@@@@@ 1001fb80     MICR.obj
 0002:00000ba0       __GUID_a6bc3ac0_dbaa_11ce_9de3_00aa004bb851 1001fba0     MICR.obj
 0002:00000bb0       __GUID_0000010c_0000_0000_c000_000000000046 1001fbb0     MICR.obj
 0002:00000bc0       ??_C@_1O@GBFKGNEO@?$AAA?$AAT?$AAL?$AA?3?$AA?$CF?$AAp@ 1001fbc0     MICR.obj
 0002:00000bd0       __GUID_00000146_0000_0000_c000_000000000046 1001fbd0     MICR.obj
 0002:00000be0       ??_C@_1BA@PICGEGJB@?$AAD?$AAI?$AAS?$AAP?$AAL?$AAA?$AAY@ 1001fbe0     MICR.obj
 0002:00000bf0       __GUID_9bfbbc02_eff1_101a_84ed_00aa00341d07 1001fbf0     MICR.obj
 0002:00000c00       ??_7CComModule@ATL@@6B@    1001fc00     MICR.obj
 0002:00000c28       ?_entries@?1??_GetEntries@?$CComEnum@UIEnumConnectionPoints@@$1?_GUID_b196b285_bab4_101a_b69c_00aa00341d07@@3U__s_GUID@@BPAUIConnectionPoint@@V?$_CopyInterface@UIConnectionPoint@@@ATL@@VCComSingleThreadModel@6@@ATL@@SGPBU_ATL_INTMAP_ENTRY@3@XZ@4QBU43@B 1001fc28     MICR.obj
 0002:00000c40       __GUID_00000000_0000_0000_c000_000000000046 1001fc40     MICR.obj
 0002:00000c50       __GUID_00020400_0000_0000_c000_000000000046 1001fc50     MICR.obj
 0002:00000c60       __GUID_00020412_0000_0000_c000_000000000046 1001fc60     MICR.obj
 0002:00000c70       __GUID_00020401_0000_0000_c000_000000000046 1001fc70     MICR.obj
 0002:00000c80       ??_C@_1M@KANJNLFF@?$AAC?$AAL?$AAS?$AAI?$AAD@ 1001fc80     MICR.obj
 0002:00000c8c       ??_C@_1M@EJNEECMJ@?$AAA?$AAp?$AAp?$AAI?$AAD@ 1001fc8c     MICR.obj
 0002:00000c98       ??_7?$CComObject@V?$CComEnum@UIEnumConnections@@$1?_GUID_b196b287_bab4_101a_b69c_00aa00341d07@@3U__s_GUID@@BUtagCONNECTDATA@@V?$_Copy@UtagCONNECTDATA@@@ATL@@VCComSingleThreadModel@6@@ATL@@@ATL@@6B@ 1001fc98     MICR.obj
 0002:00000cb8       __GUID_55980ba0_35aa_11cf_b671_00aa004cd6d8 1001fcb8     MICR.obj
 0002:00000cc8       __GUID_b196b28b_bab4_101a_b69c_00aa00341d07 1001fcc8     MICR.obj
 0002:00000cd8       ?rgszNeverDelete@CRegParser@ATL@@1QBQB_WB 1001fcd8     MICR.obj
 0002:00000d08       ??_7CRegObject@ATL@@6B@    1001fd08     MICR.obj
 0002:00000d20       ?_entries@?1??_GetEntries@?$CComEnum@UIEnumConnections@@$1?_GUID_b196b287_bab4_101a_b69c_00aa00341d07@@3U__s_GUID@@BUtagCONNECTDATA@@V?$_Copy@UtagCONNECTDATA@@@ATL@@VCComSingleThreadModel@6@@ATL@@SGPBU_ATL_INTMAP_ENTRY@3@XZ@4QBU43@B 1001fd20     MICR.obj
 0002:00000d38       ??_C@_1CK@OEKPKBNA@?$AAC?$AAo?$AAm?$AAp?$AAo?$AAn?$AAe?$AAn?$AAt?$AA?5?$AAC?$AAa?$AAt?$AAe?$AAg@ 1001fd38     MICR.obj
 0002:00000d64       ??_C@_1BC@NKMMNMGL@?$AAF?$AAi?$AAl?$AAe?$AAT?$AAy?$AAp?$AAe@ 1001fd64     MICR.obj
 0002:00000d78       ??_C@_1BE@EKPAFMCP@?$AAI?$AAn?$AAt?$AAe?$AAr?$AAf?$AAa?$AAc?$AAe@ 1001fd78     MICR.obj
 0002:00000d8c       ??_C@_1BC@MAICEHGI@?$AAH?$AAa?$AAr?$AAd?$AAw?$AAa?$AAr?$AAe@ 1001fd8c     MICR.obj
 0002:00000da0       ??_C@_19HLLLM@?$AAM?$AAi?$AAm?$AAe@ 1001fda0     MICR.obj
 0002:00000dac       ??_C@_17OMAOINJK@?$AAS?$AAA?$AAM@ 1001fdac     MICR.obj
 0002:00000db4       ??_C@_1BC@IBECJAAI@?$AAS?$AAE?$AAC?$AAU?$AAR?$AAI?$AAT?$AAY@ 1001fdb4     MICR.obj
 0002:00000dc8       ??_C@_1O@GBFINDKL@?$AAS?$AAY?$AAS?$AAT?$AAE?$AAM@ 1001fdc8     MICR.obj
 0002:00000dd8       ??_C@_1BC@EAHCMADO@?$AAS?$AAo?$AAf?$AAt?$AAw?$AAa?$AAr?$AAe@ 1001fdd8     MICR.obj
 0002:00000dec       ??_C@_1BA@JIHHIEDE@?$AAT?$AAy?$AAp?$AAe?$AAL?$AAi?$AAb@ 1001fdec     MICR.obj
 0002:00000e00       ?map@?1??HKeyFromString@CRegParser@ATL@@KAPAUHKEY__@@PA_W@Z@4QBUkeymap@?1??123@KAPAU4@0@Z@B 1001fe00     MICR.obj
 0002:00000e70       ??_C@_19NCHLBIN@?$AAH?$AAK?$AAC?$AAR@ 1001fe70     MICR.obj
 0002:00000e7c       ??_C@_19JAPAIJDE@?$AAH?$AAK?$AAC?$AAU@ 1001fe7c     MICR.obj
 0002:00000e88       ??_C@_19PEALEEJB@?$AAH?$AAK?$AAL?$AAM@ 1001fe88     MICR.obj
 0002:00000e94       ??_C@_17PJOJPMPB@?$AAH?$AAK?$AAU@ 1001fe94     MICR.obj
 0002:00000e9c       ??_C@_19PNBHMJPL@?$AAH?$AAK?$AAP?$AAD@ 1001fe9c     MICR.obj
 0002:00000ea8       ??_C@_19GFFAIJHG@?$AAH?$AAK?$AAD?$AAD@ 1001fea8     MICR.obj
 0002:00000eb4       ??_C@_19OFICIBHH@?$AAH?$AAK?$AAC?$AAC@ 1001feb4     MICR.obj
 0002:00000ec0       ??_C@_1CE@PACHPJFI@?$AAH?$AAK?$AAE?$AAY?$AA_?$AAC?$AAL?$AAA?$AAS?$AAS?$AAE?$AAS?$AA_?$AAR?$AAO@ 1001fec0     MICR.obj
 0002:00000ee4       ??_C@_1CE@HLHNCBPM@?$AAH?$AAK?$AAE?$AAY?$AA_?$AAC?$AAU?$AAR?$AAR?$AAE?$AAN?$AAT?$AA_?$AAU?$AAS@ 1001fee4     MICR.obj
 0002:00000f08       ??_C@_1CG@GFBEANJL@?$AAH?$AAK?$AAE?$AAY?$AA_?$AAL?$AAO?$AAC?$AAA?$AAL?$AA_?$AAM?$AAA?$AAC?$AAH@ 1001ff08     MICR.obj
 0002:00000f30       ??_C@_1BG@BGODANIO@?$AAH?$AAK?$AAE?$AAY?$AA_?$AAU?$AAS?$AAE?$AAR?$AAS@ 1001ff30     MICR.obj
 0002:00000f48       ??_C@_1CM@KHNNAOIC@?$AAH?$AAK?$AAE?$AAY?$AA_?$AAP?$AAE?$AAR?$AAF?$AAO?$AAR?$AAM?$AAA?$AAN?$AAC@ 1001ff48     MICR.obj
 0002:00000f74       ??_C@_1BM@HAGMMHIA@?$AAH?$AAK?$AAE?$AAY?$AA_?$AAD?$AAY?$AAN?$AA_?$AAD?$AAA?$AAT?$AAA@ 1001ff74     MICR.obj
 0002:00000f90       ??_C@_1CI@BBJOACGG@?$AAH?$AAK?$AAE?$AAY?$AA_?$AAC?$AAU?$AAR?$AAR?$AAE?$AAN?$AAT?$AA_?$AAC?$AAO@ 1001ff90     MICR.obj
 0002:00000fb8       __GUID_00000109_0000_0000_c000_000000000046 1001ffb8     MICR.obj
 0002:00000fc8       __GUID_7fd52380_4e07_101b_ae2d_08002b2ec713 1001ffc8     MICR.obj
 0002:00000fd8       ??_C@_1EA@NHKLICFA@?$AAH?$AAK?$AAC?$AAU?$AA?$AN?$AA?6?$AA?$HL?$AA?7?$AAS?$AAo?$AAf?$AAt?$AAw?$AAa?$AAr@ 1001ffd8     MICR.obj
 0002:00001018       ??_C@_1BE@LJOLIMEM@?$AA?$AN?$AA?6?$AA?7?$AA?$HN?$AA?$AN?$AA?6?$AA?$HN?$AA?$AN?$AA?6@ 10020018     MICR.obj
 0002:0000102c       ??_C@_1O@MNLDABAF@?$AAM?$AAo?$AAd?$AAu?$AAl?$AAe@ 1002002c     MICR.obj
 0002:0000103c       ??_C@_1BG@JBACFMF@?$AAM?$AAo?$AAd?$AAu?$AAl?$AAe?$AA_?$AAR?$AAa?$AAw@ 1002003c     MICR.obj
 0002:00001054       ??_C@_1BC@KAILKFFG@?$AAR?$AAE?$AAG?$AAI?$AAS?$AAT?$AAR?$AAY@ 10020054     MICR.obj
 0002:00001068       _IID_IOPOSMICR_1_5         10020068     MICR.obj
 0002:00001078       _IID_IOPOSMICR_1_8         10020078     MICR.obj
 0002:00001088       _IID_IOPOSMICR_1_9         10020088     MICR.obj
 0002:00001098       _IID_IOPOSMICR_1_10        10020098     MICR.obj
 0002:000010a8       _IID_IOPOSMICR             100200a8     MICR.obj
 0002:000010b8       _LIBID_OposMICR_CCO        100200b8     MICR.obj
 0002:000010c8       _DIID__IOPOSMICREvents     100200c8     MICR.obj
 0002:000010d8       _CLSID_OPOSMICR            100200d8     MICR.obj
 0002:000010e8       __GUID_00000114_0000_0000_c000_000000000046 100200e8     MICR.obj
 0002:000010f8       __GUID_b196b284_bab4_101a_b69c_00aa00341d07 100200f8     MICR.obj
 0002:00001108       ?_entries@?1??_GetEntries@COPOSMICR@@SGPBU_ATL_INTMAP_ENTRY@ATL@@XZ@4QBU34@B 10020108     MICR.obj
 0002:0000124c       __GUID_cf51ed10_62fe_11cf_bf86_00a0c9034836 1002024c     MICR.obj
 0002:0000125c       __GUID_0000010a_0000_0000_c000_000000000046 1002025c     MICR.obj
 0002:0000126c       __GUID_b196b283_bab4_101a_b69c_00aa00341d07 1002026c     MICR.obj
 0002:0000127c       __GUID_cb5bdc81_93c1_11cf_8f20_00805f2cd064 1002027c     MICR.obj
 0002:00001290       ?pPropMap@?1??GetPropertyMap@COPOSMICR@@SAPBUATL_PROPMAP_ENTRY@ATL@@XZ@4QBU34@B 10020290     MICR.obj
 0002:000012fc       ??_C@_17DGDADEHL@?$AA_?$AAc?$AAx@ 100202fc     MICR.obj
 0002:00001304       ??_C@_17IOIMFDBO@?$AA_?$AAc?$AAy@ 10020304     MICR.obj
 0002:0000130c       __GUID_922eada0_3424_11cf_b670_00aa004cd6d8 1002030c     MICR.obj
 0002:0000131c       __GUID_9c2cad80_3424_11cf_b670_00aa004cd6d8 1002031c     MICR.obj
 0002:0000132c       __GUID_00000119_0000_0000_c000_000000000046 1002032c     MICR.obj
 0002:0000133c       __GUID_b196b289_bab4_101a_b69c_00aa00341d07 1002033c     MICR.obj
 0002:0000134c       __GUID_b196b286_bab4_101a_b69c_00aa00341d07 1002034c     MICR.obj
 0002:0000135c       ??_C@_1CE@PGFMOFKI@?$AAS?$AAt?$AAa?$AAt?$AAu?$AAs?$AAU?$AAp?$AAd?$AAa?$AAt?$AAe?$AAE?$AAv?$AAe@ 1002035c     MICR.obj
 0002:00001380       ??_C@_1BG@LODEBHDD@?$AAE?$AAr?$AAr?$AAo?$AAr?$AAE?$AAv?$AAe?$AAn?$AAt@ 10020380     MICR.obj
 0002:00001398       ??_C@_1BM@CBGEBBBJ@?$AAD?$AAi?$AAr?$AAe?$AAc?$AAt?$AAI?$AAO?$AAE?$AAv?$AAe?$AAn?$AAt@ 10020398     MICR.obj
 0002:000013b4       ??_C@_1BE@IEBMACEM@?$AAD?$AAa?$AAt?$AAa?$AAE?$AAv?$AAe?$AAn?$AAt@ 100203b4     MICR.obj
 0002:000013c8       __GUID_00000117_0000_0000_c000_000000000046 100203c8     MICR.obj
 0002:000013d8       ??_C@_1BC@ENICKDH@?$AAC?$AAo?$AAn?$AAt?$AAe?$AAn?$AAt?$AAs@ 100203d8     MICR.obj
 0002:000013ec       ??_7?$CComObject@V?$CComEnum@UIEnumConnectionPoints@@$1?_GUID_b196b285_bab4_101a_b69c_00aa00341d07@@3U__s_GUID@@BPAUIConnectionPoint@@V?$_CopyInterface@UIConnectionPoint@@@ATL@@VCComSingleThreadModel@6@@ATL@@@ATL@@6B@ 100203ec     MICR.obj
 0002:0000140c       ??_7CComClassFactory@ATL@@6B@ 1002040c     MICR.obj
 0002:00001424       ?_entries@?1??_GetEntries@CComClassFactory@ATL@@SGPBU_ATL_INTMAP_ENTRY@3@XZ@4QBU43@B 10020424     MICR.obj
 0002:0000143c       __GUID_00000001_0000_0000_c000_000000000046 1002043c     MICR.obj
 0002:0000144c       ??_C@_0BG@EKFFMJIO@RegOpenKeyTransactedW@ 1002044c     MICR.obj
 0002:00001464       ??_C@_0BI@HAKLOOGP@RegDeleteKeyTransactedW@ 10020464     MICR.obj
 0002:0000147c       ??_C@_0BA@LILAPHGE@RegDeleteKeyExW@ 1002047c     MICR.obj
 0002:0000148c       ??_C@_19ILOCMLCJ@?$AA?4?$AAt?$AAl?$AAb@ 1002048c     MICR.obj
 0002:00001498       __GUID_0002e012_0000_0000_c000_000000000046 10020498     MICR.obj
 0002:000014a8       ??_C@_1O@FHBGLCIO@?$AAC?$AAL?$AAS?$AAI?$AAD?$AA?2@ 100204a8     MICR.obj
 0002:000014b8       ??_C@_1CK@IFBKBFAA@?$AA?2?$AAR?$AAe?$AAq?$AAu?$AAi?$AAr?$AAe?$AAd?$AA?5?$AAC?$AAa?$AAt?$AAe?$AAg@ 100204b8     MICR.obj
 0002:000014e4       ??_C@_1DA@BIHALFED@?$AA?2?$AAI?$AAm?$AAp?$AAl?$AAe?$AAm?$AAe?$AAn?$AAt?$AAe?$AAd?$AA?5?$AAC?$AAa@ 100204e4     MICR.obj
 0002:00001514       ??_C@_1BK@EDKOLFBJ@?$AAO?$AAL?$AAE?$AAA?$AAU?$AAT?$AA3?$AA2?$AA?4?$AAD?$AAL?$AAL@ 10020514     MICR.obj
 0002:00001530       ??_C@_0BJ@CNLFOMHB@UnRegisterTypeLibForUser@ 10020530     MICR.obj
 0002:0000154c       ??_C@_0BH@LBOMMKPJ@RegisterTypeLibForUser@ 1002054c     MICR.obj
 0002:00001564       ??_C@_0P@MMNMMLGK@COFreezeEvents@ 10020564     MICRImpl.obj
 0002:00001574       ??_C@_0BC@OGCGGIMP@GetPropertyNumber@ 10020574     MICRImpl.obj
 0002:00001588       ??_C@_0BC@MDCNODNB@SetPropertyNumber@ 10020588     MICRImpl.obj
 0002:0000159c       ??_C@_0BC@CFCCMIMD@GetPropertyString@ 1002059c     MICRImpl.obj
 0002:000015b0       ??_C@_0BC@CJEDNN@SetPropertyString@ 100205b0     MICRImpl.obj
 0002:000015c4       ??_C@_0M@LNPKKKDA@OpenService@ 100205c4     MICRImpl.obj
 0002:000015d0       ??_C@_0M@PCMCHHMH@CheckHealth@ 100205d0     MICRImpl.obj
 0002:000015dc       ??_C@_0M@JGMIDNEK@ClaimDevice@ 100205dc     MICRImpl.obj
 0002:000015e8       ??_C@_0L@BNEIFEJC@ClearInput@ 100205e8     MICRImpl.obj
 0002:000015f4       ??_C@_0N@DDFIIBMP@CloseService@ 100205f4     MICRImpl.obj
 0002:00001604       ??_C@_08EEIHICPC@DirectIO@ 10020604     MICRImpl.obj
 0002:00001610       ??_C@_0O@BCPMENMJ@ReleaseDevice@ 10020610     MICRImpl.obj
 0002:00001620       ??_C@_0P@DPMKPLAE@BeginInsertion@ 10020620     MICRImpl.obj
 0002:00001630       ??_C@_0N@PCJLGBKP@BeginRemoval@ 10020630     MICRImpl.obj
 0002:00001640       ??_C@_0N@MIHLNKHM@EndInsertion@ 10020640     MICRImpl.obj
 0002:00001650       ??_C@_0L@FCEKAOMI@EndRemoval@ 10020650     MICRImpl.obj
 0002:0000165c       ??_C@_0BA@GFABKEEE@ResetStatistics@ 1002065c     MICRImpl.obj
 0002:0000166c       ??_C@_0BD@DPALHJGC@RetrieveStatistics@ 1002066c     MICRImpl.obj
 0002:00001680       ??_C@_0BB@KOHIKNFC@UpdateStatistics@ 10020680     MICRImpl.obj
 0002:00001694       ??_C@_0BH@PBKBNMGB@CompareFirmwareVersion@ 10020694     MICRImpl.obj
 0002:000016ac       ??_C@_0P@FBPDPIPA@UpdateFirmware@ 100206ac     MICRImpl.obj
 0002:000016bc       ??_C@_0BF@CMAPCJGM@ClearInputProperties@ 100206bc     MICRImpl.obj
 0002:000016d4       ??_7?$CProxy_IOPOSEvents@VCOPOSMICR@@@@6B@ 100206d4     MICRImpl.obj
 0002:000016f4       ??_C@_1BA@IFHENID@?$AA?$FL?$AAE?$AAr?$AAr?$AAo?$AAr?$AA?$FN@ 100206f4     MICRImpl.obj
 0002:00001704       ??_C@_0CH@BMFKNIPD@SOFTWARE?2OLEforRetail?2ServiceOP@ 10020704     MICRImpl.obj
 0002:0000172c       ??_C@_1M@IAIJHCCH@?$AAC?$AAl?$AAo?$AAs?$AAe@ 1002072c     MICRImpl.obj
 0002:00001738       ??_C@_1M@PCPKGJAH@?$AAC?$AAl?$AAa?$AAi?$AAm@ 10020738     MICRImpl.obj
 0002:00001744       ??_C@_1BA@NDFKIOCP@?$AAR?$AAe?$AAl?$AAe?$AAa?$AAs?$AAe@ 10020744     MICRImpl.obj
 0002:00001754       ??_C@_04IFPDIPOC@MICR@     10020754     MICRImpl.obj
 0002:0000175c       ??_C@_1BM@IJMNMBPK@?$AAG?$AAe?$AAt?$AAO?$AAp?$AAe?$AAn?$AAR?$AAe?$AAs?$AAu?$AAl?$AAt@ 1002075c     MICRImpl.obj
 0002:00001778       _IID_IPropertyNotifySink   10020778     uuid:ocidl_i.obj
 0002:00001788       _GUID_NULL                 10020788     uuid:cguid_i.obj
 0002:00001798       _CLSID_StdGlobalInterfaceTable 10020798     uuid:cguid_i.obj
 0002:000017a8       _IID_IDispatch             100207a8     uuid:oaidl_i.obj
 0002:000017b8       _CLSID_StdComponentCategoriesMgr 100207b8     uuid:ieguids.obj
 0002:000017c8       _IID_IUnknown              100207c8     uuid:unknwn_i.obj
 0002:000017d8       ??_C@_1EC@JIJBPKFM@?$AAa?$AAp?$AAi?$AA?9?$AAm?$AAs?$AA?9?$AAw?$AAi?$AAn?$AA?9?$AAc?$AAo?$AAr?$AAe@ 100207d8     LIBCMT:thread_safe_statics.obj
 0002:0000181c       ??_C@_1BK@MGMFAEKH@?$AAk?$AAe?$AAr?$AAn?$AAe?$AAl?$AA3?$AA2?$AA?4?$AAd?$AAl?$AAl@ 1002081c     LIBCMT:thread_safe_statics.obj
 0002:00001838       ??_C@_0BJ@JEBJOJFJ@SleepConditionVariableCS@ 10020838     LIBCMT:thread_safe_statics.obj
 0002:00001854       ??_C@_0BJ@PGPPEPCC@WakeAllConditionVariable@ 10020854     LIBCMT:thread_safe_statics.obj
 0002:0000186d       ?nothrow@std@@3Unothrow_t@1@B 1002086d     LIBCMT:std_nothrow.obj
 0002:00001878       __pRawDllMain              10020878     LIBCMT:dll_dllmain.obj
 0002:00001878       __pDefaultRawDllMain       10020878     LIBCMT:dll_dllmain.obj
 0002:00001880       ??_7exception@std@@6B@     10020880     LIBCMT:throw_bad_alloc.obj
 0002:00001888       ??_C@_0BC@EOODALEL@Unknown?5exception@ 10020888     LIBCMT:throw_bad_alloc.obj
 0002:000018a0       ??_7bad_alloc@std@@6B@     100208a0     LIBCMT:throw_bad_alloc.obj
 0002:000018a8       ??_C@_0P@GHFPNOJB@bad?5allocation@ 100208a8     LIBCMT:throw_bad_alloc.obj
 0002:000018bc       ??_7bad_array_new_length@std@@6B@ 100208bc     LIBCMT:throw_bad_alloc.obj
 0002:000018c4       ??_C@_0BF@KINCDENJ@bad?5array?5new?5length@ 100208c4     LIBCMT:throw_bad_alloc.obj
 0002:000018e0       ??_7type_info@@6B@         100208e0     LIBCMT:std_type_info_static.obj
 0002:000018e4       _GUID_ATLVer110            100208e4     atls:atlbase.obj
 0002:000018f8       ??_C@_1IC@ONKHOIDK@?$AAE?$AAR?$AAR?$AAO?$AAR?$AA?5?$AA?3?$AA?5?$AAU?$AAn?$AAa?$AAb?$AAl?$AAe?$AA?5@ 100208f8     atls:atlbase.obj
 0002:0000197c       ??_C@_0N@FJEPLCIH@atlthunk?4dll@ 1002097c     atls:atlthunk.obj
 0002:0000198c       ??_C@_0BG@GAKFHCBM@AtlThunk_AllocateData@ 1002098c     atls:atlthunk.obj
 0002:000019a4       ??_C@_0BC@JKONFIAH@AtlThunk_InitData@ 100209a4     atls:atlthunk.obj
 0002:000019b8       ??_C@_0BE@IAOEELAK@AtlThunk_DataToCode@ 100209b8     atls:atlthunk.obj
 0002:000019cc       ??_C@_0BC@GBGKAIPI@AtlThunk_FreeData@ 100209cc     atls:atlthunk.obj
 0002:00001a04       ??_7bad_exception@std@@6B@ 10020a04     libvcruntime:frame.obj
 0002:00001a0c       ??_C@_0O@DPKOEFFH@bad?5exception@ 10020a0c     libvcruntime:frame.obj
 0002:00001bc0       ??_C@_08EHJDFFNH@__based?$CI@ 10020bc0     libvcruntime:undname.obj
 0002:00001bcc       ??_C@_07KOLFKCDI@__cdecl@  10020bcc     libvcruntime:undname.obj
 0002:00001bd4       ??_C@_08GHMPAG@__pascal@   10020bd4     libvcruntime:undname.obj
 0002:00001be0       ??_C@_09IFJBGAPI@__stdcall@ 10020be0     libvcruntime:undname.obj
 0002:00001bec       ??_C@_0L@NPHFGOKO@__thiscall@ 10020bec     libvcruntime:undname.obj
 0002:00001bf8       ??_C@_0L@JMKHOMEK@__fastcall@ 10020bf8     libvcruntime:undname.obj
 0002:00001c04       ??_C@_0N@BCKKPABJ@__vectorcall@ 10020c04     libvcruntime:undname.obj
 0002:00001c14       ??_C@_09HIJEGCPM@__clrcall@ 10020c14     libvcruntime:undname.obj
 0002:00001c20       ??_C@_06GHPCKEAG@__eabi@   10020c20     libvcruntime:undname.obj
 0002:00001c28       ??_C@_09IOPIDJLG@__swift_1@ 10020c28     libvcruntime:undname.obj
 0002:00001c34       ??_C@_09KFNFGKHF@__swift_2@ 10020c34     libvcruntime:undname.obj
 0002:00001c40       ??_C@_07JOMMBBKO@__ptr64@  10020c40     libvcruntime:undname.obj
 0002:00001c48       ??_C@_0L@PILCLIHE@__restrict@ 10020c48     libvcruntime:undname.obj
 0002:00001c54       ??_C@_0M@GFIIJFMG@__unaligned@ 10020c54     libvcruntime:undname.obj
 0002:00001c60       ??_C@_09DHDLOLLB@restrict?$CI@ 10020c60     libvcruntime:undname.obj
 0002:00001c6a       ??_C@_00CNPNBAHC@@         10020c6a     libvcruntime:undname.obj
 0002:00001c6c       ??_C@_04NIHEBCM@?5new@     10020c6c     libvcruntime:undname.obj
 0002:00001c74       ??_C@_07FPCDHGMM@?5delete@ 10020c74     libvcruntime:undname.obj
 0002:00001c7c       ??_C@_01NEMOKFLO@?$DN@     10020c7c     libvcruntime:undname.obj
 0002:00001c80       ??_C@_02GPIOPFAK@?$DO?$DO@ 10020c80     libvcruntime:undname.obj
 0002:00001c84       ??_C@_02FODMEDOG@?$DM?$DM@ 10020c84     libvcruntime:undname.obj
 0002:00001c88       ??_C@_01DCLJPIOD@?$CB@     10020c88     libvcruntime:undname.obj
 0002:00001c8c       ??_C@_02EGOFBIJA@?$DN?$DN@ 10020c8c     libvcruntime:undname.obj
 0002:00001c90       ??_C@_02FDNJECIE@?$CB?$DN@ 10020c90     libvcruntime:undname.obj
 0002:00001c94       ??_C@_02GPECMEKF@?$FL?$FN@ 10020c94     libvcruntime:undname.obj
 0002:00001c98       ??_C@_08LHJFAFGD@operator@ 10020c98     libvcruntime:undname.obj
 0002:00001ca4       ??_C@_02HBOOOICD@?9?$DO@   10020ca4     libvcruntime:undname.obj
 0002:00001ca8       ??_C@_01NBENCBCI@?$CK@     10020ca8     libvcruntime:undname.obj
 0002:00001cac       ??_C@_02ECNGHCIF@?$CL?$CL@ 10020cac     libvcruntime:undname.obj
 0002:00001cb0       ??_C@_02BAABKJLB@?9?9@     10020cb0     libvcruntime:undname.obj
 0002:00001cb4       ??_C@_01JOAMLHOP@?9@       10020cb4     libvcruntime:undname.obj
 0002:00001cb8       ??_C@_01MIFGBAGJ@?$CL@     10020cb8     libvcruntime:undname.obj
 0002:00001cbc       ??_C@_01HNPIGOCE@?$CG@     10020cbc     libvcruntime:undname.obj
 0002:00001cc0       ??_C@_03MNHNFDLC@?9?$DO?$CK@ 10020cc0     libvcruntime:undname.obj
 0002:00001cc4       ??_C@_01KMDKNFGN@?1@       10020cc4     libvcruntime:undname.obj
 0002:00001cc8       ??_C@_01FGNFDNOH@?$CF@     10020cc8     libvcruntime:undname.obj
 0002:00001ccc       ??_C@_01MNNFJEPP@?$DM@     10020ccc     libvcruntime:undname.obj
 0002:00001cd0       ??_C@_02EHCHHCKH@?$DM?$DN@ 10020cd0     libvcruntime:undname.obj
 0002:00001cd4       ??_C@_01PPODPGHN@?$DO@     10020cd4     libvcruntime:undname.obj
 0002:00001cd8       ??_C@_02EEKDKGMJ@?$DO?$DN@ 10020cd8     libvcruntime:undname.obj
 0002:00001cdc       ??_C@_01IHBHIGKO@?0@       10020cdc     libvcruntime:undname.obj
 0002:00001ce0       ??_C@_02HCKGKOFO@?$CI?$CJ@ 10020ce0     libvcruntime:undname.obj
 0002:00001ce4       ??_C@_01PJKLJHI@?$HO@      10020ce4     libvcruntime:undname.obj
 0002:00001ce8       ??_C@_01JKBOJNNK@?$FO@     10020ce8     libvcruntime:undname.obj
 0002:00001cec       ??_C@_01DNKMNLPK@?$HM@     10020cec     libvcruntime:undname.obj
 0002:00001cf0       ??_C@_02PPKAJPJL@?$CG?$CG@ 10020cf0     libvcruntime:undname.obj
 0002:00001cf4       ??_C@_02NONPIBCD@?$HM?$HM@ 10020cf4     libvcruntime:undname.obj
 0002:00001cf8       ??_C@_02FPIMKNGF@?$CK?$DN@ 10020cf8     libvcruntime:undname.obj
 0002:00001cfc       ??_C@_02FOEOMHFC@?$CL?$DN@ 10020cfc     libvcruntime:undname.obj
 0002:00001d00       ??_C@_02FKMDLLOA@?9?$DN@   10020d00     libvcruntime:undname.obj
 0002:00001d04       ??_C@_02FJEHGPIO@?1?$DN@   10020d04     libvcruntime:undname.obj
 0002:00001d08       ??_C@_02FENAOKFI@?$CF?$DN@ 10020d08     libvcruntime:undname.obj
 0002:00001d0c       ??_C@_03IKFCCPFF@?$DO?$DO?$DN@ 10020d0c     libvcruntime:undname.obj
 0002:00001d10       ??_C@_03CDNPDDLA@?$DM?$DM?$DN@ 10020d10     libvcruntime:undname.obj
 0002:00001d14       ??_C@_02FGJGFEAB@?$CG?$DN@ 10020d14     libvcruntime:undname.obj
 0002:00001d18       ??_C@_02DHLNPPGH@?$HM?$DN@ 10020d18     libvcruntime:undname.obj
 0002:00001d1c       ??_C@_02MHEGNOJ@?$FO?$DN@  10020d1c     libvcruntime:undname.obj
 0002:00001d20       ??_C@_09IFPLHPGF@?$GAvftable?8@ 10020d20     libvcruntime:undname.obj
 0002:00001d2c       ??_C@_09BLBHBJP@?$GAvbtable?8@ 10020d2c     libvcruntime:undname.obj
 0002:00001d38       ??_C@_07FEEIOKP@?$GAvcall?8@ 10020d38     libvcruntime:undname.obj
 0002:00001d40       ??_C@_08LLFFHHDJ@?$GAtypeof?8@ 10020d40     libvcruntime:undname.obj
 0002:00001d4c       ??_C@_0BF@KDPPACIK@?$GAlocal?5static?5guard?8@ 10020d4c     libvcruntime:undname.obj
 0002:00001d64       ??_C@_08OBABFOLI@?$GAstring?8@ 10020d64     libvcruntime:undname.obj
 0002:00001d70       ??_C@_0BD@JDLKDPAB@?$GAvbase?5destructor?8@ 10020d70     libvcruntime:undname.obj
 0002:00001d84       ??_C@_0BN@DEGPLNFK@?$GAvector?5deleting?5destructor?8@ 10020d84     libvcruntime:undname.obj
 0002:00001da4       ??_C@_0BO@OBMKPJIG@?$GAdefault?5constructor?5closure?8@ 10020da4     libvcruntime:undname.obj
 0002:00001dc4       ??_C@_0BN@IMDCHIKM@?$GAscalar?5deleting?5destructor?8@ 10020dc4     libvcruntime:undname.obj
 0002:00001de4       ??_C@_0BO@PFGOCPJJ@?$GAvector?5constructor?5iterator?8@ 10020de4     libvcruntime:undname.obj
 0002:00001e04       ??_C@_0BN@LFPFMEDL@?$GAvector?5destructor?5iterator?8@ 10020e04     libvcruntime:undname.obj
 0002:00001e24       ??_C@_0CE@IKBNEHA@?$GAvector?5vbase?5constructor?5itera@ 10020e24     libvcruntime:undname.obj
 0002:00001e48       ??_C@_0BL@NILFHHPC@?$GAvirtual?5displacement?5map?8@ 10020e48     libvcruntime:undname.obj
 0002:00001e64       ??_C@_0CB@JONCMFFK@?$GAeh?5vector?5constructor?5iterator@ 10020e64     libvcruntime:undname.obj
 0002:00001e88       ??_C@_0CA@GCEOPDGL@?$GAeh?5vector?5destructor?5iterator?8@ 10020e88     libvcruntime:undname.obj
 0002:00001ea8       ??_C@_0CH@OOJPLCPH@?$GAeh?5vector?5vbase?5constructor?5it@ 10020ea8     libvcruntime:undname.obj
 0002:00001ed0       ??_C@_0BL@LLKPOHJI@?$GAcopy?5constructor?5closure?8@ 10020ed0     libvcruntime:undname.obj
 0002:00001eec       ??_C@_0BA@KBCDOMBN@?$GAudt?5returning?8@ 10020eec     libvcruntime:undname.obj
 0002:00001efc       ??_C@_03KLGMFNMG@?$GAEH@   10020efc     libvcruntime:undname.obj
 0002:00001f00       ??_C@_05KHLCHHI@?$GARTTI@  10020f00     libvcruntime:undname.obj
 0002:00001f08       ??_C@_0BA@KKLDJDLB@?$GAlocal?5vftable?8@ 10020f08     libvcruntime:undname.obj
 0002:00001f18       ??_C@_0CE@IIHCMGGL@?$GAlocal?5vftable?5constructor?5clos@ 10020f18     libvcruntime:undname.obj
 0002:00001f3c       ??_C@_06FHBGPFGH@?5new?$FL?$FN@ 10020f3c     libvcruntime:undname.obj
 0002:00001f44       ??_C@_09LBNFPBCA@?5delete?$FL?$FN@ 10020f44     libvcruntime:undname.obj
 0002:00001f50       ??_C@_0P@HJKNJFNN@?$GAomni?5callsig?8@ 10020f50     libvcruntime:undname.obj
 0002:00001f60       ??_C@_0BL@CNOONJFP@?$GAplacement?5delete?5closure?8@ 10020f60     libvcruntime:undname.obj
 0002:00001f7c       ??_C@_0BN@CKNJLHMB@?$GAplacement?5delete?$FL?$FN?5closure?8@ 10020f7c     libvcruntime:undname.obj
 0002:00001f9c       ??_C@_0CG@CFDHKGGD@?$GAmanaged?5vector?5constructor?5ite@ 10020f9c     libvcruntime:undname.obj
 0002:00001fc4       ??_C@_0CF@IMGKMJNO@?$GAmanaged?5vector?5destructor?5iter@ 10020fc4     libvcruntime:undname.obj
 0002:00001fec       ??_C@_0CG@HLDDJMAG@?$GAeh?5vector?5copy?5constructor?5ite@ 10020fec     libvcruntime:undname.obj
 0002:00002014       ??_C@_0CM@FCBBDIGB@?$GAeh?5vector?5vbase?5copy?5construct@ 10021014     libvcruntime:undname.obj
 0002:00002040       ??_C@_0BL@CLIPGLGB@?$GAdynamic?5initializer?5for?5?8@ 10021040     libvcruntime:undname.obj
 0002:0000205c       ??_C@_0CB@PDBIFEP@?$GAdynamic?5atexit?5destructor?5for?5@ 1002105c     libvcruntime:undname.obj
 0002:00002080       ??_C@_0CD@CGAJBKEJ@?$GAvector?5copy?5constructor?5iterat@ 10021080     libvcruntime:undname.obj
 0002:000020a4       ??_C@_0CJ@GJELGAMM@?$GAvector?5vbase?5copy?5constructor?5@ 100210a4     libvcruntime:undname.obj
 0002:000020d0       ??_C@_0CL@FGIJHLCE@?$GAmanaged?5vector?5copy?5constructo@ 100210d0     libvcruntime:undname.obj
 0002:000020fc       ??_C@_0BM@PMGGMLDN@?$GAlocal?5static?5thread?5guard?8@ 100210fc     libvcruntime:undname.obj
 0002:00002118       ??_C@_0N@BDNMDMOL@operator?5?$CC?$CC?5@ 10021118     libvcruntime:undname.obj
 0002:00002128       ??_C@_0BC@GGEBGALA@operator?5co_await@ 10021128     libvcruntime:undname.obj
 0002:0000213c       ??_C@_0M@GAAIMMOH@operator?$DM?$DN?$DO@ 1002113c     libvcruntime:undname.obj
 0002:00002148       ??_C@_0BC@DAFEJGAK@?5Type?5Descriptor?8@ 10021148     libvcruntime:undname.obj
 0002:0000215c       ??_C@_0BM@LDKODKLH@?5Base?5Class?5Descriptor?5at?5?$CI@ 1002115c     libvcruntime:undname.obj
 0002:00002178       ??_C@_0BD@LGICGFMM@?5Base?5Class?5Array?8@ 10021178     libvcruntime:undname.obj
 0002:0000218c       ??_C@_0BN@MECKDCOJ@?5Class?5Hierarchy?5Descriptor?8@ 1002118c     libvcruntime:undname.obj
 0002:000021ac       ??_C@_0BK@CFCOFLF@?5Complete?5Object?5Locator?8@ 100211ac     libvcruntime:undname.obj
 0002:000021d4       ??_C@_1DM@KHCHBNEB@?$AAa?$AAp?$AAi?$AA?9?$AAm?$AAs?$AA?9?$AAw?$AAi?$AAn?$AA?9?$AAc?$AAo?$AAr?$AAe@ 100211d4     libvcruntime:winapi_downlevel.obj
 0002:00002210       ??_C@_1DK@LPPGFMPP@?$AAa?$AAp?$AAi?$AA?9?$AAm?$AAs?$AA?9?$AAw?$AAi?$AAn?$AA?9?$AAc?$AAo?$AAr?$AAe@ 10021210     libvcruntime:winapi_downlevel.obj
 0002:0000224c       ??_C@_1BC@GDMECMAK@?$AAk?$AAe?$AAr?$AAn?$AAe?$AAl?$AA3?$AA2@ 1002124c     libvcruntime:winapi_downlevel.obj
 0002:00002260       ??_C@_1BA@PFFKHIOG@?$AAa?$AAp?$AAi?$AA?9?$AAm?$AAs?$AA?9@ 10021260     libvcruntime:winapi_downlevel.obj
 0002:00002278       ??_C@_08KNHFBNJ@FlsAlloc@  10021278     libvcruntime:winapi_downlevel.obj
 0002:0000228c       ??_C@_07PEJMOBNF@FlsFree@  1002128c     libvcruntime:winapi_downlevel.obj
 0002:0000229c       ??_C@_0M@GDNOONDI@FlsGetValue@ 1002129c     libvcruntime:winapi_downlevel.obj
 0002:000022b0       ??_C@_0M@JCPCPOEF@FlsSetValue@ 100212b0     libvcruntime:winapi_downlevel.obj
 0002:000022c4       ??_C@_0BM@HCFOFFN@InitializeCriticalSectionEx@ 100212c4     libvcruntime:winapi_downlevel.obj
 0002:000022e0       __pDestructExceptionObject 100212e0     libvcruntime:ehhelpers.obj
 0002:00002450       _format_validation_lookup_table 10021450     libucrt:output.obj
 0002:000024ac       ??_C@_1O@CEDCILHN@?$AA?$CI?$AAn?$AAu?$AAl?$AAl?$AA?$CJ@ 100214ac     libucrt:output.obj
 0002:000024bc       ??_C@_06OJHGLDPL@?$CInull?$CJ@ 100214bc     libucrt:output.obj
 0002:000024c8       ___acrt_exception_action_table 100214c8     libucrt:exception_filter.obj
 0002:00002558       ___acrt_signal_action_table_count 10021558     libucrt:exception_filter.obj
 0002:0000255c       ___acrt_signal_action_first_fpe_index 1002155c     libucrt:exception_filter.obj
 0002:00002560       ___acrt_signal_action_fpe_count 10021560     libucrt:exception_filter.obj
 0002:00002564       ??_C@_1BI@BGOHAHKC@?$AAm?$AAs?$AAc?$AAo?$AAr?$AAe?$AAe?$AA?4?$AAd?$AAl?$AAl@ 10021564     libucrt:exit.obj
 0002:0000257c       ??_C@_0P@MIGLKIOC@CorExitProcess@ 1002157c     libucrt:exit.obj
 0002:00002660       ??_C@_1EA@JGEFHKEI@?$AAa?$AAp?$AAi?$AA?9?$AAm?$AAs?$AA?9?$AAw?$AAi?$AAn?$AA?9?$AAc?$AAo?$AAr?$AAe@ 10021660     libucrt:winapi_thunks.obj
 0002:000026a0       ??_C@_1DI@IJCEHOCB@?$AAa?$AAp?$AAi?$AA?9?$AAm?$AAs?$AA?9?$AAw?$AAi?$AAn?$AA?9?$AAc?$AAo?$AAr?$AAe@ 100216a0     libucrt:winapi_thunks.obj
 0002:000026d8       ??_C@_1EI@MPIAOHOC@?$AAa?$AAp?$AAi?$AA?9?$AAm?$AAs?$AA?9?$AAw?$AAi?$AAn?$AA?9?$AAc?$AAo?$AAr?$AAe@ 100216d8     libucrt:winapi_thunks.obj
 0002:00002720       ??_C@_1FK@FPHCKFIE@?$AAa?$AAp?$AAi?$AA?9?$AAm?$AAs?$AA?9?$AAw?$AAi?$AAn?$AA?9?$AAc?$AAo?$AAr?$AAe@ 10021720     libucrt:winapi_thunks.obj
 0002:00002780       ??_C@_1EM@DILCGIIO@?$AAa?$AAp?$AAi?$AA?9?$AAm?$AAs?$AA?9?$AAw?$AAi?$AAn?$AA?9?$AAc?$AAo?$AAr?$AAe@ 10021780     libucrt:winapi_thunks.obj
 0002:000027cc       ??_C@_1DM@LNCGDDPN@?$AAa?$AAp?$AAi?$AA?9?$AAm?$AAs?$AA?9?$AAw?$AAi?$AAn?$AA?9?$AAc?$AAo?$AAr?$AAe@ 100217cc     libucrt:winapi_thunks.obj
 0002:00002808       ??_C@_1DO@FPAPJEMD@?$AAa?$AAp?$AAi?$AA?9?$AAm?$AAs?$AA?9?$AAw?$AAi?$AAn?$AA?9?$AAc?$AAo?$AAr?$AAe@ 10021808     libucrt:winapi_thunks.obj
 0002:00002848       ??_C@_1DK@NDHNAHIO@?$AAa?$AAp?$AAi?$AA?9?$AAm?$AAs?$AA?9?$AAw?$AAi?$AAn?$AA?9?$AAc?$AAo?$AAr?$AAe@ 10021848     libucrt:winapi_thunks.obj
 0002:00002884       ??_C@_1DM@KGHDGBCM@?$AAa?$AAp?$AAi?$AA?9?$AAm?$AAs?$AA?9?$AAw?$AAi?$AAn?$AA?9?$AAc?$AAo?$AAr?$AAe@ 10021884     libucrt:winapi_thunks.obj
 0002:000028c0       ??_C@_1EO@IJIOEFOH@?$AAa?$AAp?$AAi?$AA?9?$AAm?$AAs?$AA?9?$AAw?$AAi?$AAn?$AA?9?$AAr?$AAt?$AAc?$AAo@ 100218c0     libucrt:winapi_thunks.obj
 0002:00002910       ??_C@_1FG@HHGEKANL@?$AAa?$AAp?$AAi?$AA?9?$AAm?$AAs?$AA?9?$AAw?$AAi?$AAn?$AA?9?$AAs?$AAe?$AAc?$AAu@ 10021910     libucrt:winapi_thunks.obj
 0002:00002968       ??_C@_1EG@DBIOJECG@?$AAe?$AAx?$AAt?$AA?9?$AAm?$AAs?$AA?9?$AAw?$AAi?$AAn?$AA?9?$AAn?$AAt?$AAu?$AAs@ 10021968     libucrt:winapi_thunks.obj
 0002:000029b0       ??_C@_1EO@FIHMJCLF@?$AAe?$AAx?$AAt?$AA?9?$AAm?$AAs?$AA?9?$AAw?$AAi?$AAn?$AA?9?$AAn?$AAt?$AAu?$AAs@ 100219b0     libucrt:winapi_thunks.obj
 0002:00002a00       ??_C@_1BC@DNHGCMLG@?$AAa?$AAd?$AAv?$AAa?$AAp?$AAi?$AA3?$AA2@ 10021a00     libucrt:winapi_thunks.obj
 0002:00002a14       ??_C@_1M@OAIMIKLP@?$AAn?$AAt?$AAd?$AAl?$AAl@ 10021a14     libucrt:winapi_thunks.obj
 0002:00002a20       ??_C@_1EG@DPGNFKGC@?$AAa?$AAp?$AAi?$AA?9?$AAm?$AAs?$AA?9?$AAw?$AAi?$AAn?$AA?9?$AAa?$AAp?$AAp?$AAm@ 10021a20     libucrt:winapi_thunks.obj
 0002:00002a68       ??_C@_1O@BCCLBEOE@?$AAu?$AAs?$AAe?$AAr?$AA3?$AA2@ 10021a68     libucrt:winapi_thunks.obj
 0002:00002a78       ??_C@_1BA@IAIFMGEF@?$AAe?$AAx?$AAt?$AA?9?$AAm?$AAs?$AA?9@ 10021a78     libucrt:winapi_thunks.obj
 0002:00002a8c       ??_C@_0BA@FHFNEAED@AreFileApisANSI@ 10021a8c     libucrt:winapi_thunks.obj
 0002:00002acc       ??_C@_0O@KKBNKAPF@LCMapStringEx@ 10021acc     libucrt:winapi_thunks.obj
 0002:00002ae4       ??_C@_0BB@HBDEELFH@LocaleNameToLCID@ 10021ae4     libucrt:winapi_thunks.obj
 0002:00002afc       ??_C@_0CF@OJOFEIGO@AppPolicyGetProcessTerminationM@ 10021afc     libucrt:winapi_thunks.obj
 0002:00002b2c       ??_C@_0BI@BKLFFAPO@SetThreadStackGuarantee@ 10021b2c     libucrt:winapi_thunks.obj
 0002:00002b88       ??_C@_03OEIAHPBN@INF@      10021b88     libucrt:cvt.obj
 0002:00002b8c       ??_C@_03OJHLLCGB@inf@      10021b8c     libucrt:cvt.obj
 0002:00002b90       ??_C@_03LKNCIKJB@NAN@      10021b90     libucrt:cvt.obj
 0002:00002b94       ??_C@_03LHCJEHON@nan@      10021b94     libucrt:cvt.obj
 0002:00002b98       ??_C@_09OFJJIMPC@NAN?$CISNAN?$CJ@ 10021b98     libucrt:cvt.obj
 0002:00002ba4       ??_C@_09IPFBKMDL@nan?$CIsnan?$CJ@ 10021ba4     libucrt:cvt.obj
 0002:00002bb0       ??_C@_08IKHNHAJ@NAN?$CIIND?$CJ@ 10021bb0     libucrt:cvt.obj
 0002:00002bbc       ??_C@_08OFCDMILK@nan?$CIind?$CJ@ 10021bbc     libucrt:cvt.obj
 0002:00002bc8       ??_C@_05KLBDPFGC@e?$CL000@ 10021bc8     libucrt:cvt.obj
 0002:00002bd0       ___lc_time_c               10021bd0     libucrt:nlsdata.obj
 0002:00002d34       ??_C@_03KOEHGMDN@Sun@      10021d34     libucrt:nlsdata.obj
 0002:00002d38       ??_C@_03PDAGKDH@Mon@       10021d38     libucrt:nlsdata.obj
 0002:00002d3c       ??_C@_03NAGEINEP@Tue@      10021d3c     libucrt:nlsdata.obj
 0002:00002d40       ??_C@_03MHOMLAJA@Wed@      10021d40     libucrt:nlsdata.obj
 0002:00002d44       ??_C@_03IOFIKPDN@Thu@      10021d44     libucrt:nlsdata.obj
 0002:00002d48       ??_C@_03IDIOELNC@Fri@      10021d48     libucrt:nlsdata.obj
 0002:00002d4c       ??_C@_03FEFJNEK@Sat@       10021d4c     libucrt:nlsdata.obj
 0002:00002d50       ??_C@_06OOPIFAJ@Sunday@    10021d50     libucrt:nlsdata.obj
 0002:00002d58       ??_C@_06JLEDEDGH@Monday@   10021d58     libucrt:nlsdata.obj
 0002:00002d60       ??_C@_07BAAGCFCM@Tuesday@  10021d60     libucrt:nlsdata.obj
 0002:00002d68       ??_C@_09DLIGFAKA@Wednesday@ 10021d68     libucrt:nlsdata.obj
 0002:00002d74       ??_C@_08HACCIKIA@Thursday@ 10021d74     libucrt:nlsdata.obj
 0002:00002d80       ??_C@_06JECMNKMI@Friday@   10021d80     libucrt:nlsdata.obj
 0002:00002d88       ??_C@_08INBOOONO@Saturday@ 10021d88     libucrt:nlsdata.obj
 0002:00002d94       ??_C@_03JIHJHPIE@Jan@      10021d94     libucrt:nlsdata.obj
 0002:00002d98       ??_C@_03HJBDCHOM@Feb@      10021d98     libucrt:nlsdata.obj
 0002:00002d9c       ??_C@_03ODNJBKGA@Mar@      10021d9c     libucrt:nlsdata.obj
 0002:00002da0       ??_C@_03LEOLGMJP@Apr@      10021da0     libucrt:nlsdata.obj
 0002:00002da4       ??_C@_03CNMDKL@May@        10021da4     libucrt:nlsdata.obj
 0002:00002da8       ??_C@_03IDFGHECI@Jun@      10021da8     libucrt:nlsdata.obj
 0002:00002dac       ??_C@_03LBGABGKK@Jul@      10021dac     libucrt:nlsdata.obj
 0002:00002db0       ??_C@_03IFJFEIGA@Aug@      10021db0     libucrt:nlsdata.obj
 0002:00002db4       ??_C@_03GGCAPAJC@Sep@      10021db4     libucrt:nlsdata.obj
 0002:00002db8       ??_C@_03BMAOKBAD@Oct@      10021db8     libucrt:nlsdata.obj
 0002:00002dbc       ??_C@_03JPJOFNIA@Nov@      10021dbc     libucrt:nlsdata.obj
 0002:00002dc0       ??_C@_03MKABNOCG@Dec@      10021dc0     libucrt:nlsdata.obj
 0002:00002dc4       ??_C@_07CGJPFGJA@January@  10021dc4     libucrt:nlsdata.obj
 0002:00002dcc       ??_C@_08GNJGEPFN@February@ 10021dcc     libucrt:nlsdata.obj
 0002:00002dd8       ??_C@_05HPCKOFNC@March@    10021dd8     libucrt:nlsdata.obj
 0002:00002de0       ??_C@_05DMJDNLEJ@April@    10021de0     libucrt:nlsdata.obj
 0002:00002de8       ??_C@_04CNLMGBGM@June@     10021de8     libucrt:nlsdata.obj
 0002:00002df0       ??_C@_04MIEPOIFP@July@     10021df0     libucrt:nlsdata.obj
 0002:00002df8       ??_C@_06LBBHFDDG@August@   10021df8     libucrt:nlsdata.obj
 0002:00002e00       ??_C@_09BHHEALKD@September@ 10021e00     libucrt:nlsdata.obj
 0002:00002e0c       ??_C@_07JJNFCEND@October@  10021e0c     libucrt:nlsdata.obj
 0002:00002e14       ??_C@_08HCHEGEOA@November@ 10021e14     libucrt:nlsdata.obj
 0002:00002e20       ??_C@_08EDHMEBNP@December@ 10021e20     libucrt:nlsdata.obj
 0002:00002e2c       ??_C@_02DEDBPAFC@AM@       10021e2c     libucrt:nlsdata.obj
 0002:00002e30       ??_C@_02CJNFDJBF@PM@       10021e30     libucrt:nlsdata.obj
 0002:00002e34       ??_C@_08BPBNCDIB@MM?1dd?1yy@ 10021e34     libucrt:nlsdata.obj
 0002:00002e40       ??_C@_0BE@CKGJFCPC@dddd?0?5MMMM?5dd?0?5yyyy@ 10021e40     libucrt:nlsdata.obj
 0002:00002e54       ??_C@_08JCCMCCIL@HH?3mm?3ss@ 10021e54     libucrt:nlsdata.obj
 0002:00002e60       ??_C@_17MBGCMIPB@?$AAS?$AAu?$AAn@ 10021e60     libucrt:nlsdata.obj
 0002:00002e68       ??_C@_17KBOMKBF@?$AAM?$AAo?$AAn@ 10021e68     libucrt:nlsdata.obj
 0002:00002e70       ??_C@_17BMKGEGOJ@?$AAT?$AAu?$AAe@ 10021e70     libucrt:nlsdata.obj
 0002:00002e78       ??_C@_17CJEDCEPE@?$AAW?$AAe?$AAd@ 10021e78     libucrt:nlsdata.obj
 0002:00002e80       ??_C@_17PDPHAADD@?$AAT?$AAh?$AAu@ 10021e80     libucrt:nlsdata.obj
 0002:00002e88       ??_C@_17HFOLPPLP@?$AAF?$AAr?$AAi@ 10021e88     libucrt:nlsdata.obj
 0002:00002e90       ??_C@_17GGIBDPIH@?$AAS?$AAa?$AAt@ 10021e90     libucrt:nlsdata.obj
 0002:00002e98       ??_C@_1O@IHNHDHPB@?$AAS?$AAu?$AAn?$AAd?$AAa?$AAy@ 10021e98     libucrt:nlsdata.obj
 0002:00002ea8       ??_C@_1O@MMNBFLIA@?$AAM?$AAo?$AAn?$AAd?$AAa?$AAy@ 10021ea8     libucrt:nlsdata.obj
 0002:00002eb8       ??_C@_1BA@ENFBFFEK@?$AAT?$AAu?$AAe?$AAs?$AAd?$AAa?$AAy@ 10021eb8     libucrt:nlsdata.obj
 0002:00002ec8       ??_C@_1BE@EBOGMDOH@?$AAW?$AAe?$AAd?$AAn?$AAe?$AAs?$AAd?$AAa?$AAy@ 10021ec8     libucrt:nlsdata.obj
 0002:00002edc       ??_C@_1BC@HHMNLIHE@?$AAT?$AAh?$AAu?$AAr?$AAs?$AAd?$AAa?$AAy@ 10021edc     libucrt:nlsdata.obj
 0002:00002ef0       ??_C@_1O@PDICJHAG@?$AAF?$AAr?$AAi?$AAd?$AAa?$AAy@ 10021ef0     libucrt:nlsdata.obj
 0002:00002f00       ??_C@_1BC@ENMNNPAJ@?$AAS?$AAa?$AAt?$AAu?$AAr?$AAd?$AAa?$AAy@ 10021f00     libucrt:nlsdata.obj
 0002:00002f14       ??_C@_17DKNBKCHM@?$AAJ?$AAa?$AAn@ 10021f14     libucrt:nlsdata.obj
 0002:00002f1c       ??_C@_17LMDJEKJN@?$AAF?$AAe?$AAb@ 10021f1c     libucrt:nlsdata.obj
 0002:00002f24       ??_C@_17CKNLEDEC@?$AAM?$AAa?$AAr@ 10021f24     libucrt:nlsdata.obj
 0002:00002f2c       ??_C@_17LFPOIHDD@?$AAA?$AAp?$AAr@ 10021f2c     libucrt:nlsdata.obj
 0002:00002f34       ??_C@_17PNNKMEED@?$AAM?$AAa?$AAy@ 10021f34     libucrt:nlsdata.obj
 0002:00002f3c       ??_C@_17KCJGOCPB@?$AAJ?$AAu?$AAn@ 10021f3c     libucrt:nlsdata.obj
 0002:00002f44       ??_C@_17IJPCKHK@?$AAJ?$AAu?$AAl@ 10021f44     libucrt:nlsdata.obj
 0002:00002f4c       ??_C@_17ICPELBCN@?$AAA?$AAu?$AAg@ 10021f4c     libucrt:nlsdata.obj
 0002:00002f54       ??_C@_17HCHCOKMG@?$AAS?$AAe?$AAp@ 10021f54     libucrt:nlsdata.obj
 0002:00002f5c       ??_C@_17FNLKOI@?$AAO?$AAc?$AAt@ 10021f5c     libucrt:nlsdata.obj
 0002:00002f64       ??_C@_17BBDMLCIG@?$AAN?$AAo?$AAv@ 10021f64     libucrt:nlsdata.obj
 0002:00002f6c       ??_C@_17EGKACKIF@?$AAD?$AAe?$AAc@ 10021f6c     libucrt:nlsdata.obj
 0002:00002f74       ??_C@_1BA@EFMEIEBA@?$AAJ?$AAa?$AAn?$AAu?$AAa?$AAr?$AAy@ 10021f74     libucrt:nlsdata.obj
 0002:00002f84       ??_C@_1BC@JGDDFFAM@?$AAF?$AAe?$AAb?$AAr?$AAu?$AAa?$AAr?$AAy@ 10021f84     libucrt:nlsdata.obj
 0002:00002f98       ??_C@_1M@IKEENEDF@?$AAM?$AAa?$AAr?$AAc?$AAh@ 10021f98     libucrt:nlsdata.obj
 0002:00002fa4       ??_C@_1M@GJNLMHFD@?$AAA?$AAp?$AAr?$AAi?$AAl@ 10021fa4     libucrt:nlsdata.obj
 0002:00002fb0       ??_C@_19EPFLPGAP@?$AAJ?$AAu?$AAn?$AAe@ 10021fb0     libucrt:nlsdata.obj
 0002:00002fbc       ??_C@_19BIFMLPCD@?$AAJ?$AAu?$AAl?$AAy@ 10021fbc     libucrt:nlsdata.obj
 0002:00002fc8       ??_C@_1O@PAHLKOAC@?$AAA?$AAu?$AAg?$AAu?$AAs?$AAt@ 10021fc8     libucrt:nlsdata.obj
 0002:00002fd8       ??_C@_1BE@DKAAMBJL@?$AAS?$AAe?$AAp?$AAt?$AAe?$AAm?$AAb?$AAe?$AAr@ 10021fd8     libucrt:nlsdata.obj
 0002:00002fec       ??_C@_1BA@EPANDLNG@?$AAO?$AAc?$AAt?$AAo?$AAb?$AAe?$AAr@ 10021fec     libucrt:nlsdata.obj
 0002:00002ffc       ??_C@_1BC@BGLIFPF@?$AAN?$AAo?$AAv?$AAe?$AAm?$AAb?$AAe?$AAr@ 10021ffc     libucrt:nlsdata.obj
 0002:00003010       ??_C@_1BC@FEMKIFH@?$AAD?$AAe?$AAc?$AAe?$AAm?$AAb?$AAe?$AAr@ 10022010     libucrt:nlsdata.obj
 0002:00003024       ??_C@_15ODEHAHHF@?$AAA?$AAM@ 10022024     libucrt:nlsdata.obj
 0002:0000302c       ??_C@_15CLMNNGEL@?$AAP?$AAM@ 1002202c     libucrt:nlsdata.obj
 0002:00003034       ??_C@_1BC@IEBCMHCM@?$AAM?$AAM?$AA?1?$AAd?$AAd?$AA?1?$AAy?$AAy@ 10022034     libucrt:nlsdata.obj
 0002:00003048       ??_C@_1CI@KNAKOEBC@?$AAd?$AAd?$AAd?$AAd?$AA?0?$AA?5?$AAM?$AAM?$AAM?$AAM?$AA?5?$AAd?$AAd?$AA?0?$AA?5@ 10022048     libucrt:nlsdata.obj
 0002:00003070       ??_C@_1BC@GDGBMEMK@?$AAH?$AAH?$AA?3?$AAm?$AAm?$AA?3?$AAs?$AAs@ 10022070     libucrt:nlsdata.obj
 0002:00003084       ??_C@_1M@BMHNFIME@?$AAe?$AAn?$AA?9?$AAU?$AAS@ 10022084     libucrt:nlsdata.obj
 0002:000030a0       ??_C@_1M@HPNHIDJI@?$AAj?$AAa?$AA?9?$AAJ?$AAP@ 100220a0     libucrt:mbctype.obj
 0002:000030ac       ??_C@_1M@BIBDDEMK@?$AAz?$AAh?$AA?9?$AAC?$AAN@ 100220ac     libucrt:mbctype.obj
 0002:000030b8       ??_C@_1M@JLOOOEGK@?$AAk?$AAo?$AA?9?$AAK?$AAR@ 100220b8     libucrt:mbctype.obj
 0002:000030c4       ??_C@_1M@CLNBBOPM@?$AAz?$AAh?$AA?9?$AAT?$AAW@ 100220c4     libucrt:mbctype.obj
 0002:000030d0       ___newctype                100220d0     libucrt:ctype.obj
 0002:000033d0       ___newclmap                100223d0     libucrt:ctype.obj
 0002:00003550       ___newcumap                10022550     libucrt:ctype.obj
 0002:000036d0       __wctype                   100226d0     libucrt:ctype.obj
 0002:00003ff8       ??_C@_15EMKDOKLE@?$AAa?$AAr@ 10022ff8     libucrt:lcidtoname_downlevel.obj
 0002:00004000       ??_C@_15KNPADPLH@?$AAb?$AAg@ 10023000     libucrt:lcidtoname_downlevel.obj
 0002:00004008       ??_C@_15EDMHLDMO@?$AAc?$AAa@ 10023008     libucrt:lcidtoname_downlevel.obj
 0002:00004010       ??_C@_1O@BPEAJADD@?$AAz?$AAh?$AA?9?$AAC?$AAH?$AAS@ 10023010     libucrt:lcidtoname_downlevel.obj
 0002:00004020       ??_C@_15LJNHCMNK@?$AAc?$AAs@ 10023020     libucrt:lcidtoname_downlevel.obj
 0002:00004028       ??_C@_15FOMCIDHG@?$AAd?$AAa@ 10023028     libucrt:lcidtoname_downlevel.obj
 0002:00004030       ??_C@_15NBKABECB@?$AAd?$AAe@ 10023030     libucrt:lcidtoname_downlevel.obj
 0002:00004038       ??_C@_15GHPEIIAO@?$AAe?$AAl@ 10023038     libucrt:lcidtoname_downlevel.obj
 0002:00004040       ??_C@_15MNPNEAIF@?$AAe?$AAn@ 10023040     libucrt:lcidtoname_downlevel.obj
 0002:00004048       ??_C@_15GPIOMPMH@?$AAe?$AAs@ 10023048     libucrt:lcidtoname_downlevel.obj
 0002:00004050       ??_C@_15NGLOAKJC@?$AAf?$AAi@ 10023050     libucrt:lcidtoname_downlevel.obj
 0002:00004058       ??_C@_15FBKGNKAM@?$AAf?$AAr@ 10023058     libucrt:lcidtoname_downlevel.obj
 0002:00004060       ??_C@_15KGGCNEFK@?$AAh?$AAe@ 10023060     libucrt:lcidtoname_downlevel.obj
 0002:00004068       ??_C@_15PGHLIDMF@?$AAh?$AAu@ 10023068     libucrt:lcidtoname_downlevel.obj
 0002:00004070       ??_C@_15BIEMAPLM@?$AAi?$AAs@ 10023070     libucrt:lcidtoname_downlevel.obj
 0002:00004078       ??_C@_15IFJLDHAF@?$AAi?$AAt@ 10023078     libucrt:lcidtoname_downlevel.obj
 0002:00004080       ??_C@_15GEMIOCAG@?$AAj?$AAa@ 10023080     libucrt:lcidtoname_downlevel.obj
 0002:00004088       ??_C@_15EPELEGJA@?$AAk?$AAo@ 10023088     libucrt:lcidtoname_downlevel.obj
 0002:00004090       ??_C@_15NDDHIMN@?$AAn?$AAl@ 10023090     libucrt:lcidtoname_downlevel.obj
 0002:00004098       ??_C@_15BPIGNHCD@?$AAn?$AAo@ 10023098     libucrt:lcidtoname_downlevel.obj
 0002:000040a0       ??_C@_15DEOPBLCG@?$AAp?$AAl@ 100230a0     libucrt:lcidtoname_downlevel.obj
 0002:000040a8       ??_C@_15KBECGEFG@?$AAp?$AAt@ 100230a8     libucrt:lcidtoname_downlevel.obj
 0002:000040b0       ??_C@_15GLJCBFMD@?$AAr?$AAo@ 100230b0     libucrt:lcidtoname_downlevel.obj
 0002:000040b8       ??_C@_15FEDGKCDI@?$AAr?$AAu@ 100230b8     libucrt:lcidtoname_downlevel.obj
 0002:000040c0       ??_C@_15GLKMLLHM@?$AAh?$AAr@ 100230c0     libucrt:lcidtoname_downlevel.obj
 0002:000040c8       ??_C@_15CPKMFBDB@?$AAs?$AAk@ 100230c8     libucrt:lcidtoname_downlevel.obj
 0002:000040d0       ??_C@_15BAAIOGMK@?$AAs?$AAq@ 100230d0     libucrt:lcidtoname_downlevel.obj
 0002:000040d8       ??_C@_15INNPNOHD@?$AAs?$AAv@ 100230d8     libucrt:lcidtoname_downlevel.obj
 0002:000040e0       ??_C@_15CABMMOGH@?$AAt?$AAh@ 100230e0     libucrt:lcidtoname_downlevel.obj
 0002:000040e8       ??_C@_15BPLIHJJM@?$AAt?$AAr@ 100230e8     libucrt:lcidtoname_downlevel.obj
 0002:000040f0       ??_C@_15NEOEKKDJ@?$AAu?$AAr@ 100230f0     libucrt:lcidtoname_downlevel.obj
 0002:000040f8       ??_C@_15NFICGAJK@?$AAi?$AAd@ 100230f8     libucrt:lcidtoname_downlevel.obj
 0002:00004100       ??_C@_15PJPFLCCM@?$AAu?$AAk@ 10023100     libucrt:lcidtoname_downlevel.obj
 0002:00004108       ??_C@_15HPJPHDM@?$AAb?$AAe@ 10023108     libucrt:lcidtoname_downlevel.obj
 0002:00004110       ??_C@_15LCHLGJII@?$AAs?$AAl@ 10023110     libucrt:lcidtoname_downlevel.obj
 0002:00004118       ??_C@_15PCFJPHHO@?$AAe?$AAt@ 10023118     libucrt:lcidtoname_downlevel.obj
 0002:00004120       ??_C@_15HPFPGODN@?$AAl?$AAv@ 10023120     libucrt:lcidtoname_downlevel.obj
 0002:00004128       ??_C@_15NFFGKGLG@?$AAl?$AAt@ 10023128     libucrt:lcidtoname_downlevel.obj
 0002:00004130       ??_C@_15BDAKCCHN@?$AAf?$AAa@ 10023130     libucrt:lcidtoname_downlevel.obj
 0002:00004138       ??_C@_15NFGIAIAJ@?$AAv?$AAi@ 10023138     libucrt:lcidtoname_downlevel.obj
 0002:00004140       ??_C@_15LMKNDMHN@?$AAh?$AAy@ 10023140     libucrt:lcidtoname_downlevel.obj
 0002:00004148       ??_C@_15IJBHMCFL@?$AAa?$AAz@ 10023148     libucrt:lcidtoname_downlevel.obj
 0002:00004150       ??_C@_15EKOFJABL@?$AAe?$AAu@ 10023150     libucrt:lcidtoname_downlevel.obj
 0002:00004158       ??_C@_15BGHADCNK@?$AAm?$AAk@ 10023158     libucrt:lcidtoname_downlevel.obj
 0002:00004160       ??_C@_15JDNICKHM@?$AAa?$AAf@ 10023160     libucrt:lcidtoname_downlevel.obj
 0002:00004168       ??_C@_15KPJEDBKD@?$AAk?$AAa@ 10023168     libucrt:lcidtoname_downlevel.obj
 0002:00004170       ??_C@_15PDNFFFEO@?$AAf?$AAo@ 10023170     libucrt:lcidtoname_downlevel.obj
 0002:00004178       ??_C@_15OMLEGLOC@?$AAh?$AAi@ 10023178     libucrt:lcidtoname_downlevel.obj
 0002:00004180       ??_C@_15IDNNENKK@?$AAm?$AAs@ 10023180     libucrt:lcidtoname_downlevel.obj
 0002:00004188       ??_C@_15MACJNBMH@?$AAk?$AAk@ 10023188     libucrt:lcidtoname_downlevel.obj
 0002:00004190       ??_C@_15DKDJEOND@?$AAk?$AAy@ 10023190     libucrt:lcidtoname_downlevel.obj
 0002:00004198       ??_C@_15DFGDLJBG@?$AAs?$AAw@ 10023198     libucrt:lcidtoname_downlevel.obj
 0002:000041a0       ??_C@_15BBFAICNG@?$AAu?$AAz@ 100231a0     libucrt:lcidtoname_downlevel.obj
 0002:000041a8       ??_C@_15DKNDCGEA@?$AAt?$AAt@ 100231a8     libucrt:lcidtoname_downlevel.obj
 0002:000041b0       ??_C@_15MGIFMDPL@?$AAp?$AAa@ 100231b0     libucrt:lcidtoname_downlevel.obj
 0002:000041b8       ??_C@_15HCNDBBA@?$AAg?$AAu@ 100231b8     libucrt:lcidtoname_downlevel.obj
 0002:000041c0       ??_C@_15FNBEIBON@?$AAt?$AAa@ 100231c0     libucrt:lcidtoname_downlevel.obj
 0002:000041c8       ??_C@_15NCHGBGLK@?$AAt?$AAe@ 100231c8     libucrt:lcidtoname_downlevel.obj
 0002:000041d0       ??_C@_15PHPHCBPF@?$AAk?$AAn@ 100231d0     libucrt:lcidtoname_downlevel.obj
 0002:000041d8       ??_C@_15DLGBCKMP@?$AAm?$AAr@ 100231d8     libucrt:lcidtoname_downlevel.obj
 0002:000041e0       ??_C@_15EABBLBFF@?$AAs?$AAa@ 100231e0     libucrt:lcidtoname_downlevel.obj
 0002:000041e8       ??_C@_15CBKOMCOI@?$AAm?$AAn@ 100231e8     libucrt:lcidtoname_downlevel.obj
 0002:000041f0       ??_C@_15CKDMCJAF@?$AAg?$AAl@ 100231f0     libucrt:lcidtoname_downlevel.obj
 0002:000041f8       ??_C@_17CNJFBPG@?$AAk?$AAo?$AAk@ 100231f8     libucrt:lcidtoname_downlevel.obj
 0002:00004200       ??_C@_17FFBJICPL@?$AAs?$AAy?$AAr@ 10023200     libucrt:lcidtoname_downlevel.obj
 0002:00004208       ??_C@_17KPNDCPAF@?$AAd?$AAi?$AAv@ 10023208     libucrt:lcidtoname_downlevel.obj
 0002:00004210       ??_C@_1M@OKAHONE@?$AAa?$AAr?$AA?9?$AAS?$AAA@ 10023210     libucrt:lcidtoname_downlevel.obj
 0002:0000421c       ??_C@_1M@FFFIGIGK@?$AAb?$AAg?$AA?9?$AAB?$AAG@ 1002321c     libucrt:lcidtoname_downlevel.obj
 0002:00004228       ??_C@_1M@BJNKEDC@?$AAc?$AAa?$AA?9?$AAE?$AAS@ 10023228     libucrt:lcidtoname_downlevel.obj
 0002:00004234       ??_C@_1M@IJJHFJHA@?$AAc?$AAs?$AA?9?$AAC?$AAZ@ 10023234     libucrt:lcidtoname_downlevel.obj
 0002:00004240       ??_C@_1M@CLPEOBGI@?$AAd?$AAa?$AA?9?$AAD?$AAK@ 10023240     libucrt:lcidtoname_downlevel.obj
 0002:0000424c       ??_C@_1M@MCMADGCB@?$AAd?$AAe?$AA?9?$AAD?$AAE@ 1002324c     libucrt:lcidtoname_downlevel.obj
 0002:00004258       ??_C@_1M@OOCKEMAM@?$AAe?$AAl?$AA?9?$AAG?$AAR@ 10023258     libucrt:lcidtoname_downlevel.obj
 0002:00004264       ??_C@_1M@DDNJFGID@?$AAf?$AAi?$AA?9?$AAF?$AAI@ 10023264     libucrt:lcidtoname_downlevel.obj
 0002:00004270       ??_C@_1M@GLIPPMAC@?$AAf?$AAr?$AA?9?$AAF?$AAR@ 10023270     libucrt:lcidtoname_downlevel.obj
 0002:0000427c       ??_C@_1M@GFMCHPE@?$AAh?$AAe?$AA?9?$AAI?$AAL@ 1002327c     libucrt:lcidtoname_downlevel.obj
 0002:00004288       ??_C@_1M@MHLPGNKM@?$AAh?$AAu?$AA?9?$AAH?$AAU@ 10023288     libucrt:lcidtoname_downlevel.obj
 0002:00004294       ??_C@_1M@LPDDNNPN@?$AAi?$AAs?$AA?9?$AAI?$AAS@ 10023294     libucrt:lcidtoname_downlevel.obj
 0002:000042a0       ??_C@_1M@MADIPODN@?$AAi?$AAt?$AA?9?$AAI?$AAT@ 100232a0     libucrt:lcidtoname_downlevel.obj
 0002:000042ac       ??_C@_1M@IHBJJGG@?$AAn?$AAl?$AA?9?$AAN?$AAL@ 100232ac     libucrt:lcidtoname_downlevel.obj
 0002:000042b8       ??_C@_1M@EANAGDL@?$AAn?$AAb?$AA?9?$AAN?$AAO@ 100232b8     libucrt:lcidtoname_downlevel.obj
 0002:000042c4       ??_C@_1M@NEIEMEGP@?$AAp?$AAl?$AA?9?$AAP?$AAL@ 100232c4     libucrt:lcidtoname_downlevel.obj
 0002:000042d0       ??_C@_1M@BOCFIGEP@?$AAp?$AAt?$AA?9?$AAB?$AAR@ 100232d0     libucrt:lcidtoname_downlevel.obj
 0002:000042dc       ??_C@_1M@IMPFOPBG@?$AAr?$AAo?$AA?9?$AAR?$AAO@ 100232dc     libucrt:lcidtoname_downlevel.obj
 0002:000042e8       ??_C@_1M@IDNNEJMM@?$AAr?$AAu?$AA?9?$AAR?$AAU@ 100232e8     libucrt:lcidtoname_downlevel.obj
 0002:000042f4       ??_C@_1M@LILEEOGM@?$AAh?$AAr?$AA?9?$AAH?$AAR@ 100232f4     libucrt:lcidtoname_downlevel.obj
 0002:00004300       ??_C@_1M@FKIFEHPB@?$AAs?$AAk?$AA?9?$AAS?$AAK@ 10023300     libucrt:lcidtoname_downlevel.obj
 0002:0000430c       ??_C@_1M@LJMAMNPJ@?$AAs?$AAq?$AA?9?$AAA?$AAL@ 1002330c     libucrt:lcidtoname_downlevel.obj
 0002:00004318       ??_C@_1M@GIAKDKJK@?$AAs?$AAv?$AA?9?$AAS?$AAE@ 10023318     libucrt:lcidtoname_downlevel.obj
 0002:00004324       ??_C@_1M@MKJKIKCL@?$AAt?$AAh?$AA?9?$AAT?$AAH@ 10023324     libucrt:lcidtoname_downlevel.obj
 0002:00004330       ??_C@_1M@MFLCCMPB@?$AAt?$AAr?$AA?9?$AAT?$AAR@ 10023330     libucrt:lcidtoname_downlevel.obj
 0002:0000433c       ??_C@_1M@OIJHDKJN@?$AAu?$AAr?$AA?9?$AAP?$AAK@ 1002333c     libucrt:lcidtoname_downlevel.obj
 0002:00004348       ??_C@_1M@LHIPCIEK@?$AAi?$AAd?$AA?9?$AAI?$AAD@ 10023348     libucrt:lcidtoname_downlevel.obj
 0002:00004354       ??_C@_1M@MFMOBGI@?$AAu?$AAk?$AA?9?$AAU?$AAA@ 10023354     libucrt:lcidtoname_downlevel.obj
 0002:00004360       ??_C@_1M@OBGLJIPL@?$AAb?$AAe?$AA?9?$AAB?$AAY@ 10023360     libucrt:lcidtoname_downlevel.obj
 0002:0000436c       ??_C@_1M@BCFAJEAD@?$AAs?$AAl?$AA?9?$AAS?$AAI@ 1002336c     libucrt:lcidtoname_downlevel.obj
 0002:00004378       ??_C@_1M@FKFFEDDN@?$AAe?$AAt?$AA?9?$AAE?$AAE@ 10023378     libucrt:lcidtoname_downlevel.obj
 0002:00004384       ??_C@_1M@KGKKAACI@?$AAl?$AAv?$AA?9?$AAL?$AAV@ 10023384     libucrt:lcidtoname_downlevel.obj
 0002:00004390       ??_C@_1M@IFGBIJO@?$AAl?$AAt?$AA?9?$AAL?$AAT@ 10023390     libucrt:lcidtoname_downlevel.obj
 0002:0000439c       ??_C@_1M@FGEAHEDM@?$AAf?$AAa?$AA?9?$AAI?$AAR@ 1002339c     libucrt:lcidtoname_downlevel.obj
 0002:000043a8       ??_C@_1M@KBMAIBFN@?$AAv?$AAi?$AA?9?$AAV?$AAN@ 100233a8     libucrt:lcidtoname_downlevel.obj
 0002:000043b4       ??_C@_1M@GPCBKDJK@?$AAh?$AAy?$AA?9?$AAA?$AAM@ 100233b4     libucrt:lcidtoname_downlevel.obj
 0002:000043c0       ??_C@_1BG@BECMDDJB@?$AAa?$AAz?$AA?9?$AAA?$AAZ?$AA?9?$AAL?$AAa?$AAt?$AAn@ 100233c0     libucrt:lcidtoname_downlevel.obj
 0002:000043d8       ??_C@_1M@MAOFCAEA@?$AAe?$AAu?$AA?9?$AAE?$AAS@ 100233d8     libucrt:lcidtoname_downlevel.obj
 0002:000043e4       ??_C@_1M@IGHABKPI@?$AAm?$AAk?$AA?9?$AAM?$AAK@ 100233e4     libucrt:lcidtoname_downlevel.obj
 0002:000043f0       ??_C@_1M@IAIGNEJG@?$AAt?$AAn?$AA?9?$AAZ?$AAA@ 100233f0     libucrt:lcidtoname_downlevel.obj
 0002:000043fc       ??_C@_1M@IIJCOJFA@?$AAx?$AAh?$AA?9?$AAZ?$AAA@ 100233fc     libucrt:lcidtoname_downlevel.obj
 0002:00004408       ??_C@_1M@LGPJHNJH@?$AAz?$AAu?$AA?9?$AAZ?$AAA@ 10023408     libucrt:lcidtoname_downlevel.obj
 0002:00004414       ??_C@_1M@HOKAOIO@?$AAa?$AAf?$AA?9?$AAZ?$AAA@ 10023414     libucrt:lcidtoname_downlevel.obj
 0002:00004420       ??_C@_1M@DPCLHLIE@?$AAk?$AAa?$AA?9?$AAG?$AAE@ 10023420     libucrt:lcidtoname_downlevel.obj
 0002:0000442c       ??_C@_1M@BLKMHJBI@?$AAf?$AAo?$AA?9?$AAF?$AAO@ 1002342c     libucrt:lcidtoname_downlevel.obj
 0002:00004438       ??_C@_1M@LGGJAPPB@?$AAh?$AAi?$AA?9?$AAI?$AAN@ 10023438     libucrt:lcidtoname_downlevel.obj
 0002:00004444       ??_C@_1M@FIKPIHFE@?$AAm?$AAt?$AA?9?$AAM?$AAT@ 10023444     libucrt:lcidtoname_downlevel.obj
 0002:00004450       ??_C@_1M@HEGGPBFA@?$AAs?$AAe?$AA?9?$AAN?$AAO@ 10023450     libucrt:lcidtoname_downlevel.obj
 0002:0000445c       ??_C@_1M@EIBJEEPA@?$AAm?$AAs?$AA?9?$AAM?$AAY@ 1002345c     libucrt:lcidtoname_downlevel.obj
 0002:00004468       ??_C@_1M@FHLBGMPP@?$AAk?$AAk?$AA?9?$AAK?$AAZ@ 10023468     libucrt:lcidtoname_downlevel.obj
 0002:00004474       ??_C@_1M@NGJJLCGI@?$AAk?$AAy?$AA?9?$AAK?$AAG@ 10023474     libucrt:lcidtoname_downlevel.obj
 0002:00004480       ??_C@_1M@GIENNBFC@?$AAs?$AAw?$AA?9?$AAK?$AAE@ 10023480     libucrt:lcidtoname_downlevel.obj
 0002:0000448c       ??_C@_1BG@NDGMJIMJ@?$AAu?$AAz?$AA?9?$AAU?$AAZ?$AA?9?$AAL?$AAa?$AAt?$AAn@ 1002348c     libucrt:lcidtoname_downlevel.obj
 0002:000044a4       ??_C@_1M@IDCCIHBC@?$AAt?$AAt?$AA?9?$AAR?$AAU@ 100234a4     libucrt:lcidtoname_downlevel.obj
 0002:000044b0       ??_C@_1M@LOICPMOJ@?$AAb?$AAn?$AA?9?$AAI?$AAN@ 100234b0     libucrt:lcidtoname_downlevel.obj
 0002:000044bc       ??_C@_1M@KPKKNEAH@?$AAp?$AAa?$AA?9?$AAI?$AAN@ 100234bc     libucrt:lcidtoname_downlevel.obj
 0002:000044c8       ??_C@_1M@PJGPPBOG@?$AAg?$AAu?$AA?9?$AAI?$AAN@ 100234c8     libucrt:lcidtoname_downlevel.obj
 0002:000044d4       ??_C@_1M@KMKMOPHI@?$AAt?$AAa?$AA?9?$AAI?$AAN@ 100234d4     libucrt:lcidtoname_downlevel.obj
 0002:000044e0       ??_C@_1M@KFEHEPAC@?$AAt?$AAe?$AA?9?$AAI?$AAN@ 100234e0     libucrt:lcidtoname_downlevel.obj
 0002:000044ec       ??_C@_1M@CDCLMGHI@?$AAk?$AAn?$AA?9?$AAI?$AAN@ 100234ec     libucrt:lcidtoname_downlevel.obj
 0002:000044f8       ??_C@_1M@MIODLDKF@?$AAm?$AAl?$AA?9?$AAI?$AAN@ 100234f8     libucrt:lcidtoname_downlevel.obj
 0002:00004504       ??_C@_1M@PBIEACPO@?$AAm?$AAr?$AA?9?$AAI?$AAN@ 10023504     libucrt:lcidtoname_downlevel.obj
 0002:00004510       ??_C@_1M@NIDEAGPH@?$AAs?$AAa?$AA?9?$AAI?$AAN@ 10023510     libucrt:lcidtoname_downlevel.obj
 0002:0000451c       ??_C@_1M@FHIHCBIO@?$AAm?$AAn?$AA?9?$AAM?$AAN@ 1002351c     libucrt:lcidtoname_downlevel.obj
 0002:00004528       ??_C@_1M@JAIJPENP@?$AAc?$AAy?$AA?9?$AAG?$AAB@ 10023528     libucrt:lcidtoname_downlevel.obj
 0002:00004534       ??_C@_1M@PHGFBEPN@?$AAg?$AAl?$AA?9?$AAE?$AAS@ 10023534     libucrt:lcidtoname_downlevel.obj
 0002:00004540       ??_C@_1O@KPIPDNCP@?$AAk?$AAo?$AAk?$AA?9?$AAI?$AAN@ 10023540     libucrt:lcidtoname_downlevel.obj
 0002:00004550       ??_C@_1O@KNHJLDJA@?$AAs?$AAy?$AAr?$AA?9?$AAS?$AAY@ 10023550     libucrt:lcidtoname_downlevel.obj
 0002:00004560       ??_C@_1O@MKEKBLAH@?$AAd?$AAi?$AAv?$AA?9?$AAM?$AAV@ 10023560     libucrt:lcidtoname_downlevel.obj
 0002:00004570       ??_C@_1O@OHDCKDDF@?$AAq?$AAu?$AAz?$AA?9?$AAB?$AAO@ 10023570     libucrt:lcidtoname_downlevel.obj
 0002:00004580       ??_C@_1M@LEPJNLFD@?$AAn?$AAs?$AA?9?$AAZ?$AAA@ 10023580     libucrt:lcidtoname_downlevel.obj
 0002:0000458c       ??_C@_1M@OMLEIIJB@?$AAm?$AAi?$AA?9?$AAN?$AAZ@ 1002358c     libucrt:lcidtoname_downlevel.obj
 0002:00004598       ??_C@_1M@PMPEAILG@?$AAa?$AAr?$AA?9?$AAI?$AAQ@ 10023598     libucrt:lcidtoname_downlevel.obj
 0002:000045a4       ??_C@_1M@CNKPNOEE@?$AAd?$AAe?$AA?9?$AAC?$AAH@ 100235a4     libucrt:lcidtoname_downlevel.obj
 0002:000045b0       ??_C@_1M@LKMGMLKO@?$AAe?$AAn?$AA?9?$AAG?$AAB@ 100235b0     libucrt:lcidtoname_downlevel.obj
 0002:000045bc       ??_C@_1M@PGKJFFGL@?$AAe?$AAs?$AA?9?$AAM?$AAX@ 100235bc     libucrt:lcidtoname_downlevel.obj
 0002:000045c8       ??_C@_1M@DNNANBDC@?$AAf?$AAr?$AA?9?$AAB?$AAE@ 100235c8     libucrt:lcidtoname_downlevel.obj
 0002:000045d4       ??_C@_1M@HLGMDFHM@?$AAi?$AAt?$AA?9?$AAC?$AAH@ 100235d4     libucrt:lcidtoname_downlevel.obj
 0002:000045e0       ??_C@_1M@CLLBGJH@?$AAn?$AAl?$AA?9?$AAB?$AAE@ 100235e0     libucrt:lcidtoname_downlevel.obj
 0002:000045ec       ??_C@_1M@BODBOGLF@?$AAn?$AAn?$AA?9?$AAN?$AAO@ 100235ec     libucrt:lcidtoname_downlevel.obj
 0002:000045f8       ??_C@_1M@HFFAHKAD@?$AAp?$AAt?$AA?9?$AAP?$AAT@ 100235f8     libucrt:lcidtoname_downlevel.obj
 0002:00004604       ??_C@_1BG@LNOAKHIE@?$AAs?$AAr?$AA?9?$AAS?$AAP?$AA?9?$AAL?$AAa?$AAt?$AAn@ 10023604     libucrt:lcidtoname_downlevel.obj
 0002:0000461c       ??_C@_1M@HBMHBGAK@?$AAs?$AAv?$AA?9?$AAF?$AAI@ 1002361c     libucrt:lcidtoname_downlevel.obj
 0002:00004628       ??_C@_1BG@DGCJGJBE@?$AAa?$AAz?$AA?9?$AAA?$AAZ?$AA?9?$AAC?$AAy?$AAr?$AAl@ 10023628     libucrt:lcidtoname_downlevel.obj
 0002:00004640       ??_C@_1M@KEJDAAHB@?$AAs?$AAe?$AA?9?$AAS?$AAE@ 10023640     libucrt:lcidtoname_downlevel.obj
 0002:0000464c       ??_C@_1M@HEIBJJAD@?$AAm?$AAs?$AA?9?$AAB?$AAN@ 1002364c     libucrt:lcidtoname_downlevel.obj
 0002:00004658       ??_C@_1BG@PBGJMCEM@?$AAu?$AAz?$AA?9?$AAU?$AAZ?$AA?9?$AAC?$AAy?$AAr?$AAl@ 10023658     libucrt:lcidtoname_downlevel.obj
 0002:00004670       ??_C@_1O@LAOBCMDF@?$AAq?$AAu?$AAz?$AA?9?$AAE?$AAC@ 10023670     libucrt:lcidtoname_downlevel.obj
 0002:00004680       ??_C@_1M@POEEMAIO@?$AAa?$AAr?$AA?9?$AAE?$AAG@ 10023680     libucrt:lcidtoname_downlevel.obj
 0002:0000468c       ??_C@_1M@EFAKDEDL@?$AAz?$AAh?$AA?9?$AAH?$AAK@ 1002368c     libucrt:lcidtoname_downlevel.obj
 0002:00004698       ??_C@_1M@HKKIJHGI@?$AAd?$AAe?$AA?9?$AAA?$AAT@ 10023698     libucrt:lcidtoname_downlevel.obj
 0002:000046a4       ??_C@_1M@KBFBEHJF@?$AAe?$AAn?$AA?9?$AAA?$AAU@ 100236a4     libucrt:lcidtoname_downlevel.obj
 0002:000046b0       ??_C@_1M@MNPLFAAH@?$AAe?$AAs?$AA?9?$AAE?$AAS@ 100236b0     libucrt:lcidtoname_downlevel.obj
 0002:000046bc       ??_C@_1M@HJOOJFMA@?$AAf?$AAr?$AA?9?$AAC?$AAA@ 100236bc     libucrt:lcidtoname_downlevel.obj
 0002:000046c8       ??_C@_1BG@JPOFPNAB@?$AAs?$AAr?$AA?9?$AAS?$AAP?$AA?9?$AAC?$AAy?$AAr?$AAl@ 100236c8     libucrt:lcidtoname_downlevel.obj
 0002:000046e0       ??_C@_1M@LNFOCMOB@?$AAs?$AAe?$AA?9?$AAF?$AAI@ 100236e0     libucrt:lcidtoname_downlevel.obj
 0002:000046ec       ??_C@_1O@MGJBOAMB@?$AAq?$AAu?$AAz?$AA?9?$AAP?$AAE@ 100236ec     libucrt:lcidtoname_downlevel.obj
 0002:000046fc       ??_C@_1M@GJINLBOK@?$AAa?$AAr?$AA?9?$AAL?$AAY@ 100236fc     libucrt:lcidtoname_downlevel.obj
 0002:00004708       ??_C@_1M@GGMNHJNL@?$AAz?$AAh?$AA?9?$AAS?$AAG@ 10023708     libucrt:lcidtoname_downlevel.obj
 0002:00004714       ??_C@_1M@HOIKODND@?$AAd?$AAe?$AA?9?$AAL?$AAU@ 10023714     libucrt:lcidtoname_downlevel.obj
 0002:00004720       ??_C@_1M@DDOCCGFG@?$AAe?$AAn?$AA?9?$AAC?$AAA@ 10023720     libucrt:lcidtoname_downlevel.obj
 0002:0000472c       ??_C@_1M@BNOEMJLF@?$AAe?$AAs?$AA?9?$AAG?$AAT@ 1002372c     libucrt:lcidtoname_downlevel.obj
 0002:00004738       ??_C@_1M@EOGNKEK@?$AAf?$AAr?$AA?9?$AAC?$AAH@ 10023738     libucrt:lcidtoname_downlevel.obj
 0002:00004744       ??_C@_1M@FLIDJFHL@?$AAh?$AAr?$AA?9?$AAB?$AAA@ 10023744     libucrt:lcidtoname_downlevel.obj
 0002:00004750       ??_C@_1O@FMCELNAJ@?$AAs?$AAm?$AAj?$AA?9?$AAN?$AAO@ 10023750     libucrt:lcidtoname_downlevel.obj
 0002:00004760       ??_C@_1M@JHGLJMGJ@?$AAa?$AAr?$AA?9?$AAD?$AAZ@ 10023760     libucrt:lcidtoname_downlevel.obj
 0002:0000476c       ??_C@_1M@JKKFDCNP@?$AAz?$AAh?$AA?9?$AAM?$AAO@ 1002376c     libucrt:lcidtoname_downlevel.obj
 0002:00004778       ??_C@_1M@GEEFALPE@?$AAd?$AAe?$AA?9?$AAL?$AAI@ 10023778     libucrt:lcidtoname_downlevel.obj
 0002:00004784       ??_C@_1M@IGEOFBG@?$AAe?$AAn?$AA?9?$AAN?$AAZ@ 10023784     libucrt:lcidtoname_downlevel.obj
 0002:00004790       ??_C@_1M@KDBONEHP@?$AAe?$AAs?$AA?9?$AAC?$AAR@ 10023790     libucrt:lcidtoname_downlevel.obj
 0002:0000479c       ??_C@_1M@FHMDOHNN@?$AAf?$AAr?$AA?9?$AAL?$AAU@ 1002379c     libucrt:lcidtoname_downlevel.obj
 0002:000047a8       ??_C@_1BG@NFKKMAFG@?$AAb?$AAs?$AA?9?$AAB?$AAA?$AA?9?$AAL?$AAa?$AAt?$AAn@ 100237a8     libucrt:lcidtoname_downlevel.obj
 0002:000047c0       ??_C@_1O@IMNBEMCI@?$AAs?$AAm?$AAj?$AA?9?$AAS?$AAE@ 100237c0     libucrt:lcidtoname_downlevel.obj
 0002:000047d0       ??_C@_1M@DHHMBNDP@?$AAa?$AAr?$AA?9?$AAM?$AAA@ 100237d0     libucrt:lcidtoname_downlevel.obj
 0002:000047dc       ??_C@_1M@BNBLJCGH@?$AAe?$AAn?$AA?9?$AAI?$AAE@ 100237dc     libucrt:lcidtoname_downlevel.obj
 0002:000047e8       ??_C@_1M@GEPAFMDL@?$AAe?$AAs?$AA?9?$AAP?$AAA@ 100237e8     libucrt:lcidtoname_downlevel.obj
 0002:000047f4       ??_C@_1M@OJONDMDL@?$AAf?$AAr?$AA?9?$AAM?$AAC@ 100237f4     libucrt:lcidtoname_downlevel.obj
 0002:00004800       ??_C@_1BG@OBCNFJB@?$AAs?$AAr?$AA?9?$AAB?$AAA?$AA?9?$AAL?$AAa?$AAt?$AAn@ 10023800     libucrt:lcidtoname_downlevel.obj
 0002:00004818       ??_C@_1O@KEMEEGPO@?$AAs?$AAm?$AAa?$AA?9?$AAN?$AAO@ 10023818     libucrt:lcidtoname_downlevel.obj
 0002:00004828       ??_C@_1M@ELMGFODK@?$AAa?$AAr?$AA?9?$AAT?$AAN@ 10023828     libucrt:lcidtoname_downlevel.obj
 0002:00004834       ??_C@_1M@BHDLHFAF@?$AAe?$AAn?$AA?9?$AAZ?$AAA@ 10023834     libucrt:lcidtoname_downlevel.obj
 0002:00004840       ??_C@_1M@BMGIGLIF@?$AAe?$AAs?$AA?9?$AAD?$AAO@ 10023840     libucrt:lcidtoname_downlevel.obj
 0002:0000484c       ??_C@_1BG@CMBHIPBE@?$AAs?$AAr?$AA?9?$AAB?$AAA?$AA?9?$AAC?$AAy?$AAr?$AAl@ 1002384c     libucrt:lcidtoname_downlevel.obj
 0002:00004864       ??_C@_1O@HEDBLHNP@?$AAs?$AAm?$AAa?$AA?9?$AAS?$AAE@ 10023864     libucrt:lcidtoname_downlevel.obj
 0002:00004874       ??_C@_1M@DAGCADIM@?$AAa?$AAr?$AA?9?$AAO?$AAM@ 10023874     libucrt:lcidtoname_downlevel.obj
 0002:00004880       ??_C@_1M@FODLMICG@?$AAe?$AAn?$AA?9?$AAJ?$AAM@ 10023880     libucrt:lcidtoname_downlevel.obj
 0002:0000488c       ??_C@_1M@DNMLCIHB@?$AAe?$AAs?$AA?9?$AAV?$AAE@ 1002388c     libucrt:lcidtoname_downlevel.obj
 0002:00004898       ??_C@_1O@EOKHMKJK@?$AAs?$AAm?$AAs?$AA?9?$AAF?$AAI@ 10023898     libucrt:lcidtoname_downlevel.obj
 0002:000048a8       ??_C@_1M@CAFJMKOF@?$AAa?$AAr?$AA?9?$AAY?$AAE@ 100238a8     libucrt:lcidtoname_downlevel.obj
 0002:000048b4       ??_C@_1M@CBFHIJLI@?$AAe?$AAn?$AA?9?$AAC?$AAB@ 100238b4     libucrt:lcidtoname_downlevel.obj
 0002:000048c0       ??_C@_1M@BGNFLDN@?$AAe?$AAs?$AA?9?$AAC?$AAO@ 100238c0     libucrt:lcidtoname_downlevel.obj
 0002:000048cc       ??_C@_1O@JMPHMAMC@?$AAs?$AAm?$AAn?$AA?9?$AAF?$AAI@ 100238cc     libucrt:lcidtoname_downlevel.obj
 0002:000048dc       ??_C@_1M@JLANABKE@?$AAa?$AAr?$AA?9?$AAS?$AAY@ 100238dc     libucrt:lcidtoname_downlevel.obj
 0002:000048e8       ??_C@_1M@HPKGCFGN@?$AAe?$AAn?$AA?9?$AAB?$AAZ@ 100238e8     libucrt:lcidtoname_downlevel.obj
 0002:000048f4       ??_C@_1M@OLJCMLGM@?$AAe?$AAs?$AA?9?$AAP?$AAE@ 100238f4     libucrt:lcidtoname_downlevel.obj
 0002:00004900       ??_C@_1M@MKKGFKLE@?$AAa?$AAr?$AA?9?$AAJ?$AAO@ 10023900     libucrt:lcidtoname_downlevel.obj
 0002:0000490c       ??_C@_1M@EKPGLDNI@?$AAe?$AAn?$AA?9?$AAT?$AAT@ 1002390c     libucrt:lcidtoname_downlevel.obj
 0002:00004918       ??_C@_1M@OONGHFHE@?$AAe?$AAs?$AA?9?$AAA?$AAR@ 10023918     libucrt:lcidtoname_downlevel.obj
 0002:00004924       ??_C@_1M@OOJFGBHE@?$AAa?$AAr?$AA?9?$AAL?$AAB@ 10023924     libucrt:lcidtoname_downlevel.obj
 0002:00004930       ??_C@_1M@GCEJHNEG@?$AAe?$AAn?$AA?9?$AAZ?$AAW@ 10023930     libucrt:lcidtoname_downlevel.obj
 0002:0000493c       ??_C@_1M@JNOCAHJI@?$AAe?$AAs?$AA?9?$AAE?$AAC@ 1002393c     libucrt:lcidtoname_downlevel.obj
 0002:00004948       ??_C@_1M@JEFHPGGB@?$AAa?$AAr?$AA?9?$AAK?$AAW@ 10023948     libucrt:lcidtoname_downlevel.obj
 0002:00004954       ??_C@_1M@MLKIBJOJ@?$AAe?$AAn?$AA?9?$AAP?$AAH@ 10023954     libucrt:lcidtoname_downlevel.obj
 0002:00004960       ??_C@_1M@BDNIPEND@?$AAe?$AAs?$AA?9?$AAC?$AAL@ 10023960     libucrt:lcidtoname_downlevel.obj
 0002:0000496c       ??_C@_1M@MPNMEKBD@?$AAa?$AAr?$AA?9?$AAA?$AAE@ 1002396c     libucrt:lcidtoname_downlevel.obj
 0002:00004978       ??_C@_1M@KBJALCPI@?$AAe?$AAs?$AA?9?$AAU?$AAY@ 10023978     libucrt:lcidtoname_downlevel.obj
 0002:00004984       ??_C@_1M@LLCCOAGA@?$AAa?$AAr?$AA?9?$AAB?$AAH@ 10023984     libucrt:lcidtoname_downlevel.obj
 0002:00004990       ??_C@_1M@PBFNCDEL@?$AAe?$AAs?$AA?9?$AAP?$AAY@ 10023990     libucrt:lcidtoname_downlevel.obj
 0002:0000499c       ??_C@_1M@EDGINPNP@?$AAa?$AAr?$AA?9?$AAQ?$AAA@ 1002399c     libucrt:lcidtoname_downlevel.obj
 0002:000049a8       ??_C@_1M@MKDBIIJI@?$AAe?$AAs?$AA?9?$AAB?$AAO@ 100239a8     libucrt:lcidtoname_downlevel.obj
 0002:000049b4       ??_C@_1M@CPKKEBLD@?$AAe?$AAs?$AA?9?$AAS?$AAV@ 100239b4     libucrt:lcidtoname_downlevel.obj
 0002:000049c0       ??_C@_1M@NDBGMMJL@?$AAe?$AAs?$AA?9?$AAH?$AAN@ 100239c0     libucrt:lcidtoname_downlevel.obj
 0002:000049cc       ??_C@_1M@JIJIBHDP@?$AAe?$AAs?$AA?9?$AAN?$AAI@ 100239cc     libucrt:lcidtoname_downlevel.obj
 0002:000049d8       ??_C@_1M@CGFMKEEK@?$AAe?$AAs?$AA?9?$AAP?$AAR@ 100239d8     libucrt:lcidtoname_downlevel.obj
 0002:000049e4       ??_C@_1O@ICJHKIIK@?$AAz?$AAh?$AA?9?$AAC?$AAH?$AAT@ 100239e4     libucrt:lcidtoname_downlevel.obj
 0002:000049f4       ??_C@_15CLNEJCE@?$AAs?$AAr@ 100239f4     libucrt:lcidtoname_downlevel.obj
 0002:00005120       ??_C@_1M@KAHEKEIG@?$AAa?$AAf?$AA?9?$AAz?$AAa@ 10024120     libucrt:lcidtoname_downlevel.obj
 0002:0000512c       ??_C@_1M@GIECOABL@?$AAa?$AAr?$AA?9?$AAa?$AAe@ 1002412c     libucrt:lcidtoname_downlevel.obj
 0002:00005138       ??_C@_1M@BMLMEKGI@?$AAa?$AAr?$AA?9?$AAb?$AAh@ 10024138     libucrt:lcidtoname_downlevel.obj
 0002:00005144       ??_C@_1M@DAPFDGGB@?$AAa?$AAr?$AA?9?$AAd?$AAz@ 10024144     libucrt:lcidtoname_downlevel.obj
 0002:00005150       ??_C@_1M@FJNKGKIG@?$AAa?$AAr?$AA?9?$AAe?$AAg@ 10024150     libucrt:lcidtoname_downlevel.obj
 0002:0000515c       ??_C@_1M@FLGKKCLO@?$AAa?$AAr?$AA?9?$AAi?$AAq@ 1002415c     libucrt:lcidtoname_downlevel.obj
 0002:00005168       ??_C@_1M@GNDIPALM@?$AAa?$AAr?$AA?9?$AAj?$AAo@ 10024168     libucrt:lcidtoname_downlevel.obj
 0002:00005174       ??_C@_1M@DDMJFMGJ@?$AAa?$AAr?$AA?9?$AAk?$AAw@ 10024174     libucrt:lcidtoname_downlevel.obj
 0002:00005180       ??_C@_1M@EJALMLHM@?$AAa?$AAr?$AA?9?$AAl?$AAb@ 10024180     libucrt:lcidtoname_downlevel.obj
 0002:0000518c       ??_C@_1M@MOBDBLOC@?$AAa?$AAr?$AA?9?$AAl?$AAy@ 1002418c     libucrt:lcidtoname_downlevel.obj
 0002:00005198       ??_C@_1M@JAOCLHDH@?$AAa?$AAr?$AA?9?$AAm?$AAa@ 10024198     libucrt:lcidtoname_downlevel.obj
 0002:000051a4       ??_C@_1M@JHPMKJIE@?$AAa?$AAr?$AA?9?$AAo?$AAm@ 100241a4     libucrt:lcidtoname_downlevel.obj
 0002:000051b0       ??_C@_1M@OEPGHFNH@?$AAa?$AAr?$AA?9?$AAq?$AAa@ 100241b0     libucrt:lcidtoname_downlevel.obj
 0002:000051bc       ??_C@_1M@KJDONENM@?$AAa?$AAr?$AA?9?$AAs?$AAa@ 100241bc     libucrt:lcidtoname_downlevel.obj
 0002:000051c8       ??_C@_1M@DMJDKLKM@?$AAa?$AAr?$AA?9?$AAs?$AAy@ 100241c8     libucrt:lcidtoname_downlevel.obj
 0002:000051d4       ??_C@_1M@OMFIPEDC@?$AAa?$AAr?$AA?9?$AAt?$AAn@ 100241d4     libucrt:lcidtoname_downlevel.obj
 0002:000051e0       ??_C@_1M@IHMHGAON@?$AAa?$AAr?$AA?9?$AAy?$AAe@ 100241e0     libucrt:lcidtoname_downlevel.obj
 0002:000051ec       ??_C@_1BG@KDCPGJGB@?$AAa?$AAz?$AA?9?$AAa?$AAz?$AA?9?$AAc?$AAy?$AAr?$AAl@ 100241ec     libucrt:lcidtoname_downlevel.obj
 0002:00005204       ??_C@_1BG@IBCKDDOE@?$AAa?$AAz?$AA?9?$AAa?$AAz?$AA?9?$AAl?$AAa?$AAt?$AAn@ 10024204     libucrt:lcidtoname_downlevel.obj
 0002:0000521c       ??_C@_1M@EGPFDCPD@?$AAb?$AAe?$AA?9?$AAb?$AAy@ 1002421c     libucrt:lcidtoname_downlevel.obj
 0002:00005228       ??_C@_1M@PCMGMCGC@?$AAb?$AAg?$AA?9?$AAb?$AAg@ 10024228     libucrt:lcidtoname_downlevel.obj
 0002:00005234       ??_C@_1M@BJBMFGOB@?$AAb?$AAn?$AA?9?$AAi?$AAn@ 10024234     libucrt:lcidtoname_downlevel.obj
 0002:00005240       ??_C@_1BG@EAKMMACD@?$AAb?$AAs?$AA?9?$AAb?$AAa?$AA?9?$AAl?$AAa?$AAt?$AAn@ 10024240     libucrt:lcidtoname_downlevel.obj
 0002:00005258       ??_C@_1M@KGADAODK@?$AAc?$AAa?$AA?9?$AAe?$AAs@ 10024258     libucrt:lcidtoname_downlevel.obj
 0002:00005264       ??_C@_1M@COAJPDHI@?$AAc?$AAs?$AA?9?$AAc?$AAz@ 10024264     libucrt:lcidtoname_downlevel.obj
 0002:00005270       ??_C@_1M@DHBHFONH@?$AAc?$AAy?$AA?9?$AAg?$AAb@ 10024270     libucrt:lcidtoname_downlevel.obj
 0002:0000527c       ??_C@_1M@IMGKELGA@?$AAd?$AAa?$AA?9?$AAd?$AAk@ 1002427c     libucrt:lcidtoname_downlevel.obj
 0002:00005288       ??_C@_1M@NNDGDNGA@?$AAd?$AAe?$AA?9?$AAa?$AAt@ 10024288     libucrt:lcidtoname_downlevel.obj
 0002:00005294       ??_C@_1M@IKDBHEEM@?$AAd?$AAe?$AA?9?$AAc?$AAh@ 10024294     libucrt:lcidtoname_downlevel.obj
 0002:000052a0       ??_C@_1M@GFFOJMCJ@?$AAd?$AAe?$AA?9?$AAd?$AAe@ 100242a0     libucrt:lcidtoname_downlevel.obj
 0002:000052ac       ??_C@_1M@MDNLKBPM@?$AAd?$AAe?$AA?9?$AAl?$AAi@ 100242ac     libucrt:lcidtoname_downlevel.obj
 0002:000052b8       ??_C@_1M@NJBEEJNL@?$AAd?$AAe?$AA?9?$AAl?$AAu@ 100242b8     libucrt:lcidtoname_downlevel.obj
 0002:000052c4       ??_C@_1O@GNNELBAP@?$AAd?$AAi?$AAv?$AA?9?$AAm?$AAv@ 100242c4     libucrt:lcidtoname_downlevel.obj
 0002:000052d4       ??_C@_1M@EJLEOGAE@?$AAe?$AAl?$AA?9?$AAg?$AAr@ 100242d4     libucrt:lcidtoname_downlevel.obj
 0002:000052e0       ??_C@_1M@GMPONJN@?$AAe?$AAn?$AA?9?$AAa?$AAu@ 100242e0     libucrt:lcidtoname_downlevel.obj
 0002:000052ec       ??_C@_1M@NIDIIPGF@?$AAe?$AAn?$AA?9?$AAb?$AAz@ 100242ec     libucrt:lcidtoname_downlevel.obj
 0002:000052f8       ??_C@_1M@JEHMIMFO@?$AAe?$AAn?$AA?9?$AAc?$AAa@ 100242f8     libucrt:lcidtoname_downlevel.obj
 0002:00005304       ??_C@_1M@IGMJCDLA@?$AAe?$AAn?$AA?9?$AAc?$AAb@ 10024304     libucrt:lcidtoname_downlevel.obj
 0002:00005310       ??_C@_1M@BNFIGBKG@?$AAe?$AAn?$AA?9?$AAg?$AAb@ 10024310     libucrt:lcidtoname_downlevel.obj
 0002:0000531c       ??_C@_1M@LKIFDIGP@?$AAe?$AAn?$AA?9?$AAi?$AAe@ 1002431c     libucrt:lcidtoname_downlevel.obj
 0002:00005328       ??_C@_1M@PJKFGCCO@?$AAe?$AAn?$AA?9?$AAj?$AAm@ 10024328     libucrt:lcidtoname_downlevel.obj
 0002:00005334       ??_C@_1M@KPPKEPBO@?$AAe?$AAn?$AA?9?$AAn?$AAz@ 10024334     libucrt:lcidtoname_downlevel.obj
 0002:00005340       ??_C@_1M@GMDGLDOB@?$AAe?$AAn?$AA?9?$AAp?$AAh@ 10024340     libucrt:lcidtoname_downlevel.obj
 0002:0000534c       ??_C@_1M@ONGIBJNA@?$AAe?$AAn?$AA?9?$AAt?$AAt@ 1002434c     libucrt:lcidtoname_downlevel.obj
 0002:00005358       ??_C@_1M@LLODPCMM@?$AAe?$AAn?$AA?9?$AAu?$AAs@ 10024358     libucrt:lcidtoname_downlevel.obj
 0002:00005364       ??_C@_1M@LAKFNPAN@?$AAe?$AAn?$AA?9?$AAz?$AAa@ 10024364     libucrt:lcidtoname_downlevel.obj
 0002:00005370       ??_C@_1M@MFNHNHEO@?$AAe?$AAn?$AA?9?$AAz?$AAw@ 10024370     libucrt:lcidtoname_downlevel.obj
 0002:0000537c       ??_C@_1M@EJEINPHM@?$AAe?$AAs?$AA?9?$AAa?$AAr@ 1002437c     libucrt:lcidtoname_downlevel.obj
 0002:00005388       ??_C@_1M@GNKPCCJA@?$AAe?$AAs?$AA?9?$AAb?$AAo@ 10024388     libucrt:lcidtoname_downlevel.obj
 0002:00005394       ??_C@_1M@LEEGFONL@?$AAe?$AAs?$AA?9?$AAc?$AAl@ 10024394     libucrt:lcidtoname_downlevel.obj
 0002:000053a0       ??_C@_1M@KGPDPBDF@?$AAe?$AAs?$AA?9?$AAc?$AAo@ 100243a0     libucrt:lcidtoname_downlevel.obj
 0002:000053ac       ??_C@_1M@EIAHOHH@?$AAe?$AAs?$AA?9?$AAc?$AAr@ 100243ac     libucrt:lcidtoname_downlevel.obj
 0002:000053b8       ??_C@_1M@LLPGMBIN@?$AAe?$AAs?$AA?9?$AAd?$AAo@ 100243b8     libucrt:lcidtoname_downlevel.obj
 0002:000053c4       ??_C@_1M@DKHMKNJA@?$AAe?$AAs?$AA?9?$AAe?$AAc@ 100243c4     libucrt:lcidtoname_downlevel.obj
 0002:000053d0       ??_C@_1M@GKGFPKAP@?$AAe?$AAs?$AA?9?$AAe?$AAs@ 100243d0     libucrt:lcidtoname_downlevel.obj
 0002:000053dc       ??_C@_1M@LKHKGDLN@?$AAe?$AAs?$AA?9?$AAg?$AAt@ 100243dc     libucrt:lcidtoname_downlevel.obj
 0002:000053e8       ??_C@_1M@HEIIGGJD@?$AAe?$AAs?$AA?9?$AAh?$AAn@ 100243e8     libucrt:lcidtoname_downlevel.obj
 0002:000053f4       ??_C@_1M@FBDHPPGD@?$AAe?$AAs?$AA?9?$AAm?$AAx@ 100243f4     libucrt:lcidtoname_downlevel.obj
 0002:00005400       ??_C@_1M@DPAGLNDH@?$AAe?$AAs?$AA?9?$AAn?$AAi@ 10024400     libucrt:lcidtoname_downlevel.obj
 0002:0000540c       ??_C@_1M@MDGOPGDD@?$AAe?$AAs?$AA?9?$AAp?$AAa@ 1002440c     libucrt:lcidtoname_downlevel.obj
 0002:00005418       ??_C@_1M@EMAMGBGE@?$AAe?$AAs?$AA?9?$AAp?$AAe@ 10024418     libucrt:lcidtoname_downlevel.obj
 0002:00005424       ??_C@_1M@IBMCAOEC@?$AAe?$AAs?$AA?9?$AAp?$AAr@ 10024424     libucrt:lcidtoname_downlevel.obj
 0002:00005430       ??_C@_1M@FGMDIJED@?$AAe?$AAs?$AA?9?$AAp?$AAy@ 10024430     libucrt:lcidtoname_downlevel.obj
 0002:0000543c       ??_C@_1M@IIDEOLLL@?$AAe?$AAs?$AA?9?$AAs?$AAv@ 1002443c     libucrt:lcidtoname_downlevel.obj
 0002:00005448       ??_C@_1M@GAOBIPA@?$AAe?$AAs?$AA?9?$AAu?$AAy@ 10024448     libucrt:lcidtoname_downlevel.obj
 0002:00005454       ??_C@_1M@JKFFICHJ@?$AAe?$AAs?$AA?9?$AAv?$AAe@ 10024454     libucrt:lcidtoname_downlevel.obj
 0002:00005460       ??_C@_1M@PNMLOJDF@?$AAe?$AAt?$AA?9?$AAe?$AAe@ 10024460     libucrt:lcidtoname_downlevel.obj
 0002:0000546c       ??_C@_1M@GHHLIKEI@?$AAe?$AAu?$AA?9?$AAe?$AAs@ 1002446c     libucrt:lcidtoname_downlevel.obj
 0002:00005478       ??_C@_1M@PBNONODE@?$AAf?$AAa?$AA?9?$AAi?$AAr@ 10024478     libucrt:lcidtoname_downlevel.obj
 0002:00005484       ??_C@_1M@JEEHPMIL@?$AAf?$AAi?$AA?9?$AAf?$AAi@ 10024484     libucrt:lcidtoname_downlevel.obj
 0002:00005490       ??_C@_1M@LMDCNDBA@?$AAf?$AAo?$AA?9?$AAf?$AAo@ 10024490     libucrt:lcidtoname_downlevel.obj
 0002:0000549c       ??_C@_1M@JKEOHLDK@?$AAf?$AAr?$AA?9?$AAb?$AAe@ 1002449c     libucrt:lcidtoname_downlevel.obj
 0002:000054a8       ??_C@_1M@NOHADPMI@?$AAf?$AAr?$AA?9?$AAc?$AAa@ 100244a8     libucrt:lcidtoname_downlevel.obj
 0002:000054b4       ??_C@_1M@KDHIHAEC@?$AAf?$AAr?$AA?9?$AAc?$AAh@ 100244b4     libucrt:lcidtoname_downlevel.obj
 0002:000054c0       ??_C@_1M@MMBBFGAK@?$AAf?$AAr?$AA?9?$AAf?$AAr@ 100244c0     libucrt:lcidtoname_downlevel.obj
 0002:000054cc       ??_C@_1M@PAFNENNF@?$AAf?$AAr?$AA?9?$AAl?$AAu@ 100244cc     libucrt:lcidtoname_downlevel.obj
 0002:000054d8       ??_C@_1M@EOHDJGDD@?$AAf?$AAr?$AA?9?$AAm?$AAc@ 100244d8     libucrt:lcidtoname_downlevel.obj
 0002:000054e4       ??_C@_1M@FAPLLOPF@?$AAg?$AAl?$AA?9?$AAe?$AAs@ 100244e4     libucrt:lcidtoname_downlevel.obj
 0002:000054f0       ??_C@_1M@FOPBFLOO@?$AAg?$AAu?$AA?9?$AAi?$AAn@ 100244f0     libucrt:lcidtoname_downlevel.obj
 0002:000054fc       ??_C@_1M@KBMCINPM@?$AAh?$AAe?$AA?9?$AAi?$AAl@ 100244fc     libucrt:lcidtoname_downlevel.obj
 0002:00005508       ??_C@_1M@BBPHKFPJ@?$AAh?$AAi?$AA?9?$AAi?$AAn@ 10024508     libucrt:lcidtoname_downlevel.obj
 0002:00005514       ??_C@_1M@PMBNDPHD@?$AAh?$AAr?$AA?9?$AAb?$AAa@ 10024514     libucrt:lcidtoname_downlevel.obj
 0002:00005520       ??_C@_1M@BPCKOEGE@?$AAh?$AAr?$AA?9?$AAh?$AAr@ 10024520     libucrt:lcidtoname_downlevel.obj
 0002:0000552c       ??_C@_1M@GACBMHKE@?$AAh?$AAu?$AA?9?$AAh?$AAu@ 1002452c     libucrt:lcidtoname_downlevel.obj
 0002:00005538       ??_C@_1M@MILPAJJC@?$AAh?$AAy?$AA?9?$AAa?$AAm@ 10024538     libucrt:lcidtoname_downlevel.obj
 0002:00005544       ??_C@_1M@BABBICEC@?$AAi?$AAd?$AA?9?$AAi?$AAd@ 10024544     libucrt:lcidtoname_downlevel.obj
 0002:00005550       ??_C@_1M@BIKNHHPF@?$AAi?$AAs?$AA?9?$AAi?$AAs@ 10024550     libucrt:lcidtoname_downlevel.obj
 0002:0000555c       ??_C@_1M@NMPCJPHE@?$AAi?$AAt?$AA?9?$AAc?$AAh@ 1002455c     libucrt:lcidtoname_downlevel.obj
 0002:00005568       ??_C@_1M@GHKGFEDF@?$AAi?$AAt?$AA?9?$AAi?$AAt@ 10024568     libucrt:lcidtoname_downlevel.obj
 0002:00005574       ??_C@_1M@NIEJCJJA@?$AAj?$AAa?$AA?9?$AAj?$AAp@ 10024574     libucrt:lcidtoname_downlevel.obj
 0002:00005580       ??_C@_1M@JILFNBIM@?$AAk?$AAa?$AA?9?$AAg?$AAe@ 10024580     libucrt:lcidtoname_downlevel.obj
 0002:0000558c       ??_C@_1M@PACPMGPH@?$AAk?$AAk?$AA?9?$AAk?$AAz@ 1002458c     libucrt:lcidtoname_downlevel.obj
 0002:00005598       ??_C@_1M@IELFGMHA@?$AAk?$AAn?$AA?9?$AAi?$AAn@ 10024598     libucrt:lcidtoname_downlevel.obj
 0002:000055a4       ??_C@_1O@IBBJHCH@?$AAk?$AAo?$AAk?$AA?9?$AAi?$AAn@ 100245a4     libucrt:lcidtoname_downlevel.obj
 0002:000055b4       ??_C@_1M@DMHAEOGC@?$AAk?$AAo?$AA?9?$AAk?$AAr@ 100245b4     libucrt:lcidtoname_downlevel.obj
 0002:000055c0       ??_C@_1M@HBAHBIGA@?$AAk?$AAy?$AA?9?$AAk?$AAg@ 100245c0     libucrt:lcidtoname_downlevel.obj
 0002:000055cc       ??_C@_1M@KPMILCJG@?$AAl?$AAt?$AA?9?$AAl?$AAt@ 100245cc     libucrt:lcidtoname_downlevel.obj
 0002:000055d8       ??_C@_1M@BDEKKCA@?$AAl?$AAv?$AA?9?$AAl?$AAv@ 100245d8     libucrt:lcidtoname_downlevel.obj
 0002:000055e4       ??_C@_1M@ELCKCCJJ@?$AAm?$AAi?$AA?9?$AAn?$AAz@ 100245e4     libucrt:lcidtoname_downlevel.obj
 0002:000055f0       ??_C@_1M@CBOOLAPA@?$AAm?$AAk?$AA?9?$AAm?$AAk@ 100245f0     libucrt:lcidtoname_downlevel.obj
 0002:000055fc       ??_C@_1M@GPHNBJKN@?$AAm?$AAl?$AA?9?$AAi?$AAn@ 100245fc     libucrt:lcidtoname_downlevel.obj
 0002:00005608       ??_C@_1M@PABJILIG@?$AAm?$AAn?$AA?9?$AAm?$AAn@ 10024608     libucrt:lcidtoname_downlevel.obj
 0002:00005614       ??_C@_1M@FGBKKIPG@?$AAm?$AAr?$AA?9?$AAi?$AAn@ 10024614     libucrt:lcidtoname_downlevel.obj
 0002:00005620       ??_C@_1M@NDBPDDAL@?$AAm?$AAs?$AA?9?$AAb?$AAn@ 10024620     libucrt:lcidtoname_downlevel.obj
 0002:0000562c       ??_C@_1M@OPIHOOPI@?$AAm?$AAs?$AA?9?$AAm?$AAy@ 1002462c     libucrt:lcidtoname_downlevel.obj
 0002:00005638       ??_C@_1M@PPDBCNFM@?$AAm?$AAt?$AA?9?$AAm?$AAt@ 10024638     libucrt:lcidtoname_downlevel.obj
 0002:00005644       ??_C@_1M@KDJDKMDD@?$AAn?$AAb?$AA?9?$AAn?$AAo@ 10024644     libucrt:lcidtoname_downlevel.obj
 0002:00005650       ??_C@_1M@KFCFLMJP@?$AAn?$AAl?$AA?9?$AAb?$AAe@ 10024650     libucrt:lcidtoname_downlevel.obj
 0002:0000565c       ??_C@_1M@KPOPDDGO@?$AAn?$AAl?$AA?9?$AAn?$AAl@ 1002465c     libucrt:lcidtoname_downlevel.obj
 0002:00005668       ??_C@_1M@LJKPEMLN@?$AAn?$AAn?$AA?9?$AAn?$AAo@ 10024668     libucrt:lcidtoname_downlevel.obj
 0002:00005674       ??_C@_1M@BDGHHBFL@?$AAn?$AAs?$AA?9?$AAz?$AAa@ 10024674     libucrt:lcidtoname_downlevel.obj
 0002:00005680       ??_C@_1M@IDEHOAP@?$AAp?$AAa?$AA?9?$AAi?$AAn@ 10024680     libucrt:lcidtoname_downlevel.obj
 0002:0000568c       ??_C@_1M@HDBKGOGH@?$AAp?$AAl?$AA?9?$AAp?$AAl@ 1002468c     libucrt:lcidtoname_downlevel.obj
 0002:00005698       ??_C@_1M@LJLLCMEH@?$AAp?$AAt?$AA?9?$AAb?$AAr@ 10024698     libucrt:lcidtoname_downlevel.obj
 0002:000056a4       ??_C@_1M@NCMONAAL@?$AAp?$AAt?$AA?9?$AAp?$AAt@ 100246a4     libucrt:lcidtoname_downlevel.obj
 0002:000056b0       ??_C@_1O@EAKMAJDN@?$AAq?$AAu?$AAz?$AA?9?$AAb?$AAo@ 100246b0     libucrt:lcidtoname_downlevel.obj
 0002:000056c0       ??_C@_1O@BHHPIGDN@?$AAq?$AAu?$AAz?$AA?9?$AAe?$AAc@ 100246c0     libucrt:lcidtoname_downlevel.obj
 0002:000056d0       ??_C@_1O@GBAPEKMJ@?$AAq?$AAu?$AAz?$AA?9?$AAp?$AAe@ 100246d0     libucrt:lcidtoname_downlevel.obj
 0002:000056e0       ??_C@_1M@CLGLEFBO@?$AAr?$AAo?$AA?9?$AAr?$AAo@ 100246e0     libucrt:lcidtoname_downlevel.obj
 0002:000056ec       ??_C@_1M@CEEDODME@?$AAr?$AAu?$AA?9?$AAr?$AAu@ 100246ec     libucrt:lcidtoname_downlevel.obj
 0002:000056f8       ??_C@_1M@HPKKKMPP@?$AAs?$AAa?$AA?9?$AAi?$AAn@ 100246f8     libucrt:lcidtoname_downlevel.obj
 0002:00005704       ??_C@_1M@BKMAIGOJ@?$AAs?$AAe?$AA?9?$AAf?$AAi@ 10024704     libucrt:lcidtoname_downlevel.obj
 0002:00005710       ??_C@_1M@NDPIFLFI@?$AAs?$AAe?$AA?9?$AAn?$AAo@ 10024710     libucrt:lcidtoname_downlevel.obj
 0002:0000571c       ??_C@_1M@DANKKHJ@?$AAs?$AAe?$AA?9?$AAs?$AAe@ 1002471c     libucrt:lcidtoname_downlevel.obj
 0002:00005728       ??_C@_1M@PNBLONPJ@?$AAs?$AAk?$AA?9?$AAs?$AAk@ 10024728     libucrt:lcidtoname_downlevel.obj
 0002:00005734       ??_C@_1M@LFMODOAL@?$AAs?$AAl?$AA?9?$AAs?$AAi@ 10024734     libucrt:lcidtoname_downlevel.obj
 0002:00005740       ??_C@_1O@DFKOMPG@?$AAs?$AAm?$AAa?$AA?9?$AAn?$AAo@ 10024740     libucrt:lcidtoname_downlevel.obj
 0002:00005750       ??_C@_1O@NDKPBNNH@?$AAs?$AAm?$AAa?$AA?9?$AAs?$AAe@ 10024750     libucrt:lcidtoname_downlevel.obj
 0002:00005760       ??_C@_1O@PLLKBHAB@?$AAs?$AAm?$AAj?$AA?9?$AAn?$AAo@ 10024760     libucrt:lcidtoname_downlevel.obj
 0002:00005770       ??_C@_1O@CLEPOGCA@?$AAs?$AAm?$AAj?$AA?9?$AAs?$AAe@ 10024770     libucrt:lcidtoname_downlevel.obj
 0002:00005780       ??_C@_1O@DLGJGKMK@?$AAs?$AAm?$AAn?$AA?9?$AAf?$AAi@ 10024780     libucrt:lcidtoname_downlevel.obj
 0002:00005790       ??_C@_1O@OJDJGAJC@?$AAs?$AAm?$AAs?$AA?9?$AAf?$AAi@ 10024790     libucrt:lcidtoname_downlevel.obj
 0002:000057a0       ??_C@_1M@BOFOGHPB@?$AAs?$AAq?$AA?9?$AAa?$AAl@ 100247a0     libucrt:lcidtoname_downlevel.obj
 0002:000057ac       ??_C@_1BG@LJBBIPGB@?$AAs?$AAr?$AA?9?$AAb?$AAa?$AA?9?$AAc?$AAy?$AAr?$AAl@ 100247ac     libucrt:lcidtoname_downlevel.obj
 0002:000057c4       ??_C@_1BG@JLBENFOE@?$AAs?$AAr?$AA?9?$AAb?$AAa?$AA?9?$AAl?$AAa?$AAt?$AAn@ 100247c4     libucrt:lcidtoname_downlevel.obj
 0002:000057dc       ??_C@_1BG@KODPNHE@?$AAs?$AAr?$AA?9?$AAs?$AAp?$AA?9?$AAc?$AAy?$AAr?$AAl@ 100247dc     libucrt:lcidtoname_downlevel.obj
 0002:000057f4       ??_C@_1BG@CIOGKHPB@?$AAs?$AAr?$AA?9?$AAs?$AAp?$AA?9?$AAl?$AAa?$AAt?$AAn@ 100247f4     libucrt:lcidtoname_downlevel.obj
 0002:0000580c       ??_C@_1M@NGFJLMAC@?$AAs?$AAv?$AA?9?$AAf?$AAi@ 1002480c     libucrt:lcidtoname_downlevel.obj
 0002:00005818       ??_C@_1M@MPJEJAJC@?$AAs?$AAv?$AA?9?$AAs?$AAe@ 10024818     libucrt:lcidtoname_downlevel.obj
 0002:00005824       ??_C@_1M@MPNDHLFK@?$AAs?$AAw?$AA?9?$AAk?$AAe@ 10024824     libucrt:lcidtoname_downlevel.obj
 0002:00005830       ??_C@_1O@KOHBJJI@?$AAs?$AAy?$AAr?$AA?9?$AAs?$AAy@ 10024830     libucrt:lcidtoname_downlevel.obj
 0002:00005840       ??_C@_1M@LDCEFHA@?$AAt?$AAa?$AA?9?$AAi?$AAn@ 10024840     libucrt:lcidtoname_downlevel.obj
 0002:0000584c       ??_C@_1M@CNJOFAK@?$AAt?$AAe?$AA?9?$AAi?$AAn@ 1002484c     libucrt:lcidtoname_downlevel.obj
 0002:00005858       ??_C@_1M@GNAECACD@?$AAt?$AAh?$AA?9?$AAt?$AAh@ 10024858     libucrt:lcidtoname_downlevel.obj
 0002:00005864       ??_C@_1M@CHBIHOJO@?$AAt?$AAn?$AA?9?$AAz?$AAa@ 10024864     libucrt:lcidtoname_downlevel.obj
 0002:00005870       ??_C@_1M@GCCMIGPJ@?$AAt?$AAr?$AA?9?$AAt?$AAr@ 10024870     libucrt:lcidtoname_downlevel.obj
 0002:0000587c       ??_C@_1M@CELMCNBK@?$AAt?$AAt?$AA?9?$AAr?$AAu@ 1002487c     libucrt:lcidtoname_downlevel.obj
 0002:00005888       ??_C@_1M@KLMCELGA@?$AAu?$AAk?$AA?9?$AAu?$AAa@ 10024888     libucrt:lcidtoname_downlevel.obj
 0002:00005894       ??_C@_1M@EPAJJAJF@?$AAu?$AAr?$AA?9?$AAp?$AAk@ 10024894     libucrt:lcidtoname_downlevel.obj
 0002:000058a0       ??_C@_1BG@GEGPMCDJ@?$AAu?$AAz?$AA?9?$AAu?$AAz?$AA?9?$AAc?$AAy?$AAr?$AAl@ 100248a0     libucrt:lcidtoname_downlevel.obj
 0002:000058b8       ??_C@_1BG@EGGKJILM@?$AAu?$AAz?$AA?9?$AAu?$AAz?$AA?9?$AAl?$AAa?$AAt?$AAn@ 100248b8     libucrt:lcidtoname_downlevel.obj
 0002:000058d0       ??_C@_1M@GFOCLFF@?$AAv?$AAi?$AA?9?$AAv?$AAn@ 100248d0     libucrt:lcidtoname_downlevel.obj
 0002:000058dc       ??_C@_1M@CPAMEDFI@?$AAx?$AAh?$AA?9?$AAz?$AAa@ 100248dc     libucrt:lcidtoname_downlevel.obj
 0002:000058e8       ??_C@_1O@EBKIFIGN@?$AAz?$AAh?$AA?9?$AAc?$AAh?$AAs@ 100248e8     libucrt:lcidtoname_downlevel.obj
 0002:000058f8       ??_C@_1O@NMHPGANE@?$AAz?$AAh?$AA?9?$AAc?$AAh?$AAt@ 100248f8     libucrt:lcidtoname_downlevel.obj
 0002:00005908       ??_C@_1M@LPINJOMC@?$AAz?$AAh?$AA?9?$AAc?$AAn@ 10024908     libucrt:lcidtoname_downlevel.obj
 0002:00005914       ??_C@_1M@OCJEJODD@?$AAz?$AAh?$AA?9?$AAh?$AAk@ 10024914     libucrt:lcidtoname_downlevel.obj
 0002:00005920       ??_C@_1M@DNDLJINH@?$AAz?$AAh?$AA?9?$AAm?$AAo@ 10024920     libucrt:lcidtoname_downlevel.obj
 0002:0000592c       ??_C@_1M@MBFDNDND@?$AAz?$AAh?$AA?9?$AAs?$AAg@ 1002492c     libucrt:lcidtoname_downlevel.obj
 0002:00005938       ??_C@_1M@IMEPLEPE@?$AAz?$AAh?$AA?9?$AAt?$AAw@ 10024938     libucrt:lcidtoname_downlevel.obj
 0002:00005944       ??_C@_1M@BBGHNHJP@?$AAz?$AAu?$AA?9?$AAz?$AAa@ 10024944     libucrt:lcidtoname_downlevel.obj
 0002:00005950       ?large_power_data@?1??multiply_by_power_of_ten@__crt_strtox@@YA_NAAUbig_integer@2@I@Z@4QBIB 10024950     libucrt:cfout.obj
 0002:000062f0       ?small_powers_of_ten@?1??multiply_by_power_of_ten@__crt_strtox@@YA_NAAUbig_integer@2@I@Z@4QBIB 100252f0     libucrt:cfout.obj
 0002:00006314       ??_C@_01GBGANLPD@0@        10025314     libucrt:cfout.obj
 0002:00006318       ??_C@_05DNEBIAHO@1?$CDINF@ 10025318     libucrt:cfout.obj
 0002:00006320       ??_C@_06IMKFLFPG@1?$CDQNAN@ 10025320     libucrt:cfout.obj
 0002:00006328       ??_C@_06PGGFOGJG@1?$CDSNAN@ 10025328     libucrt:cfout.obj
 0002:00006330       ??_C@_05PHHOCPM@1?$CDIND@  10025330     libucrt:cfout.obj
 0002:000064a0       __infinity                 100254a0     libucrt:87tran.obj
 0002:000064aa       __minfinity                100254aa     libucrt:87tran.obj
 0002:000064b4       __logemax                  100254b4     libucrt:87tran.obj
 0002:000064da       __OP_EXPjmptab             100254da     libucrt:87tran.obj
 0002:00006500       __indefinite               10025500     libucrt:87disp.obj
 0002:0000650a       __piby2                    1002550a     libucrt:87disp.obj
 0002:00006514       __piby4                    10025514     libucrt:87disp.obj
 0002:00006548       __DEFAULT_CW_in_mem        10025548     libucrt:common.obj
 0002:0000654a       __pi_by_2_to_61            1002554a     libucrt:common.obj
 0002:00006584       ??_C@_03MGHMBJCF@log@      10025584     libucrt:libm_error.obj
 0002:00006588       ??_C@_05HGHHAHAP@log10@    10025588     libucrt:libm_error.obj
 0002:00006590       ??_C@_03KHJOGHMM@exp@      10025590     libucrt:libm_error.obj
 0002:00006594       ??_C@_03JGHBODFD@pow@      10025594     libucrt:libm_error.obj
 0002:00006598       ??_C@_04FIHNOPOL@asin@     10025598     libucrt:libm_error.obj
 0002:000065a0       ??_C@_04PDIFKINK@acos@     100255a0     libucrt:libm_error.obj
 0002:000065a8       ??_C@_04EIAKFFMI@sqrt@     100255a8     libucrt:libm_error.obj
 0002:000065b0       __real@3ff0000000000000    100255b0     libucrt:libm_error.obj
 0002:000065b8       ??_C@_1BA@BALFACEM@?$AAC?$AAO?$AAN?$AAO?$AAU?$AAT?$AA$@ 100255b8     libucrt:initcon.obj
 0002:000065e0       ___acrt_log10_table_t      100255e0     libucrt:log10_tables.obj
 0002:000069f0       ___acrt_log10_table_cb     100259f0     libucrt:log10_tables.obj
 0002:00006e00       __real@3fe0000000000000    10025e00     libucrt:powhlp.obj
 0002:00006ef0       ??_C@_04COOMCNPB@sinh@     10025ef0     libucrt:fpexcept.obj
 0002:00006ef8       ??_C@_04HPJJNFIM@cosh@     10025ef8     libucrt:fpexcept.obj
 0002:00006f00       ??_C@_04FJHINJAO@tanh@     10025f00     libucrt:fpexcept.obj
 0002:00006f08       ??_C@_04MLLJIGOK@atan@     10025f08     libucrt:fpexcept.obj
 0002:00006f10       ??_C@_05KNGEOGJB@atan2@    10025f10     libucrt:fpexcept.obj
 0002:00006f18       ??_C@_03BLEJJJBH@sin@      10025f18     libucrt:fpexcept.obj
 0002:00006f1c       ??_C@_03LALBNOCG@cos@      10025f1c     libucrt:fpexcept.obj
 0002:00006f20       ??_C@_03IIINPABG@tan@      10025f20     libucrt:fpexcept.obj
 0002:00006f24       ??_C@_04GFPJNGEK@ceil@     10025f24     libucrt:fpexcept.obj
 0002:00006f2c       ??_C@_05PBJFFIGL@floor@    10025f2c     libucrt:fpexcept.obj
 0002:00006f34       ??_C@_04ODHECPBC@fabs@     10025f34     libucrt:fpexcept.obj
 0002:00006f3c       ??_C@_04EHEDPDJG@modf@     10025f3c     libucrt:fpexcept.obj
 0002:00006f44       ??_C@_05CEJMAHNP@ldexp@    10025f44     libucrt:fpexcept.obj
 0002:00006f4c       ??_C@_05KBKMEMPO@_cabs@    10025f4c     libucrt:fpexcept.obj
 0002:00006f54       ??_C@_06MEIMCGCF@_hypot@   10025f54     libucrt:fpexcept.obj
 0002:00006f5c       ??_C@_04KEPJIHGP@fmod@     10025f5c     libucrt:fpexcept.obj
 0002:00006f64       ??_C@_05GKKHEGJL@frexp@    10025f64     libucrt:fpexcept.obj
 0002:00006f6c       ??_C@_03MJLDFKDL@_y0@      10025f6c     libucrt:fpexcept.obj
 0002:00006f70       ??_C@_03NAKIGLHK@_y1@      10025f70     libucrt:fpexcept.obj
 0002:00006f74       ??_C@_03ONILCKOB@_yn@      10025f74     libucrt:fpexcept.obj
 0002:00006f78       ??_C@_05JGDBENOH@_logb@    10025f78     libucrt:fpexcept.obj
 0002:00006f80       ??_C@_0L@KDOEJCKC@_nextafter@ 10025f80     libucrt:fpexcept.obj
 0002:00006f90       __d_inf                    10025f90     libucrt:util.obj
 0002:00006f98       __d_max                    10025f98     libucrt:util.obj
 0002:00006fa0       __d_mzero                  10025fa0     libucrt:util.obj
 0002:00007008       __load_config_used         10026008     LIBCMT:loadcfg.obj
 0002:000070ac       __tls_used                 100260ac     LIBCMT:tlssup.obj
 0002:000070c4       ??_R4exception@std@@6B@    100260c4     LIBCMT:throw_bad_alloc.obj
 0002:000070d8       ??_R3exception@std@@8      100260d8     LIBCMT:throw_bad_alloc.obj
 0002:000070e8       ??_R2exception@std@@8      100260e8     LIBCMT:throw_bad_alloc.obj
 0002:000070f0       ??_R1A@?0A@EA@exception@std@@8 100260f0     LIBCMT:throw_bad_alloc.obj
 0002:0000710c       ??_R4bad_alloc@std@@6B@    1002610c     LIBCMT:throw_bad_alloc.obj
 0002:00007120       ??_R3bad_alloc@std@@8      10026120     LIBCMT:throw_bad_alloc.obj
 0002:00007130       ??_R2bad_alloc@std@@8      10026130     LIBCMT:throw_bad_alloc.obj
 0002:0000713c       ??_R1A@?0A@EA@bad_alloc@std@@8 1002613c     LIBCMT:throw_bad_alloc.obj
 0002:00007158       ??_R4bad_array_new_length@std@@6B@ 10026158     LIBCMT:throw_bad_alloc.obj
 0002:0000716c       ??_R3bad_array_new_length@std@@8 1002616c     LIBCMT:throw_bad_alloc.obj
 0002:0000717c       ??_R2bad_array_new_length@std@@8 1002617c     LIBCMT:throw_bad_alloc.obj
 0002:0000718c       ??_R1A@?0A@EA@bad_array_new_length@std@@8 1002618c     LIBCMT:throw_bad_alloc.obj
 0002:000071a8       ??_R4type_info@@6B@        100261a8     LIBCMT:std_type_info_static.obj
 0002:000071bc       ??_R3type_info@@8          100261bc     LIBCMT:std_type_info_static.obj
 0002:000071cc       ??_R2type_info@@8          100261cc     LIBCMT:std_type_info_static.obj
 0002:000071d4       ??_R1A@?0A@EA@type_info@@8 100261d4     LIBCMT:std_type_info_static.obj
 0002:000071f0       ??_R4bad_exception@std@@6B@ 100261f0     libvcruntime:frame.obj
 0002:00007204       ??_R3bad_exception@std@@8  10026204     libvcruntime:frame.obj
 0002:00007214       ??_R2bad_exception@std@@8  10026214     libvcruntime:frame.obj
 0002:00007220       ??_R1A@?0A@EA@bad_exception@std@@8 10026220     libvcruntime:frame.obj
 0002:00007240       ___safe_se_handler_table   10026240     <linker-defined>
 0002:00007634       ___rtc_iaa                 10026634     LIBCMT:initsect.obj
 0002:00007638       ___rtc_izz                 10026638     LIBCMT:initsect.obj
 0002:0000763c       ___rtc_taa                 1002663c     LIBCMT:initsect.obj
 0002:00007640       ___rtc_tzz                 10026640     LIBCMT:initsect.obj
 0002:00007644       __tls_start                10026644     LIBCMT:tlssup.obj
 0002:00007648       __Init_thread_epoch        10026648     LIBCMT:thread_safe_statics.obj
 0002:0000764c       __tls_end                  1002664c     LIBCMT:tlssup.obj
 0002:00007744       __TI2?AVbad_alloc@std@@    10026744     LIBCMT:throw_bad_alloc.obj
 0002:00007754       __CTA2?AVbad_alloc@std@@   10026754     LIBCMT:throw_bad_alloc.obj
 0002:00007760       __CT??_R0?AVbad_alloc@std@@@8??0bad_alloc@std@@QAE@ABV01@@Z12 10026760     LIBCMT:throw_bad_alloc.obj
 0002:0000777c       __CT??_R0?AVexception@std@@@8??0exception@std@@QAE@ABV01@@Z12 1002677c     LIBCMT:throw_bad_alloc.obj
 0002:00007798       __TI3?AVbad_array_new_length@std@@ 10026798     LIBCMT:throw_bad_alloc.obj
 0002:000077a8       __CTA3?AVbad_array_new_length@std@@ 100267a8     LIBCMT:throw_bad_alloc.obj
 0002:000077b8       __CT??_R0?AVbad_array_new_length@std@@@8??0bad_array_new_length@std@@QAE@ABV01@@Z12 100267b8     LIBCMT:throw_bad_alloc.obj
 0002:000078bc       __TI2?AVbad_exception@std@@ 100268bc     libvcruntime:frame.obj
 0002:000078cc       __CTA2?AVbad_exception@std@@ 100268cc     libvcruntime:frame.obj
 0002:000078d8       __CT??_R0?AVbad_exception@std@@@8??0bad_exception@std@@QAE@ABV01@@Z12 100268d8     libvcruntime:frame.obj
 0002:00007c54       ___pobjMapEntryFirst       10026c54     OposVariant.obj
 0002:00007c58       ___pobjMapEntryLast        10026c58     OposVariant.obj
 0002:00007d08       __IMPORT_DESCRIPTOR_KERNEL32 10026d08     kernel32:KERNEL32.dll
 0002:00007d1c       __IMPORT_DESCRIPTOR_USER32 10026d1c     user32:USER32.dll
 0002:00007d30       __IMPORT_DESCRIPTOR_GDI32  10026d30     gdi32:GDI32.dll
 0002:00007d44       __IMPORT_DESCRIPTOR_ADVAPI32 10026d44     advapi32:ADVAPI32.dll
 0002:00007d58       __IMPORT_DESCRIPTOR_ole32  10026d58     ole32:ole32.dll
 0002:00007d6c       __IMPORT_DESCRIPTOR_OLEAUT32 10026d6c     oleaut32:OLEAUT32.dll
 0002:00007d80       __NULL_IMPORT_DESCRIPTOR   10026d80     kernel32:KERNEL32.dll
 0003:00000000       ?s_Claim@?7??GetIDsOfNames@CComTypeInfoHolder@ATL@@QAEJABU_GUID@@PAPA_WIKPAJ@Z@4PA_WA 10028000     MICR.obj
 0003:00000018       ?s_Release@?7??GetIDsOfNames@CComTypeInfoHolder@ATL@@QAEJABU_GUID@@PAPA_WIKPAJ@Z@4PA_WA 10028018     MICR.obj
 0003:00000038       ?wc@?1??GetWndClassInfo@?$CWindowImpl@VCOPOSMICR@@VCWindow@ATL@@V?$CWinTraits@$0FGAAAAAA@$0A@@3@@ATL@@SAAAU_ATL_WNDCLASSINFOW@3@XZ@4U43@A 10028038     MICR.obj
 0003:000000c4       ?rcDefault@CWindow@ATL@@2UtagRECT@@A 100280c4     MICR.obj
 0003:000000d4       ?_tih@?$IDispatchImpl@UIOPOSMICR@@$1?IID_IOPOSMICR@@3U_GUID@@B$1?LIBID_OposMICR_CCO@@3U3@B$00$0A@VCComTypeInfoHolder@ATL@@@ATL@@1VCComTypeInfoHolder@2@A 100280d4     MICR.obj
 0003:000000f0       ?_tih@?$IProvideClassInfo2Impl@$1?CLSID_OPOSMICR@@3U_GUID@@B$1?DIID__IOPOSMICREvents@@3U2@B$1?LIBID_OposMICR_CCO@@3U2@B$00$0A@VCComTypeInfoHolder@ATL@@@ATL@@1VCComTypeInfoHolder@2@A 100280f0     MICR.obj
 0003:0000010c       ?vszContents@?6??Save@?$IPersistStorageImpl@VCOPOSMICR@@@ATL@@UAGJPAUIStorage@@H@Z@4PB_WB 1002810c     MICR.obj
 0003:00000158       ?g_WindowName@@3PA_WA      10028158     MICRImpl.obj
 0003:00000170       ?g_ControlDescription@@3PADA 10028170     MICRImpl.obj
 0003:000001a0       ?g_ControlVersion@@3JA     100281a0     MICRImpl.obj
 0003:0000022c       ___scrt_native_dllmain_reason 1002822c     LIBCMT:utility.obj
 0003:00000230       __Init_global_epoch        10028230     LIBCMT:thread_safe_statics.obj
 0003:00000240       ___security_cookie_complement 10028240     LIBCMT:gs_cookie.obj
 0003:00000244       ___security_cookie         10028244     LIBCMT:gs_cookie.obj
 0003:00000248       ___isa_enabled             10028248     LIBCMT:cpu_disp.obj
 0003:00000260       __NLG_Destination          10028260     libvcruntime:exsup.obj
 0003:00000278       ___abort_behavior          10028278     libucrt:abort.obj
 0003:00000288       __iob                      10028288     libucrt:_file.obj
 0003:00000330       ___acrt_initial_locale_data 10028330     libucrt:nlsdata.obj
 0003:000003e8       ___acrt_initial_locale_pointers 100283e8     libucrt:nlsdata.obj
 0003:000003f0       ___acrt_wide_c_locale_string 100283f0     libucrt:nlsdata.obj
 0003:000003f8       ___acrt_initial_multibyte_data 100283f8     libucrt:mbctype.obj
 0003:00000918       __pwctype                  10028918     libucrt:ctype.obj
 0003:0000091c       ___globallocalestatus      1002891c     libucrt:glstatus.obj
 0003:00000920       ___acrt_lconv_c            10028920     libucrt:localeconv.obj
 0003:00000970       ___acrt_lconv_static_decimal 10028970     libucrt:localeconv.obj
 0003:00000974       ___acrt_lconv_static_W_decimal 10028974     libucrt:localeconv.obj
 0003:00000980       __lookuptrailbytes         10028980     libucrt:read.obj
 0003:00000a90       __fltused                  10028a90     LIBCMT:fltused.obj
 0003:00000aa0       ??_R0?AVbad_alloc@std@@@8  10028aa0     LIBCMT:throw_bad_alloc.obj
 0003:00000abc       ??_R0?AVexception@std@@@8  10028abc     LIBCMT:throw_bad_alloc.obj
 0003:00000ad8       ??_R0?AVbad_array_new_length@std@@@8 10028ad8     LIBCMT:throw_bad_alloc.obj
 0003:00000b00       ??_R0?AVtype_info@@@8      10028b00     LIBCMT:std_type_info_static.obj
 0003:00000b18       ??_R0?AVbad_exception@std@@@8 10028b18     libvcruntime:frame.obj
 0003:00000b38       ?_pPerfRegFunc@ATL@@3P6AJPAUHINSTANCE__@@@ZA 10028b38     OposVariant.obj
 0003:00000b3c       ?_pPerfUnRegFunc@ATL@@3P6AJXZA 10028b3c     OposVariant.obj
 0003:00000b40       ?_AtlRegisterPerUser@ATL@@3_NA 10028b40     OposVariant.obj
 0003:00000b44       ?_pAtlModule@ATL@@3PAVCAtlModule@1@A 10028b44     OposVariant.obj
 0003:00000b48       ?_pModule@ATL@@3PAVCComModule@1@A 10028b48     OposVariant.obj
 0003:00000b4c       ?m_bInitFailed@CAtlBaseModule@ATL@@2_NA 10028b4c     OposVariant.obj
 0003:00000b50       ?_AtlComModule@ATL@@3VCAtlComModule@1@A 10028b50     OposVariant.obj
 0003:00000b78       ?_AtlWinModule@ATL@@3VCAtlWinModule@1@A 10028b78     OposVariant.obj
 0003:00000ba4       ?m_libid@CAtlModule@ATL@@2U_GUID@@A 10028ba4     MICR.obj
 0003:00000bb8       ?_OptionsStorage@?1??__local_stdio_printf_options@@9@4_KA 10028bb8     MICR.obj
 0003:00000bc0       ?_entries@?1??GetConnMap@COPOSMICR@@SAPBU_ATL_CONNMAP_ENTRY@ATL@@PAH@Z@4QBU34@B 10028bc0     MICR.obj
 0003:00000bcc       ?$TSS0@?1??GetConnMap@COPOSMICR@@SAPBU_ATL_CONNMAP_ENTRY@ATL@@PAH@Z@4HA 10028bcc     MICR.obj
 0003:00000bd0       ?pfnRegDeleteKeyEx@?1??DeleteSubKey@CRegKey@ATL@@QAEJPB_W@Z@4P6GJPAUHKEY__@@0KK@ZA 10028bd0     MICR.obj
 0003:00000bd4       ?bInitialized@?1??DeleteSubKey@CRegKey@ATL@@QAEJPB_W@Z@4_NA 10028bd4     MICR.obj
 0003:00000bd8       ?_Module@@3VCComModule@ATL@@A 10028bd8     MICR.obj
 0003:00000c08       ?pConnMap@?$IConnectionPointContainerImpl@VCOPOSMICR@@@ATL@@0PBU_ATL_CONNMAP_ENTRY@2@B 10028c08     MICR.obj
 0003:00000c0c       ?s_nInstances@COPOSMICR@@1HA 10028c0c     MICRImpl.obj
 0003:00000c10       ___scrt_current_native_startup_state 10028c10     LIBCMT:utility.obj
 0003:00000c14       ___scrt_native_startup_lock 10028c14     LIBCMT:utility.obj
 0003:00000f7c       __tls_index                10028f7c     LIBCMT:tlssup.obj
 0003:00000f84       ___isa_available           10028f84     LIBCMT:cpu_disp.obj
 0003:00000f88       ___favor                   10028f88     LIBCMT:cpu_disp.obj
 0003:00000f8c       ___scrt_debugger_hook_flag 10028f8c     LIBCMT:utility_desktop.obj
 0003:00000f90       ?__type_info_root_node@@3U__type_info_node@@A 10028f90     LIBCMT:tncleanup.obj
 0003:00000f98       ?_OptionsStorage@?1??__local_stdio_scanf_options@@9@4_KA 10028f98     LIBCMT:default_local_stdio_options.obj
 0003:00000fa0       ?_AtlBaseModule@ATL@@3VCAtlBaseModule@1@A 10028fa0     atls:atlbase.obj
 0003:00000fd8       ?__AtlThunkPool@@3PAT_SLIST_HEADER@@A 10028fd8     atls:atlthunk.obj
 0003:00000ff0       ___@@_PchSym_@00@UztvmgUPdlipUDUhUrmgvinvwrzgvUexgllohUzgohOmzgrevkilqPBACIAJCBDBUlyqiUcIGUhgwzucOlyq@4B2008FD98C1DD4 10028ff0     atls:stdafx.obj
 0003:00000ff4       ___pPurecall               10028ff4     libvcruntime:purevirt_data.obj
 0003:0000103c       ?pArgList@UnDecorator@@0PAVReplicator@@A 1002903c     libvcruntime:undname.obj
 0003:00001040       ?pZNameList@UnDecorator@@0PAVReplicator@@A 10029040     libvcruntime:undname.obj
 0003:00001044       ?pTemplateArgList@UnDecorator@@0PAVReplicator@@A 10029044     libvcruntime:undname.obj
 0003:00001048       ?gName@UnDecorator@@0PBDB  10029048     libvcruntime:undname.obj
 0003:0000104c       ?name@UnDecorator@@0PBDB   1002904c     libvcruntime:undname.obj
 0003:00001050       ?disableFlags@UnDecorator@@0KA 10029050     libvcruntime:undname.obj
 0003:00001054       ?fExplicitTemplateParams@UnDecorator@@0_NA 10029054     libvcruntime:undname.obj
 0003:00001055       ?fGetTemplateArgumentList@UnDecorator@@0_NA 10029055     libvcruntime:undname.obj
 0003:00001058       ?m_pGetParameter@UnDecorator@@0P6APADJ@ZA 10029058     libvcruntime:undname.obj
 0003:0000105c       ?m_CHPENameOffset@UnDecorator@@0KA 1002905c     libvcruntime:undname.obj
 0003:00001060       ?m_recursionLevel@UnDecorator@@0KA 10029060     libvcruntime:undname.obj
 0003:00001098       ?__WinRTOutOfMemoryExceptionCallback@@3P6GPAXXZA 10029098     libvcruntime:ehhelpers.obj
 0003:000010a8       ?c_exit_complete@?1???R<lambda_6e4b09c48022b2350581041d5f6b0c4c>@@QBE@XZ@4_NA 100290a8     libucrt:exit.obj
 0003:000011b8       __environ_table            100291b8     libucrt:environment_initialization.obj
 0003:000011bc       __wenviron_table           100291bc     libucrt:environment_initialization.obj
 0003:000011c0       ___dcrt_initial_wide_environment 100291c0     libucrt:environment_initialization.obj
 0003:000011c4       ___dcrt_initial_narrow_environment 100291c4     libucrt:environment_initialization.obj
 0003:000011c8       ___acrt_atexit_table       100291c8     libucrt:onexit.obj
 0003:000011d4       ___acrt_at_quick_exit_table 100291d4     libucrt:onexit.obj
 0003:000012c8       __nstream                  100292c8     libucrt:_file.obj
 0003:000012cc       ___piob                    100292cc     libucrt:_file.obj
 0003:000012d4       ___acrt_stdout_buffer      100292d4     libucrt:_sftbuf.obj
 0003:000012d8       ___acrt_stderr_buffer      100292d8     libucrt:_sftbuf.obj
 0003:000012dc       ___acrt_locale_changed_data 100292dc     libucrt:wsetlocale.obj
 0003:000012e0       ___acrt_current_locale_data 100292e0     libucrt:nlsdata.obj
 0003:000012e8       ___pioinfo                 100292e8     libucrt:ioinit.obj
 0003:000014e8       __nhandle                  100294e8     libucrt:ioinit.obj
 0003:00001644       __mbctype                  10029644     libucrt:mbctype.obj
 0003:00001648       __mbcasemap                10029648     libucrt:mbctype.obj
 0003:0000164c       ___acrt_current_multibyte_data 1002964c     libucrt:mbctype.obj
 0003:00001658       __pgmptr                   10029658     libucrt:argv_data.obj
 0003:0000165c       ___argc                    1002965c     libucrt:argv_data.obj
 0003:00001660       ___argv                    10029660     libucrt:argv_data.obj
 0003:00001664       ___wargv                   10029664     libucrt:argv_data.obj
 0003:00001668       __acmdln                   10029668     libucrt:argv_data.obj
 0003:0000166c       __wcmdln                   1002966c     libucrt:argv_data.obj
 0003:00001670       ___acrt_heap               10029670     libucrt:heap_handle.obj
 0003:0000168c       ___acrt_lconv_static_null  1002968c     libucrt:localeconv.obj
 0003:00001690       ___acrt_lconv_static_W_null 10029690     libucrt:localeconv.obj
 0003:000016a0       ___fastflag                100296a0     libucrt:fp_flags.obj
 0003:000016a8       ___dyn_tls_init_callback   100296a8     <common>
 0003:000016ac       ___scrt_ucrt_dll_is_in_use 100296ac     <common>
 0003:000016b0       __pmatherr                 100296b0     <common>
 0003:000016b4       ___use_sse2_mathfcns       100296b4     <common>

 entry point at        0001:0000bb48

 Static symbols

 0000:fffcf000       .debug$S                   10000000     kernel32:KERNEL32.dll
 0000:fffcf000       .debug$S                   10000000     ole32:ole32.dll
 0000:fffcf000       .debug$S                   10000000     ole32:ole32.dll
 0000:fffcf000       .debug$S                   10000000     ole32:ole32.dll
 0000:fffcf000       .debug$S                   10000000     ole32:ole32.dll
 0000:fffcf000       .debug$S                   10000000     ole32:ole32.dll
 0000:fffcf000       .debug$S                   10000000     oleaut32:OLEAUT32.dll
 0000:fffcf000       .debug$S                   10000000     oleaut32:OLEAUT32.dll
 0000:fffcf000       .debug$S                   10000000     oleaut32:OLEAUT32.dll
 0000:fffcf000       .debug$S                   10000000     oleaut32:OLEAUT32.dll
 0000:fffcf000       .debug$S                   10000000     oleaut32:OLEAUT32.dll
 0000:fffcf000       .debug$S                   10000000     oleaut32:OLEAUT32.dll
 0000:fffcf000       .debug$S                   10000000     oleaut32:OLEAUT32.dll
 0000:fffcf000       .debug$S                   10000000     oleaut32:OLEAUT32.dll
 0000:fffcf000       .debug$S                   10000000     oleaut32:OLEAUT32.dll
 0000:fffcf000       .debug$S                   10000000     OPOSMICR.exp
 0000:fffcf000       .debug$S                   10000000     oleaut32:OLEAUT32.dll
 0000:fffcf000       .debug$S                   10000000     oleaut32:OLEAUT32.dll
 0000:fffcf000       .debug$S                   10000000     oleaut32:OLEAUT32.dll
 0000:fffcf000       .debug$S                   10000000     oleaut32:OLEAUT32.dll
 0000:fffcf000       .debug$S                   10000000     oleaut32:OLEAUT32.dll
 0000:fffcf000       .debug$S                   10000000     oleaut32:OLEAUT32.dll
 0000:fffcf000       .debug$S                   10000000     oleaut32:OLEAUT32.dll
 0000:fffcf000       .debug$S                   10000000     kernel32:KERNEL32.dll
 0000:fffcf000       .debug$S                   10000000     kernel32:KERNEL32.dll
 0000:fffcf000       .debug$S                   10000000     kernel32:KERNEL32.dll
 0000:fffcf000       .debug$S                   10000000     kernel32:KERNEL32.dll
 0000:fffcf000       .debug$S                   10000000     kernel32:KERNEL32.dll
 0000:fffcf000       .debug$S                   10000000     kernel32:KERNEL32.dll
 0000:fffcf000       .debug$S                   10000000     kernel32:KERNEL32.dll
 0000:fffcf000       .debug$S                   10000000     kernel32:KERNEL32.dll
 0000:fffcf000       .debug$S                   10000000     kernel32:KERNEL32.dll
 0000:fffcf000       .debug$S                   10000000     kernel32:KERNEL32.dll
 0000:fffcf000       .debug$S                   10000000     kernel32:KERNEL32.dll
 0000:fffcf000       .debug$S                   10000000     kernel32:KERNEL32.dll
 0000:fffcf000       .debug$S                   10000000     kernel32:KERNEL32.dll
 0000:fffcf000       .debug$S                   10000000     kernel32:KERNEL32.dll
 0000:fffcf000       .debug$S                   10000000     kernel32:KERNEL32.dll
 0000:fffcf000       .debug$S                   10000000     kernel32:KERNEL32.dll
 0000:fffcf000       .debug$S                   10000000     kernel32:KERNEL32.dll
 0000:fffcf000       .debug$S                   10000000     kernel32:KERNEL32.dll
 0000:fffcf000       .debug$S                   10000000     kernel32:KERNEL32.dll
 0000:fffcf000       .debug$S                   10000000     kernel32:KERNEL32.dll
 0000:fffcf000       .debug$S                   10000000     kernel32:KERNEL32.dll
 0000:fffcf000       .debug$S                   10000000     kernel32:KERNEL32.dll
 0000:fffcf000       .debug$S                   10000000     kernel32:KERNEL32.dll
 0000:fffcf000       .debug$S                   10000000     kernel32:KERNEL32.dll
 0000:fffcf000       .debug$S                   10000000     kernel32:KERNEL32.dll
 0000:fffcf000       .debug$S                   10000000     kernel32:KERNEL32.dll
 0000:fffcf000       .debug$S                   10000000     kernel32:KERNEL32.dll
 0000:fffcf000       .debug$S                   10000000     kernel32:KERNEL32.dll
 0000:fffcf000       .debug$S                   10000000     kernel32:KERNEL32.dll
 0000:fffcf000       .debug$S                   10000000     kernel32:KERNEL32.dll
 0000:fffcf000       .debug$S                   10000000     kernel32:KERNEL32.dll
 0000:fffcf000       .debug$S                   10000000     kernel32:KERNEL32.dll
 0000:fffcf000       .debug$S                   10000000     kernel32:KERNEL32.dll
 0000:fffcf000       .debug$S                   10000000     kernel32:KERNEL32.dll
 0000:fffcf000       .debug$S                   10000000     kernel32:KERNEL32.dll
 0000:fffcf000       .debug$S                   10000000     kernel32:KERNEL32.dll
 0000:fffcf000       .debug$S                   10000000     kernel32:KERNEL32.dll
 0000:fffcf000       .debug$S                   10000000     kernel32:KERNEL32.dll
 0000:fffcf000       .debug$S                   10000000     kernel32:KERNEL32.dll
 0000:fffcf000       .debug$S                   10000000     kernel32:KERNEL32.dll
 0000:fffcf000       .debug$S                   10000000     kernel32:KERNEL32.dll
 0000:fffcf000       .debug$S                   10000000     kernel32:KERNEL32.dll
 0000:fffcf000       .debug$S                   10000000     kernel32:KERNEL32.dll
 0000:fffcf000       .debug$S                   10000000     kernel32:KERNEL32.dll
 0000:fffcf000       .debug$S                   10000000     kernel32:KERNEL32.dll
 0000:fffcf000       .debug$S                   10000000     kernel32:KERNEL32.dll
 0000:fffcf000       .debug$S                   10000000     kernel32:KERNEL32.dll
 0000:fffcf000       .debug$S                   10000000     kernel32:KERNEL32.dll
 0000:fffcf000       .debug$S                   10000000     kernel32:KERNEL32.dll
 0000:fffcf000       .debug$S                   10000000     kernel32:KERNEL32.dll
 0000:fffcf000       .debug$S                   10000000     user32:USER32.dll
 0000:fffcf000       .debug$S                   10000000     kernel32:KERNEL32.dll
 0000:fffcf000       .debug$S                   10000000     kernel32:KERNEL32.dll
 0000:fffcf000       .debug$S                   10000000     kernel32:KERNEL32.dll
 0000:fffcf000       .debug$S                   10000000     kernel32:KERNEL32.dll
 0000:fffcf000       .debug$S                   10000000     kernel32:KERNEL32.dll
 0000:fffcf000       .debug$S                   10000000     kernel32:KERNEL32.dll
 0000:fffcf000       .debug$S                   10000000     kernel32:KERNEL32.dll
 0000:fffcf000       .debug$S                   10000000     kernel32:KERNEL32.dll
 0000:fffcf000       .debug$S                   10000000     kernel32:KERNEL32.dll
 0000:fffcf000       .debug$S                   10000000     kernel32:KERNEL32.dll
 0000:fffcf000       .debug$S                   10000000     kernel32:KERNEL32.dll
 0000:fffcf000       .debug$S                   10000000     kernel32:KERNEL32.dll
 0000:fffcf000       .debug$S                   10000000     kernel32:KERNEL32.dll
 0000:fffcf000       .debug$S                   10000000     kernel32:KERNEL32.dll
 0000:fffcf000       .debug$S                   10000000     kernel32:KERNEL32.dll
 0000:fffcf000       .debug$S                   10000000     kernel32:KERNEL32.dll
 0000:fffcf000       .debug$S                   10000000     kernel32:KERNEL32.dll
 0000:fffcf000       .debug$S                   10000000     kernel32:KERNEL32.dll
 0000:fffcf000       .debug$S                   10000000     kernel32:KERNEL32.dll
 0000:fffcf000       .debug$S                   10000000     kernel32:KERNEL32.dll
 0000:fffcf000       .debug$S                   10000000     kernel32:KERNEL32.dll
 0000:fffcf000       .debug$S                   10000000     kernel32:KERNEL32.dll
 0000:fffcf000       .debug$S                   10000000     kernel32:KERNEL32.dll
 0000:fffcf000       .debug$S                   10000000     kernel32:KERNEL32.dll
 0000:fffcf000       .debug$S                   10000000     kernel32:KERNEL32.dll
 0000:fffcf000       .debug$S                   10000000     kernel32:KERNEL32.dll
 0000:fffcf000       .debug$S                   10000000     kernel32:KERNEL32.dll
 0000:fffcf000       .debug$S                   10000000     kernel32:KERNEL32.dll
 0000:fffcf000       .debug$S                   10000000     kernel32:KERNEL32.dll
 0000:fffcf000       .debug$S                   10000000     kernel32:KERNEL32.dll
 0000:fffcf000       .debug$S                   10000000     kernel32:KERNEL32.dll
 0000:fffcf000       .debug$S                   10000000     kernel32:KERNEL32.dll
 0000:fffcf000       .debug$S                   10000000     kernel32:KERNEL32.dll
 0000:fffcf000       .debug$S                   10000000     kernel32:KERNEL32.dll
 0000:fffcf000       .debug$S                   10000000     kernel32:KERNEL32.dll
 0000:fffcf000       .debug$S                   10000000     kernel32:KERNEL32.dll
 0000:fffcf000       .debug$S                   10000000     kernel32:KERNEL32.dll
 0000:fffcf000       .debug$S                   10000000     kernel32:KERNEL32.dll
 0000:fffcf000       .debug$S                   10000000     kernel32:KERNEL32.dll
 0000:fffcf000       .debug$S                   10000000     kernel32:KERNEL32.dll
 0000:fffcf000       .debug$S                   10000000     kernel32:KERNEL32.dll
 0000:fffcf000       .debug$S                   10000000     kernel32:KERNEL32.dll
 0000:fffcf000       .debug$S                   10000000     kernel32:KERNEL32.dll
 0000:fffcf000       .debug$S                   10000000     kernel32:KERNEL32.dll
 0000:fffcf000       .debug$S                   10000000     kernel32:KERNEL32.dll
 0000:fffcf000       .debug$S                   10000000     kernel32:KERNEL32.dll
 0000:fffcf000       .debug$S                   10000000     kernel32:KERNEL32.dll
 0000:fffcf000       .debug$S                   10000000     kernel32:KERNEL32.dll
 0000:fffcf000       .debug$S                   10000000     kernel32:KERNEL32.dll
 0000:fffcf000       .debug$S                   10000000     kernel32:KERNEL32.dll
 0000:fffcf000       .debug$S                   10000000     kernel32:KERNEL32.dll
 0000:fffcf000       .debug$S                   10000000     kernel32:KERNEL32.dll
 0000:fffcf000       .debug$S                   10000000     kernel32:KERNEL32.dll
 0000:fffcf000       .debug$S                   10000000     kernel32:KERNEL32.dll
 0000:fffcf000       .debug$S                   10000000     kernel32:KERNEL32.dll
 0000:fffcf000       .debug$S                   10000000     user32:USER32.dll
 0000:fffcf000       .debug$S                   10000000     user32:USER32.dll
 0000:fffcf000       .debug$S                   10000000     user32:USER32.dll
 0000:fffcf000       .debug$S                   10000000     user32:USER32.dll
 0000:fffcf000       .debug$S                   10000000     user32:USER32.dll
 0000:fffcf000       .debug$S                   10000000     user32:USER32.dll
 0000:fffcf000       .debug$S                   10000000     user32:USER32.dll
 0000:fffcf000       .debug$S                   10000000     user32:USER32.dll
 0000:fffcf000       .debug$S                   10000000     user32:USER32.dll
 0000:fffcf000       .debug$S                   10000000     user32:USER32.dll
 0000:fffcf000       .debug$S                   10000000     user32:USER32.dll
 0000:fffcf000       .debug$S                   10000000     user32:USER32.dll
 0000:fffcf000       .debug$S                   10000000     user32:USER32.dll
 0000:fffcf000       .debug$S                   10000000     user32:USER32.dll
 0000:fffcf000       .debug$S                   10000000     user32:USER32.dll
 0000:fffcf000       .debug$S                   10000000     user32:USER32.dll
 0000:fffcf000       .debug$S                   10000000     user32:USER32.dll
 0000:fffcf000       .debug$S                   10000000     user32:USER32.dll
 0000:fffcf000       .debug$S                   10000000     user32:USER32.dll
 0000:fffcf000       .debug$S                   10000000     user32:USER32.dll
 0000:fffcf000       .debug$S                   10000000     user32:USER32.dll
 0000:fffcf000       .debug$S                   10000000     user32:USER32.dll
 0000:fffcf000       .debug$S                   10000000     user32:USER32.dll
 0000:fffcf000       .debug$S                   10000000     user32:USER32.dll
 0000:fffcf000       .debug$S                   10000000     user32:USER32.dll
 0000:fffcf000       .debug$S                   10000000     user32:USER32.dll
 0000:fffcf000       .debug$S                   10000000     user32:USER32.dll
 0000:fffcf000       .debug$S                   10000000     user32:USER32.dll
 0000:fffcf000       .debug$S                   10000000     user32:USER32.dll
 0000:fffcf000       .debug$S                   10000000     user32:USER32.dll
 0000:fffcf000       .debug$S                   10000000     user32:USER32.dll
 0000:fffcf000       .debug$S                   10000000     user32:USER32.dll
 0000:fffcf000       .debug$S                   10000000     user32:USER32.dll
 0000:fffcf000       .debug$S                   10000000     user32:USER32.dll
 0000:fffcf000       .debug$S                   10000000     gdi32:GDI32.dll
 0000:fffcf000       .debug$S                   10000000     gdi32:GDI32.dll
 0000:fffcf000       .debug$S                   10000000     gdi32:GDI32.dll
 0000:fffcf000       .debug$S                   10000000     gdi32:GDI32.dll
 0000:fffcf000       .debug$S                   10000000     gdi32:GDI32.dll
 0000:fffcf000       .debug$S                   10000000     gdi32:GDI32.dll
 0000:fffcf000       .debug$S                   10000000     gdi32:GDI32.dll
 0000:fffcf000       .debug$S                   10000000     gdi32:GDI32.dll
 0000:fffcf000       .debug$S                   10000000     gdi32:GDI32.dll
 0000:fffcf000       .debug$S                   10000000     gdi32:GDI32.dll
 0000:fffcf000       .debug$S                   10000000     gdi32:GDI32.dll
 0000:fffcf000       .debug$S                   10000000     gdi32:GDI32.dll
 0000:fffcf000       .debug$S                   10000000     gdi32:GDI32.dll
 0000:fffcf000       .debug$S                   10000000     gdi32:GDI32.dll
 0000:fffcf000       .debug$S                   10000000     gdi32:GDI32.dll
 0000:fffcf000       .debug$S                   10000000     gdi32:GDI32.dll
 0000:fffcf000       .debug$S                   10000000     gdi32:GDI32.dll
 0000:fffcf000       .debug$S                   10000000     gdi32:GDI32.dll
 0000:fffcf000       .debug$S                   10000000     gdi32:GDI32.dll
 0000:fffcf000       .debug$S                   10000000     advapi32:ADVAPI32.dll
 0000:fffcf000       .debug$S                   10000000     advapi32:ADVAPI32.dll
 0000:fffcf000       .debug$S                   10000000     advapi32:ADVAPI32.dll
 0000:fffcf000       .debug$S                   10000000     advapi32:ADVAPI32.dll
 0000:fffcf000       .debug$S                   10000000     advapi32:ADVAPI32.dll
 0000:fffcf000       .debug$S                   10000000     advapi32:ADVAPI32.dll
 0000:fffcf000       .debug$S                   10000000     advapi32:ADVAPI32.dll
 0000:fffcf000       .debug$S                   10000000     advapi32:ADVAPI32.dll
 0000:fffcf000       .debug$S                   10000000     advapi32:ADVAPI32.dll
 0000:fffcf000       .debug$S                   10000000     ole32:ole32.dll
 0000:fffcf000       .debug$S                   10000000     ole32:ole32.dll
 0000:fffcf000       .debug$S                   10000000     ole32:ole32.dll
 0000:fffcf000       .debug$S                   10000000     ole32:ole32.dll
 0000:fffcf000       .debug$S                   10000000     ole32:ole32.dll
 0000:fffcf000       .debug$S                   10000000     ole32:ole32.dll
 0000:fffcf000       .debug$S                   10000000     ole32:ole32.dll
 0000:fffcf000       .debug$S                   10000000     ole32:ole32.dll
 0000:fffcf000       .debug$S                   10000000     ole32:ole32.dll
 0001:00000000       ??__E_AtlComModule@ATL@@YAXXZ 10001000 f   OposVariant.obj
 0001:00000016       ??__E_AtlWinModule@ATL@@YAXXZ 10001016 f   OposVariant.obj
 0001:0000002c       ??__E?pConnMap@?$IConnectionPointContainerImpl@VCOPOSMICR@@@ATL@@0PBU_ATL_CONNMAP_ENTRY@2@B@@YAXXZ 1000102c f   MICR.obj
 0001:0000003a       ??__E_Module@@YAXXZ        1000103a f   MICR.obj
 0001:00000064       ??__E_AtlBaseModule@ATL@@YAXXZ 10001064 f   atls:atlbase.obj
 0001:00001642       $LN36                      10002642     MICR.obj
 0001:00005bca       $LN50                      10006bca     MICR.obj
 0001:00005be2       $LN49                      10006be2     MICR.obj
 0001:00007a26       $LN37                      10008a26     MICR.obj
 0001:00007a3e       $LN36                      10008a3e     MICR.obj
 0001:00008ff4       $LN82                      10009ff4     MICR.obj
 0001:0000900c       $LN81                      1000a00c     MICR.obj
 0001:00009439       _memcpy_s                  1000a439 f   MICR.obj
 0001:0000b001       ?find_pe_section@@YAPAU_IMAGE_SECTION_HEADER@@QAEI@Z 1000c001 f   LIBCMT:utility.obj
 0001:0000b320       ?__scrt_initialize_thread_safe_statics@@YAHXZ 1000c320 f   LIBCMT:thread_safe_statics.obj
 0001:0000b347       ?__scrt_initialize_thread_safe_statics_platform_specific@@YAXXZ 1000c347 f   LIBCMT:thread_safe_statics.obj
 0001:0000b3c9       ?__scrt_uninitialize_thread_safe_statics@@YAXXZ 1000c3c9 f   LIBCMT:thread_safe_statics.obj
 0001:0000b738       __catch$??2@YAPAXIABUnothrow_t@std@@@Z$0 1000c738 f   LIBCMT:new_scalar_nothrow.obj
 0001:0000b770       $$000000                   1000c770     LIBCMT:sehprolg4gs.obj
 0001:0000b7d0       $$000000                   1000c7d0     LIBCMT:alloca16.obj
 0001:0000b800       $$000000                   1000c800     LIBCMT:chkstk.obj
 0001:0000b82d       ?dllmain_crt_dispatch@@YGHQAUHINSTANCE__@@KQAX@Z 1000c82d f   LIBCMT:dll_dllmain.obj
 0001:0000b880       ?dllmain_crt_process_attach@@YAHQAUHINSTANCE__@@QAX@Z 1000c880 f   LIBCMT:dll_dllmain.obj
 0001:0000b987       ?dllmain_crt_process_detach@@YAH_N@Z 1000c987 f   LIBCMT:dll_dllmain.obj
 0001:0000ba17       ?dllmain_dispatch@@YAHQAUHINSTANCE__@@KQAX@Z 1000ca17 f   LIBCMT:dll_dllmain.obj
 0001:0000bb1d       ?dllmain_raw@@YGHQAUHINSTANCE__@@KQAX@Z 1000cb1d f   LIBCMT:dll_dllmain.obj
 0001:0000be60       $$000000                   1000ce60     LIBCMT:sehprolg4.obj
 0001:0000bebc       ___get_entropy             1000cebc f   LIBCMT:gs_support.obj
 0001:0000c1b3       ??$GetProcAddressAll@P6GP6GJPAUHWND__@@IIJ@ZPAUAtlThunkData_t@@@Z@@YAP6GP6GJPAUHWND__@@IIJ@ZPAUAtlThunkData_t@@@ZPAP6GP6GJ0IIJ@Z1@Z@Z 1000d1b3 f   atls:atlthunk.obj
 0001:0000c1b3       ??$GetProcAddressAll@P6GPAUAtlThunkData_t@@XZ@@YAP6GPAUAtlThunkData_t@@XZPAP6GPAU0@XZ@Z 1000d1b3 f   atls:atlthunk.obj
 0001:0000c1b3       ??$GetProcAddressAll@P6GXPAUAtlThunkData_t@@PAXI@Z@@YAP6GXPAUAtlThunkData_t@@PAXI@ZPAP6GX01I@Z@Z 1000d1b3 f   atls:atlthunk.obj
 0001:0000c1b3       ??$GetProcAddressAll@P6GXPAUAtlThunkData_t@@@Z@@YAP6GXPAUAtlThunkData_t@@@ZPAP6GX0@Z@Z 1000d1b3 f   atls:atlthunk.obj
 0001:0000c263       ?GetProcAddressSingle@@YA_NPAUHINSTANCE__@@PBDPAPAX@Z 1000d263 f   atls:atlthunk.obj
 0001:0000c3b5       ?__InitializeThunkPool@@YAHXZ 1000d3b5 f   atls:atlthunk.obj
 0001:0000c810       _ValidateLocalCookies      1000d810 f   libvcruntime:chandler4.obj
 0001:0000d8d2       $LN1241                    1000e8d2     libvcruntime:memcmp.obj
 0001:0000d960       $$000000                   1000e960     libvcruntime:memcpy.obj
 0001:0000dbc4       TrailingUpVec              1000ebc4     libvcruntime:memcpy.obj
 0001:0000dc70       TrailingDownVec            1000ec70     libvcruntime:memcpy.obj
 0001:0000dee0       $$000000                   1000eee0     libvcruntime:memset.obj
 0001:0000e590       $$000000                   1000f590     libvcruntime:memmove.obj
 0001:0000e7f4       TrailingUpVec              1000f7f4     libvcruntime:memmove.obj
 0001:0000e8a0       TrailingDownVec            1000f8a0     libvcruntime:memmove.obj
 0001:0000eb10       $$000000                   1000fb10     libvcruntime:exsup4.obj
 0001:0000eba0       __unwind_handler4          1000fba0 f   libvcruntime:exsup4.obj
 0001:0000ee7f       ??$BuildCatchObjectHelperInternal@V__FrameHandler3@@@@YAHPAUEHExceptionRecord@@PAXPBU_s_HandlerType@@PBU_s_CatchableType@@@Z 1000fe7f f   libvcruntime:frame.obj
 0001:0000efbd       ??$BuildCatchObjectInternal@V__FrameHandler3@@@@YAXPAUEHExceptionRecord@@PAXPBU_s_HandlerType@@PBU_s_CatchableType@@@Z 1000ffbd f   libvcruntime:frame.obj
 0001:0000f056       ??$CatchIt@V__FrameHandler3@@@@YAXPAUEHExceptionRecord@@PAUEHRegistrationNode@@PAU_CONTEXT@@PAXPBU_s_FuncInfo@@PBU_s_HandlerType@@PBU_s_CatchableType@@PBU_s_TryBlockMapEntry@@H1EE@Z 10010056 f   libvcruntime:frame.obj
 0001:0000f0d6       ??$FindHandler@V__FrameHandler3@@@@YAXPAUEHExceptionRecord@@PAUEHRegistrationNode@@PAU_CONTEXT@@PAXPBU_s_FuncInfo@@EH1@Z 100100d6 f   libvcruntime:frame.obj
 0001:0000f475       ??$FindHandlerForForeignException@V__FrameHandler3@@@@YAXPAUEHExceptionRecord@@PAUEHRegistrationNode@@PAU_CONTEXT@@PAXPBU_s_FuncInfo@@HH1@Z 10010475 f   libvcruntime:frame.obj
 0001:0000f78d       ?CallCatchBlock@@YAPAXPAUEHExceptionRecord@@PAUEHRegistrationNode@@PAU_CONTEXT@@PBU_s_FuncInfo@@PAXHK@Z 1001078d f   libvcruntime:frame.obj
 0001:0000f951       ?CallUnexpected@@YAXPBU_s_ESTypeList@@@Z 10010951 f   libvcruntime:frame.obj
 0001:0000f971       __catch$?CallUnexpected@@YAXPBU_s_ESTypeList@@@Z$0 10010971 f   libvcruntime:frame.obj
 0001:0000f98b       ?ExFilterRethrow@@YAHPAU_EXCEPTION_POINTERS@@@Z 1001098b f   libvcruntime:frame.obj
 0001:0000fad5       ?IsInExceptionSpec@@YAEPAUEHExceptionRecord@@PBU_s_ESTypeList@@@Z 10010ad5 f   libvcruntime:frame.obj
 0001:0000fba0       $$000000                   10010ba0     libvcruntime:lowhelpr.obj
 0001:0000fbf0       $$000000                   10010bf0     libvcruntime:exsup.obj
 0001:0000fc11       __unwind_handler           10010c11 f   libvcruntime:exsup.obj
 0001:0000fd2e       ?try_get_first_available_module@@YAPAUHINSTANCE__@@QBW4module_id@?A0x09dcfcb8@@0@Z 10010d2e f   libvcruntime:winapi_downlevel.obj
 0001:0000fdda       ?try_get_function@@YAPAXW4function_id@?A0x09dcfcb8@@QBDQBW4module_id@2@2@Z 10010dda f   libvcruntime:winapi_downlevel.obj
 0001:000105a1       ??$common_tcsncpy_s@_W@@YAHQA_WIQB_WI@Z 100115a1 f   libucrt:wcsncpy_s.obj
 0001:00010677       ??$common_vsprintf@Vformat_validation_base@__crt_stdio_output@@_W@@YAH_KQA_WIQB_WQAU__crt_locale_pointers@@QAD@Z 10011677 f   libucrt:output.obj
 0001:000107fe       ??$common_vsprintf_s@_W@@YAH_KQA_WIQB_WQAU__crt_locale_pointers@@QAD@Z 100117fe f   libucrt:output.obj
 0001:00010f2d       $LN51                      10011f2d     libucrt:output.obj
 0001:00011428       $LN20                      10012428     libucrt:output.obj
 0001:0001143c       $LN17                      1001243c     libucrt:output.obj
 0001:00011c9b       ??$?RV<lambda_03b1d95aef87969028cfba75ccab2455>@@AAV<lambda_6e4b09c48022b2350581041d5f6b0c4c>@@V<lambda_22bdf7517842c4b3e53723af5aa32b9e>@@@?$__crt_seh_guarded_call@X@@QAEX$$QAV<lambda_03b1d95aef87969028cfba75ccab2455>@@AAV<lambda_6e4b09c48022b2350581041d5f6b0c4c>@@$$QAV<lambda_22bdf7517842c4b3e53723af5aa32b9e>@@@Z 10012c9b f   libucrt:exit.obj
 0001:00011ce8       ??R<lambda_6e4b09c48022b2350581041d5f6b0c4c>@@QBE@XZ 10012ce8 f   libucrt:exit.obj
 0001:00011dc2       ?atexit_exception_filter@@YAHK@Z 10012dc2 f   libucrt:exit.obj
 0001:00011dd5       ?common_exit@@YAXHW4_crt_exit_cleanup_mode@@W4_crt_exit_return_mode@@@Z 10012dd5 f   libucrt:exit.obj
 0001:00011e39       ?exit_or_terminate_process@@YAXI@Z 10012e39 f   libucrt:exit.obj
 0001:00011e7b       ?is_managed_app@@YA_NXZ    10012e7b f   libucrt:exit.obj
 0001:00011ebe       ?try_cor_exit_process@@YAXI@Z 10012ebe f   libucrt:exit.obj
 0001:00011f4c       ??$common_configure_argv@D@@YAHW4_crt_argv_mode@@@Z 10012f4c f   libucrt:argv_parsing.obj
 0001:00012082       ??$parse_command_line@D@@YAXPADPAPAD0PAI2@Z 10013082 f   libucrt:argv_parsing.obj
 0001:00012253       ??$common_initialize_environment_nolock@D@@YAHXZ 10013253 f   libucrt:environment_initialization.obj
 0001:000122a6       ??$create_environment@D@@YAQAPADQAD@Z 100132a6 f   libucrt:environment_initialization.obj
 0001:00012376       ??$free_environment@_W@@YAXQAPA_W@Z 10013376 f   libucrt:environment_initialization.obj
 0001:00012376       ??$free_environment@D@@YAXQAPAD@Z 10013376 f   libucrt:environment_initialization.obj
 0001:000123ce       ??$uninitialize_environment_internal@D@@YAXAAPAPAD@Z 100133ce f   libucrt:environment_initialization.obj
 0001:000123e9       ??$uninitialize_environment_internal@_W@@YAXAAPAPA_W@Z 100133e9 f   libucrt:environment_initialization.obj
 0001:00012440       ??$?RV<lambda_69a2805e680e0e292e8ba93315fe43a8>@@AAV<lambda_f03950bc5685219e0bcd2087efbe011e>@@V<lambda_03fcd07e894ec930e3f35da366ca99d6>@@@?$__crt_seh_guarded_call@H@@QAEH$$QAV<lambda_69a2805e680e0e292e8ba93315fe43a8>@@AAV<lambda_f03950bc5685219e0bcd2087efbe011e>@@$$QAV<lambda_03fcd07e894ec930e3f35da366ca99d6>@@@Z 10013440 f   libucrt:onexit.obj
 0001:0001249b       ??$?RV<lambda_8e746cf0007f6ed984d6f78af1fec997>@@AAV<lambda_22ebabd17bc4fa466a2aca6d8deb888d>@@V<lambda_18ed0c0b38a6dc0daf1e7ac6d6adf05e>@@@?$__crt_seh_guarded_call@H@@QAEH$$QAV<lambda_8e746cf0007f6ed984d6f78af1fec997>@@AAV<lambda_22ebabd17bc4fa466a2aca6d8deb888d>@@$$QAV<lambda_18ed0c0b38a6dc0daf1e7ac6d6adf05e>@@@Z 1001349b f   libucrt:onexit.obj
 0001:00012515       ??R<lambda_22ebabd17bc4fa466a2aca6d8deb888d>@@QBEHXZ 10013515 f   libucrt:onexit.obj
 0001:0001263e       ??R<lambda_f03950bc5685219e0bcd2087efbe011e>@@QBEHXZ 1001363e f   libucrt:onexit.obj
 0001:000127b7       _report_memory_leaks       100137b7 f   libucrt:initialization.obj
 0001:000127b7       _uninitialize_c            100137b7 f   libucrt:initialization.obj
 0001:000127b7       _initialize_environment    100137b7 f   libucrt:initialization.obj
 0001:000127b7       _initialize_global_state_isolation 100137b7 f   libucrt:initialization.obj
 0001:000127b7       _uninitialize_global_state_isolation 100137b7 f   libucrt:initialization.obj
 0001:000127ba       _initialize_global_variables 100137ba f   libucrt:initialization.obj
 0001:000127c7       _initialize_c              100137c7 f   libucrt:initialization.obj
 0001:000127e1       _uninitialize_environment  100137e1 f   libucrt:initialization.obj
 0001:000127e9       _initialize_pointers       100137e9 f   libucrt:initialization.obj
 0001:00012817       _uninitialize_vcruntime    10013817 f   libucrt:initialization.obj
 0001:00012820       _uninitialize_allocated_memory 10013820 f   libucrt:initialization.obj
 0001:00012837       _uninitialize_allocated_io_buffers 10013837 f   libucrt:initialization.obj
 0001:00012887       ??R<lambda_af42a3ee9806e9a7305d451646e05244>@@QBEXAAPAU__crt_multibyte_data@@@Z 10013887 f   libucrt:initialization.obj
 0001:00013170       $$000000                   10014170     libucrt:strncmp.obj
 0001:0001325c       ??$?RV<lambda_15ade71b0218206bbe3333a0c9b79046>@@AAV<lambda_da44e0f8b0f19ba52fefafb335991732>@@V<lambda_207f2d024fc103971653565357d6cd41>@@@?$__crt_seh_guarded_call@X@@QAEX$$QAV<lambda_15ade71b0218206bbe3333a0c9b79046>@@AAV<lambda_da44e0f8b0f19ba52fefafb335991732>@@$$QAV<lambda_207f2d024fc103971653565357d6cd41>@@@Z 1001425c f   libucrt:per_thread_data.obj
 0001:000132ae       ??$?RV<lambda_38edbb1296d33220d7e4dd0ed76b244a>@@AAV<lambda_5ce1d447e08cb34b2473517608e21441>@@V<lambda_fb385d3da700c9147fc39e65dd577a8c>@@@?$__crt_seh_guarded_call@X@@QAEX$$QAV<lambda_38edbb1296d33220d7e4dd0ed76b244a>@@AAV<lambda_5ce1d447e08cb34b2473517608e21441>@@$$QAV<lambda_fb385d3da700c9147fc39e65dd577a8c>@@@Z 100142ae f   libucrt:per_thread_data.obj
 0001:00013319       ??$?RV<lambda_6affb1475c98b40b75cdec977db92e3c>@@AAV<lambda_b8d4b9c228a6ecc3f80208dbb4b4a104>@@V<lambda_608742c3c92a14382c1684fc64f96c88>@@@?$__crt_seh_guarded_call@X@@QAEX$$QAV<lambda_6affb1475c98b40b75cdec977db92e3c>@@AAV<lambda_b8d4b9c228a6ecc3f80208dbb4b4a104>@@$$QAV<lambda_608742c3c92a14382c1684fc64f96c88>@@@Z 10014319 f   libucrt:per_thread_data.obj
 0001:0001336e       ??$?RV<lambda_a7e850c220f1c8d1e6efeecdedd162c6>@@AAV<lambda_46720907175c18b6c9d2717bc0d2d362>@@V<lambda_9048902d66e8d99359bc9897bbb930a8>@@@?$__crt_seh_guarded_call@X@@QAEX$$QAV<lambda_a7e850c220f1c8d1e6efeecdedd162c6>@@AAV<lambda_46720907175c18b6c9d2717bc0d2d362>@@$$QAV<lambda_9048902d66e8d99359bc9897bbb930a8>@@@Z 1001436e f   libucrt:per_thread_data.obj
 0001:000133c8       ?construct_ptd@@YAXQAU__acrt_ptd@@QAPAU__crt_locale_data@@@Z 100143c8 f   libucrt:per_thread_data.obj
 0001:00013461       ?destroy_fls@@YGXPAX@Z     10014461 f   libucrt:per_thread_data.obj
 0001:00013482       ?destroy_ptd@@YAXQAU__acrt_ptd@@@Z 10014482 f   libucrt:per_thread_data.obj
 0001:0001354f       ?replace_current_thread_locale_nolock@@YAXQAU__acrt_ptd@@QAU__crt_locale_data@@@Z 1001454f f   libucrt:per_thread_data.obj
 0001:0001395f       ?try_get_AreFileApisANSI@@YAP6GHXZXZ 1001495f f   libucrt:winapi_thunks.obj
 0001:00013979       ?try_get_LCMapStringEx@@YAP6GHPB_WK0HPA_WHPAU_nlsversioninfo@@PAXJ@ZXZ 10014979 f   libucrt:winapi_thunks.obj
 0001:00013993       ?try_get_LocaleNameToLCID@@YAP6GKPB_WK@ZXZ 10014993 f   libucrt:winapi_thunks.obj
 0001:000139ad       ?try_get_first_available_module@@YAPAUHINSTANCE__@@QBW4module_id@?A0x391cf84c@@0@Z 100149ad f   libucrt:winapi_thunks.obj
 0001:00013a74       ?try_get_function@@YAPAXW4function_id@?A0x391cf84c@@QBDQBW4module_id@2@2@Z 10014a74 f   libucrt:winapi_thunks.obj
 0001:000141d7       ?fp_format_a@@YAHQBNPADIQADIH_NIQAU__crt_locale_pointers@@@Z 100151d7 f   libucrt:cvt.obj
 0001:000144f0       ?fp_format_e@@YAHQBNQADI1IH_NIQAU__crt_locale_pointers@@@Z 100154f0 f   libucrt:cvt.obj
 0001:00014592       ?fp_format_e_internal@@YAHQADIH_NIQAU_strflt@@1QAU__crt_locale_pointers@@@Z 10015592 f   libucrt:cvt.obj
 0001:000146da       ?fp_format_f@@YAHQBNQADI1IHQAU__crt_locale_pointers@@@Z 100156da f   libucrt:cvt.obj
 0001:00014765       ?fp_format_f_internal@@YAHQADIHQAU_strflt@@_NQAU__crt_locale_pointers@@@Z 10015765 f   libucrt:cvt.obj
 0001:00014836       ?fp_format_g@@YAHQBNQADI1IH_NIQAU__crt_locale_pointers@@@Z 10015836 f   libucrt:cvt.obj
 0001:000148f7       ?fp_format_nan_or_infinity@@YAHW4__acrt_fp_class@@_NPADI1@Z 100158f7 f   libucrt:cvt.obj
 0001:0001498c       ?shift_bytes@@YAXQADI0H@Z  1001598c f   libucrt:cvt.obj
 0001:00014c73       ??$?RV<lambda_e5124f882df8998aaf41531e079ba474>@@AAV<lambda_3e16ef9562a7dcce91392c22ab16ea36>@@V<lambda_e25ca0880e6ef98be67edffd8c599615>@@@?$__crt_seh_guarded_call@X@@QAEX$$QAV<lambda_e5124f882df8998aaf41531e079ba474>@@AAV<lambda_3e16ef9562a7dcce91392c22ab16ea36>@@$$QAV<lambda_e25ca0880e6ef98be67edffd8c599615>@@@Z 10015c73 f   libucrt:wsetlocale.obj
 0001:00014d13       ?initialize_inherited_file_handles_nolock@@YAXXZ 10015d13 f   libucrt:ioinit.obj
 0001:00014dc9       ?initialize_stdio_handles_nolock@@YAXXZ 10015dc9 f   libucrt:ioinit.obj
 0001:00014fda       ?<lambda_invoker_cdecl>@<lambda_838c7f62c73c983481e27c09e84b0b5d>@@CAHPBX0@Z 10015fda f   libucrt:argv_wildcards.obj
 0001:00014ff2       ??$__acrt_convert_wcs_mbs_cp@D_WV<lambda_62f6974d9771e494a5ea317cc32e971c>@@U__crt_win32_buffer_internal_dynamic_resizing@@@@YAHQBDAAV?$__crt_win32_buffer@_WU__crt_win32_buffer_internal_dynamic_resizing@@@@ABV<lambda_62f6974d9771e494a5ea317cc32e971c>@@I@Z 10015ff2 f   libucrt:argv_wildcards.obj
 0001:000150a4       ??$__acrt_convert_wcs_mbs_cp@_WDV<lambda_28bda7af82a03b66c1cb3803a755f95d>@@U__crt_win32_buffer_internal_dynamic_resizing@@@@YAHQB_WAAV?$__crt_win32_buffer@DU__crt_win32_buffer_internal_dynamic_resizing@@@@ABV<lambda_28bda7af82a03b66c1cb3803a755f95d>@@I@Z 100160a4 f   libucrt:argv_wildcards.obj
 0001:00015190       ??$common_expand_argv_wildcards@D@@YAHQAPADQAPAPAD@Z 10016190 f   libucrt:argv_wildcards.obj
 0001:0001537f       ??$copy_and_add_argument_to_buffer@D@@YAHQBD0IAAV?$argument_list@D@?A0x5f5c8891@@@Z 1001637f f   libucrt:argv_wildcards.obj
 0001:00015430       ??$expand_argument_wildcards@D@@YAHQAD0AAV?$argument_list@D@?A0x5f5c8891@@@Z 10016430 f   libucrt:argv_wildcards.obj
 0001:0001577a       ?expand_if_necessary@?$argument_list@D@?A0x5f5c8891@@AAEHXZ 1001677a f   libucrt:argv_wildcards.obj
 0001:0001580c       ??$__acrt_convert_wcs_mbs_cp@_WDV<lambda_0fec1a7b3f42a53036604e18c2d5e07e>@@U__crt_win32_buffer_no_resizing@@@@YAHQB_WAAV?$__crt_win32_buffer@DU__crt_win32_buffer_no_resizing@@@@ABV<lambda_0fec1a7b3f42a53036604e18c2d5e07e>@@I@Z 1001680c f   libucrt:getmodulefilenamea.obj
 0001:000159af       ??$?RV<lambda_ceb1ee4838e85a9d631eb091e2fbe199>@@AAV<lambda_ae742caa10f662c28703da3d2ea5e57e>@@V<lambda_cd08b5d6af4937fe54fc07d0c9bf6b37>@@@?$__crt_seh_guarded_call@X@@QAEX$$QAV<lambda_ceb1ee4838e85a9d631eb091e2fbe199>@@AAV<lambda_ae742caa10f662c28703da3d2ea5e57e>@@$$QAV<lambda_cd08b5d6af4937fe54fc07d0c9bf6b37>@@@Z 100169af f   libucrt:mbctype.obj
 0001:000159fc       ??R<lambda_ae742caa10f662c28703da3d2ea5e57e>@@QBEXXZ 100169fc f   libucrt:mbctype.obj
 0001:00015a7f       ?CPtoLocaleName@@YAPB_WH@Z 10016a7f f   libucrt:mbctype.obj
 0001:00015abd       ?getSystemCP@@YAHH@Z       10016abd f   libucrt:mbctype.obj
 0001:00015b2e       ?setSBCS@@YAXPAU__crt_multibyte_data@@@Z 10016b2e f   libucrt:mbctype.obj
 0001:00015b93       ?setSBUpLow@@YAXPAU__crt_multibyte_data@@@Z 10016b93 f   libucrt:mbctype.obj
 0001:00015d14       ?setmbcp_internal@@YAHH_NQAU__acrt_ptd@@QAPAU__crt_multibyte_data@@@Z 10016d14 f   libucrt:mbctype.obj
 0001:00015e2d       ?update_thread_multibyte_data_internal@@YAPAU__crt_multibyte_data@@QAU__acrt_ptd@@QAPAU1@@Z 10016e2d f   libucrt:mbctype.obj
 0001:0001611b       _memcpy_s                  1001711b f   libucrt:cfout.obj
 0001:0001611b       _memcpy_s                  1001711b f   libucrt:mbctype.obj
 0001:0001619c       ?x_ismbbtype_l@@YAHPAU__crt_locale_pointers@@IHH@Z 1001719c f   libucrt:ismbbyte.obj
 0001:0001634d       ?find_end_of_double_null_terminated_sequence@@YAPB_WQB_W@Z 1001734d f   libucrt:get_environment_from_os.obj
 0001:000164bc       ??$?RV<lambda_cbab9ec6f41b0180b23cc171c22676b0>@@AAV<lambda_44731a7d0e6d81c3e6aa82d741081786>@@V<lambda_4b292cb8dd18144e164572427af410ab>@@@?$__crt_seh_guarded_call@P6AXH@Z@@QAEP6AXH@Z$$QAV<lambda_cbab9ec6f41b0180b23cc171c22676b0>@@AAV<lambda_44731a7d0e6d81c3e6aa82d741081786>@@$$QAV<lambda_4b292cb8dd18144e164572427af410ab>@@@Z 100174bc f   libucrt:signal.obj
 0001:00016520       ?get_global_action_nolock@@YAPAP6AXH@ZH@Z 10017520 f   libucrt:signal.obj
 0001:00016562       ?siglookup@@YAPAU__crt_signal_action_t@@HQAU1@@Z 10017562 f   libucrt:signal.obj
 0001:0001682c       ??$?RV<lambda_2866be3712abc81a800a822484c830d8>@@AAV<lambda_39ca0ed439415581b5b15c265174cece>@@V<lambda_2b24c74d71094a6cd0cb82e44167d71b>@@@?$__crt_seh_guarded_call@X@@QAEX$$QAV<lambda_2866be3712abc81a800a822484c830d8>@@AAV<lambda_39ca0ed439415581b5b15c265174cece>@@$$QAV<lambda_2b24c74d71094a6cd0cb82e44167d71b>@@@Z 1001782c f   libucrt:fflush.obj
 0001:000168b8       ??$?RV<lambda_2cc53f568c5a2bb6f192f930a45d44ea>@@AAV<lambda_ab61a845afdef5b7c387490eaf3616ee>@@V<lambda_c2ffc0b7726aa6be21d5f0026187e748>@@@?$__crt_seh_guarded_call@X@@QAEX$$QAV<lambda_2cc53f568c5a2bb6f192f930a45d44ea>@@AAV<lambda_ab61a845afdef5b7c387490eaf3616ee>@@$$QAV<lambda_c2ffc0b7726aa6be21d5f0026187e748>@@@Z 100178b8 f   libucrt:fflush.obj
 0001:00016964       ?common_flush_all@@YAH_N@Z 10017964 f   libucrt:fflush.obj
 0001:000169b1       ?common_flush_all_should_try_to_flush_stream@@YA_NV__crt_stdio_stream@@QAH@Z 100179b1 f   libucrt:fflush.obj
 0001:000169e4       ?is_stream_flushable_or_commitable@@YA_NJ@Z 100179e4 f   libucrt:fflush.obj
 0001:00016eed       ?GetTableIndexFromLocaleName@@YAHPB_W@Z 10017eed f   libucrt:lcidtoname_downlevel.obj
 0001:00016fa3       ??R<lambda_3d301b9e52f5099be73030e1f0bf487e>@@QBEIPBD@Z 10017fa3 f   libucrt:mbrtowc.obj
 0001:00018c7a       ?free_crt_array_internal@@YAXQAPBXI@Z 10019c7a f   libucrt:inittime.obj
 0001:00019150       ?swap@@YAXPAD0I@Z          1001a150 f   libucrt:qsort.obj
 0001:000195d4       ??$common_tcsncpy_s@D@@YAHQADIQBDI@Z 1001a5d4 f   libucrt:strncpy_s.obj
 0001:000196a0       $$000000                   1001a6a0     libucrt:strpbrk.obj
 0001:00019784       ?__acrt_LCMapStringA_stat@@YAHPAU__crt_locale_pointers@@PB_WKPBDHPADHHH@Z 1001a784 f   libucrt:lcmapstringa.obj
 0001:000199b7       ?initialize_multibyte@@YAHXZ 1001a9b7 f   libucrt:multibyte_initializer.obj
 0001:000199c6       ??$?RV<lambda_9e9de3de5fa147e2223d7db92bc10aa6>@@AAV<lambda_38ce7e780aa69e748d6df282ebc68efe>@@V<lambda_8ca6da459f0f6780f1cff60fdc3d00e5>@@@?$__crt_seh_guarded_call@H@@QAEH$$QAV<lambda_9e9de3de5fa147e2223d7db92bc10aa6>@@AAV<lambda_38ce7e780aa69e748d6df282ebc68efe>@@$$QAV<lambda_8ca6da459f0f6780f1cff60fdc3d00e5>@@@Z 1001a9c6 f   libucrt:commit.obj
 0001:00019ae5       ?write_double_translated_ansi_nolock@@YA?AUwrite_result@?A0x17268360@@HQBDI@Z 1001aae5 f   libucrt:write.obj
 0001:00019e8f       ?write_double_translated_unicode_nolock@@YA?AUwrite_result@?A0x17268360@@QBDI@Z 1001ae8f f   libucrt:write.obj
 0001:00019ef7       ?write_requires_double_translation_nolock@@YA_NH@Z 1001aef7 f   libucrt:write.obj
 0001:00019f68       ?write_text_ansi_nolock@@YA?AUwrite_result@?A0x17268360@@HQBDI@Z 1001af68 f   libucrt:write.obj
 0001:0001a043       ?write_text_utf16le_nolock@@YA?AUwrite_result@?A0x17268360@@HQBDI@Z 1001b043 f   libucrt:write.obj
 0001:0001a12c       ?write_text_utf8_nolock@@YA?AUwrite_result@?A0x17268360@@HQBDI@Z 1001b12c f   libucrt:write.obj
 0001:0001a800       $$000000                   1001b800     libucrt:log10_impl.obj
 0001:0001a910       $$000000                   1001b910     libucrt:ceil_pentium4.obj
 0001:0001aa2d       ??$common_lseek_nolock@_J@@YA_JH_JH@Z 1001ba2d f   libucrt:lseek.obj
 0001:0001ac13       ?to_abstract_control@@YA?AW4__acrt_fenv_abstract_control@@W4__acrt_fenv_machine_sse_control@@@Z 1001bc13 f   libucrt:_fenvutils.obj
 0001:0001accf       ?to_abstract_control@@YA?AW4__acrt_fenv_abstract_control@@W4__acrt_fenv_machine_x87_control@@@Z 1001bccf f   libucrt:_fenvutils.obj
 0001:0001ad88       ?to_machine_sse_control@@YA?AW4__acrt_fenv_machine_sse_control@@W4__acrt_fenv_abstract_control@@@Z 1001bd88 f   libucrt:_fenvutils.obj
 0001:0001ae55       ?to_machine_x87_control@@YA?AW4__acrt_fenv_machine_x87_control@@W4__acrt_fenv_abstract_control@@@Z 1001be55 f   libucrt:_fenvutils.obj
 0001:0001b2b0       $$000000                   1001c2b0     libucrt:log10_pentium4.obj
 0001:0001b540       $$000000                   1001c540     libucrt:87tran.obj
 0001:0001b750       $$000000                   1001c750     libucrt:87disp.obj
 0001:0001b9b0       $$000000                   1001c9b0     libucrt:common.obj
 0001:0001bb40       $$000000                   1001cb40     libucrt:genexcep.obj
 0001:0001be3c       ??$?RV<lambda_218ce3db14220d0be481dae8ef3383b6>@@AAV<lambda_628dfdc04ba53c8bfc02c9951375f3f5>@@V<lambda_57dc472bd5c9d5f3b2cbca59b8a843ae>@@@?$__crt_seh_guarded_call@H@@QAEH$$QAV<lambda_218ce3db14220d0be481dae8ef3383b6>@@AAV<lambda_628dfdc04ba53c8bfc02c9951375f3f5>@@$$QAV<lambda_57dc472bd5c9d5f3b2cbca59b8a843ae>@@@Z 1001ce3c f   libucrt:close.obj
 0001:0001c030       $$000000                   1001d030     libucrt:_strnicm.obj
 0001:0001c091       ?__dcrt_lowio_initialize_console_output@@YAXXZ 1001d091 f   libucrt:initcon.obj
 0001:0001cef0       $$000000                   1001def0     LIBCMT:ulldvrm.obj
 0001:0001cf90       $$000000                   1001df90     LIBCMT:llmul.obj
 0001:0001cfd0       $$000000                   1001dfd0     LIBCMT:lldvrm.obj
 0001:0001d0b0       $$000000                   1001e0b0     LIBCMT:ullshr.obj
 0001:0001d0d0       $$000000                   1001e0d0     LIBCMT:llshl.obj
 0001:0001d0f0       $$000000                   1001e0f0     LIBCMT:ftol2.obj
 0001:0001d1b0       $$000000                   1001e1b0     libvcruntime:strrchr.obj
 0001:0001d2f0       $$000000                   1001e2f0     libvcruntime:strchr.obj
 0001:0001d493       __ehhandler$??2@YAPAXIABUnothrow_t@std@@@Z 1001e493 f   LIBCMT:new_scalar_nothrow.obj
 0001:0001d4ae       __ehhandler$?CallUnexpected@@YAXPBU_s_ESTypeList@@@Z 1001e4ae f   libvcruntime:frame.obj
 0001:0001d4c9       ??__F_AtlComModule@ATL@@YAXXZ 1001e4c9 f   OposVariant.obj
 0001:0001d4d3       ??__F_AtlWinModule@ATL@@YAXXZ 1001e4d3 f   OposVariant.obj
 0001:0001d4ed       ??__F_Module@@YAXXZ        1001e4ed f   MICR.obj
 0001:0001d501       ??__F_AtlBaseModule@ATL@@YAXXZ 1001e501 f   atls:atlbase.obj
 0002:00000304       ?_AtlBaseModule$initializer$@ATL@@3P6AXXZA 1001f304     atls:atlbase.obj
 0002:00000308       ?_AtlComModule$initializer$@ATL@@3P6AXXZA 1001f308     OposVariant.obj
 0002:0000030c       ?_AtlWinModule$initializer$@ATL@@3P6AXXZA 1001f30c     OposVariant.obj
 0002:00000310       ?_Module$initializer$@@3P6AXXZA 1001f310     MICR.obj
 0002:00000314       ??pConnMap$initializer$@?$IConnectionPointContainerImpl@VCOPOSMICR@@@ATL@@0P6AXXZA@@3P6AXXZA 1001f314     MICR.obj
 0002:00000320       ?__scrt_initialize_tss_var@@3P6AHXZA 1001f320     LIBCMT:thread_safe_statics.obj
 0002:00001870       _GS_ExceptionPointers      10020870     LIBCMT:gs_report.obj
 0002:000019e0       ?ExceptionTemplate@?1??_CxxThrowException@@9@8@4UEHExceptionRecord@@B 100209e0     libvcruntime:throw.obj
 0002:00001a20       ?tokenTable@@3QBQBDB       10020a20     libvcruntime:undname.obj
 0002:00001a60       ?nameTable@@3QBQBDB        10020a60     libvcruntime:undname.obj
 0002:00001bac       ?rttiTable@@3QBQBDB        10020bac     libvcruntime:undname.obj
 0002:000021c8       ?module_names@?A0x09dcfcb8@@3QBQB_WB 100211c8     libvcruntime:winapi_downlevel.obj
 0002:00002270       ?candidate_modules@?1??try_get_FlsAlloc@@YAP6GKP6GXPAX@Z@ZXZ@4QBW4module_id@?A0x09dcfcb8@@B 10021270     libvcruntime:winapi_downlevel.obj
 0002:00002284       ?candidate_modules@?1??try_get_FlsFree@@YAP6GHK@ZXZ@4QBW4module_id@?A0x09dcfcb8@@B 10021284     libvcruntime:winapi_downlevel.obj
 0002:00002294       ?candidate_modules@?1??try_get_FlsGetValue@@YAP6GPAXK@ZXZ@4QBW4module_id@?A0x09dcfcb8@@B 10021294     libvcruntime:winapi_downlevel.obj
 0002:000022a8       ?candidate_modules@?1??try_get_FlsSetValue@@YAP6GHKPAX@ZXZ@4QBW4module_id@?A0x09dcfcb8@@B 100212a8     libvcruntime:winapi_downlevel.obj
 0002:000022bc       ?candidate_modules@?1??try_get_InitializeCriticalSectionEx@@YAP6GHPAU_RTL_CRITICAL_SECTION@@KK@ZXZ@4QBW4module_id@?A0x09dcfcb8@@B 100212bc     libvcruntime:winapi_downlevel.obj
 0002:000022e8       ?errtable@@3QBUerrentry@?A0x31fdb9ec@@B 100212e8     libucrt:errno.obj
 0002:00002590       ___acrt_initializers       10021590     libucrt:initialization.obj
 0002:00002610       ?module_names@?A0x391cf84c@@3QBQB_WB 10021610     libucrt:winapi_thunks.obj
 0002:00002a88       ?candidate_modules@?1??try_get_AreFileApisANSI@@YAP6GHXZXZ@4QBW4module_id@?A0x391cf84c@@B 10021a88     libucrt:winapi_thunks.obj
 0002:00002a9c       ?candidate_modules@?1??try_get_FlsAlloc@@YAP6GKP6GXPAX@Z@ZXZ@4QBW4module_id@?A0x391cf84c@@B 10021a9c     libucrt:winapi_thunks.obj
 0002:00002aa4       ?candidate_modules@?1??try_get_FlsFree@@YAP6GHK@ZXZ@4QBW4module_id@?A0x391cf84c@@B 10021aa4     libucrt:winapi_thunks.obj
 0002:00002aac       ?candidate_modules@?1??try_get_FlsGetValue@@YAP6GPAXK@ZXZ@4QBW4module_id@?A0x391cf84c@@B 10021aac     libucrt:winapi_thunks.obj
 0002:00002ab4       ?candidate_modules@?1??try_get_FlsSetValue@@YAP6GHKPAX@ZXZ@4QBW4module_id@?A0x391cf84c@@B 10021ab4     libucrt:winapi_thunks.obj
 0002:00002abc       ?candidate_modules@?1??try_get_InitializeCriticalSectionEx@@YAP6GHPAU_RTL_CRITICAL_SECTION@@KK@ZXZ@4QBW4module_id@?A0x391cf84c@@B 10021abc     libucrt:winapi_thunks.obj
 0002:00002ac4       ?candidate_modules@?1??try_get_LCMapStringEx@@YAP6GHPB_WK0HPA_WHPAU_nlsversioninfo@@PAXJ@ZXZ@4QBW4module_id@?A0x391cf84c@@B 10021ac4     libucrt:winapi_thunks.obj
 0002:00002adc       ?candidate_modules@?1??try_get_LocaleNameToLCID@@YAP6GKPB_WK@ZXZ@4QBW4module_id@?A0x391cf84c@@B 10021adc     libucrt:winapi_thunks.obj
 0002:00002af8       ?candidate_modules@?1??try_get_AppPolicyGetProcessTerminationMethod@@YAP6GJPAXPAW4AppPolicyProcessTerminationMethod@@@ZXZ@4QBW4module_id@?A0x391cf84c@@B 10021af8     libucrt:winapi_thunks.obj
 0002:00002b24       ?candidate_modules@?1??try_get_SetThreadStackGuarantee@@YAP6GHPAK@ZXZ@4QBW4module_id@?A0x391cf84c@@B 10021b24     libucrt:winapi_thunks.obj
 0002:00002b48       ?strings@?1??fp_format_nan_or_infinity@@YAHW4__acrt_fp_class@@_NPADI1@Z@4QAY03QBDA 10021b48     libucrt:cvt.obj
 0002:00003090       ?_mb_locale_names@@3QBQB_WB 10022090     libucrt:mbctype.obj
 0002:000038d8       ?LcidToLocaleNameTable@?A0x881e4c05@@3QBULcidToLocaleName@1@B 100228d8     libucrt:lcidtoname_downlevel.obj
 0002:00004a00       ?LocaleNameToIndexTable@?A0x881e4c05@@3QBULocaleNameIndex@1@B 10023a00     libucrt:lcidtoname_downlevel.obj
 0002:00006258       ?large_power_indices@?1??multiply_by_power_of_ten@__crt_strtox@@YA_NAAUbig_integer@2@I@Z@4QBUunpack_index@?1??12@YA_N0I@Z@B 10025258     libucrt:cfout.obj
 0002:00006340       LOG_name                   10025340     libucrt:log10_impl.obj
 0002:00006350       _One                       10025350     libucrt:ceil_pentium4.obj
 0002:00006360       _Bns                       10025360     libucrt:ceil_pentium4.obj
 0002:00006370       _Zero                      10025370     libucrt:ceil_pentium4.obj
 0002:00006380       _S                         10025380     libucrt:ceil_pentium4.obj
 0002:00006390       _NegZero                   10025390     libucrt:ceil_pentium4.obj
 0002:000063a0       emask                      100253a0     libucrt:log10_pentium4.obj
 0002:000063b0       CC                         100253b0     libucrt:log10_pentium4.obj
 0002:000063c0       Magic                      100253c0     libucrt:log10_pentium4.obj
 0002:000063d0       hi_mask                    100253d0     libucrt:log10_pentium4.obj
 0002:000063e0       LOG10_2                    100253e0     libucrt:log10_pentium4.obj
 0002:000063f0       place_L                    100253f0     libucrt:log10_pentium4.obj
 0002:00006410       One                        10025410     libucrt:log10_pentium4.obj
 0002:00006420       Zero                       10025420     libucrt:log10_pentium4.obj
 0002:00006430       Two52                      10025430     libucrt:log10_pentium4.obj
 0002:00006440       Infs                       10025440     libucrt:log10_pentium4.obj
 0002:00006450       NaN                        10025450     libucrt:log10_pentium4.obj
 0002:00006460       coeff                      10025460     libucrt:log10_pentium4.obj
 0002:000064be       _log2max                   100254be     libucrt:87tran.obj
 0002:000064c8       _smallarg                  100254c8     libucrt:87tran.obj
 0002:000064d2       _half                      100254d2     libucrt:87tran.obj
 0002:0000651e       One                        1002551e     libucrt:87disp.obj
 0002:00006526       Three                      10025526     libucrt:87disp.obj
 0002:0000652e       XAMtoTagTab                1002552e     libucrt:87disp.obj
 0002:00006540       One                        10025540     libucrt:common.obj
 0002:00006554       DblMax                     10025554     libucrt:common.obj
 0002:0000655c       DblMin                     1002555c     libucrt:common.obj
 0002:00006564       IeeeAdjO                   10025564     libucrt:common.obj
 0002:0000656c       IeeeAdjU                   1002556c     libucrt:common.obj
 0002:00006574       _infinity                  10025574     libucrt:common.obj
 0002:0000657c       _zero                      1002557c     libucrt:common.obj
 0002:000065c8       _over                      100255c8     libucrt:fpctrl.obj
 0002:000065d4       _under                     100255d4     libucrt:fpctrl.obj
 0002:00006e08       ?_names@?1??_get_fname@@9@9 10025e08     libucrt:fpexcept.obj
 0002:00007650       __sehtable$?_AtlVerifyStackAvailable@_ATL_SAFE_ALLOCA_IMPL@ATL@@YA_NK@Z 10026650     MICR.obj
 0002:00007670       __sehtable$___scrt_is_nonwritable_in_current_image 10026670     LIBCMT:utility.obj
 0002:0000768c       __catchsym$??2@YAPAXIABUnothrow_t@std@@@Z$2 1002668c     LIBCMT:new_scalar_nothrow.obj
 0002:0000769c       __unwindtable$??2@YAPAXIABUnothrow_t@std@@@Z 1002669c     LIBCMT:new_scalar_nothrow.obj
 0002:000076ac       __tryblocktable$??2@YAPAXIABUnothrow_t@std@@@Z 100266ac     LIBCMT:new_scalar_nothrow.obj
 0002:000076c0       __ehfuncinfo$??2@YAPAXIABUnothrow_t@std@@@Z 100266c0     LIBCMT:new_scalar_nothrow.obj
 0002:000076e8       __sehtable$?dllmain_crt_process_attach@@YAHQAUHINSTANCE__@@QAX@Z 100266e8     LIBCMT:dll_dllmain.obj
 0002:00007708       __sehtable$?dllmain_crt_process_detach@@YAH_N@Z 10026708     LIBCMT:dll_dllmain.obj
 0002:00007728       __sehtable$?dllmain_dispatch@@YAHQAUHINSTANCE__@@KQAX@Z 10026728     LIBCMT:dll_dllmain.obj
 0002:000077d8       __sehtable$?FrameUnwindToState@__FrameHandler3@@SAXPAUEHRegistrationNode@@PAXPBU_s_FuncInfo@@H@Z 100267d8     libvcruntime:frame.obj
 0002:00007800       __sehtable$?CallCatchBlock@@YAPAXPAUEHExceptionRecord@@PAUEHRegistrationNode@@PAU_CONTEXT@@PBU_s_FuncInfo@@PAXHK@Z 10026800     libvcruntime:frame.obj
 0002:00007828       __catchsym$?CallUnexpected@@YAXPBU_s_ESTypeList@@@Z$2 10026828     libvcruntime:frame.obj
 0002:00007838       __unwindtable$?CallUnexpected@@YAXPBU_s_ESTypeList@@@Z 10026838     libvcruntime:frame.obj
 0002:00007848       __tryblocktable$?CallUnexpected@@YAXPBU_s_ESTypeList@@@Z 10026848     libvcruntime:frame.obj
 0002:0000785c       __ehfuncinfo$?CallUnexpected@@YAXPBU_s_ESTypeList@@@Z 1002685c     libvcruntime:frame.obj
 0002:00007880       __sehtable$??$BuildCatchObjectHelperInternal@V__FrameHandler3@@@@YAHPAUEHExceptionRecord@@PAXPBU_s_HandlerType@@PBU_s_CatchableType@@@Z 10026880     libvcruntime:frame.obj
 0002:000078a0       __sehtable$??$BuildCatchObjectInternal@V__FrameHandler3@@@@YAXPAUEHExceptionRecord@@PAXPBU_s_HandlerType@@PBU_s_CatchableType@@@Z 100268a0     libvcruntime:frame.obj
 0002:000078f8       __sehtable$___DestructExceptionObject 100268f8     libvcruntime:ehhelpers.obj
 0002:00007918       __sehtable$??R<lambda_6e4b09c48022b2350581041d5f6b0c4c>@@QBE@XZ 10026918     libucrt:exit.obj
 0002:00007938       __sehtable$??$?RV<lambda_03b1d95aef87969028cfba75ccab2455>@@AAV<lambda_6e4b09c48022b2350581041d5f6b0c4c>@@V<lambda_22bdf7517842c4b3e53723af5aa32b9e>@@@?$__crt_seh_guarded_call@X@@QAEX$$QAV<lambda_03b1d95aef87969028cfba75ccab2455>@@AAV<lambda_6e4b09c48022b2350581041d5f6b0c4c>@@$$QAV<lambda_22bdf7517842c4b3e53723af5aa32b9e>@@@Z 10026938     libucrt:exit.obj
 0002:00007958       __sehtable$??$?RV<lambda_8e746cf0007f6ed984d6f78af1fec997>@@AAV<lambda_22ebabd17bc4fa466a2aca6d8deb888d>@@V<lambda_18ed0c0b38a6dc0daf1e7ac6d6adf05e>@@@?$__crt_seh_guarded_call@H@@QAEH$$QAV<lambda_8e746cf0007f6ed984d6f78af1fec997>@@AAV<lambda_22ebabd17bc4fa466a2aca6d8deb888d>@@$$QAV<lambda_18ed0c0b38a6dc0daf1e7ac6d6adf05e>@@@Z 10026958     libucrt:onexit.obj
 0002:00007978       __sehtable$??$?RV<lambda_69a2805e680e0e292e8ba93315fe43a8>@@AAV<lambda_f03950bc5685219e0bcd2087efbe011e>@@V<lambda_03fcd07e894ec930e3f35da366ca99d6>@@@?$__crt_seh_guarded_call@H@@QAEH$$QAV<lambda_69a2805e680e0e292e8ba93315fe43a8>@@AAV<lambda_f03950bc5685219e0bcd2087efbe011e>@@$$QAV<lambda_03fcd07e894ec930e3f35da366ca99d6>@@@Z 10026978     libucrt:onexit.obj
 0002:00007998       __sehtable$__query_new_handler 10026998     libucrt:new_handler.obj
 0002:000079b8       __sehtable$_terminate      100269b8     libucrt:terminate.obj
 0002:000079d8       __sehtable$??$?RV<lambda_15ade71b0218206bbe3333a0c9b79046>@@AAV<lambda_da44e0f8b0f19ba52fefafb335991732>@@V<lambda_207f2d024fc103971653565357d6cd41>@@@?$__crt_seh_guarded_call@X@@QAEX$$QAV<lambda_15ade71b0218206bbe3333a0c9b79046>@@AAV<lambda_da44e0f8b0f19ba52fefafb335991732>@@$$QAV<lambda_207f2d024fc103971653565357d6cd41>@@@Z 100269d8     libucrt:per_thread_data.obj
 0002:000079f8       __sehtable$??$?RV<lambda_a7e850c220f1c8d1e6efeecdedd162c6>@@AAV<lambda_46720907175c18b6c9d2717bc0d2d362>@@V<lambda_9048902d66e8d99359bc9897bbb930a8>@@@?$__crt_seh_guarded_call@X@@QAEX$$QAV<lambda_a7e850c220f1c8d1e6efeecdedd162c6>@@AAV<lambda_46720907175c18b6c9d2717bc0d2d362>@@$$QAV<lambda_9048902d66e8d99359bc9897bbb930a8>@@@Z 100269f8     libucrt:per_thread_data.obj
 0002:00007a18       __sehtable$??$?RV<lambda_38edbb1296d33220d7e4dd0ed76b244a>@@AAV<lambda_5ce1d447e08cb34b2473517608e21441>@@V<lambda_fb385d3da700c9147fc39e65dd577a8c>@@@?$__crt_seh_guarded_call@X@@QAEX$$QAV<lambda_38edbb1296d33220d7e4dd0ed76b244a>@@AAV<lambda_5ce1d447e08cb34b2473517608e21441>@@$$QAV<lambda_fb385d3da700c9147fc39e65dd577a8c>@@@Z 10026a18     libucrt:per_thread_data.obj
 0002:00007a38       __sehtable$??$?RV<lambda_6affb1475c98b40b75cdec977db92e3c>@@AAV<lambda_b8d4b9c228a6ecc3f80208dbb4b4a104>@@V<lambda_608742c3c92a14382c1684fc64f96c88>@@@?$__crt_seh_guarded_call@X@@QAEX$$QAV<lambda_6affb1475c98b40b75cdec977db92e3c>@@AAV<lambda_b8d4b9c228a6ecc3f80208dbb4b4a104>@@$$QAV<lambda_608742c3c92a14382c1684fc64f96c88>@@@Z 10026a38     libucrt:per_thread_data.obj
 0002:00007a58       __sehtable$??$?RV<lambda_e5124f882df8998aaf41531e079ba474>@@AAV<lambda_3e16ef9562a7dcce91392c22ab16ea36>@@V<lambda_e25ca0880e6ef98be67edffd8c599615>@@@?$__crt_seh_guarded_call@X@@QAEX$$QAV<lambda_e5124f882df8998aaf41531e079ba474>@@AAV<lambda_3e16ef9562a7dcce91392c22ab16ea36>@@$$QAV<lambda_e25ca0880e6ef98be67edffd8c599615>@@@Z 10026a58     libucrt:wsetlocale.obj
 0002:00007a78       __sehtable$___acrt_initialize_lowio 10026a78     libucrt:ioinit.obj
 0002:00007a98       __sehtable$?update_thread_multibyte_data_internal@@YAPAU__crt_multibyte_data@@QAU__acrt_ptd@@QAPAU1@@Z 10026a98     libucrt:mbctype.obj
 0002:00007ab8       __sehtable$??$?RV<lambda_ceb1ee4838e85a9d631eb091e2fbe199>@@AAV<lambda_ae742caa10f662c28703da3d2ea5e57e>@@V<lambda_cd08b5d6af4937fe54fc07d0c9bf6b37>@@@?$__crt_seh_guarded_call@X@@QAEX$$QAV<lambda_ceb1ee4838e85a9d631eb091e2fbe199>@@AAV<lambda_ae742caa10f662c28703da3d2ea5e57e>@@$$QAV<lambda_cd08b5d6af4937fe54fc07d0c9bf6b37>@@@Z 10026ab8     libucrt:mbctype.obj
 0002:00007ad8       __sehtable$_raise          10026ad8     libucrt:signal.obj
 0002:00007af8       __sehtable$??$?RV<lambda_cbab9ec6f41b0180b23cc171c22676b0>@@AAV<lambda_44731a7d0e6d81c3e6aa82d741081786>@@V<lambda_4b292cb8dd18144e164572427af410ab>@@@?$__crt_seh_guarded_call@P6AXH@Z@@QAEP6AXH@Z$$QAV<lambda_cbab9ec6f41b0180b23cc171c22676b0>@@AAV<lambda_44731a7d0e6d81c3e6aa82d741081786>@@$$QAV<lambda_4b292cb8dd18144e164572427af410ab>@@@Z 10026af8     libucrt:signal.obj
 0002:00007b18       __sehtable$??$?RV<lambda_2866be3712abc81a800a822484c830d8>@@AAV<lambda_39ca0ed439415581b5b15c265174cece>@@V<lambda_2b24c74d71094a6cd0cb82e44167d71b>@@@?$__crt_seh_guarded_call@X@@QAEX$$QAV<lambda_2866be3712abc81a800a822484c830d8>@@AAV<lambda_39ca0ed439415581b5b15c265174cece>@@$$QAV<lambda_2b24c74d71094a6cd0cb82e44167d71b>@@@Z 10026b18     libucrt:fflush.obj
 0002:00007b38       __sehtable$??$?RV<lambda_2cc53f568c5a2bb6f192f930a45d44ea>@@AAV<lambda_ab61a845afdef5b7c387490eaf3616ee>@@V<lambda_c2ffc0b7726aa6be21d5f0026187e748>@@@?$__crt_seh_guarded_call@X@@QAEX$$QAV<lambda_2cc53f568c5a2bb6f192f930a45d44ea>@@AAV<lambda_ab61a845afdef5b7c387490eaf3616ee>@@$$QAV<lambda_c2ffc0b7726aa6be21d5f0026187e748>@@@Z 10026b38     libucrt:fflush.obj
 0002:00007b58       __sehtable$___acrt_update_thread_locale_data 10026b58     libucrt:locale_refcounting.obj
 0002:00007b78       __sehtable$__fcloseall     10026b78     libucrt:closeall.obj
 0002:00007b98       __sehtable$___acrt_lowio_ensure_fh_exists 10026b98     libucrt:osfinfo.obj
 0002:00007bb8       __sehtable$??$?RV<lambda_9e9de3de5fa147e2223d7db92bc10aa6>@@AAV<lambda_38ce7e780aa69e748d6df282ebc68efe>@@V<lambda_8ca6da459f0f6780f1cff60fdc3d00e5>@@@?$__crt_seh_guarded_call@H@@QAEH$$QAV<lambda_9e9de3de5fa147e2223d7db92bc10aa6>@@AAV<lambda_38ce7e780aa69e748d6df282ebc68efe>@@$$QAV<lambda_8ca6da459f0f6780f1cff60fdc3d00e5>@@@Z 10026bb8     libucrt:commit.obj
 0002:00007bd8       __sehtable$__write         10026bd8     libucrt:write.obj
 0002:00007bf8       __sehtable$_fclose         10026bf8     libucrt:fclose.obj
 0002:00007c18       __sehtable$??$?RV<lambda_218ce3db14220d0be481dae8ef3383b6>@@AAV<lambda_628dfdc04ba53c8bfc02c9951375f3f5>@@V<lambda_57dc472bd5c9d5f3b2cbca59b8a843ae>@@@?$__crt_seh_guarded_call@H@@QAEH$$QAV<lambda_218ce3db14220d0be481dae8ef3383b6>@@AAV<lambda_628dfdc04ba53c8bfc02c9951375f3f5>@@$$QAV<lambda_57dc472bd5c9d5f3b2cbca59b8a843ae>@@@Z 10026c18     libucrt:close.obj
 0002:00007c38       __sehtable$__IsNonwritableInCurrentImage 10026c38     LIBCMT:pesect.obj
 0002:00007c60       .edata                     10026c60     OPOSMICR.exp
 0002:00007c88       rgpv                       10026c88     OPOSMICR.exp
 0002:00007c98       rgszName                   10026c98     OPOSMICR.exp
 0002:00007ca8       rgwOrd                     10026ca8     OPOSMICR.exp
 0002:00007cb0       szName                     10026cb0     OPOSMICR.exp
 0002:00007cbd       $N00001                    10026cbd     OPOSMICR.exp
 0002:00007ccd       $N00002                    10026ccd     OPOSMICR.exp
 0002:00007cdf       $N00003                    10026cdf     OPOSMICR.exp
 0002:00007cf1       $N00004                    10026cf1     OPOSMICR.exp
 0002:00008302       .idata$6                   10027302     kernel32:KERNEL32.dll
 0002:00008516       .idata$6                   10027516     user32:USER32.dll
 0002:0000864a       .idata$6                   1002764a     gdi32:GDI32.dll
 0002:000086f0       .idata$6                   100276f0     advapi32:ADVAPI32.dll
 0002:0000880c       .idata$6                   1002780c     ole32:ole32.dll
 0002:00008816       .idata$6                   10027816     oleaut32:OLEAUT32.dll
 0003:00000110       ?ObjectMap@@3PAU_ATL_OBJMAP_ENTRY30@ATL@@A 10028110     MICR.obj
 0003:000001a4       ?s_RequiredMethodsPerRelease@@3PAHA 100281a4     MICRImpl.obj
 0003:000001d0       ?s_SOMethodNames@@3PAPADA  100281d0     MICRImpl.obj
 0003:00000250       ?__vcrt_flsindex@@3KA      10028250     libvcruntime:per_thread_data.obj
 0003:00000270       ?errno_no_memory@@3HA      10028270     libucrt:errno.obj
 0003:00000274       ?doserrno_no_memory@@3KA   10028274     libucrt:errno.obj
 0003:00000280       ?__acrt_flsindex@@3KA      10028280     libucrt:per_thread_data.obj
 0003:00000618       __mbctypes                 10028618     libucrt:mbctype.obj
 0003:00000720       __mbcasemaps               10028720     libucrt:mbctype.obj
 0003:00000820       ?__rgctypeflag@@3PADA      10028820     libucrt:mbctype.obj
 0003:00000828       ?__rgcode_page_info@@3PAUcode_page_info@@A 10028828     libucrt:mbctype.obj
 0003:00000a80       ?__dcrt_lowio_console_output_handle@@3PAXA 10028a80     libucrt:initcon.obj
 0003:00000c18       ?is_initialized_as_dll@@3_NA 10028c18     LIBCMT:utility.obj
 0003:00000c19       ?module_local_atexit_table_initialized@@3_NA 10028c19     LIBCMT:utility.obj
 0003:00000c1c       ?module_local_atexit_table@@3U_onexit_table_t@@A 10028c1c     LIBCMT:utility.obj
 0003:00000c28       ?module_local_at_quick_exit_table@@3U_onexit_table_t@@A 10028c28     LIBCMT:utility.obj
 0003:00000c34       ?g_tss_cv@@3U_RTL_CONDITION_VARIABLE@@A 10028c34     LIBCMT:thread_safe_statics.obj
 0003:00000c38       ?g_tss_event@@3PAXA        10028c38     LIBCMT:thread_safe_statics.obj
 0003:00000c3c       ?g_tss_mutex@@3U_RTL_CRITICAL_SECTION@@A 10028c3c     LIBCMT:thread_safe_statics.obj
 0003:00000c54       ?g_sleep_condition_variable_cs@@3P6GHPAU_RTL_CONDITION_VARIABLE@@PAU_RTL_CRITICAL_SECTION@@K@ZA 10028c54     LIBCMT:thread_safe_statics.obj
 0003:00000c58       ?g_wake_all_condition_variable@@3P6GXPAU_RTL_CONDITION_VARIABLE@@@ZA 10028c58     LIBCMT:thread_safe_statics.obj
 0003:00000c60       _GS_ExceptionRecord        10028c60     LIBCMT:gs_report.obj
 0003:00000cb0       _GS_ContextRecord          10028cb0     LIBCMT:gs_report.obj
 0003:00000f80       ?__proc_attached@@3HA      10028f80     LIBCMT:dll_dllmain.obj
 0003:00000fdc       ?AllocateData@@3P6GPAUAtlThunkData_t@@XZA 10028fdc     atls:atlthunk.obj
 0003:00000fe0       ?InitData@@3P6GXPAUAtlThunkData_t@@PAXI@ZA 10028fe0     atls:atlthunk.obj
 0003:00000fe4       ?DataToCode@@3P6GP6GJPAUHWND__@@IIJ@ZPAUAtlThunkData_t@@@ZA 10028fe4     atls:atlthunk.obj
 0003:00000fe8       ?FreeData@@3P6GXPAUAtlThunkData_t@@@ZA 10028fe8     atls:atlthunk.obj
 0003:00000fec       ?Initialized@@3_NA         10028fec     atls:atlthunk.obj
 0003:00000ff8       ?__vcrt_startup_thread_ptd@@3U__vcrt_ptd@@A 10028ff8     libvcruntime:per_thread_data.obj
 0003:00001020       ___vcrt_lock_table         10029020     libvcruntime:locks.obj
 0003:00001038       ___vcrt_locks_initialized  10029038     libvcruntime:locks.obj
 0003:00001064       ?heap@@3V_HeapManager@@A   10029064     libvcruntime:undname.obj
 0003:00001078       ?module_handles@@3PAPAUHINSTANCE__@@A 10029078     libvcruntime:winapi_downlevel.obj
 0003:00001084       ?function_pointers@@3PAPAXA 10029084     libvcruntime:winapi_downlevel.obj
 0003:0000109c       ?__acrt_invalid_parameter_handler@@3V?$dual_state_global@P6AXPB_W00II@Z@__crt_state_management@@A 1002909c     libucrt:invalid_parameter.obj
 0003:000010a0       ?c_termination_complete@@3JA 100290a0     libucrt:exit.obj
 0003:000010a4       ?thread_local_exit_callback_func@@3P6GXPAXK0@ZA 100290a4     libucrt:exit.obj
 0003:000010b0       ?program_name@?1???$common_configure_argv@D@@YAHW4_crt_argv_mode@@@Z@4PADA 100290b0     libucrt:argv_parsing.obj
 0003:000011e0       ?__acrt_new_handler@@3V?$dual_state_global@P6AHI@Z@__crt_state_management@@A 100291e0     libucrt:new_handler.obj
 0003:000011e8       ?module_handles@@3PAPAUHINSTANCE__@@A 100291e8     libucrt:winapi_thunks.obj
 0003:00001238       ?encoded_function_pointers@@3PAPAXA 10029238     libucrt:winapi_thunks.obj
 0003:000012c0       ?internal_state@?1??_mbtowc_l@@9@4U_Mbstatet@@A 100292c0     libucrt:mbtowc.obj
 0003:000012d0       ?enable_percent_n@@3IA     100292d0     libucrt:printf_count_output.obj
 0003:000014f0       ?__acrt_lock_table@@3PAU_RTL_CRITICAL_SECTION@@A 100294f0     libucrt:locks.obj
 0003:00001640       ?__acrt_locks_initialized@@3IA 10029640     libucrt:locks.obj
 0003:00001650       ?fSystemSet@@3HA           10029650     libucrt:mbctype.obj
 0003:00001654       ?initialized@?1??__acrt_initialize_multibyte@@9@4_NA 10029654     libucrt:mbctype.obj
 0003:00001674       ?ctrlc_action@@3V?$dual_state_global@P6AXH@Z@__crt_state_management@@A 10029674     libucrt:signal.obj
 0003:00001678       ?ctrlbreak_action@@3V?$dual_state_global@P6AXH@Z@__crt_state_management@@A 10029678     libucrt:signal.obj
 0003:0000167c       ?abort_action@@3V?$dual_state_global@P6AXH@Z@__crt_state_management@@A 1002967c     libucrt:signal.obj
 0003:00001680       ?term_action@@3V?$dual_state_global@P6AXH@Z@__crt_state_management@@A 10029680     libucrt:signal.obj
 0003:00001684       ?user_matherr@@3V?$dual_state_global@P6AHPAU_exception@@@Z@__crt_state_management@@A 10029684     libucrt:matherr.obj
 0003:00001688       ?__acrt_global_new_mode@@3V?$dual_state_global@J@__crt_state_management@@A 10029688     libucrt:new_mode.obj
 0003:00001694       ?internal_pst@?1??__mbrtoc32_utf8@__crt_mbstring@@YAIPA_UPBDIPAU_Mbstatet@@@Z@4U3@A 10029694     libucrt:mbrtoc32.obj
 0003:0000169c       ?__acrt_app_type@@3W4_crt_app_type@@A 1002969c     libucrt:report_runtime_error.obj
 0003:000016a4       __pmatherr_set             100296a4     libucrt:libm_error.obj
 0004:00000220       $R000000                   1002a220     MICR.res
 0004:00000b70       $R000950                   1002ab70     MICR.res
 0004:00000c58       $R000A38                   1002ac58     MICR.res
 0004:00000ec0       $R000CA0                   1002aec0     MICR.res
 0004:000013b8       $R001198                   1002b3b8     MICR.res
 0004:00004038       $R003E18                   1002e038     MICR.res
 0004:00004060       $R003E40                   1002e060     MICR.res
