 OPOSPINPad

 Timestamp is 600f799d (Tue Jan 26 11:08:29 2021)

 Preferred load address is 10000000

 Start         Length     Name                   Class
 0001:00000000 00000080H .text$di                CODE
 0001:00000080 0001e823H .text$mn                CODE
 0001:0001e8a3 0000003aH .text$x                 CODE
 0001:0001e8dd 00000042H .text$yd                CODE
 0002:00000000 000002fcH .idata$5                DATA
 0002:000002fc 00000004H .00cfg                  DATA
 0002:00000300 00000004H .CRT$XCA                DATA
 0002:00000304 00000004H .CRT$XCL                DATA
 0002:00000308 00000010H .CRT$XCU                DATA
 0002:00000318 00000004H .CRT$XCZ                DATA
 0002:0000031c 00000004H .CRT$XIA                DATA
 0002:00000320 00000010H .CRT$XIC                DATA
 0002:00000330 00000004H .CRT$XIZ                DATA
 0002:00000334 00000004H .CRT$XLA                DATA
 0002:00000338 00000004H .CRT$XLZ                DATA
 0002:0000033c 00000004H .CRT$XPA                DATA
 0002:00000340 00000008H .CRT$XPX                DATA
 0002:00000348 00000004H .CRT$XPXA               DATA
 0002:0000034c 00000004H .CRT$XPZ                DATA
 0002:00000350 00000004H .CRT$XTA                DATA
 0002:00000354 0000000cH .CRT$XTZ                DATA
 0002:00000358 00000000H .gfids$y                DATA
 0002:00000360 00007420H .rdata                  DATA
 0002:00007780 00000000H .rdata$CastGuardVftablesA DATA
 0002:00007780 00000000H .rdata$CastGuardVftablesC DATA
 0002:00007780 00000018H .rdata$T                DATA
 0002:00007798 00000178H .rdata$r                DATA
 0002:00007910 0000001cH .rdata$sxdata           DATA
 0002:0000792c 000003dcH .rdata$zzzdbg           DATA
 0002:00007d08 00000004H .rtc$IAA                DATA
 0002:00007d0c 00000004H .rtc$IZZ                DATA
 0002:00007d10 00000004H .rtc$TAA                DATA
 0002:00007d14 00000004H .rtc$TZZ                DATA
 0002:00007d18 00000004H .tls                    DATA
 0002:00007d1c 00000004H .tls$                   DATA
 0002:00007d20 00000008H .tls$ZZZ                DATA
 0002:00007d28 0000062cH .xdata$x                DATA
 0002:00008354 00000004H ATL$__a                 DATA
 0002:00008358 00000008H ATL$__z                 DATA
 0002:00008360 000000a8H .edata                  DATA
 0002:00008408 00000078H .idata$2                DATA
 0002:00008480 00000014H .idata$3                DATA
 0002:00008494 000002fcH .idata$4                DATA
 0002:00008790 00000bceH .idata$6                DATA
 0003:00000000 00000ac0H .data                   DATA
 0003:00000ac0 00000098H .data$r                 DATA
 0003:00000b58 00000b88H .bss                    DATA
 0004:00000000 00000220H .rsrc$01                DATA
 0004:00000220 00004ba8H .rsrc$02                DATA

  Address         Publics by Value              Rva+Base       Lib:Object

 0000:00000000       ___guard_longjmp_count     00000000     <absolute>
 0000:00000000       ___arm64x_native_entrypoint 00000000     <absolute>
 0000:00000000       ___guard_longjmp_table     00000000     <absolute>
 0000:00000000       ___volatile_metadata       00000000     <absolute>
 0000:00000000       ___arm64x_extra_rfe_table  00000000     <absolute>
 0000:00000000       ___arm64x_redirection_metadata 00000000     <absolute>
 0000:00000000       ___arm64x_redirection_metadata_count 00000000     <absolute>
 0000:00000000       ___guard_eh_cont_count     00000000     <absolute>
 0000:00000000       ___guard_eh_cont_table     00000000     <absolute>
 0000:00000000       ___hybrid_code_map_count   00000000     <absolute>
 0000:00000000       ___guard_iat_count         00000000     <absolute>
 0000:00000000       ___x64_code_ranges_to_entry_points 00000000     <absolute>
 0000:00000000       __except_list              00000000     <absolute>
 0000:00000000       ___guard_fids_count        00000000     <absolute>
 0000:00000000       ___x64_code_ranges_to_entry_points_count 00000000     <absolute>
 0000:00000000       ___hybrid_code_map         00000000     <absolute>
 0000:00000000       ___arm64x_extra_rfe_table_size 00000000     <absolute>
 0000:00000000       ___enclave_config          00000000     <absolute>
 0000:00000000       ___guard_fids_table        00000000     <absolute>
 0000:00000000       ___guard_iat_table         00000000     <absolute>
 0000:00000000       ___hybrid_auxiliary_iat    00000000     <absolute>
 0000:00000000       ___dynamic_value_reloc_table 00000000     <absolute>
 0000:00000000       ___AbsoluteZero            00000000     <absolute>
 0000:00000007       ___safe_se_handler_count   00000007     <absolute>
 0000:0000002c       __tls_array                0000002c     <absolute>
 0000:00000100       ___guard_flags             00000100     <absolute>
 0000:00000000       ___ImageBase               10000000     <linker-defined>
 0001:00000080       ?DupWide@_CW@@AAEXXZ       10001080 f   CWString.obj
 0001:0000009c       ?cw_dup@@YGXPBDAAHAAPA_W1@Z 1000109c f   CWString.obj
 0001:00000124       ?cw_memcpy@@YGHPA_WPBDH@Z  10001124 f   CWString.obj
 0001:00000150       ?cw_strcpy@@YAHPA_WPBD@Z   10001150 f   CWString.obj
 0001:00000163       ?cw_strlen@@YAHPBD@Z       10001163 f   CWString.obj
 0001:0000017c       ??0CAtlComModule@ATL@@QAE@XZ 1000117c f i OposVariant.obj
 0001:000001c1       ??0CAtlWinModule@ATL@@QAE@XZ 100011c1 f i OposVariant.obj
 0001:000001f8       ??0OposDispParms@@QAE@PAVOposVariant@@H@Z 100011f8 f   OposVariant.obj
 0001:00000269       ??1OposDispParms@@QAE@XZ   10001269 f   OposVariant.obj
 0001:00000277       ??A?$CSimpleArray@GV?$CSimpleArrayEqualHelper@G@ATL@@@ATL@@QAEAAGH@Z 10001277 f i OposVariant.obj
 0001:0000029c       ??_Estringdispid@CComTypeInfoHolder@ATL@@QAEPAXI@Z 1000129c f i OposVariant.obj
 0001:00000308       ?AtlWinModuleInit@ATL@@YGJPAU_ATL_WIN_MODULE70@1@@Z 10001308 f i OposVariant.obj
 0001:0000032e       ?AtlWinModuleTerm@ATL@@YGJPAU_ATL_WIN_MODULE70@1@PAUHINSTANCE__@@@Z 1000132e f i OposVariant.obj
 0001:00000391       ?ChangeBSTR@OposVariant@@QAEXPAPA_WAAJ@Z 10001391 f   OposVariant.obj
 0001:000003d2       ?ChangeCURRENCY@OposVariant@@QAEXPATtagCY@@AAJ@Z 100013d2 f   OposVariant.obj
 0001:00000421       ?ChangeLONG@OposVariant@@QAEXPAJAAJ@Z 10001421 f   OposVariant.obj
 0001:00000462       ?GetLONG@OposVariant@@QAEJXZ 10001462 f   OposVariant.obj
 0001:0000047d       ?Init@CComCriticalSection@ATL@@QAEJXZ 1000147d f i OposVariant.obj
 0001:000004a5       ?RemoveAll@?$CSimpleArray@GV?$CSimpleArrayEqualHelper@G@ATL@@@ATL@@QAEXXZ 100014a5 f i OposVariant.obj
 0001:000004a5       ?RemoveAll@?$CSimpleArray@PAUHINSTANCE__@@V?$CSimpleArrayEqualHelper@PAUHINSTANCE__@@@ATL@@@ATL@@QAEXXZ 100014a5 f i atls:atlbase.obj
 0001:000004c2       ?SetBSTR@OposVariant@@QAEXPA_WAAJ@Z 100014c2 f   OposVariant.obj
 0001:000004f6       ?SetBSTR_Copy@OposVariant@@QAEXPA_WAAJ@Z 100014f6 f   OposVariant.obj
 0001:00000546       ?SetBSTR_InOutPtr@OposVariant@@QAE_NPAPA_WAAJ@Z 10001546 f   OposVariant.obj
 0001:0000057d       ?SetBSTR_OutPtr@OposVariant@@QAE_NPAPA_WAAJ@Z 1000157d f   OposVariant.obj
 0001:00000599       ?SetCURRENCY@OposVariant@@QAEXTtagCY@@@Z 10001599 f   OposVariant.obj
 0001:000005c1       ?SetDispatch_Ptr@OposVariant@@QAEXPAUIDispatch@@AAJ@Z 100015c1 f   OposVariant.obj
 0001:000005fc       ?SetLONG@OposVariant@@QAEXJ@Z 100015fc f   OposVariant.obj
 0001:0000061e       ?SetLONG_Ptr@OposVariant@@QAEXPAJAAJ@Z 1000161e f   OposVariant.obj
 0001:00000651       ?SetString@OposVariant@@QAEXPB_WAAJ@Z 10001651 f   OposVariant.obj
 0001:00000697       ?SetVARIANT_BOOL@OposVariant@@QAEXF@Z 10001697 f   OposVariant.obj
 0001:000006c1       ?Term@CAtlComModule@ATL@@QAEXXZ 100016c1 f i OposVariant.obj
 0001:0000070b       ?_AtlRaiseException@ATL@@YAXKK@Z 1000170b f i OposVariant.obj
 0001:00000720       ??_E?$CComObject@VCOPOSPINPad@@@ATL@@W3AEPAXI@Z 10001720 f i PINPad.obj
 0001:00000728       ??_E?$CComObject@VCOPOSPINPad@@@ATL@@WEM@AEPAXI@Z 10001728 f i PINPad.obj
 0001:00000730       ?QueryInterface@?$CComObject@VCOPOSPINPad@@@ATL@@WHA@AGJABU_GUID@@PAPAX@Z 10001730 f i PINPad.obj
 0001:0000073a       ?AddRef@?$CComObject@VCOPOSPINPad@@@ATL@@WHA@AGKXZ 1000173a f i PINPad.obj
 0001:00000744       ?Release@?$CComObject@VCOPOSPINPad@@@ATL@@WHA@AGKXZ 10001744 f i PINPad.obj
 0001:0000074e       ?QueryInterface@?$CComObject@VCOPOSPINPad@@@ATL@@WHE@AGJABU_GUID@@PAPAX@Z 1000174e f i PINPad.obj
 0001:00000758       ?AddRef@?$CComObject@VCOPOSPINPad@@@ATL@@WHE@AGKXZ 10001758 f i PINPad.obj
 0001:00000762       ?Release@?$CComObject@VCOPOSPINPad@@@ATL@@WHE@AGKXZ 10001762 f i PINPad.obj
 0001:0000076c       ?QueryInterface@?$CComObject@VCOPOSPINPad@@@ATL@@WHI@AGJABU_GUID@@PAPAX@Z 1000176c f i PINPad.obj
 0001:00000776       ?AddRef@?$CComObject@VCOPOSPINPad@@@ATL@@WHI@AGKXZ 10001776 f i PINPad.obj
 0001:00000780       ?Release@?$CComObject@VCOPOSPINPad@@@ATL@@WHI@AGKXZ 10001780 f i PINPad.obj
 0001:0000078a       ?QueryInterface@?$CComObject@VCOPOSPINPad@@@ATL@@WHM@AGJABU_GUID@@PAPAX@Z 1000178a f i PINPad.obj
 0001:00000794       ?AddRef@?$CComObject@VCOPOSPINPad@@@ATL@@WHM@AGKXZ 10001794 f i PINPad.obj
 0001:0000079e       ?Release@?$CComObject@VCOPOSPINPad@@@ATL@@WHM@AGKXZ 1000179e f i PINPad.obj
 0001:000007a8       ?QueryInterface@?$CComObject@VCOPOSPINPad@@@ATL@@WIA@AGJABU_GUID@@PAPAX@Z 100017a8 f i PINPad.obj
 0001:000007b5       ?AddRef@?$CComObject@VCOPOSPINPad@@@ATL@@WIA@AGKXZ 100017b5 f i PINPad.obj
 0001:000007c2       ?Release@?$CComObject@VCOPOSPINPad@@@ATL@@WIA@AGKXZ 100017c2 f i PINPad.obj
 0001:000007cf       ?QueryInterface@?$CComObject@VCOPOSPINPad@@@ATL@@WIE@AGJABU_GUID@@PAPAX@Z 100017cf f i PINPad.obj
 0001:000007dc       ?AddRef@?$CComObject@VCOPOSPINPad@@@ATL@@WIE@AGKXZ 100017dc f i PINPad.obj
 0001:000007e9       ?Release@?$CComObject@VCOPOSPINPad@@@ATL@@WIE@AGKXZ 100017e9 f i PINPad.obj
 0001:000007f6       ?QueryInterface@?$CComObject@VCOPOSPINPad@@@ATL@@WII@AGJABU_GUID@@PAPAX@Z 100017f6 f i PINPad.obj
 0001:00000803       ?AddRef@?$CComObject@VCOPOSPINPad@@@ATL@@WII@AGKXZ 10001803 f i PINPad.obj
 0001:00000810       ?Release@?$CComObject@VCOPOSPINPad@@@ATL@@WII@AGKXZ 10001810 f i PINPad.obj
 0001:0000081d       ?QueryInterface@?$CComObject@VCOPOSPINPad@@@ATL@@WIM@AGJABU_GUID@@PAPAX@Z 1000181d f i PINPad.obj
 0001:0000082a       ?AddRef@?$CComObject@VCOPOSPINPad@@@ATL@@WIM@AGKXZ 1000182a f i PINPad.obj
 0001:00000837       ?Release@?$CComObject@VCOPOSPINPad@@@ATL@@WIM@AGKXZ 10001837 f i PINPad.obj
 0001:00000844       ?QueryInterface@?$CComObject@VCOPOSPINPad@@@ATL@@WJA@AGJABU_GUID@@PAPAX@Z 10001844 f i PINPad.obj
 0001:00000851       ?AddRef@?$CComObject@VCOPOSPINPad@@@ATL@@WJA@AGKXZ 10001851 f i PINPad.obj
 0001:0000085e       ?Release@?$CComObject@VCOPOSPINPad@@@ATL@@WJA@AGKXZ 1000185e f i PINPad.obj
 0001:0000086b       ?QueryInterface@?$CComObject@VCOPOSPINPad@@@ATL@@WJE@AGJABU_GUID@@PAPAX@Z 1000186b f i PINPad.obj
 0001:00000878       ?AddRef@?$CComObject@VCOPOSPINPad@@@ATL@@WJE@AGKXZ 10001878 f i PINPad.obj
 0001:00000885       ?Release@?$CComObject@VCOPOSPINPad@@@ATL@@WJE@AGKXZ 10001885 f i PINPad.obj
 0001:00000892       ?QueryInterface@?$CComObject@VCOPOSPINPad@@@ATL@@WJI@AGJABU_GUID@@PAPAX@Z 10001892 f i PINPad.obj
 0001:0000089f       ?AddRef@?$CComObject@VCOPOSPINPad@@@ATL@@WJI@AGKXZ 1000189f f i PINPad.obj
 0001:000008ac       ?Release@?$CComObject@VCOPOSPINPad@@@ATL@@WJI@AGKXZ 100018ac f i PINPad.obj
 0001:000008b9       ?QueryInterface@?$CComObject@VCOPOSPINPad@@@ATL@@WJM@AGJABU_GUID@@PAPAX@Z 100018b9 f i PINPad.obj
 0001:000008c6       ?AddRef@?$CComObject@VCOPOSPINPad@@@ATL@@WJM@AGKXZ 100018c6 f i PINPad.obj
 0001:000008d3       ?Release@?$CComObject@VCOPOSPINPad@@@ATL@@WJM@AGKXZ 100018d3 f i PINPad.obj
 0001:000008e0       ?QueryInterface@?$CComObject@VCOPOSPINPad@@@ATL@@WKA@AGJABU_GUID@@PAPAX@Z 100018e0 f i PINPad.obj
 0001:000008ed       ?AddRef@?$CComObject@VCOPOSPINPad@@@ATL@@WKA@AGKXZ 100018ed f i PINPad.obj
 0001:000008fa       ?Release@?$CComObject@VCOPOSPINPad@@@ATL@@WKA@AGKXZ 100018fa f i PINPad.obj
 0001:00000907       ?AddRef@?$CComObject@VCOPOSPINPad@@@ATL@@WKI@AGKXZ 10001907 f i PINPad.obj
 0001:00000914       ?Release@?$CComObject@VCOPOSPINPad@@@ATL@@WKI@AGKXZ 10001914 f i PINPad.obj
 0001:00000921       ?AddRef@?$CComObject@VCOPOSPINPad@@@ATL@@WLE@AGKXZ 10001921 f i PINPad.obj
 0001:0000092e       ?Release@?$CComObject@VCOPOSPINPad@@@ATL@@WLE@AGKXZ 1000192e f i PINPad.obj
 0001:0000093b       ??_E?$CComContainedObject@VCOPOSPINPad@@@ATL@@W3AEPAXI@Z 1000193b f i PINPad.obj
 0001:00000943       ??_E?$CComContainedObject@VCOPOSPINPad@@@ATL@@WEM@AEPAXI@Z 10001943 f i PINPad.obj
 0001:0000094b       ?QueryInterface@?$CComContainedObject@VCOPOSPINPad@@@ATL@@WHA@AGJABU_GUID@@PAPAX@Z 1000194b f i PINPad.obj
 0001:00000955       ?AddRef@?$CComContainedObject@VCOPOSPINPad@@@ATL@@WHA@AGKXZ 10001955 f i PINPad.obj
 0001:0000095f       ?Release@?$CComContainedObject@VCOPOSPINPad@@@ATL@@WHA@AGKXZ 1000195f f i PINPad.obj
 0001:00000969       ?QueryInterface@?$CComContainedObject@VCOPOSPINPad@@@ATL@@WHE@AGJABU_GUID@@PAPAX@Z 10001969 f i PINPad.obj
 0001:00000973       ?AddRef@?$CComContainedObject@VCOPOSPINPad@@@ATL@@WHE@AGKXZ 10001973 f i PINPad.obj
 0001:0000097d       ?Release@?$CComContainedObject@VCOPOSPINPad@@@ATL@@WHE@AGKXZ 1000197d f i PINPad.obj
 0001:00000987       ?QueryInterface@?$CComContainedObject@VCOPOSPINPad@@@ATL@@WHI@AGJABU_GUID@@PAPAX@Z 10001987 f i PINPad.obj
 0001:00000991       ?CreateInstance@CComClassFactory@ATL@@UAGJPAUIUnknown@@ABU_GUID@@PAPAX@Z 10001991 f i PINPad.obj
 0001:000009cf       ?AddRef@?$CComContainedObject@VCOPOSPINPad@@@ATL@@WHI@AGKXZ 100019cf f i PINPad.obj
 0001:000009d9       ?Release@?$CComContainedObject@VCOPOSPINPad@@@ATL@@WHI@AGKXZ 100019d9 f i PINPad.obj
 0001:000009e3       ?LockServer@CComClassFactory@ATL@@UAGJH@Z 100019e3 f i PINPad.obj
 0001:00000a02       ?QueryInterface@?$CComContainedObject@VCOPOSPINPad@@@ATL@@WHM@AGJABU_GUID@@PAPAX@Z 10001a02 f i PINPad.obj
 0001:00000a0c       ?AddRef@?$CComContainedObject@VCOPOSPINPad@@@ATL@@WHM@AGKXZ 10001a0c f i PINPad.obj
 0001:00000a16       ?Release@?$CComContainedObject@VCOPOSPINPad@@@ATL@@WHM@AGKXZ 10001a16 f i PINPad.obj
 0001:00000a20       ?QueryInterface@?$CComContainedObject@VCOPOSPINPad@@@ATL@@WIA@AGJABU_GUID@@PAPAX@Z 10001a20 f i PINPad.obj
 0001:00000a2d       ?AddRef@?$CComContainedObject@VCOPOSPINPad@@@ATL@@WIA@AGKXZ 10001a2d f i PINPad.obj
 0001:00000a3a       ?Release@?$CComContainedObject@VCOPOSPINPad@@@ATL@@WIA@AGKXZ 10001a3a f i PINPad.obj
 0001:00000a47       ?QueryInterface@?$CComContainedObject@VCOPOSPINPad@@@ATL@@WIE@AGJABU_GUID@@PAPAX@Z 10001a47 f i PINPad.obj
 0001:00000a54       ?AddRef@?$CComContainedObject@VCOPOSPINPad@@@ATL@@WIE@AGKXZ 10001a54 f i PINPad.obj
 0001:00000a61       ?Release@?$CComContainedObject@VCOPOSPINPad@@@ATL@@WIE@AGKXZ 10001a61 f i PINPad.obj
 0001:00000a6e       ?QueryInterface@?$CComContainedObject@VCOPOSPINPad@@@ATL@@WII@AGJABU_GUID@@PAPAX@Z 10001a6e f i PINPad.obj
 0001:00000a7b       ?AddRef@?$CComContainedObject@VCOPOSPINPad@@@ATL@@WII@AGKXZ 10001a7b f i PINPad.obj
 0001:00000a88       ?Release@?$CComContainedObject@VCOPOSPINPad@@@ATL@@WII@AGKXZ 10001a88 f i PINPad.obj
 0001:00000a95       ?QueryInterface@?$CComContainedObject@VCOPOSPINPad@@@ATL@@WIM@AGJABU_GUID@@PAPAX@Z 10001a95 f i PINPad.obj
 0001:00000aa2       ??_ECComClassFactory@ATL@@UAEPAXI@Z 10001aa2 f i PINPad.obj
 0001:00000aa2       ??_GCComClassFactory@ATL@@UAEPAXI@Z 10001aa2 f i PINPad.obj
 0001:00000acd       ?AddRef@?$CComContainedObject@VCOPOSPINPad@@@ATL@@WIM@AGKXZ 10001acd f i PINPad.obj
 0001:00000ada       ?Release@?$CComContainedObject@VCOPOSPINPad@@@ATL@@WIM@AGKXZ 10001ada f i PINPad.obj
 0001:00000ae7       ?QueryInterface@?$CComContainedObject@VCOPOSPINPad@@@ATL@@WJA@AGJABU_GUID@@PAPAX@Z 10001ae7 f i PINPad.obj
 0001:00000af4       ?AddRef@?$CComContainedObject@VCOPOSPINPad@@@ATL@@WJA@AGKXZ 10001af4 f i PINPad.obj
 0001:00000b01       ?Release@?$CComContainedObject@VCOPOSPINPad@@@ATL@@WJA@AGKXZ 10001b01 f i PINPad.obj
 0001:00000b0e       ?QueryInterface@?$CComContainedObject@VCOPOSPINPad@@@ATL@@WJE@AGJABU_GUID@@PAPAX@Z 10001b0e f i PINPad.obj
 0001:00000b1b       ?AddRef@?$CComContainedObject@VCOPOSPINPad@@@ATL@@WJE@AGKXZ 10001b1b f i PINPad.obj
 0001:00000b28       ?Release@?$CComContainedObject@VCOPOSPINPad@@@ATL@@WJE@AGKXZ 10001b28 f i PINPad.obj
 0001:00000b35       ?QueryInterface@?$CComContainedObject@VCOPOSPINPad@@@ATL@@WJI@AGJABU_GUID@@PAPAX@Z 10001b35 f i PINPad.obj
 0001:00000b42       ?AddRef@?$CComContainedObject@VCOPOSPINPad@@@ATL@@WJI@AGKXZ 10001b42 f i PINPad.obj
 0001:00000b4f       ?Release@?$CComContainedObject@VCOPOSPINPad@@@ATL@@WJI@AGKXZ 10001b4f f i PINPad.obj
 0001:00000b5c       ?QueryInterface@?$CComContainedObject@VCOPOSPINPad@@@ATL@@WJM@AGJABU_GUID@@PAPAX@Z 10001b5c f i PINPad.obj
 0001:00000b69       ?AddRef@?$CComContainedObject@VCOPOSPINPad@@@ATL@@WJM@AGKXZ 10001b69 f i PINPad.obj
 0001:00000b76       ?Release@?$CComContainedObject@VCOPOSPINPad@@@ATL@@WJM@AGKXZ 10001b76 f i PINPad.obj
 0001:00000b83       ?QueryInterface@?$CComContainedObject@VCOPOSPINPad@@@ATL@@WKA@AGJABU_GUID@@PAPAX@Z 10001b83 f i PINPad.obj
 0001:00000b90       ?AddRef@?$CComContainedObject@VCOPOSPINPad@@@ATL@@WKA@AGKXZ 10001b90 f i PINPad.obj
 0001:00000b9d       ?Release@?$CComContainedObject@VCOPOSPINPad@@@ATL@@WKA@AGKXZ 10001b9d f i PINPad.obj
 0001:00000baa       ?AddRef@?$CComContainedObject@VCOPOSPINPad@@@ATL@@WKI@AGKXZ 10001baa f i PINPad.obj
 0001:00000bb7       ?Release@?$CComContainedObject@VCOPOSPINPad@@@ATL@@WKI@AGKXZ 10001bb7 f i PINPad.obj
 0001:00000bc4       ?AddRef@?$CComContainedObject@VCOPOSPINPad@@@ATL@@WLE@AGKXZ 10001bc4 f i PINPad.obj
 0001:00000bd1       ?Release@?$CComContainedObject@VCOPOSPINPad@@@ATL@@WLE@AGKXZ 10001bd1 f i PINPad.obj
 0001:00000bde       ?GetWindowProc@?$CWindowImplBaseT@VCWindow@ATL@@V?$CWinTraits@$0FGAAAAAA@$0A@@2@@ATL@@UAEP6GJPAUHWND__@@IIJ@ZXZ 10001bde f i PINPad.obj
 0001:00000be4       ?StartWindowProc@?$CWindowImplBaseT@VCWindow@ATL@@V?$CWinTraits@$0FGAAAAAA@$0A@@2@@ATL@@SGJPAUHWND__@@IIJ@Z 10001be4 f i PINPad.obj
 0001:00000c38       ?OnFinalMessage@?$CWindowImplBaseT@VCWindow@ATL@@V?$CWinTraits@$0FGAAAAAA@$0A@@2@@ATL@@UAEXPAUHWND__@@@Z 10001c38 f i PINPad.obj
 0001:00000c38       ?ObjectMain@CComObjectRootBase@ATL@@SGX_N@Z 10001c38 f i PINPad.obj
 0001:00000c3b       ?GetTypeInfoCount@?$IDispatchImpl@UIOPOSPINPad@@$1?IID_IOPOSPINPad@@3U_GUID@@B$1?LIBID_OposPINPad_CCO@@3U3@B$00$0A@VCComTypeInfoHolder@ATL@@@ATL@@UAGJPAI@Z 10001c3b f i PINPad.obj
 0001:00000c58       ?GetTypeInfo@?$IDispatchImpl@UIOPOSPINPad@@$1?IID_IOPOSPINPad@@3U_GUID@@B$1?LIBID_OposPINPad_CCO@@3U3@B$00$0A@VCComTypeInfoHolder@ATL@@@ATL@@UAGJIKPAPAUITypeInfo@@@Z 10001c58 f i PINPad.obj
 0001:00000c7c       ?GetIDsOfNames@?$IDispatchImpl@UIOPOSPINPad@@$1?IID_IOPOSPINPad@@3U_GUID@@B$1?LIBID_OposPINPad_CCO@@3U3@B$00$0A@VCComTypeInfoHolder@ATL@@@ATL@@UAGJABU_GUID@@PAPA_WIKPAJ@Z 10001c7c f i PINPad.obj
 0001:00000c9c       ?Invoke@?$IDispatchImpl@UIOPOSPINPad@@$1?IID_IOPOSPINPad@@3U_GUID@@B$1?LIBID_OposPINPad_CCO@@3U3@B$00$0A@VCComTypeInfoHolder@ATL@@@ATL@@UAGJJABU_GUID@@KGPAUtagDISPPARAMS@@PAUtagVARIANT@@PAUtagEXCEPINFO@@PAI@Z 10001c9c f i PINPad.obj
 0001:00000caa       ?CreateControlWindow@?$CComControl@VCOPOSPINPad@@V?$CWindowImpl@VCOPOSPINPad@@VCWindow@ATL@@V?$CWinTraits@$0FGAAAAAA@$0A@@3@@ATL@@@ATL@@UAEPAUHWND__@@PAU3@AAUtagRECT@@@Z 10001caa f i PINPad.obj
 0001:00000cd9       ?ControlQueryInterface@?$CComControl@VCOPOSPINPad@@V?$CWindowImpl@VCOPOSPINPad@@VCWindow@ATL@@V?$CWinTraits@$0FGAAAAAA@$0A@@3@@ATL@@@ATL@@UAEJABU_GUID@@PAPAX@Z 10001cd9 f i PINPad.obj
 0001:00000cf4       ?GetClassID@?$IPersistStorageImpl@VCOPOSPINPad@@@ATL@@UAGJPAU_GUID@@@Z 10001cf4 f i PINPad.obj
 0001:00000cf4       ?GetClassID@?$IPersistStreamInitImpl@VCOPOSPINPad@@@ATL@@UAGJPAU_GUID@@@Z 10001cf4 f i PINPad.obj
 0001:00000cf4       ?GetUserClassID@?$IOleObjectImpl@VCOPOSPINPad@@@ATL@@UAGJPAU_GUID@@@Z 10001cf4 f i PINPad.obj
 0001:00000d18       ?IsDirty@?$IPersistStreamInitImpl@VCOPOSPINPad@@@ATL@@UAGJXZ 10001d18 f i PINPad.obj
 0001:00000d37       ?Load@?$IPersistStreamInitImpl@VCOPOSPINPad@@@ATL@@UAGJPAUIStream@@@Z 10001d37 f i PINPad.obj
 0001:00000d56       ?Save@?$IPersistStreamInitImpl@VCOPOSPINPad@@@ATL@@UAGJPAUIStream@@H@Z 10001d56 f i PINPad.obj
 0001:00000d78       ?GetSizeMax@?$IPersistStreamInitImpl@VCOPOSPINPad@@@ATL@@UAGJPAT_ULARGE_INTEGER@@@Z 10001d78 f i PINPad.obj
 0001:00000f57       ?InitNew@?$IPersistStreamInitImpl@VCOPOSPINPad@@@ATL@@UAGJXZ 10001f57 f i PINPad.obj
 0001:00000f74       ?OnMnemonic@?$IOleControlImpl@VCOPOSPINPad@@@ATL@@UAGJPAUtagMSG@@@Z 10001f74 f i PINPad.obj
 0001:00000f74       ?GetControlInfo@?$IOleControlImpl@VCOPOSPINPad@@@ATL@@UAGJPAUtagCONTROLINFO@@@Z 10001f74 f i PINPad.obj
 0001:00000f74       ?GetDropTarget@?$IOleInPlaceObjectWindowlessImpl@VCOPOSPINPad@@@ATL@@UAGJPAPAUIDropTarget@@@Z 10001f74 f i PINPad.obj
 0001:00000f74       ?SetColorScheme@?$IOleObjectImpl@VCOPOSPINPad@@@ATL@@UAGJPAUtagLOGPALETTE@@@Z 10001f74 f i PINPad.obj
 0001:00000f74       ?ContextSensitiveHelp@?$IOleInPlaceActiveObjectImpl@VCOPOSPINPad@@@ATL@@UAGJH@Z 10001f74 f i PINPad.obj
 0001:00000f74       ?SOOutputCompleteDummy@COPOSPINPad@@MAGJJ@Z 10001f74 f i PINPad.obj
 0001:00000f74       ?ContextSensitiveHelp@?$IOleInPlaceObjectWindowlessImpl@VCOPOSPINPad@@@ATL@@UAGJH@Z 10001f74 f i PINPad.obj
 0001:00000f74       ?Unfreeze@?$IViewObjectExImpl@VCOPOSPINPad@@@ATL@@UAGJK@Z 10001f74 f i PINPad.obj
 0001:00000f74       ?QueryGetData@?$IDataObjectImpl@VCOPOSPINPad@@@ATL@@UAGJPAUtagFORMATETC@@@Z 10001f74 f i PINPad.obj
 0001:00000f7c       ?EnableModeless@?$IOleInPlaceActiveObjectImpl@VCOPOSPINPad@@@ATL@@UAGJH@Z 10001f7c f i PINPad.obj
 0001:00000f7c       ?OnFrameWindowActivate@?$IOleInPlaceActiveObjectImpl@VCOPOSPINPad@@@ATL@@UAGJH@Z 10001f7c f i PINPad.obj
 0001:00000f7c       ?OnAmbientPropertyChange@?$IOleControlImpl@VCOPOSPINPad@@@ATL@@UAGJJ@Z 10001f7c f i PINPad.obj
 0001:00000f7c       ?SaveCompleted@?$IPersistStorageImpl@VCOPOSPINPad@@@ATL@@UAGJPAUIStorage@@@Z 10001f7c f i PINPad.obj
 0001:00000f81       ?SetClientSite@?$IOleObjectImpl@VCOPOSPINPad@@@ATL@@UAGJPAUIOleClientSite@@@Z 10001f81 f i PINPad.obj
 0001:00000f9e       ?GetClientSite@?$IOleObjectImpl@VCOPOSPINPad@@@ATL@@UAGJPAPAUIOleClientSite@@@Z 10001f9e f i PINPad.obj
 0001:00000fbb       ?SetHostNames@?$IOleObjectImpl@VCOPOSPINPad@@@ATL@@UAGJPB_W0@Z 10001fbb f i PINPad.obj
 0001:00000fc0       ?Close@?$IOleObjectImpl@VCOPOSPINPad@@@ATL@@UAGJK@Z 10001fc0 f i PINPad.obj
 0001:00000fdd       ?GetClipboardData@?$IOleObjectImpl@VCOPOSPINPad@@@ATL@@UAGJKPAPAUIDataObject@@@Z 10001fdd f i PINPad.obj
 0001:00000fdd       ?QueryInterface@CRegObject@ATL@@UAGJABU_GUID@@PAPAX@Z 10001fdd f i PINPad.obj
 0001:00000fdd       ?EnumFormatEtc@?$IDataObjectImpl@VCOPOSPINPad@@@ATL@@UAGJKPAPAUIEnumFORMATETC@@@Z 10001fdd f i PINPad.obj
 0001:00000fdd       ?GetCanonicalFormatEtc@?$IDataObjectImpl@VCOPOSPINPad@@@ATL@@UAGJPAUtagFORMATETC@@0@Z 10001fdd f i PINPad.obj
 0001:00000fdd       ?GetRect@?$IViewObjectExImpl@VCOPOSPINPad@@@ATL@@UAGJKPAU_RECTL@@@Z 10001fdd f i PINPad.obj
 0001:00000fdd       ?GetDataHere@?$IDataObjectImpl@VCOPOSPINPad@@@ATL@@UAGJPAUtagFORMATETC@@PAUtagSTGMEDIUM@@@Z 10001fdd f i PINPad.obj
 0001:00000fdd       ?SetMoniker@?$IOleObjectImpl@VCOPOSPINPad@@@ATL@@UAGJKPAUIMoniker@@@Z 10001fdd f i PINPad.obj
 0001:00000fe5       ?SetData@?$IDataObjectImpl@VCOPOSPINPad@@@ATL@@UAGJPAUtagFORMATETC@@PAUtagSTGMEDIUM@@H@Z 10001fe5 f i PINPad.obj
 0001:00000fe5       ?GetMoniker@?$IOleObjectImpl@VCOPOSPINPad@@@ATL@@UAGJKKPAPAUIMoniker@@@Z 10001fe5 f i PINPad.obj
 0001:00000fe5       ?InitFromData@?$IOleObjectImpl@VCOPOSPINPad@@@ATL@@UAGJPAUIDataObject@@HK@Z 10001fe5 f i PINPad.obj
 0001:00000fed       ?DoVerb@?$IOleObjectImpl@VCOPOSPINPad@@@ATL@@UAGJJPAUtagMSG@@PAUIOleClientSite@@JPAUHWND__@@PBUtagRECT@@@Z 10001fed f i PINPad.obj
 0001:000010e1       ?EnumVerbs@?$IOleObjectImpl@VCOPOSPINPad@@@ATL@@UAGJPAPAUIEnumOLEVERB@@@Z 100020e1 f i PINPad.obj
 0001:00001103       ?IsUpToDate@?$IOleObjectImpl@VCOPOSPINPad@@@ATL@@UAGJXZ 10002103 f i PINPad.obj
 0001:00001103       ?Release@CRegObject@ATL@@UAGKXZ 10002103 f i PINPad.obj
 0001:00001103       ?Update@?$IOleObjectImpl@VCOPOSPINPad@@@ATL@@UAGJXZ 10002103 f i PINPad.obj
 0001:00001103       ?HandsOffStorage@?$IPersistStorageImpl@VCOPOSPINPad@@@ATL@@UAGJXZ 10002103 f i PINPad.obj
 0001:00001108       ?GetUserType@?$IOleObjectImpl@VCOPOSPINPad@@@ATL@@UAGJKPAPA_W@Z 10002108 f i PINPad.obj
 0001:00001120       ?SetExtent@?$IOleObjectImpl@VCOPOSPINPad@@@ATL@@UAGJKPAUtagSIZE@@@Z 10002120 f i PINPad.obj
 0001:00001140       ?GetExtent@?$IOleObjectImpl@VCOPOSPINPad@@@ATL@@UAGJKPAUtagSIZE@@@Z 10002140 f i PINPad.obj
 0001:0000117e       ?Advise@?$IOleObjectImpl@VCOPOSPINPad@@@ATL@@UAGJPAUIAdviseSink@@PAK@Z 1000217e f i PINPad.obj
 0001:0000119e       ?Unadvise@?$IOleObjectImpl@VCOPOSPINPad@@@ATL@@UAGJK@Z 1000219e f i PINPad.obj
 0001:000011cd       ?EnumAdvise@?$IOleObjectImpl@VCOPOSPINPad@@@ATL@@UAGJPAPAUIEnumSTATDATA@@@Z 100021cd f i PINPad.obj
 0001:0000120d       ?GetMiscStatus@?$IOleObjectImpl@VCOPOSPINPad@@@ATL@@UAGJKPAK@Z 1000220d f i PINPad.obj
 0001:00001225       ?GetWindow@?$IOleInPlaceActiveObjectImpl@VCOPOSPINPad@@@ATL@@UAGJPAPAUHWND__@@@Z 10002225 f i PINPad.obj
 0001:00001272       ?TranslateAcceleratorW@?$IOleInPlaceActiveObjectImpl@VCOPOSPINPad@@@ATL@@UAGJPAUtagMSG@@@Z 10002272 f i PINPad.obj
 0001:00001320       ?OnDocWindowActivate@?$IOleInPlaceActiveObjectImpl@VCOPOSPINPad@@@ATL@@UAGJH@Z 10002320 f i PINPad.obj
 0001:00001342       ?ResizeBorder@?$IOleInPlaceActiveObjectImpl@VCOPOSPINPad@@@ATL@@UAGJPBUtagRECT@@PAUIOleInPlaceUIWindow@@H@Z 10002342 f i PINPad.obj
 0001:00001347       ?Draw@?$IViewObjectExImpl@VCOPOSPINPad@@@ATL@@UAGJKJPAXPAUtagDVTARGETDEVICE@@PAUHDC__@@2PBU_RECTL@@3P6GHK@ZK@Z 10002347 f i PINPad.obj
 0001:00001379       ?GetColorSet@?$IViewObjectExImpl@VCOPOSPINPad@@@ATL@@UAGJKJPAXPAUtagDVTARGETDEVICE@@PAUHDC__@@PAPAUtagLOGPALETTE@@@Z 10002379 f i PINPad.obj
 0001:00001381       ?Freeze@?$IViewObjectExImpl@VCOPOSPINPad@@@ATL@@UAGJKJPAXPAK@Z 10002381 f i PINPad.obj
 0001:00001389       ?SetAdvise@?$IViewObjectExImpl@VCOPOSPINPad@@@ATL@@UAGJKKPAUIAdviseSink@@@Z 10002389 f i PINPad.obj
 0001:000013a8       ?GetAdvise@?$IViewObjectExImpl@VCOPOSPINPad@@@ATL@@UAGJPAK0PAPAUIAdviseSink@@@Z 100023a8 f i PINPad.obj
 0001:000013dd       ?GetExtent@?$IViewObjectExImpl@VCOPOSPINPad@@@ATL@@UAGJKJPAUtagDVTARGETDEVICE@@PAUtagSIZE@@@Z 100023dd f i PINPad.obj
 0001:0000140e       ?GetViewStatus@?$IViewObjectExImpl@VCOPOSPINPad@@@ATL@@UAGJPAK@Z 1000240e f i PINPad.obj
 0001:0000142b       ?QueryHitPoint@?$IViewObjectExImpl@VCOPOSPINPad@@@ATL@@UAGJKPBUtagRECT@@UtagPOINT@@JPAK@Z 1000242b f i PINPad.obj
 0001:0000146c       ?QueryHitRect@?$IViewObjectExImpl@VCOPOSPINPad@@@ATL@@UAGJKPBUtagRECT@@0JPAK@Z 1000246c f i PINPad.obj
 0001:000014c7       ?GetNaturalExtent@?$IViewObjectExImpl@VCOPOSPINPad@@@ATL@@UAGJKJPAUtagDVTARGETDEVICE@@PAUHDC__@@PAUtagExtentInfo@@PAUtagSIZE@@@Z 100024c7 f i PINPad.obj
 0001:00001512       ?GetWindow@?$IOleInPlaceObjectWindowlessImpl@VCOPOSPINPad@@@ATL@@UAGJPAPAUHWND__@@@Z 10002512 f i PINPad.obj
 0001:0000155f       ?InPlaceDeactivate@?$IOleInPlaceObjectWindowlessImpl@VCOPOSPINPad@@@ATL@@UAGJXZ 1000255f f i PINPad.obj
 0001:00001579       ?UIDeactivate@?$IOleInPlaceObjectWindowlessImpl@VCOPOSPINPad@@@ATL@@UAGJXZ 10002579 f i PINPad.obj
 0001:00001593       ?SetObjectRects@?$IOleInPlaceObjectWindowlessImpl@VCOPOSPINPad@@@ATL@@UAGJPBUtagRECT@@0@Z 10002593 f i PINPad.obj
 0001:000015b3       ?ReactivateAndUndo@?$IOleInPlaceObjectWindowlessImpl@VCOPOSPINPad@@@ATL@@UAGJXZ 100025b3 f i PINPad.obj
 0001:000015bb       ?OnWindowMessage@?$IOleInPlaceObjectWindowlessImpl@VCOPOSPINPad@@@ATL@@UAGJIIJPAJ@Z 100025bb f i PINPad.obj
 0001:0000162b       ?EnumConnectionPoints@?$IConnectionPointContainerImpl@VCOPOSPINPad@@@ATL@@UAGJPAPAUIEnumConnectionPoints@@@Z 1000262b f i PINPad.obj
 0001:000017b7       ?FindConnectionPoint@?$IConnectionPointContainerImpl@VCOPOSPINPad@@@ATL@@UAGJABU_GUID@@PAPAUIConnectionPoint@@@Z 100027b7 f i PINPad.obj
 0001:0000185a       ?IsDirty@?$IPersistStorageImpl@VCOPOSPINPad@@@ATL@@UAGJXZ 1000285a f i PINPad.obj
 0001:0000188a       ?InitNew@?$IPersistStorageImpl@VCOPOSPINPad@@@ATL@@UAGJPAUIStorage@@@Z 1000288a f i PINPad.obj
 0001:000018ba       ?Load@?$IPersistStorageImpl@VCOPOSPINPad@@@ATL@@UAGJPAUIStorage@@@Z 100028ba f i PINPad.obj
 0001:00001926       ?Save@?$IPersistStorageImpl@VCOPOSPINPad@@@ATL@@UAGJPAUIStorage@@H@Z 10002926 f i PINPad.obj
 0001:00001999       ?GetPages@?$ISpecifyPropertyPagesImpl@VCOPOSPINPad@@@ATL@@UAGJPAUtagCAUUID@@@Z 10002999 f i PINPad.obj
 0001:000019b0       ?QuickActivate@?$IQuickActivateImpl@VCOPOSPINPad@@@ATL@@UAGJPAUtagQACONTAINER@@PAUtagQACONTROL@@@Z 100029b0 f i PINPad.obj
 0001:000019d3       ?SetContentExtent@?$IQuickActivateImpl@VCOPOSPINPad@@@ATL@@UAGJPAUtagSIZE@@@Z 100029d3 f i PINPad.obj
 0001:000019ff       ?GetContentExtent@?$IQuickActivateImpl@VCOPOSPINPad@@@ATL@@UAGJPAUtagSIZE@@@Z 100029ff f i PINPad.obj
 0001:00001a3b       ?GetData@?$IDataObjectImpl@VCOPOSPINPad@@@ATL@@UAGJPAUtagFORMATETC@@PAUtagSTGMEDIUM@@@Z 10002a3b f i PINPad.obj
 0001:00001a5e       ?DAdvise@?$IDataObjectImpl@VCOPOSPINPad@@@ATL@@UAGJPAUtagFORMATETC@@KPAUIAdviseSink@@PAK@Z 10002a5e f i PINPad.obj
 0001:00001a9f       ?DUnadvise@?$IDataObjectImpl@VCOPOSPINPad@@@ATL@@UAGJK@Z 10002a9f f i PINPad.obj
 0001:00001acd       ?EnumDAdvise@?$IDataObjectImpl@VCOPOSPINPad@@@ATL@@UAGJPAPAUIEnumSTATDATA@@@Z 10002acd f i PINPad.obj
 0001:00001b0c       ?GetClassInfoW@?$IProvideClassInfo2Impl@$1?CLSID_OPOSPINPad@@3U_GUID@@B$1?DIID__IOPOSPINPadEvents@@3U2@B$1?LIBID_OposPINPad_CCO@@3U2@B$00$0A@VCComTypeInfoHolder@ATL@@@ATL@@UAGJPAPAUITypeInfo@@@Z 10002b0c f i PINPad.obj
 0001:00001b22       ?GetGUID@?$IProvideClassInfo2Impl@$1?CLSID_OPOSPINPad@@3U_GUID@@B$1?DIID__IOPOSPINPadEvents@@3U2@B$1?LIBID_OposPINPad_CCO@@3U2@B$00$0A@VCComTypeInfoHolder@ATL@@@ATL@@UAGJKPAU_GUID@@@Z 10002b22 f i PINPad.obj
 0001:00001b60       ?FAccessAllowed@?$IObjectSafetyImpl@VCOPOSPINPad@@$02@ATL@@MAEHXZ 10002b60 f i PINPad.obj
 0001:00001b60       __get_startup_argv_mode    10002b60 f i LIBCMT:argv_mode.obj
 0001:00001b64       ?GetInterfaceSafetyOptions@?$IObjectSafetyImpl@VCOPOSPINPad@@$02@ATL@@UAGJABU_GUID@@PAK1@Z 10002b64 f i PINPad.obj
 0001:00001bd8       ?SetInterfaceSafetyOptions@?$IObjectSafetyImpl@VCOPOSPINPad@@$02@ATL@@UAGJABU_GUID@@KK@Z 10002bd8 f i PINPad.obj
 0001:00001c52       ?_LocCPQueryInterface@?$IConnectionPointImpl@VCOPOSPINPad@@$1?IID_IPropertyNotifySink@@3U_GUID@@BVCComDynamicUnkArray@ATL@@@ATL@@UAGJABU_GUID@@PAPAX@Z 10002c52 f i PINPad.obj
 0001:00001c52       ?_LocCPQueryInterface@?$IConnectionPointImpl@VCOPOSPINPad@@$1?DIID__IOPOSPINPadEvents@@3U_GUID@@BVCComDynamicUnkArray@ATL@@@ATL@@UAGJABU_GUID@@PAPAX@Z 10002c52 f i PINPad.obj
 0001:00001c9f       ?GetConnectionInterface@?$IConnectionPointImpl@VCOPOSPINPad@@$1?IID_IPropertyNotifySink@@3U_GUID@@BVCComDynamicUnkArray@ATL@@@ATL@@UAGJPAU_GUID@@@Z 10002c9f f i PINPad.obj
 0001:00001cc3       ?GetConnectionPointContainer@?$IConnectionPointImpl@VCOPOSPINPad@@$1?IID_IPropertyNotifySink@@3U_GUID@@BVCComDynamicUnkArray@ATL@@@ATL@@UAGJPAPAUIConnectionPointContainer@@@Z 10002cc3 f i PINPad.obj
 0001:00001ce6       ?Advise@?$IConnectionPointImpl@VCOPOSPINPad@@$1?IID_IPropertyNotifySink@@3U_GUID@@BVCComDynamicUnkArray@ATL@@@ATL@@UAGJPAUIUnknown@@PAK@Z 10002ce6 f i PINPad.obj
 0001:00001ce6       ?Advise@?$IConnectionPointImpl@VCOPOSPINPad@@$1?DIID__IOPOSPINPadEvents@@3U_GUID@@BVCComDynamicUnkArray@ATL@@@ATL@@UAGJPAUIUnknown@@PAK@Z 10002ce6 f i PINPad.obj
 0001:00001d86       ?Unadvise@?$IConnectionPointImpl@VCOPOSPINPad@@$1?DIID__IOPOSPINPadEvents@@3U_GUID@@BVCComDynamicUnkArray@ATL@@@ATL@@UAGJK@Z 10002d86 f i PINPad.obj
 0001:00001d86       ?Unadvise@?$IConnectionPointImpl@VCOPOSPINPad@@$1?IID_IPropertyNotifySink@@3U_GUID@@BVCComDynamicUnkArray@ATL@@@ATL@@UAGJK@Z 10002d86 f i PINPad.obj
 0001:00001dc6       ?EnumConnections@?$IConnectionPointImpl@VCOPOSPINPad@@$1?IID_IPropertyNotifySink@@3U_GUID@@BVCComDynamicUnkArray@ATL@@@ATL@@UAGJPAPAUIEnumConnections@@@Z 10002dc6 f i PINPad.obj
 0001:00001dc6       ?EnumConnections@?$IConnectionPointImpl@VCOPOSPINPad@@$1?DIID__IOPOSPINPadEvents@@3U_GUID@@BVCComDynamicUnkArray@ATL@@@ATL@@UAGJPAPAUIEnumConnections@@@Z 10002dc6 f i PINPad.obj
 0001:00001ec1       ?GetObjectDescription@?$CComCoClass@VCOPOSPINPad@@$1?CLSID_OPOSPINPad@@3U_GUID@@B@ATL@@SGPB_WXZ 10002ec1 f i PINPad.obj
 0001:00001ec1       ?GetCategoryMap@CComObjectRootBase@ATL@@SAPBU_ATL_CATMAP_ENTRY@2@XZ 10002ec1 f i PINPad.obj
 0001:00001ec4       ?GetConnectionInterface@?$IConnectionPointImpl@VCOPOSPINPad@@$1?DIID__IOPOSPINPadEvents@@3U_GUID@@BVCComDynamicUnkArray@ATL@@@ATL@@UAGJPAU_GUID@@@Z 10002ec4 f i PINPad.obj
 0001:00001ee8       ?GetConnectionPointContainer@?$IConnectionPointImpl@VCOPOSPINPad@@$1?DIID__IOPOSPINPadEvents@@3U_GUID@@BVCComDynamicUnkArray@ATL@@@ATL@@UAGJPAPAUIConnectionPointContainer@@@Z 10002ee8 f i PINPad.obj
 0001:00001f0b       ?Lock@CAtlModule@ATL@@UAEJXZ 10002f0b f i PINPad.obj
 0001:00001f15       ?Unlock@CAtlModule@ATL@@UAEJXZ 10002f15 f i PINPad.obj
 0001:00001f1f       ?GetLockCount@CAtlModule@ATL@@UAEJXZ 10002f1f f i PINPad.obj
 0001:00001f23       ?GetGITPtr@CAtlModule@ATL@@UAEJPAPAUIGlobalInterfaceTable@@@Z 10002f23 f i PINPad.obj
 0001:00001f6f       ?UpdateRegistry@COPOSPINPad@@SGJH@Z 10002f6f f i PINPad.obj
 0001:00001f87       ?ProcessWindowMessage@COPOSPINPad@@UAEHPAUHWND__@@IIJAAJK@Z 10002f87 f i PINPad.obj
 0001:00001fd0       ?SOData@COPOSPINPad@@MAGJJ@Z 10002fd0 f i PINPad.obj
 0001:00002009       ?SODirectIO@COPOSPINPad@@MAGJJPAJPAPA_W@Z 10003009 f i PINPad.obj
 0001:00002052       ?SOError@COPOSPINPad@@MAGJJJJPAJ@Z 10003052 f i PINPad.obj
 0001:000020a7       ?SOStatusUpdate@COPOSPINPad@@MAGJJ@Z 100030a7 f i PINPad.obj
 0001:000020e0       ?AddCommonRGSReplacements@?$CAtlModuleT@VCComModule@ATL@@@ATL@@UAEJPAUIRegistrarBase@@@Z 100030e0 f i PINPad.obj
 0001:000020fa       ?UpdateRegistryFromResourceD@CComModule@ATL@@UAGJPB_WHPAU_ATL_REGMAP_ENTRY@2@@Z 100030fa f i PINPad.obj
 0001:000020fa       ?UpdateRegistryFromResourceD@CComModule@ATL@@UAGJIHPAU_ATL_REGMAP_ENTRY@2@@Z 100030fa f i PINPad.obj
 0001:00002102       ?UpdateRegistryFromResource@CComModule@ATL@@UAGJPB_WHPAU_ATL_REGMAP_ENTRY@2@@Z 10003102 f i PINPad.obj
 0001:0000210b       ?UpdateRegistryFromResource@CComModule@ATL@@UAGJIHPAU_ATL_REGMAP_ENTRY@2@@Z 1000310b f i PINPad.obj
 0001:00002114       ??_GCComModule@ATL@@UAEPAXI@Z 10003114 f i PINPad.obj
 0001:00002114       ??_ECComModule@ATL@@UAEPAXI@Z 10003114 f i PINPad.obj
 0001:0000213c       ?CreateInstance@?$CComCreator@V?$CComObjectCached@VCComClassFactory@ATL@@@ATL@@@ATL@@SGJPAXABU_GUID@@PAPAX@Z 1000313c f i PINPad.obj
 0001:000021dc       ?CreateInstance@?$CComCreator2@V?$CComCreator@V?$CComObject@VCOPOSPINPad@@@ATL@@@ATL@@V?$CComCreator@V?$CComAggObject@VCOPOSPINPad@@@ATL@@@2@@ATL@@SGJPAXABU_GUID@@PAPAX@Z 100031dc f i PINPad.obj
 0001:000021fc       ?AddRef@?$CComObjectCached@VCComClassFactory@ATL@@@ATL@@UAGKXZ 100031fc f i PINPad.obj
 0001:00002223       ?Release@?$CComObjectCached@VCComClassFactory@ATL@@@ATL@@UAGKXZ 10003223 f i PINPad.obj
 0001:00002259       ?QueryInterface@?$CComObjectCached@VCComClassFactory@ATL@@@ATL@@UAGJABU_GUID@@PAPAX@Z 10003259 f i PINPad.obj
 0001:00002273       ??_E?$CComObjectCached@VCComClassFactory@ATL@@@ATL@@UAEPAXI@Z 10003273 f i PINPad.obj
 0001:00002273       ??_G?$CComObjectCached@VCComClassFactory@ATL@@@ATL@@UAEPAXI@Z 10003273 f i PINPad.obj
 0001:00002295       ?Next@?$CComEnumImpl@UIEnumConnectionPoints@@$1?_GUID_b196b285_bab4_101a_b69c_00aa00341d07@@3U__s_GUID@@BPAUIConnectionPoint@@V?$_CopyInterface@UIConnectionPoint@@@ATL@@@ATL@@UAGJKPAPAUIConnectionPoint@@PAK@Z 10003295 f i PINPad.obj
 0001:0000236c       ?Skip@?$CComEnumImpl@UIEnumConnectionPoints@@$1?_GUID_b196b285_bab4_101a_b69c_00aa00341d07@@3U__s_GUID@@BPAUIConnectionPoint@@V?$_CopyInterface@UIConnectionPoint@@@ATL@@@ATL@@UAGJK@Z 1000336c f i PINPad.obj
 0001:00002399       ?Reset@?$CComEnumImpl@UIEnumConnections@@$1?_GUID_b196b287_bab4_101a_b69c_00aa00341d07@@3U__s_GUID@@BUtagCONNECTDATA@@V?$_Copy@UtagCONNECTDATA@@@ATL@@@ATL@@UAGJXZ 10003399 f i PINPad.obj
 0001:00002399       ?Reset@?$CComEnumImpl@UIEnumConnectionPoints@@$1?_GUID_b196b285_bab4_101a_b69c_00aa00341d07@@3U__s_GUID@@BPAUIConnectionPoint@@V?$_CopyInterface@UIConnectionPoint@@@ATL@@@ATL@@UAGJXZ 10003399 f i PINPad.obj
 0001:000023ab       ?Clone@?$CComEnumImpl@UIEnumConnectionPoints@@$1?_GUID_b196b285_bab4_101a_b69c_00aa00341d07@@3U__s_GUID@@BPAUIConnectionPoint@@V?$_CopyInterface@UIConnectionPoint@@@ATL@@@ATL@@UAGJPAPAUIEnumConnectionPoints@@@Z 100033ab f i PINPad.obj
 0001:0000248c       ?AddRef@?$CComObject@V?$CComEnum@UIEnumConnectionPoints@@$1?_GUID_b196b285_bab4_101a_b69c_00aa00341d07@@3U__s_GUID@@BPAUIConnectionPoint@@V?$_CopyInterface@UIConnectionPoint@@@ATL@@VCComSingleThreadModel@6@@ATL@@@ATL@@UAGKXZ 1000348c f i PINPad.obj
 0001:0000248c       ?AddRef@?$CComObject@V?$CComEnum@UIEnumConnections@@$1?_GUID_b196b287_bab4_101a_b69c_00aa00341d07@@3U__s_GUID@@BUtagCONNECTDATA@@V?$_Copy@UtagCONNECTDATA@@@ATL@@VCComSingleThreadModel@6@@ATL@@@ATL@@UAGKXZ 1000348c f i PINPad.obj
 0001:0000249d       ?Release@?$CComObject@V?$CComEnum@UIEnumConnectionPoints@@$1?_GUID_b196b285_bab4_101a_b69c_00aa00341d07@@3U__s_GUID@@BPAUIConnectionPoint@@V?$_CopyInterface@UIConnectionPoint@@@ATL@@VCComSingleThreadModel@6@@ATL@@@ATL@@UAGKXZ 1000349d f i PINPad.obj
 0001:0000249d       ?Release@?$CComObject@V?$CComEnum@UIEnumConnections@@$1?_GUID_b196b287_bab4_101a_b69c_00aa00341d07@@3U__s_GUID@@BUtagCONNECTDATA@@V?$_Copy@UtagCONNECTDATA@@@ATL@@VCComSingleThreadModel@6@@ATL@@@ATL@@UAGKXZ 1000349d f i PINPad.obj
 0001:000024d9       ?QueryInterface@?$CComObject@V?$CComEnum@UIEnumConnectionPoints@@$1?_GUID_b196b285_bab4_101a_b69c_00aa00341d07@@3U__s_GUID@@BPAUIConnectionPoint@@V?$_CopyInterface@UIConnectionPoint@@@ATL@@VCComSingleThreadModel@6@@ATL@@@ATL@@UAGJABU_GUID@@PAPAX@Z 100034d9 f i PINPad.obj
 0001:000024f3       ??_G?$CComObject@V?$CComEnum@UIEnumConnectionPoints@@$1?_GUID_b196b285_bab4_101a_b69c_00aa00341d07@@3U__s_GUID@@BPAUIConnectionPoint@@V?$_CopyInterface@UIConnectionPoint@@@ATL@@VCComSingleThreadModel@6@@ATL@@@ATL@@UAEPAXI@Z 100034f3 f i PINPad.obj
 0001:000024f3       ??_E?$CComObject@V?$CComEnum@UIEnumConnectionPoints@@$1?_GUID_b196b285_bab4_101a_b69c_00aa00341d07@@3U__s_GUID@@BPAUIConnectionPoint@@V?$_CopyInterface@UIConnectionPoint@@@ATL@@VCComSingleThreadModel@6@@ATL@@@ATL@@UAEPAXI@Z 100034f3 f i PINPad.obj
 0001:00002515       ?AddRef@CRegObject@ATL@@UAGKXZ 10003515 f i PINPad.obj
 0001:0000251b       ?AddReplacement@CRegObject@ATL@@UAGJPB_W0@Z 1000351b f i PINPad.obj
 0001:00002554       ?ClearReplacements@CRegObject@ATL@@UAGJXZ 10003554 f i PINPad.obj
 0001:00002566       ??_ECRegObject@ATL@@UAEPAXI@Z 10003566 f i PINPad.obj
 0001:00002566       ??_GCRegObject@ATL@@UAEPAXI@Z 10003566 f i PINPad.obj
 0001:00002588       ?AddRef@?$CComAggObject@VCOPOSPINPad@@@ATL@@UAGKXZ 10003588 f i PINPad.obj
 0001:00002599       ?Release@?$CComAggObject@VCOPOSPINPad@@@ATL@@UAGKXZ 10003599 f i PINPad.obj
 0001:000025d5       ?QueryInterface@?$CComAggObject@VCOPOSPINPad@@@ATL@@UAGJABU_GUID@@PAPAX@Z 100035d5 f i PINPad.obj
 0001:00002624       ?AddRef@?$CComContainedObject@VCOPOSPINPad@@@ATL@@UAGKXZ 10003624 f i PINPad.obj
 0001:0000263a       ?Release@?$CComContainedObject@VCOPOSPINPad@@@ATL@@UAGKXZ 1000363a f i PINPad.obj
 0001:00002650       ?QueryInterface@?$CComContainedObject@VCOPOSPINPad@@@ATL@@UAGJABU_GUID@@PAPAX@Z 10003650 f i PINPad.obj
 0001:0000266b       ??_E?$CComAggObject@VCOPOSPINPad@@@ATL@@UAEPAXI@Z 1000366b f i PINPad.obj
 0001:0000266b       ??_G?$CComAggObject@VCOPOSPINPad@@@ATL@@UAEPAXI@Z 1000366b f i PINPad.obj
 0001:00002690       ?AddRef@?$CComObject@VCOPOSPINPad@@@ATL@@UAGKXZ 10003690 f i PINPad.obj
 0001:000026a7       ?Release@?$CComObject@VCOPOSPINPad@@@ATL@@UAGKXZ 100036a7 f i PINPad.obj
 0001:000026e9       ?QueryInterface@?$CComObject@VCOPOSPINPad@@@ATL@@UAGJABU_GUID@@PAPAX@Z 100036e9 f i PINPad.obj
 0001:00002703       ?OnDrawAdvanced@CComControlBase@ATL@@UAEJAAUATL_DRAWINFO@@@Z 10003703 f i PINPad.obj
 0001:000027f6       ?Next@?$CComEnumImpl@UIEnumConnections@@$1?_GUID_b196b287_bab4_101a_b69c_00aa00341d07@@3U__s_GUID@@BUtagCONNECTDATA@@V?$_Copy@UtagCONNECTDATA@@@ATL@@@ATL@@UAGJKPAUtagCONNECTDATA@@PAK@Z 100037f6 f i PINPad.obj
 0001:000028cd       ?Skip@?$CComEnumImpl@UIEnumConnections@@$1?_GUID_b196b287_bab4_101a_b69c_00aa00341d07@@3U__s_GUID@@BUtagCONNECTDATA@@V?$_Copy@UtagCONNECTDATA@@@ATL@@@ATL@@UAGJK@Z 100038cd f i PINPad.obj
 0001:000028fa       ?Clone@?$CComEnumImpl@UIEnumConnections@@$1?_GUID_b196b287_bab4_101a_b69c_00aa00341d07@@3U__s_GUID@@BUtagCONNECTDATA@@V?$_Copy@UtagCONNECTDATA@@@ATL@@@ATL@@UAGJPAPAUIEnumConnections@@@Z 100038fa f i PINPad.obj
 0001:000029db       ?QueryInterface@?$CComObject@V?$CComEnum@UIEnumConnections@@$1?_GUID_b196b287_bab4_101a_b69c_00aa00341d07@@3U__s_GUID@@BUtagCONNECTDATA@@V?$_Copy@UtagCONNECTDATA@@@ATL@@VCComSingleThreadModel@6@@ATL@@@ATL@@UAGJABU_GUID@@PAPAX@Z 100039db f i PINPad.obj
 0001:000029f5       ??_G?$CComObject@V?$CComEnum@UIEnumConnections@@$1?_GUID_b196b287_bab4_101a_b69c_00aa00341d07@@3U__s_GUID@@BUtagCONNECTDATA@@V?$_Copy@UtagCONNECTDATA@@@ATL@@VCComSingleThreadModel@6@@ATL@@@ATL@@UAEPAXI@Z 100039f5 f i PINPad.obj
 0001:000029f5       ??_E?$CComObject@V?$CComEnum@UIEnumConnections@@$1?_GUID_b196b287_bab4_101a_b69c_00aa00341d07@@3U__s_GUID@@BUtagCONNECTDATA@@V?$_Copy@UtagCONNECTDATA@@@ATL@@VCComSingleThreadModel@6@@ATL@@@ATL@@UAEPAXI@Z 100039f5 f i PINPad.obj
 0001:00002a17       ??$?4UITypeInfo2@@@?$CComPtr@UITypeInfo@@@ATL@@QAEPAUITypeInfo@@ABV?$CComPtr@UITypeInfo2@@@1@@Z 10003a17 f i PINPad.obj
 0001:00002a44       ??$AtlAdd@K@ATL@@YAJPAKKK@Z 10003a44 f i PINPad.obj
 0001:00002a67       ??$AtlAdd@_K@ATL@@YAJPA_K_K1@Z 10003a67 f i PINPad.obj
 0001:00002a9f       ??$AtlAddThrow@K@ATL@@YAKKK@Z 10003a9f f i PINPad.obj
 0001:00002ac5       ??$AtlModuleRegisterWndClassInfoT@VAtlModuleRegisterWndClassInfoParamW@ATL@@@ATL@@YAGPAU_ATL_BASE_MODULE70@0@PAU_ATL_WIN_MODULE70@0@PAU_ATL_WNDCLASSINFOW@0@PAP6GJPAUHWND__@@IIJ@ZVAtlModuleRegisterWndClassInfoParamW@0@@Z 10003ac5 f i PINPad.obj
 0001:00002c13       ??$AtlMultiply@H@ATL@@YAJPAHHH@Z 10003c13 f i PINPad.obj
 0001:00002c4b       ??$AtlMultiply@I@ATL@@YAJPAIII@Z 10003c4b f i PINPad.obj
 0001:00002c4b       ??$AtlMultiply@K@ATL@@YAJPAKKK@Z 10003c4b f i PINPad.obj
 0001:00002c6d       ??$AtlMultiplyThrow@I@ATL@@YAIII@Z 10003c6d f i PINPad.obj
 0001:00002c93       ??0?$CComAggObject@VCOPOSPINPad@@@ATL@@QAE@PAX@Z 10003c93 f i PINPad.obj
 0001:00002cc0       ??0?$CComContainedObject@VCOPOSPINPad@@@ATL@@QAE@PAX@Z 10003cc0 f i PINPad.obj
 0001:00002d79       ??0?$CComObject@V?$CComEnum@UIEnumConnectionPoints@@$1?_GUID_b196b285_bab4_101a_b69c_00aa00341d07@@3U__s_GUID@@BPAUIConnectionPoint@@V?$_CopyInterface@UIConnectionPoint@@@ATL@@VCComSingleThreadModel@6@@ATL@@@ATL@@QAE@PAX@Z 10003d79 f i PINPad.obj
 0001:00002da7       ??0?$CComObject@V?$CComEnum@UIEnumConnections@@$1?_GUID_b196b287_bab4_101a_b69c_00aa00341d07@@3U__s_GUID@@BUtagCONNECTDATA@@V?$_Copy@UtagCONNECTDATA@@@ATL@@VCComSingleThreadModel@6@@ATL@@@ATL@@QAE@PAX@Z 10003da7 f i PINPad.obj
 0001:00002dd5       ??0?$CComObject@VCOPOSPINPad@@@ATL@@QAE@PAX@Z 10003dd5 f i PINPad.obj
 0001:00002e8c       ??0?$CComQIPtr@UIOleControlSite@@$1?_GUID_b196b289_bab4_101a_b69c_00aa00341d07@@3U__s_GUID@@B@ATL@@QAE@PAUIUnknown@@@Z 10003e8c f i PINPad.obj
 0001:00002eb5       ??0CAtlModule@ATL@@QAE@XZ  10003eb5 f i PINPad.obj
 0001:00002ef6       ??0CParseBuffer@CRegParser@ATL@@QAE@H@Z 10003ef6 f i PINPad.obj
 0001:00002f2c       ??0_ATL_MSG@ATL@@QAE@PAUHWND__@@IIJH@Z 10003f2c f i PINPad.obj
 0001:00002f64       ??1?$CComAggObject@VCOPOSPINPad@@@ATL@@UAE@XZ 10003f64 f i PINPad.obj
 0001:00002f88       ??1?$CComEnumImpl@UIEnumConnectionPoints@@$1?_GUID_b196b285_bab4_101a_b69c_00aa00341d07@@3U__s_GUID@@BPAUIConnectionPoint@@V?$_CopyInterface@UIConnectionPoint@@@ATL@@@ATL@@UAE@XZ 10003f88 f i PINPad.obj
 0001:00002fc8       ??1?$CComEnumImpl@UIEnumConnections@@$1?_GUID_b196b287_bab4_101a_b69c_00aa00341d07@@3U__s_GUID@@BUtagCONNECTDATA@@V?$_Copy@UtagCONNECTDATA@@@ATL@@@ATL@@UAE@XZ 10003fc8 f i PINPad.obj
 0001:00003008       ??1?$CComObject@V?$CComEnum@UIEnumConnectionPoints@@$1?_GUID_b196b285_bab4_101a_b69c_00aa00341d07@@3U__s_GUID@@BPAUIConnectionPoint@@V?$_CopyInterface@UIConnectionPoint@@@ATL@@VCComSingleThreadModel@6@@ATL@@@ATL@@UAE@XZ 10004008 f i PINPad.obj
 0001:0000302b       ??1?$CComObject@V?$CComEnum@UIEnumConnections@@$1?_GUID_b196b287_bab4_101a_b69c_00aa00341d07@@3U__s_GUID@@BUtagCONNECTDATA@@V?$_Copy@UtagCONNECTDATA@@@ATL@@VCComSingleThreadModel@6@@ATL@@@ATL@@UAE@XZ 1000402b f i PINPad.obj
 0001:0000304e       ??1?$CComObject@VCOPOSPINPad@@@ATL@@UAE@XZ 1000404e f i PINPad.obj
 0001:0000310c       ??1?$CComObjectCached@VCComClassFactory@ATL@@@ATL@@UAE@XZ 1000410c f i PINPad.obj
 0001:00003122       ??1?$CComObjectRootEx@VCComMultiThreadModel@ATL@@@ATL@@QAE@XZ 10004122 f i PINPad.obj
 0001:00003137       ??1CRegObject@ATL@@UAE@XZ  10004137 f i PINPad.obj
 0001:00003157       ??4?$CComPtr@UIUnknown@@@ATL@@QAEPAUIUnknown@@PAU2@@Z 10004157 f i PINPad.obj
 0001:00003157       ??4?$CComPtr@UIOleClientSite@@@ATL@@QAEPAUIOleClientSite@@PAU2@@Z 10004157 f i PINPad.obj
 0001:00003157       ??4?$CComPtr@UIAdviseSink@@@ATL@@QAEPAUIAdviseSink@@PAU2@@Z 10004157 f i PINPad.obj
 0001:0000318b       ??_G?$CComContainedObject@VCOPOSPINPad@@@ATL@@UAEPAXI@Z 1000418b f i PINPad.obj
 0001:0000318b       ??_E?$CComContainedObject@VCOPOSPINPad@@@ATL@@UAEPAXI@Z 1000418b f i PINPad.obj
 0001:000031b0       ??_E?$CComObject@VCOPOSPINPad@@@ATL@@UAEPAXI@Z 100041b0 f i PINPad.obj
 0001:000031b0       ??_G?$CComObject@VCOPOSPINPad@@@ATL@@UAEPAXI@Z 100041b0 f i PINPad.obj
 0001:000031d5       ?Add@?$CSimpleArray@GV?$CSimpleArrayEqualHelper@G@ATL@@@ATL@@QAEHABG@Z 100041d5 f i PINPad.obj
 0001:00003259       ?Add@?$CSimpleMap@PA_WPA_WVCExpansionVectorEqualHelper@ATL@@@ATL@@QAEHABQA_W0@Z 10004259 f i PINPad.obj
 0001:000032ae       ?Add@CComDynamicUnkArray@ATL@@QAEKPAUIUnknown@@@Z 100042ae f i PINPad.obj
 0001:00003364       ?Add@CExpansionVector@ATL@@QAEHPB_W0@Z 10004364 f i PINPad.obj
 0001:0000346d       ?AddString@CParseBuffer@CRegParser@ATL@@QAEHPB_W@Z 1000446d f i PINPad.obj
 0001:000034a2       ?AddTermFunc@CAtlModule@ATL@@QAEJP6GXK@ZK@Z 100044a2 f i PINPad.obj
 0001:00003505       ?AddValue@CRegParser@ATL@@IAEJAAVCRegKey@2@PB_WPA_W@Z 10004505 f i PINPad.obj
 0001:0000381f       ?Allocate@?$CAtlSafeAllocBufferManager@VCCRTAllocator@ATL@@@_ATL_SAFE_ALLOCA_IMPL@ATL@@QAEPAXK@Z 1000481f f i PINPad.obj
 0001:0000384c       ?Allocate@?$CTempBuffer@E$0BAA@VCCRTAllocator@ATL@@@ATL@@QAEPAEI@Z 1000484c f i PINPad.obj
 0001:0000387b       ?Allocate@?$CTempBuffer@_W$0BAA@VCCRTAllocator@ATL@@@ATL@@QAEPA_WI@Z 1000487b f i PINPad.obj
 0001:000038aa       ?Allocate@?$CTempBuffer@_W$0EAA@VCCRTAllocator@ATL@@@ATL@@QAEPA_WI@Z 100048aa f i PINPad.obj
 0001:000038d9       ?AllocateHeap@?$CTempBuffer@_W$0EAA@VCCRTAllocator@ATL@@@ATL@@AAEXI@Z 100048d9 f i PINPad.obj
 0001:000038d9       ?AllocateHeap@?$CTempBuffer@E$0BAA@VCCRTAllocator@ATL@@@ATL@@AAEXI@Z 100048d9 f i PINPad.obj
 0001:000038d9       ?AllocateHeap@?$CTempBuffer@_W$0BAA@VCCRTAllocator@ATL@@@ATL@@AAEXI@Z 100048d9 f i PINPad.obj
 0001:000038fe       ?Append@CParseBuffer@CRegParser@ATL@@QAEHPB_WH@Z 100048fe f i PINPad.obj
 0001:0000398c       ?AtlCoTaskMemCAlloc@ATL@@YAPAXKK@Z 1000498c f i PINPad.obj
 0001:000039b9       ?AtlCoTaskMemRecalloc@ATL@@YAPAXPAXKK@Z 100049b9 f i PINPad.obj
 0001:000039e9       ?AtlComModuleGetClassObject@ATL@@YGJPAU_ATL_COM_MODULE70@1@ABU_GUID@@1PAPAX@Z 100049e9 f i PINPad.obj
 0001:00003adc       ?AtlComModuleRegisterServer@ATL@@YGJPAU_ATL_COM_MODULE70@1@HPBU_GUID@@@Z 10004adc f i PINPad.obj
 0001:00003b64       ?AtlComModuleUnregisterServer@ATL@@YGJPAU_ATL_COM_MODULE70@1@HPBU_GUID@@@Z 10004b64 f i PINPad.obj
 0001:00003bec       ?AtlComQIPtrAssign2@ATL@@YAXPAPAUIUnknown@@PAU2@ABU_GUID@@@Z 10004bec f i PINPad.obj
 0001:00003c1b       ?AtlCreateTargetDC@ATL@@YGPAUHDC__@@PAU2@PAUtagDVTARGETDEVICE@@@Z 10004c1b f i PINPad.obj
 0001:00003c84       ?AtlCrtErrorCheck@ATL@@YAHH@Z 10004c84 f i PINPad.obj
 0001:00003cbf       ?AtlHiMetricToPixel@ATL@@YGXPBUtagSIZE@@PAU2@@Z 10004cbf f i PINPad.obj
 0001:00003d34       ?AtlHresultFromLastError@ATL@@YAJXZ 10004d34 f i PINPad.obj
 0001:00003d4b       ?AtlHresultFromWin32@ATL@@YAJK@Z 10004d4b f i PINPad.obj
 0001:00003d60       ?AtlInternalOleLoadFromStream@ATL@@YAJPAUIStream@@ABU_GUID@@PAPAXTClassesAllowedInStream@1@K@Z 10004d60 f i PINPad.obj
 0001:00003e7e       ?AtlInternalQueryInterface@ATL@@YGJPAXPBU_ATL_INTMAP_ENTRY@1@ABU_GUID@@PAPAX@Z 10004e7e f i PINPad.obj
 0001:00003f21       ?AtlLoadTypeLib@ATL@@YGJPAUHINSTANCE__@@PB_WPAPA_WPAPAUITypeLib@@@Z 10004f21 f i PINPad.obj
 0001:000040ff       ?AtlRegisterClassCategoriesHelper@ATL@@YGJABU_GUID@@PBU_ATL_CATMAP_ENTRY@1@H@Z 100050ff f i PINPad.obj
 0001:000043fb       ?AtlRegisterTypeLib@ATL@@YGJPAUHINSTANCE__@@PB_W@Z 100053fb f i PINPad.obj
 0001:00004583       ?AtlThrowImpl@ATL@@YGXJ@Z  10005583 f i PINPad.obj
 0001:000045a1       ?AtlUnRegisterTypeLib@ATL@@YGJPAUHINSTANCE__@@PB_W@Z 100055a1 f i PINPad.obj
 0001:0000464c       ?AtlWinModuleAddCreateWndData@ATL@@YGXPAU_ATL_WIN_MODULE70@1@PAU_AtlCreateWndData@1@PAX@Z 1000564c f i PINPad.obj
 0001:000046a0       ?AtlWinModuleExtractCreateWndData@ATL@@YGPAXPAU_ATL_WIN_MODULE70@1@@Z 100056a0 f i PINPad.obj
 0001:00004703       ?AtlWinModuleRegisterClassExW@ATL@@YGGPAU_ATL_WIN_MODULE70@1@PBUtagWNDCLASSEXW@@@Z 10005703 f i PINPad.obj
 0001:00004742       ?CanForceRemoveKey@CRegParser@ATL@@IAEHPB_W@Z 10005742 f i PINPad.obj
 0001:00004771       ?ChToByte@CRegParser@ATL@@KAE_W@Z 10005771 f i PINPad.obj
 0001:000047a4       ?Cleanup@CComTypeInfoHolder@ATL@@SGXK@Z 100057a4 f i PINPad.obj
 0001:000047d7       ?ClearReplacements@CExpansionVector@ATL@@QAEJXZ 100057d7 f i PINPad.obj
 0001:00004814       ?Close@CRegKey@ATL@@QAEJXZ 10005814 f i PINPad.obj
 0001:0000482e       ?CreateInstance@?$CComCreator@V?$CComAggObject@VCOPOSPINPad@@@ATL@@@ATL@@SGJPAXABU_GUID@@PAPAX@Z 1000582e f i PINPad.obj
 0001:000048a3       ?CreateInstance@?$CComCreator@V?$CComObject@VCOPOSPINPad@@@ATL@@@ATL@@SGJPAXABU_GUID@@PAPAX@Z 100058a3 f i PINPad.obj
 0001:00004923       ?CreateInstance@?$CComObject@V?$CComEnum@UIEnumConnectionPoints@@$1?_GUID_b196b285_bab4_101a_b69c_00aa00341d07@@3U__s_GUID@@BPAUIConnectionPoint@@V?$_CopyInterface@UIConnectionPoint@@@ATL@@VCComSingleThreadModel@6@@ATL@@@ATL@@SGJPAPAV12@@Z 10005923 f i PINPad.obj
 0001:0000496d       ?CreateInstance@?$CComObject@V?$CComEnum@UIEnumConnections@@$1?_GUID_b196b287_bab4_101a_b69c_00aa00341d07@@3U__s_GUID@@BUtagCONNECTDATA@@V?$_Copy@UtagCONNECTDATA@@@ATL@@VCComSingleThreadModel@6@@ATL@@@ATL@@SGJPAPAV12@@Z 1000596d f i PINPad.obj
 0001:000049b7       ?DefaultReflectionHandler@?$CWindowImplRoot@VCWindow@ATL@@@ATL@@SAHPAUHWND__@@IIJAAJ@Z 100059b7 f i PINPad.obj
 0001:00004a2a       ?DeleteSubKey@CRegKey@ATL@@QAEJPB_W@Z 10005a2a f i PINPad.obj
 0001:00004aa3       ?DoEvent@COPOSPINPad@@IAEXIIJ@Z 10005aa3 f i PINPad.obj
 0001:00004b23       ?DoVerbHide@?$IOleObjectImpl@VCOPOSPINPad@@@ATL@@QAEJPBUtagRECT@@PAUHWND__@@@Z 10005b23 f i PINPad.obj
 0001:00004b59       ?DoVerbInPlaceActivate@?$IOleObjectImpl@VCOPOSPINPad@@@ATL@@QAEJPBUtagRECT@@PAUHWND__@@@Z 10005b59 f i PINPad.obj
 0001:00004b8c       ?DoVerbPrimary@?$IOleObjectImpl@VCOPOSPINPad@@@ATL@@QAEJPBUtagRECT@@PAUHWND__@@@Z 10005b8c f i PINPad.obj
 0001:00004c18       ?DoVerbProperties@CComControlBase@ATL@@QAEJPBUtagRECT@@PAUHWND__@@@Z 10005c18 f i PINPad.obj
 0001:00004d97       ?DoVerbUIActivate@?$IOleObjectImpl@VCOPOSPINPad@@@ATL@@QAEJPBUtagRECT@@PAUHWND__@@@Z 10005d97 f i PINPad.obj
 0001:00004dd4       ?DoesVerbActivate@CComControlBase@ATL@@QAEHJ@Z 10005dd4 f i PINPad.obj
 0001:00004df5       ?DoesVerbUIActivate@CComControlBase@ATL@@QAEHJ@Z 10005df5 f i PINPad.obj
 0001:00004e2a       ?EndOfVar@CRegParser@ATL@@IAEHXZ 10005e2a f i PINPad.obj
 0001:00004e4a       ?EscapeSingleQuote@CAtlModule@ATL@@SAXPA_WIPB_W@Z 10005e4a f i PINPad.obj
 0001:00004e99       ?FindKey@?$CSimpleMap@PA_WPA_WVCExpansionVectorEqualHelper@ATL@@@ATL@@QBEHABQA_W@Z 10005e99 f i PINPad.obj
 0001:00004ed0       ?FireTheEvent@?$CProxy_IOPOSEvents@VCOPOSPINPad@@@@IAEXPAVOposVariant@@IAAJPB_WJ@Z 10005ed0 f i PINPad.obj
 0001:00004f62       ?FireViewChange@CComControlBase@ATL@@QAEJXZ 10005f62 f i PINPad.obj
 0001:00004fab       ?Fire_DataEvent@?$CProxy_IOPOSEvents@VCOPOSPINPad@@@@QAEXJ@Z 10005fab f i PINPad.obj
 0001:00005041       ?Fire_DirectIOEvent@?$CProxy_IOPOSEvents@VCOPOSPINPad@@@@QAEXJPAJPAPA_W@Z 10006041 f i PINPad.obj
 0001:0000512d       ?Fire_ErrorEvent@?$CProxy_IOPOSEvents@VCOPOSPINPad@@@@QAEXJJJPAJ@Z 1000612d f i PINPad.obj
 0001:0000521e       ?Fire_StatusUpdateEvent@?$CProxy_IOPOSEvents@VCOPOSPINPad@@@@QAEXJ@Z 1000621e f i PINPad.obj
 0001:000052b4       ?FreeHeap@?$CTempBuffer@_W$0BAA@VCCRTAllocator@ATL@@@ATL@@AAEXXZ 100062b4 f i PINPad.obj
 0001:000052b4       ?FreeHeap@?$CTempBuffer@E$0BAA@VCCRTAllocator@ATL@@@ATL@@AAEXXZ 100062b4 f i PINPad.obj
 0001:000052b4       ?FreeHeap@?$CTempBuffer@_W$0EAA@VCCRTAllocator@ATL@@@ATL@@AAEXXZ 100062b4 f i PINPad.obj
 0001:000052bd       ?GetAmbientLocaleID@CComControlBase@ATL@@QAEJAAK@Z 100062bd f i PINPad.obj
 0001:00005319       ?GetAmbientUserMode@CComControlBase@ATL@@QAEJAAH@Z 10006319 f i PINPad.obj
 0001:00005389       ?GetAt@CComDynamicUnkArray@ATL@@QAEPAUIUnknown@@H@Z 10006389 f i PINPad.obj
 0001:000053a5       ?GetClassObject@CComModule@ATL@@QAEJABU_GUID@@0PAPAX@Z 100063a5 f i PINPad.obj
 0001:00005447       ?GetConnMap@COPOSPINPad@@SAPBU_ATL_CONNMAP_ENTRY@ATL@@PAH@Z 10006447 f i PINPad.obj
 0001:000054b7       ?GetCookie@CComDynamicUnkArray@ATL@@QAGKPAPAUIUnknown@@@Z 100064b7 f i PINPad.obj
 0001:000054ef       ?GetIDsOfNames@CComTypeInfoHolder@ATL@@QAEJABU_GUID@@PAPA_WIKPAJ@Z 100064ef f i PINPad.obj
 0001:00005616       ?GetKeyAt@?$CSimpleMap@PA_WPA_WVCExpansionVectorEqualHelper@ATL@@@ATL@@QBEAAPA_WH@Z 10006616 f i PINPad.obj
 0001:0000563b       ?GetPagesHelper@?$ISpecifyPropertyPagesImpl@VCOPOSPINPad@@@ATL@@IAEJPAUtagCAUUID@@PBUATL_PROPMAP_ENTRY@2@@Z 1000663b f i PINPad.obj
 0001:00005762       ?GetProperty@?$CComPtr@UIDispatch@@@ATL@@SAJPAUIDispatch@@JPAUtagVARIANT@@@Z 10006762 f i PINPad.obj
 0001:000057b1       ?GetSizeMax@CComVariant@ATL@@QBEJPAT_ULARGE_INTEGER@@@Z 100067b1 f i PINPad.obj
 0001:00005973       ?GetTI@CComTypeInfoHolder@ATL@@QAEJK@Z 10006973 f i PINPad.obj
 0001:00005b52       ?GetTI@CComTypeInfoHolder@ATL@@QAEJKPAPAUITypeInfo@@@Z 10006b52 f i PINPad.obj
 0001:00005b94       ?GetUnknown@CComDynamicUnkArray@ATL@@QAGPAUIUnknown@@K@Z 10006b94 f i PINPad.obj
 0001:00005bb5       ?GetValueAt@?$CSimpleMap@PA_WPA_WVCExpansionVectorEqualHelper@ATL@@@ATL@@QBEAAPA_WH@Z 10006bb5 f i PINPad.obj
 0001:00005bdb       ?GetZoomInfo@CComControlBase@ATL@@QAEXAAUATL_DRAWINFO@@@Z 10006bdb f i PINPad.obj
 0001:00005c6e       ?HKeyFromString@CRegParser@ATL@@KAPAUHKEY__@@PA_W@Z 10006c6e f i PINPad.obj
 0001:00005c9c       ?HasSubKeys@CRegParser@ATL@@IAEHPAUHKEY__@@@Z 10006c9c f i PINPad.obj
 0001:00005cd1       ?IDataObject_GetData@CComControlBase@ATL@@QAEJPAUtagFORMATETC@@PAUtagSTGMEDIUM@@@Z 10006cd1 f i PINPad.obj
 0001:00005e77       ?IOleInPlaceObject_InPlaceDeactivate@CComControlBase@ATL@@QAEJXZ 10006e77 f i PINPad.obj
 0001:00005efe       ?IOleInPlaceObject_SetObjectRects@CComControlBase@ATL@@QAEJPBUtagRECT@@0@Z 10006efe f i PINPad.obj
 0001:00005fcb       ?IOleInPlaceObject_UIDeactivate@CComControlBase@ATL@@QAEJXZ 10006fcb f i PINPad.obj
 0001:0000608d       ?IOleObject_Advise@CComControlBase@ATL@@QAEJPAUIAdviseSink@@PAK@Z 1000708d f i PINPad.obj
 0001:000060b7       ?IOleObject_Close@CComControlBase@ATL@@QAEJK@Z 100070b7 f i PINPad.obj
 0001:0000619b       ?IOleObject_GetClientSite@CComControlBase@ATL@@QAEJPAPAUIOleClientSite@@@Z 1000719b f i PINPad.obj
 0001:000061c4       ?IOleObject_SetClientSite@CComControlBase@ATL@@QAEJPAUIOleClientSite@@@Z 100071c4 f i PINPad.obj
 0001:00006203       ?IOleObject_SetExtent@CComControlBase@ATL@@QAEJKPAUtagSIZE@@@Z 10007203 f i PINPad.obj
 0001:000062b5       ?IPSI_GetIPersistStreamInit@?$IPersistStorageImpl@VCOPOSPINPad@@@ATL@@AAEPAUIPersistStreamInit@@XZ 100072b5 f i PINPad.obj
 0001:0000635d       ?IPersistStreamInit_Load@?$IPersistStreamInitImpl@VCOPOSPINPad@@@ATL@@QAEJPAUIStream@@PBUATL_PROPMAP_ENTRY@2@@Z 1000735d f i PINPad.obj
 0001:000065d2       ?IPersistStreamInit_Save@?$IPersistStreamInitImpl@VCOPOSPINPad@@@ATL@@QAEJPAUIStream@@HPBUATL_PROPMAP_ENTRY@2@@Z 100075d2 f i PINPad.obj
 0001:000067c0       ?IQuickActivate_QuickActivate@CComControlBase@ATL@@QAEJPAUtagQACONTAINER@@PAUtagQACONTROL@@@Z 100077c0 f i PINPad.obj
 0001:00006a02       ?IViewObject_Draw@CComControlBase@ATL@@QAEJKJPAXPAUtagDVTARGETDEVICE@@PAUHDC__@@2PBU_RECTL@@3@Z 10007a02 f i PINPad.obj
 0001:00006aaa       ?InPlaceActivate@CComControlBase@ATL@@QAEJJPBUtagRECT@@@Z 10007aaa f i PINPad.obj
 0001:00006d1b       ?Init@?$CComEnumImpl@UIEnumConnectionPoints@@$1?_GUID_b196b285_bab4_101a_b69c_00aa00341d07@@3U__s_GUID@@BPAUIConnectionPoint@@V?$_CopyInterface@UIConnectionPoint@@@ATL@@@ATL@@QAEJPAPAUIConnectionPoint@@0PAUIUnknown@@W4CComEnumFlags@2@@Z 10007d1b f i PINPad.obj
 0001:00006dfa       ?Init@?$CComEnumImpl@UIEnumConnections@@$1?_GUID_b196b287_bab4_101a_b69c_00aa00341d07@@3U__s_GUID@@BUtagCONNECTDATA@@V?$_Copy@UtagCONNECTDATA@@@ATL@@@ATL@@QAEJPAUtagCONNECTDATA@@0PAUIUnknown@@W4CComEnumFlags@2@@Z 10007dfa f i PINPad.obj
 0001:00006ed9       ?Init@CComModule@ATL@@QAEJPAU_ATL_OBJMAP_ENTRY30@2@PAUHINSTANCE__@@PBU_GUID@@@Z 10007ed9 f i PINPad.obj
 0001:00006f38       ?Init@CDynamicStdCallThunk2@ATL@@QAEHKPAX@Z 10007f38 f i PINPad.obj
 0001:00006f63       ?InlineIsEqualUnknown@ATL@@YGHABU_GUID@@@Z 10007f63 f i PINPad.obj
 0001:00006f8b       ?InternalSetAtIndex@?$CSimpleMap@PA_WPA_WVCExpansionVectorEqualHelper@ATL@@@ATL@@QAEXHABQA_W0@Z 10007f8b f i PINPad.obj
 0001:00006fb5       ?Invoke@CComTypeInfoHolder@ATL@@QAEJPAUIDispatch@@JABU_GUID@@KGPAUtagDISPPARAMS@@PAUtagVARIANT@@PAUtagEXCEPINFO@@PAI@Z 10007fb5 f i PINPad.obj
 0001:00006ff8       ?IsEqualObject@?$CComPtrBase@UIOleClientSite@@@ATL@@QAE_NPAUIUnknown@@@Z 10007ff8 f i PINPad.obj
 0001:00006ff8       ?IsEqualObject@?$CComPtrBase@UITypeInfo@@@ATL@@QAE_NPAUIUnknown@@@Z 10007ff8 f i PINPad.obj
 0001:00007065       ?IsSpace@CRegParser@ATL@@IAEH_W@Z 10008065 f i PINPad.obj
 0001:0000708f       ?LoadNameCache@CComTypeInfoHolder@ATL@@QAEJPAUITypeInfo@@@Z 1000808f f i PINPad.obj
 0001:000071c4       ?Lookup@?$CSimpleMap@PA_WPA_WVCExpansionVectorEqualHelper@ATL@@@ATL@@QBEPA_WABQA_W@Z 100081c4 f i PINPad.obj
 0001:000071ea       ?NextToken@CRegParser@ATL@@IAEJPA_W@Z 100081ea f i PINPad.obj
 0001:00007322       ?OnKillFocus@CComControlBase@ATL@@QAEJIIJAAH@Z 10008322 f i PINPad.obj
 0001:0000737d       ?OnMouseActivate@CComControlBase@ATL@@QAEJIIJAAH@Z 1000837d f i PINPad.obj
 0001:000073eb       ?OnPaint@CComControlBase@ATL@@QAEJIIJAAH@Z 100083eb f i PINPad.obj
 0001:0000749d       ?OnSetFocus@CComControlBase@ATL@@QAEJIIJAAH@Z 1000849d f i PINPad.obj
 0001:00007526       ?Open@CRegKey@ATL@@QAEJPAUHKEY__@@PB_WK@Z 10008526 f i PINPad.obj
 0001:0000757b       ?PreProcessBuffer@CRegParser@ATL@@QAEJPA_WPAPA_W@Z 1000857b f i PINPad.obj
 0001:000077ea       ?ProcessWindowMessage@?$CComControl@VCOPOSPINPad@@V?$CWindowImpl@VCOPOSPINPad@@VCWindow@ATL@@V?$CWinTraits@$0FGAAAAAA@$0A@@3@@ATL@@@ATL@@UAEHPAUHWND__@@IIJAAJK@Z 100087ea f i PINPad.obj
 0001:00007889       ?ReadFromStream@CComBSTR@ATL@@QAEJPAUIStream@@@Z 10008889 f i PINPad.obj
 0001:000079ac       ?ReadFromStream@CComVariant@ATL@@QAEJPAUIStream@@GTClassesAllowedInStream@2@K@Z 100089ac f i PINPad.obj
 0001:00007b36       ?RecurseDeleteKey@CRegKey@ATL@@QAEJPB_W@Z 10008b36 f i PINPad.obj
 0001:00007c24       ?RegCreateKeyExW@CAtlTransactionManager@ATL@@QAEJPAUHKEY__@@PB_WKPA_WKKQAU_SECURITY_ATTRIBUTES@@PAPAU3@PAK@Z 10008c24 f i PINPad.obj
 0001:00007c87       ?RegDeleteKeyW@CAtlTransactionManager@ATL@@QAEJPAUHKEY__@@PB_W@Z 10008c87 f i PINPad.obj
 0001:00007cd9       ?RegOpenKeyExW@CAtlTransactionManager@ATL@@QAEJPAUHKEY__@@PB_WKKPAPAU3@@Z 10008cd9 f i PINPad.obj
 0001:00007d30       ?Register@_ATL_WNDCLASSINFOW@ATL@@QAEGPAP6GJPAUHWND__@@IIJ@Z@Z 10008d30 f i PINPad.obj
 0001:00007d50       ?RegisterBuffer@CRegParser@ATL@@QAEJPA_WH@Z 10008d50 f i PINPad.obj
 0001:00007e97       ?RegisterFromResource@CRegObject@ATL@@IAEJPB_W00H@Z 10008e97 f i PINPad.obj
 0001:00007fcd       ?RegisterServer@?$CAtlModuleT@VCComModule@ATL@@@ATL@@QAEJHPBU_GUID@@@Z 10008fcd f i PINPad.obj
 0001:00007ffb       ?RegisterServer@CComModule@ATL@@QAEJHPBU_GUID@@@Z 10008ffb f i PINPad.obj
 0001:00008071       ?RegisterSubkeys@CRegParser@ATL@@IAEJPA_WPAUHKEY__@@HH@Z 10009071 f i PINPad.obj
 0001:0000871e       ?Remove@CComDynamicUnkArray@ATL@@QAEHK@Z 1000971e f i PINPad.obj
 0001:00008747       ?RemoveAll@?$CSimpleMap@PA_WPA_WVCExpansionVectorEqualHelper@ATL@@@ATL@@QAEXXZ 10009747 f i PINPad.obj
 0001:00008773       ?ResourceRegisterSz@CRegObject@ATL@@QAGJPB_W00@Z 10009773 f i PINPad.obj
 0001:000087a0       ?ResourceUnregisterSz@CRegObject@ATL@@QAGJPB_W00@Z 100097a0 f i PINPad.obj
 0001:000087cd       ?SendOnDataChange@CComControlBase@ATL@@QAEJK@Z 100097cd f i PINPad.obj
 0001:0000881a       ?SetControlFocus@CComControlBase@ATL@@QAEHH@Z 1000981a f i PINPad.obj
 0001:000088b7       ?SetMultiStringValue@CRegKey@ATL@@QAEJPB_W0@Z 100098b7 f i PINPad.obj
 0001:00008913       ?SetStringValue@CRegKey@ATL@@QAEJPB_W0K@Z 10009913 f i PINPad.obj
 0001:0000895c       ?SkipAssignment@CRegParser@ATL@@IAEJPA_W@Z 1000995c f i PINPad.obj
 0001:000089c1       ?SkipWhiteSpace@CRegParser@ATL@@IAEXXZ 100099c1 f i PINPad.obj
 0001:000089e3       ?StrChrW@CRegParser@ATL@@KAPA_WPA_W_W@Z 100099e3 f i PINPad.obj
 0001:00008a20       ?Term@CAtlModule@ATL@@QAEXXZ 10009a20 f i PINPad.obj
 0001:00008a73       ?Term@CComModule@ATL@@QAEXXZ 10009a73 f i PINPad.obj
 0001:00008acb       ?UnregisterServer@?$CAtlModuleT@VCComModule@ATL@@@ATL@@QAEJHPBU_GUID@@@Z 10009acb f i PINPad.obj
 0001:00008af1       ?UnregisterServer@CComModule@ATL@@QAEJHPBU_GUID@@@Z 10009af1 f i PINPad.obj
 0001:00008b67       ?UpdateRegistryFromResource@CAtlModule@ATL@@QAGJIHPAU_ATL_REGMAP_ENTRY@2@@Z 10009b67 f i PINPad.obj
 0001:00008d32       ?UpdateRegistryFromResource@CAtlModule@ATL@@QAGJPB_WHPAU_ATL_REGMAP_ENTRY@2@@Z 10009d32 f i PINPad.obj
 0001:00008f03       ?VTFromRegType@CRegParser@ATL@@KAHPB_WAAG@Z 10009f03 f i PINPad.obj
 0001:00008f70       ?WindowProc@?$CWindowImplBaseT@VCWindow@ATL@@V?$CWinTraits@$0FGAAAAAA@$0A@@2@@ATL@@SGJPAUHWND__@@IIJ@Z 10009f70 f i PINPad.obj
 0001:00009062       ?WriteToStream@CComBSTR@ATL@@QAEJPAUIStream@@@Z 1000a062 f i PINPad.obj
 0001:000090c4       ?WriteToStream@CComVariant@ATL@@QAEJPAUIStream@@@Z 1000a0c4 f i PINPad.obj
 0001:0000923e       ?WriteToStream@CComVariant@ATL@@QAEJPAUIStream@@G@Z 1000a23e f i PINPad.obj
 0001:000092a7       ?_AtlInitialConstruct@?$CComObjectRootEx@VCComMultiThreadModel@ATL@@@ATL@@QAEJXZ 1000a2a7 f i PINPad.obj
 0001:000092bc       ?_AtlVerifyStackAvailable@_ATL_SAFE_ALLOCA_IMPL@ATL@@YA_NK@Z 1000a2bc f i PINPad.obj
 0001:0000933a       ?atlCreate@?$CWindowImpl@VCOPOSPINPad@@VCWindow@ATL@@V?$CWinTraits@$0FGAAAAAA@$0A@@3@@ATL@@QAEPAUHWND__@@PAU3@V_U_RECT@2@PB_WKKV_U_MENUorID@2@PAX@Z 1000a33a f i PINPad.obj
 0001:0000937e       ?atlCreate@?$CWindowImplBaseT@VCWindow@ATL@@V?$CWinTraits@$0FGAAAAAA@$0A@@2@@ATL@@QAEPAUHWND__@@PAU3@V_U_RECT@2@PB_WKKV_U_MENUorID@2@GPAX@Z 1000a37e f i PINPad.obj
 0001:0000941a       ?copy@?$_Copy@UtagCONNECTDATA@@@ATL@@SAJPAUtagCONNECTDATA@@PBU3@@Z 1000a41a f i PINPad.obj
 0001:00009450       ?copy@?$_CopyInterface@UIConnectionPoint@@@ATL@@SAJPAPAUIConnectionPoint@@PBQAU3@@Z 1000a450 f i PINPad.obj
 0001:0000947e       ?memcpy_s@Checked@ATL@@YAXPAXIPBXI@Z 1000a47e f i PINPad.obj
 0001:0000949d       ?ocscpy_s@@YA_NPA_WIPB_W@Z 1000a49d f i PINPad.obj
 0001:000094e7       ?wcscpy_s@Checked@ATL@@YAXPA_WIPB_W@Z 1000a4e7 f i PINPad.obj
 0001:00009503       _DllCanUnloadNow@0         1000a503 f   PINPad.obj
 0001:0000950f       _DllGetClassObject@12      1000a50f f   PINPad.obj
 0001:0000951d       _DllMain@12                1000a51d f   PINPad.obj
 0001:0000955f       _DllRegisterServer@0       1000a55f f   PINPad.obj
 0001:0000956e       _DllUnregisterServer@0     1000a56e f   PINPad.obj
 0001:0000957d       _InlineIsEqualGUID         1000a57d f i PINPad.obj
 0001:000095ad       ___local_stdio_printf_options 1000a5ad f i PINPad.obj
 0001:000095b3       __vswprintf_s_l            1000a5b3 f i PINPad.obj
 0001:00009660       _swprintf_s                1000a660 f i PINPad.obj
 0001:0000967c       ??0?$CComControl@VCOPOSPINPad@@V?$CWindowImpl@VCOPOSPINPad@@VCWindow@ATL@@V?$CWinTraits@$0FGAAAAAA@$0A@@3@@ATL@@@ATL@@QAE@XZ 1000a67c f i PINPadImpl.obj
 0001:000096a3       ??0?$CProxy_IOPOSEvents@VCOPOSPINPad@@@@QAE@XZ 1000a6a3 f i PINPadImpl.obj
 0001:000096c3       ??0CComControlBase@ATL@@QAE@AAPAUHWND__@@@Z 1000a6c3 f i PINPadImpl.obj
 0001:00009713       ??0COPOSPINPad@@QAE@XZ     1000a713 f   PINPadImpl.obj
 0001:00009749       ??1?$CComControl@VCOPOSPINPad@@V?$CWindowImpl@VCOPOSPINPad@@VCWindow@ATL@@V?$CWinTraits@$0FGAAAAAA@$0A@@3@@ATL@@@ATL@@UAE@XZ 1000a749 f i PINPadImpl.obj
 0001:00009762       ??1?$IConnectionPointImpl@VCOPOSPINPad@@$1?IID_IPropertyNotifySink@@3U_GUID@@BVCComDynamicUnkArray@ATL@@@ATL@@QAE@XZ 1000a762 f i PINPadImpl.obj
 0001:00009762       ??1?$IConnectionPointImpl@VCOPOSPINPad@@$1?DIID__IOPOSPINPadEvents@@3U_GUID@@BVCComDynamicUnkArray@ATL@@@ATL@@QAE@XZ 1000a762 f i PINPadImpl.obj
 0001:0000979f       ??1CComControlBase@ATL@@UAE@XZ 1000a79f f i PINPadImpl.obj
 0001:00009802       ??1COPOSPINPad@@UAE@XZ     1000a802 f   PINPadImpl.obj
 0001:0000984a       ?BeginEFTTransaction@COPOSPINPad@@UAGJPA_WJPAJ@Z 1000a84a f   PINPadImpl.obj
 0001:000098c6       ?CheckHealth@COPOSPINPad@@UAGJJPAJ@Z 1000a8c6 f   PINPadImpl.obj
 0001:00009915       ?ClaimDevice@COPOSPINPad@@UAGJJPAJ@Z 1000a915 f   PINPadImpl.obj
 0001:0000998a       ?ClearInput@COPOSPINPad@@UAGJPAJ@Z 1000a98a f   PINPadImpl.obj
 0001:000099a5       ?ClearInputProperties@COPOSPINPad@@UAGJPAJ@Z 1000a9a5 f   PINPadImpl.obj
 0001:000099c0       ?Close@COPOSPINPad@@UAGJPAJ@Z 1000a9c0 f   PINPadImpl.obj
 0001:00009a2e       ?CompareFirmwareVersion@COPOSPINPad@@UAGJPA_WPAJ1@Z 1000aa2e f   PINPadImpl.obj
 0001:00009aae       ?ComputeMAC@COPOSPINPad@@UAGJPA_WPAPA_WPAJ@Z 1000aaae f   PINPadImpl.obj
 0001:00009b2e       ?DirectIO@COPOSPINPad@@UAGJJPAJPAPA_W0@Z 1000ab2e f   PINPadImpl.obj
 0001:00009bdc       ?DoInvoke@COPOSPINPad@@IAEJJPAVOposVariant@@IHPAJ_N@Z 1000abdc f   PINPadImpl.obj
 0001:00009cb8       ?EnablePINEntry@COPOSPINPad@@UAGJPAJ@Z 1000acb8 f   PINPadImpl.obj
 0001:00009cd3       ?EndEFTTransaction@COPOSPINPad@@UAGJJPAJ@Z 1000acd3 f   PINPadImpl.obj
 0001:00009d22       ?EventClose@COPOSPINPad@@IAEXXZ 1000ad22 f i PINPadImpl.obj
 0001:00009d55       ?EventInit@COPOSPINPad@@IAEJXZ 1000ad55 f i PINPadImpl.obj
 0001:00009e21       ?EventUninit@COPOSPINPad@@IAEXXZ 1000ae21 f i PINPadImpl.obj
 0001:00009e73       ?EventWindowProc@COPOSPINPad@@IAGJIIJ@Z 1000ae73 f i PINPadImpl.obj
 0001:00009f47       ?FinalConstruct@COPOSPINPad@@QAEJXZ 1000af47 f   PINPadImpl.obj
 0001:00009f80       ?FireEventCleanup@COPOSPINPad@@IAEXXZ 1000af80 f i PINPadImpl.obj
 0001:00009f96       ?FireEventSetup@COPOSPINPad@@IAE_NXZ 1000af96 f i PINPadImpl.obj
 0001:00009fca       ?FreezeEvents@COPOSPINPad@@MAGJH@Z 1000afca f   PINPadImpl.obj
 0001:0000a02a       ?GetOposProp@COPOSPINPad@@IAEJJPAFJ@Z 1000b02a f   PINPadImpl.obj
 0001:0000a04d       ?GetOposProp@COPOSPINPad@@IAEJJPAJJ@Z 1000b04d f   PINPadImpl.obj
 0001:0000a11c       ?GetOposProp@COPOSPINPad@@IAEJJPAPA_WJ@Z 1000b11c f   PINPadImpl.obj
 0001:0000a1f8       ?OnDraw@COPOSPINPad@@MAEJAAUATL_DRAWINFO@@@Z 1000b1f8 f   PINPadImpl.obj
 0001:0000a298       ?Open@COPOSPINPad@@UAGJPA_WPAJ@Z 1000b298 f   PINPadImpl.obj
 0001:0000aade       ?ReleaseDevice@COPOSPINPad@@UAGJPAJ@Z 1000bade f   PINPadImpl.obj
 0001:0000ab2d       ?ResetStatistics@COPOSPINPad@@UAGJPA_WPAJ@Z 1000bb2d f   PINPadImpl.obj
 0001:0000ab84       ?RetrieveStatistics@COPOSPINPad@@UAGJPAPA_WPAJ@Z 1000bb84 f   PINPadImpl.obj
 0001:0000abdb       ?SOProcessID@COPOSPINPad@@UAGJPAJ@Z 1000bbdb f   PINPadImpl.obj
 0001:0000abef       ?SetCOFreezeEvents@COPOSPINPad@@IAEXF@Z 1000bbef f   PINPadImpl.obj
 0001:0000ac8f       ?SetOposProp@COPOSPINPad@@IAEJJJJ@Z 1000bc8f f   PINPadImpl.obj
 0001:0000ad86       ?SetOposProp@COPOSPINPad@@IAEJJPA_WJ@Z 1000bd86 f   PINPadImpl.obj
 0001:0000ae87       ?UpdateFirmware@COPOSPINPad@@UAGJPA_WPAJ@Z 1000be87 f   PINPadImpl.obj
 0001:0000aede       ?UpdateKey@COPOSPINPad@@UAGJJPA_WPAJ@Z 1000bede f   PINPadImpl.obj
 0001:0000af5a       ?UpdateStatistics@COPOSPINPad@@UAGJPA_WPAJ@Z 1000bf5a f   PINPadImpl.obj
 0001:0000afb1       ?VerifyMAC@COPOSPINPad@@UAGJPA_WPAJ@Z 1000bfb1 f   PINPadImpl.obj
 0001:0000b008       ?get_AccountNumber@COPOSPINPad@@UAGJPAPA_W@Z 1000c008 f   PINPadImpl.obj
 0001:0000b021       ?get_AdditionalSecurityInformation@COPOSPINPad@@UAGJPAPA_W@Z 1000c021 f   PINPadImpl.obj
 0001:0000b03a       ?get_Amount@COPOSPINPad@@UAGJPATtagCY@@@Z 1000c03a f   PINPadImpl.obj
 0001:0000b0cb       ?get_AvailableLanguagesList@COPOSPINPad@@UAGJPAPA_W@Z 1000c0cb f   PINPadImpl.obj
 0001:0000b0e4       ?get_AvailablePromptsList@COPOSPINPad@@UAGJPAPA_W@Z 1000c0e4 f   PINPadImpl.obj
 0001:0000b0fd       ?get_BinaryConversion@COPOSPINPad@@UAGJPAJ@Z 1000c0fd f   PINPadImpl.obj
 0001:0000b113       ?get_CapCompareFirmwareVersion@COPOSPINPad@@UAGJPAF@Z 1000c113 f   PINPadImpl.obj
 0001:0000b12c       ?get_CapDisplay@COPOSPINPad@@UAGJPAJ@Z 1000c12c f   PINPadImpl.obj
 0001:0000b145       ?get_CapKeyboard@COPOSPINPad@@UAGJPAF@Z 1000c145 f   PINPadImpl.obj
 0001:0000b15e       ?get_CapLanguage@COPOSPINPad@@UAGJPAJ@Z 1000c15e f   PINPadImpl.obj
 0001:0000b177       ?get_CapMACCalculation@COPOSPINPad@@UAGJPAF@Z 1000c177 f   PINPadImpl.obj
 0001:0000b190       ?get_CapPowerReporting@COPOSPINPad@@UAGJPAJ@Z 1000c190 f   PINPadImpl.obj
 0001:0000b1a9       ?get_CapStatisticsReporting@COPOSPINPad@@UAGJPAF@Z 1000c1a9 f   PINPadImpl.obj
 0001:0000b1c2       ?get_CapTone@COPOSPINPad@@UAGJPAF@Z 1000c1c2 f   PINPadImpl.obj
 0001:0000b1db       ?get_CapUpdateFirmware@COPOSPINPad@@UAGJPAF@Z 1000c1db f   PINPadImpl.obj
 0001:0000b1f4       ?get_CapUpdateStatistics@COPOSPINPad@@UAGJPAF@Z 1000c1f4 f   PINPadImpl.obj
 0001:0000b20d       ?get_CheckHealthText@COPOSPINPad@@UAGJPAPA_W@Z 1000c20d f   PINPadImpl.obj
 0001:0000b226       ?get_Claimed@COPOSPINPad@@UAGJPAF@Z 1000c226 f   PINPadImpl.obj
 0001:0000b23c       ?get_ControlObjectDescription@COPOSPINPad@@UAGJPAPA_W@Z 1000c23c f   PINPadImpl.obj
 0001:0000b28a       ?get_ControlObjectVersion@COPOSPINPad@@UAGJPAJ@Z 1000c28a f   PINPadImpl.obj
 0001:0000b29d       ?get_DataCount@COPOSPINPad@@UAGJPAJ@Z 1000c29d f   PINPadImpl.obj
 0001:0000b2b3       ?get_DataEventEnabled@COPOSPINPad@@UAGJPAF@Z 1000c2b3 f   PINPadImpl.obj
 0001:0000b2c9       ?get_DeviceDescription@COPOSPINPad@@UAGJPAPA_W@Z 1000c2c9 f   PINPadImpl.obj
 0001:0000b2e2       ?get_DeviceEnabled@COPOSPINPad@@UAGJPAF@Z 1000c2e2 f   PINPadImpl.obj
 0001:0000b2f8       ?get_DeviceName@COPOSPINPad@@UAGJPAPA_W@Z 1000c2f8 f   PINPadImpl.obj
 0001:0000b311       ?get_EncryptedPIN@COPOSPINPad@@UAGJPAPA_W@Z 1000c311 f   PINPadImpl.obj
 0001:0000b32a       ?get_FreezeEvents@COPOSPINPad@@UAGJPAF@Z 1000c32a f   PINPadImpl.obj
 0001:0000b340       ?get_MaximumPINLength@COPOSPINPad@@UAGJPAJ@Z 1000c340 f   PINPadImpl.obj
 0001:0000b359       ?get_MerchantID@COPOSPINPad@@UAGJPAPA_W@Z 1000c359 f   PINPadImpl.obj
 0001:0000b372       ?get_MinimumPINLength@COPOSPINPad@@UAGJPAJ@Z 1000c372 f   PINPadImpl.obj
 0001:0000b38b       ?get_OpenResult@COPOSPINPad@@UAGJPAJ@Z 1000c38b f   PINPadImpl.obj
 0001:0000b3a2       ?get_PINEntryEnabled@COPOSPINPad@@UAGJPAF@Z 1000c3a2 f   PINPadImpl.obj
 0001:0000b3bb       ?get_PowerNotify@COPOSPINPad@@UAGJPAJ@Z 1000c3bb f   PINPadImpl.obj
 0001:0000b3d1       ?get_PowerState@COPOSPINPad@@UAGJPAJ@Z 1000c3d1 f   PINPadImpl.obj
 0001:0000b3e7       ?get_Prompt@COPOSPINPad@@UAGJPAJ@Z 1000c3e7 f   PINPadImpl.obj
 0001:0000b400       ?get_PromptLanguage@COPOSPINPad@@UAGJPAJ@Z 1000c400 f   PINPadImpl.obj
 0001:0000b419       ?get_ResultCode@COPOSPINPad@@UAGJPAJ@Z 1000c419 f   PINPadImpl.obj
 0001:0000b457       ?get_ResultCodeExtended@COPOSPINPad@@UAGJPAJ@Z 1000c457 f   PINPadImpl.obj
 0001:0000b46d       ?get_ServiceObjectDescription@COPOSPINPad@@UAGJPAPA_W@Z 1000c46d f   PINPadImpl.obj
 0001:0000b486       ?get_ServiceObjectVersion@COPOSPINPad@@UAGJPAJ@Z 1000c486 f   PINPadImpl.obj
 0001:0000b49c       ?get_State@COPOSPINPad@@UAGJPAJ@Z 1000c49c f   PINPadImpl.obj
 0001:0000b4c8       ?get_TerminalID@COPOSPINPad@@UAGJPAPA_W@Z 1000c4c8 f   PINPadImpl.obj
 0001:0000b4e1       ?get_Track1Data@COPOSPINPad@@UAGJPAPA_W@Z 1000c4e1 f   PINPadImpl.obj
 0001:0000b4fa       ?get_Track2Data@COPOSPINPad@@UAGJPAPA_W@Z 1000c4fa f   PINPadImpl.obj
 0001:0000b513       ?get_Track3Data@COPOSPINPad@@UAGJPAPA_W@Z 1000c513 f   PINPadImpl.obj
 0001:0000b52c       ?get_Track4Data@COPOSPINPad@@UAGJPAPA_W@Z 1000c52c f   PINPadImpl.obj
 0001:0000b545       ?get_TransactionType@COPOSPINPad@@UAGJPAJ@Z 1000c545 f   PINPadImpl.obj
 0001:0000b55e       ?put_AccountNumber@COPOSPINPad@@UAGJPA_W@Z 1000c55e f   PINPadImpl.obj
 0001:0000b577       ?put_Amount@COPOSPINPad@@UAGJTtagCY@@@Z 1000c577 f   PINPadImpl.obj
 0001:0000b618       ?put_BinaryConversion@COPOSPINPad@@UAGJJ@Z 1000c618 f   PINPadImpl.obj
 0001:0000b62e       ?put_DataEventEnabled@COPOSPINPad@@UAGJF@Z 1000c62e f   PINPadImpl.obj
 0001:0000b64b       ?put_DeviceEnabled@COPOSPINPad@@UAGJF@Z 1000c64b f   PINPadImpl.obj
 0001:0000b668       ?put_FreezeEvents@COPOSPINPad@@UAGJF@Z 1000c668 f   PINPadImpl.obj
 0001:0000b6b4       ?put_MaximumPINLength@COPOSPINPad@@UAGJJ@Z 1000c6b4 f   PINPadImpl.obj
 0001:0000b6cd       ?put_MerchantID@COPOSPINPad@@UAGJPA_W@Z 1000c6cd f   PINPadImpl.obj
 0001:0000b6e6       ?put_MinimumPINLength@COPOSPINPad@@UAGJJ@Z 1000c6e6 f   PINPadImpl.obj
 0001:0000b6ff       ?put_PowerNotify@COPOSPINPad@@UAGJJ@Z 1000c6ff f   PINPadImpl.obj
 0001:0000b715       ?put_Prompt@COPOSPINPad@@UAGJJ@Z 1000c715 f   PINPadImpl.obj
 0001:0000b72e       ?put_PromptLanguage@COPOSPINPad@@UAGJJ@Z 1000c72e f   PINPadImpl.obj
 0001:0000b747       ?put_TerminalID@COPOSPINPad@@UAGJPA_W@Z 1000c747 f   PINPadImpl.obj
 0001:0000b760       ?put_Track1Data@COPOSPINPad@@UAGJPA_W@Z 1000c760 f   PINPadImpl.obj
 0001:0000b779       ?put_Track2Data@COPOSPINPad@@UAGJPA_W@Z 1000c779 f   PINPadImpl.obj
 0001:0000b792       ?put_Track3Data@COPOSPINPad@@UAGJPA_W@Z 1000c792 f   PINPadImpl.obj
 0001:0000b7ab       ?put_Track4Data@COPOSPINPad@@UAGJPA_W@Z 1000c7ab f   PINPadImpl.obj
 0001:0000b7c4       ?put_TransactionType@COPOSPINPad@@UAGJJ@Z 1000c7c4 f   PINPadImpl.obj
 0001:0000b7dd       ?s_EventWindowProc@COPOSPINPad@@KGJPAUHWND__@@IIJ@Z 1000c7dd f i PINPadImpl.obj
 0001:0000b82f       ??_U@YAPAXI@Z              1000c82f f   LIBCMT:new_array.obj
 0001:0000b838       ??3@YAXPAXI@Z              1000c838 f   LIBCMT:delete_scalar_size.obj
 0001:0000b846       ??_V@YAXPAX@Z              1000c846 f   LIBCMT:delete_array.obj
 0001:0000b84b       ??_V@YAXPAXI@Z             1000c84b f   LIBCMT:delete_array_size.obj
 0001:0000b89d       ___scrt_acquire_startup_lock 1000c89d f   LIBCMT:utility.obj
 0001:0000b8cf       ___scrt_dllmain_after_initialize_c 1000c8cf f   LIBCMT:utility.obj
 0001:0000b8fa       ___scrt_dllmain_before_initialize_c 1000c8fa f   LIBCMT:utility.obj
 0001:0000b908       ___scrt_dllmain_crt_thread_attach 1000c908 f   LIBCMT:utility.obj
 0001:0000b927       ___scrt_dllmain_crt_thread_detach 1000c927 f   LIBCMT:utility.obj
 0001:0000b934       ___scrt_dllmain_exception_filter 1000c934 f   LIBCMT:utility.obj
 0001:0000b968       ___scrt_dllmain_uninitialize_c 1000c968 f   LIBCMT:utility.obj
 0001:0000b98b       ___scrt_dllmain_uninitialize_critical 1000c98b f   LIBCMT:utility.obj
 0001:0000b998       ___scrt_initialize_crt     1000c998 f   LIBCMT:utility.obj
 0001:0000b9d1       ___scrt_initialize_onexit_tables 1000c9d1 f   LIBCMT:utility.obj
 0001:0000ba58       ___scrt_is_nonwritable_in_current_image 1000ca58 f   LIBCMT:utility.obj
 0001:0000baec       ___scrt_release_startup_lock 1000caec f   LIBCMT:utility.obj
 0001:0000bb09       ___scrt_uninitialize_crt   1000cb09 f   LIBCMT:utility.obj
 0001:0000bb31       __onexit                   1000cb31 f   LIBCMT:utility.obj
 0001:0000bb5e       _atexit                    1000cb5e f   LIBCMT:utility.obj
 0001:0000bb73       ??3@YAXPAX@Z               1000cb73 f   LIBCMT:delete_scalar.obj
 0001:0000bc3d       __Init_thread_footer       1000cc3d f   LIBCMT:thread_safe_statics.obj
 0001:0000bc87       __Init_thread_header       1000cc87 f   LIBCMT:thread_safe_statics.obj
 0001:0000bcd9       __Init_thread_notify       1000ccd9 f   LIBCMT:thread_safe_statics.obj
 0001:0000bd0f       __Init_thread_wait         1000cd0f f   LIBCMT:thread_safe_statics.obj
 0001:0000bd5d       ___raise_securityfailure   1000cd5d f   LIBCMT:gs_report.obj
 0001:0000bd85       ___report_gsfailure        1000cd85 f   LIBCMT:gs_report.obj
 0001:0000be7e       ___report_rangecheckfailure 1000ce7e f   LIBCMT:gs_report.obj
 0001:0000be8a       ___report_securityfailure  1000ce8a f   LIBCMT:gs_report.obj
 0001:0000bf58       ??2@YAPAXIABUnothrow_t@std@@@Z 1000cf58 f   LIBCMT:new_scalar_nothrow.obj
 0001:0000bfad       ??_U@YAPAXIABUnothrow_t@std@@@Z 1000cfad f   LIBCMT:new_array_nothrow.obj
 0001:0000bfb6       @__security_check_cookie@4 1000cfb6 f   LIBCMT:secchk.obj
 0001:0000bfd0       __SEH_prolog4_GS           1000cfd0 f   LIBCMT:sehprolg4gs.obj
 0001:0000c017       __SEH_epilog4_GS           1000d017 f   LIBCMT:sehprolg4gs.obj
 0001:0000c030       __alloca_probe_16          1000d030 f   LIBCMT:alloca16.obj
 0001:0000c046       __alloca_probe_8           1000d046     LIBCMT:alloca16.obj
 0001:0000c060       __alloca_probe             1000d060 f   LIBCMT:chkstk.obj
 0001:0000c060       __chkstk                   1000d060 f   LIBCMT:chkstk.obj
 0001:0000c3cd       __DllMainCRTStartup@12     1000d3cd f   LIBCMT:dll_dllmain.obj
 0001:0000c3f0       ??2@YAPAXI@Z               1000d3f0 f   LIBCMT:new_scalar.obj
 0001:0000c420       ___isa_available_init      1000d420 f   LIBCMT:cpu_disp.obj
 0001:0000c5f0       ___scrt_is_ucrt_dll_in_use 1000d5f0 f   LIBCMT:ucrt_detection.obj
 0001:0000c5fc       ___scrt_fastfail           1000d5fc f   LIBCMT:utility_desktop.obj
 0001:0000c716       __crt_debugger_hook        1000d716 f   LIBCMT:utility_desktop.obj
 0001:0000c720       __SEH_prolog4              1000d720 f   LIBCMT:sehprolg4.obj
 0001:0000c764       __SEH_epilog4              1000d764 f   LIBCMT:sehprolg4.obj
 0001:0000c778       @_guard_check_icall_nop@4  1000d778 f i LIBCMT:guard_support.obj
 0001:0000c7c8       ___security_init_cookie    1000d7c8 f   LIBCMT:gs_support.obj
 0001:0000c813       ?__scrt_initialize_type_info@@YAXXZ 1000d813 f   LIBCMT:tncleanup.obj
 0001:0000c81f       ?__scrt_uninitialize_type_info@@YAXXZ 1000d81f f   LIBCMT:tncleanup.obj
 0001:0000c82b       ___local_stdio_scanf_options 1000d82b f i LIBCMT:default_local_stdio_options.obj
 0001:0000c831       ___scrt_initialize_default_local_stdio_options 1000d831 f   LIBCMT:default_local_stdio_options.obj
 0001:0000c84e       ___scrt_get_dyn_tls_init_callback 1000d84e f   LIBCMT:dyn_tls_init.obj
 0001:0000c854       __RTC_Initialize           1000d854 f   LIBCMT:initsect.obj
 0001:0000c880       __RTC_Terminate            1000d880 f   LIBCMT:initsect.obj
 0001:0000c8ac       ??0bad_alloc@std@@QAE@ABV01@@Z 1000d8ac f i LIBCMT:throw_bad_alloc.obj
 0001:0000c8c7       ??0bad_alloc@std@@QAE@XZ   1000d8c7 f i LIBCMT:throw_bad_alloc.obj
 0001:0000c8df       ??0bad_array_new_length@std@@QAE@ABV01@@Z 1000d8df f i LIBCMT:throw_bad_alloc.obj
 0001:0000c8fa       ??0bad_array_new_length@std@@QAE@XZ 1000d8fa f i LIBCMT:throw_bad_alloc.obj
 0001:0000c912       ??0exception@std@@QAE@ABV01@@Z 1000d912 f i LIBCMT:throw_bad_alloc.obj
 0001:0000c93e       ??1bad_array_new_length@std@@UAE@XZ 1000d93e f i LIBCMT:throw_bad_alloc.obj
 0001:0000c93e       ??1bad_alloc@std@@UAE@XZ   1000d93e f i LIBCMT:throw_bad_alloc.obj
 0001:0000c93e       ??1bad_exception@std@@UAE@XZ 1000d93e f i libvcruntime:frame.obj
 0001:0000c94f       ??_Gexception@std@@UAEPAXI@Z 1000d94f f i LIBCMT:throw_bad_alloc.obj
 0001:0000c94f       ??_Ebad_array_new_length@std@@UAEPAXI@Z 1000d94f f i LIBCMT:throw_bad_alloc.obj
 0001:0000c94f       ??_Gbad_alloc@std@@UAEPAXI@Z 1000d94f f i LIBCMT:throw_bad_alloc.obj
 0001:0000c94f       ??_Ebad_exception@std@@UAEPAXI@Z 1000d94f f i libvcruntime:frame.obj
 0001:0000c94f       ??_Gbad_array_new_length@std@@UAEPAXI@Z 1000d94f f i LIBCMT:throw_bad_alloc.obj
 0001:0000c94f       ??_Ebad_alloc@std@@UAEPAXI@Z 1000d94f f i LIBCMT:throw_bad_alloc.obj
 0001:0000c94f       ??_Eexception@std@@UAEPAXI@Z 1000d94f f i LIBCMT:throw_bad_alloc.obj
 0001:0000c94f       ??_Gbad_exception@std@@UAEPAXI@Z 1000d94f f i libvcruntime:frame.obj
 0001:0000c97c       ?__scrt_throw_std_bad_alloc@@YAXXZ 1000d97c f   LIBCMT:throw_bad_alloc.obj
 0001:0000c999       ?__scrt_throw_std_bad_array_new_length@@YAXXZ 1000d999 f   LIBCMT:throw_bad_alloc.obj
 0001:0000c9b6       ?what@exception@std@@UBEPBDXZ 1000d9b6 f i LIBCMT:throw_bad_alloc.obj
 0001:0000c9c3       ??_Gtype_info@@UAEPAXI@Z   1000d9c3 f i LIBCMT:std_type_info_static.obj
 0001:0000c9c3       ??_Etype_info@@UAEPAXI@Z   1000d9c3 f i LIBCMT:std_type_info_static.obj
 0001:0000c9e6       ??0CAtlBaseModule@ATL@@QAE@XZ 1000d9e6 f   atls:atlbase.obj
 0001:0000ca39       ??0_ATL_BASE_MODULE70@ATL@@QAE@XZ 1000da39 f i atls:atlbase.obj
 0001:0000ca5c       ??1CAtlBaseModule@ATL@@QAE@XZ 1000da5c f   atls:atlbase.obj
 0001:0000cb49       ?Init@_stdcallthunk@ATL@@QAEHKPAX@Z 1000db49 f i atls:atlthunk.obj
 0001:0000cb7e       ?__AllocStdCallThunk_cmn@@YAPAXXZ 1000db7e f   atls:atlthunk.obj
 0001:0000cc44       ?__FreeStdCallThunk_cmn@@YAXPAX@Z 1000dc44 f   atls:atlthunk.obj
 0001:0000ccdf       _AtlThunk_AllocateData@0   1000dcdf f   atls:atlthunk.obj
 0001:0000cd44       _AtlThunk_DataToCode@4     1000dd44 f   atls:atlthunk.obj
 0001:0000cd8b       _AtlThunk_FreeData@4       1000dd8b f   atls:atlthunk.obj
 0001:0000cde1       _AtlThunk_InitData@12      1000dde1 f   atls:atlthunk.obj
 0001:0000ce30       __get_purecall_handler     1000de30 f   libvcruntime:purevirt.obj
 0001:0000ce36       __purecall                 1000de36 f   libvcruntime:purevirt.obj
 0001:0000ce52       _wcsstr                    1000de52 f   libvcruntime:wcsstr.obj
 0001:0000d100       __except_handler4          1000e100 f   libvcruntime:chandler4.obj
 0001:0000d25e       _memcmp                    1000e25e f   libvcruntime:memcmp.obj
 0001:0000e170       _memcpy                    1000f170 f   libvcruntime:memcpy.obj
 0001:0000e6f0       _memset                    1000f6f0 f   libvcruntime:memset.obj
 0001:0000e84a       ___vcrt_initialize         1000f84a f   libvcruntime:initialization.obj
 0001:0000e869       ___vcrt_thread_attach      1000f869 f   libvcruntime:initialization.obj
 0001:0000e874       ___vcrt_thread_detach      1000f874 f   libvcruntime:initialization.obj
 0001:0000e87f       ___vcrt_uninitialize       1000f87f f   libvcruntime:initialization.obj
 0001:0000e896       ___vcrt_uninitialize_critical 1000f896 f   libvcruntime:initialization.obj
 0001:0000e89e       ?GetRangeOfTrysToCheck@__FrameHandler3@@SA?AU?$pair@Viterator@TryBlockMap@__FrameHandler3@@V123@@std@@AAVTryBlockMap@1@HPAXPBU_s_FuncInfo@@H@Z 1000f89e f   libvcruntime:trnsctrl.obj
 0001:0000e90e       ?_CallCatchBlock2@@YAPAXPAUEHRegistrationNode@@PBU_s_FuncInfo@@PAXHK@Z 1000f90e f   libvcruntime:trnsctrl.obj
 0001:0000e96c       ?_CallSETranslator@@YAHPAUEHExceptionRecord@@PAUEHRegistrationNode@@PAX2PBU_s_FuncInfo@@H1@Z 1000f96c f   libvcruntime:trnsctrl.obj
 0001:0000ea52       ?_JumpToContinuation@@YGXPAXPAUEHRegistrationNode@@@Z 1000fa52 f   libvcruntime:trnsctrl.obj
 0001:0000ea82       ?_UnwindNestedFrames@@YGXPAUEHRegistrationNode@@PAUEHExceptionRecord@@@Z 1000fa82 f   libvcruntime:trnsctrl.obj
 0001:0000ead5       __CatchGuardHandler        1000fad5 f   libvcruntime:trnsctrl.obj
 0001:0000eb06       __CreateFrameInfo          1000fb06 f   libvcruntime:trnsctrl.obj
 0001:0000eb2a       __FindAndUnlinkFrame       1000fb2a f   libvcruntime:trnsctrl.obj
 0001:0000eb72       __TranslatorGuardHandler   1000fb72 f   libvcruntime:trnsctrl.obj
 0001:0000ec0f       ___CxxFrameHandler3        1000fc0f f   libvcruntime:trnsctrl.obj
 0001:0000ec45       ___DestructExceptionObject 1000fc45 f   libvcruntime:ehhelpers.obj
 0001:0000ece6       ?_CallMemberFunction0@@YGXQAX0@Z 1000fce6 f i libvcruntime:ehhelpers.obj
 0001:0000ed4b       __IsExceptionObjectToBeDestroyed 1000fd4b f   libvcruntime:ehhelpers.obj
 0001:0000ed71       ___AdjustPointer           1000fd71 f   libvcruntime:ehhelpers.obj
 0001:0000ed96       ___FrameUnwindFilter       1000fd96 f   libvcruntime:ehhelpers.obj
 0001:0000edec       ___std_type_info_compare   1000fdec f   libvcruntime:std_type_info.obj
 0001:0000ee28       ___std_type_info_destroy_list 1000fe28 f   libvcruntime:std_type_info.obj
 0001:0000ee4b       ___std_exception_copy      1000fe4b f   libvcruntime:std_exception.obj
 0001:0000eeae       ___std_exception_destroy   1000feae f   libvcruntime:std_exception.obj
 0001:0000eecd       __CxxThrowException@8      1000fecd f   libvcruntime:throw.obj
 0001:0000ef40       _memmove                   1000ff40 f   libvcruntime:memmove.obj
 0001:0000f4c0       __local_unwind4            100104c0 f   libvcruntime:exsup4.obj
 0001:0000f594       __seh_longjmp_unwind4@4    10010594 f   libvcruntime:exsup4.obj
 0001:0000f5bc       @_EH4_CallFilterFunc@8     100105bc f   libvcruntime:exsup4.obj
 0001:0000f5d4       @_EH4_TransferToHandler@8  100105d4 f   libvcruntime:exsup4.obj
 0001:0000f5f0       @_EH4_GlobalUnwind2@8      100105f0 f   libvcruntime:exsup4.obj
 0001:0000f60c       @_EH4_LocalUnwind@16       1001060c f   libvcruntime:exsup4.obj
 0001:0000f623       ___except_validate_context_record 10010623 f   libvcruntime:jbcxrval.obj
 0001:0000f653       ___except_validate_jump_buffer 10010653 f   libvcruntime:jbcxrval.obj
 0001:0000f680       ___vcrt_freefls@4          10010680 f   libvcruntime:per_thread_data.obj
 0001:0000f69c       ___vcrt_freeptd            1001069c f   libvcruntime:per_thread_data.obj
 0001:0000f6d2       ___vcrt_getptd             100106d2 f   libvcruntime:per_thread_data.obj
 0001:0000f6e0       ___vcrt_getptd_noexit      100106e0 f   libvcruntime:per_thread_data.obj
 0001:0000f772       ___vcrt_initialize_ptd     10010772 f   libvcruntime:per_thread_data.obj
 0001:0000f7a5       ___vcrt_uninitialize_ptd   100107a5 f   libvcruntime:per_thread_data.obj
 0001:0000f7c0       ___vcrt_initialize_locks   100107c0 f   libvcruntime:locks.obj
 0001:0000f7fc       ___vcrt_uninitialize_locks 100107fc f   libvcruntime:locks.obj
 0001:0000ff6e       ??$TypeMatchHelper@V__FrameHandler3@@@@YAHPBU_s_HandlerType@@PBU_s_CatchableType@@PBU_s_ThrowInfo@@@Z 10010f6e f i libvcruntime:frame.obj
 0001:0000fffc       ??$__InternalCxxFrameHandler@V__FrameHandler3@@@@YA?AW4_EXCEPTION_DISPOSITION@@PAUEHExceptionRecord@@PAUEHRegistrationNode@@PAU_CONTEXT@@PAXPBU_s_FuncInfo@@H1E@Z 10010ffc f i libvcruntime:frame.obj
 0001:000100fe       ??0bad_exception@std@@QAE@ABV01@@Z 100110fe f i libvcruntime:frame.obj
 0001:00010119       ??0bad_exception@std@@QAE@XZ 10011119 f i libvcruntime:frame.obj
 0001:00010131       ??8type_info@@QBE_NABV0@@Z 10011131 f i libvcruntime:frame.obj
 0001:0001039d       ?FrameUnwindToEmptyState@__FrameHandler3@@SAXPAUEHRegistrationNode@@PAXPBU_s_FuncInfo@@@Z 1001139d f   libvcruntime:frame.obj
 0001:000103b5       ?FrameUnwindToState@__FrameHandler3@@SAXPAUEHRegistrationNode@@PAXPBU_s_FuncInfo@@H@Z 100113b5 f   libvcruntime:frame.obj
 0001:00010537       ?_CallMemberFunction1@@YGXQAX00@Z 10011537 f i libvcruntime:frame.obj
 0001:00010547       ?_CallMemberFunction2@@YGXQAX00H@Z 10011547 f i libvcruntime:frame.obj
 0001:0001055a       ?getESTypes@__FrameHandler3@@SAPBU_s_ESTypeList@@PBU_s_FuncInfo@@@Z 1001155a f i libvcruntime:frame.obj
 0001:00010570       __CallSettingFrame@12      10011570 f   libvcruntime:lowhelpr.obj
 0001:00010597       __NLG_Return               10011597     libvcruntime:lowhelpr.obj
 0001:000105c0       __global_unwind2           100115c0 f   libvcruntime:exsup.obj
 0001:00010626       __local_unwind2            10011626 f   libvcruntime:exsup.obj
 0001:000106aa       __abnormal_termination     100116aa f   libvcruntime:exsup.obj
 0001:000106d0       __NLG_Notify1              100116d0 f   libvcruntime:exsup.obj
 0001:000106dc       __NLG_Notify               100116dc f   libvcruntime:exsup.obj
 0001:000106f3       __NLG_Dispatch2            100116f3     libvcruntime:exsup.obj
 0001:000106f3       __NLG_Dispatch             100116f3     libvcruntime:exsup.obj
 0001:000106fb       __NLG_Call                 100116fb f   libvcruntime:exsup.obj
 0001:000106fd       __NLG_Return2              100116fd     libvcruntime:exsup.obj
 0001:000107e1       ___vcrt_FlsAlloc           100117e1 f   libvcruntime:winapi_downlevel.obj
 0001:0001081c       ___vcrt_FlsFree            1001181c f   libvcruntime:winapi_downlevel.obj
 0001:00010857       ___vcrt_FlsGetValue        10011857 f   libvcruntime:winapi_downlevel.obj
 0001:00010892       ___vcrt_FlsSetValue        10011892 f   libvcruntime:winapi_downlevel.obj
 0001:000108d0       ___vcrt_InitializeCriticalSectionEx 100118d0 f   libvcruntime:winapi_downlevel.obj
 0001:00010917       _unexpected                10011917 f   libvcruntime:unexpected.obj
 0001:00010934       ?GetCurrentState@__FrameHandler3@@SAHPAUEHRegistrationNode@@PAXPBU_s_FuncInfo@@@Z 10011934 f   libvcruntime:ehstate.obj
 0001:00010951       ?SetState@__FrameHandler3@@SAXPAUEHRegistrationNode@@PBU_s_FuncInfo@@H@Z 10011951 f   libvcruntime:ehstate.obj
 0001:0001095f       _free                      1001195f f   libucrt:free.obj
 0001:0001097a       ___acrt_call_reportfault   1001197a f   libucrt:invalid_parameter.obj
 0001:00010ab3       ___acrt_initialize_invalid_parameter_handler 10011ab3 f   libucrt:invalid_parameter.obj
 0001:00010ac2       __invalid_parameter        10011ac2 f   libucrt:invalid_parameter.obj
 0001:00010b26       __invalid_parameter_noinfo 10011b26 f   libucrt:invalid_parameter.obj
 0001:00010b36       __invoke_watson            10011b36 f   libucrt:invalid_parameter.obj
 0001:00010b6a       ___acrt_errno_from_os_error 10011b6a f   libucrt:errno.obj
 0001:00010bad       ___acrt_errno_map_os_error 10011bad f   libucrt:errno.obj
 0001:00010bd0       ___doserrno                10011bd0 f   libucrt:errno.obj
 0001:00010be3       __errno                    10011be3 f   libucrt:errno.obj
 0001:00010bf6       _calloc                    10011bf6 f   libucrt:calloc.obj
 0001:00010c01       _malloc                    10011c01 f   libucrt:malloc.obj
 0001:00010c0c       __recalloc                 10011c0c f   libucrt:recalloc.obj
 0001:00010c17       __recalloc_base            10011c17 f   libucrt:recalloc.obj
 0001:00010c84       __resetstkoflw             10011c84 f   libucrt:resetstk.obj
 0001:00010d49       _wcscat_s                  10011d49 f   libucrt:wcscat_s.obj
 0001:00010dbe       _wcscpy_s                  10011dbe f   libucrt:wcscpy_s.obj
 0001:00010eed       _wcsncpy_s                 10011eed f   libucrt:wcsncpy_s.obj
 0001:000110f9       ??$count@D@formatting_buffer@__crt_stdio_output@@QBEIXZ 100120f9 f i libucrt:output.obj
 0001:00011111       ??$count@_W@formatting_buffer@__crt_stdio_output@@QBEIXZ 10012111 f i libucrt:output.obj
 0001:0001112a       ??$ensure_buffer_is_big_enough@D@formatting_buffer@__crt_stdio_output@@QAE_NI@Z 1001212a f i libucrt:output.obj
 0001:000111a7       ??$ensure_buffer_is_big_enough@_W@formatting_buffer@__crt_stdio_output@@QAE_NI@Z 100121a7 f i libucrt:output.obj
 0001:00011225       ??$is_wide_character_specifier@_W@__crt_stdio_output@@YA_N_K_WW4length_modifier@0@@Z 10012225 f i libucrt:output.obj
 0001:00011273       ??$scratch_data@D@formatting_buffer@__crt_stdio_output@@QAEPADXZ 10012273 f i libucrt:output.obj
 0001:00011291       ??$type_case_integer_parse_into_buffer@I@?$output_processor@_WV?$string_output_adapter@_W@__crt_stdio_output@@V?$format_validation_base@_WV?$string_output_adapter@_W@__crt_stdio_output@@@2@@__crt_stdio_output@@AAEXII_N@Z 10012291 f i libucrt:output.obj
 0001:00011318       ??$type_case_integer_parse_into_buffer@_K@?$output_processor@_WV?$string_output_adapter@_W@__crt_stdio_output@@V?$format_validation_base@_WV?$string_output_adapter@_W@__crt_stdio_output@@@2@@__crt_stdio_output@@AAEX_KI_N@Z 10012318 f i libucrt:output.obj
 0001:000113ba       ??$write_multiple_characters@V?$string_output_adapter@_W@__crt_stdio_output@@D@__crt_stdio_output@@YAXABV?$string_output_adapter@_W@0@DHQAH@Z 100123ba f i libucrt:output.obj
 0001:000113eb       ??0?$common_data@_W@__crt_stdio_output@@IAE@XZ 100123eb f i libucrt:output.obj
 0001:00011435       ??0?$output_adapter_data@_WV?$string_output_adapter@_W@__crt_stdio_output@@@__crt_stdio_output@@IAE@ABV?$string_output_adapter@_W@1@_KQB_WQAU__crt_locale_pointers@@QAD@Z 10012435 f i libucrt:output.obj
 0001:00011471       ??0_LocaleUpdate@@QAE@QAU__crt_locale_pointers@@@Z 10012471 f i libucrt:output.obj
 0001:000114f4       ??1formatting_buffer@__crt_stdio_output@@QAE@XZ 100124f4 f i libucrt:output.obj
 0001:0001150e       ??4?$__crt_unique_heap_ptr@DU__crt_internal_free_policy@@@@QAEAAV0@$$QAV0@@Z 1001250e f i libucrt:output.obj
 0001:00011540       ?crop_zeroes@__crt_stdio_output@@YAXPADQAU__crt_locale_pointers@@@Z 10012540 f i libucrt:output.obj
 0001:000115c1       ?find_next_state@?$output_processor@_WV?$string_output_adapter@_W@__crt_stdio_output@@V?$format_validation_base@_WV?$string_output_adapter@_W@__crt_stdio_output@@@2@@__crt_stdio_output@@ABE?AW4state@2@_WW432@@Z 100125c1 f i libucrt:output.obj
 0001:00011600       ?force_decimal_point@__crt_stdio_output@@YAXPADQAU__crt_locale_pointers@@@Z 10012600 f i libucrt:output.obj
 0001:00011665       ?parse_int_from_format_string@?$output_processor@_WV?$string_output_adapter@_W@__crt_stdio_output@@V?$format_validation_base@_WV?$string_output_adapter@_W@__crt_stdio_output@@@2@@__crt_stdio_output@@AAE_NQAH@Z 10012665 f i libucrt:output.obj
 0001:000116db       ?process@?$output_processor@_WV?$string_output_adapter@_W@__crt_stdio_output@@V?$format_validation_base@_WV?$string_output_adapter@_W@__crt_stdio_output@@@2@@__crt_stdio_output@@QAEHXZ 100126db f i libucrt:output.obj
 0001:00011803       ?state_case_flag@?$output_processor@_WV?$string_output_adapter@_W@__crt_stdio_output@@V?$format_validation_base@_WV?$string_output_adapter@_W@__crt_stdio_output@@@2@@__crt_stdio_output@@AAE_NXZ 10012803 f i libucrt:output.obj
 0001:00011840       ?state_case_normal@?$output_processor@_WV?$string_output_adapter@_W@__crt_stdio_output@@V?$format_validation_base@_WV?$string_output_adapter@_W@__crt_stdio_output@@@2@@__crt_stdio_output@@AAE_NXZ 10012840 f i libucrt:output.obj
 0001:0001185f       ?state_case_normal_common@?$output_processor@_WV?$string_output_adapter@_W@__crt_stdio_output@@V?$format_validation_base@_WV?$string_output_adapter@_W@__crt_stdio_output@@@2@@__crt_stdio_output@@AAE_NXZ 1001285f f i libucrt:output.obj
 0001:0001187a       ?state_case_precision@?$output_processor@_WV?$string_output_adapter@_W@__crt_stdio_output@@V?$format_validation_base@_WV?$string_output_adapter@_W@__crt_stdio_output@@@2@@__crt_stdio_output@@AAE_NXZ 1001287a f i libucrt:output.obj
 0001:000118a1       ?state_case_size@?$output_processor@_WV?$string_output_adapter@_W@__crt_stdio_output@@V?$format_validation_base@_WV?$string_output_adapter@_W@__crt_stdio_output@@@2@@__crt_stdio_output@@AAE_NXZ 100128a1 f i libucrt:output.obj
 0001:00011a19       ?state_case_type@?$output_processor@_WV?$string_output_adapter@_W@__crt_stdio_output@@V?$format_validation_base@_WV?$string_output_adapter@_W@__crt_stdio_output@@@2@@__crt_stdio_output@@AAE_NXZ 10012a19 f i libucrt:output.obj
 0001:00011c76       ?state_case_width@?$output_processor@_WV?$string_output_adapter@_W@__crt_stdio_output@@V?$format_validation_base@_WV?$string_output_adapter@_W@__crt_stdio_output@@@2@@__crt_stdio_output@@AAE_NXZ 10012c76 f i libucrt:output.obj
 0001:00011cb0       ?to_integer_size@__crt_stdio_output@@YAIW4length_modifier@1@@Z 10012cb0 f i libucrt:output.obj
 0001:00011d0c       ?type_case_Z@?$output_processor@_WV?$string_output_adapter@_W@__crt_stdio_output@@V?$format_validation_base@_WV?$string_output_adapter@_W@__crt_stdio_output@@@2@@__crt_stdio_output@@AAE_NXZ 10012d0c f i libucrt:output.obj
 0001:00011d66       ?type_case_a@?$output_processor@_WV?$string_output_adapter@_W@__crt_stdio_output@@V?$format_validation_base@_WV?$string_output_adapter@_W@__crt_stdio_output@@@2@@__crt_stdio_output@@AAE_NXZ 10012d66 f i libucrt:output.obj
 0001:00011ecd       ?type_case_c_tchar@?$output_processor@_WV?$string_output_adapter@_W@__crt_stdio_output@@V?$format_validation_base@_WV?$string_output_adapter@_W@__crt_stdio_output@@@2@@__crt_stdio_output@@AAE_N_W@Z 10012ecd f i libucrt:output.obj
 0001:00011f63       ?type_case_integer@?$output_processor@_WV?$string_output_adapter@_W@__crt_stdio_output@@V?$format_validation_base@_WV?$string_output_adapter@_W@__crt_stdio_output@@@2@@__crt_stdio_output@@AAE_NI_N@Z 10012f63 f i libucrt:output.obj
 0001:000120b8       ?type_case_n@?$output_processor@_WV?$string_output_adapter@_W@__crt_stdio_output@@V?$format_validation_base@_WV?$string_output_adapter@_W@__crt_stdio_output@@@2@@__crt_stdio_output@@AAE_NXZ 100130b8 f i libucrt:output.obj
 0001:0001212c       ?type_case_o@?$output_processor@_WV?$string_output_adapter@_W@__crt_stdio_output@@V?$format_validation_base@_WV?$string_output_adapter@_W@__crt_stdio_output@@@2@@__crt_stdio_output@@AAE_NXZ 1001312c f i libucrt:output.obj
 0001:0001214b       ?type_case_p@?$output_processor@_WV?$string_output_adapter@_W@__crt_stdio_output@@V?$format_validation_base@_WV?$string_output_adapter@_W@__crt_stdio_output@@@2@@__crt_stdio_output@@AAE_NXZ 1001314b f i libucrt:output.obj
 0001:00012163       ?type_case_s@?$output_processor@_WV?$string_output_adapter@_W@__crt_stdio_output@@V?$format_validation_base@_WV?$string_output_adapter@_W@__crt_stdio_output@@@2@@__crt_stdio_output@@AAE_NXZ 10013163 f i libucrt:output.obj
 0001:000121d6       ?type_case_s_compute_narrow_string_length@?$output_processor@_WV?$string_output_adapter@_W@__crt_stdio_output@@V?$format_validation_base@_WV?$string_output_adapter@_W@__crt_stdio_output@@@2@@__crt_stdio_output@@ABEHH_W@Z 100131d6 f i libucrt:output.obj
 0001:0001221d       ?validate@?$c_string_character_source@_W@__crt_strtox@@QBE_NXZ 1001321d f i libucrt:atox.obj
 0001:0001221d       ?validate@?$string_output_adapter@_W@__crt_stdio_output@@QBE_NXZ 1001321d f i libucrt:output.obj
 0001:00012238       ?validate_and_update_state_at_end_of_format_string@?$format_validation_base@_WV?$string_output_adapter@_W@__crt_stdio_output@@@__crt_stdio_output@@IBE_NXZ 10013238 f i libucrt:output.obj
 0001:0001225a       ?write_character@?$string_output_adapter@_W@__crt_stdio_output@@QBE_N_WQAH@Z 1001325a f i libucrt:output.obj
 0001:0001229f       ?write_stored_string_tchar@?$output_processor@_WV?$string_output_adapter@_W@__crt_stdio_output@@V?$format_validation_base@_WV?$string_output_adapter@_W@__crt_stdio_output@@@2@@__crt_stdio_output@@AAE_N_W@Z 1001329f f i libucrt:output.obj
 0001:0001232c       ?write_string@?$string_output_adapter@_W@__crt_stdio_output@@QBEXQB_WHQAHAAV__crt_deferred_errno_cache@@@Z 1001332c f i libucrt:output.obj
 0001:0001239d       ___acrt_locale_get_ctype_array_value 1001339d f i libucrt:output.obj
 0001:000123bf       ___stdio_common_vswprintf_s 100133bf f   libucrt:output.obj
 0001:000123e3       __seh_filter_dll           100133e3 f   libucrt:exception_filter.obj
 0001:00012403       __seh_filter_exe           10013403 f   libucrt:exception_filter.obj
 0001:000127d1       ___acrt_initialize_thread_local_exit_callback 100137d1 f   libucrt:exit.obj
 0001:000127e0       __cexit                    100137e0 f   libucrt:exit.obj
 0001:000127ef       __exit                     100137ef f   libucrt:exit.obj
 0001:00012805       __is_c_termination_complete 10013805 f   libucrt:exit.obj
 0001:00012ab6       ___acrt_allocate_buffer_for_argv 10013ab6 f   libucrt:argv_parsing.obj
 0001:00012b05       __configure_narrow_argv    10013b05 f   libucrt:argv_parsing.obj
 0001:00012c62       ??$uninitialize@A6AXAAPAPA_W@Z@?$dual_state_global@PAPA_W@__crt_state_management@@QAEXA6AXAAPAPA_W@Z@Z 10013c62 f i libucrt:environment_initialization.obj
 0001:00012c62       ??$uninitialize@A6AXAAPAPAD@Z@?$dual_state_global@PAPAD@__crt_state_management@@QAEXA6AXAAPAPAD@Z@Z 10013c62 f i libucrt:environment_initialization.obj
 0001:00012cc1       ___dcrt_uninitialize_environments_nolock 10013cc1 f   libucrt:environment_initialization.obj
 0001:00012cf8       __initialize_narrow_environment 10013cf8 f   libucrt:environment_initialization.obj
 0001:00012db3       ??$__crt_fast_encode_pointer@P6AHXZ@@YAP6AHXZQ6AHXZ@Z 10013db3 f i libucrt:onexit.obj
 0001:00012db3       ??$__crt_fast_encode_pointer@PAX@@YAPAXQAX@Z 10013db3 f i libucrt:initialization.obj
 0001:00012db3       ??$__crt_fast_encode_pointer@PAP6AXXZ@@YAPAP6AXXZQAP6AXXZ@Z 10013db3 f i libucrt:onexit.obj
 0001:00012fd5       __crt_atexit               10013fd5 f   libucrt:onexit.obj
 0001:00012feb       __execute_onexit_table     10013feb f   libucrt:onexit.obj
 0001:00013018       __initialize_onexit_table  10014018 f   libucrt:onexit.obj
 0001:00013041       __register_onexit_function 10014041 f   libucrt:onexit.obj
 0001:0001309b       ___acrt_uninitialize_command_line 1001409b f   libucrt:argv_data.obj
 0001:00013172       ___acrt_initialize         10014172 f   libucrt:initialization.obj
 0001:00013184       ___acrt_thread_attach      10014184 f   libucrt:initialization.obj
 0001:0001318f       ___acrt_thread_detach      1001418f f   libucrt:initialization.obj
 0001:00013197       ___acrt_uninitialize       10014197 f   libucrt:initialization.obj
 0001:000131c7       ___acrt_uninitialize_critical 100141c7 f   libucrt:initialization.obj
 0001:000131d9       __initterm                 100141d9 f   libucrt:initterm.obj
 0001:0001321e       __initterm_e               1001421e f   libucrt:initterm.obj
 0001:0001324c       ___acrt_initialize_new_handler 1001424c f   libucrt:new_handler.obj
 0001:0001325b       __callnewh                 1001425b f   libucrt:new_handler.obj
 0001:00013288       __query_new_handler        10014288 f   libucrt:new_handler.obj
 0001:000132e4       _terminate                 100142e4 f   libucrt:terminate.obj
 0001:00013320       _abort                     10014320 f   libucrt:abort.obj
 0001:00013364       _strcpy_s                  10014364 f   libucrt:strcpy_s.obj
 0001:000133be       ??$is_overflow_condition@K@__crt_strtox@@YA_NIK@Z 100143be f i libucrt:atox.obj
 0001:000133ef       ??$parse_integer@KV?$c_string_character_source@_W@__crt_strtox@@@__crt_strtox@@YAKQAU__crt_locale_pointers@@V?$c_string_character_source@_W@0@H_N@Z 100143ef f i libucrt:atox.obj
 0001:000139f7       ?unget@?$c_string_character_source@_W@__crt_strtox@@QAEX_W@Z 100149f7 f i libucrt:atox.obj
 0001:00013a30       _strncmp                   10014a30 f   libucrt:strncmp.obj
 0001:00013aa8       _wcsncmp                   10014aa8 f   libucrt:wcsncmp.obj
 0001:00013ae2       __free_base                10014ae2 f   libucrt:free_base.obj
 0001:00013e5a       ___acrt_freeptd            10014e5a f   libucrt:per_thread_data.obj
 0001:00013e86       ___acrt_getptd             10014e86 f   libucrt:per_thread_data.obj
 0001:00013f43       ___acrt_getptd_head        10014f43 f   libucrt:per_thread_data.obj
 0001:00013fdd       ___acrt_getptd_noexit      10014fdd f   libucrt:per_thread_data.obj
 0001:00014092       ___acrt_initialize_ptd     10015092 f   libucrt:per_thread_data.obj
 0001:000140be       ___acrt_uninitialize_ptd   100150be f   libucrt:per_thread_data.obj
 0001:000140d8       __calloc_base              100150d8 f   libucrt:calloc_base.obj
 0001:00014135       __malloc_base              10015135 f   libucrt:malloc_base.obj
 0001:00014183       __msize_base               10015183 f   libucrt:msize.obj
 0001:000141b6       __realloc_base             100151b6 f   libucrt:realloc_base.obj
 0001:000143b7       ___acrt_AppPolicyGetProcessTerminationMethodInternal@4 100153b7 f   libucrt:winapi_thunks.obj
 0001:000143f7       ___acrt_AreFileApisANSI@0  100153f7 f   libucrt:winapi_thunks.obj
 0001:00014416       ___acrt_FlsAlloc@4         10015416 f   libucrt:winapi_thunks.obj
 0001:00014455       ___acrt_FlsFree@4          10015455 f   libucrt:winapi_thunks.obj
 0001:00014494       ___acrt_FlsGetValue@4      10015494 f   libucrt:winapi_thunks.obj
 0001:000144d3       ___acrt_FlsSetValue@8      100154d3 f   libucrt:winapi_thunks.obj
 0001:00014515       ___acrt_InitializeCriticalSectionEx@12 10015515 f   libucrt:winapi_thunks.obj
 0001:00014560       ___acrt_LCMapStringEx@36   10015560 f   libucrt:winapi_thunks.obj
 0001:000145bd       ___acrt_LocaleNameToLCID@8 100155bd f   libucrt:winapi_thunks.obj
 0001:000145ee       ___acrt_SetThreadStackGuarantee@4 100155ee f   libucrt:winapi_thunks.obj
 0001:00014629       ___acrt_initialize_winapi_thunks 10015629 f   libucrt:winapi_thunks.obj
 0001:00014654       ___acrt_uninitialize_winapi_thunks 10015654 f   libucrt:winapi_thunks.obj
 0001:0001468a       ??$make_c_string_character_source@_WPAPA_W@__crt_strtox@@YA?AV?$c_string_character_source@_W@0@QB_WQAPA_W@Z 1001568a f i libucrt:strtox.obj
 0001:000146a5       _wcstol                    100156a5 f   libucrt:strtox.obj
 0001:000146cf       __mbtowc_l                 100156cf f   libucrt:mbtowc.obj
 0001:00014811       _mbtowc                    10015811 f   libucrt:mbtowc.obj
 0001:0001482b       _wcsnlen                   1001582b f   libucrt:strnlen.obj
 0001:000149db       ___acrt_update_locale_info 100159db f   libucrt:locale_update.obj
 0001:00014a08       ___acrt_update_multibyte_info 10015a08 f   libucrt:locale_update.obj
 0001:00014a35       ?__acrt_fp_classify@@YA?AW4__acrt_fp_class@@ABN@Z 10015a35 f i libucrt:cvt.obj
 0001:000153e7       ___acrt_fp_format          100163e7 f   libucrt:cvt.obj
 0001:00015545       __fileno                   10016545 f   libucrt:fileno.obj
 0001:0001556c       ___acrt_initialize_stdio   1001656c f   libucrt:_file.obj
 0001:00015634       ___acrt_uninitialize_stdio 10016634 f   libucrt:_file.obj
 0001:00015680       __lock_file                10016680 f   libucrt:_file.obj
 0001:00015694       __unlock_file              10016694 f   libucrt:_file.obj
 0001:000156a8       __get_printf_count_output  100166a8 f   libucrt:printf_count_output.obj
 0001:0001572b       ___acrt_set_locale_changed 1001672b f   libucrt:wsetlocale.obj
 0001:00015736       ___acrt_uninitialize_locale 10016736 f   libucrt:wsetlocale.obj
 0001:000158c7       ___acrt_initialize_lowio   100168c7 f   libucrt:ioinit.obj
 0001:00015927       ___acrt_uninitialize_lowio 10016927 f   libucrt:ioinit.obj
 0001:00015953       ___acrt_initialize_locks   10016953 f   libucrt:locks.obj
 0001:00015994       ___acrt_lock               10016994 f   libucrt:locks.obj
 0001:000159ab       ___acrt_uninitialize_locks 100169ab f   libucrt:locks.obj
 0001:000159dc       ___acrt_unlock             100169dc f   libucrt:locks.obj
 0001:000159f3       ___acrt_get_process_end_policy 100169f3 f   libucrt:win_policies.obj
 0001:00015bbd       ??$__acrt_mbs_to_wcs_cp@U__crt_win32_buffer_internal_dynamic_resizing@@@@YAHQBDAAV?$__crt_win32_buffer@_WU__crt_win32_buffer_internal_dynamic_resizing@@@@I@Z 10016bbd f i libucrt:argv_wildcards.obj
 0001:000160d1       ?__acrt_get_utf8_acp_compatibility_codepage@@YAIXZ 100170d1 f i libucrt:argv_wildcards.obj
 0001:00016110       ?_deallocate@?$__crt_win32_buffer@_WU__crt_win32_buffer_internal_dynamic_resizing@@@@AAEXXZ 10017110 f i libucrt:argv_wildcards.obj
 0001:00016110       ?_deallocate@?$__crt_win32_buffer@DU__crt_win32_buffer_internal_dynamic_resizing@@@@AAEXXZ 10017110 f i libucrt:argv_wildcards.obj
 0001:0001612a       ?allocate@?$__crt_win32_buffer@DU__crt_win32_buffer_internal_dynamic_resizing@@@@QAEHI@Z 1001712a f i libucrt:argv_wildcards.obj
 0001:00016166       ?allocate@?$__crt_win32_buffer@_WU__crt_win32_buffer_internal_dynamic_resizing@@@@QAEHI@Z 10017166 f i libucrt:argv_wildcards.obj
 0001:000161a5       ?allocate@__crt_win32_buffer_internal_dynamic_resizing@@SAHQAPAXIABV__crt_win32_buffer_empty_debug_info@@@Z 100171a5 f i libucrt:argv_wildcards.obj
 0001:0001624b       ___acrt_expand_narrow_argv_wildcards 1001724b f   libucrt:argv_wildcards.obj
 0001:0001631d       ?allocate@?$__crt_win32_buffer@DU__crt_win32_buffer_no_resizing@@@@QAEHI@Z 1001731d f i libucrt:getmodulefilenamea.obj
 0001:00016344       ?set_to_nullptr@?$__crt_win32_buffer@DU__crt_win32_buffer_no_resizing@@@@QAEXXZ 10017344 f i libucrt:getmodulefilenamea.obj
 0001:00016358       ___acrt_GetModuleFileNameA 10017358 f   libucrt:getmodulefilenamea.obj
 0001:00016911       ___acrt_initialize_multibyte 10017911 f   libucrt:mbctype.obj
 0001:00016959       ___acrt_update_thread_multibyte_data 10017959 f   libucrt:mbctype.obj
 0001:0001696c       __setmbcp_nolock           1001796c f   libucrt:mbctype.obj
 0001:00016c37       __ismbblead                10017c37 f   libucrt:ismbbyte.obj
 0001:00016c4f       ___acrt_initialize_command_line 10017c4f f   libucrt:argv_data.obj
 0001:00016c68       ___acrt_MultiByteToWideChar 10017c68 f   libucrt:multibytetowidechar.obj
 0001:00016ce4       ___acrt_WideCharToMultiByte 10017ce4 f   libucrt:widechartomultibyte.obj
 0001:00016dd2       ___dcrt_get_narrow_environment_from_os 10017dd2 f   libucrt:get_environment_from_os.obj
 0001:00016e56       ___acrt_initialize_heap    10017e56 f   libucrt:heap_handle.obj
 0001:00016e67       ___acrt_uninitialize_heap  10017e67 f   libucrt:heap_handle.obj
 0001:00016e71       ___acrt_execute_initializers 10017e71 f   libucrt:shared_initialization.obj
 0001:00016ed9       ___acrt_execute_uninitializers 10017ed9 f   libucrt:shared_initialization.obj
 0001:00016fd8       ___acrt_get_sigabrt_handler 10017fd8 f   libucrt:signal.obj
 0001:00016fff       ___acrt_initialize_signal_handlers 10017fff f   libucrt:signal.obj
 0001:0001701d       _raise                     1001801d f   libucrt:signal.obj
 0001:00017210       ___acrt_has_user_matherr   10018210 f   libucrt:matherr.obj
 0001:00017228       ___acrt_initialize_user_matherr 10018228 f   libucrt:matherr.obj
 0001:00017237       ___acrt_invoke_user_matherr 10018237 f   libucrt:matherr.obj
 0001:00017446       ___acrt_stdio_flush_nolock 10018446 f   libucrt:fflush.obj
 0001:000174ab       __fflush_nolock            100184ab f   libucrt:fflush.obj
 0001:000174f3       __flushall                 100184f3 f   libucrt:fflush.obj
 0001:000174fc       ___pctype_func             100184fc f   libucrt:ctype.obj
 0001:00017520       _iswctype                  10018520 f   libucrt:iswctype.obj
 0001:00017589       ___acrt_add_locale_ref     10018589 f   libucrt:locale_refcounting.obj
 0001:00017606       ___acrt_free_locale        10018606 f   libucrt:locale_refcounting.obj
 0001:0001774e       ___acrt_locale_add_lc_time_reference 1001874e f   libucrt:locale_refcounting.obj
 0001:00017777       ___acrt_locale_free_lc_time_if_unreferenced 10018777 f   libucrt:locale_refcounting.obj
 0001:000177a8       ___acrt_locale_release_lc_time_reference 100187a8 f   libucrt:locale_refcounting.obj
 0001:000177d1       ___acrt_release_locale_ref 100187d1 f   libucrt:locale_refcounting.obj
 0001:00017852       ___acrt_update_thread_locale_data 10018852 f   libucrt:locale_refcounting.obj
 0001:000178d3       __updatetlocinfoEx_nolock  100188d3 f   libucrt:locale_refcounting.obj
 0001:00017923       __query_new_mode           10018923 f   libucrt:new_mode.obj
 0001:0001797a       ___acrt_DownlevelLocaleNameToLCID 1001897a f   libucrt:lcidtoname_downlevel.obj
 0001:000179a6       __isleadbyte_l             100189a6 f i libucrt:_wctype.obj
 0001:00017a0c       ?__mbrtowc_utf8@__crt_mbstring@@YAIPA_WPBDIPAU_Mbstatet@@@Z 10018a0c f   libucrt:mbrtowc.obj
 0001:00017a4c       ?__mbsrtowcs_utf8@__crt_mbstring@@YAIPA_WPAPBDIPAU_Mbstatet@@@Z 10018a4c f   libucrt:mbrtowc.obj
 0001:00017b47       ?return_illegal_sequence@__crt_mbstring@@YAIPAU_Mbstatet@@@Z 10018b47 f i libucrt:c32rtomb.obj
 0001:00017bd1       ___acrt_fp_strflt_to_string 10018bd1 f   libucrt:_fptostr.obj
 0001:00017cb0       ?divide@__crt_strtox@@YA_KAAUbig_integer@1@ABU21@@Z 10018cb0 f i libucrt:cfout.obj
 0001:00018148       ___acrt_fltout             10019148 f   libucrt:cfout.obj
 0001:0001964f       _fegetround                1001a64f f   libucrt:fegetround.obj
 0001:0001965c       __fcloseall                1001a65c f   libucrt:closeall.obj
 0001:00019707       ___acrt_stdio_free_buffer_nolock 1001a707 f   libucrt:_freebuf.obj
 0001:00019747       __isatty                   1001a747 f   libucrt:isatty.obj
 0001:0001979d       ___acrt_locale_free_monetary 1001a79d f   libucrt:initmon.obj
 0001:0001989b       ___acrt_locale_free_numeric 1001a89b f   libucrt:initnum.obj
 0001:0001993c       ___acrt_locale_free_time   1001a93c f   libucrt:inittime.obj
 0001:00019a20       ___acrt_GetStringTypeA     1001aa20 f   libucrt:getstringtypea.obj
 0001:00019b23       __freea_crt                1001ab23 f i libucrt:getstringtypea.obj
 0001:00019b43       ___acrt_lowio_create_handle_array 1001ab43 f   libucrt:osfinfo.obj
 0001:00019bbe       ___acrt_lowio_destroy_handle_array 1001abbe f   libucrt:osfinfo.obj
 0001:00019bf3       ___acrt_lowio_ensure_fh_exists 1001abf3 f   libucrt:osfinfo.obj
 0001:00019c91       ___acrt_lowio_lock_fh      1001ac91 f   libucrt:osfinfo.obj
 0001:00019cb4       ___acrt_lowio_unlock_fh    1001acb4 f   libucrt:osfinfo.obj
 0001:00019cd7       __free_osfhnd              1001acd7 f   libucrt:osfinfo.obj
 0001:00019d68       __get_osfhandle            1001ad68 f   libucrt:osfinfo.obj
 0001:00019de0       _qsort                     1001ade0 f   libucrt:qsort.obj
 0001:0001a381       _strncpy_s                 1001b381 f   libucrt:strncpy_s.obj
 0001:0001a390       _strpbrk                   1001b390 f   libucrt:strpbrk.obj
 0001:0001a3d0       __mbsdec                   1001b3d0 f   libucrt:mbsdec.obj
 0001:0001a3e7       __mbsdec_l                 1001b3e7 f   libucrt:mbsdec.obj
 0001:0001a65e       ___acrt_LCMapStringA       1001b65e f   libucrt:lcmapstringa.obj
 0001:0001a758       __commit                   1001b758 f   libucrt:commit.obj
 0001:0001af50       __write                    1001bf50 f   libucrt:write.obj
 0001:0001b042       __write_nolock             1001c042 f   libucrt:write.obj
 0001:0001b21c       ___acrt_GetStringTypeW     1001c21c f   libucrt:getstringtypew.obj
 0001:0001b235       ___ascii_wcsnicmp          1001c235 f   libucrt:wcsnicmp.obj
 0001:0001b284       ?__mbrtoc32_utf8@__crt_mbstring@@YAIPA_UPBDIPAU_Mbstatet@@@Z 1001c284 f   libucrt:mbrtoc32.obj
 0001:0001b42b       __controlfp_s              1001c42b f   libucrt:contrlfp.obj
 0001:0001b48a       _fegetenv                  1001c48a f   libucrt:fegetenv.obj
 0001:0001b4a7       _fesetenv                  1001c4a7 f   libucrt:fesetenv.obj
 0001:0001b4f2       _feholdexcept              1001c4f2 f   libucrt:feholdexcept.obj
 0001:0001b540       __CIlog10                  1001c540 f   libucrt:log10_impl.obj
 0001:0001b57b       __CIlog10_default          1001c57b f   libucrt:log10_impl.obj
 0001:0001b58f       __log10_default            1001c58f     libucrt:log10_impl.obj
 0001:0001b650       _ceil                      1001c650 f   libucrt:ceil_pentium4.obj
 0001:0001b690       __ceil_pentium4            1001c690 f   libucrt:ceil_pentium4.obj
 0001:0001ba8a       ___acrt_fenv_get_common_round_control 1001ca8a f   libucrt:_fenvutils.obj
 0001:0001baac       ___acrt_fenv_get_control   1001caac f   libucrt:_fenvutils.obj
 0001:0001bb2c       ___acrt_fenv_get_status    1001cb2c f   libucrt:_fenvutils.obj
 0001:0001bbe4       ___acrt_fenv_set_control   1001cbe4 f   libucrt:_fenvutils.obj
 0001:0001bc4c       ___acrt_fenv_set_status    1001cc4c f   libucrt:_fenvutils.obj
 0001:0001bdbf       __lseeki64_nolock          1001cdbf f   libucrt:lseek.obj
 0001:0001bdda       __fclose_nolock            1001cdda f   libucrt:fclose.obj
 0001:0001be51       _fclose                    1001ce51 f   libucrt:fclose.obj
 0001:0001bed5       __query_app_type           1001ced5 f   libucrt:report_runtime_error.obj
 0001:0001bedb       ___strncnt                 1001cedb f   libucrt:strncnt.obj
 0001:0001bef7       __putwch_nolock            1001cef7 f   libucrt:putwch.obj
 0001:0001bfd0       __clearfp                  1001cfd0 f   libucrt:ieee87.obj
 0001:0001c0ae       __control87                1001d0ae f   libucrt:ieee87.obj
 0001:0001c44d       ___acrt_initialize_sse2    1001d44d f   libucrt:mathfcns.obj
 0001:0001c460       __CIlog10_pentium4         1001d460 f   libucrt:log10_pentium4.obj
 0001:0001c478       __log10_pentium4           1001d478     libucrt:log10_pentium4.obj
 0001:0001c710       __fFEXP                    1001d710 f   libucrt:87tran.obj
 0001:0001c767       __rtinfpopse               1001d767     libucrt:87tran.obj
 0001:0001c769       __rtinfnpopse              1001d769     libucrt:87tran.obj
 0001:0001c779       __fFLN                     1001d779     libucrt:87tran.obj
 0001:0001c82e       __rtinfpop                 1001d82e     libucrt:87tran.obj
 0001:0001c830       __rtinfnpop                1001d830     libucrt:87tran.obj
 0001:0001c840       __rtforexpinf              1001d840 f   libucrt:87tran.obj
 0001:0001c84d       __ffexpm1                  1001d84d     libucrt:87tran.obj
 0001:0001c900       __trandisp1                1001d900 f   libucrt:87disp.obj
 0001:0001c975       __trandisp2                1001d975 f   libucrt:87disp.obj
 0001:0001ca0f       __rttospopde               1001da0f     libucrt:87disp.obj
 0001:0001ca14       __rttospop                 1001da14     libucrt:87disp.obj
 0001:0001ca20       __rtnospop                 1001da20 f   libucrt:87disp.obj
 0001:0001ca30       __rttosnpop                1001da30 f   libucrt:87disp.obj
 0001:0001ca31       __rtnospopde               1001da31     libucrt:87disp.obj
 0001:0001ca38       __rtzeropop                1001da38     libucrt:87disp.obj
 0001:0001ca3a       __rtzeronpop               1001da3a     libucrt:87disp.obj
 0001:0001ca40       __rtzerospop               1001da40 f   libucrt:87disp.obj
 0001:0001ca4d       __rtonepop                 1001da4d     libucrt:87disp.obj
 0001:0001ca50       __rtonenpop                1001da50 f   libucrt:87disp.obj
 0001:0001ca60       __tosnan1                  1001da60 f   libucrt:87disp.obj
 0001:0001ca90       __nosnan2                  1001da90 f   libucrt:87disp.obj
 0001:0001caa0       __tosnan2                  1001daa0 f   libucrt:87disp.obj
 0001:0001cad0       __nan2                     1001dad0 f   libucrt:87disp.obj
 0001:0001cb10       __rtindfpop                1001db10 f   libucrt:87disp.obj
 0001:0001cb12       __rtindfnpop               1001db12     libucrt:87disp.obj
 0001:0001cb23       __rttosnpopde              1001db23     libucrt:87disp.obj
 0001:0001cb30       __rtatan2inf               1001db30 f   libucrt:87disp.obj
 0001:0001cb4d       __rtchsifneg               1001db4d     libucrt:87disp.obj
 0001:0001cb60       __twoToTOS                 1001db60 f   libucrt:common.obj
 0001:0001cb75       __load_CW                  1001db75 f   libucrt:common.obj
 0001:0001cb8c       __convertTOStoQNaN         1001db8c f   libucrt:common.obj
 0001:0001cba5       __fload_withFB             1001dba5 f   libucrt:common.obj
 0001:0001cbe8       __checkTOS_withFB          1001dbe8 f   libucrt:common.obj
 0001:0001cbfe       __fast_exit                1001dbfe f   libucrt:common.obj
 0001:0001cc0b       __math_exit                1001dc0b f   libucrt:common.obj
 0001:0001cc35       __check_overflow_exit      1001dc35 f   libucrt:common.obj
 0001:0001cc49       __check_range_exit         1001dc49 f   libucrt:common.obj
 0001:0001ccf0       __startTwoArgErrorHandling 1001dcf0 f   libucrt:genexcep.obj
 0001:0001cd07       __startOneArgErrorHandling 1001dd07 f   libucrt:genexcep.obj
 0001:0001cd43       ___libm_error_support      1001dd43 f   libucrt:libm_error.obj
 0001:0001cf37       __ceil_default             1001df37 f   libucrt:ceil.obj
 0001:0001d078       __close                    1001e078 f   libucrt:close.obj
 0001:0001d105       __close_nolock             1001e105 f   libucrt:close.obj
 0001:0001d1a1       ?__acrt_stdio_free_stream@@YAXV__crt_stdio_stream@@@Z 1001e1a1 f   libucrt:stream.obj
 0001:0001d1e0       ___ascii_strnicmp          1001e1e0 f   libucrt:_strnicm.obj
 0001:0001d260       ___dcrt_lowio_ensure_console_output_initialized 1001e260 f   libucrt:initcon.obj
 0001:0001d27f       ___dcrt_terminate_console_output 1001e27f f   libucrt:initcon.obj
 0001:0001d296       ___dcrt_write_console      1001e296 f   libucrt:initcon.obj
 0001:0001d2eb       ___set_fpsr_sse2           1001e2eb f   libucrt:fpctrl.obj
 0001:0001d36b       __clrfp                    1001e36b f   libucrt:fpctrl.obj
 0001:0001d37c       __ctrlfp                   1001e37c f   libucrt:fpctrl.obj
 0001:0001d3a6       __set_statfp               1001e3a6 f   libucrt:fpctrl.obj
 0001:0001d3ff       __statfp                   1001e3ff f   libucrt:fpctrl.obj
 0001:0001d40f       __d_inttype                1001e40f f   libucrt:powhlp.obj
 0001:0001d477       __powhlp                   1001e477 f   libucrt:powhlp.obj
 0001:0001d5a2       __87except                 1001e5a2 f   libucrt:87except.obj
 0001:0001d6ac       __frnd                     1001e6ac f   libucrt:frnd.obj
 0001:0001d6c0       __errcode                  1001e6c0 f   libucrt:fpexcept.obj
 0001:0001d6f4       __except1                  1001e6f4 f   libucrt:fpexcept.obj
 0001:0001d7c2       __handle_exc               1001e7c2 f   libucrt:fpexcept.obj
 0001:0001d9ad       __raise_exc                1001e9ad f   libucrt:fpexcept.obj
 0001:0001d9d0       __raise_exc_ex             1001e9d0 f   libucrt:fpexcept.obj
 0001:0001dcc6       __set_errno_from_matherr   1001ecc6 f   libucrt:fpexcept.obj
 0001:0001dcf5       __umatherr                 1001ecf5 f   libucrt:fpexcept.obj
 0001:0001dd95       __decomp                   1001ed95 f   libucrt:util.obj
 0001:0001de67       __set_exp                  1001ee67 f   libucrt:util.obj
 0001:0001de94       __sptype                   1001ee94 f   libucrt:util.obj
 0001:0001def2       __fpclass                  1001eef2 f   libucrt:ieeemisc.obj
 0001:0001df96       _IsProcessorFeaturePresent@4 1001ef96 f   kernel32:KERNEL32.dll
 0001:0001dfa0       __FindPESection            1001efa0 f   LIBCMT:pesect.obj
 0001:0001dff0       __IsNonwritableInCurrentImage 1001eff0 f   LIBCMT:pesect.obj
 0001:0001e0b0       __ValidateImageBase        1001f0b0 f   LIBCMT:pesect.obj
 0001:0001e0e3       __EH_prolog3_catch         1001f0e3 f   LIBCMT:ehprolg3.obj
 0001:0001e120       __aulldvrm                 1001f120 f   LIBCMT:ulldvrm.obj
 0001:0001e1c0       __allmul                   1001f1c0 f   LIBCMT:llmul.obj
 0001:0001e200       __alldvrm                  1001f200 f   LIBCMT:lldvrm.obj
 0001:0001e2e0       __allshl                   1001f2e0 f   LIBCMT:llshl.obj
 0001:0001e300       __aullshr                  1001f300 f   LIBCMT:ullshr.obj
 0001:0001e320       __ftol2_sse_excpt          1001f320     LIBCMT:ftol2.obj
 0001:0001e320       __ftol2_sse                1001f320     LIBCMT:ftol2.obj
 0001:0001e320       __ftoi2                    1001f320 f   LIBCMT:ftol2.obj
 0001:0001e3a0       __ftoui2                   1001f3a0 f   LIBCMT:ftol2.obj
 0001:0001e450       __ftol2                    1001f450 f   LIBCMT:ftol2.obj
 0001:0001e500       __ftoul2                   1001f500 f   LIBCMT:ftol2.obj
 0001:0001e5c0       _strrchr                   1001f5c0 f   libvcruntime:strrchr.obj
 0001:0001e700       _strchr                    1001f700 f   libvcruntime:strchr.obj
 0001:0001e76e       ___from_strstr_to_strchr   1001f76e     libvcruntime:strchr.obj
 0001:0001e82b       __filter_x86_sse2_floating_point_exception_default 1001f82b f   LIBCMT:x86_exception_filter.obj
 0001:0001e82b       __filter_x86_sse2_floating_point_exception 1001f82b f   LIBCMT:x86_exception_filter.obj
 0002:00000000       __imp__RegQueryValueExW@24 10020000     advapi32:ADVAPI32.dll
 0002:00000004       __imp__RegSetValueExW@24   10020004     advapi32:ADVAPI32.dll
 0002:00000008       __imp__RegQueryInfoKeyW@48 10020008     advapi32:ADVAPI32.dll
 0002:0000000c       __imp__RegOpenKeyExW@20    1002000c     advapi32:ADVAPI32.dll
 0002:00000010       __imp__RegEnumKeyExW@32    10020010     advapi32:ADVAPI32.dll
 0002:00000014       __imp__RegDeleteValueW@8   10020014     advapi32:ADVAPI32.dll
 0002:00000018       __imp__RegDeleteKeyW@8     10020018     advapi32:ADVAPI32.dll
 0002:0000001c       __imp__RegCreateKeyExW@36  1002001c     advapi32:ADVAPI32.dll
 0002:00000020       __imp__RegCloseKey@4       10020020     advapi32:ADVAPI32.dll
 0002:00000024       \177ADVAPI32_NULL_THUNK_DATA 10020024     advapi32:ADVAPI32.dll
 0002:00000028       __imp__GetObjectW@12       10020028     gdi32:GDI32.dll
 0002:0000002c       __imp__SelectObject@8      1002002c     gdi32:GDI32.dll
 0002:00000030       __imp__DeleteObject@4      10020030     gdi32:GDI32.dll
 0002:00000034       __imp__CreateCompatibleDC@4 10020034     gdi32:GDI32.dll
 0002:00000038       __imp__BitBlt@36           10020038     gdi32:GDI32.dll
 0002:0000003c       __imp__SetWindowOrgEx@16   1002003c     gdi32:GDI32.dll
 0002:00000040       __imp__SetWindowExtEx@16   10020040     gdi32:GDI32.dll
 0002:00000044       __imp__SetViewportOrgEx@16 10020044     gdi32:GDI32.dll
 0002:00000048       __imp__LPtoDP@12           10020048     gdi32:GDI32.dll
 0002:0000004c       __imp__SetMapMode@8        1002004c     gdi32:GDI32.dll
 0002:00000050       __imp__SaveDC@4            10020050     gdi32:GDI32.dll
 0002:00000054       __imp__RestoreDC@8         10020054     gdi32:GDI32.dll
 0002:00000058       __imp__GetDeviceCaps@8     10020058     gdi32:GDI32.dll
 0002:0000005c       __imp__DeleteMetaFile@4    1002005c     gdi32:GDI32.dll
 0002:00000060       __imp__DeleteDC@4          10020060     gdi32:GDI32.dll
 0002:00000064       __imp__CreateRectRgnIndirect@4 10020064     gdi32:GDI32.dll
 0002:00000068       __imp__CreateMetaFileW@4   10020068     gdi32:GDI32.dll
 0002:0000006c       __imp__CreateDCW@16        1002006c     gdi32:GDI32.dll
 0002:00000070       __imp__CloseMetaFile@4     10020070     gdi32:GDI32.dll
 0002:00000074       \177GDI32_NULL_THUNK_DATA  10020074     gdi32:GDI32.dll
 0002:00000078       __imp__CloseHandle@4       10020078     kernel32:KERNEL32.dll
 0002:0000007c       __imp__SetEvent@4          1002007c     kernel32:KERNEL32.dll
 0002:00000080       __imp__CreateMutexW@12     10020080     kernel32:KERNEL32.dll
 0002:00000084       __imp__CreateEventW@16     10020084     kernel32:KERNEL32.dll
 0002:00000088       __imp__GetCurrentProcessId@0 10020088     kernel32:KERNEL32.dll
 0002:0000008c       __imp__CreateFileW@28      1002008c     kernel32:KERNEL32.dll
 0002:00000090       __imp__GetConsoleMode@8    10020090     kernel32:KERNEL32.dll
 0002:00000094       __imp__GetConsoleOutputCP@0 10020094     kernel32:KERNEL32.dll
 0002:00000098       __imp__WriteFile@20        10020098     kernel32:KERNEL32.dll
 0002:0000009c       __imp__FlushFileBuffers@4  1002009c     kernel32:KERNEL32.dll
 0002:000000a0       __imp__SetStdHandle@8      100200a0     kernel32:KERNEL32.dll
 0002:000000a4       __imp__GetStringTypeW@16   100200a4     kernel32:KERNEL32.dll
 0002:000000a8       __imp__SetFilePointerEx@20 100200a8     kernel32:KERNEL32.dll
 0002:000000ac       __imp__FreeEnvironmentStringsW@4 100200ac     kernel32:KERNEL32.dll
 0002:000000b0       __imp__GetEnvironmentStringsW@0 100200b0     kernel32:KERNEL32.dll
 0002:000000b4       __imp__lstrcmpiW@8         100200b4     kernel32:KERNEL32.dll
 0002:000000b8       __imp__GetCommandLineA@0   100200b8     kernel32:KERNEL32.dll
 0002:000000bc       __imp__GetCPInfo@8         100200bc     kernel32:KERNEL32.dll
 0002:000000c0       __imp__GetOEMCP@0          100200c0     kernel32:KERNEL32.dll
 0002:000000c4       __imp__GetACP@0            100200c4     kernel32:KERNEL32.dll
 0002:000000c8       __imp__IsValidCodePage@4   100200c8     kernel32:KERNEL32.dll
 0002:000000cc       __imp__FindNextFileW@8     100200cc     kernel32:KERNEL32.dll
 0002:000000d0       __imp__FindFirstFileExW@24 100200d0     kernel32:KERNEL32.dll
 0002:000000d4       __imp__FindClose@4         100200d4     kernel32:KERNEL32.dll
 0002:000000d8       __imp__GetFileType@4       100200d8     kernel32:KERNEL32.dll
 0002:000000dc       __imp__GetStdHandle@4      100200dc     kernel32:KERNEL32.dll
 0002:000000e0       __imp__LCMapStringW@24     100200e0     kernel32:KERNEL32.dll
 0002:000000e4       __imp__HeapReAlloc@16      100200e4     kernel32:KERNEL32.dll
 0002:000000e8       __imp__HeapSize@12         100200e8     kernel32:KERNEL32.dll
 0002:000000ec       __imp__MulDiv@12           100200ec     kernel32:KERNEL32.dll
 0002:000000f0       __imp__GlobalLock@4        100200f0     kernel32:KERNEL32.dll
 0002:000000f4       __imp__GlobalUnlock@4      100200f4     kernel32:KERNEL32.dll
 0002:000000f8       __imp__GlobalAlloc@8       100200f8     kernel32:KERNEL32.dll
 0002:000000fc       __imp__FindResourceW@12    100200fc     kernel32:KERNEL32.dll
 0002:00000100       __imp__SizeofResource@8    10020100     kernel32:KERNEL32.dll
 0002:00000104       __imp__LoadResource@8      10020104     kernel32:KERNEL32.dll
 0002:00000108       __imp__LoadLibraryExW@12   10020108     kernel32:KERNEL32.dll
 0002:0000010c       __imp__GetProcAddress@8    1002010c     kernel32:KERNEL32.dll
 0002:00000110       __imp__GetModuleHandleW@4  10020110     kernel32:KERNEL32.dll
 0002:00000114       __imp__GetModuleFileNameW@12 10020114     kernel32:KERNEL32.dll
 0002:00000118       __imp__FreeLibrary@4       10020118     kernel32:KERNEL32.dll
 0002:0000011c       __imp__DisableThreadLibraryCalls@4 1002011c     kernel32:KERNEL32.dll
 0002:00000120       __imp__GetCurrentThreadId@0 10020120     kernel32:KERNEL32.dll
 0002:00000124       __imp__Sleep@4             10020124     kernel32:KERNEL32.dll
 0002:00000128       __imp__WaitForSingleObject@8 10020128     kernel32:KERNEL32.dll
 0002:0000012c       __imp__ReleaseMutex@4      1002012c     kernel32:KERNEL32.dll
 0002:00000130       __imp__ResetEvent@4        10020130     kernel32:KERNEL32.dll
 0002:00000134       __imp__EnterCriticalSection@4 10020134     kernel32:KERNEL32.dll
 0002:00000138       __imp__LeaveCriticalSection@4 10020138     kernel32:KERNEL32.dll
 0002:0000013c       __imp__SetLastError@4      1002013c     kernel32:KERNEL32.dll
 0002:00000140       __imp__EncodePointer@4     10020140     kernel32:KERNEL32.dll
 0002:00000144       __imp__DeleteCriticalSection@4 10020144     kernel32:KERNEL32.dll
 0002:00000148       __imp__InitializeCriticalSectionEx@12 10020148     kernel32:KERNEL32.dll
 0002:0000014c       __imp__GetLastError@0      1002014c     kernel32:KERNEL32.dll
 0002:00000150       __imp__RaiseException@16   10020150     kernel32:KERNEL32.dll
 0002:00000154       __imp__DecodePointer@4     10020154     kernel32:KERNEL32.dll
 0002:00000158       __imp__WideCharToMultiByte@32 10020158     kernel32:KERNEL32.dll
 0002:0000015c       __imp__GetCommandLineW@0   1002015c     kernel32:KERNEL32.dll
 0002:00000160       __imp__MultiByteToWideChar@24 10020160     kernel32:KERNEL32.dll
 0002:00000164       __imp__WriteConsoleW@20    10020164     kernel32:KERNEL32.dll
 0002:00000168       __imp__GetModuleHandleExW@12 10020168     kernel32:KERNEL32.dll
 0002:0000016c       __imp__ExitProcess@4       1002016c     kernel32:KERNEL32.dll
 0002:00000170       __imp__VirtualQuery@12     10020170     kernel32:KERNEL32.dll
 0002:00000174       __imp__VirtualProtect@16   10020174     kernel32:KERNEL32.dll
 0002:00000178       __imp__GetSystemInfo@4     10020178     kernel32:KERNEL32.dll
 0002:0000017c       __imp__TlsFree@4           1002017c     kernel32:KERNEL32.dll
 0002:00000180       __imp__TlsSetValue@8       10020180     kernel32:KERNEL32.dll
 0002:00000184       __imp__TlsGetValue@4       10020184     kernel32:KERNEL32.dll
 0002:00000188       __imp__TlsAlloc@0          10020188     kernel32:KERNEL32.dll
 0002:0000018c       __imp__InterlockedFlushSList@4 1002018c     kernel32:KERNEL32.dll
 0002:00000190       __imp__RtlUnwind@16        10020190     kernel32:KERNEL32.dll
 0002:00000194       __imp__LoadLibraryExA@12   10020194     kernel32:KERNEL32.dll
 0002:00000198       __imp__VirtualFree@12      10020198     kernel32:KERNEL32.dll
 0002:0000019c       __imp__VirtualAlloc@16     1002019c     kernel32:KERNEL32.dll
 0002:000001a0       __imp__FlushInstructionCache@12 100201a0     kernel32:KERNEL32.dll
 0002:000001a4       __imp__InterlockedPushEntrySList@8 100201a4     kernel32:KERNEL32.dll
 0002:000001a8       __imp__InterlockedPopEntrySList@4 100201a8     kernel32:KERNEL32.dll
 0002:000001ac       __imp__GetProcessHeap@0    100201ac     kernel32:KERNEL32.dll
 0002:000001b0       __imp__HeapFree@12         100201b0     kernel32:KERNEL32.dll
 0002:000001b4       __imp__HeapAlloc@12        100201b4     kernel32:KERNEL32.dll
 0002:000001b8       __imp__OutputDebugStringW@4 100201b8     kernel32:KERNEL32.dll
 0002:000001bc       __imp__InitializeSListHead@4 100201bc     kernel32:KERNEL32.dll
 0002:000001c0       __imp__GetSystemTimeAsFileTime@4 100201c0     kernel32:KERNEL32.dll
 0002:000001c4       __imp__QueryPerformanceCounter@4 100201c4     kernel32:KERNEL32.dll
 0002:000001c8       __imp__GetStartupInfoW@4   100201c8     kernel32:KERNEL32.dll
 0002:000001cc       __imp__IsDebuggerPresent@0 100201cc     kernel32:KERNEL32.dll
 0002:000001d0       __imp__IsProcessorFeaturePresent@4 100201d0     kernel32:KERNEL32.dll
 0002:000001d4       __imp__TerminateProcess@8  100201d4     kernel32:KERNEL32.dll
 0002:000001d8       __imp__GetCurrentProcess@0 100201d8     kernel32:KERNEL32.dll
 0002:000001dc       __imp__SetUnhandledExceptionFilter@4 100201dc     kernel32:KERNEL32.dll
 0002:000001e0       __imp__UnhandledExceptionFilter@4 100201e0     kernel32:KERNEL32.dll
 0002:000001e4       __imp__InitializeCriticalSectionAndSpinCount@8 100201e4     kernel32:KERNEL32.dll
 0002:000001e8       __imp__WaitForSingleObjectEx@12 100201e8     kernel32:KERNEL32.dll
 0002:000001ec       \177KERNEL32_NULL_THUNK_DATA 100201ec     kernel32:KERNEL32.dll
 0002:000001f0       __imp__OleCreatePropertyFrame@44 100201f0     oleaut32:OLEAUT32.dll
 0002:000001f4       __imp__UnRegisterTypeLib@20 100201f4     oleaut32:OLEAUT32.dll
 0002:000001f8       __imp__RegisterTypeLib@12  100201f8     oleaut32:OLEAUT32.dll
 0002:000001fc       __imp__LoadRegTypeLib@20   100201fc     oleaut32:OLEAUT32.dll
 0002:00000200       __imp__LoadTypeLib@8       10020200     oleaut32:OLEAUT32.dll
 0002:00000204       __imp__VarUI4FromStr@16    10020204     oleaut32:OLEAUT32.dll
 0002:00000208       __imp__VariantInit@4       10020208     oleaut32:OLEAUT32.dll
 0002:0000020c       __imp__SysAllocStringByteLen@8 1002020c     oleaut32:OLEAUT32.dll
 0002:00000210       __imp__SysStringByteLen@4  10020210     oleaut32:OLEAUT32.dll
 0002:00000214       __imp__VariantChangeType@16 10020214     oleaut32:OLEAUT32.dll
 0002:00000218       __imp__VariantClear@4      10020218     oleaut32:OLEAUT32.dll
 0002:0000021c       __imp__SysStringLen@4      1002021c     oleaut32:OLEAUT32.dll
 0002:00000220       __imp__SysFreeString@4     10020220     oleaut32:OLEAUT32.dll
 0002:00000224       __imp__SysAllocStringLen@8 10020224     oleaut32:OLEAUT32.dll
 0002:00000228       __imp__SysAllocString@4    10020228     oleaut32:OLEAUT32.dll
 0002:0000022c       \177OLEAUT32_NULL_THUNK_DATA 1002022c     oleaut32:OLEAUT32.dll
 0002:00000230       __imp__UnregisterClassW@8  10020230     user32:USER32.dll
 0002:00000234       __imp__PostMessageW@16     10020234     user32:USER32.dll
 0002:00000238       __imp__DefWindowProcW@16   10020238     user32:USER32.dll
 0002:0000023c       __imp__CallWindowProcW@20  1002023c     user32:USER32.dll
 0002:00000240       __imp__RegisterClassExW@4  10020240     user32:USER32.dll
 0002:00000244       __imp__GetClassInfoExW@12  10020244     user32:USER32.dll
 0002:00000248       __imp__CreateWindowExW@48  10020248     user32:USER32.dll
 0002:0000024c       __imp__IsWindow@4          1002024c     user32:USER32.dll
 0002:00000250       __imp__IsChild@8           10020250     user32:USER32.dll
 0002:00000254       __imp__DestroyWindow@4     10020254     user32:USER32.dll
 0002:00000258       __imp__ShowWindow@8        10020258     user32:USER32.dll
 0002:0000025c       __imp__SetWindowPos@28     1002025c     user32:USER32.dll
 0002:00000260       __imp__CharNextW@4         10020260     user32:USER32.dll
 0002:00000264       __imp__SetFocus@4          10020264     user32:USER32.dll
 0002:00000268       __imp__LoadBitmapW@8       10020268     user32:USER32.dll
 0002:0000026c       __imp__RegisterClassW@4    1002026c     user32:USER32.dll
 0002:00000270       __imp__PeekMessageW@20     10020270     user32:USER32.dll
 0002:00000274       __imp__LoadCursorW@8       10020274     user32:USER32.dll
 0002:00000278       __imp__GetParent@4         10020278     user32:USER32.dll
 0002:0000027c       __imp__SetWindowLongW@12   1002027c     user32:USER32.dll
 0002:00000280       __imp__GetWindowLongW@8    10020280     user32:USER32.dll
 0002:00000284       __imp__PtInRect@12         10020284     user32:USER32.dll
 0002:00000288       __imp__EqualRect@8         10020288     user32:USER32.dll
 0002:0000028c       __imp__OffsetRect@12       1002028c     user32:USER32.dll
 0002:00000290       __imp__UnionRect@12        10020290     user32:USER32.dll
 0002:00000294       __imp__IntersectRect@12    10020294     user32:USER32.dll
 0002:00000298       __imp__GetClientRect@8     10020298     user32:USER32.dll
 0002:0000029c       __imp__InvalidateRect@12   1002029c     user32:USER32.dll
 0002:000002a0       __imp__SetWindowRgn@12     100202a0     user32:USER32.dll
 0002:000002a4       __imp__EndPaint@8          100202a4     user32:USER32.dll
 0002:000002a8       __imp__BeginPaint@8        100202a8     user32:USER32.dll
 0002:000002ac       __imp__ReleaseDC@8         100202ac     user32:USER32.dll
 0002:000002b0       __imp__GetDC@4             100202b0     user32:USER32.dll
 0002:000002b4       __imp__GetKeyState@4       100202b4     user32:USER32.dll
 0002:000002b8       __imp__GetFocus@0          100202b8     user32:USER32.dll
 0002:000002bc       \177USER32_NULL_THUNK_DATA 100202bc     user32:USER32.dll
 0002:000002c0       __imp__StringFromGUID2@12  100202c0     ole32:ole32.dll
 0002:000002c4       __imp__CoTaskMemAlloc@4    100202c4     ole32:ole32.dll
 0002:000002c8       __imp__CoTaskMemRealloc@8  100202c8     ole32:ole32.dll
 0002:000002cc       __imp__CoTaskMemFree@4     100202cc     ole32:ole32.dll
 0002:000002d0       __imp__ReadClassStm@8      100202d0     ole32:ole32.dll
 0002:000002d4       __imp__WriteClassStm@8     100202d4     ole32:ole32.dll
 0002:000002d8       __imp__CreateDataAdviseHolder@4 100202d8     ole32:ole32.dll
 0002:000002dc       __imp__OleSaveToStream@8   100202dc     ole32:ole32.dll
 0002:000002e0       __imp__CreateOleAdviseHolder@4 100202e0     ole32:ole32.dll
 0002:000002e4       __imp__OleRegGetUserType@12 100202e4     ole32:ole32.dll
 0002:000002e8       __imp__OleRegGetMiscStatus@12 100202e8     ole32:ole32.dll
 0002:000002ec       __imp__OleRegEnumVerbs@8   100202ec     ole32:ole32.dll
 0002:000002f0       __imp__CLSIDFromProgID@8   100202f0     ole32:ole32.dll
 0002:000002f4       __imp__CoCreateInstance@20 100202f4     ole32:ole32.dll
 0002:000002f8       \177ole32_NULL_THUNK_DATA  100202f8     ole32:ole32.dll
 0002:000002fc       ___guard_check_icall_fptr  100202fc     LIBCMT:guard_support.obj
 0002:00000300       ___xc_a                    10020300     LIBCMT:initializers.obj
 0002:00000318       ___xc_z                    10020318     LIBCMT:initializers.obj
 0002:0000031c       ___xi_a                    1002031c     LIBCMT:initializers.obj
 0002:00000324       ___acrt_stdio_initializer  10020324     libucrt:stdio_initializer.obj
 0002:00000328       ___acrt_multibyte_initializer 10020328     libucrt:multibyte_initializer.obj
 0002:0000032c       ___acrt_tran_sse2_initializer 1002032c     libucrt:sse2_initializer.obj
 0002:00000330       ___xi_z                    10020330     LIBCMT:initializers.obj
 0002:00000334       ___xl_a                    10020334     LIBCMT:tlssup.obj
 0002:00000338       ___xl_z                    10020338     LIBCMT:tlssup.obj
 0002:0000033c       ___xp_a                    1002033c     LIBCMT:initializers.obj
 0002:00000340       ___acrt_locale_terminator  10020340     libucrt:locale_initializer.obj
 0002:00000344       ___dcrt_console_output_terminator 10020344     libucrt:console_output_initializer.obj
 0002:00000348       ___acrt_stdio_terminator   10020348     libucrt:stdio_initializer.obj
 0002:0000034c       ___xp_z                    1002034c     LIBCMT:initializers.obj
 0002:00000350       ___xt_a                    10020350     LIBCMT:initializers.obj
 0002:00000354       ___xt_z                    10020354     LIBCMT:initializers.obj
 0002:00000360       ??_C@_13HADIAKP@?$AAS@     10020360     OposVariant.obj
 0002:00000364       ??_C@_13LHMFKAAD@?$AAM@    10020364     OposVariant.obj
 0002:00000368       ??_C@_13MKMNOPIJ@?$AAD@    10020368     OposVariant.obj
 0002:0000036c       ??_C@_13OPKGLAFF@?$AAB@    1002036c     OposVariant.obj
 0002:00000370       ??_C@_17LLMMEOJD@?$AAV?$AAa?$AAl@ 10020370     OposVariant.obj
 0002:00000378       ??_C@_1BI@JFAIJMHL@?$AAF?$AAo?$AAr?$AAc?$AAe?$AAR?$AAe?$AAm?$AAo?$AAv?$AAe@ 10020378     OposVariant.obj
 0002:00000390       ??_C@_1BC@GCKHIPE@?$AAN?$AAo?$AAR?$AAe?$AAm?$AAo?$AAv?$AAe@ 10020390     OposVariant.obj
 0002:000003a4       ??_C@_1O@JDLOHAN@?$AAD?$AAe?$AAl?$AAe?$AAt?$AAe@ 100203a4     OposVariant.obj
 0002:000003b4       ??_C@_11LOCGONAA@@         100203b4     OposVariant.obj
 0002:000003b8       ??_7CComClassFactory@ATL@@6B@ 100203b8     PINPad.obj
 0002:000003d0       ?_entries@?1??_GetEntries@CComClassFactory@ATL@@SGPBU_ATL_INTMAP_ENTRY@3@XZ@4QBU43@B 100203d0     PINPad.obj
 0002:000003e8       __GUID_00000001_0000_0000_c000_000000000046 100203e8     PINPad.obj
 0002:000003f8       _IID_IOPOSPINPad_1_5       100203f8     PINPad.obj
 0002:00000408       _IID_IOPOSPINPad_1_8       10020408     PINPad.obj
 0002:00000418       _IID_IOPOSPINPad_1_9       10020418     PINPad.obj
 0002:00000428       _IID_IOPOSPINPad_1_10      10020428     PINPad.obj
 0002:00000438       _IID_IOPOSPINPad           10020438     PINPad.obj
 0002:00000448       _LIBID_OposPINPad_CCO      10020448     PINPad.obj
 0002:00000458       _DIID__IOPOSPINPadEvents   10020458     PINPad.obj
 0002:00000468       _CLSID_OPOSPINPad          10020468     PINPad.obj
 0002:00000478       ??_C@_1BK@BIGILECK@?$AAA?$AAd?$AAv?$AAa?$AAp?$AAi?$AA3?$AA2?$AA?4?$AAd?$AAl?$AAl@ 10020478     PINPad.obj
 0002:00000494       __GUID_00000114_0000_0000_c000_000000000046 10020494     PINPad.obj
 0002:000004a4       ??_C@_0BI@MNCFCPFK@RegCreateKeyTransactedW@ 100204a4     PINPad.obj
 0002:000004bc       __GUID_b196b287_bab4_101a_b69c_00aa00341d07 100204bc     PINPad.obj
 0002:000004cc       __GUID_b196b285_bab4_101a_b69c_00aa00341d07 100204cc     PINPad.obj
 0002:000004dc       __GUID_a6bc3ac0_dbaa_11ce_9de3_00aa004bb851 100204dc     PINPad.obj
 0002:000004ec       __GUID_0000010c_0000_0000_c000_000000000046 100204ec     PINPad.obj
 0002:000004fc       __GUID_00000146_0000_0000_c000_000000000046 100204fc     PINPad.obj
 0002:00000510       ?_entries@?1??_GetEntries@COPOSPINPad@@SGPBU_ATL_INTMAP_ENTRY@ATL@@XZ@4QBU34@B 10020510     PINPad.obj
 0002:00000654       ??_7CComModule@ATL@@6B@    10020654     PINPad.obj
 0002:0000067c       __GUID_cf51ed10_62fe_11cf_bf86_00a0c9034836 1002067c     PINPad.obj
 0002:0000068c       __GUID_0000010a_0000_0000_c000_000000000046 1002068c     PINPad.obj
 0002:0000069c       __GUID_b196b283_bab4_101a_b69c_00aa00341d07 1002069c     PINPad.obj
 0002:000006ac       __GUID_cb5bdc81_93c1_11cf_8f20_00805f2cd064 100206ac     PINPad.obj
 0002:000006c0       ?pPropMap@?1??GetPropertyMap@COPOSPINPad@@SAPBUATL_PROPMAP_ENTRY@ATL@@XZ@4QBU34@B 100206c0     PINPad.obj
 0002:0000072c       ??_C@_17DGDADEHL@?$AA_?$AAc?$AAx@ 1002072c     PINPad.obj
 0002:00000734       ??_C@_17IOIMFDBO@?$AA_?$AAc?$AAy@ 10020734     PINPad.obj
 0002:0000073c       __GUID_922eada0_3424_11cf_b670_00aa004cd6d8 1002073c     PINPad.obj
 0002:0000074c       __GUID_9c2cad80_3424_11cf_b670_00aa004cd6d8 1002074c     PINPad.obj
 0002:0000075c       __GUID_00000119_0000_0000_c000_000000000046 1002075c     PINPad.obj
 0002:0000076c       __GUID_b196b289_bab4_101a_b69c_00aa00341d07 1002076c     PINPad.obj
 0002:0000077c       __GUID_00000000_0000_0000_c000_000000000046 1002077c     PINPad.obj
 0002:0000078c       __GUID_00020400_0000_0000_c000_000000000046 1002078c     PINPad.obj
 0002:0000079c       __GUID_00000117_0000_0000_c000_000000000046 1002079c     PINPad.obj
 0002:000007ac       ??_7?$CComObjectCached@VCComClassFactory@ATL@@@ATL@@6B@ 100207ac     PINPad.obj
 0002:000007c4       ??_C@_1CE@PGFMOFKI@?$AAS?$AAt?$AAa?$AAt?$AAu?$AAs?$AAU?$AAp?$AAd?$AAa?$AAt?$AAe?$AAE?$AAv?$AAe@ 100207c4     PINPad.obj
 0002:000007e8       ??_C@_1BG@LODEBHDD@?$AAE?$AAr?$AAr?$AAo?$AAr?$AAE?$AAv?$AAe?$AAn?$AAt@ 100207e8     PINPad.obj
 0002:00000800       ??_C@_1BM@CBGEBBBJ@?$AAD?$AAi?$AAr?$AAe?$AAc?$AAt?$AAI?$AAO?$AAE?$AAv?$AAe?$AAn?$AAt@ 10020800     PINPad.obj
 0002:0000081c       ??_C@_1BE@IEBMACEM@?$AAD?$AAa?$AAt?$AAa?$AAE?$AAv?$AAe?$AAn?$AAt@ 1002081c     PINPad.obj
 0002:00000830       __GUID_b196b286_bab4_101a_b69c_00aa00341d07 10020830     PINPad.obj
 0002:00000840       ??_C@_1BC@ENICKDH@?$AAC?$AAo?$AAn?$AAt?$AAe?$AAn?$AAt?$AAs@ 10020840     PINPad.obj
 0002:00000854       ??_7?$CComObject@V?$CComEnum@UIEnumConnectionPoints@@$1?_GUID_b196b285_bab4_101a_b69c_00aa00341d07@@3U__s_GUID@@BPAUIConnectionPoint@@V?$_CopyInterface@UIConnectionPoint@@@ATL@@VCComSingleThreadModel@6@@ATL@@@ATL@@6B@ 10020854     PINPad.obj
 0002:00000874       ??_C@_1M@KANJNLFF@?$AAC?$AAL?$AAS?$AAI?$AAD@ 10020874     PINPad.obj
 0002:00000880       ??_C@_1M@EJNEECMJ@?$AAA?$AAp?$AAp?$AAI?$AAD@ 10020880     PINPad.obj
 0002:0000088c       __GUID_0000010e_0000_0000_c000_000000000046 1002088c     PINPad.obj
 0002:0000089c       __GUID_b196b288_bab4_101a_b69c_00aa00341d07 1002089c     PINPad.obj
 0002:000008ac       ?rgszNeverDelete@CRegParser@ATL@@1QBQB_WB 100208ac     PINPad.obj
 0002:000008dc       ??_7CRegObject@ATL@@6B@    100208dc     PINPad.obj
 0002:000008f4       __GUID_00000113_0000_0000_c000_000000000046 100208f4     PINPad.obj
 0002:00000904       __GUID_1c2056cc_5ef4_101b_8bc8_00aa003e3b29 10020904     PINPad.obj
 0002:00000914       ??_C@_1CK@OEKPKBNA@?$AAC?$AAo?$AAm?$AAp?$AAo?$AAn?$AAe?$AAn?$AAt?$AA?5?$AAC?$AAa?$AAt?$AAe?$AAg@ 10020914     PINPad.obj
 0002:00000940       ??_C@_1BC@NKMMNMGL@?$AAF?$AAi?$AAl?$AAe?$AAT?$AAy?$AAp?$AAe@ 10020940     PINPad.obj
 0002:00000954       ??_C@_1BE@EKPAFMCP@?$AAI?$AAn?$AAt?$AAe?$AAr?$AAf?$AAa?$AAc?$AAe@ 10020954     PINPad.obj
 0002:00000968       ??_C@_1BC@MAICEHGI@?$AAH?$AAa?$AAr?$AAd?$AAw?$AAa?$AAr?$AAe@ 10020968     PINPad.obj
 0002:0000097c       ??_C@_19HLLLM@?$AAM?$AAi?$AAm?$AAe@ 1002097c     PINPad.obj
 0002:00000988       ??_C@_17OMAOINJK@?$AAS?$AAA?$AAM@ 10020988     PINPad.obj
 0002:00000990       ??_C@_1BC@IBECJAAI@?$AAS?$AAE?$AAC?$AAU?$AAR?$AAI?$AAT?$AAY@ 10020990     PINPad.obj
 0002:000009a4       ??_C@_1O@GBFINDKL@?$AAS?$AAY?$AAS?$AAT?$AAE?$AAM@ 100209a4     PINPad.obj
 0002:000009b4       ??_C@_1BC@EAHCMADO@?$AAS?$AAo?$AAf?$AAt?$AAw?$AAa?$AAr?$AAe@ 100209b4     PINPad.obj
 0002:000009c8       ??_C@_1BA@JIHHIEDE@?$AAT?$AAy?$AAp?$AAe?$AAL?$AAi?$AAb@ 100209c8     PINPad.obj
 0002:000009d8       ?map@?1??HKeyFromString@CRegParser@ATL@@KAPAUHKEY__@@PA_W@Z@4QBUkeymap@?1??123@KAPAU4@0@Z@B 100209d8     PINPad.obj
 0002:00000a48       ??_C@_19NCHLBIN@?$AAH?$AAK?$AAC?$AAR@ 10020a48     PINPad.obj
 0002:00000a54       ??_C@_19JAPAIJDE@?$AAH?$AAK?$AAC?$AAU@ 10020a54     PINPad.obj
 0002:00000a60       ??_C@_19PEALEEJB@?$AAH?$AAK?$AAL?$AAM@ 10020a60     PINPad.obj
 0002:00000a6c       ??_C@_17PJOJPMPB@?$AAH?$AAK?$AAU@ 10020a6c     PINPad.obj
 0002:00000a74       ??_C@_19PNBHMJPL@?$AAH?$AAK?$AAP?$AAD@ 10020a74     PINPad.obj
 0002:00000a80       ??_C@_19GFFAIJHG@?$AAH?$AAK?$AAD?$AAD@ 10020a80     PINPad.obj
 0002:00000a8c       ??_C@_19OFICIBHH@?$AAH?$AAK?$AAC?$AAC@ 10020a8c     PINPad.obj
 0002:00000a98       ??_C@_1CE@PACHPJFI@?$AAH?$AAK?$AAE?$AAY?$AA_?$AAC?$AAL?$AAA?$AAS?$AAS?$AAE?$AAS?$AA_?$AAR?$AAO@ 10020a98     PINPad.obj
 0002:00000abc       ??_C@_1CE@HLHNCBPM@?$AAH?$AAK?$AAE?$AAY?$AA_?$AAC?$AAU?$AAR?$AAR?$AAE?$AAN?$AAT?$AA_?$AAU?$AAS@ 10020abc     PINPad.obj
 0002:00000ae0       ??_C@_1CG@GFBEANJL@?$AAH?$AAK?$AAE?$AAY?$AA_?$AAL?$AAO?$AAC?$AAA?$AAL?$AA_?$AAM?$AAA?$AAC?$AAH@ 10020ae0     PINPad.obj
 0002:00000b08       ??_C@_1BG@BGODANIO@?$AAH?$AAK?$AAE?$AAY?$AA_?$AAU?$AAS?$AAE?$AAR?$AAS@ 10020b08     PINPad.obj
 0002:00000b20       ??_C@_1CM@KHNNAOIC@?$AAH?$AAK?$AAE?$AAY?$AA_?$AAP?$AAE?$AAR?$AAF?$AAO?$AAR?$AAM?$AAA?$AAN?$AAC@ 10020b20     PINPad.obj
 0002:00000b4c       ??_C@_1BM@HAGMMHIA@?$AAH?$AAK?$AAE?$AAY?$AA_?$AAD?$AAY?$AAN?$AA_?$AAD?$AAA?$AAT?$AAA@ 10020b4c     PINPad.obj
 0002:00000b68       ??_C@_1CI@BBJOACGG@?$AAH?$AAK?$AAE?$AAY?$AA_?$AAC?$AAU?$AAR?$AAR?$AAE?$AAN?$AAT?$AA_?$AAC?$AAO@ 10020b68     PINPad.obj
 0002:00000b90       __GUID_00000109_0000_0000_c000_000000000046 10020b90     PINPad.obj
 0002:00000ba0       __GUID_7fd52380_4e07_101b_ae2d_08002b2ec713 10020ba0     PINPad.obj
 0002:00000bb0       __GUID_00000112_0000_0000_c000_000000000046 10020bb0     PINPad.obj
 0002:00000bc0       __GUID_3af24292_0c96_11ce_a0cf_00aa00600ab8 10020bc0     PINPad.obj
 0002:00000bd0       __GUID_00000127_0000_0000_c000_000000000046 10020bd0     PINPad.obj
 0002:00000be0       __GUID_0000010d_0000_0000_c000_000000000046 10020be0     PINPad.obj
 0002:00000bf0       ??_C@_1EA@NHKLICFA@?$AAH?$AAK?$AAC?$AAU?$AA?$AN?$AA?6?$AA?$HL?$AA?7?$AAS?$AAo?$AAf?$AAt?$AAw?$AAa?$AAr@ 10020bf0     PINPad.obj
 0002:00000c30       ??_C@_1BE@LJOLIMEM@?$AA?$AN?$AA?6?$AA?7?$AA?$HN?$AA?$AN?$AA?6?$AA?$HN?$AA?$AN?$AA?6@ 10020c30     PINPad.obj
 0002:00000c44       ??_C@_1O@MNLDABAF@?$AAM?$AAo?$AAd?$AAu?$AAl?$AAe@ 10020c44     PINPad.obj
 0002:00000c54       ??_C@_1BG@JBACFMF@?$AAM?$AAo?$AAd?$AAu?$AAl?$AAe?$AA_?$AAR?$AAa?$AAw@ 10020c54     PINPad.obj
 0002:00000c6c       ??_C@_1BC@KAILKFFG@?$AAR?$AAE?$AAG?$AAI?$AAS?$AAT?$AAR?$AAY@ 10020c6c     PINPad.obj
 0002:00000c80       ??_C@_1M@PPPPCDEP@?$AAA?$AAP?$AAP?$AAI?$AAD@ 10020c80     PINPad.obj
 0002:00000c8c       ??_7?$CComContainedObject@VCOPOSPINPad@@@ATL@@6B?$IDispatchImpl@UIOPOSPINPad@@$1?IID_IOPOSPINPad@@3U_GUID@@B$1?LIBID_OposPINPad_CCO@@3U3@B$00$0A@VCComTypeInfoHolder@ATL@@@1@@ 10020c8c     PINPad.obj
 0002:00000e10       ??_7?$CComContainedObject@VCOPOSPINPad@@@ATL@@6BCComControlBase@1@@ 10020e10     PINPad.obj
 0002:00000e24       ??_7?$CComContainedObject@VCOPOSPINPad@@@ATL@@6B?$CWindowImpl@VCOPOSPINPad@@VCWindow@ATL@@V?$CWinTraits@$0FGAAAAAA@$0A@@3@@1@@ 10020e24     PINPad.obj
 0002:00000e34       ??_7?$CComContainedObject@VCOPOSPINPad@@@ATL@@6B?$IPersistStreamInitImpl@VCOPOSPINPad@@@1@@ 10020e34     PINPad.obj
 0002:00000e58       ??_7?$CComContainedObject@VCOPOSPINPad@@@ATL@@6B?$IOleControlImpl@VCOPOSPINPad@@@1@@ 10020e58     PINPad.obj
 0002:00000e74       ??_7?$CComContainedObject@VCOPOSPINPad@@@ATL@@6B?$IOleObjectImpl@VCOPOSPINPad@@@1@@ 10020e74     PINPad.obj
 0002:00000ed4       ??_7?$CComContainedObject@VCOPOSPINPad@@@ATL@@6B?$IOleInPlaceActiveObjectImpl@VCOPOSPINPad@@@1@@ 10020ed4     PINPad.obj
 0002:00000efc       ??_7?$CComContainedObject@VCOPOSPINPad@@@ATL@@6B?$IViewObjectExImpl@VCOPOSPINPad@@@1@@ 10020efc     PINPad.obj
 0002:00000f38       ??_7?$CComContainedObject@VCOPOSPINPad@@@ATL@@6B?$IOleInPlaceObjectWindowlessImpl@VCOPOSPINPad@@@1@@ 10020f38     PINPad.obj
 0002:00000f64       ??_7?$CComContainedObject@VCOPOSPINPad@@@ATL@@6B?$IConnectionPointContainerImpl@VCOPOSPINPad@@@1@@ 10020f64     PINPad.obj
 0002:00000f78       ??_7?$CComContainedObject@VCOPOSPINPad@@@ATL@@6B?$IPersistStorageImpl@VCOPOSPINPad@@@1@@ 10020f78     PINPad.obj
 0002:00000fa0       ??_7?$CComContainedObject@VCOPOSPINPad@@@ATL@@6B?$ISpecifyPropertyPagesImpl@VCOPOSPINPad@@@1@@ 10020fa0     PINPad.obj
 0002:00000fb0       ??_7?$CComContainedObject@VCOPOSPINPad@@@ATL@@6B?$IQuickActivateImpl@VCOPOSPINPad@@@1@@ 10020fb0     PINPad.obj
 0002:00000fc8       ??_7?$CComContainedObject@VCOPOSPINPad@@@ATL@@6B?$IDataObjectImpl@VCOPOSPINPad@@@1@@ 10020fc8     PINPad.obj
 0002:00000ff8       ??_7?$CComContainedObject@VCOPOSPINPad@@@ATL@@6B?$IProvideClassInfo2Impl@$1?CLSID_OPOSPINPad@@3U_GUID@@B$1?DIID__IOPOSPINPadEvents@@3U2@B$1?LIBID_OposPINPad_CCO@@3U2@B$00$0A@VCComTypeInfoHolder@ATL@@@1@@ 10020ff8     PINPad.obj
 0002:0000100c       ??_7?$CComContainedObject@VCOPOSPINPad@@@ATL@@6B?$IObjectSafetyImpl@VCOPOSPINPad@@$02@1@@ 1002100c     PINPad.obj
 0002:00001024       ??_7?$CComContainedObject@VCOPOSPINPad@@@ATL@@6B?$IPropertyNotifySinkCP@VCOPOSPINPad@@VCComDynamicUnkArray@ATL@@@1@@ 10021024     PINPad.obj
 0002:00001044       ??_7?$CComContainedObject@VCOPOSPINPad@@@ATL@@6B?$CProxy_IOPOSEvents@VCOPOSPINPad@@@@@ 10021044     PINPad.obj
 0002:00001064       ??_7?$CComAggObject@VCOPOSPINPad@@@ATL@@6B@ 10021064     PINPad.obj
 0002:00001074       ??_7?$CComObject@VCOPOSPINPad@@@ATL@@6B?$IDispatchImpl@UIOPOSPINPad@@$1?IID_IOPOSPINPad@@3U_GUID@@B$1?LIBID_OposPINPad_CCO@@3U3@B$00$0A@VCComTypeInfoHolder@ATL@@@1@@ 10021074     PINPad.obj
 0002:000011f8       ??_7?$CComObject@VCOPOSPINPad@@@ATL@@6BCComControlBase@1@@ 100211f8     PINPad.obj
 0002:0000120c       ??_7?$CComObject@VCOPOSPINPad@@@ATL@@6B?$CWindowImpl@VCOPOSPINPad@@VCWindow@ATL@@V?$CWinTraits@$0FGAAAAAA@$0A@@3@@1@@ 1002120c     PINPad.obj
 0002:0000121c       ??_7?$CComObject@VCOPOSPINPad@@@ATL@@6B?$IPersistStreamInitImpl@VCOPOSPINPad@@@1@@ 1002121c     PINPad.obj
 0002:00001240       ??_7?$CComObject@VCOPOSPINPad@@@ATL@@6B?$IOleControlImpl@VCOPOSPINPad@@@1@@ 10021240     PINPad.obj
 0002:0000125c       ??_7?$CComObject@VCOPOSPINPad@@@ATL@@6B?$IOleObjectImpl@VCOPOSPINPad@@@1@@ 1002125c     PINPad.obj
 0002:000012bc       ??_7?$CComObject@VCOPOSPINPad@@@ATL@@6B?$IOleInPlaceActiveObjectImpl@VCOPOSPINPad@@@1@@ 100212bc     PINPad.obj
 0002:000012e4       ??_7?$CComObject@VCOPOSPINPad@@@ATL@@6B?$IViewObjectExImpl@VCOPOSPINPad@@@1@@ 100212e4     PINPad.obj
 0002:00001320       ??_7?$CComObject@VCOPOSPINPad@@@ATL@@6B?$IOleInPlaceObjectWindowlessImpl@VCOPOSPINPad@@@1@@ 10021320     PINPad.obj
 0002:0000134c       ??_7?$CComObject@VCOPOSPINPad@@@ATL@@6B?$IConnectionPointContainerImpl@VCOPOSPINPad@@@1@@ 1002134c     PINPad.obj
 0002:00001360       ??_7?$CComObject@VCOPOSPINPad@@@ATL@@6B?$IPersistStorageImpl@VCOPOSPINPad@@@1@@ 10021360     PINPad.obj
 0002:00001388       ??_7?$CComObject@VCOPOSPINPad@@@ATL@@6B?$ISpecifyPropertyPagesImpl@VCOPOSPINPad@@@1@@ 10021388     PINPad.obj
 0002:00001398       ??_7?$CComObject@VCOPOSPINPad@@@ATL@@6B?$IQuickActivateImpl@VCOPOSPINPad@@@1@@ 10021398     PINPad.obj
 0002:000013b0       ??_7?$CComObject@VCOPOSPINPad@@@ATL@@6B?$IDataObjectImpl@VCOPOSPINPad@@@1@@ 100213b0     PINPad.obj
 0002:000013e0       ??_7?$CComObject@VCOPOSPINPad@@@ATL@@6B?$IProvideClassInfo2Impl@$1?CLSID_OPOSPINPad@@3U_GUID@@B$1?DIID__IOPOSPINPadEvents@@3U2@B$1?LIBID_OposPINPad_CCO@@3U2@B$00$0A@VCComTypeInfoHolder@ATL@@@1@@ 100213e0     PINPad.obj
 0002:000013f4       ??_7?$CComObject@VCOPOSPINPad@@@ATL@@6B?$IObjectSafetyImpl@VCOPOSPINPad@@$02@1@@ 100213f4     PINPad.obj
 0002:0000140c       ??_7?$CComObject@VCOPOSPINPad@@@ATL@@6B?$IPropertyNotifySinkCP@VCOPOSPINPad@@VCComDynamicUnkArray@ATL@@@1@@ 1002140c     PINPad.obj
 0002:0000142c       ??_7?$CComObject@VCOPOSPINPad@@@ATL@@6B?$CProxy_IOPOSEvents@VCOPOSPINPad@@@@@ 1002142c     PINPad.obj
 0002:0000144c       ??_C@_1O@GBFKGNEO@?$AAA?$AAT?$AAL?$AA?3?$AA?$CF?$AAp@ 1002144c     PINPad.obj
 0002:0000145c       ??_C@_1BA@PICGEGJB@?$AAD?$AAI?$AAS?$AAP?$AAL?$AAA?$AAY@ 1002145c     PINPad.obj
 0002:0000146c       __GUID_9bfbbc02_eff1_101a_84ed_00aa00341d07 1002146c     PINPad.obj
 0002:0000147c       __GUID_b196b284_bab4_101a_b69c_00aa00341d07 1002147c     PINPad.obj
 0002:0000148c       ?_entries@?1??_GetEntries@?$CComEnum@UIEnumConnectionPoints@@$1?_GUID_b196b285_bab4_101a_b69c_00aa00341d07@@3U__s_GUID@@BPAUIConnectionPoint@@V?$_CopyInterface@UIConnectionPoint@@@ATL@@VCComSingleThreadModel@6@@ATL@@SGPBU_ATL_INTMAP_ENTRY@3@XZ@4QBU43@B 1002148c     PINPad.obj
 0002:000014a4       __GUID_00020412_0000_0000_c000_000000000046 100214a4     PINPad.obj
 0002:000014b4       __GUID_00020401_0000_0000_c000_000000000046 100214b4     PINPad.obj
 0002:000014c4       __GUID_55980ba0_35aa_11cf_b671_00aa004cd6d8 100214c4     PINPad.obj
 0002:000014d4       ??_7?$CComObject@V?$CComEnum@UIEnumConnections@@$1?_GUID_b196b287_bab4_101a_b69c_00aa00341d07@@3U__s_GUID@@BUtagCONNECTDATA@@V?$_Copy@UtagCONNECTDATA@@@ATL@@VCComSingleThreadModel@6@@ATL@@@ATL@@6B@ 100214d4     PINPad.obj
 0002:000014f4       __GUID_b196b28b_bab4_101a_b69c_00aa00341d07 100214f4     PINPad.obj
 0002:00001504       ?_entries@?1??_GetEntries@?$CComEnum@UIEnumConnections@@$1?_GUID_b196b287_bab4_101a_b69c_00aa00341d07@@3U__s_GUID@@BUtagCONNECTDATA@@V?$_Copy@UtagCONNECTDATA@@@ATL@@VCComSingleThreadModel@6@@ATL@@SGPBU_ATL_INTMAP_ENTRY@3@XZ@4QBU43@B 10021504     PINPad.obj
 0002:0000151c       ??_C@_0BG@EKFFMJIO@RegOpenKeyTransactedW@ 1002151c     PINPad.obj
 0002:00001534       ??_C@_0BI@HAKLOOGP@RegDeleteKeyTransactedW@ 10021534     PINPad.obj
 0002:0000154c       ??_C@_0BA@LILAPHGE@RegDeleteKeyExW@ 1002154c     PINPad.obj
 0002:0000155c       ??_C@_19ILOCMLCJ@?$AA?4?$AAt?$AAl?$AAb@ 1002155c     PINPad.obj
 0002:00001568       __GUID_0002e012_0000_0000_c000_000000000046 10021568     PINPad.obj
 0002:00001578       ??_C@_1O@FHBGLCIO@?$AAC?$AAL?$AAS?$AAI?$AAD?$AA?2@ 10021578     PINPad.obj
 0002:00001588       ??_C@_1CK@IFBKBFAA@?$AA?2?$AAR?$AAe?$AAq?$AAu?$AAi?$AAr?$AAe?$AAd?$AA?5?$AAC?$AAa?$AAt?$AAe?$AAg@ 10021588     PINPad.obj
 0002:000015b4       ??_C@_1DA@BIHALFED@?$AA?2?$AAI?$AAm?$AAp?$AAl?$AAe?$AAm?$AAe?$AAn?$AAt?$AAe?$AAd?$AA?5?$AAC?$AAa@ 100215b4     PINPad.obj
 0002:000015e4       ??_C@_1BK@EDKOLFBJ@?$AAO?$AAL?$AAE?$AAA?$AAU?$AAT?$AA3?$AA2?$AA?4?$AAD?$AAL?$AAL@ 100215e4     PINPad.obj
 0002:00001600       ??_C@_0BJ@CNLFOMHB@UnRegisterTypeLibForUser@ 10021600     PINPad.obj
 0002:0000161c       ??_C@_0BH@LBOMMKPJ@RegisterTypeLibForUser@ 1002161c     PINPad.obj
 0002:00001634       ??_C@_0P@MMNMMLGK@COFreezeEvents@ 10021634     PINPadImpl.obj
 0002:00001644       ??_C@_0BC@OGCGGIMP@GetPropertyNumber@ 10021644     PINPadImpl.obj
 0002:00001658       ??_C@_0BC@MDCNODNB@SetPropertyNumber@ 10021658     PINPadImpl.obj
 0002:0000166c       ??_C@_0BC@CFCCMIMD@GetPropertyString@ 1002166c     PINPadImpl.obj
 0002:00001680       ??_C@_0BC@CJEDNN@SetPropertyString@ 10021680     PINPadImpl.obj
 0002:00001694       ??_C@_0M@LNPKKKDA@OpenService@ 10021694     PINPadImpl.obj
 0002:000016a0       ??_C@_0M@PCMCHHMH@CheckHealth@ 100216a0     PINPadImpl.obj
 0002:000016ac       ??_C@_0M@JGMIDNEK@ClaimDevice@ 100216ac     PINPadImpl.obj
 0002:000016b8       ??_C@_0L@BNEIFEJC@ClearInput@ 100216b8     PINPadImpl.obj
 0002:000016c4       ??_C@_0N@DDFIIBMP@CloseService@ 100216c4     PINPadImpl.obj
 0002:000016d4       ??_C@_08EEIHICPC@DirectIO@ 100216d4     PINPadImpl.obj
 0002:000016e0       ??_C@_0O@BCPMENMJ@ReleaseDevice@ 100216e0     PINPadImpl.obj
 0002:000016f0       ??_C@_09EGHCFIHC@GetAmount@ 100216f0     PINPadImpl.obj
 0002:000016fc       ??_C@_09GIDHHJOA@SetAmount@ 100216fc     PINPadImpl.obj
 0002:00001708       ??_C@_0BE@JOBLMMKO@BeginEFTTransaction@ 10021708     PINPadImpl.obj
 0002:0000171c       ??_C@_0L@EGABKKNE@ComputeMAC@ 1002171c     PINPadImpl.obj
 0002:00001728       ??_C@_0P@IIOMFEON@EnablePINEntry@ 10021728     PINPadImpl.obj
 0002:00001738       ??_C@_0BC@NAFGEMKG@EndEFTTransaction@ 10021738     PINPadImpl.obj
 0002:0000174c       ??_C@_09PHBOFDOC@UpdateKey@ 1002174c     PINPadImpl.obj
 0002:00001758       ??_C@_09KHMNCPJO@VerifyMAC@ 10021758     PINPadImpl.obj
 0002:00001764       ??_C@_0BA@GFABKEEE@ResetStatistics@ 10021764     PINPadImpl.obj
 0002:00001774       ??_C@_0BD@DPALHJGC@RetrieveStatistics@ 10021774     PINPadImpl.obj
 0002:00001788       ??_C@_0BB@KOHIKNFC@UpdateStatistics@ 10021788     PINPadImpl.obj
 0002:0000179c       ??_C@_0BH@PBKBNMGB@CompareFirmwareVersion@ 1002179c     PINPadImpl.obj
 0002:000017b4       ??_C@_0P@FBPDPIPA@UpdateFirmware@ 100217b4     PINPadImpl.obj
 0002:000017c4       ??_C@_0BF@CMAPCJGM@ClearInputProperties@ 100217c4     PINPadImpl.obj
 0002:000017dc       ??_7?$CProxy_IOPOSEvents@VCOPOSPINPad@@@@6B@ 100217dc     PINPadImpl.obj
 0002:000017fc       ??_C@_1BA@IFHENID@?$AA?$FL?$AAE?$AAr?$AAr?$AAo?$AAr?$AA?$FN@ 100217fc     PINPadImpl.obj
 0002:0000180c       ??_C@_0CJ@KLINAKEC@SOFTWARE?2OLEforRetail?2ServiceOP@ 1002180c     PINPadImpl.obj
 0002:00001838       ??_C@_1M@IAIJHCCH@?$AAC?$AAl?$AAo?$AAs?$AAe@ 10021838     PINPadImpl.obj
 0002:00001844       ??_C@_1M@PCPKGJAH@?$AAC?$AAl?$AAa?$AAi?$AAm@ 10021844     PINPadImpl.obj
 0002:00001850       ??_C@_1BA@NDFKIOCP@?$AAR?$AAe?$AAl?$AAe?$AAa?$AAs?$AAe@ 10021850     PINPadImpl.obj
 0002:00001860       ??_C@_06NFLHEKM@PINPad@    10021860     PINPadImpl.obj
 0002:00001868       ??_C@_1BM@IJMNMBPK@?$AAG?$AAe?$AAt?$AAO?$AAp?$AAe?$AAn?$AAR?$AAe?$AAs?$AAu?$AAl?$AAt@ 10021868     PINPadImpl.obj
 0002:00001884       _IID_IPropertyNotifySink   10021884     uuid:ocidl_i.obj
 0002:00001894       _GUID_NULL                 10021894     uuid:cguid_i.obj
 0002:000018a4       _CLSID_StdGlobalInterfaceTable 100218a4     uuid:cguid_i.obj
 0002:000018b4       _IID_IDispatch             100218b4     uuid:oaidl_i.obj
 0002:000018c4       _CLSID_StdComponentCategoriesMgr 100218c4     uuid:ieguids.obj
 0002:000018d4       _IID_IUnknown              100218d4     uuid:unknwn_i.obj
 0002:000018e8       ??_C@_1EC@JIJBPKFM@?$AAa?$AAp?$AAi?$AA?9?$AAm?$AAs?$AA?9?$AAw?$AAi?$AAn?$AA?9?$AAc?$AAo?$AAr?$AAe@ 100218e8     LIBCMT:thread_safe_statics.obj
 0002:0000192c       ??_C@_1BK@MGMFAEKH@?$AAk?$AAe?$AAr?$AAn?$AAe?$AAl?$AA3?$AA2?$AA?4?$AAd?$AAl?$AAl@ 1002192c     LIBCMT:thread_safe_statics.obj
 0002:00001948       ??_C@_0BJ@JEBJOJFJ@SleepConditionVariableCS@ 10021948     LIBCMT:thread_safe_statics.obj
 0002:00001964       ??_C@_0BJ@PGPPEPCC@WakeAllConditionVariable@ 10021964     LIBCMT:thread_safe_statics.obj
 0002:0000197d       ?nothrow@std@@3Unothrow_t@1@B 1002197d     LIBCMT:std_nothrow.obj
 0002:00001988       __pDefaultRawDllMain       10021988     LIBCMT:dll_dllmain.obj
 0002:00001988       __pRawDllMain              10021988     LIBCMT:dll_dllmain.obj
 0002:00001990       ??_7exception@std@@6B@     10021990     LIBCMT:throw_bad_alloc.obj
 0002:00001998       ??_C@_0BC@EOODALEL@Unknown?5exception@ 10021998     LIBCMT:throw_bad_alloc.obj
 0002:000019b0       ??_7bad_alloc@std@@6B@     100219b0     LIBCMT:throw_bad_alloc.obj
 0002:000019b8       ??_C@_0P@GHFPNOJB@bad?5allocation@ 100219b8     LIBCMT:throw_bad_alloc.obj
 0002:000019cc       ??_7bad_array_new_length@std@@6B@ 100219cc     LIBCMT:throw_bad_alloc.obj
 0002:000019d4       ??_C@_0BF@KINCDENJ@bad?5array?5new?5length@ 100219d4     LIBCMT:throw_bad_alloc.obj
 0002:000019f0       ??_7type_info@@6B@         100219f0     LIBCMT:std_type_info_static.obj
 0002:000019f4       _GUID_ATLVer110            100219f4     atls:atlbase.obj
 0002:00001a08       ??_C@_1IC@ONKHOIDK@?$AAE?$AAR?$AAR?$AAO?$AAR?$AA?5?$AA?3?$AA?5?$AAU?$AAn?$AAa?$AAb?$AAl?$AAe?$AA?5@ 10021a08     atls:atlbase.obj
 0002:00001a8c       ??_C@_0N@FJEPLCIH@atlthunk?4dll@ 10021a8c     atls:atlthunk.obj
 0002:00001a9c       ??_C@_0BG@GAKFHCBM@AtlThunk_AllocateData@ 10021a9c     atls:atlthunk.obj
 0002:00001ab4       ??_C@_0BC@JKONFIAH@AtlThunk_InitData@ 10021ab4     atls:atlthunk.obj
 0002:00001ac8       ??_C@_0BE@IAOEELAK@AtlThunk_DataToCode@ 10021ac8     atls:atlthunk.obj
 0002:00001adc       ??_C@_0BC@GBGKAIPI@AtlThunk_FreeData@ 10021adc     atls:atlthunk.obj
 0002:00001af0       __pDestructExceptionObject 10021af0     libvcruntime:ehhelpers.obj
 0002:00001af8       ??_7bad_exception@std@@6B@ 10021af8     libvcruntime:frame.obj
 0002:00001b00       ??_C@_0O@DPKOEFFH@bad?5exception@ 10021b00     libvcruntime:frame.obj
 0002:00001e90       ??_C@_08EHJDFFNH@__based?$CI@ 10021e90     libvcruntime:undname.obj
 0002:00001e9c       ??_C@_07KOLFKCDI@__cdecl@  10021e9c     libvcruntime:undname.obj
 0002:00001ea4       ??_C@_08GHMPAG@__pascal@   10021ea4     libvcruntime:undname.obj
 0002:00001eb0       ??_C@_09IFJBGAPI@__stdcall@ 10021eb0     libvcruntime:undname.obj
 0002:00001ebc       ??_C@_0L@NPHFGOKO@__thiscall@ 10021ebc     libvcruntime:undname.obj
 0002:00001ec8       ??_C@_0L@JMKHOMEK@__fastcall@ 10021ec8     libvcruntime:undname.obj
 0002:00001ed4       ??_C@_0N@BCKKPABJ@__vectorcall@ 10021ed4     libvcruntime:undname.obj
 0002:00001ee4       ??_C@_09HIJEGCPM@__clrcall@ 10021ee4     libvcruntime:undname.obj
 0002:00001ef0       ??_C@_06GHPCKEAG@__eabi@   10021ef0     libvcruntime:undname.obj
 0002:00001ef8       ??_C@_09IOPIDJLG@__swift_1@ 10021ef8     libvcruntime:undname.obj
 0002:00001f04       ??_C@_09KFNFGKHF@__swift_2@ 10021f04     libvcruntime:undname.obj
 0002:00001f10       ??_C@_07JOMMBBKO@__ptr64@  10021f10     libvcruntime:undname.obj
 0002:00001f18       ??_C@_0L@PILCLIHE@__restrict@ 10021f18     libvcruntime:undname.obj
 0002:00001f24       ??_C@_0M@GFIIJFMG@__unaligned@ 10021f24     libvcruntime:undname.obj
 0002:00001f30       ??_C@_09DHDLOLLB@restrict?$CI@ 10021f30     libvcruntime:undname.obj
 0002:00001f3a       ??_C@_00CNPNBAHC@@         10021f3a     libvcruntime:undname.obj
 0002:00001f3c       ??_C@_04NIHEBCM@?5new@     10021f3c     libvcruntime:undname.obj
 0002:00001f44       ??_C@_07FPCDHGMM@?5delete@ 10021f44     libvcruntime:undname.obj
 0002:00001f4c       ??_C@_01NEMOKFLO@?$DN@     10021f4c     libvcruntime:undname.obj
 0002:00001f50       ??_C@_02GPIOPFAK@?$DO?$DO@ 10021f50     libvcruntime:undname.obj
 0002:00001f54       ??_C@_02FODMEDOG@?$DM?$DM@ 10021f54     libvcruntime:undname.obj
 0002:00001f58       ??_C@_01DCLJPIOD@?$CB@     10021f58     libvcruntime:undname.obj
 0002:00001f5c       ??_C@_02EGOFBIJA@?$DN?$DN@ 10021f5c     libvcruntime:undname.obj
 0002:00001f60       ??_C@_02FDNJECIE@?$CB?$DN@ 10021f60     libvcruntime:undname.obj
 0002:00001f64       ??_C@_02GPECMEKF@?$FL?$FN@ 10021f64     libvcruntime:undname.obj
 0002:00001f68       ??_C@_08LHJFAFGD@operator@ 10021f68     libvcruntime:undname.obj
 0002:00001f74       ??_C@_02HBOOOICD@?9?$DO@   10021f74     libvcruntime:undname.obj
 0002:00001f78       ??_C@_01NBENCBCI@?$CK@     10021f78     libvcruntime:undname.obj
 0002:00001f7c       ??_C@_02ECNGHCIF@?$CL?$CL@ 10021f7c     libvcruntime:undname.obj
 0002:00001f80       ??_C@_02BAABKJLB@?9?9@     10021f80     libvcruntime:undname.obj
 0002:00001f84       ??_C@_01JOAMLHOP@?9@       10021f84     libvcruntime:undname.obj
 0002:00001f88       ??_C@_01MIFGBAGJ@?$CL@     10021f88     libvcruntime:undname.obj
 0002:00001f8c       ??_C@_01HNPIGOCE@?$CG@     10021f8c     libvcruntime:undname.obj
 0002:00001f90       ??_C@_03MNHNFDLC@?9?$DO?$CK@ 10021f90     libvcruntime:undname.obj
 0002:00001f94       ??_C@_01KMDKNFGN@?1@       10021f94     libvcruntime:undname.obj
 0002:00001f98       ??_C@_01FGNFDNOH@?$CF@     10021f98     libvcruntime:undname.obj
 0002:00001f9c       ??_C@_01MNNFJEPP@?$DM@     10021f9c     libvcruntime:undname.obj
 0002:00001fa0       ??_C@_02EHCHHCKH@?$DM?$DN@ 10021fa0     libvcruntime:undname.obj
 0002:00001fa4       ??_C@_01PPODPGHN@?$DO@     10021fa4     libvcruntime:undname.obj
 0002:00001fa8       ??_C@_02EEKDKGMJ@?$DO?$DN@ 10021fa8     libvcruntime:undname.obj
 0002:00001fac       ??_C@_01IHBHIGKO@?0@       10021fac     libvcruntime:undname.obj
 0002:00001fb0       ??_C@_02HCKGKOFO@?$CI?$CJ@ 10021fb0     libvcruntime:undname.obj
 0002:00001fb4       ??_C@_01PJKLJHI@?$HO@      10021fb4     libvcruntime:undname.obj
 0002:00001fb8       ??_C@_01JKBOJNNK@?$FO@     10021fb8     libvcruntime:undname.obj
 0002:00001fbc       ??_C@_01DNKMNLPK@?$HM@     10021fbc     libvcruntime:undname.obj
 0002:00001fc0       ??_C@_02PPKAJPJL@?$CG?$CG@ 10021fc0     libvcruntime:undname.obj
 0002:00001fc4       ??_C@_02NONPIBCD@?$HM?$HM@ 10021fc4     libvcruntime:undname.obj
 0002:00001fc8       ??_C@_02FPIMKNGF@?$CK?$DN@ 10021fc8     libvcruntime:undname.obj
 0002:00001fcc       ??_C@_02FOEOMHFC@?$CL?$DN@ 10021fcc     libvcruntime:undname.obj
 0002:00001fd0       ??_C@_02FKMDLLOA@?9?$DN@   10021fd0     libvcruntime:undname.obj
 0002:00001fd4       ??_C@_02FJEHGPIO@?1?$DN@   10021fd4     libvcruntime:undname.obj
 0002:00001fd8       ??_C@_02FENAOKFI@?$CF?$DN@ 10021fd8     libvcruntime:undname.obj
 0002:00001fdc       ??_C@_03IKFCCPFF@?$DO?$DO?$DN@ 10021fdc     libvcruntime:undname.obj
 0002:00001fe0       ??_C@_03CDNPDDLA@?$DM?$DM?$DN@ 10021fe0     libvcruntime:undname.obj
 0002:00001fe4       ??_C@_02FGJGFEAB@?$CG?$DN@ 10021fe4     libvcruntime:undname.obj
 0002:00001fe8       ??_C@_02DHLNPPGH@?$HM?$DN@ 10021fe8     libvcruntime:undname.obj
 0002:00001fec       ??_C@_02MHEGNOJ@?$FO?$DN@  10021fec     libvcruntime:undname.obj
 0002:00001ff0       ??_C@_09IFPLHPGF@?$GAvftable?8@ 10021ff0     libvcruntime:undname.obj
 0002:00001ffc       ??_C@_09BLBHBJP@?$GAvbtable?8@ 10021ffc     libvcruntime:undname.obj
 0002:00002008       ??_C@_07FEEIOKP@?$GAvcall?8@ 10022008     libvcruntime:undname.obj
 0002:00002010       ??_C@_08LLFFHHDJ@?$GAtypeof?8@ 10022010     libvcruntime:undname.obj
 0002:0000201c       ??_C@_0BF@KDPPACIK@?$GAlocal?5static?5guard?8@ 1002201c     libvcruntime:undname.obj
 0002:00002034       ??_C@_08OBABFOLI@?$GAstring?8@ 10022034     libvcruntime:undname.obj
 0002:00002040       ??_C@_0BD@JDLKDPAB@?$GAvbase?5destructor?8@ 10022040     libvcruntime:undname.obj
 0002:00002054       ??_C@_0BN@DEGPLNFK@?$GAvector?5deleting?5destructor?8@ 10022054     libvcruntime:undname.obj
 0002:00002074       ??_C@_0BO@OBMKPJIG@?$GAdefault?5constructor?5closure?8@ 10022074     libvcruntime:undname.obj
 0002:00002094       ??_C@_0BN@IMDCHIKM@?$GAscalar?5deleting?5destructor?8@ 10022094     libvcruntime:undname.obj
 0002:000020b4       ??_C@_0BO@PFGOCPJJ@?$GAvector?5constructor?5iterator?8@ 100220b4     libvcruntime:undname.obj
 0002:000020d4       ??_C@_0BN@LFPFMEDL@?$GAvector?5destructor?5iterator?8@ 100220d4     libvcruntime:undname.obj
 0002:000020f4       ??_C@_0CE@IKBNEHA@?$GAvector?5vbase?5constructor?5itera@ 100220f4     libvcruntime:undname.obj
 0002:00002118       ??_C@_0BL@NILFHHPC@?$GAvirtual?5displacement?5map?8@ 10022118     libvcruntime:undname.obj
 0002:00002134       ??_C@_0CB@JONCMFFK@?$GAeh?5vector?5constructor?5iterator@ 10022134     libvcruntime:undname.obj
 0002:00002158       ??_C@_0CA@GCEOPDGL@?$GAeh?5vector?5destructor?5iterator?8@ 10022158     libvcruntime:undname.obj
 0002:00002178       ??_C@_0CH@OOJPLCPH@?$GAeh?5vector?5vbase?5constructor?5it@ 10022178     libvcruntime:undname.obj
 0002:000021a0       ??_C@_0BL@LLKPOHJI@?$GAcopy?5constructor?5closure?8@ 100221a0     libvcruntime:undname.obj
 0002:000021bc       ??_C@_0BA@KBCDOMBN@?$GAudt?5returning?8@ 100221bc     libvcruntime:undname.obj
 0002:000021cc       ??_C@_03KLGMFNMG@?$GAEH@   100221cc     libvcruntime:undname.obj
 0002:000021d0       ??_C@_05KHLCHHI@?$GARTTI@  100221d0     libvcruntime:undname.obj
 0002:000021d8       ??_C@_0BA@KKLDJDLB@?$GAlocal?5vftable?8@ 100221d8     libvcruntime:undname.obj
 0002:000021e8       ??_C@_0CE@IIHCMGGL@?$GAlocal?5vftable?5constructor?5clos@ 100221e8     libvcruntime:undname.obj
 0002:0000220c       ??_C@_06FHBGPFGH@?5new?$FL?$FN@ 1002220c     libvcruntime:undname.obj
 0002:00002214       ??_C@_09LBNFPBCA@?5delete?$FL?$FN@ 10022214     libvcruntime:undname.obj
 0002:00002220       ??_C@_0P@HJKNJFNN@?$GAomni?5callsig?8@ 10022220     libvcruntime:undname.obj
 0002:00002230       ??_C@_0BL@CNOONJFP@?$GAplacement?5delete?5closure?8@ 10022230     libvcruntime:undname.obj
 0002:0000224c       ??_C@_0BN@CKNJLHMB@?$GAplacement?5delete?$FL?$FN?5closure?8@ 1002224c     libvcruntime:undname.obj
 0002:0000226c       ??_C@_0CG@CFDHKGGD@?$GAmanaged?5vector?5constructor?5ite@ 1002226c     libvcruntime:undname.obj
 0002:00002294       ??_C@_0CF@IMGKMJNO@?$GAmanaged?5vector?5destructor?5iter@ 10022294     libvcruntime:undname.obj
 0002:000022bc       ??_C@_0CG@HLDDJMAG@?$GAeh?5vector?5copy?5constructor?5ite@ 100222bc     libvcruntime:undname.obj
 0002:000022e4       ??_C@_0CM@FCBBDIGB@?$GAeh?5vector?5vbase?5copy?5construct@ 100222e4     libvcruntime:undname.obj
 0002:00002310       ??_C@_0BL@CLIPGLGB@?$GAdynamic?5initializer?5for?5?8@ 10022310     libvcruntime:undname.obj
 0002:0000232c       ??_C@_0CB@PDBIFEP@?$GAdynamic?5atexit?5destructor?5for?5@ 1002232c     libvcruntime:undname.obj
 0002:00002350       ??_C@_0CD@CGAJBKEJ@?$GAvector?5copy?5constructor?5iterat@ 10022350     libvcruntime:undname.obj
 0002:00002374       ??_C@_0CJ@GJELGAMM@?$GAvector?5vbase?5copy?5constructor?5@ 10022374     libvcruntime:undname.obj
 0002:000023a0       ??_C@_0CL@FGIJHLCE@?$GAmanaged?5vector?5copy?5constructo@ 100223a0     libvcruntime:undname.obj
 0002:000023cc       ??_C@_0BM@PMGGMLDN@?$GAlocal?5static?5thread?5guard?8@ 100223cc     libvcruntime:undname.obj
 0002:000023e8       ??_C@_0N@BDNMDMOL@operator?5?$CC?$CC?5@ 100223e8     libvcruntime:undname.obj
 0002:000023f8       ??_C@_0BC@GGEBGALA@operator?5co_await@ 100223f8     libvcruntime:undname.obj
 0002:0000240c       ??_C@_0M@GAAIMMOH@operator?$DM?$DN?$DO@ 1002240c     libvcruntime:undname.obj
 0002:00002418       ??_C@_0BC@DAFEJGAK@?5Type?5Descriptor?8@ 10022418     libvcruntime:undname.obj
 0002:0000242c       ??_C@_0BM@LDKODKLH@?5Base?5Class?5Descriptor?5at?5?$CI@ 1002242c     libvcruntime:undname.obj
 0002:00002448       ??_C@_0BD@LGICGFMM@?5Base?5Class?5Array?8@ 10022448     libvcruntime:undname.obj
 0002:0000245c       ??_C@_0BN@MECKDCOJ@?5Class?5Hierarchy?5Descriptor?8@ 1002245c     libvcruntime:undname.obj
 0002:0000247c       ??_C@_0BK@CFCOFLF@?5Complete?5Object?5Locator?8@ 1002247c     libvcruntime:undname.obj
 0002:00002498       ??_C@_0BG@JNJLAMPM@?$GAanonymous?5namespace?8@ 10022498     libvcruntime:undname.obj
 0002:000024bc       ??_C@_1DM@KHCHBNEB@?$AAa?$AAp?$AAi?$AA?9?$AAm?$AAs?$AA?9?$AAw?$AAi?$AAn?$AA?9?$AAc?$AAo?$AAr?$AAe@ 100224bc     libvcruntime:winapi_downlevel.obj
 0002:000024f8       ??_C@_1DK@LPPGFMPP@?$AAa?$AAp?$AAi?$AA?9?$AAm?$AAs?$AA?9?$AAw?$AAi?$AAn?$AA?9?$AAc?$AAo?$AAr?$AAe@ 100224f8     libvcruntime:winapi_downlevel.obj
 0002:00002534       ??_C@_1BC@GDMECMAK@?$AAk?$AAe?$AAr?$AAn?$AAe?$AAl?$AA3?$AA2@ 10022534     libvcruntime:winapi_downlevel.obj
 0002:00002548       ??_C@_1BA@PFFKHIOG@?$AAa?$AAp?$AAi?$AA?9?$AAm?$AAs?$AA?9@ 10022548     libvcruntime:winapi_downlevel.obj
 0002:00002560       ??_C@_08KNHFBNJ@FlsAlloc@  10022560     libvcruntime:winapi_downlevel.obj
 0002:00002574       ??_C@_07PEJMOBNF@FlsFree@  10022574     libvcruntime:winapi_downlevel.obj
 0002:00002584       ??_C@_0M@GDNOONDI@FlsGetValue@ 10022584     libvcruntime:winapi_downlevel.obj
 0002:00002598       ??_C@_0M@JCPCPOEF@FlsSetValue@ 10022598     libvcruntime:winapi_downlevel.obj
 0002:000025ac       ??_C@_0BM@HCFOFFN@InitializeCriticalSectionEx@ 100225ac     libvcruntime:winapi_downlevel.obj
 0002:00002730       ?format_validation_lookup_table_spectre@__crt_stdio_output@@3V?$spectre_mitigated_lookup_table@Ustate_transition_pair@__crt_stdio_output@@$0IA@@1@B 10022730     libucrt:output.obj
 0002:00002b30       ??_C@_1O@CEDCILHN@?$AA?$CI?$AAn?$AAu?$AAl?$AAl?$AA?$CJ@ 10022b30     libucrt:output.obj
 0002:00002b40       ??_C@_06OJHGLDPL@?$CInull?$CJ@ 10022b40     libucrt:output.obj
 0002:00002b48       ___acrt_exception_action_table 10022b48     libucrt:exception_filter.obj
 0002:00002bd8       ___acrt_signal_action_table_count 10022bd8     libucrt:exception_filter.obj
 0002:00002bdc       ___acrt_signal_action_first_fpe_index 10022bdc     libucrt:exception_filter.obj
 0002:00002be0       ___acrt_signal_action_fpe_count 10022be0     libucrt:exception_filter.obj
 0002:00002be4       ??_C@_1BI@BGOHAHKC@?$AAm?$AAs?$AAc?$AAo?$AAr?$AAe?$AAe?$AA?4?$AAd?$AAl?$AAl@ 10022be4     libucrt:exit.obj
 0002:00002bfc       ??_C@_0P@MIGLKIOC@CorExitProcess@ 10022bfc     libucrt:exit.obj
 0002:00002ce0       ??_C@_1EA@JGEFHKEI@?$AAa?$AAp?$AAi?$AA?9?$AAm?$AAs?$AA?9?$AAw?$AAi?$AAn?$AA?9?$AAc?$AAo?$AAr?$AAe@ 10022ce0     libucrt:winapi_thunks.obj
 0002:00002d20       ??_C@_1DI@IJCEHOCB@?$AAa?$AAp?$AAi?$AA?9?$AAm?$AAs?$AA?9?$AAw?$AAi?$AAn?$AA?9?$AAc?$AAo?$AAr?$AAe@ 10022d20     libucrt:winapi_thunks.obj
 0002:00002d58       ??_C@_1EI@MPIAOHOC@?$AAa?$AAp?$AAi?$AA?9?$AAm?$AAs?$AA?9?$AAw?$AAi?$AAn?$AA?9?$AAc?$AAo?$AAr?$AAe@ 10022d58     libucrt:winapi_thunks.obj
 0002:00002da0       ??_C@_1FK@FPHCKFIE@?$AAa?$AAp?$AAi?$AA?9?$AAm?$AAs?$AA?9?$AAw?$AAi?$AAn?$AA?9?$AAc?$AAo?$AAr?$AAe@ 10022da0     libucrt:winapi_thunks.obj
 0002:00002e00       ??_C@_1EM@DILCGIIO@?$AAa?$AAp?$AAi?$AA?9?$AAm?$AAs?$AA?9?$AAw?$AAi?$AAn?$AA?9?$AAc?$AAo?$AAr?$AAe@ 10022e00     libucrt:winapi_thunks.obj
 0002:00002e4c       ??_C@_1DM@LNCGDDPN@?$AAa?$AAp?$AAi?$AA?9?$AAm?$AAs?$AA?9?$AAw?$AAi?$AAn?$AA?9?$AAc?$AAo?$AAr?$AAe@ 10022e4c     libucrt:winapi_thunks.obj
 0002:00002e88       ??_C@_1DO@FPAPJEMD@?$AAa?$AAp?$AAi?$AA?9?$AAm?$AAs?$AA?9?$AAw?$AAi?$AAn?$AA?9?$AAc?$AAo?$AAr?$AAe@ 10022e88     libucrt:winapi_thunks.obj
 0002:00002ec8       ??_C@_1DK@NDHNAHIO@?$AAa?$AAp?$AAi?$AA?9?$AAm?$AAs?$AA?9?$AAw?$AAi?$AAn?$AA?9?$AAc?$AAo?$AAr?$AAe@ 10022ec8     libucrt:winapi_thunks.obj
 0002:00002f04       ??_C@_1DM@KGHDGBCM@?$AAa?$AAp?$AAi?$AA?9?$AAm?$AAs?$AA?9?$AAw?$AAi?$AAn?$AA?9?$AAc?$AAo?$AAr?$AAe@ 10022f04     libucrt:winapi_thunks.obj
 0002:00002f40       ??_C@_1EO@IJIOEFOH@?$AAa?$AAp?$AAi?$AA?9?$AAm?$AAs?$AA?9?$AAw?$AAi?$AAn?$AA?9?$AAr?$AAt?$AAc?$AAo@ 10022f40     libucrt:winapi_thunks.obj
 0002:00002f90       ??_C@_1FG@HHGEKANL@?$AAa?$AAp?$AAi?$AA?9?$AAm?$AAs?$AA?9?$AAw?$AAi?$AAn?$AA?9?$AAs?$AAe?$AAc?$AAu@ 10022f90     libucrt:winapi_thunks.obj
 0002:00002fe8       ??_C@_1EG@DBIOJECG@?$AAe?$AAx?$AAt?$AA?9?$AAm?$AAs?$AA?9?$AAw?$AAi?$AAn?$AA?9?$AAn?$AAt?$AAu?$AAs@ 10022fe8     libucrt:winapi_thunks.obj
 0002:00003030       ??_C@_1EO@FIHMJCLF@?$AAe?$AAx?$AAt?$AA?9?$AAm?$AAs?$AA?9?$AAw?$AAi?$AAn?$AA?9?$AAn?$AAt?$AAu?$AAs@ 10023030     libucrt:winapi_thunks.obj
 0002:00003080       ??_C@_1BC@DNHGCMLG@?$AAa?$AAd?$AAv?$AAa?$AAp?$AAi?$AA3?$AA2@ 10023080     libucrt:winapi_thunks.obj
 0002:00003094       ??_C@_1M@OAIMIKLP@?$AAn?$AAt?$AAd?$AAl?$AAl@ 10023094     libucrt:winapi_thunks.obj
 0002:000030a0       ??_C@_1EG@DPGNFKGC@?$AAa?$AAp?$AAi?$AA?9?$AAm?$AAs?$AA?9?$AAw?$AAi?$AAn?$AA?9?$AAa?$AAp?$AAp?$AAm@ 100230a0     libucrt:winapi_thunks.obj
 0002:000030e8       ??_C@_1O@BCCLBEOE@?$AAu?$AAs?$AAe?$AAr?$AA3?$AA2@ 100230e8     libucrt:winapi_thunks.obj
 0002:000030f8       ??_C@_1BA@IAIFMGEF@?$AAe?$AAx?$AAt?$AA?9?$AAm?$AAs?$AA?9@ 100230f8     libucrt:winapi_thunks.obj
 0002:0000310c       ??_C@_0BA@FHFNEAED@AreFileApisANSI@ 1002310c     libucrt:winapi_thunks.obj
 0002:0000314c       ??_C@_0O@KKBNKAPF@LCMapStringEx@ 1002314c     libucrt:winapi_thunks.obj
 0002:00003164       ??_C@_0BB@HBDEELFH@LocaleNameToLCID@ 10023164     libucrt:winapi_thunks.obj
 0002:0000317c       ??_C@_0CF@OJOFEIGO@AppPolicyGetProcessTerminationM@ 1002317c     libucrt:winapi_thunks.obj
 0002:000031ac       ??_C@_0BI@BKLFFAPO@SetThreadStackGuarantee@ 100231ac     libucrt:winapi_thunks.obj
 0002:00003208       ??_C@_03OEIAHPBN@INF@      10023208     libucrt:cvt.obj
 0002:0000320c       ??_C@_03OJHLLCGB@inf@      1002320c     libucrt:cvt.obj
 0002:00003210       ??_C@_03LKNCIKJB@NAN@      10023210     libucrt:cvt.obj
 0002:00003214       ??_C@_03LHCJEHON@nan@      10023214     libucrt:cvt.obj
 0002:00003218       ??_C@_09OFJJIMPC@NAN?$CISNAN?$CJ@ 10023218     libucrt:cvt.obj
 0002:00003224       ??_C@_09IPFBKMDL@nan?$CIsnan?$CJ@ 10023224     libucrt:cvt.obj
 0002:00003230       ??_C@_08IKHNHAJ@NAN?$CIIND?$CJ@ 10023230     libucrt:cvt.obj
 0002:0000323c       ??_C@_08OFCDMILK@nan?$CIind?$CJ@ 1002323c     libucrt:cvt.obj
 0002:00003248       ??_C@_05KLBDPFGC@e?$CL000@ 10023248     libucrt:cvt.obj
 0002:00003250       ___lc_time_c               10023250     libucrt:nlsdata.obj
 0002:000033b4       ??_C@_03KOEHGMDN@Sun@      100233b4     libucrt:nlsdata.obj
 0002:000033b8       ??_C@_03PDAGKDH@Mon@       100233b8     libucrt:nlsdata.obj
 0002:000033bc       ??_C@_03NAGEINEP@Tue@      100233bc     libucrt:nlsdata.obj
 0002:000033c0       ??_C@_03MHOMLAJA@Wed@      100233c0     libucrt:nlsdata.obj
 0002:000033c4       ??_C@_03IOFIKPDN@Thu@      100233c4     libucrt:nlsdata.obj
 0002:000033c8       ??_C@_03IDIOELNC@Fri@      100233c8     libucrt:nlsdata.obj
 0002:000033cc       ??_C@_03FEFJNEK@Sat@       100233cc     libucrt:nlsdata.obj
 0002:000033d0       ??_C@_06OOPIFAJ@Sunday@    100233d0     libucrt:nlsdata.obj
 0002:000033d8       ??_C@_06JLEDEDGH@Monday@   100233d8     libucrt:nlsdata.obj
 0002:000033e0       ??_C@_07BAAGCFCM@Tuesday@  100233e0     libucrt:nlsdata.obj
 0002:000033e8       ??_C@_09DLIGFAKA@Wednesday@ 100233e8     libucrt:nlsdata.obj
 0002:000033f4       ??_C@_08HACCIKIA@Thursday@ 100233f4     libucrt:nlsdata.obj
 0002:00003400       ??_C@_06JECMNKMI@Friday@   10023400     libucrt:nlsdata.obj
 0002:00003408       ??_C@_08INBOOONO@Saturday@ 10023408     libucrt:nlsdata.obj
 0002:00003414       ??_C@_03JIHJHPIE@Jan@      10023414     libucrt:nlsdata.obj
 0002:00003418       ??_C@_03HJBDCHOM@Feb@      10023418     libucrt:nlsdata.obj
 0002:0000341c       ??_C@_03ODNJBKGA@Mar@      1002341c     libucrt:nlsdata.obj
 0002:00003420       ??_C@_03LEOLGMJP@Apr@      10023420     libucrt:nlsdata.obj
 0002:00003424       ??_C@_03CNMDKL@May@        10023424     libucrt:nlsdata.obj
 0002:00003428       ??_C@_03IDFGHECI@Jun@      10023428     libucrt:nlsdata.obj
 0002:0000342c       ??_C@_03LBGABGKK@Jul@      1002342c     libucrt:nlsdata.obj
 0002:00003430       ??_C@_03IFJFEIGA@Aug@      10023430     libucrt:nlsdata.obj
 0002:00003434       ??_C@_03GGCAPAJC@Sep@      10023434     libucrt:nlsdata.obj
 0002:00003438       ??_C@_03BMAOKBAD@Oct@      10023438     libucrt:nlsdata.obj
 0002:0000343c       ??_C@_03JPJOFNIA@Nov@      1002343c     libucrt:nlsdata.obj
 0002:00003440       ??_C@_03MKABNOCG@Dec@      10023440     libucrt:nlsdata.obj
 0002:00003444       ??_C@_07CGJPFGJA@January@  10023444     libucrt:nlsdata.obj
 0002:0000344c       ??_C@_08GNJGEPFN@February@ 1002344c     libucrt:nlsdata.obj
 0002:00003458       ??_C@_05HPCKOFNC@March@    10023458     libucrt:nlsdata.obj
 0002:00003460       ??_C@_05DMJDNLEJ@April@    10023460     libucrt:nlsdata.obj
 0002:00003468       ??_C@_04CNLMGBGM@June@     10023468     libucrt:nlsdata.obj
 0002:00003470       ??_C@_04MIEPOIFP@July@     10023470     libucrt:nlsdata.obj
 0002:00003478       ??_C@_06LBBHFDDG@August@   10023478     libucrt:nlsdata.obj
 0002:00003480       ??_C@_09BHHEALKD@September@ 10023480     libucrt:nlsdata.obj
 0002:0000348c       ??_C@_07JJNFCEND@October@  1002348c     libucrt:nlsdata.obj
 0002:00003494       ??_C@_08HCHEGEOA@November@ 10023494     libucrt:nlsdata.obj
 0002:000034a0       ??_C@_08EDHMEBNP@December@ 100234a0     libucrt:nlsdata.obj
 0002:000034ac       ??_C@_02DEDBPAFC@AM@       100234ac     libucrt:nlsdata.obj
 0002:000034b0       ??_C@_02CJNFDJBF@PM@       100234b0     libucrt:nlsdata.obj
 0002:000034b4       ??_C@_08BPBNCDIB@MM?1dd?1yy@ 100234b4     libucrt:nlsdata.obj
 0002:000034c0       ??_C@_0BE@CKGJFCPC@dddd?0?5MMMM?5dd?0?5yyyy@ 100234c0     libucrt:nlsdata.obj
 0002:000034d4       ??_C@_08JCCMCCIL@HH?3mm?3ss@ 100234d4     libucrt:nlsdata.obj
 0002:000034e0       ??_C@_17MBGCMIPB@?$AAS?$AAu?$AAn@ 100234e0     libucrt:nlsdata.obj
 0002:000034e8       ??_C@_17KBOMKBF@?$AAM?$AAo?$AAn@ 100234e8     libucrt:nlsdata.obj
 0002:000034f0       ??_C@_17BMKGEGOJ@?$AAT?$AAu?$AAe@ 100234f0     libucrt:nlsdata.obj
 0002:000034f8       ??_C@_17CJEDCEPE@?$AAW?$AAe?$AAd@ 100234f8     libucrt:nlsdata.obj
 0002:00003500       ??_C@_17PDPHAADD@?$AAT?$AAh?$AAu@ 10023500     libucrt:nlsdata.obj
 0002:00003508       ??_C@_17HFOLPPLP@?$AAF?$AAr?$AAi@ 10023508     libucrt:nlsdata.obj
 0002:00003510       ??_C@_17GGIBDPIH@?$AAS?$AAa?$AAt@ 10023510     libucrt:nlsdata.obj
 0002:00003518       ??_C@_1O@IHNHDHPB@?$AAS?$AAu?$AAn?$AAd?$AAa?$AAy@ 10023518     libucrt:nlsdata.obj
 0002:00003528       ??_C@_1O@MMNBFLIA@?$AAM?$AAo?$AAn?$AAd?$AAa?$AAy@ 10023528     libucrt:nlsdata.obj
 0002:00003538       ??_C@_1BA@ENFBFFEK@?$AAT?$AAu?$AAe?$AAs?$AAd?$AAa?$AAy@ 10023538     libucrt:nlsdata.obj
 0002:00003548       ??_C@_1BE@EBOGMDOH@?$AAW?$AAe?$AAd?$AAn?$AAe?$AAs?$AAd?$AAa?$AAy@ 10023548     libucrt:nlsdata.obj
 0002:0000355c       ??_C@_1BC@HHMNLIHE@?$AAT?$AAh?$AAu?$AAr?$AAs?$AAd?$AAa?$AAy@ 1002355c     libucrt:nlsdata.obj
 0002:00003570       ??_C@_1O@PDICJHAG@?$AAF?$AAr?$AAi?$AAd?$AAa?$AAy@ 10023570     libucrt:nlsdata.obj
 0002:00003580       ??_C@_1BC@ENMNNPAJ@?$AAS?$AAa?$AAt?$AAu?$AAr?$AAd?$AAa?$AAy@ 10023580     libucrt:nlsdata.obj
 0002:00003594       ??_C@_17DKNBKCHM@?$AAJ?$AAa?$AAn@ 10023594     libucrt:nlsdata.obj
 0002:0000359c       ??_C@_17LMDJEKJN@?$AAF?$AAe?$AAb@ 1002359c     libucrt:nlsdata.obj
 0002:000035a4       ??_C@_17CKNLEDEC@?$AAM?$AAa?$AAr@ 100235a4     libucrt:nlsdata.obj
 0002:000035ac       ??_C@_17LFPOIHDD@?$AAA?$AAp?$AAr@ 100235ac     libucrt:nlsdata.obj
 0002:000035b4       ??_C@_17PNNKMEED@?$AAM?$AAa?$AAy@ 100235b4     libucrt:nlsdata.obj
 0002:000035bc       ??_C@_17KCJGOCPB@?$AAJ?$AAu?$AAn@ 100235bc     libucrt:nlsdata.obj
 0002:000035c4       ??_C@_17IJPCKHK@?$AAJ?$AAu?$AAl@ 100235c4     libucrt:nlsdata.obj
 0002:000035cc       ??_C@_17ICPELBCN@?$AAA?$AAu?$AAg@ 100235cc     libucrt:nlsdata.obj
 0002:000035d4       ??_C@_17HCHCOKMG@?$AAS?$AAe?$AAp@ 100235d4     libucrt:nlsdata.obj
 0002:000035dc       ??_C@_17FNLKOI@?$AAO?$AAc?$AAt@ 100235dc     libucrt:nlsdata.obj
 0002:000035e4       ??_C@_17BBDMLCIG@?$AAN?$AAo?$AAv@ 100235e4     libucrt:nlsdata.obj
 0002:000035ec       ??_C@_17EGKACKIF@?$AAD?$AAe?$AAc@ 100235ec     libucrt:nlsdata.obj
 0002:000035f4       ??_C@_1BA@EFMEIEBA@?$AAJ?$AAa?$AAn?$AAu?$AAa?$AAr?$AAy@ 100235f4     libucrt:nlsdata.obj
 0002:00003604       ??_C@_1BC@JGDDFFAM@?$AAF?$AAe?$AAb?$AAr?$AAu?$AAa?$AAr?$AAy@ 10023604     libucrt:nlsdata.obj
 0002:00003618       ??_C@_1M@IKEENEDF@?$AAM?$AAa?$AAr?$AAc?$AAh@ 10023618     libucrt:nlsdata.obj
 0002:00003624       ??_C@_1M@GJNLMHFD@?$AAA?$AAp?$AAr?$AAi?$AAl@ 10023624     libucrt:nlsdata.obj
 0002:00003630       ??_C@_19EPFLPGAP@?$AAJ?$AAu?$AAn?$AAe@ 10023630     libucrt:nlsdata.obj
 0002:0000363c       ??_C@_19BIFMLPCD@?$AAJ?$AAu?$AAl?$AAy@ 1002363c     libucrt:nlsdata.obj
 0002:00003648       ??_C@_1O@PAHLKOAC@?$AAA?$AAu?$AAg?$AAu?$AAs?$AAt@ 10023648     libucrt:nlsdata.obj
 0002:00003658       ??_C@_1BE@DKAAMBJL@?$AAS?$AAe?$AAp?$AAt?$AAe?$AAm?$AAb?$AAe?$AAr@ 10023658     libucrt:nlsdata.obj
 0002:0000366c       ??_C@_1BA@EPANDLNG@?$AAO?$AAc?$AAt?$AAo?$AAb?$AAe?$AAr@ 1002366c     libucrt:nlsdata.obj
 0002:0000367c       ??_C@_1BC@BGLIFPF@?$AAN?$AAo?$AAv?$AAe?$AAm?$AAb?$AAe?$AAr@ 1002367c     libucrt:nlsdata.obj
 0002:00003690       ??_C@_1BC@FEMKIFH@?$AAD?$AAe?$AAc?$AAe?$AAm?$AAb?$AAe?$AAr@ 10023690     libucrt:nlsdata.obj
 0002:000036a4       ??_C@_15ODEHAHHF@?$AAA?$AAM@ 100236a4     libucrt:nlsdata.obj
 0002:000036ac       ??_C@_15CLMNNGEL@?$AAP?$AAM@ 100236ac     libucrt:nlsdata.obj
 0002:000036b4       ??_C@_1BC@IEBCMHCM@?$AAM?$AAM?$AA?1?$AAd?$AAd?$AA?1?$AAy?$AAy@ 100236b4     libucrt:nlsdata.obj
 0002:000036c8       ??_C@_1CI@KNAKOEBC@?$AAd?$AAd?$AAd?$AAd?$AA?0?$AA?5?$AAM?$AAM?$AAM?$AAM?$AA?5?$AAd?$AAd?$AA?0?$AA?5@ 100236c8     libucrt:nlsdata.obj
 0002:000036f0       ??_C@_1BC@GDGBMEMK@?$AAH?$AAH?$AA?3?$AAm?$AAm?$AA?3?$AAs?$AAs@ 100236f0     libucrt:nlsdata.obj
 0002:00003704       ??_C@_1M@BMHNFIME@?$AAe?$AAn?$AA?9?$AAU?$AAS@ 10023704     libucrt:nlsdata.obj
 0002:00003720       ??_C@_1M@HPNHIDJI@?$AAj?$AAa?$AA?9?$AAJ?$AAP@ 10023720     libucrt:mbctype.obj
 0002:0000372c       ??_C@_1M@BIBDDEMK@?$AAz?$AAh?$AA?9?$AAC?$AAN@ 1002372c     libucrt:mbctype.obj
 0002:00003738       ??_C@_1M@JLOOOEGK@?$AAk?$AAo?$AA?9?$AAK?$AAR@ 10023738     libucrt:mbctype.obj
 0002:00003744       ??_C@_1M@CLNBBOPM@?$AAz?$AAh?$AA?9?$AAT?$AAW@ 10023744     libucrt:mbctype.obj
 0002:00003750       ___newctype                10023750     libucrt:ctype.obj
 0002:00003a50       ___newclmap                10023a50     libucrt:ctype.obj
 0002:00003bd0       ___newcumap                10023bd0     libucrt:ctype.obj
 0002:00003d50       __wctype                   10023d50     libucrt:ctype.obj
 0002:00004678       ??_C@_15EMKDOKLE@?$AAa?$AAr@ 10024678     libucrt:lcidtoname_downlevel.obj
 0002:00004680       ??_C@_15KNPADPLH@?$AAb?$AAg@ 10024680     libucrt:lcidtoname_downlevel.obj
 0002:00004688       ??_C@_15EDMHLDMO@?$AAc?$AAa@ 10024688     libucrt:lcidtoname_downlevel.obj
 0002:00004690       ??_C@_1O@BPEAJADD@?$AAz?$AAh?$AA?9?$AAC?$AAH?$AAS@ 10024690     libucrt:lcidtoname_downlevel.obj
 0002:000046a0       ??_C@_15LJNHCMNK@?$AAc?$AAs@ 100246a0     libucrt:lcidtoname_downlevel.obj
 0002:000046a8       ??_C@_15FOMCIDHG@?$AAd?$AAa@ 100246a8     libucrt:lcidtoname_downlevel.obj
 0002:000046b0       ??_C@_15NBKABECB@?$AAd?$AAe@ 100246b0     libucrt:lcidtoname_downlevel.obj
 0002:000046b8       ??_C@_15GHPEIIAO@?$AAe?$AAl@ 100246b8     libucrt:lcidtoname_downlevel.obj
 0002:000046c0       ??_C@_15MNPNEAIF@?$AAe?$AAn@ 100246c0     libucrt:lcidtoname_downlevel.obj
 0002:000046c8       ??_C@_15GPIOMPMH@?$AAe?$AAs@ 100246c8     libucrt:lcidtoname_downlevel.obj
 0002:000046d0       ??_C@_15NGLOAKJC@?$AAf?$AAi@ 100246d0     libucrt:lcidtoname_downlevel.obj
 0002:000046d8       ??_C@_15FBKGNKAM@?$AAf?$AAr@ 100246d8     libucrt:lcidtoname_downlevel.obj
 0002:000046e0       ??_C@_15KGGCNEFK@?$AAh?$AAe@ 100246e0     libucrt:lcidtoname_downlevel.obj
 0002:000046e8       ??_C@_15PGHLIDMF@?$AAh?$AAu@ 100246e8     libucrt:lcidtoname_downlevel.obj
 0002:000046f0       ??_C@_15BIEMAPLM@?$AAi?$AAs@ 100246f0     libucrt:lcidtoname_downlevel.obj
 0002:000046f8       ??_C@_15IFJLDHAF@?$AAi?$AAt@ 100246f8     libucrt:lcidtoname_downlevel.obj
 0002:00004700       ??_C@_15GEMIOCAG@?$AAj?$AAa@ 10024700     libucrt:lcidtoname_downlevel.obj
 0002:00004708       ??_C@_15EPELEGJA@?$AAk?$AAo@ 10024708     libucrt:lcidtoname_downlevel.obj
 0002:00004710       ??_C@_15NDDHIMN@?$AAn?$AAl@ 10024710     libucrt:lcidtoname_downlevel.obj
 0002:00004718       ??_C@_15BPIGNHCD@?$AAn?$AAo@ 10024718     libucrt:lcidtoname_downlevel.obj
 0002:00004720       ??_C@_15DEOPBLCG@?$AAp?$AAl@ 10024720     libucrt:lcidtoname_downlevel.obj
 0002:00004728       ??_C@_15KBECGEFG@?$AAp?$AAt@ 10024728     libucrt:lcidtoname_downlevel.obj
 0002:00004730       ??_C@_15GLJCBFMD@?$AAr?$AAo@ 10024730     libucrt:lcidtoname_downlevel.obj
 0002:00004738       ??_C@_15FEDGKCDI@?$AAr?$AAu@ 10024738     libucrt:lcidtoname_downlevel.obj
 0002:00004740       ??_C@_15GLKMLLHM@?$AAh?$AAr@ 10024740     libucrt:lcidtoname_downlevel.obj
 0002:00004748       ??_C@_15CPKMFBDB@?$AAs?$AAk@ 10024748     libucrt:lcidtoname_downlevel.obj
 0002:00004750       ??_C@_15BAAIOGMK@?$AAs?$AAq@ 10024750     libucrt:lcidtoname_downlevel.obj
 0002:00004758       ??_C@_15INNPNOHD@?$AAs?$AAv@ 10024758     libucrt:lcidtoname_downlevel.obj
 0002:00004760       ??_C@_15CABMMOGH@?$AAt?$AAh@ 10024760     libucrt:lcidtoname_downlevel.obj
 0002:00004768       ??_C@_15BPLIHJJM@?$AAt?$AAr@ 10024768     libucrt:lcidtoname_downlevel.obj
 0002:00004770       ??_C@_15NEOEKKDJ@?$AAu?$AAr@ 10024770     libucrt:lcidtoname_downlevel.obj
 0002:00004778       ??_C@_15NFICGAJK@?$AAi?$AAd@ 10024778     libucrt:lcidtoname_downlevel.obj
 0002:00004780       ??_C@_15PJPFLCCM@?$AAu?$AAk@ 10024780     libucrt:lcidtoname_downlevel.obj
 0002:00004788       ??_C@_15HPJPHDM@?$AAb?$AAe@ 10024788     libucrt:lcidtoname_downlevel.obj
 0002:00004790       ??_C@_15LCHLGJII@?$AAs?$AAl@ 10024790     libucrt:lcidtoname_downlevel.obj
 0002:00004798       ??_C@_15PCFJPHHO@?$AAe?$AAt@ 10024798     libucrt:lcidtoname_downlevel.obj
 0002:000047a0       ??_C@_15HPFPGODN@?$AAl?$AAv@ 100247a0     libucrt:lcidtoname_downlevel.obj
 0002:000047a8       ??_C@_15NFFGKGLG@?$AAl?$AAt@ 100247a8     libucrt:lcidtoname_downlevel.obj
 0002:000047b0       ??_C@_15BDAKCCHN@?$AAf?$AAa@ 100247b0     libucrt:lcidtoname_downlevel.obj
 0002:000047b8       ??_C@_15NFGIAIAJ@?$AAv?$AAi@ 100247b8     libucrt:lcidtoname_downlevel.obj
 0002:000047c0       ??_C@_15LMKNDMHN@?$AAh?$AAy@ 100247c0     libucrt:lcidtoname_downlevel.obj
 0002:000047c8       ??_C@_15IJBHMCFL@?$AAa?$AAz@ 100247c8     libucrt:lcidtoname_downlevel.obj
 0002:000047d0       ??_C@_15EKOFJABL@?$AAe?$AAu@ 100247d0     libucrt:lcidtoname_downlevel.obj
 0002:000047d8       ??_C@_15BGHADCNK@?$AAm?$AAk@ 100247d8     libucrt:lcidtoname_downlevel.obj
 0002:000047e0       ??_C@_15JDNICKHM@?$AAa?$AAf@ 100247e0     libucrt:lcidtoname_downlevel.obj
 0002:000047e8       ??_C@_15KPJEDBKD@?$AAk?$AAa@ 100247e8     libucrt:lcidtoname_downlevel.obj
 0002:000047f0       ??_C@_15PDNFFFEO@?$AAf?$AAo@ 100247f0     libucrt:lcidtoname_downlevel.obj
 0002:000047f8       ??_C@_15OMLEGLOC@?$AAh?$AAi@ 100247f8     libucrt:lcidtoname_downlevel.obj
 0002:00004800       ??_C@_15IDNNENKK@?$AAm?$AAs@ 10024800     libucrt:lcidtoname_downlevel.obj
 0002:00004808       ??_C@_15MACJNBMH@?$AAk?$AAk@ 10024808     libucrt:lcidtoname_downlevel.obj
 0002:00004810       ??_C@_15DKDJEOND@?$AAk?$AAy@ 10024810     libucrt:lcidtoname_downlevel.obj
 0002:00004818       ??_C@_15DFGDLJBG@?$AAs?$AAw@ 10024818     libucrt:lcidtoname_downlevel.obj
 0002:00004820       ??_C@_15BBFAICNG@?$AAu?$AAz@ 10024820     libucrt:lcidtoname_downlevel.obj
 0002:00004828       ??_C@_15DKNDCGEA@?$AAt?$AAt@ 10024828     libucrt:lcidtoname_downlevel.obj
 0002:00004830       ??_C@_15MGIFMDPL@?$AAp?$AAa@ 10024830     libucrt:lcidtoname_downlevel.obj
 0002:00004838       ??_C@_15HCNDBBA@?$AAg?$AAu@ 10024838     libucrt:lcidtoname_downlevel.obj
 0002:00004840       ??_C@_15FNBEIBON@?$AAt?$AAa@ 10024840     libucrt:lcidtoname_downlevel.obj
 0002:00004848       ??_C@_15NCHGBGLK@?$AAt?$AAe@ 10024848     libucrt:lcidtoname_downlevel.obj
 0002:00004850       ??_C@_15PHPHCBPF@?$AAk?$AAn@ 10024850     libucrt:lcidtoname_downlevel.obj
 0002:00004858       ??_C@_15DLGBCKMP@?$AAm?$AAr@ 10024858     libucrt:lcidtoname_downlevel.obj
 0002:00004860       ??_C@_15EABBLBFF@?$AAs?$AAa@ 10024860     libucrt:lcidtoname_downlevel.obj
 0002:00004868       ??_C@_15CBKOMCOI@?$AAm?$AAn@ 10024868     libucrt:lcidtoname_downlevel.obj
 0002:00004870       ??_C@_15CKDMCJAF@?$AAg?$AAl@ 10024870     libucrt:lcidtoname_downlevel.obj
 0002:00004878       ??_C@_17CNJFBPG@?$AAk?$AAo?$AAk@ 10024878     libucrt:lcidtoname_downlevel.obj
 0002:00004880       ??_C@_17FFBJICPL@?$AAs?$AAy?$AAr@ 10024880     libucrt:lcidtoname_downlevel.obj
 0002:00004888       ??_C@_17KPNDCPAF@?$AAd?$AAi?$AAv@ 10024888     libucrt:lcidtoname_downlevel.obj
 0002:00004890       ??_C@_1M@OKAHONE@?$AAa?$AAr?$AA?9?$AAS?$AAA@ 10024890     libucrt:lcidtoname_downlevel.obj
 0002:0000489c       ??_C@_1M@FFFIGIGK@?$AAb?$AAg?$AA?9?$AAB?$AAG@ 1002489c     libucrt:lcidtoname_downlevel.obj
 0002:000048a8       ??_C@_1M@BJNKEDC@?$AAc?$AAa?$AA?9?$AAE?$AAS@ 100248a8     libucrt:lcidtoname_downlevel.obj
 0002:000048b4       ??_C@_1M@IJJHFJHA@?$AAc?$AAs?$AA?9?$AAC?$AAZ@ 100248b4     libucrt:lcidtoname_downlevel.obj
 0002:000048c0       ??_C@_1M@CLPEOBGI@?$AAd?$AAa?$AA?9?$AAD?$AAK@ 100248c0     libucrt:lcidtoname_downlevel.obj
 0002:000048cc       ??_C@_1M@MCMADGCB@?$AAd?$AAe?$AA?9?$AAD?$AAE@ 100248cc     libucrt:lcidtoname_downlevel.obj
 0002:000048d8       ??_C@_1M@OOCKEMAM@?$AAe?$AAl?$AA?9?$AAG?$AAR@ 100248d8     libucrt:lcidtoname_downlevel.obj
 0002:000048e4       ??_C@_1M@DDNJFGID@?$AAf?$AAi?$AA?9?$AAF?$AAI@ 100248e4     libucrt:lcidtoname_downlevel.obj
 0002:000048f0       ??_C@_1M@GLIPPMAC@?$AAf?$AAr?$AA?9?$AAF?$AAR@ 100248f0     libucrt:lcidtoname_downlevel.obj
 0002:000048fc       ??_C@_1M@GFMCHPE@?$AAh?$AAe?$AA?9?$AAI?$AAL@ 100248fc     libucrt:lcidtoname_downlevel.obj
 0002:00004908       ??_C@_1M@MHLPGNKM@?$AAh?$AAu?$AA?9?$AAH?$AAU@ 10024908     libucrt:lcidtoname_downlevel.obj
 0002:00004914       ??_C@_1M@LPDDNNPN@?$AAi?$AAs?$AA?9?$AAI?$AAS@ 10024914     libucrt:lcidtoname_downlevel.obj
 0002:00004920       ??_C@_1M@MADIPODN@?$AAi?$AAt?$AA?9?$AAI?$AAT@ 10024920     libucrt:lcidtoname_downlevel.obj
 0002:0000492c       ??_C@_1M@IHBJJGG@?$AAn?$AAl?$AA?9?$AAN?$AAL@ 1002492c     libucrt:lcidtoname_downlevel.obj
 0002:00004938       ??_C@_1M@EANAGDL@?$AAn?$AAb?$AA?9?$AAN?$AAO@ 10024938     libucrt:lcidtoname_downlevel.obj
 0002:00004944       ??_C@_1M@NEIEMEGP@?$AAp?$AAl?$AA?9?$AAP?$AAL@ 10024944     libucrt:lcidtoname_downlevel.obj
 0002:00004950       ??_C@_1M@BOCFIGEP@?$AAp?$AAt?$AA?9?$AAB?$AAR@ 10024950     libucrt:lcidtoname_downlevel.obj
 0002:0000495c       ??_C@_1M@IMPFOPBG@?$AAr?$AAo?$AA?9?$AAR?$AAO@ 1002495c     libucrt:lcidtoname_downlevel.obj
 0002:00004968       ??_C@_1M@IDNNEJMM@?$AAr?$AAu?$AA?9?$AAR?$AAU@ 10024968     libucrt:lcidtoname_downlevel.obj
 0002:00004974       ??_C@_1M@LILEEOGM@?$AAh?$AAr?$AA?9?$AAH?$AAR@ 10024974     libucrt:lcidtoname_downlevel.obj
 0002:00004980       ??_C@_1M@FKIFEHPB@?$AAs?$AAk?$AA?9?$AAS?$AAK@ 10024980     libucrt:lcidtoname_downlevel.obj
 0002:0000498c       ??_C@_1M@LJMAMNPJ@?$AAs?$AAq?$AA?9?$AAA?$AAL@ 1002498c     libucrt:lcidtoname_downlevel.obj
 0002:00004998       ??_C@_1M@GIAKDKJK@?$AAs?$AAv?$AA?9?$AAS?$AAE@ 10024998     libucrt:lcidtoname_downlevel.obj
 0002:000049a4       ??_C@_1M@MKJKIKCL@?$AAt?$AAh?$AA?9?$AAT?$AAH@ 100249a4     libucrt:lcidtoname_downlevel.obj
 0002:000049b0       ??_C@_1M@MFLCCMPB@?$AAt?$AAr?$AA?9?$AAT?$AAR@ 100249b0     libucrt:lcidtoname_downlevel.obj
 0002:000049bc       ??_C@_1M@OIJHDKJN@?$AAu?$AAr?$AA?9?$AAP?$AAK@ 100249bc     libucrt:lcidtoname_downlevel.obj
 0002:000049c8       ??_C@_1M@LHIPCIEK@?$AAi?$AAd?$AA?9?$AAI?$AAD@ 100249c8     libucrt:lcidtoname_downlevel.obj
 0002:000049d4       ??_C@_1M@MFMOBGI@?$AAu?$AAk?$AA?9?$AAU?$AAA@ 100249d4     libucrt:lcidtoname_downlevel.obj
 0002:000049e0       ??_C@_1M@OBGLJIPL@?$AAb?$AAe?$AA?9?$AAB?$AAY@ 100249e0     libucrt:lcidtoname_downlevel.obj
 0002:000049ec       ??_C@_1M@BCFAJEAD@?$AAs?$AAl?$AA?9?$AAS?$AAI@ 100249ec     libucrt:lcidtoname_downlevel.obj
 0002:000049f8       ??_C@_1M@FKFFEDDN@?$AAe?$AAt?$AA?9?$AAE?$AAE@ 100249f8     libucrt:lcidtoname_downlevel.obj
 0002:00004a04       ??_C@_1M@KGKKAACI@?$AAl?$AAv?$AA?9?$AAL?$AAV@ 10024a04     libucrt:lcidtoname_downlevel.obj
 0002:00004a10       ??_C@_1M@IFGBIJO@?$AAl?$AAt?$AA?9?$AAL?$AAT@ 10024a10     libucrt:lcidtoname_downlevel.obj
 0002:00004a1c       ??_C@_1M@FGEAHEDM@?$AAf?$AAa?$AA?9?$AAI?$AAR@ 10024a1c     libucrt:lcidtoname_downlevel.obj
 0002:00004a28       ??_C@_1M@KBMAIBFN@?$AAv?$AAi?$AA?9?$AAV?$AAN@ 10024a28     libucrt:lcidtoname_downlevel.obj
 0002:00004a34       ??_C@_1M@GPCBKDJK@?$AAh?$AAy?$AA?9?$AAA?$AAM@ 10024a34     libucrt:lcidtoname_downlevel.obj
 0002:00004a40       ??_C@_1BG@BECMDDJB@?$AAa?$AAz?$AA?9?$AAA?$AAZ?$AA?9?$AAL?$AAa?$AAt?$AAn@ 10024a40     libucrt:lcidtoname_downlevel.obj
 0002:00004a58       ??_C@_1M@MAOFCAEA@?$AAe?$AAu?$AA?9?$AAE?$AAS@ 10024a58     libucrt:lcidtoname_downlevel.obj
 0002:00004a64       ??_C@_1M@IGHABKPI@?$AAm?$AAk?$AA?9?$AAM?$AAK@ 10024a64     libucrt:lcidtoname_downlevel.obj
 0002:00004a70       ??_C@_1M@IAIGNEJG@?$AAt?$AAn?$AA?9?$AAZ?$AAA@ 10024a70     libucrt:lcidtoname_downlevel.obj
 0002:00004a7c       ??_C@_1M@IIJCOJFA@?$AAx?$AAh?$AA?9?$AAZ?$AAA@ 10024a7c     libucrt:lcidtoname_downlevel.obj
 0002:00004a88       ??_C@_1M@LGPJHNJH@?$AAz?$AAu?$AA?9?$AAZ?$AAA@ 10024a88     libucrt:lcidtoname_downlevel.obj
 0002:00004a94       ??_C@_1M@HOKAOIO@?$AAa?$AAf?$AA?9?$AAZ?$AAA@ 10024a94     libucrt:lcidtoname_downlevel.obj
 0002:00004aa0       ??_C@_1M@DPCLHLIE@?$AAk?$AAa?$AA?9?$AAG?$AAE@ 10024aa0     libucrt:lcidtoname_downlevel.obj
 0002:00004aac       ??_C@_1M@BLKMHJBI@?$AAf?$AAo?$AA?9?$AAF?$AAO@ 10024aac     libucrt:lcidtoname_downlevel.obj
 0002:00004ab8       ??_C@_1M@LGGJAPPB@?$AAh?$AAi?$AA?9?$AAI?$AAN@ 10024ab8     libucrt:lcidtoname_downlevel.obj
 0002:00004ac4       ??_C@_1M@FIKPIHFE@?$AAm?$AAt?$AA?9?$AAM?$AAT@ 10024ac4     libucrt:lcidtoname_downlevel.obj
 0002:00004ad0       ??_C@_1M@HEGGPBFA@?$AAs?$AAe?$AA?9?$AAN?$AAO@ 10024ad0     libucrt:lcidtoname_downlevel.obj
 0002:00004adc       ??_C@_1M@EIBJEEPA@?$AAm?$AAs?$AA?9?$AAM?$AAY@ 10024adc     libucrt:lcidtoname_downlevel.obj
 0002:00004ae8       ??_C@_1M@FHLBGMPP@?$AAk?$AAk?$AA?9?$AAK?$AAZ@ 10024ae8     libucrt:lcidtoname_downlevel.obj
 0002:00004af4       ??_C@_1M@NGJJLCGI@?$AAk?$AAy?$AA?9?$AAK?$AAG@ 10024af4     libucrt:lcidtoname_downlevel.obj
 0002:00004b00       ??_C@_1M@GIENNBFC@?$AAs?$AAw?$AA?9?$AAK?$AAE@ 10024b00     libucrt:lcidtoname_downlevel.obj
 0002:00004b0c       ??_C@_1BG@NDGMJIMJ@?$AAu?$AAz?$AA?9?$AAU?$AAZ?$AA?9?$AAL?$AAa?$AAt?$AAn@ 10024b0c     libucrt:lcidtoname_downlevel.obj
 0002:00004b24       ??_C@_1M@IDCCIHBC@?$AAt?$AAt?$AA?9?$AAR?$AAU@ 10024b24     libucrt:lcidtoname_downlevel.obj
 0002:00004b30       ??_C@_1M@LOICPMOJ@?$AAb?$AAn?$AA?9?$AAI?$AAN@ 10024b30     libucrt:lcidtoname_downlevel.obj
 0002:00004b3c       ??_C@_1M@KPKKNEAH@?$AAp?$AAa?$AA?9?$AAI?$AAN@ 10024b3c     libucrt:lcidtoname_downlevel.obj
 0002:00004b48       ??_C@_1M@PJGPPBOG@?$AAg?$AAu?$AA?9?$AAI?$AAN@ 10024b48     libucrt:lcidtoname_downlevel.obj
 0002:00004b54       ??_C@_1M@KMKMOPHI@?$AAt?$AAa?$AA?9?$AAI?$AAN@ 10024b54     libucrt:lcidtoname_downlevel.obj
 0002:00004b60       ??_C@_1M@KFEHEPAC@?$AAt?$AAe?$AA?9?$AAI?$AAN@ 10024b60     libucrt:lcidtoname_downlevel.obj
 0002:00004b6c       ??_C@_1M@CDCLMGHI@?$AAk?$AAn?$AA?9?$AAI?$AAN@ 10024b6c     libucrt:lcidtoname_downlevel.obj
 0002:00004b78       ??_C@_1M@MIODLDKF@?$AAm?$AAl?$AA?9?$AAI?$AAN@ 10024b78     libucrt:lcidtoname_downlevel.obj
 0002:00004b84       ??_C@_1M@PBIEACPO@?$AAm?$AAr?$AA?9?$AAI?$AAN@ 10024b84     libucrt:lcidtoname_downlevel.obj
 0002:00004b90       ??_C@_1M@NIDEAGPH@?$AAs?$AAa?$AA?9?$AAI?$AAN@ 10024b90     libucrt:lcidtoname_downlevel.obj
 0002:00004b9c       ??_C@_1M@FHIHCBIO@?$AAm?$AAn?$AA?9?$AAM?$AAN@ 10024b9c     libucrt:lcidtoname_downlevel.obj
 0002:00004ba8       ??_C@_1M@JAIJPENP@?$AAc?$AAy?$AA?9?$AAG?$AAB@ 10024ba8     libucrt:lcidtoname_downlevel.obj
 0002:00004bb4       ??_C@_1M@PHGFBEPN@?$AAg?$AAl?$AA?9?$AAE?$AAS@ 10024bb4     libucrt:lcidtoname_downlevel.obj
 0002:00004bc0       ??_C@_1O@KPIPDNCP@?$AAk?$AAo?$AAk?$AA?9?$AAI?$AAN@ 10024bc0     libucrt:lcidtoname_downlevel.obj
 0002:00004bd0       ??_C@_1O@KNHJLDJA@?$AAs?$AAy?$AAr?$AA?9?$AAS?$AAY@ 10024bd0     libucrt:lcidtoname_downlevel.obj
 0002:00004be0       ??_C@_1O@MKEKBLAH@?$AAd?$AAi?$AAv?$AA?9?$AAM?$AAV@ 10024be0     libucrt:lcidtoname_downlevel.obj
 0002:00004bf0       ??_C@_1O@OHDCKDDF@?$AAq?$AAu?$AAz?$AA?9?$AAB?$AAO@ 10024bf0     libucrt:lcidtoname_downlevel.obj
 0002:00004c00       ??_C@_1M@LEPJNLFD@?$AAn?$AAs?$AA?9?$AAZ?$AAA@ 10024c00     libucrt:lcidtoname_downlevel.obj
 0002:00004c0c       ??_C@_1M@OMLEIIJB@?$AAm?$AAi?$AA?9?$AAN?$AAZ@ 10024c0c     libucrt:lcidtoname_downlevel.obj
 0002:00004c18       ??_C@_1M@PMPEAILG@?$AAa?$AAr?$AA?9?$AAI?$AAQ@ 10024c18     libucrt:lcidtoname_downlevel.obj
 0002:00004c24       ??_C@_1M@CNKPNOEE@?$AAd?$AAe?$AA?9?$AAC?$AAH@ 10024c24     libucrt:lcidtoname_downlevel.obj
 0002:00004c30       ??_C@_1M@LKMGMLKO@?$AAe?$AAn?$AA?9?$AAG?$AAB@ 10024c30     libucrt:lcidtoname_downlevel.obj
 0002:00004c3c       ??_C@_1M@PGKJFFGL@?$AAe?$AAs?$AA?9?$AAM?$AAX@ 10024c3c     libucrt:lcidtoname_downlevel.obj
 0002:00004c48       ??_C@_1M@DNNANBDC@?$AAf?$AAr?$AA?9?$AAB?$AAE@ 10024c48     libucrt:lcidtoname_downlevel.obj
 0002:00004c54       ??_C@_1M@HLGMDFHM@?$AAi?$AAt?$AA?9?$AAC?$AAH@ 10024c54     libucrt:lcidtoname_downlevel.obj
 0002:00004c60       ??_C@_1M@CLLBGJH@?$AAn?$AAl?$AA?9?$AAB?$AAE@ 10024c60     libucrt:lcidtoname_downlevel.obj
 0002:00004c6c       ??_C@_1M@BODBOGLF@?$AAn?$AAn?$AA?9?$AAN?$AAO@ 10024c6c     libucrt:lcidtoname_downlevel.obj
 0002:00004c78       ??_C@_1M@HFFAHKAD@?$AAp?$AAt?$AA?9?$AAP?$AAT@ 10024c78     libucrt:lcidtoname_downlevel.obj
 0002:00004c84       ??_C@_1BG@LNOAKHIE@?$AAs?$AAr?$AA?9?$AAS?$AAP?$AA?9?$AAL?$AAa?$AAt?$AAn@ 10024c84     libucrt:lcidtoname_downlevel.obj
 0002:00004c9c       ??_C@_1M@HBMHBGAK@?$AAs?$AAv?$AA?9?$AAF?$AAI@ 10024c9c     libucrt:lcidtoname_downlevel.obj
 0002:00004ca8       ??_C@_1BG@DGCJGJBE@?$AAa?$AAz?$AA?9?$AAA?$AAZ?$AA?9?$AAC?$AAy?$AAr?$AAl@ 10024ca8     libucrt:lcidtoname_downlevel.obj
 0002:00004cc0       ??_C@_1M@KEJDAAHB@?$AAs?$AAe?$AA?9?$AAS?$AAE@ 10024cc0     libucrt:lcidtoname_downlevel.obj
 0002:00004ccc       ??_C@_1M@HEIBJJAD@?$AAm?$AAs?$AA?9?$AAB?$AAN@ 10024ccc     libucrt:lcidtoname_downlevel.obj
 0002:00004cd8       ??_C@_1BG@PBGJMCEM@?$AAu?$AAz?$AA?9?$AAU?$AAZ?$AA?9?$AAC?$AAy?$AAr?$AAl@ 10024cd8     libucrt:lcidtoname_downlevel.obj
 0002:00004cf0       ??_C@_1O@LAOBCMDF@?$AAq?$AAu?$AAz?$AA?9?$AAE?$AAC@ 10024cf0     libucrt:lcidtoname_downlevel.obj
 0002:00004d00       ??_C@_1M@POEEMAIO@?$AAa?$AAr?$AA?9?$AAE?$AAG@ 10024d00     libucrt:lcidtoname_downlevel.obj
 0002:00004d0c       ??_C@_1M@EFAKDEDL@?$AAz?$AAh?$AA?9?$AAH?$AAK@ 10024d0c     libucrt:lcidtoname_downlevel.obj
 0002:00004d18       ??_C@_1M@HKKIJHGI@?$AAd?$AAe?$AA?9?$AAA?$AAT@ 10024d18     libucrt:lcidtoname_downlevel.obj
 0002:00004d24       ??_C@_1M@KBFBEHJF@?$AAe?$AAn?$AA?9?$AAA?$AAU@ 10024d24     libucrt:lcidtoname_downlevel.obj
 0002:00004d30       ??_C@_1M@MNPLFAAH@?$AAe?$AAs?$AA?9?$AAE?$AAS@ 10024d30     libucrt:lcidtoname_downlevel.obj
 0002:00004d3c       ??_C@_1M@HJOOJFMA@?$AAf?$AAr?$AA?9?$AAC?$AAA@ 10024d3c     libucrt:lcidtoname_downlevel.obj
 0002:00004d48       ??_C@_1BG@JPOFPNAB@?$AAs?$AAr?$AA?9?$AAS?$AAP?$AA?9?$AAC?$AAy?$AAr?$AAl@ 10024d48     libucrt:lcidtoname_downlevel.obj
 0002:00004d60       ??_C@_1M@LNFOCMOB@?$AAs?$AAe?$AA?9?$AAF?$AAI@ 10024d60     libucrt:lcidtoname_downlevel.obj
 0002:00004d6c       ??_C@_1O@MGJBOAMB@?$AAq?$AAu?$AAz?$AA?9?$AAP?$AAE@ 10024d6c     libucrt:lcidtoname_downlevel.obj
 0002:00004d7c       ??_C@_1M@GJINLBOK@?$AAa?$AAr?$AA?9?$AAL?$AAY@ 10024d7c     libucrt:lcidtoname_downlevel.obj
 0002:00004d88       ??_C@_1M@GGMNHJNL@?$AAz?$AAh?$AA?9?$AAS?$AAG@ 10024d88     libucrt:lcidtoname_downlevel.obj
 0002:00004d94       ??_C@_1M@HOIKODND@?$AAd?$AAe?$AA?9?$AAL?$AAU@ 10024d94     libucrt:lcidtoname_downlevel.obj
 0002:00004da0       ??_C@_1M@DDOCCGFG@?$AAe?$AAn?$AA?9?$AAC?$AAA@ 10024da0     libucrt:lcidtoname_downlevel.obj
 0002:00004dac       ??_C@_1M@BNOEMJLF@?$AAe?$AAs?$AA?9?$AAG?$AAT@ 10024dac     libucrt:lcidtoname_downlevel.obj
 0002:00004db8       ??_C@_1M@EOGNKEK@?$AAf?$AAr?$AA?9?$AAC?$AAH@ 10024db8     libucrt:lcidtoname_downlevel.obj
 0002:00004dc4       ??_C@_1M@FLIDJFHL@?$AAh?$AAr?$AA?9?$AAB?$AAA@ 10024dc4     libucrt:lcidtoname_downlevel.obj
 0002:00004dd0       ??_C@_1O@FMCELNAJ@?$AAs?$AAm?$AAj?$AA?9?$AAN?$AAO@ 10024dd0     libucrt:lcidtoname_downlevel.obj
 0002:00004de0       ??_C@_1M@JHGLJMGJ@?$AAa?$AAr?$AA?9?$AAD?$AAZ@ 10024de0     libucrt:lcidtoname_downlevel.obj
 0002:00004dec       ??_C@_1M@JKKFDCNP@?$AAz?$AAh?$AA?9?$AAM?$AAO@ 10024dec     libucrt:lcidtoname_downlevel.obj
 0002:00004df8       ??_C@_1M@GEEFALPE@?$AAd?$AAe?$AA?9?$AAL?$AAI@ 10024df8     libucrt:lcidtoname_downlevel.obj
 0002:00004e04       ??_C@_1M@IGEOFBG@?$AAe?$AAn?$AA?9?$AAN?$AAZ@ 10024e04     libucrt:lcidtoname_downlevel.obj
 0002:00004e10       ??_C@_1M@KDBONEHP@?$AAe?$AAs?$AA?9?$AAC?$AAR@ 10024e10     libucrt:lcidtoname_downlevel.obj
 0002:00004e1c       ??_C@_1M@FHMDOHNN@?$AAf?$AAr?$AA?9?$AAL?$AAU@ 10024e1c     libucrt:lcidtoname_downlevel.obj
 0002:00004e28       ??_C@_1BG@NFKKMAFG@?$AAb?$AAs?$AA?9?$AAB?$AAA?$AA?9?$AAL?$AAa?$AAt?$AAn@ 10024e28     libucrt:lcidtoname_downlevel.obj
 0002:00004e40       ??_C@_1O@IMNBEMCI@?$AAs?$AAm?$AAj?$AA?9?$AAS?$AAE@ 10024e40     libucrt:lcidtoname_downlevel.obj
 0002:00004e50       ??_C@_1M@DHHMBNDP@?$AAa?$AAr?$AA?9?$AAM?$AAA@ 10024e50     libucrt:lcidtoname_downlevel.obj
 0002:00004e5c       ??_C@_1M@BNBLJCGH@?$AAe?$AAn?$AA?9?$AAI?$AAE@ 10024e5c     libucrt:lcidtoname_downlevel.obj
 0002:00004e68       ??_C@_1M@GEPAFMDL@?$AAe?$AAs?$AA?9?$AAP?$AAA@ 10024e68     libucrt:lcidtoname_downlevel.obj
 0002:00004e74       ??_C@_1M@OJONDMDL@?$AAf?$AAr?$AA?9?$AAM?$AAC@ 10024e74     libucrt:lcidtoname_downlevel.obj
 0002:00004e80       ??_C@_1BG@OBCNFJB@?$AAs?$AAr?$AA?9?$AAB?$AAA?$AA?9?$AAL?$AAa?$AAt?$AAn@ 10024e80     libucrt:lcidtoname_downlevel.obj
 0002:00004e98       ??_C@_1O@KEMEEGPO@?$AAs?$AAm?$AAa?$AA?9?$AAN?$AAO@ 10024e98     libucrt:lcidtoname_downlevel.obj
 0002:00004ea8       ??_C@_1M@ELMGFODK@?$AAa?$AAr?$AA?9?$AAT?$AAN@ 10024ea8     libucrt:lcidtoname_downlevel.obj
 0002:00004eb4       ??_C@_1M@BHDLHFAF@?$AAe?$AAn?$AA?9?$AAZ?$AAA@ 10024eb4     libucrt:lcidtoname_downlevel.obj
 0002:00004ec0       ??_C@_1M@BMGIGLIF@?$AAe?$AAs?$AA?9?$AAD?$AAO@ 10024ec0     libucrt:lcidtoname_downlevel.obj
 0002:00004ecc       ??_C@_1BG@CMBHIPBE@?$AAs?$AAr?$AA?9?$AAB?$AAA?$AA?9?$AAC?$AAy?$AAr?$AAl@ 10024ecc     libucrt:lcidtoname_downlevel.obj
 0002:00004ee4       ??_C@_1O@HEDBLHNP@?$AAs?$AAm?$AAa?$AA?9?$AAS?$AAE@ 10024ee4     libucrt:lcidtoname_downlevel.obj
 0002:00004ef4       ??_C@_1M@DAGCADIM@?$AAa?$AAr?$AA?9?$AAO?$AAM@ 10024ef4     libucrt:lcidtoname_downlevel.obj
 0002:00004f00       ??_C@_1M@FODLMICG@?$AAe?$AAn?$AA?9?$AAJ?$AAM@ 10024f00     libucrt:lcidtoname_downlevel.obj
 0002:00004f0c       ??_C@_1M@DNMLCIHB@?$AAe?$AAs?$AA?9?$AAV?$AAE@ 10024f0c     libucrt:lcidtoname_downlevel.obj
 0002:00004f18       ??_C@_1O@EOKHMKJK@?$AAs?$AAm?$AAs?$AA?9?$AAF?$AAI@ 10024f18     libucrt:lcidtoname_downlevel.obj
 0002:00004f28       ??_C@_1M@CAFJMKOF@?$AAa?$AAr?$AA?9?$AAY?$AAE@ 10024f28     libucrt:lcidtoname_downlevel.obj
 0002:00004f34       ??_C@_1M@CBFHIJLI@?$AAe?$AAn?$AA?9?$AAC?$AAB@ 10024f34     libucrt:lcidtoname_downlevel.obj
 0002:00004f40       ??_C@_1M@BGNFLDN@?$AAe?$AAs?$AA?9?$AAC?$AAO@ 10024f40     libucrt:lcidtoname_downlevel.obj
 0002:00004f4c       ??_C@_1O@JMPHMAMC@?$AAs?$AAm?$AAn?$AA?9?$AAF?$AAI@ 10024f4c     libucrt:lcidtoname_downlevel.obj
 0002:00004f5c       ??_C@_1M@JLANABKE@?$AAa?$AAr?$AA?9?$AAS?$AAY@ 10024f5c     libucrt:lcidtoname_downlevel.obj
 0002:00004f68       ??_C@_1M@HPKGCFGN@?$AAe?$AAn?$AA?9?$AAB?$AAZ@ 10024f68     libucrt:lcidtoname_downlevel.obj
 0002:00004f74       ??_C@_1M@OLJCMLGM@?$AAe?$AAs?$AA?9?$AAP?$AAE@ 10024f74     libucrt:lcidtoname_downlevel.obj
 0002:00004f80       ??_C@_1M@MKKGFKLE@?$AAa?$AAr?$AA?9?$AAJ?$AAO@ 10024f80     libucrt:lcidtoname_downlevel.obj
 0002:00004f8c       ??_C@_1M@EKPGLDNI@?$AAe?$AAn?$AA?9?$AAT?$AAT@ 10024f8c     libucrt:lcidtoname_downlevel.obj
 0002:00004f98       ??_C@_1M@OONGHFHE@?$AAe?$AAs?$AA?9?$AAA?$AAR@ 10024f98     libucrt:lcidtoname_downlevel.obj
 0002:00004fa4       ??_C@_1M@OOJFGBHE@?$AAa?$AAr?$AA?9?$AAL?$AAB@ 10024fa4     libucrt:lcidtoname_downlevel.obj
 0002:00004fb0       ??_C@_1M@GCEJHNEG@?$AAe?$AAn?$AA?9?$AAZ?$AAW@ 10024fb0     libucrt:lcidtoname_downlevel.obj
 0002:00004fbc       ??_C@_1M@JNOCAHJI@?$AAe?$AAs?$AA?9?$AAE?$AAC@ 10024fbc     libucrt:lcidtoname_downlevel.obj
 0002:00004fc8       ??_C@_1M@JEFHPGGB@?$AAa?$AAr?$AA?9?$AAK?$AAW@ 10024fc8     libucrt:lcidtoname_downlevel.obj
 0002:00004fd4       ??_C@_1M@MLKIBJOJ@?$AAe?$AAn?$AA?9?$AAP?$AAH@ 10024fd4     libucrt:lcidtoname_downlevel.obj
 0002:00004fe0       ??_C@_1M@BDNIPEND@?$AAe?$AAs?$AA?9?$AAC?$AAL@ 10024fe0     libucrt:lcidtoname_downlevel.obj
 0002:00004fec       ??_C@_1M@MPNMEKBD@?$AAa?$AAr?$AA?9?$AAA?$AAE@ 10024fec     libucrt:lcidtoname_downlevel.obj
 0002:00004ff8       ??_C@_1M@KBJALCPI@?$AAe?$AAs?$AA?9?$AAU?$AAY@ 10024ff8     libucrt:lcidtoname_downlevel.obj
 0002:00005004       ??_C@_1M@LLCCOAGA@?$AAa?$AAr?$AA?9?$AAB?$AAH@ 10025004     libucrt:lcidtoname_downlevel.obj
 0002:00005010       ??_C@_1M@PBFNCDEL@?$AAe?$AAs?$AA?9?$AAP?$AAY@ 10025010     libucrt:lcidtoname_downlevel.obj
 0002:0000501c       ??_C@_1M@EDGINPNP@?$AAa?$AAr?$AA?9?$AAQ?$AAA@ 1002501c     libucrt:lcidtoname_downlevel.obj
 0002:00005028       ??_C@_1M@MKDBIIJI@?$AAe?$AAs?$AA?9?$AAB?$AAO@ 10025028     libucrt:lcidtoname_downlevel.obj
 0002:00005034       ??_C@_1M@CPKKEBLD@?$AAe?$AAs?$AA?9?$AAS?$AAV@ 10025034     libucrt:lcidtoname_downlevel.obj
 0002:00005040       ??_C@_1M@NDBGMMJL@?$AAe?$AAs?$AA?9?$AAH?$AAN@ 10025040     libucrt:lcidtoname_downlevel.obj
 0002:0000504c       ??_C@_1M@JIJIBHDP@?$AAe?$AAs?$AA?9?$AAN?$AAI@ 1002504c     libucrt:lcidtoname_downlevel.obj
 0002:00005058       ??_C@_1M@CGFMKEEK@?$AAe?$AAs?$AA?9?$AAP?$AAR@ 10025058     libucrt:lcidtoname_downlevel.obj
 0002:00005064       ??_C@_1O@ICJHKIIK@?$AAz?$AAh?$AA?9?$AAC?$AAH?$AAT@ 10025064     libucrt:lcidtoname_downlevel.obj
 0002:00005074       ??_C@_15CLNEJCE@?$AAs?$AAr@ 10025074     libucrt:lcidtoname_downlevel.obj
 0002:000057a0       ??_C@_1M@KAHEKEIG@?$AAa?$AAf?$AA?9?$AAz?$AAa@ 100257a0     libucrt:lcidtoname_downlevel.obj
 0002:000057ac       ??_C@_1M@GIECOABL@?$AAa?$AAr?$AA?9?$AAa?$AAe@ 100257ac     libucrt:lcidtoname_downlevel.obj
 0002:000057b8       ??_C@_1M@BMLMEKGI@?$AAa?$AAr?$AA?9?$AAb?$AAh@ 100257b8     libucrt:lcidtoname_downlevel.obj
 0002:000057c4       ??_C@_1M@DAPFDGGB@?$AAa?$AAr?$AA?9?$AAd?$AAz@ 100257c4     libucrt:lcidtoname_downlevel.obj
 0002:000057d0       ??_C@_1M@FJNKGKIG@?$AAa?$AAr?$AA?9?$AAe?$AAg@ 100257d0     libucrt:lcidtoname_downlevel.obj
 0002:000057dc       ??_C@_1M@FLGKKCLO@?$AAa?$AAr?$AA?9?$AAi?$AAq@ 100257dc     libucrt:lcidtoname_downlevel.obj
 0002:000057e8       ??_C@_1M@GNDIPALM@?$AAa?$AAr?$AA?9?$AAj?$AAo@ 100257e8     libucrt:lcidtoname_downlevel.obj
 0002:000057f4       ??_C@_1M@DDMJFMGJ@?$AAa?$AAr?$AA?9?$AAk?$AAw@ 100257f4     libucrt:lcidtoname_downlevel.obj
 0002:00005800       ??_C@_1M@EJALMLHM@?$AAa?$AAr?$AA?9?$AAl?$AAb@ 10025800     libucrt:lcidtoname_downlevel.obj
 0002:0000580c       ??_C@_1M@MOBDBLOC@?$AAa?$AAr?$AA?9?$AAl?$AAy@ 1002580c     libucrt:lcidtoname_downlevel.obj
 0002:00005818       ??_C@_1M@JAOCLHDH@?$AAa?$AAr?$AA?9?$AAm?$AAa@ 10025818     libucrt:lcidtoname_downlevel.obj
 0002:00005824       ??_C@_1M@JHPMKJIE@?$AAa?$AAr?$AA?9?$AAo?$AAm@ 10025824     libucrt:lcidtoname_downlevel.obj
 0002:00005830       ??_C@_1M@OEPGHFNH@?$AAa?$AAr?$AA?9?$AAq?$AAa@ 10025830     libucrt:lcidtoname_downlevel.obj
 0002:0000583c       ??_C@_1M@KJDONENM@?$AAa?$AAr?$AA?9?$AAs?$AAa@ 1002583c     libucrt:lcidtoname_downlevel.obj
 0002:00005848       ??_C@_1M@DMJDKLKM@?$AAa?$AAr?$AA?9?$AAs?$AAy@ 10025848     libucrt:lcidtoname_downlevel.obj
 0002:00005854       ??_C@_1M@OMFIPEDC@?$AAa?$AAr?$AA?9?$AAt?$AAn@ 10025854     libucrt:lcidtoname_downlevel.obj
 0002:00005860       ??_C@_1M@IHMHGAON@?$AAa?$AAr?$AA?9?$AAy?$AAe@ 10025860     libucrt:lcidtoname_downlevel.obj
 0002:0000586c       ??_C@_1BG@KDCPGJGB@?$AAa?$AAz?$AA?9?$AAa?$AAz?$AA?9?$AAc?$AAy?$AAr?$AAl@ 1002586c     libucrt:lcidtoname_downlevel.obj
 0002:00005884       ??_C@_1BG@IBCKDDOE@?$AAa?$AAz?$AA?9?$AAa?$AAz?$AA?9?$AAl?$AAa?$AAt?$AAn@ 10025884     libucrt:lcidtoname_downlevel.obj
 0002:0000589c       ??_C@_1M@EGPFDCPD@?$AAb?$AAe?$AA?9?$AAb?$AAy@ 1002589c     libucrt:lcidtoname_downlevel.obj
 0002:000058a8       ??_C@_1M@PCMGMCGC@?$AAb?$AAg?$AA?9?$AAb?$AAg@ 100258a8     libucrt:lcidtoname_downlevel.obj
 0002:000058b4       ??_C@_1M@BJBMFGOB@?$AAb?$AAn?$AA?9?$AAi?$AAn@ 100258b4     libucrt:lcidtoname_downlevel.obj
 0002:000058c0       ??_C@_1BG@EAKMMACD@?$AAb?$AAs?$AA?9?$AAb?$AAa?$AA?9?$AAl?$AAa?$AAt?$AAn@ 100258c0     libucrt:lcidtoname_downlevel.obj
 0002:000058d8       ??_C@_1M@KGADAODK@?$AAc?$AAa?$AA?9?$AAe?$AAs@ 100258d8     libucrt:lcidtoname_downlevel.obj
 0002:000058e4       ??_C@_1M@COAJPDHI@?$AAc?$AAs?$AA?9?$AAc?$AAz@ 100258e4     libucrt:lcidtoname_downlevel.obj
 0002:000058f0       ??_C@_1M@DHBHFONH@?$AAc?$AAy?$AA?9?$AAg?$AAb@ 100258f0     libucrt:lcidtoname_downlevel.obj
 0002:000058fc       ??_C@_1M@IMGKELGA@?$AAd?$AAa?$AA?9?$AAd?$AAk@ 100258fc     libucrt:lcidtoname_downlevel.obj
 0002:00005908       ??_C@_1M@NNDGDNGA@?$AAd?$AAe?$AA?9?$AAa?$AAt@ 10025908     libucrt:lcidtoname_downlevel.obj
 0002:00005914       ??_C@_1M@IKDBHEEM@?$AAd?$AAe?$AA?9?$AAc?$AAh@ 10025914     libucrt:lcidtoname_downlevel.obj
 0002:00005920       ??_C@_1M@GFFOJMCJ@?$AAd?$AAe?$AA?9?$AAd?$AAe@ 10025920     libucrt:lcidtoname_downlevel.obj
 0002:0000592c       ??_C@_1M@MDNLKBPM@?$AAd?$AAe?$AA?9?$AAl?$AAi@ 1002592c     libucrt:lcidtoname_downlevel.obj
 0002:00005938       ??_C@_1M@NJBEEJNL@?$AAd?$AAe?$AA?9?$AAl?$AAu@ 10025938     libucrt:lcidtoname_downlevel.obj
 0002:00005944       ??_C@_1O@GNNELBAP@?$AAd?$AAi?$AAv?$AA?9?$AAm?$AAv@ 10025944     libucrt:lcidtoname_downlevel.obj
 0002:00005954       ??_C@_1M@EJLEOGAE@?$AAe?$AAl?$AA?9?$AAg?$AAr@ 10025954     libucrt:lcidtoname_downlevel.obj
 0002:00005960       ??_C@_1M@GMPONJN@?$AAe?$AAn?$AA?9?$AAa?$AAu@ 10025960     libucrt:lcidtoname_downlevel.obj
 0002:0000596c       ??_C@_1M@NIDIIPGF@?$AAe?$AAn?$AA?9?$AAb?$AAz@ 1002596c     libucrt:lcidtoname_downlevel.obj
 0002:00005978       ??_C@_1M@JEHMIMFO@?$AAe?$AAn?$AA?9?$AAc?$AAa@ 10025978     libucrt:lcidtoname_downlevel.obj
 0002:00005984       ??_C@_1M@IGMJCDLA@?$AAe?$AAn?$AA?9?$AAc?$AAb@ 10025984     libucrt:lcidtoname_downlevel.obj
 0002:00005990       ??_C@_1M@BNFIGBKG@?$AAe?$AAn?$AA?9?$AAg?$AAb@ 10025990     libucrt:lcidtoname_downlevel.obj
 0002:0000599c       ??_C@_1M@LKIFDIGP@?$AAe?$AAn?$AA?9?$AAi?$AAe@ 1002599c     libucrt:lcidtoname_downlevel.obj
 0002:000059a8       ??_C@_1M@PJKFGCCO@?$AAe?$AAn?$AA?9?$AAj?$AAm@ 100259a8     libucrt:lcidtoname_downlevel.obj
 0002:000059b4       ??_C@_1M@KPPKEPBO@?$AAe?$AAn?$AA?9?$AAn?$AAz@ 100259b4     libucrt:lcidtoname_downlevel.obj
 0002:000059c0       ??_C@_1M@GMDGLDOB@?$AAe?$AAn?$AA?9?$AAp?$AAh@ 100259c0     libucrt:lcidtoname_downlevel.obj
 0002:000059cc       ??_C@_1M@ONGIBJNA@?$AAe?$AAn?$AA?9?$AAt?$AAt@ 100259cc     libucrt:lcidtoname_downlevel.obj
 0002:000059d8       ??_C@_1M@LLODPCMM@?$AAe?$AAn?$AA?9?$AAu?$AAs@ 100259d8     libucrt:lcidtoname_downlevel.obj
 0002:000059e4       ??_C@_1M@LAKFNPAN@?$AAe?$AAn?$AA?9?$AAz?$AAa@ 100259e4     libucrt:lcidtoname_downlevel.obj
 0002:000059f0       ??_C@_1M@MFNHNHEO@?$AAe?$AAn?$AA?9?$AAz?$AAw@ 100259f0     libucrt:lcidtoname_downlevel.obj
 0002:000059fc       ??_C@_1M@EJEINPHM@?$AAe?$AAs?$AA?9?$AAa?$AAr@ 100259fc     libucrt:lcidtoname_downlevel.obj
 0002:00005a08       ??_C@_1M@GNKPCCJA@?$AAe?$AAs?$AA?9?$AAb?$AAo@ 10025a08     libucrt:lcidtoname_downlevel.obj
 0002:00005a14       ??_C@_1M@LEEGFONL@?$AAe?$AAs?$AA?9?$AAc?$AAl@ 10025a14     libucrt:lcidtoname_downlevel.obj
 0002:00005a20       ??_C@_1M@KGPDPBDF@?$AAe?$AAs?$AA?9?$AAc?$AAo@ 10025a20     libucrt:lcidtoname_downlevel.obj
 0002:00005a2c       ??_C@_1M@EIAHOHH@?$AAe?$AAs?$AA?9?$AAc?$AAr@ 10025a2c     libucrt:lcidtoname_downlevel.obj
 0002:00005a38       ??_C@_1M@LLPGMBIN@?$AAe?$AAs?$AA?9?$AAd?$AAo@ 10025a38     libucrt:lcidtoname_downlevel.obj
 0002:00005a44       ??_C@_1M@DKHMKNJA@?$AAe?$AAs?$AA?9?$AAe?$AAc@ 10025a44     libucrt:lcidtoname_downlevel.obj
 0002:00005a50       ??_C@_1M@GKGFPKAP@?$AAe?$AAs?$AA?9?$AAe?$AAs@ 10025a50     libucrt:lcidtoname_downlevel.obj
 0002:00005a5c       ??_C@_1M@LKHKGDLN@?$AAe?$AAs?$AA?9?$AAg?$AAt@ 10025a5c     libucrt:lcidtoname_downlevel.obj
 0002:00005a68       ??_C@_1M@HEIIGGJD@?$AAe?$AAs?$AA?9?$AAh?$AAn@ 10025a68     libucrt:lcidtoname_downlevel.obj
 0002:00005a74       ??_C@_1M@FBDHPPGD@?$AAe?$AAs?$AA?9?$AAm?$AAx@ 10025a74     libucrt:lcidtoname_downlevel.obj
 0002:00005a80       ??_C@_1M@DPAGLNDH@?$AAe?$AAs?$AA?9?$AAn?$AAi@ 10025a80     libucrt:lcidtoname_downlevel.obj
 0002:00005a8c       ??_C@_1M@MDGOPGDD@?$AAe?$AAs?$AA?9?$AAp?$AAa@ 10025a8c     libucrt:lcidtoname_downlevel.obj
 0002:00005a98       ??_C@_1M@EMAMGBGE@?$AAe?$AAs?$AA?9?$AAp?$AAe@ 10025a98     libucrt:lcidtoname_downlevel.obj
 0002:00005aa4       ??_C@_1M@IBMCAOEC@?$AAe?$AAs?$AA?9?$AAp?$AAr@ 10025aa4     libucrt:lcidtoname_downlevel.obj
 0002:00005ab0       ??_C@_1M@FGMDIJED@?$AAe?$AAs?$AA?9?$AAp?$AAy@ 10025ab0     libucrt:lcidtoname_downlevel.obj
 0002:00005abc       ??_C@_1M@IIDEOLLL@?$AAe?$AAs?$AA?9?$AAs?$AAv@ 10025abc     libucrt:lcidtoname_downlevel.obj
 0002:00005ac8       ??_C@_1M@GAOBIPA@?$AAe?$AAs?$AA?9?$AAu?$AAy@ 10025ac8     libucrt:lcidtoname_downlevel.obj
 0002:00005ad4       ??_C@_1M@JKFFICHJ@?$AAe?$AAs?$AA?9?$AAv?$AAe@ 10025ad4     libucrt:lcidtoname_downlevel.obj
 0002:00005ae0       ??_C@_1M@PNMLOJDF@?$AAe?$AAt?$AA?9?$AAe?$AAe@ 10025ae0     libucrt:lcidtoname_downlevel.obj
 0002:00005aec       ??_C@_1M@GHHLIKEI@?$AAe?$AAu?$AA?9?$AAe?$AAs@ 10025aec     libucrt:lcidtoname_downlevel.obj
 0002:00005af8       ??_C@_1M@PBNONODE@?$AAf?$AAa?$AA?9?$AAi?$AAr@ 10025af8     libucrt:lcidtoname_downlevel.obj
 0002:00005b04       ??_C@_1M@JEEHPMIL@?$AAf?$AAi?$AA?9?$AAf?$AAi@ 10025b04     libucrt:lcidtoname_downlevel.obj
 0002:00005b10       ??_C@_1M@LMDCNDBA@?$AAf?$AAo?$AA?9?$AAf?$AAo@ 10025b10     libucrt:lcidtoname_downlevel.obj
 0002:00005b1c       ??_C@_1M@JKEOHLDK@?$AAf?$AAr?$AA?9?$AAb?$AAe@ 10025b1c     libucrt:lcidtoname_downlevel.obj
 0002:00005b28       ??_C@_1M@NOHADPMI@?$AAf?$AAr?$AA?9?$AAc?$AAa@ 10025b28     libucrt:lcidtoname_downlevel.obj
 0002:00005b34       ??_C@_1M@KDHIHAEC@?$AAf?$AAr?$AA?9?$AAc?$AAh@ 10025b34     libucrt:lcidtoname_downlevel.obj
 0002:00005b40       ??_C@_1M@MMBBFGAK@?$AAf?$AAr?$AA?9?$AAf?$AAr@ 10025b40     libucrt:lcidtoname_downlevel.obj
 0002:00005b4c       ??_C@_1M@PAFNENNF@?$AAf?$AAr?$AA?9?$AAl?$AAu@ 10025b4c     libucrt:lcidtoname_downlevel.obj
 0002:00005b58       ??_C@_1M@EOHDJGDD@?$AAf?$AAr?$AA?9?$AAm?$AAc@ 10025b58     libucrt:lcidtoname_downlevel.obj
 0002:00005b64       ??_C@_1M@FAPLLOPF@?$AAg?$AAl?$AA?9?$AAe?$AAs@ 10025b64     libucrt:lcidtoname_downlevel.obj
 0002:00005b70       ??_C@_1M@FOPBFLOO@?$AAg?$AAu?$AA?9?$AAi?$AAn@ 10025b70     libucrt:lcidtoname_downlevel.obj
 0002:00005b7c       ??_C@_1M@KBMCINPM@?$AAh?$AAe?$AA?9?$AAi?$AAl@ 10025b7c     libucrt:lcidtoname_downlevel.obj
 0002:00005b88       ??_C@_1M@BBPHKFPJ@?$AAh?$AAi?$AA?9?$AAi?$AAn@ 10025b88     libucrt:lcidtoname_downlevel.obj
 0002:00005b94       ??_C@_1M@PMBNDPHD@?$AAh?$AAr?$AA?9?$AAb?$AAa@ 10025b94     libucrt:lcidtoname_downlevel.obj
 0002:00005ba0       ??_C@_1M@BPCKOEGE@?$AAh?$AAr?$AA?9?$AAh?$AAr@ 10025ba0     libucrt:lcidtoname_downlevel.obj
 0002:00005bac       ??_C@_1M@GACBMHKE@?$AAh?$AAu?$AA?9?$AAh?$AAu@ 10025bac     libucrt:lcidtoname_downlevel.obj
 0002:00005bb8       ??_C@_1M@MILPAJJC@?$AAh?$AAy?$AA?9?$AAa?$AAm@ 10025bb8     libucrt:lcidtoname_downlevel.obj
 0002:00005bc4       ??_C@_1M@BABBICEC@?$AAi?$AAd?$AA?9?$AAi?$AAd@ 10025bc4     libucrt:lcidtoname_downlevel.obj
 0002:00005bd0       ??_C@_1M@BIKNHHPF@?$AAi?$AAs?$AA?9?$AAi?$AAs@ 10025bd0     libucrt:lcidtoname_downlevel.obj
 0002:00005bdc       ??_C@_1M@NMPCJPHE@?$AAi?$AAt?$AA?9?$AAc?$AAh@ 10025bdc     libucrt:lcidtoname_downlevel.obj
 0002:00005be8       ??_C@_1M@GHKGFEDF@?$AAi?$AAt?$AA?9?$AAi?$AAt@ 10025be8     libucrt:lcidtoname_downlevel.obj
 0002:00005bf4       ??_C@_1M@NIEJCJJA@?$AAj?$AAa?$AA?9?$AAj?$AAp@ 10025bf4     libucrt:lcidtoname_downlevel.obj
 0002:00005c00       ??_C@_1M@JILFNBIM@?$AAk?$AAa?$AA?9?$AAg?$AAe@ 10025c00     libucrt:lcidtoname_downlevel.obj
 0002:00005c0c       ??_C@_1M@PACPMGPH@?$AAk?$AAk?$AA?9?$AAk?$AAz@ 10025c0c     libucrt:lcidtoname_downlevel.obj
 0002:00005c18       ??_C@_1M@IELFGMHA@?$AAk?$AAn?$AA?9?$AAi?$AAn@ 10025c18     libucrt:lcidtoname_downlevel.obj
 0002:00005c24       ??_C@_1O@IBBJHCH@?$AAk?$AAo?$AAk?$AA?9?$AAi?$AAn@ 10025c24     libucrt:lcidtoname_downlevel.obj
 0002:00005c34       ??_C@_1M@DMHAEOGC@?$AAk?$AAo?$AA?9?$AAk?$AAr@ 10025c34     libucrt:lcidtoname_downlevel.obj
 0002:00005c40       ??_C@_1M@HBAHBIGA@?$AAk?$AAy?$AA?9?$AAk?$AAg@ 10025c40     libucrt:lcidtoname_downlevel.obj
 0002:00005c4c       ??_C@_1M@KPMILCJG@?$AAl?$AAt?$AA?9?$AAl?$AAt@ 10025c4c     libucrt:lcidtoname_downlevel.obj
 0002:00005c58       ??_C@_1M@BDEKKCA@?$AAl?$AAv?$AA?9?$AAl?$AAv@ 10025c58     libucrt:lcidtoname_downlevel.obj
 0002:00005c64       ??_C@_1M@ELCKCCJJ@?$AAm?$AAi?$AA?9?$AAn?$AAz@ 10025c64     libucrt:lcidtoname_downlevel.obj
 0002:00005c70       ??_C@_1M@CBOOLAPA@?$AAm?$AAk?$AA?9?$AAm?$AAk@ 10025c70     libucrt:lcidtoname_downlevel.obj
 0002:00005c7c       ??_C@_1M@GPHNBJKN@?$AAm?$AAl?$AA?9?$AAi?$AAn@ 10025c7c     libucrt:lcidtoname_downlevel.obj
 0002:00005c88       ??_C@_1M@PABJILIG@?$AAm?$AAn?$AA?9?$AAm?$AAn@ 10025c88     libucrt:lcidtoname_downlevel.obj
 0002:00005c94       ??_C@_1M@FGBKKIPG@?$AAm?$AAr?$AA?9?$AAi?$AAn@ 10025c94     libucrt:lcidtoname_downlevel.obj
 0002:00005ca0       ??_C@_1M@NDBPDDAL@?$AAm?$AAs?$AA?9?$AAb?$AAn@ 10025ca0     libucrt:lcidtoname_downlevel.obj
 0002:00005cac       ??_C@_1M@OPIHOOPI@?$AAm?$AAs?$AA?9?$AAm?$AAy@ 10025cac     libucrt:lcidtoname_downlevel.obj
 0002:00005cb8       ??_C@_1M@PPDBCNFM@?$AAm?$AAt?$AA?9?$AAm?$AAt@ 10025cb8     libucrt:lcidtoname_downlevel.obj
 0002:00005cc4       ??_C@_1M@KDJDKMDD@?$AAn?$AAb?$AA?9?$AAn?$AAo@ 10025cc4     libucrt:lcidtoname_downlevel.obj
 0002:00005cd0       ??_C@_1M@KFCFLMJP@?$AAn?$AAl?$AA?9?$AAb?$AAe@ 10025cd0     libucrt:lcidtoname_downlevel.obj
 0002:00005cdc       ??_C@_1M@KPOPDDGO@?$AAn?$AAl?$AA?9?$AAn?$AAl@ 10025cdc     libucrt:lcidtoname_downlevel.obj
 0002:00005ce8       ??_C@_1M@LJKPEMLN@?$AAn?$AAn?$AA?9?$AAn?$AAo@ 10025ce8     libucrt:lcidtoname_downlevel.obj
 0002:00005cf4       ??_C@_1M@BDGHHBFL@?$AAn?$AAs?$AA?9?$AAz?$AAa@ 10025cf4     libucrt:lcidtoname_downlevel.obj
 0002:00005d00       ??_C@_1M@IDEHOAP@?$AAp?$AAa?$AA?9?$AAi?$AAn@ 10025d00     libucrt:lcidtoname_downlevel.obj
 0002:00005d0c       ??_C@_1M@HDBKGOGH@?$AAp?$AAl?$AA?9?$AAp?$AAl@ 10025d0c     libucrt:lcidtoname_downlevel.obj
 0002:00005d18       ??_C@_1M@LJLLCMEH@?$AAp?$AAt?$AA?9?$AAb?$AAr@ 10025d18     libucrt:lcidtoname_downlevel.obj
 0002:00005d24       ??_C@_1M@NCMONAAL@?$AAp?$AAt?$AA?9?$AAp?$AAt@ 10025d24     libucrt:lcidtoname_downlevel.obj
 0002:00005d30       ??_C@_1O@EAKMAJDN@?$AAq?$AAu?$AAz?$AA?9?$AAb?$AAo@ 10025d30     libucrt:lcidtoname_downlevel.obj
 0002:00005d40       ??_C@_1O@BHHPIGDN@?$AAq?$AAu?$AAz?$AA?9?$AAe?$AAc@ 10025d40     libucrt:lcidtoname_downlevel.obj
 0002:00005d50       ??_C@_1O@GBAPEKMJ@?$AAq?$AAu?$AAz?$AA?9?$AAp?$AAe@ 10025d50     libucrt:lcidtoname_downlevel.obj
 0002:00005d60       ??_C@_1M@CLGLEFBO@?$AAr?$AAo?$AA?9?$AAr?$AAo@ 10025d60     libucrt:lcidtoname_downlevel.obj
 0002:00005d6c       ??_C@_1M@CEEDODME@?$AAr?$AAu?$AA?9?$AAr?$AAu@ 10025d6c     libucrt:lcidtoname_downlevel.obj
 0002:00005d78       ??_C@_1M@HPKKKMPP@?$AAs?$AAa?$AA?9?$AAi?$AAn@ 10025d78     libucrt:lcidtoname_downlevel.obj
 0002:00005d84       ??_C@_1M@BKMAIGOJ@?$AAs?$AAe?$AA?9?$AAf?$AAi@ 10025d84     libucrt:lcidtoname_downlevel.obj
 0002:00005d90       ??_C@_1M@NDPIFLFI@?$AAs?$AAe?$AA?9?$AAn?$AAo@ 10025d90     libucrt:lcidtoname_downlevel.obj
 0002:00005d9c       ??_C@_1M@DANKKHJ@?$AAs?$AAe?$AA?9?$AAs?$AAe@ 10025d9c     libucrt:lcidtoname_downlevel.obj
 0002:00005da8       ??_C@_1M@PNBLONPJ@?$AAs?$AAk?$AA?9?$AAs?$AAk@ 10025da8     libucrt:lcidtoname_downlevel.obj
 0002:00005db4       ??_C@_1M@LFMODOAL@?$AAs?$AAl?$AA?9?$AAs?$AAi@ 10025db4     libucrt:lcidtoname_downlevel.obj
 0002:00005dc0       ??_C@_1O@DFKOMPG@?$AAs?$AAm?$AAa?$AA?9?$AAn?$AAo@ 10025dc0     libucrt:lcidtoname_downlevel.obj
 0002:00005dd0       ??_C@_1O@NDKPBNNH@?$AAs?$AAm?$AAa?$AA?9?$AAs?$AAe@ 10025dd0     libucrt:lcidtoname_downlevel.obj
 0002:00005de0       ??_C@_1O@PLLKBHAB@?$AAs?$AAm?$AAj?$AA?9?$AAn?$AAo@ 10025de0     libucrt:lcidtoname_downlevel.obj
 0002:00005df0       ??_C@_1O@CLEPOGCA@?$AAs?$AAm?$AAj?$AA?9?$AAs?$AAe@ 10025df0     libucrt:lcidtoname_downlevel.obj
 0002:00005e00       ??_C@_1O@DLGJGKMK@?$AAs?$AAm?$AAn?$AA?9?$AAf?$AAi@ 10025e00     libucrt:lcidtoname_downlevel.obj
 0002:00005e10       ??_C@_1O@OJDJGAJC@?$AAs?$AAm?$AAs?$AA?9?$AAf?$AAi@ 10025e10     libucrt:lcidtoname_downlevel.obj
 0002:00005e20       ??_C@_1M@BOFOGHPB@?$AAs?$AAq?$AA?9?$AAa?$AAl@ 10025e20     libucrt:lcidtoname_downlevel.obj
 0002:00005e2c       ??_C@_1BG@LJBBIPGB@?$AAs?$AAr?$AA?9?$AAb?$AAa?$AA?9?$AAc?$AAy?$AAr?$AAl@ 10025e2c     libucrt:lcidtoname_downlevel.obj
 0002:00005e44       ??_C@_1BG@JLBENFOE@?$AAs?$AAr?$AA?9?$AAb?$AAa?$AA?9?$AAl?$AAa?$AAt?$AAn@ 10025e44     libucrt:lcidtoname_downlevel.obj
 0002:00005e5c       ??_C@_1BG@KODPNHE@?$AAs?$AAr?$AA?9?$AAs?$AAp?$AA?9?$AAc?$AAy?$AAr?$AAl@ 10025e5c     libucrt:lcidtoname_downlevel.obj
 0002:00005e74       ??_C@_1BG@CIOGKHPB@?$AAs?$AAr?$AA?9?$AAs?$AAp?$AA?9?$AAl?$AAa?$AAt?$AAn@ 10025e74     libucrt:lcidtoname_downlevel.obj
 0002:00005e8c       ??_C@_1M@NGFJLMAC@?$AAs?$AAv?$AA?9?$AAf?$AAi@ 10025e8c     libucrt:lcidtoname_downlevel.obj
 0002:00005e98       ??_C@_1M@MPJEJAJC@?$AAs?$AAv?$AA?9?$AAs?$AAe@ 10025e98     libucrt:lcidtoname_downlevel.obj
 0002:00005ea4       ??_C@_1M@MPNDHLFK@?$AAs?$AAw?$AA?9?$AAk?$AAe@ 10025ea4     libucrt:lcidtoname_downlevel.obj
 0002:00005eb0       ??_C@_1O@KOHBJJI@?$AAs?$AAy?$AAr?$AA?9?$AAs?$AAy@ 10025eb0     libucrt:lcidtoname_downlevel.obj
 0002:00005ec0       ??_C@_1M@LDCEFHA@?$AAt?$AAa?$AA?9?$AAi?$AAn@ 10025ec0     libucrt:lcidtoname_downlevel.obj
 0002:00005ecc       ??_C@_1M@CNJOFAK@?$AAt?$AAe?$AA?9?$AAi?$AAn@ 10025ecc     libucrt:lcidtoname_downlevel.obj
 0002:00005ed8       ??_C@_1M@GNAECACD@?$AAt?$AAh?$AA?9?$AAt?$AAh@ 10025ed8     libucrt:lcidtoname_downlevel.obj
 0002:00005ee4       ??_C@_1M@CHBIHOJO@?$AAt?$AAn?$AA?9?$AAz?$AAa@ 10025ee4     libucrt:lcidtoname_downlevel.obj
 0002:00005ef0       ??_C@_1M@GCCMIGPJ@?$AAt?$AAr?$AA?9?$AAt?$AAr@ 10025ef0     libucrt:lcidtoname_downlevel.obj
 0002:00005efc       ??_C@_1M@CELMCNBK@?$AAt?$AAt?$AA?9?$AAr?$AAu@ 10025efc     libucrt:lcidtoname_downlevel.obj
 0002:00005f08       ??_C@_1M@KLMCELGA@?$AAu?$AAk?$AA?9?$AAu?$AAa@ 10025f08     libucrt:lcidtoname_downlevel.obj
 0002:00005f14       ??_C@_1M@EPAJJAJF@?$AAu?$AAr?$AA?9?$AAp?$AAk@ 10025f14     libucrt:lcidtoname_downlevel.obj
 0002:00005f20       ??_C@_1BG@GEGPMCDJ@?$AAu?$AAz?$AA?9?$AAu?$AAz?$AA?9?$AAc?$AAy?$AAr?$AAl@ 10025f20     libucrt:lcidtoname_downlevel.obj
 0002:00005f38       ??_C@_1BG@EGGKJILM@?$AAu?$AAz?$AA?9?$AAu?$AAz?$AA?9?$AAl?$AAa?$AAt?$AAn@ 10025f38     libucrt:lcidtoname_downlevel.obj
 0002:00005f50       ??_C@_1M@GFOCLFF@?$AAv?$AAi?$AA?9?$AAv?$AAn@ 10025f50     libucrt:lcidtoname_downlevel.obj
 0002:00005f5c       ??_C@_1M@CPAMEDFI@?$AAx?$AAh?$AA?9?$AAz?$AAa@ 10025f5c     libucrt:lcidtoname_downlevel.obj
 0002:00005f68       ??_C@_1O@EBKIFIGN@?$AAz?$AAh?$AA?9?$AAc?$AAh?$AAs@ 10025f68     libucrt:lcidtoname_downlevel.obj
 0002:00005f78       ??_C@_1O@NMHPGANE@?$AAz?$AAh?$AA?9?$AAc?$AAh?$AAt@ 10025f78     libucrt:lcidtoname_downlevel.obj
 0002:00005f88       ??_C@_1M@LPINJOMC@?$AAz?$AAh?$AA?9?$AAc?$AAn@ 10025f88     libucrt:lcidtoname_downlevel.obj
 0002:00005f94       ??_C@_1M@OCJEJODD@?$AAz?$AAh?$AA?9?$AAh?$AAk@ 10025f94     libucrt:lcidtoname_downlevel.obj
 0002:00005fa0       ??_C@_1M@DNDLJINH@?$AAz?$AAh?$AA?9?$AAm?$AAo@ 10025fa0     libucrt:lcidtoname_downlevel.obj
 0002:00005fac       ??_C@_1M@MBFDNDND@?$AAz?$AAh?$AA?9?$AAs?$AAg@ 10025fac     libucrt:lcidtoname_downlevel.obj
 0002:00005fb8       ??_C@_1M@IMEPLEPE@?$AAz?$AAh?$AA?9?$AAt?$AAw@ 10025fb8     libucrt:lcidtoname_downlevel.obj
 0002:00005fc4       ??_C@_1M@BBGHNHJP@?$AAz?$AAu?$AA?9?$AAz?$AAa@ 10025fc4     libucrt:lcidtoname_downlevel.obj
 0002:00005fd0       ?large_power_data@?1??multiply_by_power_of_ten@__crt_strtox@@YA_NAAUbig_integer@2@I@Z@4QBIB 10025fd0     libucrt:cfout.obj
 0002:000068d8       ?large_power_indices@?1??multiply_by_power_of_ten@__crt_strtox@@YA_NAAUbig_integer@2@I@Z@4QBUunpack_index@?1??12@YA_N0I@Z@B 100268d8     libucrt:cfout.obj
 0002:00006970       ?small_powers_of_ten@?1??multiply_by_power_of_ten@__crt_strtox@@YA_NAAUbig_integer@2@I@Z@4QBIB 10026970     libucrt:cfout.obj
 0002:00006994       ??_C@_01GBGANLPD@0@        10026994     libucrt:cfout.obj
 0002:00006998       ??_C@_05DNEBIAHO@1?$CDINF@ 10026998     libucrt:cfout.obj
 0002:000069a0       ??_C@_06IMKFLFPG@1?$CDQNAN@ 100269a0     libucrt:cfout.obj
 0002:000069a8       ??_C@_06PGGFOGJG@1?$CDSNAN@ 100269a8     libucrt:cfout.obj
 0002:000069b0       ??_C@_05PHHOCPM@1?$CDIND@  100269b0     libucrt:cfout.obj
 0002:00006b20       __infinity                 10026b20     libucrt:87tran.obj
 0002:00006b2a       __minfinity                10026b2a     libucrt:87tran.obj
 0002:00006b34       __logemax                  10026b34     libucrt:87tran.obj
 0002:00006b5a       __OP_EXPjmptab             10026b5a     libucrt:87tran.obj
 0002:00006b80       __indefinite               10026b80     libucrt:87disp.obj
 0002:00006b8a       __piby2                    10026b8a     libucrt:87disp.obj
 0002:00006b94       __piby4                    10026b94     libucrt:87disp.obj
 0002:00006bc8       __DEFAULT_CW_in_mem        10026bc8     libucrt:common.obj
 0002:00006bca       __pi_by_2_to_61            10026bca     libucrt:common.obj
 0002:00006c04       ??_C@_03MGHMBJCF@log@      10026c04     libucrt:libm_error.obj
 0002:00006c08       ??_C@_05HGHHAHAP@log10@    10026c08     libucrt:libm_error.obj
 0002:00006c10       ??_C@_03KHJOGHMM@exp@      10026c10     libucrt:libm_error.obj
 0002:00006c14       ??_C@_03JGHBODFD@pow@      10026c14     libucrt:libm_error.obj
 0002:00006c18       ??_C@_04FIHNOPOL@asin@     10026c18     libucrt:libm_error.obj
 0002:00006c20       ??_C@_04PDIFKINK@acos@     10026c20     libucrt:libm_error.obj
 0002:00006c28       ??_C@_04EIAKFFMI@sqrt@     10026c28     libucrt:libm_error.obj
 0002:00006c30       __real@3ff0000000000000    10026c30     libucrt:libm_error.obj
 0002:00006c38       ??_C@_1BA@BALFACEM@?$AAC?$AAO?$AAN?$AAO?$AAU?$AAT?$AA$@ 10026c38     libucrt:initcon.obj
 0002:00006c60       ___acrt_log10_table_t      10026c60     libucrt:log10_tables.obj
 0002:00007070       ___acrt_log10_table_cb     10027070     libucrt:log10_tables.obj
 0002:00007480       __real@3fe0000000000000    10027480     libucrt:powhlp.obj
 0002:00007570       ??_C@_04COOMCNPB@sinh@     10027570     libucrt:fpexcept.obj
 0002:00007578       ??_C@_04HPJJNFIM@cosh@     10027578     libucrt:fpexcept.obj
 0002:00007580       ??_C@_04FJHINJAO@tanh@     10027580     libucrt:fpexcept.obj
 0002:00007588       ??_C@_04MLLJIGOK@atan@     10027588     libucrt:fpexcept.obj
 0002:00007590       ??_C@_05KNGEOGJB@atan2@    10027590     libucrt:fpexcept.obj
 0002:00007598       ??_C@_03BLEJJJBH@sin@      10027598     libucrt:fpexcept.obj
 0002:0000759c       ??_C@_03LALBNOCG@cos@      1002759c     libucrt:fpexcept.obj
 0002:000075a0       ??_C@_03IIINPABG@tan@      100275a0     libucrt:fpexcept.obj
 0002:000075a4       ??_C@_04GFPJNGEK@ceil@     100275a4     libucrt:fpexcept.obj
 0002:000075ac       ??_C@_05PBJFFIGL@floor@    100275ac     libucrt:fpexcept.obj
 0002:000075b4       ??_C@_04ODHECPBC@fabs@     100275b4     libucrt:fpexcept.obj
 0002:000075bc       ??_C@_04EHEDPDJG@modf@     100275bc     libucrt:fpexcept.obj
 0002:000075c4       ??_C@_05CEJMAHNP@ldexp@    100275c4     libucrt:fpexcept.obj
 0002:000075cc       ??_C@_05KBKMEMPO@_cabs@    100275cc     libucrt:fpexcept.obj
 0002:000075d4       ??_C@_06MEIMCGCF@_hypot@   100275d4     libucrt:fpexcept.obj
 0002:000075dc       ??_C@_04KEPJIHGP@fmod@     100275dc     libucrt:fpexcept.obj
 0002:000075e4       ??_C@_05GKKHEGJL@frexp@    100275e4     libucrt:fpexcept.obj
 0002:000075ec       ??_C@_03MJLDFKDL@_y0@      100275ec     libucrt:fpexcept.obj
 0002:000075f0       ??_C@_03NAKIGLHK@_y1@      100275f0     libucrt:fpexcept.obj
 0002:000075f4       ??_C@_03ONILCKOB@_yn@      100275f4     libucrt:fpexcept.obj
 0002:000075f8       ??_C@_05JGDBENOH@_logb@    100275f8     libucrt:fpexcept.obj
 0002:00007600       ??_C@_0L@KDOEJCKC@_nextafter@ 10027600     libucrt:fpexcept.obj
 0002:00007610       __d_inf                    10027610     libucrt:util.obj
 0002:00007618       __d_max                    10027618     libucrt:util.obj
 0002:00007620       __d_mzero                  10027620     libucrt:util.obj
 0002:00007690       __load_config_used         10027690     LIBCMT:loadcfg.obj
 0002:00007780       __tls_used                 10027780     LIBCMT:tlssup.obj
 0002:00007798       ??_R4exception@std@@6B@    10027798     LIBCMT:throw_bad_alloc.obj
 0002:000077ac       ??_R3exception@std@@8      100277ac     LIBCMT:throw_bad_alloc.obj
 0002:000077bc       ??_R2exception@std@@8      100277bc     LIBCMT:throw_bad_alloc.obj
 0002:000077c4       ??_R1A@?0A@EA@exception@std@@8 100277c4     LIBCMT:throw_bad_alloc.obj
 0002:000077e0       ??_R4bad_alloc@std@@6B@    100277e0     LIBCMT:throw_bad_alloc.obj
 0002:000077f4       ??_R3bad_alloc@std@@8      100277f4     LIBCMT:throw_bad_alloc.obj
 0002:00007804       ??_R2bad_alloc@std@@8      10027804     LIBCMT:throw_bad_alloc.obj
 0002:00007810       ??_R1A@?0A@EA@bad_alloc@std@@8 10027810     LIBCMT:throw_bad_alloc.obj
 0002:0000782c       ??_R4bad_array_new_length@std@@6B@ 1002782c     LIBCMT:throw_bad_alloc.obj
 0002:00007840       ??_R3bad_array_new_length@std@@8 10027840     LIBCMT:throw_bad_alloc.obj
 0002:00007850       ??_R2bad_array_new_length@std@@8 10027850     LIBCMT:throw_bad_alloc.obj
 0002:00007860       ??_R1A@?0A@EA@bad_array_new_length@std@@8 10027860     LIBCMT:throw_bad_alloc.obj
 0002:0000787c       ??_R4type_info@@6B@        1002787c     LIBCMT:std_type_info_static.obj
 0002:00007890       ??_R3type_info@@8          10027890     LIBCMT:std_type_info_static.obj
 0002:000078a0       ??_R2type_info@@8          100278a0     LIBCMT:std_type_info_static.obj
 0002:000078a8       ??_R1A@?0A@EA@type_info@@8 100278a8     LIBCMT:std_type_info_static.obj
 0002:000078c4       ??_R4bad_exception@std@@6B@ 100278c4     libvcruntime:frame.obj
 0002:000078d8       ??_R3bad_exception@std@@8  100278d8     libvcruntime:frame.obj
 0002:000078e8       ??_R2bad_exception@std@@8  100278e8     libvcruntime:frame.obj
 0002:000078f4       ??_R1A@?0A@EA@bad_exception@std@@8 100278f4     libvcruntime:frame.obj
 0002:00007910       ___safe_se_handler_table   10027910     <linker-defined>
 0002:00007d08       ___rtc_iaa                 10027d08     LIBCMT:initsect.obj
 0002:00007d0c       ___rtc_izz                 10027d0c     LIBCMT:initsect.obj
 0002:00007d10       ___rtc_taa                 10027d10     LIBCMT:initsect.obj
 0002:00007d14       ___rtc_tzz                 10027d14     LIBCMT:initsect.obj
 0002:00007d18       __tls_start                10027d18     LIBCMT:tlssup.obj
 0002:00007d1c       __Init_thread_epoch        10027d1c     LIBCMT:thread_safe_statics.obj
 0002:00007d20       __tls_end                  10027d20     LIBCMT:tlssup.obj
 0002:00007e24       __TI2?AVbad_alloc@std@@    10027e24     LIBCMT:throw_bad_alloc.obj
 0002:00007e34       __CTA2?AVbad_alloc@std@@   10027e34     LIBCMT:throw_bad_alloc.obj
 0002:00007e40       __CT??_R0?AVbad_alloc@std@@@8??0bad_alloc@std@@QAE@ABV01@@Z12 10027e40     LIBCMT:throw_bad_alloc.obj
 0002:00007e5c       __CT??_R0?AVexception@std@@@8??0exception@std@@QAE@ABV01@@Z12 10027e5c     LIBCMT:throw_bad_alloc.obj
 0002:00007e78       __TI3?AVbad_array_new_length@std@@ 10027e78     LIBCMT:throw_bad_alloc.obj
 0002:00007e88       __CTA3?AVbad_array_new_length@std@@ 10027e88     LIBCMT:throw_bad_alloc.obj
 0002:00007e98       __CT??_R0?AVbad_array_new_length@std@@@8??0bad_array_new_length@std@@QAE@ABV01@@Z12 10027e98     LIBCMT:throw_bad_alloc.obj
 0002:00007fbc       __TI2?AVbad_exception@std@@ 10027fbc     libvcruntime:frame.obj
 0002:00007fcc       __CTA2?AVbad_exception@std@@ 10027fcc     libvcruntime:frame.obj
 0002:00007fd8       __CT??_R0?AVbad_exception@std@@@8??0bad_exception@std@@QAE@ABV01@@Z12 10027fd8     libvcruntime:frame.obj
 0002:00008354       ___pobjMapEntryFirst       10028354     OposVariant.obj
 0002:00008358       ___pobjMapEntryLast        10028358     OposVariant.obj
 0002:00008408       __IMPORT_DESCRIPTOR_KERNEL32 10028408     kernel32:KERNEL32.dll
 0002:0000841c       __IMPORT_DESCRIPTOR_USER32 1002841c     user32:USER32.dll
 0002:00008430       __IMPORT_DESCRIPTOR_GDI32  10028430     gdi32:GDI32.dll
 0002:00008444       __IMPORT_DESCRIPTOR_ADVAPI32 10028444     advapi32:ADVAPI32.dll
 0002:00008458       __IMPORT_DESCRIPTOR_ole32  10028458     ole32:ole32.dll
 0002:0000846c       __IMPORT_DESCRIPTOR_OLEAUT32 1002846c     oleaut32:OLEAUT32.dll
 0002:00008480       __NULL_IMPORT_DESCRIPTOR   10028480     kernel32:KERNEL32.dll
 0003:00000000       ?s_Claim@?7??GetIDsOfNames@CComTypeInfoHolder@ATL@@QAEJABU_GUID@@PAPA_WIKPAJ@Z@4PA_WA 1002a000     PINPad.obj
 0003:00000018       ?s_Release@?7??GetIDsOfNames@CComTypeInfoHolder@ATL@@QAEJABU_GUID@@PAPA_WIKPAJ@Z@4PA_WA 1002a018     PINPad.obj
 0003:00000034       ?_tih@?$IDispatchImpl@UIOPOSPINPad@@$1?IID_IOPOSPINPad@@3U_GUID@@B$1?LIBID_OposPINPad_CCO@@3U3@B$00$0A@VCComTypeInfoHolder@ATL@@@ATL@@1VCComTypeInfoHolder@2@A 1002a034     PINPad.obj
 0003:00000050       ?_tih@?$IProvideClassInfo2Impl@$1?CLSID_OPOSPINPad@@3U_GUID@@B$1?DIID__IOPOSPINPadEvents@@3U2@B$1?LIBID_OposPINPad_CCO@@3U2@B$00$0A@VCComTypeInfoHolder@ATL@@@ATL@@1VCComTypeInfoHolder@2@A 1002a050     PINPad.obj
 0003:0000006c       ?vszContents@?6??Save@?$IPersistStorageImpl@VCOPOSPINPad@@@ATL@@UAGJPAUIStorage@@H@Z@4PB_WB 1002a06c     PINPad.obj
 0003:00000070       ?wc@?1??GetWndClassInfo@?$CWindowImpl@VCOPOSPINPad@@VCWindow@ATL@@V?$CWinTraits@$0FGAAAAAA@$0A@@3@@ATL@@SAAAU_ATL_WNDCLASSINFOW@3@XZ@4U43@A 1002a070     PINPad.obj
 0003:000000fc       ?rcDefault@CWindow@ATL@@2UtagRECT@@A 1002a0fc     PINPad.obj
 0003:00000158       ?g_WindowName@@3PA_WA      1002a158     PINPadImpl.obj
 0003:00000174       ?g_ControlVersion@@3JA     1002a174     PINPadImpl.obj
 0003:00000178       ?g_ControlDescription@@3PADA 1002a178     PINPadImpl.obj
 0003:0000024c       ___scrt_native_dllmain_reason 1002a24c     LIBCMT:utility.obj
 0003:00000250       __Init_global_epoch        1002a250     LIBCMT:thread_safe_statics.obj
 0003:00000260       ___security_cookie_complement 1002a260     LIBCMT:gs_cookie.obj
 0003:00000264       ___security_cookie         1002a264     LIBCMT:gs_cookie.obj
 0003:00000268       ___isa_enabled             1002a268     LIBCMT:cpu_disp.obj
 0003:00000280       __NLG_Destination          1002a280     libvcruntime:exsup.obj
 0003:00000298       ___abort_behavior          1002a298     libucrt:abort.obj
 0003:000002a8       __iob                      1002a2a8     libucrt:_file.obj
 0003:00000350       ___acrt_initial_locale_data 1002a350     libucrt:nlsdata.obj
 0003:00000408       ___acrt_initial_locale_pointers 1002a408     libucrt:nlsdata.obj
 0003:00000410       ___acrt_wide_c_locale_string 1002a410     libucrt:nlsdata.obj
 0003:00000418       ___acrt_initial_multibyte_data 1002a418     libucrt:mbctype.obj
 0003:00000938       __pwctype                  1002a938     libucrt:ctype.obj
 0003:0000093c       ___globallocalestatus      1002a93c     libucrt:glstatus.obj
 0003:00000940       ___acrt_lconv_c            1002a940     libucrt:localeconv.obj
 0003:00000990       ___acrt_lconv_static_decimal 1002a990     libucrt:localeconv.obj
 0003:00000994       ___acrt_lconv_static_W_decimal 1002a994     libucrt:localeconv.obj
 0003:000009a0       __lookuptrailbytes         1002a9a0     libucrt:read.obj
 0003:00000ab0       __fltused                  1002aab0     LIBCMT:fltused.obj
 0003:00000ac0       ??_R0?AVbad_alloc@std@@@8  1002aac0     LIBCMT:throw_bad_alloc.obj
 0003:00000adc       ??_R0?AVexception@std@@@8  1002aadc     LIBCMT:throw_bad_alloc.obj
 0003:00000af8       ??_R0?AVbad_array_new_length@std@@@8 1002aaf8     LIBCMT:throw_bad_alloc.obj
 0003:00000b20       ??_R0?AVtype_info@@@8      1002ab20     LIBCMT:std_type_info_static.obj
 0003:00000b38       ??_R0?AVbad_exception@std@@@8 1002ab38     libvcruntime:frame.obj
 0003:00000b58       ?m_bInitFailed@CAtlBaseModule@ATL@@2_NA 1002ab58     OposVariant.obj
 0003:00000b5c       ?_pPerfRegFunc@ATL@@3P6AJPAUHINSTANCE__@@@ZA 1002ab5c     OposVariant.obj
 0003:00000b60       ?_pPerfUnRegFunc@ATL@@3P6AJXZA 1002ab60     OposVariant.obj
 0003:00000b64       ?_AtlRegisterPerUser@ATL@@3_NA 1002ab64     OposVariant.obj
 0003:00000b68       ?_pAtlModule@ATL@@3PAVCAtlModule@1@A 1002ab68     OposVariant.obj
 0003:00000b6c       ?_pModule@ATL@@3PAVCComModule@1@A 1002ab6c     OposVariant.obj
 0003:00000b70       ?_AtlComModule@ATL@@3VCAtlComModule@1@A 1002ab70     OposVariant.obj
 0003:00000b98       ?_AtlWinModule@ATL@@3VCAtlWinModule@1@A 1002ab98     OposVariant.obj
 0003:00000bc4       ?m_libid@CAtlModule@ATL@@2U_GUID@@A 1002abc4     PINPad.obj
 0003:00000bd4       ?_entries@?1??GetConnMap@COPOSPINPad@@SAPBU_ATL_CONNMAP_ENTRY@ATL@@PAH@Z@4QBU34@B 1002abd4     PINPad.obj
 0003:00000be0       ?$TSS0@?1??GetConnMap@COPOSPINPad@@SAPBU_ATL_CONNMAP_ENTRY@ATL@@PAH@Z@4HA 1002abe0     PINPad.obj
 0003:00000be8       ?_OptionsStorage@?1??__local_stdio_printf_options@@9@4_KA 1002abe8     PINPad.obj
 0003:00000bf0       ?pfnRegDeleteKeyEx@?1??DeleteSubKey@CRegKey@ATL@@QAEJPB_W@Z@4P6GJPAUHKEY__@@0KK@ZA 1002abf0     PINPad.obj
 0003:00000bf4       ?bInitialized@?1??DeleteSubKey@CRegKey@ATL@@QAEJPB_W@Z@4_NA 1002abf4     PINPad.obj
 0003:00000bf8       ?_Module@@3VCComModule@ATL@@A 1002abf8     PINPad.obj
 0003:00000c28       ?pConnMap@?$IConnectionPointContainerImpl@VCOPOSPINPad@@@ATL@@0PBU_ATL_CONNMAP_ENTRY@2@B 1002ac28     PINPad.obj
 0003:00000c2c       ?s_nInstances@COPOSPINPad@@1HA 1002ac2c     PINPadImpl.obj
 0003:00000c30       ___scrt_current_native_startup_state 1002ac30     LIBCMT:utility.obj
 0003:00000c34       ___scrt_native_startup_lock 1002ac34     LIBCMT:utility.obj
 0003:00000f9c       __tls_index                1002af9c     LIBCMT:tlssup.obj
 0003:00000fa4       ___isa_available           1002afa4     LIBCMT:cpu_disp.obj
 0003:00000fa8       ___favor                   1002afa8     LIBCMT:cpu_disp.obj
 0003:00000fac       ___scrt_debugger_hook_flag 1002afac     LIBCMT:utility_desktop.obj
 0003:00000fb0       ___castguard_check_failure_os_handled_fptr 1002afb0     LIBCMT:guard_support.obj
 0003:00000fb8       ?__type_info_root_node@@3U__type_info_node@@A 1002afb8     LIBCMT:tncleanup.obj
 0003:00000fc0       ?_OptionsStorage@?1??__local_stdio_scanf_options@@9@4_KA 1002afc0     LIBCMT:default_local_stdio_options.obj
 0003:00000fc8       ?_AtlBaseModule@ATL@@3VCAtlBaseModule@1@A 1002afc8     atls:atlbase.obj
 0003:00001000       ?__AtlThunkPool@@3PAT_SLIST_HEADER@@A 1002b000     atls:atlthunk.obj
 0003:00001018       ___@@_PchSym_@00@UztvmgUPdlipUFHUhUrmgvinvwrzgvUexgllohUzgohOmzgrevkilqPBACIAJCBDBUlyqiUcIGUhgwzucOlyq@4B2008FD98C1DD4 1002b018     atls:stdafx.obj
 0003:0000101c       ?__WinRTOutOfMemoryExceptionCallback@@3P6GPAXXZA 1002b01c     libvcruntime:ehhelpers.obj
 0003:00001020       ___pPurecall               1002b020     libvcruntime:purevirt_data.obj
 0003:00001068       ?pArgList@UnDecorator@@0PAVReplicator@@A 1002b068     libvcruntime:undname.obj
 0003:0000106c       ?pZNameList@UnDecorator@@0PAVReplicator@@A 1002b06c     libvcruntime:undname.obj
 0003:00001070       ?pTemplateArgList@UnDecorator@@0PAVReplicator@@A 1002b070     libvcruntime:undname.obj
 0003:00001074       ?gName@UnDecorator@@0PBDB  1002b074     libvcruntime:undname.obj
 0003:00001078       ?name@UnDecorator@@0PBDB   1002b078     libvcruntime:undname.obj
 0003:0000107c       ?disableFlags@UnDecorator@@0KA 1002b07c     libvcruntime:undname.obj
 0003:00001080       ?fExplicitTemplateParams@UnDecorator@@0_NA 1002b080     libvcruntime:undname.obj
 0003:00001081       ?fGetTemplateArgumentList@UnDecorator@@0_NA 1002b081     libvcruntime:undname.obj
 0003:00001084       ?m_pGetParameter@UnDecorator@@0P6APADJ@ZA 1002b084     libvcruntime:undname.obj
 0003:00001088       ?m_CHPENameOffset@UnDecorator@@0KA 1002b088     libvcruntime:undname.obj
 0003:0000108c       ?m_recursionLevel@UnDecorator@@0KA 1002b08c     libvcruntime:undname.obj
 0003:000010d0       ?c_exit_complete@?1???R<lambda_6e4b09c48022b2350581041d5f6b0c4c>@@QBE@XZ@4_NA 1002b0d0     libucrt:exit.obj
 0003:000011e0       __environ_table            1002b1e0     libucrt:environment_initialization.obj
 0003:000011e4       __wenviron_table           1002b1e4     libucrt:environment_initialization.obj
 0003:000011e8       ___dcrt_initial_wide_environment 1002b1e8     libucrt:environment_initialization.obj
 0003:000011ec       ___dcrt_initial_narrow_environment 1002b1ec     libucrt:environment_initialization.obj
 0003:000011f0       ___acrt_atexit_table       1002b1f0     libucrt:onexit.obj
 0003:000011fc       ___acrt_at_quick_exit_table 1002b1fc     libucrt:onexit.obj
 0003:000012f0       __nstream                  1002b2f0     libucrt:_file.obj
 0003:000012f4       ___piob                    1002b2f4     libucrt:_file.obj
 0003:000012fc       ___acrt_stdout_buffer      1002b2fc     libucrt:_sftbuf.obj
 0003:00001300       ___acrt_stderr_buffer      1002b300     libucrt:_sftbuf.obj
 0003:00001304       ___acrt_locale_changed_data 1002b304     libucrt:wsetlocale.obj
 0003:00001308       ___acrt_current_locale_data 1002b308     libucrt:nlsdata.obj
 0003:00001310       ___pioinfo                 1002b310     libucrt:ioinit.obj
 0003:00001510       __nhandle                  1002b510     libucrt:ioinit.obj
 0003:0000166c       __mbctype                  1002b66c     libucrt:mbctype.obj
 0003:00001670       __mbcasemap                1002b670     libucrt:mbctype.obj
 0003:00001674       ___acrt_current_multibyte_data 1002b674     libucrt:mbctype.obj
 0003:00001680       __pgmptr                   1002b680     libucrt:argv_data.obj
 0003:00001684       ___argc                    1002b684     libucrt:argv_data.obj
 0003:00001688       ___argv                    1002b688     libucrt:argv_data.obj
 0003:0000168c       ___wargv                   1002b68c     libucrt:argv_data.obj
 0003:00001690       __acmdln                   1002b690     libucrt:argv_data.obj
 0003:00001694       __wcmdln                   1002b694     libucrt:argv_data.obj
 0003:00001698       ___acrt_heap               1002b698     libucrt:heap_handle.obj
 0003:000016b4       ___acrt_lconv_static_null  1002b6b4     libucrt:localeconv.obj
 0003:000016b8       ___acrt_lconv_static_W_null 1002b6b8     libucrt:localeconv.obj
 0003:000016c8       ___fastflag                1002b6c8     libucrt:fp_flags.obj
 0003:000016d0       ___dyn_tls_init_callback   1002b6d0     <common>
 0003:000016d4       ___scrt_ucrt_dll_is_in_use 1002b6d4     <common>
 0003:000016d8       __pmatherr                 1002b6d8     <common>
 0003:000016dc       ___use_sse2_mathfcns       1002b6dc     <common>

 entry point at        0001:0000c3cd

 Static symbols

 0000:fffcd000       .debug$S                   10000000     OPOSPINPad.exp
 0000:fffcd000       .debug$S                   10000000     advapi32:ADVAPI32.dll
 0000:fffcd000       .debug$S                   10000000     advapi32:ADVAPI32.dll
 0000:fffcd000       .debug$S                   10000000     advapi32:ADVAPI32.dll
 0000:fffcd000       .debug$S                   10000000     advapi32:ADVAPI32.dll
 0000:fffcd000       .debug$S                   10000000     advapi32:ADVAPI32.dll
 0000:fffcd000       .debug$S                   10000000     advapi32:ADVAPI32.dll
 0000:fffcd000       .debug$S                   10000000     advapi32:ADVAPI32.dll
 0000:fffcd000       .debug$S                   10000000     advapi32:ADVAPI32.dll
 0000:fffcd000       .debug$S                   10000000     advapi32:ADVAPI32.dll
 0000:fffcd000       .debug$S                   10000000     gdi32:GDI32.dll
 0000:fffcd000       .debug$S                   10000000     gdi32:GDI32.dll
 0000:fffcd000       .debug$S                   10000000     gdi32:GDI32.dll
 0000:fffcd000       .debug$S                   10000000     gdi32:GDI32.dll
 0000:fffcd000       .debug$S                   10000000     gdi32:GDI32.dll
 0000:fffcd000       .debug$S                   10000000     gdi32:GDI32.dll
 0000:fffcd000       .debug$S                   10000000     gdi32:GDI32.dll
 0000:fffcd000       .debug$S                   10000000     gdi32:GDI32.dll
 0000:fffcd000       .debug$S                   10000000     gdi32:GDI32.dll
 0000:fffcd000       .debug$S                   10000000     gdi32:GDI32.dll
 0000:fffcd000       .debug$S                   10000000     gdi32:GDI32.dll
 0000:fffcd000       .debug$S                   10000000     gdi32:GDI32.dll
 0000:fffcd000       .debug$S                   10000000     gdi32:GDI32.dll
 0000:fffcd000       .debug$S                   10000000     gdi32:GDI32.dll
 0000:fffcd000       .debug$S                   10000000     gdi32:GDI32.dll
 0000:fffcd000       .debug$S                   10000000     gdi32:GDI32.dll
 0000:fffcd000       .debug$S                   10000000     gdi32:GDI32.dll
 0000:fffcd000       .debug$S                   10000000     gdi32:GDI32.dll
 0000:fffcd000       .debug$S                   10000000     gdi32:GDI32.dll
 0000:fffcd000       .debug$S                   10000000     kernel32:KERNEL32.dll
 0000:fffcd000       .debug$S                   10000000     kernel32:KERNEL32.dll
 0000:fffcd000       .debug$S                   10000000     kernel32:KERNEL32.dll
 0000:fffcd000       .debug$S                   10000000     kernel32:KERNEL32.dll
 0000:fffcd000       .debug$S                   10000000     kernel32:KERNEL32.dll
 0000:fffcd000       .debug$S                   10000000     kernel32:KERNEL32.dll
 0000:fffcd000       .debug$S                   10000000     kernel32:KERNEL32.dll
 0000:fffcd000       .debug$S                   10000000     kernel32:KERNEL32.dll
 0000:fffcd000       .debug$S                   10000000     kernel32:KERNEL32.dll
 0000:fffcd000       .debug$S                   10000000     kernel32:KERNEL32.dll
 0000:fffcd000       .debug$S                   10000000     kernel32:KERNEL32.dll
 0000:fffcd000       .debug$S                   10000000     kernel32:KERNEL32.dll
 0000:fffcd000       .debug$S                   10000000     kernel32:KERNEL32.dll
 0000:fffcd000       .debug$S                   10000000     kernel32:KERNEL32.dll
 0000:fffcd000       .debug$S                   10000000     kernel32:KERNEL32.dll
 0000:fffcd000       .debug$S                   10000000     kernel32:KERNEL32.dll
 0000:fffcd000       .debug$S                   10000000     kernel32:KERNEL32.dll
 0000:fffcd000       .debug$S                   10000000     kernel32:KERNEL32.dll
 0000:fffcd000       .debug$S                   10000000     kernel32:KERNEL32.dll
 0000:fffcd000       .debug$S                   10000000     kernel32:KERNEL32.dll
 0000:fffcd000       .debug$S                   10000000     kernel32:KERNEL32.dll
 0000:fffcd000       .debug$S                   10000000     kernel32:KERNEL32.dll
 0000:fffcd000       .debug$S                   10000000     kernel32:KERNEL32.dll
 0000:fffcd000       .debug$S                   10000000     kernel32:KERNEL32.dll
 0000:fffcd000       .debug$S                   10000000     kernel32:KERNEL32.dll
 0000:fffcd000       .debug$S                   10000000     kernel32:KERNEL32.dll
 0000:fffcd000       .debug$S                   10000000     kernel32:KERNEL32.dll
 0000:fffcd000       .debug$S                   10000000     kernel32:KERNEL32.dll
 0000:fffcd000       .debug$S                   10000000     kernel32:KERNEL32.dll
 0000:fffcd000       .debug$S                   10000000     kernel32:KERNEL32.dll
 0000:fffcd000       .debug$S                   10000000     kernel32:KERNEL32.dll
 0000:fffcd000       .debug$S                   10000000     kernel32:KERNEL32.dll
 0000:fffcd000       .debug$S                   10000000     kernel32:KERNEL32.dll
 0000:fffcd000       .debug$S                   10000000     kernel32:KERNEL32.dll
 0000:fffcd000       .debug$S                   10000000     kernel32:KERNEL32.dll
 0000:fffcd000       .debug$S                   10000000     kernel32:KERNEL32.dll
 0000:fffcd000       .debug$S                   10000000     kernel32:KERNEL32.dll
 0000:fffcd000       .debug$S                   10000000     kernel32:KERNEL32.dll
 0000:fffcd000       .debug$S                   10000000     kernel32:KERNEL32.dll
 0000:fffcd000       .debug$S                   10000000     kernel32:KERNEL32.dll
 0000:fffcd000       .debug$S                   10000000     kernel32:KERNEL32.dll
 0000:fffcd000       .debug$S                   10000000     kernel32:KERNEL32.dll
 0000:fffcd000       .debug$S                   10000000     kernel32:KERNEL32.dll
 0000:fffcd000       .debug$S                   10000000     kernel32:KERNEL32.dll
 0000:fffcd000       .debug$S                   10000000     kernel32:KERNEL32.dll
 0000:fffcd000       .debug$S                   10000000     kernel32:KERNEL32.dll
 0000:fffcd000       .debug$S                   10000000     kernel32:KERNEL32.dll
 0000:fffcd000       .debug$S                   10000000     kernel32:KERNEL32.dll
 0000:fffcd000       .debug$S                   10000000     kernel32:KERNEL32.dll
 0000:fffcd000       .debug$S                   10000000     kernel32:KERNEL32.dll
 0000:fffcd000       .debug$S                   10000000     kernel32:KERNEL32.dll
 0000:fffcd000       .debug$S                   10000000     kernel32:KERNEL32.dll
 0000:fffcd000       .debug$S                   10000000     kernel32:KERNEL32.dll
 0000:fffcd000       .debug$S                   10000000     kernel32:KERNEL32.dll
 0000:fffcd000       .debug$S                   10000000     kernel32:KERNEL32.dll
 0000:fffcd000       .debug$S                   10000000     kernel32:KERNEL32.dll
 0000:fffcd000       .debug$S                   10000000     kernel32:KERNEL32.dll
 0000:fffcd000       .debug$S                   10000000     kernel32:KERNEL32.dll
 0000:fffcd000       .debug$S                   10000000     kernel32:KERNEL32.dll
 0000:fffcd000       .debug$S                   10000000     kernel32:KERNEL32.dll
 0000:fffcd000       .debug$S                   10000000     kernel32:KERNEL32.dll
 0000:fffcd000       .debug$S                   10000000     kernel32:KERNEL32.dll
 0000:fffcd000       .debug$S                   10000000     kernel32:KERNEL32.dll
 0000:fffcd000       .debug$S                   10000000     kernel32:KERNEL32.dll
 0000:fffcd000       .debug$S                   10000000     kernel32:KERNEL32.dll
 0000:fffcd000       .debug$S                   10000000     kernel32:KERNEL32.dll
 0000:fffcd000       .debug$S                   10000000     kernel32:KERNEL32.dll
 0000:fffcd000       .debug$S                   10000000     kernel32:KERNEL32.dll
 0000:fffcd000       .debug$S                   10000000     kernel32:KERNEL32.dll
 0000:fffcd000       .debug$S                   10000000     kernel32:KERNEL32.dll
 0000:fffcd000       .debug$S                   10000000     kernel32:KERNEL32.dll
 0000:fffcd000       .debug$S                   10000000     kernel32:KERNEL32.dll
 0000:fffcd000       .debug$S                   10000000     kernel32:KERNEL32.dll
 0000:fffcd000       .debug$S                   10000000     kernel32:KERNEL32.dll
 0000:fffcd000       .debug$S                   10000000     kernel32:KERNEL32.dll
 0000:fffcd000       .debug$S                   10000000     kernel32:KERNEL32.dll
 0000:fffcd000       .debug$S                   10000000     kernel32:KERNEL32.dll
 0000:fffcd000       .debug$S                   10000000     kernel32:KERNEL32.dll
 0000:fffcd000       .debug$S                   10000000     kernel32:KERNEL32.dll
 0000:fffcd000       .debug$S                   10000000     kernel32:KERNEL32.dll
 0000:fffcd000       .debug$S                   10000000     kernel32:KERNEL32.dll
 0000:fffcd000       .debug$S                   10000000     kernel32:KERNEL32.dll
 0000:fffcd000       .debug$S                   10000000     kernel32:KERNEL32.dll
 0000:fffcd000       .debug$S                   10000000     kernel32:KERNEL32.dll
 0000:fffcd000       .debug$S                   10000000     kernel32:KERNEL32.dll
 0000:fffcd000       .debug$S                   10000000     kernel32:KERNEL32.dll
 0000:fffcd000       .debug$S                   10000000     kernel32:KERNEL32.dll
 0000:fffcd000       .debug$S                   10000000     kernel32:KERNEL32.dll
 0000:fffcd000       .debug$S                   10000000     kernel32:KERNEL32.dll
 0000:fffcd000       .debug$S                   10000000     kernel32:KERNEL32.dll
 0000:fffcd000       .debug$S                   10000000     kernel32:KERNEL32.dll
 0000:fffcd000       .debug$S                   10000000     kernel32:KERNEL32.dll
 0000:fffcd000       .debug$S                   10000000     kernel32:KERNEL32.dll
 0000:fffcd000       .debug$S                   10000000     kernel32:KERNEL32.dll
 0000:fffcd000       .debug$S                   10000000     kernel32:KERNEL32.dll
 0000:fffcd000       .debug$S                   10000000     kernel32:KERNEL32.dll
 0000:fffcd000       .debug$S                   10000000     kernel32:KERNEL32.dll
 0000:fffcd000       .debug$S                   10000000     kernel32:KERNEL32.dll
 0000:fffcd000       .debug$S                   10000000     kernel32:KERNEL32.dll
 0000:fffcd000       .debug$S                   10000000     kernel32:KERNEL32.dll
 0000:fffcd000       .debug$S                   10000000     kernel32:KERNEL32.dll
 0000:fffcd000       .debug$S                   10000000     kernel32:KERNEL32.dll
 0000:fffcd000       .debug$S                   10000000     kernel32:KERNEL32.dll
 0000:fffcd000       .debug$S                   10000000     kernel32:KERNEL32.dll
 0000:fffcd000       .debug$S                   10000000     kernel32:KERNEL32.dll
 0000:fffcd000       .debug$S                   10000000     kernel32:KERNEL32.dll
 0000:fffcd000       .debug$S                   10000000     ole32:ole32.dll
 0000:fffcd000       .debug$S                   10000000     ole32:ole32.dll
 0000:fffcd000       .debug$S                   10000000     ole32:ole32.dll
 0000:fffcd000       .debug$S                   10000000     ole32:ole32.dll
 0000:fffcd000       .debug$S                   10000000     ole32:ole32.dll
 0000:fffcd000       .debug$S                   10000000     ole32:ole32.dll
 0000:fffcd000       .debug$S                   10000000     ole32:ole32.dll
 0000:fffcd000       .debug$S                   10000000     ole32:ole32.dll
 0000:fffcd000       .debug$S                   10000000     ole32:ole32.dll
 0000:fffcd000       .debug$S                   10000000     ole32:ole32.dll
 0000:fffcd000       .debug$S                   10000000     ole32:ole32.dll
 0000:fffcd000       .debug$S                   10000000     ole32:ole32.dll
 0000:fffcd000       .debug$S                   10000000     ole32:ole32.dll
 0000:fffcd000       .debug$S                   10000000     ole32:ole32.dll
 0000:fffcd000       .debug$S                   10000000     oleaut32:OLEAUT32.dll
 0000:fffcd000       .debug$S                   10000000     oleaut32:OLEAUT32.dll
 0000:fffcd000       .debug$S                   10000000     oleaut32:OLEAUT32.dll
 0000:fffcd000       .debug$S                   10000000     oleaut32:OLEAUT32.dll
 0000:fffcd000       .debug$S                   10000000     oleaut32:OLEAUT32.dll
 0000:fffcd000       .debug$S                   10000000     oleaut32:OLEAUT32.dll
 0000:fffcd000       .debug$S                   10000000     oleaut32:OLEAUT32.dll
 0000:fffcd000       .debug$S                   10000000     oleaut32:OLEAUT32.dll
 0000:fffcd000       .debug$S                   10000000     oleaut32:OLEAUT32.dll
 0000:fffcd000       .debug$S                   10000000     oleaut32:OLEAUT32.dll
 0000:fffcd000       .debug$S                   10000000     oleaut32:OLEAUT32.dll
 0000:fffcd000       .debug$S                   10000000     oleaut32:OLEAUT32.dll
 0000:fffcd000       .debug$S                   10000000     oleaut32:OLEAUT32.dll
 0000:fffcd000       .debug$S                   10000000     oleaut32:OLEAUT32.dll
 0000:fffcd000       .debug$S                   10000000     oleaut32:OLEAUT32.dll
 0000:fffcd000       .debug$S                   10000000     oleaut32:OLEAUT32.dll
 0000:fffcd000       .debug$S                   10000000     user32:USER32.dll
 0000:fffcd000       .debug$S                   10000000     user32:USER32.dll
 0000:fffcd000       .debug$S                   10000000     user32:USER32.dll
 0000:fffcd000       .debug$S                   10000000     user32:USER32.dll
 0000:fffcd000       .debug$S                   10000000     user32:USER32.dll
 0000:fffcd000       .debug$S                   10000000     user32:USER32.dll
 0000:fffcd000       .debug$S                   10000000     user32:USER32.dll
 0000:fffcd000       .debug$S                   10000000     user32:USER32.dll
 0000:fffcd000       .debug$S                   10000000     user32:USER32.dll
 0000:fffcd000       .debug$S                   10000000     user32:USER32.dll
 0000:fffcd000       .debug$S                   10000000     user32:USER32.dll
 0000:fffcd000       .debug$S                   10000000     user32:USER32.dll
 0000:fffcd000       .debug$S                   10000000     user32:USER32.dll
 0000:fffcd000       .debug$S                   10000000     user32:USER32.dll
 0000:fffcd000       .debug$S                   10000000     user32:USER32.dll
 0000:fffcd000       .debug$S                   10000000     user32:USER32.dll
 0000:fffcd000       .debug$S                   10000000     user32:USER32.dll
 0000:fffcd000       .debug$S                   10000000     user32:USER32.dll
 0000:fffcd000       .debug$S                   10000000     user32:USER32.dll
 0000:fffcd000       .debug$S                   10000000     user32:USER32.dll
 0000:fffcd000       .debug$S                   10000000     user32:USER32.dll
 0000:fffcd000       .debug$S                   10000000     user32:USER32.dll
 0000:fffcd000       .debug$S                   10000000     user32:USER32.dll
 0000:fffcd000       .debug$S                   10000000     user32:USER32.dll
 0000:fffcd000       .debug$S                   10000000     user32:USER32.dll
 0000:fffcd000       .debug$S                   10000000     user32:USER32.dll
 0000:fffcd000       .debug$S                   10000000     user32:USER32.dll
 0000:fffcd000       .debug$S                   10000000     user32:USER32.dll
 0000:fffcd000       .debug$S                   10000000     user32:USER32.dll
 0000:fffcd000       .debug$S                   10000000     user32:USER32.dll
 0000:fffcd000       .debug$S                   10000000     user32:USER32.dll
 0000:fffcd000       .debug$S                   10000000     user32:USER32.dll
 0000:fffcd000       .debug$S                   10000000     user32:USER32.dll
 0000:fffcd000       .debug$S                   10000000     user32:USER32.dll
 0000:fffcd000       .debug$S                   10000000     user32:USER32.dll
 0001:00000000       ??__E_AtlComModule@ATL@@YAXXZ 10001000 f   OposVariant.obj
 0001:00000016       ??__E_AtlWinModule@ATL@@YAXXZ 10001016 f   OposVariant.obj
 0001:0000002c       ??__E?pConnMap@?$IConnectionPointContainerImpl@VCOPOSPINPad@@@ATL@@0PBU_ATL_CONNMAP_ENTRY@2@B@@YAXXZ 1000102c f   PINPad.obj
 0001:0000003a       ??__E_Module@@YAXXZ        1000103a f   PINPad.obj
 0001:00000064       ??__E_AtlBaseModule@ATL@@YAXXZ 10001064 f   atls:atlbase.obj
 0001:000010c1       $LN24                      100020c1     PINPad.obj
 0001:00005945       $LN48                      10006945     PINPad.obj
 0001:0000595d       $LN47                      1000695d     PINPad.obj
 0001:00007b08       $LN38                      10008b08     PINPad.obj
 0001:00007b20       $LN37                      10008b20     PINPad.obj
 0001:00009210       $LN76                      1000a210     PINPad.obj
 0001:00009228       $LN75                      1000a228     PINPad.obj
 0001:000095e1       _memcpy_s                  1000a5e1 f   PINPad.obj
 0001:0000b859       ?find_pe_section@@YAPAU_IMAGE_SECTION_HEADER@@QAEI@Z 1000c859 f   LIBCMT:utility.obj
 0001:0000bb78       ?__scrt_initialize_thread_safe_statics@@YAHXZ 1000cb78 f   LIBCMT:thread_safe_statics.obj
 0001:0000bb9f       ?__scrt_initialize_thread_safe_statics_platform_specific@@YAXXZ 1000cb9f f   LIBCMT:thread_safe_statics.obj
 0001:0000bc21       ?__scrt_uninitialize_thread_safe_statics@@YAXXZ 1000cc21 f   LIBCMT:thread_safe_statics.obj
 0001:0000bf90       __catch$??2@YAPAXIABUnothrow_t@std@@@Z$0 1000cf90 f   LIBCMT:new_scalar_nothrow.obj
 0001:0000bfd0       $$000000                   1000cfd0     LIBCMT:sehprolg4gs.obj
 0001:0000c030       $$000000                   1000d030     LIBCMT:alloca16.obj
 0001:0000c060       $$000000                   1000d060     LIBCMT:chkstk.obj
 0001:0000c08d       ?dllmain_crt_dispatch@@YGHQAUHINSTANCE__@@KQAX@Z 1000d08d f   LIBCMT:dll_dllmain.obj
 0001:0000c0e0       ?dllmain_crt_process_attach@@YAHQAUHINSTANCE__@@QAX@Z 1000d0e0 f   LIBCMT:dll_dllmain.obj
 0001:0000c1e7       ?dllmain_crt_process_detach@@YAH_N@Z 1000d1e7 f   LIBCMT:dll_dllmain.obj
 0001:0000c297       ?dllmain_dispatch@@YAHQAUHINSTANCE__@@KQAX@Z 1000d297 f   LIBCMT:dll_dllmain.obj
 0001:0000c3a2       ?dllmain_raw@@YGHQAUHINSTANCE__@@KQAX@Z 1000d3a2 f   LIBCMT:dll_dllmain.obj
 0001:0000c720       $$000000                   1000d720     LIBCMT:sehprolg4.obj
 0001:0000c77b       ___get_entropy             1000d77b f   LIBCMT:gs_support.obj
 0001:0000ca72       ??$GetProcAddressAll@P6GP6GJPAUHWND__@@IIJ@ZPAUAtlThunkData_t@@@Z@@YAP6GP6GJPAUHWND__@@IIJ@ZPAUAtlThunkData_t@@@ZPAP6GP6GJ0IIJ@Z1@Z@Z 1000da72 f   atls:atlthunk.obj
 0001:0000ca72       ??$GetProcAddressAll@P6GPAUAtlThunkData_t@@XZ@@YAP6GPAUAtlThunkData_t@@XZPAP6GPAU0@XZ@Z 1000da72 f   atls:atlthunk.obj
 0001:0000ca72       ??$GetProcAddressAll@P6GXPAUAtlThunkData_t@@@Z@@YAP6GXPAUAtlThunkData_t@@@ZPAP6GX0@Z@Z 1000da72 f   atls:atlthunk.obj
 0001:0000ca72       ??$GetProcAddressAll@P6GXPAUAtlThunkData_t@@PAXI@Z@@YAP6GXPAUAtlThunkData_t@@PAXI@ZPAP6GX01I@Z@Z 1000da72 f   atls:atlthunk.obj
 0001:0000cb22       ?GetProcAddressSingle@@YA_NPAUHINSTANCE__@@PBDPAPAX@Z 1000db22 f   atls:atlthunk.obj
 0001:0000cc74       ?__InitializeThunkPool@@YAHXZ 1000dc74 f   atls:atlthunk.obj
 0001:0000d0c0       _ValidateLocalCookies      1000e0c0 f   libvcruntime:chandler4.obj
 0001:0000e0ea       $LN1250                    1000f0ea     libvcruntime:memcmp.obj
 0001:0000e170       $$000000                   1000f170     libvcruntime:memcpy.obj
 0001:0000e3d4       TrailingUpVec              1000f3d4     libvcruntime:memcpy.obj
 0001:0000e480       TrailingDownVec            1000f480     libvcruntime:memcpy.obj
 0001:0000e6f0       $$000000                   1000f6f0     libvcruntime:memset.obj
 0001:0000ecf3       ?_FilterSetCurrentException@@YAKPAU_EXCEPTION_POINTERS@@E@Z 1000fcf3 f   libvcruntime:ehhelpers.obj
 0001:0000ef40       $$000000                   1000ff40     libvcruntime:memmove.obj
 0001:0000f1a4       TrailingUpVec              100101a4     libvcruntime:memmove.obj
 0001:0000f250       TrailingDownVec            10010250     libvcruntime:memmove.obj
 0001:0000f4c0       $$000000                   100104c0     libvcruntime:exsup4.obj
 0001:0000f54d       __unwind_handler4          1001054d f   libvcruntime:exsup4.obj
 0001:0000f82b       ??$BuildCatchObjectHelperInternal@V__FrameHandler3@@@@YAHPAUEHExceptionRecord@@PAXPBU_s_HandlerType@@PBU_s_CatchableType@@@Z 1001082b f   libvcruntime:frame.obj
 0001:0000f969       ??$BuildCatchObjectInternal@V__FrameHandler3@@@@YAXPAUEHExceptionRecord@@PAXPBU_s_HandlerType@@PBU_s_CatchableType@@@Z 10010969 f   libvcruntime:frame.obj
 0001:0000fa02       ??$CatchIt@V__FrameHandler3@@@@YAXPAUEHExceptionRecord@@PAUEHRegistrationNode@@PAU_CONTEXT@@PAXPBU_s_FuncInfo@@PBU_s_HandlerType@@PBU_s_CatchableType@@PBU_s_TryBlockMapEntry@@H1EE@Z 10010a02 f   libvcruntime:frame.obj
 0001:0000fa82       ??$FindHandler@V__FrameHandler3@@@@YAXPAUEHExceptionRecord@@PAUEHRegistrationNode@@PAU_CONTEXT@@PAXPBU_s_FuncInfo@@EH1@Z 10010a82 f   libvcruntime:frame.obj
 0001:0000fe38       ??$FindHandlerForForeignException@V__FrameHandler3@@@@YAXPAUEHExceptionRecord@@PAUEHRegistrationNode@@PAU_CONTEXT@@PAXPBU_s_FuncInfo@@HH1@Z 10010e38 f   libvcruntime:frame.obj
 0001:00010150       ?CallCatchBlock@@YAPAXPAUEHExceptionRecord@@PAUEHRegistrationNode@@PAU_CONTEXT@@PBU_s_FuncInfo@@PAXHK@Z 10011150 f   libvcruntime:frame.obj
 0001:00010314       ?CallUnexpected@@YAXPBU_s_ESTypeList@@@Z 10011314 f   libvcruntime:frame.obj
 0001:00010334       __catch$?CallUnexpected@@YAXPBU_s_ESTypeList@@@Z$0 10011334 f   libvcruntime:frame.obj
 0001:00010353       ?ExFilterRethrow@@YAHPAU_EXCEPTION_POINTERS@@@Z 10011353 f   libvcruntime:frame.obj
 0001:0001049d       ?IsInExceptionSpec@@YAEPAUEHExceptionRecord@@PBU_s_ESTypeList@@@Z 1001149d f   libvcruntime:frame.obj
 0001:00010570       $$000000                   10011570     libvcruntime:lowhelpr.obj
 0001:000105c0       $$000000                   100115c0     libvcruntime:exsup.obj
 0001:000105e1       __unwind_handler           100115e1 f   libvcruntime:exsup.obj
 0001:000106fe       ?try_get_first_available_module@@YAPAUHINSTANCE__@@QBW4module_id@?A0xb97aeec8@@0@Z 100116fe f   libvcruntime:winapi_downlevel.obj
 0001:00010798       ?try_get_function@@YAPAXW4function_id@?A0xb97aeec8@@QBDQBW4module_id@2@2@Z 10011798 f   libvcruntime:winapi_downlevel.obj
 0001:00010e22       ??$common_tcsncpy_s@_W@@YAHQA_WIQB_WI@Z 10011e22 f   libucrt:wcsncpy_s.obj
 0001:00010ef8       ??$common_vsprintf@Vformat_validation_base@__crt_stdio_output@@_W@@YAH_KQA_WIQB_WQAU__crt_locale_pointers@@QAD@Z 10011ef8 f   libucrt:output.obj
 0001:0001107f       ??$common_vsprintf_s@_W@@YAH_KQA_WIQB_WQAU__crt_locale_pointers@@QAD@Z 1001207f f   libucrt:output.obj
 0001:000117e3       $LN48                      100127e3     libucrt:output.obj
 0001:00011cec       $LN18                      10012cec     libucrt:output.obj
 0001:00011d00       $LN17                      10012d00     libucrt:output.obj
 0001:0001255b       ??$?RV<lambda_03b1d95aef87969028cfba75ccab2455>@@AAV<lambda_6e4b09c48022b2350581041d5f6b0c4c>@@V<lambda_22bdf7517842c4b3e53723af5aa32b9e>@@@?$__crt_seh_guarded_call@X@@QAEX$$QAV<lambda_03b1d95aef87969028cfba75ccab2455>@@AAV<lambda_6e4b09c48022b2350581041d5f6b0c4c>@@$$QAV<lambda_22bdf7517842c4b3e53723af5aa32b9e>@@@Z 1001355b f   libucrt:exit.obj
 0001:000125a8       ??R<lambda_6e4b09c48022b2350581041d5f6b0c4c>@@QBE@XZ 100135a8 f   libucrt:exit.obj
 0001:00012682       ?atexit_exception_filter@@YAHK@Z 10013682 f   libucrt:exit.obj
 0001:00012695       ?common_exit@@YAXHW4_crt_exit_cleanup_mode@@W4_crt_exit_return_mode@@@Z 10013695 f   libucrt:exit.obj
 0001:000126f9       ?exit_or_terminate_process@@YAXI@Z 100136f9 f   libucrt:exit.obj
 0001:0001273b       ?is_managed_app@@YA_NXZ    1001373b f   libucrt:exit.obj
 0001:0001277e       ?try_cor_exit_process@@YAXI@Z 1001377e f   libucrt:exit.obj
 0001:0001280c       ??$common_configure_argv@D@@YAHW4_crt_argv_mode@@@Z 1001380c f   libucrt:argv_parsing.obj
 0001:00012942       ??$parse_command_line@D@@YAXPADPAPAD0PAI2@Z 10013942 f   libucrt:argv_parsing.obj
 0001:00012b10       ??$common_initialize_environment_nolock@D@@YAHXZ 10013b10 f   libucrt:environment_initialization.obj
 0001:00012b63       ??$create_environment@D@@YAQAPADQAD@Z 10013b63 f   libucrt:environment_initialization.obj
 0001:00012c33       ??$free_environment@D@@YAXQAPAD@Z 10013c33 f   libucrt:environment_initialization.obj
 0001:00012c33       ??$free_environment@_W@@YAXQAPA_W@Z 10013c33 f   libucrt:environment_initialization.obj
 0001:00012c8b       ??$uninitialize_environment_internal@D@@YAXAAPAPAD@Z 10013c8b f   libucrt:environment_initialization.obj
 0001:00012ca6       ??$uninitialize_environment_internal@_W@@YAXAAPAPA_W@Z 10013ca6 f   libucrt:environment_initialization.obj
 0001:00012cfd       ??$?RV<lambda_69a2805e680e0e292e8ba93315fe43a8>@@AAV<lambda_f03950bc5685219e0bcd2087efbe011e>@@V<lambda_03fcd07e894ec930e3f35da366ca99d6>@@@?$__crt_seh_guarded_call@H@@QAEH$$QAV<lambda_69a2805e680e0e292e8ba93315fe43a8>@@AAV<lambda_f03950bc5685219e0bcd2087efbe011e>@@$$QAV<lambda_03fcd07e894ec930e3f35da366ca99d6>@@@Z 10013cfd f   libucrt:onexit.obj
 0001:00012d58       ??$?RV<lambda_8e746cf0007f6ed984d6f78af1fec997>@@AAV<lambda_22ebabd17bc4fa466a2aca6d8deb888d>@@V<lambda_18ed0c0b38a6dc0daf1e7ac6d6adf05e>@@@?$__crt_seh_guarded_call@H@@QAEH$$QAV<lambda_8e746cf0007f6ed984d6f78af1fec997>@@AAV<lambda_22ebabd17bc4fa466a2aca6d8deb888d>@@$$QAV<lambda_18ed0c0b38a6dc0daf1e7ac6d6adf05e>@@@Z 10013d58 f   libucrt:onexit.obj
 0001:00012dd2       ??R<lambda_22ebabd17bc4fa466a2aca6d8deb888d>@@QBEHXZ 10013dd2 f   libucrt:onexit.obj
 0001:00012efb       ??R<lambda_f03950bc5685219e0bcd2087efbe011e>@@QBEHXZ 10013efb f   libucrt:onexit.obj
 0001:00013074       _initialize_global_variables 10014074 f   libucrt:initialization.obj
 0001:00013081       _initialize_c              10014081 f   libucrt:initialization.obj
 0001:0001309b       _initialize_environment    1001409b f   libucrt:initialization.obj
 0001:0001309b       _initialize_global_state_isolation 1001409b f   libucrt:initialization.obj
 0001:0001309b       _report_memory_leaks       1001409b f   libucrt:initialization.obj
 0001:0001309b       _uninitialize_c            1001409b f   libucrt:initialization.obj
 0001:0001309b       _uninitialize_global_state_isolation 1001409b f   libucrt:initialization.obj
 0001:0001309e       _uninitialize_environment  1001409e f   libucrt:initialization.obj
 0001:000130a6       _initialize_pointers       100140a6 f   libucrt:initialization.obj
 0001:000130d4       _uninitialize_vcruntime    100140d4 f   libucrt:initialization.obj
 0001:000130dd       _uninitialize_allocated_memory 100140dd f   libucrt:initialization.obj
 0001:000130f4       _uninitialize_allocated_io_buffers 100140f4 f   libucrt:initialization.obj
 0001:00013144       ??R<lambda_af42a3ee9806e9a7305d451646e05244>@@QBEXAAPAU__crt_multibyte_data@@@Z 10014144 f   libucrt:initialization.obj
 0001:00013a30       $$000000                   10014a30     libucrt:strncmp.obj
 0001:00013b1c       ??$?RV<lambda_15ade71b0218206bbe3333a0c9b79046>@@AAV<lambda_da44e0f8b0f19ba52fefafb335991732>@@V<lambda_207f2d024fc103971653565357d6cd41>@@@?$__crt_seh_guarded_call@X@@QAEX$$QAV<lambda_15ade71b0218206bbe3333a0c9b79046>@@AAV<lambda_da44e0f8b0f19ba52fefafb335991732>@@$$QAV<lambda_207f2d024fc103971653565357d6cd41>@@@Z 10014b1c f   libucrt:per_thread_data.obj
 0001:00013b6e       ??$?RV<lambda_38edbb1296d33220d7e4dd0ed76b244a>@@AAV<lambda_5ce1d447e08cb34b2473517608e21441>@@V<lambda_fb385d3da700c9147fc39e65dd577a8c>@@@?$__crt_seh_guarded_call@X@@QAEX$$QAV<lambda_38edbb1296d33220d7e4dd0ed76b244a>@@AAV<lambda_5ce1d447e08cb34b2473517608e21441>@@$$QAV<lambda_fb385d3da700c9147fc39e65dd577a8c>@@@Z 10014b6e f   libucrt:per_thread_data.obj
 0001:00013bd9       ??$?RV<lambda_6affb1475c98b40b75cdec977db92e3c>@@AAV<lambda_b8d4b9c228a6ecc3f80208dbb4b4a104>@@V<lambda_608742c3c92a14382c1684fc64f96c88>@@@?$__crt_seh_guarded_call@X@@QAEX$$QAV<lambda_6affb1475c98b40b75cdec977db92e3c>@@AAV<lambda_b8d4b9c228a6ecc3f80208dbb4b4a104>@@$$QAV<lambda_608742c3c92a14382c1684fc64f96c88>@@@Z 10014bd9 f   libucrt:per_thread_data.obj
 0001:00013c2e       ??$?RV<lambda_a7e850c220f1c8d1e6efeecdedd162c6>@@AAV<lambda_46720907175c18b6c9d2717bc0d2d362>@@V<lambda_9048902d66e8d99359bc9897bbb930a8>@@@?$__crt_seh_guarded_call@X@@QAEX$$QAV<lambda_a7e850c220f1c8d1e6efeecdedd162c6>@@AAV<lambda_46720907175c18b6c9d2717bc0d2d362>@@$$QAV<lambda_9048902d66e8d99359bc9897bbb930a8>@@@Z 10014c2e f   libucrt:per_thread_data.obj
 0001:00013c88       ?construct_ptd@@YAXQAU__acrt_ptd@@QAPAU__crt_locale_data@@@Z 10014c88 f   libucrt:per_thread_data.obj
 0001:00013d21       ?destroy_fls@@YGXPAX@Z     10014d21 f   libucrt:per_thread_data.obj
 0001:00013d42       ?destroy_ptd@@YAXQAU__acrt_ptd@@@Z 10014d42 f   libucrt:per_thread_data.obj
 0001:00013e0f       ?replace_current_thread_locale_nolock@@YAXQAU__acrt_ptd@@QAU__crt_locale_data@@@Z 10014e0f f   libucrt:per_thread_data.obj
 0001:0001421f       ?try_get_AreFileApisANSI@@YAP6GHXZXZ 1001521f f   libucrt:winapi_thunks.obj
 0001:00014239       ?try_get_LCMapStringEx@@YAP6GHPB_WK0HPA_WHPAU_nlsversioninfo@@PAXJ@ZXZ 10015239 f   libucrt:winapi_thunks.obj
 0001:00014253       ?try_get_LocaleNameToLCID@@YAP6GKPB_WK@ZXZ 10015253 f   libucrt:winapi_thunks.obj
 0001:0001426d       ?try_get_first_available_module@@YAPAUHINSTANCE__@@QBW4module_id@?A0x391cf84c@@0@Z 1001526d f   libucrt:winapi_thunks.obj
 0001:00014334       ?try_get_function@@YAPAXW4function_id@?A0x391cf84c@@QBDQBW4module_id@2@2@Z 10015334 f   libucrt:winapi_thunks.obj
 0001:00014a97       ?fe_to_nearest@@YA_NQBN_KF@Z 10015a97 f   libucrt:cvt.obj
 0001:00014b3a       ?fp_format_a@@YAHQBNPADIQADIH_NIQAU__crt_locale_pointers@@W4__acrt_rounding_mode@@@Z 10015b3a f   libucrt:cvt.obj
 0001:00014e49       ?fp_format_e@@YAHQBNQADI1IH_NIQAU__crt_locale_pointers@@W4__acrt_rounding_mode@@@Z 10015e49 f   libucrt:cvt.obj
 0001:00014ef1       ?fp_format_e_internal@@YAHQADIH_NIQAU_strflt@@1QAU__crt_locale_pointers@@@Z 10015ef1 f   libucrt:cvt.obj
 0001:00015039       ?fp_format_f@@YAHQBNQADI1IHQAU__crt_locale_pointers@@W4__acrt_rounding_mode@@@Z 10016039 f   libucrt:cvt.obj
 0001:000150ca       ?fp_format_f_internal@@YAHQADIHQAU_strflt@@_NQAU__crt_locale_pointers@@@Z 100160ca f   libucrt:cvt.obj
 0001:000151c2       ?fp_format_g@@YAHQBNQADI1IH_NIQAU__crt_locale_pointers@@@Z 100161c2 f   libucrt:cvt.obj
 0001:0001528b       ?fp_format_nan_or_infinity@@YAHW4__acrt_fp_class@@_NPADI1@Z 1001628b f   libucrt:cvt.obj
 0001:00015320       ?shift_bytes@@YAXQADI0H@Z  10016320 f   libucrt:cvt.obj
 0001:00015354       ?should_round_up@@YA_NQBN_KFW4__acrt_rounding_mode@@@Z 10016354 f   libucrt:cvt.obj
 0001:000156bd       ??$?RV<lambda_e5124f882df8998aaf41531e079ba474>@@AAV<lambda_3e16ef9562a7dcce91392c22ab16ea36>@@V<lambda_e25ca0880e6ef98be67edffd8c599615>@@@?$__crt_seh_guarded_call@X@@QAEX$$QAV<lambda_e5124f882df8998aaf41531e079ba474>@@AAV<lambda_3e16ef9562a7dcce91392c22ab16ea36>@@$$QAV<lambda_e25ca0880e6ef98be67edffd8c599615>@@@Z 100166bd f   libucrt:wsetlocale.obj
 0001:0001575d       ?initialize_inherited_file_handles_nolock@@YAXXZ 1001675d f   libucrt:ioinit.obj
 0001:00015813       ?initialize_stdio_handles_nolock@@YAXXZ 10016813 f   libucrt:ioinit.obj
 0001:00015a24       ?<lambda_invoker_cdecl>@<lambda_838c7f62c73c983481e27c09e84b0b5d>@@CAHPBX0@Z 10016a24 f   libucrt:argv_wildcards.obj
 0001:00015a3c       ??$__acrt_convert_wcs_mbs_cp@D_WV<lambda_62f6974d9771e494a5ea317cc32e971c>@@U__crt_win32_buffer_internal_dynamic_resizing@@@@YAHQBDAAV?$__crt_win32_buffer@_WU__crt_win32_buffer_internal_dynamic_resizing@@@@ABV<lambda_62f6974d9771e494a5ea317cc32e971c>@@I@Z 10016a3c f   libucrt:argv_wildcards.obj
 0001:00015aee       ??$__acrt_convert_wcs_mbs_cp@_WDV<lambda_28bda7af82a03b66c1cb3803a755f95d>@@U__crt_win32_buffer_internal_dynamic_resizing@@@@YAHQB_WAAV?$__crt_win32_buffer@DU__crt_win32_buffer_internal_dynamic_resizing@@@@ABV<lambda_28bda7af82a03b66c1cb3803a755f95d>@@I@Z 10016aee f   libucrt:argv_wildcards.obj
 0001:00015bda       ??$common_expand_argv_wildcards@D@@YAHQAPADQAPAPAD@Z 10016bda f   libucrt:argv_wildcards.obj
 0001:00015dc9       ??$copy_and_add_argument_to_buffer@D@@YAHQBD0IAAV?$argument_list@D@?A0x5f5c8891@@@Z 10016dc9 f   libucrt:argv_wildcards.obj
 0001:00015e7a       ??$expand_argument_wildcards@D@@YAHQAD0AAV?$argument_list@D@?A0x5f5c8891@@@Z 10016e7a f   libucrt:argv_wildcards.obj
 0001:000161c4       ?expand_if_necessary@?$argument_list@D@?A0x5f5c8891@@AAEHXZ 100171c4 f   libucrt:argv_wildcards.obj
 0001:00016256       ??$__acrt_convert_wcs_mbs_cp@_WDV<lambda_0fec1a7b3f42a53036604e18c2d5e07e>@@U__crt_win32_buffer_no_resizing@@@@YAHQB_WAAV?$__crt_win32_buffer@DU__crt_win32_buffer_no_resizing@@@@ABV<lambda_0fec1a7b3f42a53036604e18c2d5e07e>@@I@Z 10017256 f   libucrt:getmodulefilenamea.obj
 0001:000163f9       ??$?RV<lambda_ceb1ee4838e85a9d631eb091e2fbe199>@@AAV<lambda_ae742caa10f662c28703da3d2ea5e57e>@@V<lambda_cd08b5d6af4937fe54fc07d0c9bf6b37>@@@?$__crt_seh_guarded_call@X@@QAEX$$QAV<lambda_ceb1ee4838e85a9d631eb091e2fbe199>@@AAV<lambda_ae742caa10f662c28703da3d2ea5e57e>@@$$QAV<lambda_cd08b5d6af4937fe54fc07d0c9bf6b37>@@@Z 100173f9 f   libucrt:mbctype.obj
 0001:00016446       ??R<lambda_ae742caa10f662c28703da3d2ea5e57e>@@QBEXXZ 10017446 f   libucrt:mbctype.obj
 0001:000164c9       ?CPtoLocaleName@@YAPB_WH@Z 100174c9 f   libucrt:mbctype.obj
 0001:00016507       ?getSystemCP@@YAHH@Z       10017507 f   libucrt:mbctype.obj
 0001:00016578       ?setSBCS@@YAXPAU__crt_multibyte_data@@@Z 10017578 f   libucrt:mbctype.obj
 0001:000165dd       ?setSBUpLow@@YAXPAU__crt_multibyte_data@@@Z 100175dd f   libucrt:mbctype.obj
 0001:0001675d       ?setmbcp_internal@@YAHH_NQAU__acrt_ptd@@QAPAU__crt_multibyte_data@@@Z 1001775d f   libucrt:mbctype.obj
 0001:00016871       ?update_thread_multibyte_data_internal@@YAPAU__crt_multibyte_data@@QAU__acrt_ptd@@QAPAU1@@Z 10017871 f   libucrt:mbctype.obj
 0001:00016b5f       _memcpy_s                  10017b5f f   libucrt:cfout.obj
 0001:00016b5f       _memcpy_s                  10017b5f f   libucrt:mbctype.obj
 0001:00016be0       ?x_ismbbtype_l@@YAHPAU__crt_locale_pointers@@IHH@Z 10017be0 f   libucrt:ismbbyte.obj
 0001:00016d9b       ?find_end_of_double_null_terminated_sequence@@YAPB_WQB_W@Z 10017d9b f   libucrt:get_environment_from_os.obj
 0001:00016f0a       ??$?RV<lambda_cbab9ec6f41b0180b23cc171c22676b0>@@AAV<lambda_44731a7d0e6d81c3e6aa82d741081786>@@V<lambda_4b292cb8dd18144e164572427af410ab>@@@?$__crt_seh_guarded_call@P6AXH@Z@@QAEP6AXH@Z$$QAV<lambda_cbab9ec6f41b0180b23cc171c22676b0>@@AAV<lambda_44731a7d0e6d81c3e6aa82d741081786>@@$$QAV<lambda_4b292cb8dd18144e164572427af410ab>@@@Z 10017f0a f   libucrt:signal.obj
 0001:00016f6e       ?get_global_action_nolock@@YAPAP6AXH@ZH@Z 10017f6e f   libucrt:signal.obj
 0001:00016fb0       ?siglookup@@YAPAU__crt_signal_action_t@@HQAU1@@Z 10017fb0 f   libucrt:signal.obj
 0001:00017269       ??$?RV<lambda_2866be3712abc81a800a822484c830d8>@@AAV<lambda_39ca0ed439415581b5b15c265174cece>@@V<lambda_2b24c74d71094a6cd0cb82e44167d71b>@@@?$__crt_seh_guarded_call@X@@QAEX$$QAV<lambda_2866be3712abc81a800a822484c830d8>@@AAV<lambda_39ca0ed439415581b5b15c265174cece>@@$$QAV<lambda_2b24c74d71094a6cd0cb82e44167d71b>@@@Z 10018269 f   libucrt:fflush.obj
 0001:000172f5       ??$?RV<lambda_2cc53f568c5a2bb6f192f930a45d44ea>@@AAV<lambda_ab61a845afdef5b7c387490eaf3616ee>@@V<lambda_c2ffc0b7726aa6be21d5f0026187e748>@@@?$__crt_seh_guarded_call@X@@QAEX$$QAV<lambda_2cc53f568c5a2bb6f192f930a45d44ea>@@AAV<lambda_ab61a845afdef5b7c387490eaf3616ee>@@$$QAV<lambda_c2ffc0b7726aa6be21d5f0026187e748>@@@Z 100182f5 f   libucrt:fflush.obj
 0001:000173a1       ?common_flush_all@@YAH_N@Z 100183a1 f   libucrt:fflush.obj
 0001:000173ee       ?common_flush_all_should_try_to_flush_stream@@YA_NV__crt_stdio_stream@@QAH@Z 100183ee f   libucrt:fflush.obj
 0001:00017421       ?is_stream_flushable_or_commitable@@YA_NJ@Z 10018421 f   libucrt:fflush.obj
 0001:0001792a       ?GetTableIndexFromLocaleName@@YAHPB_W@Z 1001892a f   libucrt:lcidtoname_downlevel.obj
 0001:000179e0       ??R<lambda_3d301b9e52f5099be73030e1f0bf487e>@@QBEIPBD@Z 100189e0 f   libucrt:mbrtowc.obj
 0001:00017b66       ?should_round_up@@YA_NQBDHW4__acrt_has_trailing_digits@@W4__acrt_rounding_mode@@@Z 10018b66 f   libucrt:_fptostr.obj
 0001:00019904       ?free_crt_array_internal@@YAXQAPBXI@Z 1001a904 f   libucrt:inittime.obj
 0001:0001a2ce       ??$common_tcsncpy_s@D@@YAHQADIQBDI@Z 1001b2ce f   libucrt:strncpy_s.obj
 0001:0001a390       $$000000                   1001b390     libucrt:strpbrk.obj
 0001:0001a474       ?__acrt_LCMapStringA_stat@@YAHPAU__crt_locale_pointers@@PB_WKPBDHPADHHH@Z 1001b474 f   libucrt:lcmapstringa.obj
 0001:0001a6a7       ?initialize_multibyte@@YAHXZ 1001b6a7 f   libucrt:multibyte_initializer.obj
 0001:0001a6b6       ??$?RV<lambda_9e9de3de5fa147e2223d7db92bc10aa6>@@AAV<lambda_38ce7e780aa69e748d6df282ebc68efe>@@V<lambda_8ca6da459f0f6780f1cff60fdc3d00e5>@@@?$__crt_seh_guarded_call@H@@QAEH$$QAV<lambda_9e9de3de5fa147e2223d7db92bc10aa6>@@AAV<lambda_38ce7e780aa69e748d6df282ebc68efe>@@$$QAV<lambda_8ca6da459f0f6780f1cff60fdc3d00e5>@@@Z 1001b6b6 f   libucrt:commit.obj
 0001:0001a7d5       ?write_double_translated_ansi_nolock@@YA?AUwrite_result@?A0x17268360@@HQBDI@Z 1001b7d5 f   libucrt:write.obj
 0001:0001ab81       ?write_double_translated_unicode_nolock@@YA?AUwrite_result@?A0x17268360@@QBDI@Z 1001bb81 f   libucrt:write.obj
 0001:0001abe9       ?write_requires_double_translation_nolock@@YA_NH@Z 1001bbe9 f   libucrt:write.obj
 0001:0001ac5a       ?write_text_ansi_nolock@@YA?AUwrite_result@?A0x17268360@@HQBDI@Z 1001bc5a f   libucrt:write.obj
 0001:0001ad35       ?write_text_utf16le_nolock@@YA?AUwrite_result@?A0x17268360@@HQBDI@Z 1001bd35 f   libucrt:write.obj
 0001:0001ae1e       ?write_text_utf8_nolock@@YA?AUwrite_result@?A0x17268360@@HQBDI@Z 1001be1e f   libucrt:write.obj
 0001:0001b540       $$000000                   1001c540     libucrt:log10_impl.obj
 0001:0001b650       $$000000                   1001c650     libucrt:ceil_pentium4.obj
 0001:0001b76d       ?to_abstract_control@@YA?AW4__acrt_fenv_abstract_control@@W4__acrt_fenv_machine_sse_control@@@Z 1001c76d f   libucrt:_fenvutils.obj
 0001:0001b829       ?to_abstract_control@@YA?AW4__acrt_fenv_abstract_control@@W4__acrt_fenv_machine_x87_control@@@Z 1001c829 f   libucrt:_fenvutils.obj
 0001:0001b8e2       ?to_machine_sse_control@@YA?AW4__acrt_fenv_machine_sse_control@@W4__acrt_fenv_abstract_control@@@Z 1001c8e2 f   libucrt:_fenvutils.obj
 0001:0001b9af       ?to_machine_x87_control@@YA?AW4__acrt_fenv_machine_x87_control@@W4__acrt_fenv_abstract_control@@@Z 1001c9af f   libucrt:_fenvutils.obj
 0001:0001bd43       ??$common_lseek_nolock@_J@@YA_JH_JH@Z 1001cd43 f   libucrt:lseek.obj
 0001:0001bf29       ___hw_cw_sse2              1001cf29 f   libucrt:ieee87.obj
 0001:0001c3af       __hw_cw                    1001d3af f   libucrt:ieee87.obj
 0001:0001c460       $$000000                   1001d460     libucrt:log10_pentium4.obj
 0001:0001c6f0       $$000000                   1001d6f0     libucrt:87tran.obj
 0001:0001c900       $$000000                   1001d900     libucrt:87disp.obj
 0001:0001cb60       $$000000                   1001db60     libucrt:common.obj
 0001:0001ccf0       $$000000                   1001dcf0     libucrt:genexcep.obj
 0001:0001cfec       ??$?RV<lambda_218ce3db14220d0be481dae8ef3383b6>@@AAV<lambda_628dfdc04ba53c8bfc02c9951375f3f5>@@V<lambda_57dc472bd5c9d5f3b2cbca59b8a843ae>@@@?$__crt_seh_guarded_call@H@@QAEH$$QAV<lambda_218ce3db14220d0be481dae8ef3383b6>@@AAV<lambda_628dfdc04ba53c8bfc02c9951375f3f5>@@$$QAV<lambda_57dc472bd5c9d5f3b2cbca59b8a843ae>@@@Z 1001dfec f   libucrt:close.obj
 0001:0001d1e0       $$000000                   1001e1e0     libucrt:_strnicm.obj
 0001:0001d241       ?__dcrt_lowio_initialize_console_output@@YAXXZ 1001e241 f   libucrt:initcon.obj
 0001:0001e120       $$000000                   1001f120     LIBCMT:ulldvrm.obj
 0001:0001e1c0       $$000000                   1001f1c0     LIBCMT:llmul.obj
 0001:0001e200       $$000000                   1001f200     LIBCMT:lldvrm.obj
 0001:0001e2e0       $$000000                   1001f2e0     LIBCMT:llshl.obj
 0001:0001e300       $$000000                   1001f300     LIBCMT:ullshr.obj
 0001:0001e320       $$000000                   1001f320     LIBCMT:ftol2.obj
 0001:0001e5c0       $$000000                   1001f5c0     libvcruntime:strrchr.obj
 0001:0001e700       $$000000                   1001f700     libvcruntime:strchr.obj
 0001:0001e8a3       __ehhandler$??2@YAPAXIABUnothrow_t@std@@@Z 1001f8a3 f   LIBCMT:new_scalar_nothrow.obj
 0001:0001e8c0       __ehhandler$?CallUnexpected@@YAXPBU_s_ESTypeList@@@Z 1001f8c0 f   libvcruntime:frame.obj
 0001:0001e8dd       ??__F_AtlComModule@ATL@@YAXXZ 1001f8dd f   OposVariant.obj
 0001:0001e8e7       ??__F_AtlWinModule@ATL@@YAXXZ 1001f8e7 f   OposVariant.obj
 0001:0001e901       ??__F_Module@@YAXXZ        1001f901 f   PINPad.obj
 0001:0001e915       ??__F_AtlBaseModule@ATL@@YAXXZ 1001f915 f   atls:atlbase.obj
 0002:00000304       ?_AtlBaseModule$initializer$@ATL@@3P6AXXZA 10020304     atls:atlbase.obj
 0002:00000308       ?_AtlComModule$initializer$@ATL@@3P6AXXZA 10020308     OposVariant.obj
 0002:0000030c       ?_AtlWinModule$initializer$@ATL@@3P6AXXZA 1002030c     OposVariant.obj
 0002:00000310       ?_Module$initializer$@@3P6AXXZA 10020310     PINPad.obj
 0002:00000314       ??pConnMap$initializer$@?$IConnectionPointContainerImpl@VCOPOSPINPad@@@ATL@@0P6AXXZA@@3P6AXXZA 10020314     PINPad.obj
 0002:00000320       ?__scrt_initialize_tss_var@@3P6AHXZA 10020320     LIBCMT:thread_safe_statics.obj
 0002:00001980       _GS_ExceptionPointers      10021980     LIBCMT:gs_report.obj
 0002:00001b10       ?tokenTable@@3QBUStringLiteral@@B 10021b10     libvcruntime:undname.obj
 0002:00001b90       ?nameTable@@3QBUStringLiteral@@B 10021b90     libvcruntime:undname.obj
 0002:00001e28       ?rttiTable@@3QBUStringLiteral@@B 10021e28     libvcruntime:undname.obj
 0002:00001e50       ?IndirectionName@@3QBUStringLiteral@@B 10021e50     libvcruntime:undname.obj
 0002:00001e80       ?PrefixName@@3QBUStringLiteral@@B 10021e80     libvcruntime:undname.obj
 0002:000024b0       ?module_names@?A0xb97aeec8@@3QBQB_WB 100224b0     libvcruntime:winapi_downlevel.obj
 0002:00002558       ?candidate_modules@?1??try_get_FlsAlloc@@YAP6GKP6GXPAX@Z@ZXZ@4QBW4module_id@?A0xb97aeec8@@B 10022558     libvcruntime:winapi_downlevel.obj
 0002:0000256c       ?candidate_modules@?1??try_get_FlsFree@@YAP6GHK@ZXZ@4QBW4module_id@?A0xb97aeec8@@B 1002256c     libvcruntime:winapi_downlevel.obj
 0002:0000257c       ?candidate_modules@?1??try_get_FlsGetValue@@YAP6GPAXK@ZXZ@4QBW4module_id@?A0xb97aeec8@@B 1002257c     libvcruntime:winapi_downlevel.obj
 0002:00002590       ?candidate_modules@?1??try_get_FlsSetValue@@YAP6GHKPAX@ZXZ@4QBW4module_id@?A0xb97aeec8@@B 10022590     libvcruntime:winapi_downlevel.obj
 0002:000025a4       ?candidate_modules@?1??try_get_InitializeCriticalSectionEx@@YAP6GHPAU_RTL_CRITICAL_SECTION@@KK@ZXZ@4QBW4module_id@?A0xb97aeec8@@B 100225a4     libvcruntime:winapi_downlevel.obj
 0002:000025c8       ?errtable@@3QBUerrentry@?A0x31fdb9ec@@B 100225c8     libucrt:errno.obj
 0002:00002c10       ___acrt_initializers       10022c10     libucrt:initialization.obj
 0002:00002c90       ?module_names@?A0x391cf84c@@3QBQB_WB 10022c90     libucrt:winapi_thunks.obj
 0002:00003108       ?candidate_modules@?1??try_get_AreFileApisANSI@@YAP6GHXZXZ@4QBW4module_id@?A0x391cf84c@@B 10023108     libucrt:winapi_thunks.obj
 0002:0000311c       ?candidate_modules@?1??try_get_FlsAlloc@@YAP6GKP6GXPAX@Z@ZXZ@4QBW4module_id@?A0x391cf84c@@B 1002311c     libucrt:winapi_thunks.obj
 0002:00003124       ?candidate_modules@?1??try_get_FlsFree@@YAP6GHK@ZXZ@4QBW4module_id@?A0x391cf84c@@B 10023124     libucrt:winapi_thunks.obj
 0002:0000312c       ?candidate_modules@?1??try_get_FlsGetValue@@YAP6GPAXK@ZXZ@4QBW4module_id@?A0x391cf84c@@B 1002312c     libucrt:winapi_thunks.obj
 0002:00003134       ?candidate_modules@?1??try_get_FlsSetValue@@YAP6GHKPAX@ZXZ@4QBW4module_id@?A0x391cf84c@@B 10023134     libucrt:winapi_thunks.obj
 0002:0000313c       ?candidate_modules@?1??try_get_InitializeCriticalSectionEx@@YAP6GHPAU_RTL_CRITICAL_SECTION@@KK@ZXZ@4QBW4module_id@?A0x391cf84c@@B 1002313c     libucrt:winapi_thunks.obj
 0002:00003144       ?candidate_modules@?1??try_get_LCMapStringEx@@YAP6GHPB_WK0HPA_WHPAU_nlsversioninfo@@PAXJ@ZXZ@4QBW4module_id@?A0x391cf84c@@B 10023144     libucrt:winapi_thunks.obj
 0002:0000315c       ?candidate_modules@?1??try_get_LocaleNameToLCID@@YAP6GKPB_WK@ZXZ@4QBW4module_id@?A0x391cf84c@@B 1002315c     libucrt:winapi_thunks.obj
 0002:00003178       ?candidate_modules@?1??try_get_AppPolicyGetProcessTerminationMethod@@YAP6GJPAXPAW4AppPolicyProcessTerminationMethod@@@ZXZ@4QBW4module_id@?A0x391cf84c@@B 10023178     libucrt:winapi_thunks.obj
 0002:000031a4       ?candidate_modules@?1??try_get_SetThreadStackGuarantee@@YAP6GHPAK@ZXZ@4QBW4module_id@?A0x391cf84c@@B 100231a4     libucrt:winapi_thunks.obj
 0002:000031c8       ?strings@?1??fp_format_nan_or_infinity@@YAHW4__acrt_fp_class@@_NPADI1@Z@4QAY03QBDA 100231c8     libucrt:cvt.obj
 0002:00003710       ?_mb_locale_names@@3QBQB_WB 10023710     libucrt:mbctype.obj
 0002:00003f58       ?LcidToLocaleNameTable@?A0x881e4c05@@3QBULcidToLocaleName@1@B 10023f58     libucrt:lcidtoname_downlevel.obj
 0002:00005080       ?LocaleNameToIndexTable@?A0x881e4c05@@3QBULocaleNameIndex@1@B 10025080     libucrt:lcidtoname_downlevel.obj
 0002:000069c0       LOG_name                   100269c0     libucrt:log10_impl.obj
 0002:000069d0       _One                       100269d0     libucrt:ceil_pentium4.obj
 0002:000069e0       _Bns                       100269e0     libucrt:ceil_pentium4.obj
 0002:000069f0       _Zero                      100269f0     libucrt:ceil_pentium4.obj
 0002:00006a00       _S                         10026a00     libucrt:ceil_pentium4.obj
 0002:00006a10       _NegZero                   10026a10     libucrt:ceil_pentium4.obj
 0002:00006a20       emask                      10026a20     libucrt:log10_pentium4.obj
 0002:00006a30       CC                         10026a30     libucrt:log10_pentium4.obj
 0002:00006a40       Magic                      10026a40     libucrt:log10_pentium4.obj
 0002:00006a50       hi_mask                    10026a50     libucrt:log10_pentium4.obj
 0002:00006a60       LOG10_2                    10026a60     libucrt:log10_pentium4.obj
 0002:00006a70       place_L                    10026a70     libucrt:log10_pentium4.obj
 0002:00006a90       One                        10026a90     libucrt:log10_pentium4.obj
 0002:00006aa0       Zero                       10026aa0     libucrt:log10_pentium4.obj
 0002:00006ab0       Two52                      10026ab0     libucrt:log10_pentium4.obj
 0002:00006ac0       Infs                       10026ac0     libucrt:log10_pentium4.obj
 0002:00006ad0       NaN                        10026ad0     libucrt:log10_pentium4.obj
 0002:00006ae0       coeff                      10026ae0     libucrt:log10_pentium4.obj
 0002:00006b3e       _log2max                   10026b3e     libucrt:87tran.obj
 0002:00006b48       _smallarg                  10026b48     libucrt:87tran.obj
 0002:00006b52       _half                      10026b52     libucrt:87tran.obj
 0002:00006b9e       One                        10026b9e     libucrt:87disp.obj
 0002:00006ba6       Three                      10026ba6     libucrt:87disp.obj
 0002:00006bae       XAMtoTagTab                10026bae     libucrt:87disp.obj
 0002:00006bc0       One                        10026bc0     libucrt:common.obj
 0002:00006bd4       DblMax                     10026bd4     libucrt:common.obj
 0002:00006bdc       DblMin                     10026bdc     libucrt:common.obj
 0002:00006be4       IeeeAdjO                   10026be4     libucrt:common.obj
 0002:00006bec       IeeeAdjU                   10026bec     libucrt:common.obj
 0002:00006bf4       _infinity                  10026bf4     libucrt:common.obj
 0002:00006bfc       _zero                      10026bfc     libucrt:common.obj
 0002:00006c48       _over                      10026c48     libucrt:fpctrl.obj
 0002:00006c54       _under                     10026c54     libucrt:fpctrl.obj
 0002:00007488       ?_names@?1??_get_fname@@9@9 10027488     libucrt:fpexcept.obj
 0002:00007630       two32                      10027630     LIBCMT:ftol2.obj
 0002:00007634       two63                      10027634     LIBCMT:ftol2.obj
 0002:00007638       _NaN                       10027638     LIBCMT:ftol2.obj
 0002:00007d28       __sehtable$?_AtlVerifyStackAvailable@_ATL_SAFE_ALLOCA_IMPL@ATL@@YA_NK@Z 10027d28     PINPad.obj
 0002:00007d48       __sehtable$___scrt_is_nonwritable_in_current_image 10027d48     LIBCMT:utility.obj
 0002:00007d64       __catchsym$??2@YAPAXIABUnothrow_t@std@@@Z$2 10027d64     LIBCMT:new_scalar_nothrow.obj
 0002:00007d74       __unwindtable$??2@YAPAXIABUnothrow_t@std@@@Z 10027d74     LIBCMT:new_scalar_nothrow.obj
 0002:00007d84       __tryblocktable$??2@YAPAXIABUnothrow_t@std@@@Z 10027d84     LIBCMT:new_scalar_nothrow.obj
 0002:00007d98       __ehfuncinfo$??2@YAPAXIABUnothrow_t@std@@@Z 10027d98     LIBCMT:new_scalar_nothrow.obj
 0002:00007dc0       __sehtable$?dllmain_crt_process_attach@@YAHQAUHINSTANCE__@@QAX@Z 10027dc0     LIBCMT:dll_dllmain.obj
 0002:00007de0       __sehtable$?dllmain_crt_process_detach@@YAH_N@Z 10027de0     LIBCMT:dll_dllmain.obj
 0002:00007e08       __sehtable$?dllmain_dispatch@@YAHQAUHINSTANCE__@@KQAX@Z 10027e08     LIBCMT:dll_dllmain.obj
 0002:00007eb8       __sehtable$___DestructExceptionObject 10027eb8     libvcruntime:ehhelpers.obj
 0002:00007ed8       __sehtable$?FrameUnwindToState@__FrameHandler3@@SAXPAUEHRegistrationNode@@PAXPBU_s_FuncInfo@@H@Z 10027ed8     libvcruntime:frame.obj
 0002:00007f00       __sehtable$?CallCatchBlock@@YAPAXPAUEHExceptionRecord@@PAUEHRegistrationNode@@PAU_CONTEXT@@PBU_s_FuncInfo@@PAXHK@Z 10027f00     libvcruntime:frame.obj
 0002:00007f28       __catchsym$?CallUnexpected@@YAXPBU_s_ESTypeList@@@Z$2 10027f28     libvcruntime:frame.obj
 0002:00007f38       __unwindtable$?CallUnexpected@@YAXPBU_s_ESTypeList@@@Z 10027f38     libvcruntime:frame.obj
 0002:00007f48       __tryblocktable$?CallUnexpected@@YAXPBU_s_ESTypeList@@@Z 10027f48     libvcruntime:frame.obj
 0002:00007f5c       __ehfuncinfo$?CallUnexpected@@YAXPBU_s_ESTypeList@@@Z 10027f5c     libvcruntime:frame.obj
 0002:00007f80       __sehtable$??$BuildCatchObjectHelperInternal@V__FrameHandler3@@@@YAHPAUEHExceptionRecord@@PAXPBU_s_HandlerType@@PBU_s_CatchableType@@@Z 10027f80     libvcruntime:frame.obj
 0002:00007fa0       __sehtable$??$BuildCatchObjectInternal@V__FrameHandler3@@@@YAXPAUEHExceptionRecord@@PAXPBU_s_HandlerType@@PBU_s_CatchableType@@@Z 10027fa0     libvcruntime:frame.obj
 0002:00007ff8       __sehtable$??R<lambda_6e4b09c48022b2350581041d5f6b0c4c>@@QBE@XZ 10027ff8     libucrt:exit.obj
 0002:00008018       __sehtable$??$?RV<lambda_03b1d95aef87969028cfba75ccab2455>@@AAV<lambda_6e4b09c48022b2350581041d5f6b0c4c>@@V<lambda_22bdf7517842c4b3e53723af5aa32b9e>@@@?$__crt_seh_guarded_call@X@@QAEX$$QAV<lambda_03b1d95aef87969028cfba75ccab2455>@@AAV<lambda_6e4b09c48022b2350581041d5f6b0c4c>@@$$QAV<lambda_22bdf7517842c4b3e53723af5aa32b9e>@@@Z 10028018     libucrt:exit.obj
 0002:00008038       __sehtable$??$?RV<lambda_8e746cf0007f6ed984d6f78af1fec997>@@AAV<lambda_22ebabd17bc4fa466a2aca6d8deb888d>@@V<lambda_18ed0c0b38a6dc0daf1e7ac6d6adf05e>@@@?$__crt_seh_guarded_call@H@@QAEH$$QAV<lambda_8e746cf0007f6ed984d6f78af1fec997>@@AAV<lambda_22ebabd17bc4fa466a2aca6d8deb888d>@@$$QAV<lambda_18ed0c0b38a6dc0daf1e7ac6d6adf05e>@@@Z 10028038     libucrt:onexit.obj
 0002:00008058       __sehtable$??$?RV<lambda_69a2805e680e0e292e8ba93315fe43a8>@@AAV<lambda_f03950bc5685219e0bcd2087efbe011e>@@V<lambda_03fcd07e894ec930e3f35da366ca99d6>@@@?$__crt_seh_guarded_call@H@@QAEH$$QAV<lambda_69a2805e680e0e292e8ba93315fe43a8>@@AAV<lambda_f03950bc5685219e0bcd2087efbe011e>@@$$QAV<lambda_03fcd07e894ec930e3f35da366ca99d6>@@@Z 10028058     libucrt:onexit.obj
 0002:00008078       __sehtable$__query_new_handler 10028078     libucrt:new_handler.obj
 0002:00008098       __sehtable$_terminate      10028098     libucrt:terminate.obj
 0002:000080b8       __sehtable$??$?RV<lambda_15ade71b0218206bbe3333a0c9b79046>@@AAV<lambda_da44e0f8b0f19ba52fefafb335991732>@@V<lambda_207f2d024fc103971653565357d6cd41>@@@?$__crt_seh_guarded_call@X@@QAEX$$QAV<lambda_15ade71b0218206bbe3333a0c9b79046>@@AAV<lambda_da44e0f8b0f19ba52fefafb335991732>@@$$QAV<lambda_207f2d024fc103971653565357d6cd41>@@@Z 100280b8     libucrt:per_thread_data.obj
 0002:000080d8       __sehtable$??$?RV<lambda_a7e850c220f1c8d1e6efeecdedd162c6>@@AAV<lambda_46720907175c18b6c9d2717bc0d2d362>@@V<lambda_9048902d66e8d99359bc9897bbb930a8>@@@?$__crt_seh_guarded_call@X@@QAEX$$QAV<lambda_a7e850c220f1c8d1e6efeecdedd162c6>@@AAV<lambda_46720907175c18b6c9d2717bc0d2d362>@@$$QAV<lambda_9048902d66e8d99359bc9897bbb930a8>@@@Z 100280d8     libucrt:per_thread_data.obj
 0002:000080f8       __sehtable$??$?RV<lambda_38edbb1296d33220d7e4dd0ed76b244a>@@AAV<lambda_5ce1d447e08cb34b2473517608e21441>@@V<lambda_fb385d3da700c9147fc39e65dd577a8c>@@@?$__crt_seh_guarded_call@X@@QAEX$$QAV<lambda_38edbb1296d33220d7e4dd0ed76b244a>@@AAV<lambda_5ce1d447e08cb34b2473517608e21441>@@$$QAV<lambda_fb385d3da700c9147fc39e65dd577a8c>@@@Z 100280f8     libucrt:per_thread_data.obj
 0002:00008118       __sehtable$??$?RV<lambda_6affb1475c98b40b75cdec977db92e3c>@@AAV<lambda_b8d4b9c228a6ecc3f80208dbb4b4a104>@@V<lambda_608742c3c92a14382c1684fc64f96c88>@@@?$__crt_seh_guarded_call@X@@QAEX$$QAV<lambda_6affb1475c98b40b75cdec977db92e3c>@@AAV<lambda_b8d4b9c228a6ecc3f80208dbb4b4a104>@@$$QAV<lambda_608742c3c92a14382c1684fc64f96c88>@@@Z 10028118     libucrt:per_thread_data.obj
 0002:00008138       __sehtable$??$?RV<lambda_e5124f882df8998aaf41531e079ba474>@@AAV<lambda_3e16ef9562a7dcce91392c22ab16ea36>@@V<lambda_e25ca0880e6ef98be67edffd8c599615>@@@?$__crt_seh_guarded_call@X@@QAEX$$QAV<lambda_e5124f882df8998aaf41531e079ba474>@@AAV<lambda_3e16ef9562a7dcce91392c22ab16ea36>@@$$QAV<lambda_e25ca0880e6ef98be67edffd8c599615>@@@Z 10028138     libucrt:wsetlocale.obj
 0002:00008158       __sehtable$___acrt_initialize_lowio 10028158     libucrt:ioinit.obj
 0002:00008178       __sehtable$?update_thread_multibyte_data_internal@@YAPAU__crt_multibyte_data@@QAU__acrt_ptd@@QAPAU1@@Z 10028178     libucrt:mbctype.obj
 0002:00008198       __sehtable$??$?RV<lambda_ceb1ee4838e85a9d631eb091e2fbe199>@@AAV<lambda_ae742caa10f662c28703da3d2ea5e57e>@@V<lambda_cd08b5d6af4937fe54fc07d0c9bf6b37>@@@?$__crt_seh_guarded_call@X@@QAEX$$QAV<lambda_ceb1ee4838e85a9d631eb091e2fbe199>@@AAV<lambda_ae742caa10f662c28703da3d2ea5e57e>@@$$QAV<lambda_cd08b5d6af4937fe54fc07d0c9bf6b37>@@@Z 10028198     libucrt:mbctype.obj
 0002:000081b8       __sehtable$_raise          100281b8     libucrt:signal.obj
 0002:000081d8       __sehtable$??$?RV<lambda_cbab9ec6f41b0180b23cc171c22676b0>@@AAV<lambda_44731a7d0e6d81c3e6aa82d741081786>@@V<lambda_4b292cb8dd18144e164572427af410ab>@@@?$__crt_seh_guarded_call@P6AXH@Z@@QAEP6AXH@Z$$QAV<lambda_cbab9ec6f41b0180b23cc171c22676b0>@@AAV<lambda_44731a7d0e6d81c3e6aa82d741081786>@@$$QAV<lambda_4b292cb8dd18144e164572427af410ab>@@@Z 100281d8     libucrt:signal.obj
 0002:000081f8       __sehtable$??$?RV<lambda_2866be3712abc81a800a822484c830d8>@@AAV<lambda_39ca0ed439415581b5b15c265174cece>@@V<lambda_2b24c74d71094a6cd0cb82e44167d71b>@@@?$__crt_seh_guarded_call@X@@QAEX$$QAV<lambda_2866be3712abc81a800a822484c830d8>@@AAV<lambda_39ca0ed439415581b5b15c265174cece>@@$$QAV<lambda_2b24c74d71094a6cd0cb82e44167d71b>@@@Z 100281f8     libucrt:fflush.obj
 0002:00008218       __sehtable$??$?RV<lambda_2cc53f568c5a2bb6f192f930a45d44ea>@@AAV<lambda_ab61a845afdef5b7c387490eaf3616ee>@@V<lambda_c2ffc0b7726aa6be21d5f0026187e748>@@@?$__crt_seh_guarded_call@X@@QAEX$$QAV<lambda_2cc53f568c5a2bb6f192f930a45d44ea>@@AAV<lambda_ab61a845afdef5b7c387490eaf3616ee>@@$$QAV<lambda_c2ffc0b7726aa6be21d5f0026187e748>@@@Z 10028218     libucrt:fflush.obj
 0002:00008238       __sehtable$___acrt_update_thread_locale_data 10028238     libucrt:locale_refcounting.obj
 0002:00008258       __sehtable$__fcloseall     10028258     libucrt:closeall.obj
 0002:00008278       __sehtable$___acrt_lowio_ensure_fh_exists 10028278     libucrt:osfinfo.obj
 0002:00008298       __sehtable$??$?RV<lambda_9e9de3de5fa147e2223d7db92bc10aa6>@@AAV<lambda_38ce7e780aa69e748d6df282ebc68efe>@@V<lambda_8ca6da459f0f6780f1cff60fdc3d00e5>@@@?$__crt_seh_guarded_call@H@@QAEH$$QAV<lambda_9e9de3de5fa147e2223d7db92bc10aa6>@@AAV<lambda_38ce7e780aa69e748d6df282ebc68efe>@@$$QAV<lambda_8ca6da459f0f6780f1cff60fdc3d00e5>@@@Z 10028298     libucrt:commit.obj
 0002:000082b8       __sehtable$__write         100282b8     libucrt:write.obj
 0002:000082d8       __sehtable$_fclose         100282d8     libucrt:fclose.obj
 0002:000082f8       __sehtable$??$?RV<lambda_218ce3db14220d0be481dae8ef3383b6>@@AAV<lambda_628dfdc04ba53c8bfc02c9951375f3f5>@@V<lambda_57dc472bd5c9d5f3b2cbca59b8a843ae>@@@?$__crt_seh_guarded_call@H@@QAEH$$QAV<lambda_218ce3db14220d0be481dae8ef3383b6>@@AAV<lambda_628dfdc04ba53c8bfc02c9951375f3f5>@@$$QAV<lambda_57dc472bd5c9d5f3b2cbca59b8a843ae>@@@Z 100282f8     libucrt:close.obj
 0002:00008318       __sehtable$___set_fpsr_sse2 10028318     libucrt:fpctrl.obj
 0002:00008338       __sehtable$__IsNonwritableInCurrentImage 10028338     LIBCMT:pesect.obj
 0002:00008360       .edata                     10028360     OPOSPINPad.exp
 0002:00008388       rgpv                       10028388     OPOSPINPad.exp
 0002:00008398       rgszName                   10028398     OPOSPINPad.exp
 0002:000083a8       rgwOrd                     100283a8     OPOSPINPad.exp
 0002:000083b0       szName                     100283b0     OPOSPINPad.exp
 0002:000083bf       $N00001                    100283bf     OPOSPINPad.exp
 0002:000083cf       $N00002                    100283cf     OPOSPINPad.exp
 0002:000083e1       $N00003                    100283e1     OPOSPINPad.exp
 0002:000083f3       $N00004                    100283f3     OPOSPINPad.exp
 0002:00008a02       .idata$6                   10028a02     kernel32:KERNEL32.dll
 0002:00008c16       .idata$6                   10028c16     user32:USER32.dll
 0002:00008d4a       .idata$6                   10028d4a     gdi32:GDI32.dll
 0002:00008df0       .idata$6                   10028df0     advapi32:ADVAPI32.dll
 0002:00008f0c       .idata$6                   10028f0c     ole32:ole32.dll
 0002:00008f16       .idata$6                   10028f16     oleaut32:OLEAUT32.dll
 0003:00000110       ?ObjectMap@@3PAU_ATL_OBJMAP_ENTRY30@ATL@@A 1002a110     PINPad.obj
 0003:000001c0       ?s_SOMethodNames@@3PAPADA  1002a1c0     PINPadImpl.obj
 0003:0000022c       ?s_RequiredMethodsPerRelease@@3PAHA 1002a22c     PINPadImpl.obj
 0003:00000270       ?__vcrt_flsindex@@3KA      1002a270     libvcruntime:per_thread_data.obj
 0003:00000290       ?errno_no_memory@@3HA      1002a290     libucrt:errno.obj
 0003:00000294       ?doserrno_no_memory@@3KA   1002a294     libucrt:errno.obj
 0003:000002a0       ?__acrt_flsindex@@3KA      1002a2a0     libucrt:per_thread_data.obj
 0003:00000638       __mbctypes                 1002a638     libucrt:mbctype.obj
 0003:00000740       __mbcasemaps               1002a740     libucrt:mbctype.obj
 0003:00000840       ?__rgctypeflag@@3PADA      1002a840     libucrt:mbctype.obj
 0003:00000848       ?__rgcode_page_info@@3PAUcode_page_info@@A 1002a848     libucrt:mbctype.obj
 0003:00000aa0       ?__dcrt_lowio_console_output_handle@@3PAXA 1002aaa0     libucrt:initcon.obj
 0003:00000aa4       ?__DAZ_ENABLED@?1??__set_fpsr_sse2@@9@9 1002aaa4     libucrt:fpctrl.obj
 0003:00000c38       ?is_initialized_as_dll@@3_NA 1002ac38     LIBCMT:utility.obj
 0003:00000c39       ?module_local_atexit_table_initialized@@3_NA 1002ac39     LIBCMT:utility.obj
 0003:00000c3c       ?module_local_atexit_table@@3U_onexit_table_t@@A 1002ac3c     LIBCMT:utility.obj
 0003:00000c48       ?module_local_at_quick_exit_table@@3U_onexit_table_t@@A 1002ac48     LIBCMT:utility.obj
 0003:00000c54       ?g_tss_cv@@3U_RTL_CONDITION_VARIABLE@@A 1002ac54     LIBCMT:thread_safe_statics.obj
 0003:00000c58       ?g_tss_event@@3PAXA        1002ac58     LIBCMT:thread_safe_statics.obj
 0003:00000c5c       ?g_tss_mutex@@3U_RTL_CRITICAL_SECTION@@A 1002ac5c     LIBCMT:thread_safe_statics.obj
 0003:00000c74       ?g_sleep_condition_variable_cs@@3P6GHPAU_RTL_CONDITION_VARIABLE@@PAU_RTL_CRITICAL_SECTION@@K@ZA 1002ac74     LIBCMT:thread_safe_statics.obj
 0003:00000c78       ?g_wake_all_condition_variable@@3P6GXPAU_RTL_CONDITION_VARIABLE@@@ZA 1002ac78     LIBCMT:thread_safe_statics.obj
 0003:00000c80       _GS_ExceptionRecord        1002ac80     LIBCMT:gs_report.obj
 0003:00000cd0       _GS_ContextRecord          1002acd0     LIBCMT:gs_report.obj
 0003:00000fa0       ?__proc_attached@@3HA      1002afa0     LIBCMT:dll_dllmain.obj
 0003:00001004       ?AllocateData@@3P6GPAUAtlThunkData_t@@XZA 1002b004     atls:atlthunk.obj
 0003:00001008       ?InitData@@3P6GXPAUAtlThunkData_t@@PAXI@ZA 1002b008     atls:atlthunk.obj
 0003:0000100c       ?DataToCode@@3P6GP6GJPAUHWND__@@IIJ@ZPAUAtlThunkData_t@@@ZA 1002b00c     atls:atlthunk.obj
 0003:00001010       ?FreeData@@3P6GXPAUAtlThunkData_t@@@ZA 1002b010     atls:atlthunk.obj
 0003:00001014       ?Initialized@@3_NA         1002b014     atls:atlthunk.obj
 0003:00001024       ?__vcrt_startup_thread_ptd@@3U__vcrt_ptd@@A 1002b024     libvcruntime:per_thread_data.obj
 0003:0000104c       ___vcrt_lock_table         1002b04c     libvcruntime:locks.obj
 0003:00001064       ___vcrt_locks_initialized  1002b064     libvcruntime:locks.obj
 0003:00001090       ?heap@@3V_HeapManager@@A   1002b090     libvcruntime:undname.obj
 0003:000010a4       ?module_handles@@3PAPAUHINSTANCE__@@A 1002b0a4     libvcruntime:winapi_downlevel.obj
 0003:000010b0       ?function_pointers@@3PAPAXA 1002b0b0     libvcruntime:winapi_downlevel.obj
 0003:000010c4       ?__acrt_invalid_parameter_handler@@3V?$dual_state_global@P6AXPB_W00II@Z@__crt_state_management@@A 1002b0c4     libucrt:invalid_parameter.obj
 0003:000010c8       ?c_termination_complete@@3JA 1002b0c8     libucrt:exit.obj
 0003:000010cc       ?thread_local_exit_callback_func@@3P6GXPAXK0@ZA 1002b0cc     libucrt:exit.obj
 0003:000010d8       ?program_name@?1???$common_configure_argv@D@@YAHW4_crt_argv_mode@@@Z@4PADA 1002b0d8     libucrt:argv_parsing.obj
 0003:00001208       ?__acrt_new_handler@@3V?$dual_state_global@P6AHI@Z@__crt_state_management@@A 1002b208     libucrt:new_handler.obj
 0003:00001210       ?module_handles@@3PAPAUHINSTANCE__@@A 1002b210     libucrt:winapi_thunks.obj
 0003:00001260       ?encoded_function_pointers@@3PAPAXA 1002b260     libucrt:winapi_thunks.obj
 0003:000012e8       ?internal_state@?1??_mbtowc_l@@9@4U_Mbstatet@@A 1002b2e8     libucrt:mbtowc.obj
 0003:000012f8       ?enable_percent_n@@3IA     1002b2f8     libucrt:printf_count_output.obj
 0003:00001518       ?__acrt_lock_table@@3PAU_RTL_CRITICAL_SECTION@@A 1002b518     libucrt:locks.obj
 0003:00001668       ?__acrt_locks_initialized@@3IA 1002b668     libucrt:locks.obj
 0003:00001678       ?fSystemSet@@3HA           1002b678     libucrt:mbctype.obj
 0003:0000167c       ?initialized@?1??__acrt_initialize_multibyte@@9@4_NA 1002b67c     libucrt:mbctype.obj
 0003:0000169c       ?ctrlc_action@@3V?$dual_state_global@P6AXH@Z@__crt_state_management@@A 1002b69c     libucrt:signal.obj
 0003:000016a0       ?ctrlbreak_action@@3V?$dual_state_global@P6AXH@Z@__crt_state_management@@A 1002b6a0     libucrt:signal.obj
 0003:000016a4       ?abort_action@@3V?$dual_state_global@P6AXH@Z@__crt_state_management@@A 1002b6a4     libucrt:signal.obj
 0003:000016a8       ?term_action@@3V?$dual_state_global@P6AXH@Z@__crt_state_management@@A 1002b6a8     libucrt:signal.obj
 0003:000016ac       ?user_matherr@@3V?$dual_state_global@P6AHPAU_exception@@@Z@__crt_state_management@@A 1002b6ac     libucrt:matherr.obj
 0003:000016b0       ?__acrt_global_new_mode@@3V?$dual_state_global@J@__crt_state_management@@A 1002b6b0     libucrt:new_mode.obj
 0003:000016bc       ?internal_pst@?1??__mbrtoc32_utf8@__crt_mbstring@@YAIPA_UPBDIPAU_Mbstatet@@@Z@4U3@A 1002b6bc     libucrt:mbrtoc32.obj
 0003:000016c4       ?__acrt_app_type@@3W4_crt_app_type@@A 1002b6c4     libucrt:report_runtime_error.obj
 0003:000016cc       __pmatherr_set             1002b6cc     libucrt:libm_error.obj
 0004:00000220       $R000000                   1002c220     PINPad.res
 0004:00000ba0       $R000980                   1002cba0     PINPad.res
 0004:00000c88       $R000A68                   1002cc88     PINPad.res
 0004:00000ef0       $R000CD0                   1002cef0     PINPad.res
 0004:00001438       $R001218                   1002d438     PINPad.res
 0004:00004c18       $R0049F8                   10030c18     PINPad.res
 0004:00004c48       $R004A28                   10030c48     PINPad.res
