 OPOSMICR

 Timestamp is 5ed458bb (Mon Jun  1 10:24:11 2020)

 Preferred load address is 10000000

 Start         Length     Name                   Class
 0001:00000000 00000080H .text$di                CODE
 0001:00000080 0001e1c3H .text$mn                CODE
 0001:0001e243 00000036H .text$x                 CODE
 0001:0001e279 00000042H .text$yd                CODE
 0002:00000000 000002fcH .idata$5                DATA
 0002:000002fc 00000004H .00cfg                  DATA
 0002:00000300 00000004H .CRT$XCA                DATA
 0002:00000304 00000004H .CRT$XCL                DATA
 0002:00000308 00000010H .CRT$XCU                DATA
 0002:00000318 00000004H .CRT$XCZ                DATA
 0002:0000031c 00000004H .CRT$XIA                DATA
 0002:00000320 00000010H .CRT$XIC                DATA
 0002:00000330 00000004H .CRT$XIZ                DATA
 0002:00000334 00000004H .CRT$XLA                DATA
 0002:00000338 00000004H .CRT$XLZ                DATA
 0002:0000033c 00000004H .CRT$XPA                DATA
 0002:00000340 00000008H .CRT$XPX                DATA
 0002:00000348 00000004H .CRT$XPXA               DATA
 0002:0000034c 00000004H .CRT$XPZ                DATA
 0002:00000350 00000004H .CRT$XTA                DATA
 0002:00000354 0000000cH .CRT$XTZ                DATA
 0002:00000358 00000000H .gfids$y                DATA
 0002:00000360 000072d8H .rdata                  DATA
 0002:00007638 00000018H .rdata$T                DATA
 0002:00007650 00000178H .rdata$r                DATA
 0002:000077c8 0000001cH .rdata$sxdata           DATA
 0002:000077e4 000003d8H .rdata$zzzdbg           DATA
 0002:00007bbc 00000004H .rtc$IAA                DATA
 0002:00007bc0 00000004H .rtc$IZZ                DATA
 0002:00007bc4 00000004H .rtc$TAA                DATA
 0002:00007bc8 00000004H .rtc$TZZ                DATA
 0002:00007bcc 00000004H .tls                    DATA
 0002:00007bd0 00000004H .tls$                   DATA
 0002:00007bd4 00000004H .tls$ZZZ                DATA
 0002:00007bd8 0000062cH .xdata$x                DATA
 0002:00008204 00000004H ATL$__a                 DATA
 0002:00008208 00000008H ATL$__z                 DATA
 0002:00008210 000000a8H .edata                  DATA
 0002:000082b8 00000078H .idata$2                DATA
 0002:00008330 00000014H .idata$3                DATA
 0002:00008344 000002fcH .idata$4                DATA
 0002:00008640 00000bceH .idata$6                DATA
 0003:00000000 00000ab0H .data                   DATA
 0003:00000ab0 00000098H .data$r                 DATA
 0003:00000b48 00000b80H .bss                    DATA
 0004:00000000 00000220H .rsrc$01                DATA
 0004:00000220 00004038H .rsrc$02                DATA

  Address         Publics by Value              Rva+Base       Lib:Object

 0000:00000000       ___arm64x_redirection_metadata 00000000     <absolute>
 0000:00000000       ___guard_iat_count         00000000     <absolute>
 0000:00000000       ___x64_code_ranges_to_entry_points 00000000     <absolute>
 0000:00000000       ___guard_fids_count        00000000     <absolute>
 0000:00000000       ___guard_longjmp_table     00000000     <absolute>
 0000:00000000       ___hybrid_code_map_count   00000000     <absolute>
 0000:00000000       ___dynamic_value_reloc_table 00000000     <absolute>
 0000:00000000       ___guard_longjmp_count     00000000     <absolute>
 0000:00000000       __except_list              00000000     <absolute>
 0000:00000000       ___arm64x_native_entrypoint 00000000     <absolute>
 0000:00000000       ___guard_fids_table        00000000     <absolute>
 0000:00000000       ___guard_eh_cont_count     00000000     <absolute>
 0000:00000000       ___hybrid_auxiliary_iat    00000000     <absolute>
 0000:00000000       ___guard_iat_table         00000000     <absolute>
 0000:00000000       ___volatile_metadata       00000000     <absolute>
 0000:00000000       ___enclave_config          00000000     <absolute>
 0000:00000000       ___AbsoluteZero            00000000     <absolute>
 0000:00000000       ___guard_eh_cont_table     00000000     <absolute>
 0000:00000000       ___hybrid_code_map         00000000     <absolute>
 0000:00000007       ___safe_se_handler_count   00000007     <absolute>
 0000:0000002c       __tls_array                0000002c     <absolute>
 0000:00000100       ___guard_flags             00000100     <absolute>
 0000:00000000       ___ImageBase               10000000     <linker-defined>
 0001:00000080       ?DupWide@_CW@@AAEXXZ       10001080 f   CWString.obj
 0001:0000009c       ?cw_dup@@YGXPBDAAHAAPA_W1@Z 1000109c f   CWString.obj
 0001:00000124       ?cw_memcpy@@YGHPA_WPBDH@Z  10001124 f   CWString.obj
 0001:00000150       ?cw_strcpy@@YAHPA_WPBD@Z   10001150 f   CWString.obj
 0001:00000163       ?cw_strlen@@YAHPBD@Z       10001163 f   CWString.obj
 0001:0000017c       ??0CAtlComModule@ATL@@QAE@XZ 1000117c f i OposVariant.obj
 0001:000001c1       ??0CAtlWinModule@ATL@@QAE@XZ 100011c1 f i OposVariant.obj
 0001:000001f8       ??0OposDispParms@@QAE@PAVOposVariant@@H@Z 100011f8 f   OposVariant.obj
 0001:00000269       ??1OposDispParms@@QAE@XZ   10001269 f   OposVariant.obj
 0001:00000277       ??A?$CSimpleArray@GV?$CSimpleArrayEqualHelper@G@ATL@@@ATL@@QAEAAGH@Z 10001277 f i OposVariant.obj
 0001:0000029c       ??_Estringdispid@CComTypeInfoHolder@ATL@@QAEPAXI@Z 1000129c f i OposVariant.obj
 0001:00000308       ?AtlWinModuleInit@ATL@@YGJPAU_ATL_WIN_MODULE70@1@@Z 10001308 f i OposVariant.obj
 0001:0000032e       ?AtlWinModuleTerm@ATL@@YGJPAU_ATL_WIN_MODULE70@1@PAUHINSTANCE__@@@Z 1000132e f i OposVariant.obj
 0001:00000391       ?ChangeBSTR@OposVariant@@QAEXPAPA_WAAJ@Z 10001391 f   OposVariant.obj
 0001:000003d2       ?ChangeLONG@OposVariant@@QAEXPAJAAJ@Z 100013d2 f   OposVariant.obj
 0001:00000413       ?GetLONG@OposVariant@@QAEJXZ 10001413 f   OposVariant.obj
 0001:0000042e       ?Init@CComCriticalSection@ATL@@QAEJXZ 1000142e f i OposVariant.obj
 0001:00000456       ?RemoveAll@?$CSimpleArray@PAUHINSTANCE__@@V?$CSimpleArrayEqualHelper@PAUHINSTANCE__@@@ATL@@@ATL@@QAEXXZ 10001456 f i atls:atlbase.obj
 0001:00000456       ?RemoveAll@?$CSimpleArray@GV?$CSimpleArrayEqualHelper@G@ATL@@@ATL@@QAEXXZ 10001456 f i OposVariant.obj
 0001:00000473       ?SetBSTR@OposVariant@@QAEXPA_WAAJ@Z 10001473 f   OposVariant.obj
 0001:000004a7       ?SetBSTR_Copy@OposVariant@@QAEXPA_WAAJ@Z 100014a7 f   OposVariant.obj
 0001:000004f7       ?SetBSTR_InOutPtr@OposVariant@@QAE_NPAPA_WAAJ@Z 100014f7 f   OposVariant.obj
 0001:0000052e       ?SetDispatch_Ptr@OposVariant@@QAEXPAUIDispatch@@AAJ@Z 1000152e f   OposVariant.obj
 0001:00000569       ?SetLONG@OposVariant@@QAEXJ@Z 10001569 f   OposVariant.obj
 0001:0000058b       ?SetLONG_Ptr@OposVariant@@QAEXPAJAAJ@Z 1000158b f   OposVariant.obj
 0001:000005be       ?SetString@OposVariant@@QAEXPB_WAAJ@Z 100015be f   OposVariant.obj
 0001:00000604       ?SetVARIANT_BOOL@OposVariant@@QAEXF@Z 10001604 f   OposVariant.obj
 0001:0000062e       ?Term@CAtlComModule@ATL@@QAEXXZ 1000162e f i OposVariant.obj
 0001:00000678       ?_AtlRaiseException@ATL@@YAXKK@Z 10001678 f i OposVariant.obj
 0001:0000068d       ?QueryInterface@?$CComObject@VCOPOSMICR@@@ATL@@WJI@AGJABU_GUID@@PAPAX@Z 1000168d f i MICR.obj
 0001:0000069a       ?AddRef@?$CComObject@VCOPOSMICR@@@ATL@@WJI@AGKXZ 1000169a f i MICR.obj
 0001:000006a7       ?Release@?$CComObject@VCOPOSMICR@@@ATL@@WJI@AGKXZ 100016a7 f i MICR.obj
 0001:000006b4       ?QueryInterface@?$CComObject@VCOPOSMICR@@@ATL@@WJM@AGJABU_GUID@@PAPAX@Z 100016b4 f i MICR.obj
 0001:000006c1       ?AddRef@?$CComObject@VCOPOSMICR@@@ATL@@WJM@AGKXZ 100016c1 f i MICR.obj
 0001:000006ce       ?Release@?$CComObject@VCOPOSMICR@@@ATL@@WJM@AGKXZ 100016ce f i MICR.obj
 0001:000006db       ?QueryInterface@?$CComObject@VCOPOSMICR@@@ATL@@WKA@AGJABU_GUID@@PAPAX@Z 100016db f i MICR.obj
 0001:000006e8       ?AddRef@?$CComObject@VCOPOSMICR@@@ATL@@WKA@AGKXZ 100016e8 f i MICR.obj
 0001:000006f5       ?Release@?$CComObject@VCOPOSMICR@@@ATL@@WKA@AGKXZ 100016f5 f i MICR.obj
 0001:00000702       ?AddRef@?$CComObject@VCOPOSMICR@@@ATL@@WKI@AGKXZ 10001702 f i MICR.obj
 0001:0000070f       ?Release@?$CComObject@VCOPOSMICR@@@ATL@@WKI@AGKXZ 1000170f f i MICR.obj
 0001:0000071c       ?AddRef@?$CComObject@VCOPOSMICR@@@ATL@@WLE@AGKXZ 1000171c f i MICR.obj
 0001:00000729       ?Release@?$CComObject@VCOPOSMICR@@@ATL@@WLE@AGKXZ 10001729 f i MICR.obj
 0001:00000736       ??_E?$CComContainedObject@VCOPOSMICR@@@ATL@@W3AEPAXI@Z 10001736 f i MICR.obj
 0001:0000073e       ??_E?$CComContainedObject@VCOPOSMICR@@@ATL@@WEM@AEPAXI@Z 1000173e f i MICR.obj
 0001:00000746       ?QueryInterface@?$CComContainedObject@VCOPOSMICR@@@ATL@@WHA@AGJABU_GUID@@PAPAX@Z 10001746 f i MICR.obj
 0001:00000750       ?AddRef@?$CComContainedObject@VCOPOSMICR@@@ATL@@WHA@AGKXZ 10001750 f i MICR.obj
 0001:0000075a       ?Release@?$CComContainedObject@VCOPOSMICR@@@ATL@@WHA@AGKXZ 1000175a f i MICR.obj
 0001:00000764       ?QueryInterface@?$CComContainedObject@VCOPOSMICR@@@ATL@@WHE@AGJABU_GUID@@PAPAX@Z 10001764 f i MICR.obj
 0001:0000076e       ?AddRef@?$CComContainedObject@VCOPOSMICR@@@ATL@@WHE@AGKXZ 1000176e f i MICR.obj
 0001:00000778       ?Release@?$CComContainedObject@VCOPOSMICR@@@ATL@@WHE@AGKXZ 10001778 f i MICR.obj
 0001:00000782       ?QueryInterface@?$CComContainedObject@VCOPOSMICR@@@ATL@@WHI@AGJABU_GUID@@PAPAX@Z 10001782 f i MICR.obj
 0001:0000078c       ?AddRef@?$CComContainedObject@VCOPOSMICR@@@ATL@@WHI@AGKXZ 1000178c f i MICR.obj
 0001:00000796       ?Release@?$CComContainedObject@VCOPOSMICR@@@ATL@@WHI@AGKXZ 10001796 f i MICR.obj
 0001:000007a0       ?QueryInterface@?$CComContainedObject@VCOPOSMICR@@@ATL@@WHM@AGJABU_GUID@@PAPAX@Z 100017a0 f i MICR.obj
 0001:000007aa       ?AddRef@?$CComContainedObject@VCOPOSMICR@@@ATL@@WHM@AGKXZ 100017aa f i MICR.obj
 0001:000007b4       ?Release@?$CComContainedObject@VCOPOSMICR@@@ATL@@WHM@AGKXZ 100017b4 f i MICR.obj
 0001:000007be       ?QueryInterface@?$CComContainedObject@VCOPOSMICR@@@ATL@@WIA@AGJABU_GUID@@PAPAX@Z 100017be f i MICR.obj
 0001:000007cb       ?AddRef@?$CComContainedObject@VCOPOSMICR@@@ATL@@WIA@AGKXZ 100017cb f i MICR.obj
 0001:000007d8       ?Release@?$CComContainedObject@VCOPOSMICR@@@ATL@@WIA@AGKXZ 100017d8 f i MICR.obj
 0001:000007e5       ?QueryInterface@?$CComContainedObject@VCOPOSMICR@@@ATL@@WIE@AGJABU_GUID@@PAPAX@Z 100017e5 f i MICR.obj
 0001:000007f2       ?AddRef@?$CComContainedObject@VCOPOSMICR@@@ATL@@WIE@AGKXZ 100017f2 f i MICR.obj
 0001:000007ff       ?Release@?$CComContainedObject@VCOPOSMICR@@@ATL@@WIE@AGKXZ 100017ff f i MICR.obj
 0001:0000080c       ?QueryInterface@?$CComContainedObject@VCOPOSMICR@@@ATL@@WII@AGJABU_GUID@@PAPAX@Z 1000180c f i MICR.obj
 0001:00000819       ?AddRef@?$CComContainedObject@VCOPOSMICR@@@ATL@@WII@AGKXZ 10001819 f i MICR.obj
 0001:00000826       ?Release@?$CComContainedObject@VCOPOSMICR@@@ATL@@WII@AGKXZ 10001826 f i MICR.obj
 0001:00000833       ?QueryInterface@?$CComContainedObject@VCOPOSMICR@@@ATL@@WIM@AGJABU_GUID@@PAPAX@Z 10001833 f i MICR.obj
 0001:00000840       ?AddRef@?$CComContainedObject@VCOPOSMICR@@@ATL@@WIM@AGKXZ 10001840 f i MICR.obj
 0001:0000084d       ?Release@?$CComContainedObject@VCOPOSMICR@@@ATL@@WIM@AGKXZ 1000184d f i MICR.obj
 0001:0000085a       ?QueryInterface@?$CComContainedObject@VCOPOSMICR@@@ATL@@WJA@AGJABU_GUID@@PAPAX@Z 1000185a f i MICR.obj
 0001:00000867       ?AddRef@?$CComContainedObject@VCOPOSMICR@@@ATL@@WJA@AGKXZ 10001867 f i MICR.obj
 0001:00000874       ?Release@?$CComContainedObject@VCOPOSMICR@@@ATL@@WJA@AGKXZ 10001874 f i MICR.obj
 0001:00000881       ?QueryInterface@?$CComContainedObject@VCOPOSMICR@@@ATL@@WJE@AGJABU_GUID@@PAPAX@Z 10001881 f i MICR.obj
 0001:0000088e       ?AddRef@?$CComContainedObject@VCOPOSMICR@@@ATL@@WJE@AGKXZ 1000188e f i MICR.obj
 0001:0000089b       ?Release@?$CComContainedObject@VCOPOSMICR@@@ATL@@WJE@AGKXZ 1000189b f i MICR.obj
 0001:000008a8       ?QueryInterface@?$CComContainedObject@VCOPOSMICR@@@ATL@@WJI@AGJABU_GUID@@PAPAX@Z 100018a8 f i MICR.obj
 0001:000008b5       ?AddRef@?$CComContainedObject@VCOPOSMICR@@@ATL@@WJI@AGKXZ 100018b5 f i MICR.obj
 0001:000008c2       ?Release@?$CComContainedObject@VCOPOSMICR@@@ATL@@WJI@AGKXZ 100018c2 f i MICR.obj
 0001:000008cf       ?QueryInterface@?$CComContainedObject@VCOPOSMICR@@@ATL@@WJM@AGJABU_GUID@@PAPAX@Z 100018cf f i MICR.obj
 0001:000008dc       ?AddRef@?$CComContainedObject@VCOPOSMICR@@@ATL@@WJM@AGKXZ 100018dc f i MICR.obj
 0001:000008e9       ?Release@?$CComContainedObject@VCOPOSMICR@@@ATL@@WJM@AGKXZ 100018e9 f i MICR.obj
 0001:000008f6       ?QueryInterface@?$CComContainedObject@VCOPOSMICR@@@ATL@@WKA@AGJABU_GUID@@PAPAX@Z 100018f6 f i MICR.obj
 0001:00000903       ?AddRef@?$CComContainedObject@VCOPOSMICR@@@ATL@@WKA@AGKXZ 10001903 f i MICR.obj
 0001:00000910       ?Release@?$CComContainedObject@VCOPOSMICR@@@ATL@@WKA@AGKXZ 10001910 f i MICR.obj
 0001:0000091d       ?AddRef@?$CComContainedObject@VCOPOSMICR@@@ATL@@WKI@AGKXZ 1000191d f i MICR.obj
 0001:0000092a       ?Release@?$CComContainedObject@VCOPOSMICR@@@ATL@@WKI@AGKXZ 1000192a f i MICR.obj
 0001:00000937       ?AddRef@?$CComContainedObject@VCOPOSMICR@@@ATL@@WLE@AGKXZ 10001937 f i MICR.obj
 0001:00000944       ?Release@?$CComContainedObject@VCOPOSMICR@@@ATL@@WLE@AGKXZ 10001944 f i MICR.obj
 0001:00000951       ?CreateInstance@CComClassFactory@ATL@@UAGJPAUIUnknown@@ABU_GUID@@PAPAX@Z 10001951 f i MICR.obj
 0001:0000098f       ?LockServer@CComClassFactory@ATL@@UAGJH@Z 1000198f f i MICR.obj
 0001:000009ae       ??_ECComClassFactory@ATL@@UAEPAXI@Z 100019ae f i MICR.obj
 0001:000009ae       ??_GCComClassFactory@ATL@@UAEPAXI@Z 100019ae f i MICR.obj
 0001:000009d9       ?GetWindowProc@?$CWindowImplBaseT@VCWindow@ATL@@V?$CWinTraits@$0FGAAAAAA@$0A@@2@@ATL@@UAEP6GJPAUHWND__@@IIJ@ZXZ 100019d9 f i MICR.obj
 0001:000009df       ?StartWindowProc@?$CWindowImplBaseT@VCWindow@ATL@@V?$CWinTraits@$0FGAAAAAA@$0A@@2@@ATL@@SGJPAUHWND__@@IIJ@Z 100019df f i MICR.obj
 0001:00000a33       ?ObjectMain@CComObjectRootBase@ATL@@SGX_N@Z 10001a33 f i MICR.obj
 0001:00000a33       ?OnFinalMessage@?$CWindowImplBaseT@VCWindow@ATL@@V?$CWinTraits@$0FGAAAAAA@$0A@@2@@ATL@@UAEXPAUHWND__@@@Z 10001a33 f i MICR.obj
 0001:00000a36       ?GetTypeInfoCount@?$IDispatchImpl@UIOPOSMICR@@$1?IID_IOPOSMICR@@3U_GUID@@B$1?LIBID_OposMICR_CCO@@3U3@B$00$0A@VCComTypeInfoHolder@ATL@@@ATL@@UAGJPAI@Z 10001a36 f i MICR.obj
 0001:00000a53       ?GetTypeInfo@?$IDispatchImpl@UIOPOSMICR@@$1?IID_IOPOSMICR@@3U_GUID@@B$1?LIBID_OposMICR_CCO@@3U3@B$00$0A@VCComTypeInfoHolder@ATL@@@ATL@@UAGJIKPAPAUITypeInfo@@@Z 10001a53 f i MICR.obj
 0001:00000a77       ?GetIDsOfNames@?$IDispatchImpl@UIOPOSMICR@@$1?IID_IOPOSMICR@@3U_GUID@@B$1?LIBID_OposMICR_CCO@@3U3@B$00$0A@VCComTypeInfoHolder@ATL@@@ATL@@UAGJABU_GUID@@PAPA_WIKPAJ@Z 10001a77 f i MICR.obj
 0001:00000a97       ?Invoke@?$IDispatchImpl@UIOPOSMICR@@$1?IID_IOPOSMICR@@3U_GUID@@B$1?LIBID_OposMICR_CCO@@3U3@B$00$0A@VCComTypeInfoHolder@ATL@@@ATL@@UAGJJABU_GUID@@KGPAUtagDISPPARAMS@@PAUtagVARIANT@@PAUtagEXCEPINFO@@PAI@Z 10001a97 f i MICR.obj
 0001:00000aa5       ?CreateControlWindow@?$CComControl@VCOPOSMICR@@V?$CWindowImpl@VCOPOSMICR@@VCWindow@ATL@@V?$CWinTraits@$0FGAAAAAA@$0A@@3@@ATL@@@ATL@@UAEPAUHWND__@@PAU3@AAUtagRECT@@@Z 10001aa5 f i MICR.obj
 0001:00000ad4       ?ControlQueryInterface@?$CComControl@VCOPOSMICR@@V?$CWindowImpl@VCOPOSMICR@@VCWindow@ATL@@V?$CWinTraits@$0FGAAAAAA@$0A@@3@@ATL@@@ATL@@UAEJABU_GUID@@PAPAX@Z 10001ad4 f i MICR.obj
 0001:00000aef       ?GetClassID@?$IPersistStorageImpl@VCOPOSMICR@@@ATL@@UAGJPAU_GUID@@@Z 10001aef f i MICR.obj
 0001:00000aef       ?GetUserClassID@?$IOleObjectImpl@VCOPOSMICR@@@ATL@@UAGJPAU_GUID@@@Z 10001aef f i MICR.obj
 0001:00000aef       ?GetClassID@?$IPersistStreamInitImpl@VCOPOSMICR@@@ATL@@UAGJPAU_GUID@@@Z 10001aef f i MICR.obj
 0001:00000b13       ?IsDirty@?$IPersistStreamInitImpl@VCOPOSMICR@@@ATL@@UAGJXZ 10001b13 f i MICR.obj
 0001:00000b32       ?Load@?$IPersistStreamInitImpl@VCOPOSMICR@@@ATL@@UAGJPAUIStream@@@Z 10001b32 f i MICR.obj
 0001:00000b51       ?Save@?$IPersistStreamInitImpl@VCOPOSMICR@@@ATL@@UAGJPAUIStream@@H@Z 10001b51 f i MICR.obj
 0001:00000b73       ?GetSizeMax@?$IPersistStreamInitImpl@VCOPOSMICR@@@ATL@@UAGJPAT_ULARGE_INTEGER@@@Z 10001b73 f i MICR.obj
 0001:00000d52       ?InitNew@?$IPersistStreamInitImpl@VCOPOSMICR@@@ATL@@UAGJXZ 10001d52 f i MICR.obj
 0001:00000d6f       ?GetDropTarget@?$IOleInPlaceObjectWindowlessImpl@VCOPOSMICR@@@ATL@@UAGJPAPAUIDropTarget@@@Z 10001d6f f i MICR.obj
 0001:00000d6f       ?ContextSensitiveHelp@?$IOleInPlaceObjectWindowlessImpl@VCOPOSMICR@@@ATL@@UAGJH@Z 10001d6f f i MICR.obj
 0001:00000d6f       ?ContextSensitiveHelp@?$IOleInPlaceActiveObjectImpl@VCOPOSMICR@@@ATL@@UAGJH@Z 10001d6f f i MICR.obj
 0001:00000d6f       ?QueryGetData@?$IDataObjectImpl@VCOPOSMICR@@@ATL@@UAGJPAUtagFORMATETC@@@Z 10001d6f f i MICR.obj
 0001:00000d6f       ?SOOutputCompleteDummy@COPOSMICR@@MAGJJ@Z 10001d6f f i MICR.obj
 0001:00000d6f       ?GetControlInfo@?$IOleControlImpl@VCOPOSMICR@@@ATL@@UAGJPAUtagCONTROLINFO@@@Z 10001d6f f i MICR.obj
 0001:00000d6f       ?SetColorScheme@?$IOleObjectImpl@VCOPOSMICR@@@ATL@@UAGJPAUtagLOGPALETTE@@@Z 10001d6f f i MICR.obj
 0001:00000d6f       ?Unfreeze@?$IViewObjectExImpl@VCOPOSMICR@@@ATL@@UAGJK@Z 10001d6f f i MICR.obj
 0001:00000d6f       ?OnMnemonic@?$IOleControlImpl@VCOPOSMICR@@@ATL@@UAGJPAUtagMSG@@@Z 10001d6f f i MICR.obj
 0001:00000d77       ?OnAmbientPropertyChange@?$IOleControlImpl@VCOPOSMICR@@@ATL@@UAGJJ@Z 10001d77 f i MICR.obj
 0001:00000d77       ?EnableModeless@?$IOleInPlaceActiveObjectImpl@VCOPOSMICR@@@ATL@@UAGJH@Z 10001d77 f i MICR.obj
 0001:00000d77       ?SaveCompleted@?$IPersistStorageImpl@VCOPOSMICR@@@ATL@@UAGJPAUIStorage@@@Z 10001d77 f i MICR.obj
 0001:00000d77       ?OnFrameWindowActivate@?$IOleInPlaceActiveObjectImpl@VCOPOSMICR@@@ATL@@UAGJH@Z 10001d77 f i MICR.obj
 0001:00000d7c       ?SetClientSite@?$IOleObjectImpl@VCOPOSMICR@@@ATL@@UAGJPAUIOleClientSite@@@Z 10001d7c f i MICR.obj
 0001:00000d99       ?GetClientSite@?$IOleObjectImpl@VCOPOSMICR@@@ATL@@UAGJPAPAUIOleClientSite@@@Z 10001d99 f i MICR.obj
 0001:00000db6       ?SetHostNames@?$IOleObjectImpl@VCOPOSMICR@@@ATL@@UAGJPB_W0@Z 10001db6 f i MICR.obj
 0001:00000dbb       ?Close@?$IOleObjectImpl@VCOPOSMICR@@@ATL@@UAGJK@Z 10001dbb f i MICR.obj
 0001:00000dd8       ?EnumFormatEtc@?$IDataObjectImpl@VCOPOSMICR@@@ATL@@UAGJKPAPAUIEnumFORMATETC@@@Z 10001dd8 f i MICR.obj
 0001:00000dd8       ?GetClipboardData@?$IOleObjectImpl@VCOPOSMICR@@@ATL@@UAGJKPAPAUIDataObject@@@Z 10001dd8 f i MICR.obj
 0001:00000dd8       ?GetRect@?$IViewObjectExImpl@VCOPOSMICR@@@ATL@@UAGJKPAU_RECTL@@@Z 10001dd8 f i MICR.obj
 0001:00000dd8       ?SetMoniker@?$IOleObjectImpl@VCOPOSMICR@@@ATL@@UAGJKPAUIMoniker@@@Z 10001dd8 f i MICR.obj
 0001:00000dd8       ?GetDataHere@?$IDataObjectImpl@VCOPOSMICR@@@ATL@@UAGJPAUtagFORMATETC@@PAUtagSTGMEDIUM@@@Z 10001dd8 f i MICR.obj
 0001:00000dd8       ?QueryInterface@CRegObject@ATL@@UAGJABU_GUID@@PAPAX@Z 10001dd8 f i MICR.obj
 0001:00000dd8       ?GetCanonicalFormatEtc@?$IDataObjectImpl@VCOPOSMICR@@@ATL@@UAGJPAUtagFORMATETC@@0@Z 10001dd8 f i MICR.obj
 0001:00000de0       ?SetData@?$IDataObjectImpl@VCOPOSMICR@@@ATL@@UAGJPAUtagFORMATETC@@PAUtagSTGMEDIUM@@H@Z 10001de0 f i MICR.obj
 0001:00000de0       ?InitFromData@?$IOleObjectImpl@VCOPOSMICR@@@ATL@@UAGJPAUIDataObject@@HK@Z 10001de0 f i MICR.obj
 0001:00000de0       ?GetMoniker@?$IOleObjectImpl@VCOPOSMICR@@@ATL@@UAGJKKPAPAUIMoniker@@@Z 10001de0 f i MICR.obj
 0001:00000de8       ?DoVerb@?$IOleObjectImpl@VCOPOSMICR@@@ATL@@UAGJJPAUtagMSG@@PAUIOleClientSite@@JPAUHWND__@@PBUtagRECT@@@Z 10001de8 f i MICR.obj
 0001:00000edc       ?EnumVerbs@?$IOleObjectImpl@VCOPOSMICR@@@ATL@@UAGJPAPAUIEnumOLEVERB@@@Z 10001edc f i MICR.obj
 0001:00000efe       ?IsUpToDate@?$IOleObjectImpl@VCOPOSMICR@@@ATL@@UAGJXZ 10001efe f i MICR.obj
 0001:00000efe       ?Release@CRegObject@ATL@@UAGKXZ 10001efe f i MICR.obj
 0001:00000efe       ?Update@?$IOleObjectImpl@VCOPOSMICR@@@ATL@@UAGJXZ 10001efe f i MICR.obj
 0001:00000efe       ?HandsOffStorage@?$IPersistStorageImpl@VCOPOSMICR@@@ATL@@UAGJXZ 10001efe f i MICR.obj
 0001:00000f03       ?GetUserType@?$IOleObjectImpl@VCOPOSMICR@@@ATL@@UAGJKPAPA_W@Z 10001f03 f i MICR.obj
 0001:00000f1b       ?SetExtent@?$IOleObjectImpl@VCOPOSMICR@@@ATL@@UAGJKPAUtagSIZE@@@Z 10001f1b f i MICR.obj
 0001:00000f3b       ?GetExtent@?$IOleObjectImpl@VCOPOSMICR@@@ATL@@UAGJKPAUtagSIZE@@@Z 10001f3b f i MICR.obj
 0001:00000f79       ?Advise@?$IOleObjectImpl@VCOPOSMICR@@@ATL@@UAGJPAUIAdviseSink@@PAK@Z 10001f79 f i MICR.obj
 0001:00000f99       ?Unadvise@?$IOleObjectImpl@VCOPOSMICR@@@ATL@@UAGJK@Z 10001f99 f i MICR.obj
 0001:00000fc8       ?EnumAdvise@?$IOleObjectImpl@VCOPOSMICR@@@ATL@@UAGJPAPAUIEnumSTATDATA@@@Z 10001fc8 f i MICR.obj
 0001:00001008       ?GetMiscStatus@?$IOleObjectImpl@VCOPOSMICR@@@ATL@@UAGJKPAK@Z 10002008 f i MICR.obj
 0001:00001020       ?GetWindow@?$IOleInPlaceActiveObjectImpl@VCOPOSMICR@@@ATL@@UAGJPAPAUHWND__@@@Z 10002020 f i MICR.obj
 0001:0000106d       ?TranslateAcceleratorW@?$IOleInPlaceActiveObjectImpl@VCOPOSMICR@@@ATL@@UAGJPAUtagMSG@@@Z 1000206d f i MICR.obj
 0001:0000111b       ?OnDocWindowActivate@?$IOleInPlaceActiveObjectImpl@VCOPOSMICR@@@ATL@@UAGJH@Z 1000211b f i MICR.obj
 0001:0000113d       ?ResizeBorder@?$IOleInPlaceActiveObjectImpl@VCOPOSMICR@@@ATL@@UAGJPBUtagRECT@@PAUIOleInPlaceUIWindow@@H@Z 1000213d f i MICR.obj
 0001:00001142       ?Draw@?$IViewObjectExImpl@VCOPOSMICR@@@ATL@@UAGJKJPAXPAUtagDVTARGETDEVICE@@PAUHDC__@@2PBU_RECTL@@3P6GHK@ZK@Z 10002142 f i MICR.obj
 0001:00001174       ?GetColorSet@?$IViewObjectExImpl@VCOPOSMICR@@@ATL@@UAGJKJPAXPAUtagDVTARGETDEVICE@@PAUHDC__@@PAPAUtagLOGPALETTE@@@Z 10002174 f i MICR.obj
 0001:0000117c       ?Freeze@?$IViewObjectExImpl@VCOPOSMICR@@@ATL@@UAGJKJPAXPAK@Z 1000217c f i MICR.obj
 0001:00001184       ?SetAdvise@?$IViewObjectExImpl@VCOPOSMICR@@@ATL@@UAGJKKPAUIAdviseSink@@@Z 10002184 f i MICR.obj
 0001:000011a3       ?GetAdvise@?$IViewObjectExImpl@VCOPOSMICR@@@ATL@@UAGJPAK0PAPAUIAdviseSink@@@Z 100021a3 f i MICR.obj
 0001:000011d8       ?GetExtent@?$IViewObjectExImpl@VCOPOSMICR@@@ATL@@UAGJKJPAUtagDVTARGETDEVICE@@PAUtagSIZE@@@Z 100021d8 f i MICR.obj
 0001:00001209       ?GetViewStatus@?$IViewObjectExImpl@VCOPOSMICR@@@ATL@@UAGJPAK@Z 10002209 f i MICR.obj
 0001:00001226       ?QueryHitPoint@?$IViewObjectExImpl@VCOPOSMICR@@@ATL@@UAGJKPBUtagRECT@@UtagPOINT@@JPAK@Z 10002226 f i MICR.obj
 0001:00001267       ?QueryHitRect@?$IViewObjectExImpl@VCOPOSMICR@@@ATL@@UAGJKPBUtagRECT@@0JPAK@Z 10002267 f i MICR.obj
 0001:000012c2       ?GetNaturalExtent@?$IViewObjectExImpl@VCOPOSMICR@@@ATL@@UAGJKJPAUtagDVTARGETDEVICE@@PAUHDC__@@PAUtagExtentInfo@@PAUtagSIZE@@@Z 100022c2 f i MICR.obj
 0001:0000130d       ?GetWindow@?$IOleInPlaceObjectWindowlessImpl@VCOPOSMICR@@@ATL@@UAGJPAPAUHWND__@@@Z 1000230d f i MICR.obj
 0001:0000135a       ?InPlaceDeactivate@?$IOleInPlaceObjectWindowlessImpl@VCOPOSMICR@@@ATL@@UAGJXZ 1000235a f i MICR.obj
 0001:00001374       ?UIDeactivate@?$IOleInPlaceObjectWindowlessImpl@VCOPOSMICR@@@ATL@@UAGJXZ 10002374 f i MICR.obj
 0001:0000138e       ?SetObjectRects@?$IOleInPlaceObjectWindowlessImpl@VCOPOSMICR@@@ATL@@UAGJPBUtagRECT@@0@Z 1000238e f i MICR.obj
 0001:000013ae       ?ReactivateAndUndo@?$IOleInPlaceObjectWindowlessImpl@VCOPOSMICR@@@ATL@@UAGJXZ 100023ae f i MICR.obj
 0001:000013b6       ?OnWindowMessage@?$IOleInPlaceObjectWindowlessImpl@VCOPOSMICR@@@ATL@@UAGJIIJPAJ@Z 100023b6 f i MICR.obj
 0001:00001426       ?EnumConnectionPoints@?$IConnectionPointContainerImpl@VCOPOSMICR@@@ATL@@UAGJPAPAUIEnumConnectionPoints@@@Z 10002426 f i MICR.obj
 0001:000015b2       ?FindConnectionPoint@?$IConnectionPointContainerImpl@VCOPOSMICR@@@ATL@@UAGJABU_GUID@@PAPAUIConnectionPoint@@@Z 100025b2 f i MICR.obj
 0001:00001655       ?IsDirty@?$IPersistStorageImpl@VCOPOSMICR@@@ATL@@UAGJXZ 10002655 f i MICR.obj
 0001:00001685       ?InitNew@?$IPersistStorageImpl@VCOPOSMICR@@@ATL@@UAGJPAUIStorage@@@Z 10002685 f i MICR.obj
 0001:000016b5       ?Load@?$IPersistStorageImpl@VCOPOSMICR@@@ATL@@UAGJPAUIStorage@@@Z 100026b5 f i MICR.obj
 0001:00001721       ?Save@?$IPersistStorageImpl@VCOPOSMICR@@@ATL@@UAGJPAUIStorage@@H@Z 10002721 f i MICR.obj
 0001:00001794       ?GetPages@?$ISpecifyPropertyPagesImpl@VCOPOSMICR@@@ATL@@UAGJPAUtagCAUUID@@@Z 10002794 f i MICR.obj
 0001:000017ab       ?QuickActivate@?$IQuickActivateImpl@VCOPOSMICR@@@ATL@@UAGJPAUtagQACONTAINER@@PAUtagQACONTROL@@@Z 100027ab f i MICR.obj
 0001:000017ce       ?SetContentExtent@?$IQuickActivateImpl@VCOPOSMICR@@@ATL@@UAGJPAUtagSIZE@@@Z 100027ce f i MICR.obj
 0001:000017fa       ?GetContentExtent@?$IQuickActivateImpl@VCOPOSMICR@@@ATL@@UAGJPAUtagSIZE@@@Z 100027fa f i MICR.obj
 0001:00001834       ?GetData@?$IDataObjectImpl@VCOPOSMICR@@@ATL@@UAGJPAUtagFORMATETC@@PAUtagSTGMEDIUM@@@Z 10002834 f i MICR.obj
 0001:00001857       ?DAdvise@?$IDataObjectImpl@VCOPOSMICR@@@ATL@@UAGJPAUtagFORMATETC@@KPAUIAdviseSink@@PAK@Z 10002857 f i MICR.obj
 0001:00001898       ?DUnadvise@?$IDataObjectImpl@VCOPOSMICR@@@ATL@@UAGJK@Z 10002898 f i MICR.obj
 0001:000018c6       ?EnumDAdvise@?$IDataObjectImpl@VCOPOSMICR@@@ATL@@UAGJPAPAUIEnumSTATDATA@@@Z 100028c6 f i MICR.obj
 0001:00001905       ?GetClassInfoW@?$IProvideClassInfo2Impl@$1?CLSID_OPOSMICR@@3U_GUID@@B$1?DIID__IOPOSMICREvents@@3U2@B$1?LIBID_OposMICR_CCO@@3U2@B$00$0A@VCComTypeInfoHolder@ATL@@@ATL@@UAGJPAPAUITypeInfo@@@Z 10002905 f i MICR.obj
 0001:0000191b       ?GetGUID@?$IProvideClassInfo2Impl@$1?CLSID_OPOSMICR@@3U_GUID@@B$1?DIID__IOPOSMICREvents@@3U2@B$1?LIBID_OposMICR_CCO@@3U2@B$00$0A@VCComTypeInfoHolder@ATL@@@ATL@@UAGJKPAU_GUID@@@Z 1000291b f i MICR.obj
 0001:00001959       ?FAccessAllowed@?$IObjectSafetyImpl@VCOPOSMICR@@$02@ATL@@MAEHXZ 10002959 f i MICR.obj
 0001:00001959       __get_startup_argv_mode    10002959 f i LIBCMT:argv_mode.obj
 0001:0000195d       ?GetInterfaceSafetyOptions@?$IObjectSafetyImpl@VCOPOSMICR@@$02@ATL@@UAGJABU_GUID@@PAK1@Z 1000295d f i MICR.obj
 0001:000019d1       ?SetInterfaceSafetyOptions@?$IObjectSafetyImpl@VCOPOSMICR@@$02@ATL@@UAGJABU_GUID@@KK@Z 100029d1 f i MICR.obj
 0001:00001a4b       ?_LocCPQueryInterface@?$IConnectionPointImpl@VCOPOSMICR@@$1?IID_IPropertyNotifySink@@3U_GUID@@BVCComDynamicUnkArray@ATL@@@ATL@@UAGJABU_GUID@@PAPAX@Z 10002a4b f i MICR.obj
 0001:00001a4b       ?_LocCPQueryInterface@?$IConnectionPointImpl@VCOPOSMICR@@$1?DIID__IOPOSMICREvents@@3U_GUID@@BVCComDynamicUnkArray@ATL@@@ATL@@UAGJABU_GUID@@PAPAX@Z 10002a4b f i MICR.obj
 0001:00001a98       ?GetConnectionInterface@?$IConnectionPointImpl@VCOPOSMICR@@$1?IID_IPropertyNotifySink@@3U_GUID@@BVCComDynamicUnkArray@ATL@@@ATL@@UAGJPAU_GUID@@@Z 10002a98 f i MICR.obj
 0001:00001abc       ?GetConnectionPointContainer@?$IConnectionPointImpl@VCOPOSMICR@@$1?IID_IPropertyNotifySink@@3U_GUID@@BVCComDynamicUnkArray@ATL@@@ATL@@UAGJPAPAUIConnectionPointContainer@@@Z 10002abc f i MICR.obj
 0001:00001adf       ?Advise@?$IConnectionPointImpl@VCOPOSMICR@@$1?DIID__IOPOSMICREvents@@3U_GUID@@BVCComDynamicUnkArray@ATL@@@ATL@@UAGJPAUIUnknown@@PAK@Z 10002adf f i MICR.obj
 0001:00001adf       ?Advise@?$IConnectionPointImpl@VCOPOSMICR@@$1?IID_IPropertyNotifySink@@3U_GUID@@BVCComDynamicUnkArray@ATL@@@ATL@@UAGJPAUIUnknown@@PAK@Z 10002adf f i MICR.obj
 0001:00001b7f       ?Unadvise@?$IConnectionPointImpl@VCOPOSMICR@@$1?IID_IPropertyNotifySink@@3U_GUID@@BVCComDynamicUnkArray@ATL@@@ATL@@UAGJK@Z 10002b7f f i MICR.obj
 0001:00001b7f       ?Unadvise@?$IConnectionPointImpl@VCOPOSMICR@@$1?DIID__IOPOSMICREvents@@3U_GUID@@BVCComDynamicUnkArray@ATL@@@ATL@@UAGJK@Z 10002b7f f i MICR.obj
 0001:00001bbf       ?EnumConnections@?$IConnectionPointImpl@VCOPOSMICR@@$1?IID_IPropertyNotifySink@@3U_GUID@@BVCComDynamicUnkArray@ATL@@@ATL@@UAGJPAPAUIEnumConnections@@@Z 10002bbf f i MICR.obj
 0001:00001bbf       ?EnumConnections@?$IConnectionPointImpl@VCOPOSMICR@@$1?DIID__IOPOSMICREvents@@3U_GUID@@BVCComDynamicUnkArray@ATL@@@ATL@@UAGJPAPAUIEnumConnections@@@Z 10002bbf f i MICR.obj
 0001:00001cba       ?GetObjectDescription@?$CComCoClass@VCOPOSMICR@@$1?CLSID_OPOSMICR@@3U_GUID@@B@ATL@@SGPB_WXZ 10002cba f i MICR.obj
 0001:00001cba       ?GetCategoryMap@CComObjectRootBase@ATL@@SAPBU_ATL_CATMAP_ENTRY@2@XZ 10002cba f i MICR.obj
 0001:00001cbd       ?GetConnectionInterface@?$IConnectionPointImpl@VCOPOSMICR@@$1?DIID__IOPOSMICREvents@@3U_GUID@@BVCComDynamicUnkArray@ATL@@@ATL@@UAGJPAU_GUID@@@Z 10002cbd f i MICR.obj
 0001:00001ce1       ?GetConnectionPointContainer@?$IConnectionPointImpl@VCOPOSMICR@@$1?DIID__IOPOSMICREvents@@3U_GUID@@BVCComDynamicUnkArray@ATL@@@ATL@@UAGJPAPAUIConnectionPointContainer@@@Z 10002ce1 f i MICR.obj
 0001:00001d04       ?UpdateRegistry@COPOSMICR@@SGJH@Z 10002d04 f i MICR.obj
 0001:00001d1c       ?ProcessWindowMessage@COPOSMICR@@UAEHPAUHWND__@@IIJAAJK@Z 10002d1c f i MICR.obj
 0001:00001d65       ?SOData@COPOSMICR@@MAGJJ@Z 10002d65 f i MICR.obj
 0001:00001d9e       ?SODirectIO@COPOSMICR@@MAGJJPAJPAPA_W@Z 10002d9e f i MICR.obj
 0001:00001de7       ?SOError@COPOSMICR@@MAGJJJJPAJ@Z 10002de7 f i MICR.obj
 0001:00001e3c       ?SOStatusUpdate@COPOSMICR@@MAGJJ@Z 10002e3c f i MICR.obj
 0001:00001e75       ?Lock@CAtlModule@ATL@@UAEJXZ 10002e75 f i MICR.obj
 0001:00001e7f       ?Unlock@CAtlModule@ATL@@UAEJXZ 10002e7f f i MICR.obj
 0001:00001e89       ?GetLockCount@CAtlModule@ATL@@UAEJXZ 10002e89 f i MICR.obj
 0001:00001e8d       ?GetGITPtr@CAtlModule@ATL@@UAEJPAPAUIGlobalInterfaceTable@@@Z 10002e8d f i MICR.obj
 0001:00001ed9       ?AddCommonRGSReplacements@?$CAtlModuleT@VCComModule@ATL@@@ATL@@UAEJPAUIRegistrarBase@@@Z 10002ed9 f i MICR.obj
 0001:00001ef3       ?UpdateRegistryFromResourceD@CComModule@ATL@@UAGJIHPAU_ATL_REGMAP_ENTRY@2@@Z 10002ef3 f i MICR.obj
 0001:00001ef3       ?UpdateRegistryFromResourceD@CComModule@ATL@@UAGJPB_WHPAU_ATL_REGMAP_ENTRY@2@@Z 10002ef3 f i MICR.obj
 0001:00001efb       ?UpdateRegistryFromResource@CComModule@ATL@@UAGJPB_WHPAU_ATL_REGMAP_ENTRY@2@@Z 10002efb f i MICR.obj
 0001:00001f04       ?UpdateRegistryFromResource@CComModule@ATL@@UAGJIHPAU_ATL_REGMAP_ENTRY@2@@Z 10002f04 f i MICR.obj
 0001:00001f0d       ??_ECComModule@ATL@@UAEPAXI@Z 10002f0d f i MICR.obj
 0001:00001f0d       ??_GCComModule@ATL@@UAEPAXI@Z 10002f0d f i MICR.obj
 0001:00001f35       ?CreateInstance@?$CComCreator@V?$CComObjectCached@VCComClassFactory@ATL@@@ATL@@@ATL@@SGJPAXABU_GUID@@PAPAX@Z 10002f35 f i MICR.obj
 0001:00001fd5       ?CreateInstance@?$CComCreator2@V?$CComCreator@V?$CComObject@VCOPOSMICR@@@ATL@@@ATL@@V?$CComCreator@V?$CComAggObject@VCOPOSMICR@@@ATL@@@2@@ATL@@SGJPAXABU_GUID@@PAPAX@Z 10002fd5 f i MICR.obj
 0001:00001ff5       ?AddRef@?$CComObjectCached@VCComClassFactory@ATL@@@ATL@@UAGKXZ 10002ff5 f i MICR.obj
 0001:0000201c       ?Release@?$CComObjectCached@VCComClassFactory@ATL@@@ATL@@UAGKXZ 1000301c f i MICR.obj
 0001:00002052       ?QueryInterface@?$CComObjectCached@VCComClassFactory@ATL@@@ATL@@UAGJABU_GUID@@PAPAX@Z 10003052 f i MICR.obj
 0001:0000206c       ??_E?$CComObjectCached@VCComClassFactory@ATL@@@ATL@@UAEPAXI@Z 1000306c f i MICR.obj
 0001:0000206c       ??_G?$CComObjectCached@VCComClassFactory@ATL@@@ATL@@UAEPAXI@Z 1000306c f i MICR.obj
 0001:0000208e       ?Next@?$CComEnumImpl@UIEnumConnectionPoints@@$1?_GUID_b196b285_bab4_101a_b69c_00aa00341d07@@3U__s_GUID@@BPAUIConnectionPoint@@V?$_CopyInterface@UIConnectionPoint@@@ATL@@@ATL@@UAGJKPAPAUIConnectionPoint@@PAK@Z 1000308e f i MICR.obj
 0001:00002165       ?Skip@?$CComEnumImpl@UIEnumConnectionPoints@@$1?_GUID_b196b285_bab4_101a_b69c_00aa00341d07@@3U__s_GUID@@BPAUIConnectionPoint@@V?$_CopyInterface@UIConnectionPoint@@@ATL@@@ATL@@UAGJK@Z 10003165 f i MICR.obj
 0001:00002192       ?Reset@?$CComEnumImpl@UIEnumConnections@@$1?_GUID_b196b287_bab4_101a_b69c_00aa00341d07@@3U__s_GUID@@BUtagCONNECTDATA@@V?$_Copy@UtagCONNECTDATA@@@ATL@@@ATL@@UAGJXZ 10003192 f i MICR.obj
 0001:00002192       ?Reset@?$CComEnumImpl@UIEnumConnectionPoints@@$1?_GUID_b196b285_bab4_101a_b69c_00aa00341d07@@3U__s_GUID@@BPAUIConnectionPoint@@V?$_CopyInterface@UIConnectionPoint@@@ATL@@@ATL@@UAGJXZ 10003192 f i MICR.obj
 0001:000021a4       ?Clone@?$CComEnumImpl@UIEnumConnectionPoints@@$1?_GUID_b196b285_bab4_101a_b69c_00aa00341d07@@3U__s_GUID@@BPAUIConnectionPoint@@V?$_CopyInterface@UIConnectionPoint@@@ATL@@@ATL@@UAGJPAPAUIEnumConnectionPoints@@@Z 100031a4 f i MICR.obj
 0001:00002285       ?AddRef@?$CComObject@V?$CComEnum@UIEnumConnectionPoints@@$1?_GUID_b196b285_bab4_101a_b69c_00aa00341d07@@3U__s_GUID@@BPAUIConnectionPoint@@V?$_CopyInterface@UIConnectionPoint@@@ATL@@VCComSingleThreadModel@6@@ATL@@@ATL@@UAGKXZ 10003285 f i MICR.obj
 0001:00002285       ?AddRef@?$CComObject@V?$CComEnum@UIEnumConnections@@$1?_GUID_b196b287_bab4_101a_b69c_00aa00341d07@@3U__s_GUID@@BUtagCONNECTDATA@@V?$_Copy@UtagCONNECTDATA@@@ATL@@VCComSingleThreadModel@6@@ATL@@@ATL@@UAGKXZ 10003285 f i MICR.obj
 0001:00002296       ?Release@?$CComObject@V?$CComEnum@UIEnumConnectionPoints@@$1?_GUID_b196b285_bab4_101a_b69c_00aa00341d07@@3U__s_GUID@@BPAUIConnectionPoint@@V?$_CopyInterface@UIConnectionPoint@@@ATL@@VCComSingleThreadModel@6@@ATL@@@ATL@@UAGKXZ 10003296 f i MICR.obj
 0001:00002296       ?Release@?$CComObject@V?$CComEnum@UIEnumConnections@@$1?_GUID_b196b287_bab4_101a_b69c_00aa00341d07@@3U__s_GUID@@BUtagCONNECTDATA@@V?$_Copy@UtagCONNECTDATA@@@ATL@@VCComSingleThreadModel@6@@ATL@@@ATL@@UAGKXZ 10003296 f i MICR.obj
 0001:000022d2       ?QueryInterface@?$CComObject@V?$CComEnum@UIEnumConnectionPoints@@$1?_GUID_b196b285_bab4_101a_b69c_00aa00341d07@@3U__s_GUID@@BPAUIConnectionPoint@@V?$_CopyInterface@UIConnectionPoint@@@ATL@@VCComSingleThreadModel@6@@ATL@@@ATL@@UAGJABU_GUID@@PAPAX@Z 100032d2 f i MICR.obj
 0001:000022ec       ??_G?$CComObject@V?$CComEnum@UIEnumConnectionPoints@@$1?_GUID_b196b285_bab4_101a_b69c_00aa00341d07@@3U__s_GUID@@BPAUIConnectionPoint@@V?$_CopyInterface@UIConnectionPoint@@@ATL@@VCComSingleThreadModel@6@@ATL@@@ATL@@UAEPAXI@Z 100032ec f i MICR.obj
 0001:000022ec       ??_E?$CComObject@V?$CComEnum@UIEnumConnectionPoints@@$1?_GUID_b196b285_bab4_101a_b69c_00aa00341d07@@3U__s_GUID@@BPAUIConnectionPoint@@V?$_CopyInterface@UIConnectionPoint@@@ATL@@VCComSingleThreadModel@6@@ATL@@@ATL@@UAEPAXI@Z 100032ec f i MICR.obj
 0001:0000230e       ?AddRef@CRegObject@ATL@@UAGKXZ 1000330e f i MICR.obj
 0001:00002314       ?AddReplacement@CRegObject@ATL@@UAGJPB_W0@Z 10003314 f i MICR.obj
 0001:0000234d       ?ClearReplacements@CRegObject@ATL@@UAGJXZ 1000334d f i MICR.obj
 0001:0000235f       ??_GCRegObject@ATL@@UAEPAXI@Z 1000335f f i MICR.obj
 0001:0000235f       ??_ECRegObject@ATL@@UAEPAXI@Z 1000335f f i MICR.obj
 0001:00002381       ?AddRef@?$CComAggObject@VCOPOSMICR@@@ATL@@UAGKXZ 10003381 f i MICR.obj
 0001:00002392       ?Release@?$CComAggObject@VCOPOSMICR@@@ATL@@UAGKXZ 10003392 f i MICR.obj
 0001:000023ce       ?QueryInterface@?$CComAggObject@VCOPOSMICR@@@ATL@@UAGJABU_GUID@@PAPAX@Z 100033ce f i MICR.obj
 0001:0000241d       ?AddRef@?$CComContainedObject@VCOPOSMICR@@@ATL@@UAGKXZ 1000341d f i MICR.obj
 0001:00002433       ?Release@?$CComContainedObject@VCOPOSMICR@@@ATL@@UAGKXZ 10003433 f i MICR.obj
 0001:00002449       ?QueryInterface@?$CComContainedObject@VCOPOSMICR@@@ATL@@UAGJABU_GUID@@PAPAX@Z 10003449 f i MICR.obj
 0001:00002464       ??_E?$CComAggObject@VCOPOSMICR@@@ATL@@UAEPAXI@Z 10003464 f i MICR.obj
 0001:00002464       ??_G?$CComAggObject@VCOPOSMICR@@@ATL@@UAEPAXI@Z 10003464 f i MICR.obj
 0001:00002489       ?AddRef@?$CComObject@VCOPOSMICR@@@ATL@@UAGKXZ 10003489 f i MICR.obj
 0001:000024a0       ?Release@?$CComObject@VCOPOSMICR@@@ATL@@UAGKXZ 100034a0 f i MICR.obj
 0001:000024e2       ?QueryInterface@?$CComObject@VCOPOSMICR@@@ATL@@UAGJABU_GUID@@PAPAX@Z 100034e2 f i MICR.obj
 0001:000024fc       ?OnDrawAdvanced@CComControlBase@ATL@@UAEJAAUATL_DRAWINFO@@@Z 100034fc f i MICR.obj
 0001:000025ef       ?Next@?$CComEnumImpl@UIEnumConnections@@$1?_GUID_b196b287_bab4_101a_b69c_00aa00341d07@@3U__s_GUID@@BUtagCONNECTDATA@@V?$_Copy@UtagCONNECTDATA@@@ATL@@@ATL@@UAGJKPAUtagCONNECTDATA@@PAK@Z 100035ef f i MICR.obj
 0001:000026c6       ?Skip@?$CComEnumImpl@UIEnumConnections@@$1?_GUID_b196b287_bab4_101a_b69c_00aa00341d07@@3U__s_GUID@@BUtagCONNECTDATA@@V?$_Copy@UtagCONNECTDATA@@@ATL@@@ATL@@UAGJK@Z 100036c6 f i MICR.obj
 0001:000026f3       ?Clone@?$CComEnumImpl@UIEnumConnections@@$1?_GUID_b196b287_bab4_101a_b69c_00aa00341d07@@3U__s_GUID@@BUtagCONNECTDATA@@V?$_Copy@UtagCONNECTDATA@@@ATL@@@ATL@@UAGJPAPAUIEnumConnections@@@Z 100036f3 f i MICR.obj
 0001:000027d4       ?QueryInterface@?$CComObject@V?$CComEnum@UIEnumConnections@@$1?_GUID_b196b287_bab4_101a_b69c_00aa00341d07@@3U__s_GUID@@BUtagCONNECTDATA@@V?$_Copy@UtagCONNECTDATA@@@ATL@@VCComSingleThreadModel@6@@ATL@@@ATL@@UAGJABU_GUID@@PAPAX@Z 100037d4 f i MICR.obj
 0001:000027ee       ??_G?$CComObject@V?$CComEnum@UIEnumConnections@@$1?_GUID_b196b287_bab4_101a_b69c_00aa00341d07@@3U__s_GUID@@BUtagCONNECTDATA@@V?$_Copy@UtagCONNECTDATA@@@ATL@@VCComSingleThreadModel@6@@ATL@@@ATL@@UAEPAXI@Z 100037ee f i MICR.obj
 0001:000027ee       ??_E?$CComObject@V?$CComEnum@UIEnumConnections@@$1?_GUID_b196b287_bab4_101a_b69c_00aa00341d07@@3U__s_GUID@@BUtagCONNECTDATA@@V?$_Copy@UtagCONNECTDATA@@@ATL@@VCComSingleThreadModel@6@@ATL@@@ATL@@UAEPAXI@Z 100037ee f i MICR.obj
 0001:00002810       ??_E?$CComObject@VCOPOSMICR@@@ATL@@W3AEPAXI@Z 10003810 f i MICR.obj
 0001:00002818       ??_E?$CComObject@VCOPOSMICR@@@ATL@@WEM@AEPAXI@Z 10003818 f i MICR.obj
 0001:00002820       ?QueryInterface@?$CComObject@VCOPOSMICR@@@ATL@@WHA@AGJABU_GUID@@PAPAX@Z 10003820 f i MICR.obj
 0001:0000282a       ?AddRef@?$CComObject@VCOPOSMICR@@@ATL@@WHA@AGKXZ 1000382a f i MICR.obj
 0001:00002834       ?Release@?$CComObject@VCOPOSMICR@@@ATL@@WHA@AGKXZ 10003834 f i MICR.obj
 0001:0000283e       ?QueryInterface@?$CComObject@VCOPOSMICR@@@ATL@@WHE@AGJABU_GUID@@PAPAX@Z 1000383e f i MICR.obj
 0001:00002848       ?AddRef@?$CComObject@VCOPOSMICR@@@ATL@@WHE@AGKXZ 10003848 f i MICR.obj
 0001:00002852       ?Release@?$CComObject@VCOPOSMICR@@@ATL@@WHE@AGKXZ 10003852 f i MICR.obj
 0001:0000285c       ?QueryInterface@?$CComObject@VCOPOSMICR@@@ATL@@WHI@AGJABU_GUID@@PAPAX@Z 1000385c f i MICR.obj
 0001:00002866       ?AddRef@?$CComObject@VCOPOSMICR@@@ATL@@WHI@AGKXZ 10003866 f i MICR.obj
 0001:00002870       ?Release@?$CComObject@VCOPOSMICR@@@ATL@@WHI@AGKXZ 10003870 f i MICR.obj
 0001:0000287a       ?QueryInterface@?$CComObject@VCOPOSMICR@@@ATL@@WHM@AGJABU_GUID@@PAPAX@Z 1000387a f i MICR.obj
 0001:00002884       ?AddRef@?$CComObject@VCOPOSMICR@@@ATL@@WHM@AGKXZ 10003884 f i MICR.obj
 0001:0000288e       ?Release@?$CComObject@VCOPOSMICR@@@ATL@@WHM@AGKXZ 1000388e f i MICR.obj
 0001:00002898       ?QueryInterface@?$CComObject@VCOPOSMICR@@@ATL@@WIA@AGJABU_GUID@@PAPAX@Z 10003898 f i MICR.obj
 0001:000028a5       ?AddRef@?$CComObject@VCOPOSMICR@@@ATL@@WIA@AGKXZ 100038a5 f i MICR.obj
 0001:000028b2       ?Release@?$CComObject@VCOPOSMICR@@@ATL@@WIA@AGKXZ 100038b2 f i MICR.obj
 0001:000028bf       ?QueryInterface@?$CComObject@VCOPOSMICR@@@ATL@@WIE@AGJABU_GUID@@PAPAX@Z 100038bf f i MICR.obj
 0001:000028cc       ?AddRef@?$CComObject@VCOPOSMICR@@@ATL@@WIE@AGKXZ 100038cc f i MICR.obj
 0001:000028d9       ?Release@?$CComObject@VCOPOSMICR@@@ATL@@WIE@AGKXZ 100038d9 f i MICR.obj
 0001:000028e6       ?QueryInterface@?$CComObject@VCOPOSMICR@@@ATL@@WII@AGJABU_GUID@@PAPAX@Z 100038e6 f i MICR.obj
 0001:000028f3       ?AddRef@?$CComObject@VCOPOSMICR@@@ATL@@WII@AGKXZ 100038f3 f i MICR.obj
 0001:00002900       ?Release@?$CComObject@VCOPOSMICR@@@ATL@@WII@AGKXZ 10003900 f i MICR.obj
 0001:0000290d       ?QueryInterface@?$CComObject@VCOPOSMICR@@@ATL@@WIM@AGJABU_GUID@@PAPAX@Z 1000390d f i MICR.obj
 0001:0000291a       ?AddRef@?$CComObject@VCOPOSMICR@@@ATL@@WIM@AGKXZ 1000391a f i MICR.obj
 0001:00002927       ?Release@?$CComObject@VCOPOSMICR@@@ATL@@WIM@AGKXZ 10003927 f i MICR.obj
 0001:00002934       ?QueryInterface@?$CComObject@VCOPOSMICR@@@ATL@@WJA@AGJABU_GUID@@PAPAX@Z 10003934 f i MICR.obj
 0001:00002941       ?AddRef@?$CComObject@VCOPOSMICR@@@ATL@@WJA@AGKXZ 10003941 f i MICR.obj
 0001:0000294e       ?Release@?$CComObject@VCOPOSMICR@@@ATL@@WJA@AGKXZ 1000394e f i MICR.obj
 0001:0000295b       ?QueryInterface@?$CComObject@VCOPOSMICR@@@ATL@@WJE@AGJABU_GUID@@PAPAX@Z 1000395b f i MICR.obj
 0001:00002968       ?AddRef@?$CComObject@VCOPOSMICR@@@ATL@@WJE@AGKXZ 10003968 f i MICR.obj
 0001:00002975       ?Release@?$CComObject@VCOPOSMICR@@@ATL@@WJE@AGKXZ 10003975 f i MICR.obj
 0001:00002982       ??$?4UITypeInfo2@@@?$CComPtr@UITypeInfo@@@ATL@@QAEPAUITypeInfo@@ABV?$CComPtr@UITypeInfo2@@@1@@Z 10003982 f i MICR.obj
 0001:000029af       ??$AtlAdd@K@ATL@@YAJPAKKK@Z 100039af f i MICR.obj
 0001:000029d2       ??$AtlAdd@_K@ATL@@YAJPA_K_K1@Z 100039d2 f i MICR.obj
 0001:00002a0a       ??$AtlAddThrow@K@ATL@@YAKKK@Z 10003a0a f i MICR.obj
 0001:00002a30       ??$AtlModuleRegisterWndClassInfoT@VAtlModuleRegisterWndClassInfoParamW@ATL@@@ATL@@YAGPAU_ATL_BASE_MODULE70@0@PAU_ATL_WIN_MODULE70@0@PAU_ATL_WNDCLASSINFOW@0@PAP6GJPAUHWND__@@IIJ@ZVAtlModuleRegisterWndClassInfoParamW@0@@Z 10003a30 f i MICR.obj
 0001:00002b7e       ??$AtlMultiply@H@ATL@@YAJPAHHH@Z 10003b7e f i MICR.obj
 0001:00002bb6       ??$AtlMultiply@K@ATL@@YAJPAKKK@Z 10003bb6 f i MICR.obj
 0001:00002bb6       ??$AtlMultiply@I@ATL@@YAJPAIII@Z 10003bb6 f i MICR.obj
 0001:00002bd8       ??$AtlMultiplyThrow@I@ATL@@YAIII@Z 10003bd8 f i MICR.obj
 0001:00002bfe       ??0?$CComAggObject@VCOPOSMICR@@@ATL@@QAE@PAX@Z 10003bfe f i MICR.obj
 0001:00002c2b       ??0?$CComContainedObject@VCOPOSMICR@@@ATL@@QAE@PAX@Z 10003c2b f i MICR.obj
 0001:00002ce4       ??0?$CComObject@V?$CComEnum@UIEnumConnectionPoints@@$1?_GUID_b196b285_bab4_101a_b69c_00aa00341d07@@3U__s_GUID@@BPAUIConnectionPoint@@V?$_CopyInterface@UIConnectionPoint@@@ATL@@VCComSingleThreadModel@6@@ATL@@@ATL@@QAE@PAX@Z 10003ce4 f i MICR.obj
 0001:00002d12       ??0?$CComObject@V?$CComEnum@UIEnumConnections@@$1?_GUID_b196b287_bab4_101a_b69c_00aa00341d07@@3U__s_GUID@@BUtagCONNECTDATA@@V?$_Copy@UtagCONNECTDATA@@@ATL@@VCComSingleThreadModel@6@@ATL@@@ATL@@QAE@PAX@Z 10003d12 f i MICR.obj
 0001:00002d40       ??0?$CComObject@VCOPOSMICR@@@ATL@@QAE@PAX@Z 10003d40 f i MICR.obj
 0001:00002df7       ??0?$CComQIPtr@UIOleControlSite@@$1?_GUID_b196b289_bab4_101a_b69c_00aa00341d07@@3U__s_GUID@@B@ATL@@QAE@PAUIUnknown@@@Z 10003df7 f i MICR.obj
 0001:00002e20       ??0CAtlModule@ATL@@QAE@XZ  10003e20 f i MICR.obj
 0001:00002e61       ??0CParseBuffer@CRegParser@ATL@@QAE@H@Z 10003e61 f i MICR.obj
 0001:00002e97       ??0_ATL_MSG@ATL@@QAE@PAUHWND__@@IIJH@Z 10003e97 f i MICR.obj
 0001:00002ecf       ??1?$CComAggObject@VCOPOSMICR@@@ATL@@UAE@XZ 10003ecf f i MICR.obj
 0001:00002ef3       ??1?$CComEnumImpl@UIEnumConnectionPoints@@$1?_GUID_b196b285_bab4_101a_b69c_00aa00341d07@@3U__s_GUID@@BPAUIConnectionPoint@@V?$_CopyInterface@UIConnectionPoint@@@ATL@@@ATL@@UAE@XZ 10003ef3 f i MICR.obj
 0001:00002f33       ??1?$CComEnumImpl@UIEnumConnections@@$1?_GUID_b196b287_bab4_101a_b69c_00aa00341d07@@3U__s_GUID@@BUtagCONNECTDATA@@V?$_Copy@UtagCONNECTDATA@@@ATL@@@ATL@@UAE@XZ 10003f33 f i MICR.obj
 0001:00002f73       ??1?$CComObject@V?$CComEnum@UIEnumConnectionPoints@@$1?_GUID_b196b285_bab4_101a_b69c_00aa00341d07@@3U__s_GUID@@BPAUIConnectionPoint@@V?$_CopyInterface@UIConnectionPoint@@@ATL@@VCComSingleThreadModel@6@@ATL@@@ATL@@UAE@XZ 10003f73 f i MICR.obj
 0001:00002f96       ??1?$CComObject@V?$CComEnum@UIEnumConnections@@$1?_GUID_b196b287_bab4_101a_b69c_00aa00341d07@@3U__s_GUID@@BUtagCONNECTDATA@@V?$_Copy@UtagCONNECTDATA@@@ATL@@VCComSingleThreadModel@6@@ATL@@@ATL@@UAE@XZ 10003f96 f i MICR.obj
 0001:00002fb9       ??1?$CComObject@VCOPOSMICR@@@ATL@@UAE@XZ 10003fb9 f i MICR.obj
 0001:00003077       ??1?$CComObjectCached@VCComClassFactory@ATL@@@ATL@@UAE@XZ 10004077 f i MICR.obj
 0001:0000308d       ??1?$CComObjectRootEx@VCComMultiThreadModel@ATL@@@ATL@@QAE@XZ 1000408d f i MICR.obj
 0001:000030a2       ??1CRegObject@ATL@@UAE@XZ  100040a2 f i MICR.obj
 0001:000030c2       ??4?$CComPtr@UIOleClientSite@@@ATL@@QAEPAUIOleClientSite@@PAU2@@Z 100040c2 f i MICR.obj
 0001:000030c2       ??4?$CComPtr@UIAdviseSink@@@ATL@@QAEPAUIAdviseSink@@PAU2@@Z 100040c2 f i MICR.obj
 0001:000030c2       ??4?$CComPtr@UIUnknown@@@ATL@@QAEPAUIUnknown@@PAU2@@Z 100040c2 f i MICR.obj
 0001:000030f6       ??_G?$CComContainedObject@VCOPOSMICR@@@ATL@@UAEPAXI@Z 100040f6 f i MICR.obj
 0001:000030f6       ??_E?$CComContainedObject@VCOPOSMICR@@@ATL@@UAEPAXI@Z 100040f6 f i MICR.obj
 0001:0000311b       ??_E?$CComObject@VCOPOSMICR@@@ATL@@UAEPAXI@Z 1000411b f i MICR.obj
 0001:0000311b       ??_G?$CComObject@VCOPOSMICR@@@ATL@@UAEPAXI@Z 1000411b f i MICR.obj
 0001:00003140       ?Add@?$CSimpleArray@GV?$CSimpleArrayEqualHelper@G@ATL@@@ATL@@QAEHABG@Z 10004140 f i MICR.obj
 0001:000031c4       ?Add@?$CSimpleMap@PA_WPA_WVCExpansionVectorEqualHelper@ATL@@@ATL@@QAEHABQA_W0@Z 100041c4 f i MICR.obj
 0001:00003219       ?Add@CComDynamicUnkArray@ATL@@QAEKPAUIUnknown@@@Z 10004219 f i MICR.obj
 0001:000032cf       ?Add@CExpansionVector@ATL@@QAEHPB_W0@Z 100042cf f i MICR.obj
 0001:000033d8       ?AddString@CParseBuffer@CRegParser@ATL@@QAEHPB_W@Z 100043d8 f i MICR.obj
 0001:0000340d       ?AddTermFunc@CAtlModule@ATL@@QAEJP6GXK@ZK@Z 1000440d f i MICR.obj
 0001:00003470       ?AddValue@CRegParser@ATL@@IAEJAAVCRegKey@2@PB_WPA_W@Z 10004470 f i MICR.obj
 0001:0000378a       ?Allocate@?$CAtlSafeAllocBufferManager@VCCRTAllocator@ATL@@@_ATL_SAFE_ALLOCA_IMPL@ATL@@QAEPAXK@Z 1000478a f i MICR.obj
 0001:000037b7       ?Allocate@?$CTempBuffer@E$0BAA@VCCRTAllocator@ATL@@@ATL@@QAEPAEI@Z 100047b7 f i MICR.obj
 0001:000037e6       ?Allocate@?$CTempBuffer@_W$0BAA@VCCRTAllocator@ATL@@@ATL@@QAEPA_WI@Z 100047e6 f i MICR.obj
 0001:00003815       ?Allocate@?$CTempBuffer@_W$0EAA@VCCRTAllocator@ATL@@@ATL@@QAEPA_WI@Z 10004815 f i MICR.obj
 0001:00003844       ?AllocateHeap@?$CTempBuffer@_W$0EAA@VCCRTAllocator@ATL@@@ATL@@AAEXI@Z 10004844 f i MICR.obj
 0001:00003844       ?AllocateHeap@?$CTempBuffer@_W$0BAA@VCCRTAllocator@ATL@@@ATL@@AAEXI@Z 10004844 f i MICR.obj
 0001:00003844       ?AllocateHeap@?$CTempBuffer@E$0BAA@VCCRTAllocator@ATL@@@ATL@@AAEXI@Z 10004844 f i MICR.obj
 0001:00003869       ?Append@CParseBuffer@CRegParser@ATL@@QAEHPB_WH@Z 10004869 f i MICR.obj
 0001:000038f7       ?AtlCoTaskMemCAlloc@ATL@@YAPAXKK@Z 100048f7 f i MICR.obj
 0001:00003924       ?AtlCoTaskMemRecalloc@ATL@@YAPAXPAXKK@Z 10004924 f i MICR.obj
 0001:00003954       ?AtlComModuleGetClassObject@ATL@@YGJPAU_ATL_COM_MODULE70@1@ABU_GUID@@1PAPAX@Z 10004954 f i MICR.obj
 0001:00003a47       ?AtlComModuleRegisterServer@ATL@@YGJPAU_ATL_COM_MODULE70@1@HPBU_GUID@@@Z 10004a47 f i MICR.obj
 0001:00003acf       ?AtlComModuleUnregisterServer@ATL@@YGJPAU_ATL_COM_MODULE70@1@HPBU_GUID@@@Z 10004acf f i MICR.obj
 0001:00003b57       ?AtlComQIPtrAssign2@ATL@@YAXPAPAUIUnknown@@PAU2@ABU_GUID@@@Z 10004b57 f i MICR.obj
 0001:00003b86       ?AtlCreateTargetDC@ATL@@YGPAUHDC__@@PAU2@PAUtagDVTARGETDEVICE@@@Z 10004b86 f i MICR.obj
 0001:00003bef       ?AtlCrtErrorCheck@ATL@@YAHH@Z 10004bef f i MICR.obj
 0001:00003c2a       ?AtlHiMetricToPixel@ATL@@YGXPBUtagSIZE@@PAU2@@Z 10004c2a f i MICR.obj
 0001:00003c9f       ?AtlHresultFromLastError@ATL@@YAJXZ 10004c9f f i MICR.obj
 0001:00003cb6       ?AtlHresultFromWin32@ATL@@YAJK@Z 10004cb6 f i MICR.obj
 0001:00003ccb       ?AtlInternalOleLoadFromStream@ATL@@YAJPAUIStream@@ABU_GUID@@PAPAXTClassesAllowedInStream@1@K@Z 10004ccb f i MICR.obj
 0001:00003de9       ?AtlInternalQueryInterface@ATL@@YGJPAXPBU_ATL_INTMAP_ENTRY@1@ABU_GUID@@PAPAX@Z 10004de9 f i MICR.obj
 0001:00003e8c       ?AtlLoadTypeLib@ATL@@YGJPAUHINSTANCE__@@PB_WPAPA_WPAPAUITypeLib@@@Z 10004e8c f i MICR.obj
 0001:0000406a       ?AtlRegisterClassCategoriesHelper@ATL@@YGJABU_GUID@@PBU_ATL_CATMAP_ENTRY@1@H@Z 1000506a f i MICR.obj
 0001:00004366       ?AtlRegisterTypeLib@ATL@@YGJPAUHINSTANCE__@@PB_W@Z 10005366 f i MICR.obj
 0001:000044ee       ?AtlThrowImpl@ATL@@YGXJ@Z  100054ee f i MICR.obj
 0001:0000450c       ?AtlUnRegisterTypeLib@ATL@@YGJPAUHINSTANCE__@@PB_W@Z 1000550c f i MICR.obj
 0001:000045b7       ?AtlWinModuleAddCreateWndData@ATL@@YGXPAU_ATL_WIN_MODULE70@1@PAU_AtlCreateWndData@1@PAX@Z 100055b7 f i MICR.obj
 0001:0000460b       ?AtlWinModuleExtractCreateWndData@ATL@@YGPAXPAU_ATL_WIN_MODULE70@1@@Z 1000560b f i MICR.obj
 0001:0000466e       ?AtlWinModuleRegisterClassExW@ATL@@YGGPAU_ATL_WIN_MODULE70@1@PBUtagWNDCLASSEXW@@@Z 1000566e f i MICR.obj
 0001:000046ad       ?CanForceRemoveKey@CRegParser@ATL@@IAEHPB_W@Z 100056ad f i MICR.obj
 0001:000046dc       ?ChToByte@CRegParser@ATL@@KAE_W@Z 100056dc f i MICR.obj
 0001:0000470f       ?Cleanup@CComTypeInfoHolder@ATL@@SGXK@Z 1000570f f i MICR.obj
 0001:00004742       ?ClearReplacements@CExpansionVector@ATL@@QAEJXZ 10005742 f i MICR.obj
 0001:0000477f       ?Close@CRegKey@ATL@@QAEJXZ 1000577f f i MICR.obj
 0001:00004799       ?CreateInstance@?$CComCreator@V?$CComAggObject@VCOPOSMICR@@@ATL@@@ATL@@SGJPAXABU_GUID@@PAPAX@Z 10005799 f i MICR.obj
 0001:0000480e       ?CreateInstance@?$CComCreator@V?$CComObject@VCOPOSMICR@@@ATL@@@ATL@@SGJPAXABU_GUID@@PAPAX@Z 1000580e f i MICR.obj
 0001:0000488e       ?CreateInstance@?$CComObject@V?$CComEnum@UIEnumConnectionPoints@@$1?_GUID_b196b285_bab4_101a_b69c_00aa00341d07@@3U__s_GUID@@BPAUIConnectionPoint@@V?$_CopyInterface@UIConnectionPoint@@@ATL@@VCComSingleThreadModel@6@@ATL@@@ATL@@SGJPAPAV12@@Z 1000588e f i MICR.obj
 0001:000048d8       ?CreateInstance@?$CComObject@V?$CComEnum@UIEnumConnections@@$1?_GUID_b196b287_bab4_101a_b69c_00aa00341d07@@3U__s_GUID@@BUtagCONNECTDATA@@V?$_Copy@UtagCONNECTDATA@@@ATL@@VCComSingleThreadModel@6@@ATL@@@ATL@@SGJPAPAV12@@Z 100058d8 f i MICR.obj
 0001:00004922       ?DefaultReflectionHandler@?$CWindowImplRoot@VCWindow@ATL@@@ATL@@SAHPAUHWND__@@IIJAAJ@Z 10005922 f i MICR.obj
 0001:00004995       ?DeleteSubKey@CRegKey@ATL@@QAEJPB_W@Z 10005995 f i MICR.obj
 0001:00004a0e       ?DoEvent@COPOSMICR@@IAEXIIJ@Z 10005a0e f i MICR.obj
 0001:00004a8e       ?DoVerbHide@?$IOleObjectImpl@VCOPOSMICR@@@ATL@@QAEJPBUtagRECT@@PAUHWND__@@@Z 10005a8e f i MICR.obj
 0001:00004ac4       ?DoVerbInPlaceActivate@?$IOleObjectImpl@VCOPOSMICR@@@ATL@@QAEJPBUtagRECT@@PAUHWND__@@@Z 10005ac4 f i MICR.obj
 0001:00004af7       ?DoVerbPrimary@?$IOleObjectImpl@VCOPOSMICR@@@ATL@@QAEJPBUtagRECT@@PAUHWND__@@@Z 10005af7 f i MICR.obj
 0001:00004b83       ?DoVerbProperties@CComControlBase@ATL@@QAEJPBUtagRECT@@PAUHWND__@@@Z 10005b83 f i MICR.obj
 0001:00004d02       ?DoVerbUIActivate@?$IOleObjectImpl@VCOPOSMICR@@@ATL@@QAEJPBUtagRECT@@PAUHWND__@@@Z 10005d02 f i MICR.obj
 0001:00004d3f       ?DoesVerbActivate@CComControlBase@ATL@@QAEHJ@Z 10005d3f f i MICR.obj
 0001:00004d60       ?DoesVerbUIActivate@CComControlBase@ATL@@QAEHJ@Z 10005d60 f i MICR.obj
 0001:00004d95       ?EndOfVar@CRegParser@ATL@@IAEHXZ 10005d95 f i MICR.obj
 0001:00004db5       ?EscapeSingleQuote@CAtlModule@ATL@@SAXPA_WIPB_W@Z 10005db5 f i MICR.obj
 0001:00004e04       ?FindKey@?$CSimpleMap@PA_WPA_WVCExpansionVectorEqualHelper@ATL@@@ATL@@QBEHABQA_W@Z 10005e04 f i MICR.obj
 0001:00004e3b       ?FireTheEvent@?$CProxy_IOPOSEvents@VCOPOSMICR@@@@IAEXPAVOposVariant@@IAAJPB_WJ@Z 10005e3b f i MICR.obj
 0001:00004ecd       ?FireViewChange@CComControlBase@ATL@@QAEJXZ 10005ecd f i MICR.obj
 0001:00004f16       ?Fire_DataEvent@?$CProxy_IOPOSEvents@VCOPOSMICR@@@@QAEXJ@Z 10005f16 f i MICR.obj
 0001:00004fac       ?Fire_DirectIOEvent@?$CProxy_IOPOSEvents@VCOPOSMICR@@@@QAEXJPAJPAPA_W@Z 10005fac f i MICR.obj
 0001:00005098       ?Fire_ErrorEvent@?$CProxy_IOPOSEvents@VCOPOSMICR@@@@QAEXJJJPAJ@Z 10006098 f i MICR.obj
 0001:00005189       ?Fire_StatusUpdateEvent@?$CProxy_IOPOSEvents@VCOPOSMICR@@@@QAEXJ@Z 10006189 f i MICR.obj
 0001:0000521f       ?FreeHeap@?$CTempBuffer@E$0BAA@VCCRTAllocator@ATL@@@ATL@@AAEXXZ 1000621f f i MICR.obj
 0001:0000521f       ?FreeHeap@?$CTempBuffer@_W$0BAA@VCCRTAllocator@ATL@@@ATL@@AAEXXZ 1000621f f i MICR.obj
 0001:0000521f       ?FreeHeap@?$CTempBuffer@_W$0EAA@VCCRTAllocator@ATL@@@ATL@@AAEXXZ 1000621f f i MICR.obj
 0001:00005228       ?GetAmbientLocaleID@CComControlBase@ATL@@QAEJAAK@Z 10006228 f i MICR.obj
 0001:00005284       ?GetAmbientUserMode@CComControlBase@ATL@@QAEJAAH@Z 10006284 f i MICR.obj
 0001:000052f4       ?GetAt@CComDynamicUnkArray@ATL@@QAEPAUIUnknown@@H@Z 100062f4 f i MICR.obj
 0001:00005310       ?GetClassObject@CComModule@ATL@@QAEJABU_GUID@@0PAPAX@Z 10006310 f i MICR.obj
 0001:000053b2       ?GetConnMap@COPOSMICR@@SAPBU_ATL_CONNMAP_ENTRY@ATL@@PAH@Z 100063b2 f i MICR.obj
 0001:00005422       ?GetCookie@CComDynamicUnkArray@ATL@@QAGKPAPAUIUnknown@@@Z 10006422 f i MICR.obj
 0001:0000545a       ?GetIDsOfNames@CComTypeInfoHolder@ATL@@QAEJABU_GUID@@PAPA_WIKPAJ@Z 1000645a f i MICR.obj
 0001:00005581       ?GetKeyAt@?$CSimpleMap@PA_WPA_WVCExpansionVectorEqualHelper@ATL@@@ATL@@QBEAAPA_WH@Z 10006581 f i MICR.obj
 0001:000055a6       ?GetPagesHelper@?$ISpecifyPropertyPagesImpl@VCOPOSMICR@@@ATL@@IAEJPAUtagCAUUID@@PBUATL_PROPMAP_ENTRY@2@@Z 100065a6 f i MICR.obj
 0001:000056cd       ?GetProperty@?$CComPtr@UIDispatch@@@ATL@@SAJPAUIDispatch@@JPAUtagVARIANT@@@Z 100066cd f i MICR.obj
 0001:0000571c       ?GetSizeMax@CComVariant@ATL@@QBEJPAT_ULARGE_INTEGER@@@Z 1000671c f i MICR.obj
 0001:000058de       ?GetTI@CComTypeInfoHolder@ATL@@QAEJK@Z 100068de f i MICR.obj
 0001:00005abd       ?GetTI@CComTypeInfoHolder@ATL@@QAEJKPAPAUITypeInfo@@@Z 10006abd f i MICR.obj
 0001:00005aff       ?GetUnknown@CComDynamicUnkArray@ATL@@QAGPAUIUnknown@@K@Z 10006aff f i MICR.obj
 0001:00005b20       ?GetValueAt@?$CSimpleMap@PA_WPA_WVCExpansionVectorEqualHelper@ATL@@@ATL@@QBEAAPA_WH@Z 10006b20 f i MICR.obj
 0001:00005b46       ?GetZoomInfo@CComControlBase@ATL@@QAEXAAUATL_DRAWINFO@@@Z 10006b46 f i MICR.obj
 0001:00005bd9       ?HKeyFromString@CRegParser@ATL@@KAPAUHKEY__@@PA_W@Z 10006bd9 f i MICR.obj
 0001:00005c07       ?HasSubKeys@CRegParser@ATL@@IAEHPAUHKEY__@@@Z 10006c07 f i MICR.obj
 0001:00005c3c       ?IDataObject_GetData@CComControlBase@ATL@@QAEJPAUtagFORMATETC@@PAUtagSTGMEDIUM@@@Z 10006c3c f i MICR.obj
 0001:00005de2       ?IOleInPlaceObject_InPlaceDeactivate@CComControlBase@ATL@@QAEJXZ 10006de2 f i MICR.obj
 0001:00005e69       ?IOleInPlaceObject_SetObjectRects@CComControlBase@ATL@@QAEJPBUtagRECT@@0@Z 10006e69 f i MICR.obj
 0001:00005f36       ?IOleInPlaceObject_UIDeactivate@CComControlBase@ATL@@QAEJXZ 10006f36 f i MICR.obj
 0001:00005ff8       ?IOleObject_Advise@CComControlBase@ATL@@QAEJPAUIAdviseSink@@PAK@Z 10006ff8 f i MICR.obj
 0001:00006022       ?IOleObject_Close@CComControlBase@ATL@@QAEJK@Z 10007022 f i MICR.obj
 0001:00006106       ?IOleObject_GetClientSite@CComControlBase@ATL@@QAEJPAPAUIOleClientSite@@@Z 10007106 f i MICR.obj
 0001:0000612f       ?IOleObject_SetClientSite@CComControlBase@ATL@@QAEJPAUIOleClientSite@@@Z 1000712f f i MICR.obj
 0001:0000616e       ?IOleObject_SetExtent@CComControlBase@ATL@@QAEJKPAUtagSIZE@@@Z 1000716e f i MICR.obj
 0001:00006222       ?IPSI_GetIPersistStreamInit@?$IPersistStorageImpl@VCOPOSMICR@@@ATL@@AAEPAUIPersistStreamInit@@XZ 10007222 f i MICR.obj
 0001:000062ca       ?IPersistStreamInit_Load@?$IPersistStreamInitImpl@VCOPOSMICR@@@ATL@@QAEJPAUIStream@@PBUATL_PROPMAP_ENTRY@2@@Z 100072ca f i MICR.obj
 0001:0000653f       ?IPersistStreamInit_Save@?$IPersistStreamInitImpl@VCOPOSMICR@@@ATL@@QAEJPAUIStream@@HPBUATL_PROPMAP_ENTRY@2@@Z 1000753f f i MICR.obj
 0001:0000672d       ?IQuickActivate_QuickActivate@CComControlBase@ATL@@QAEJPAUtagQACONTAINER@@PAUtagQACONTROL@@@Z 1000772d f i MICR.obj
 0001:0000696f       ?IViewObject_Draw@CComControlBase@ATL@@QAEJKJPAXPAUtagDVTARGETDEVICE@@PAUHDC__@@2PBU_RECTL@@3@Z 1000796f f i MICR.obj
 0001:00006a17       ?InPlaceActivate@CComControlBase@ATL@@QAEJJPBUtagRECT@@@Z 10007a17 f i MICR.obj
 0001:00006c88       ?Init@?$CComEnumImpl@UIEnumConnectionPoints@@$1?_GUID_b196b285_bab4_101a_b69c_00aa00341d07@@3U__s_GUID@@BPAUIConnectionPoint@@V?$_CopyInterface@UIConnectionPoint@@@ATL@@@ATL@@QAEJPAPAUIConnectionPoint@@0PAUIUnknown@@W4CComEnumFlags@2@@Z 10007c88 f i MICR.obj
 0001:00006d67       ?Init@?$CComEnumImpl@UIEnumConnections@@$1?_GUID_b196b287_bab4_101a_b69c_00aa00341d07@@3U__s_GUID@@BUtagCONNECTDATA@@V?$_Copy@UtagCONNECTDATA@@@ATL@@@ATL@@QAEJPAUtagCONNECTDATA@@0PAUIUnknown@@W4CComEnumFlags@2@@Z 10007d67 f i MICR.obj
 0001:00006e46       ?Init@CComModule@ATL@@QAEJPAU_ATL_OBJMAP_ENTRY30@2@PAUHINSTANCE__@@PBU_GUID@@@Z 10007e46 f i MICR.obj
 0001:00006ea5       ?Init@CDynamicStdCallThunk2@ATL@@QAEHKPAX@Z 10007ea5 f i MICR.obj
 0001:00006ed0       ?InlineIsEqualUnknown@ATL@@YGHABU_GUID@@@Z 10007ed0 f i MICR.obj
 0001:00006ef8       ?InternalSetAtIndex@?$CSimpleMap@PA_WPA_WVCExpansionVectorEqualHelper@ATL@@@ATL@@QAEXHABQA_W0@Z 10007ef8 f i MICR.obj
 0001:00006f22       ?Invoke@CComTypeInfoHolder@ATL@@QAEJPAUIDispatch@@JABU_GUID@@KGPAUtagDISPPARAMS@@PAUtagVARIANT@@PAUtagEXCEPINFO@@PAI@Z 10007f22 f i MICR.obj
 0001:00006f65       ?IsEqualObject@?$CComPtrBase@UIOleClientSite@@@ATL@@QAE_NPAUIUnknown@@@Z 10007f65 f i MICR.obj
 0001:00006f65       ?IsEqualObject@?$CComPtrBase@UITypeInfo@@@ATL@@QAE_NPAUIUnknown@@@Z 10007f65 f i MICR.obj
 0001:00006fd2       ?IsSpace@CRegParser@ATL@@IAEH_W@Z 10007fd2 f i MICR.obj
 0001:00006ffc       ?LoadNameCache@CComTypeInfoHolder@ATL@@QAEJPAUITypeInfo@@@Z 10007ffc f i MICR.obj
 0001:00007131       ?Lookup@?$CSimpleMap@PA_WPA_WVCExpansionVectorEqualHelper@ATL@@@ATL@@QBEPA_WABQA_W@Z 10008131 f i MICR.obj
 0001:00007157       ?NextToken@CRegParser@ATL@@IAEJPA_W@Z 10008157 f i MICR.obj
 0001:0000728f       ?OnKillFocus@CComControlBase@ATL@@QAEJIIJAAH@Z 1000828f f i MICR.obj
 0001:000072ea       ?OnMouseActivate@CComControlBase@ATL@@QAEJIIJAAH@Z 100082ea f i MICR.obj
 0001:00007358       ?OnPaint@CComControlBase@ATL@@QAEJIIJAAH@Z 10008358 f i MICR.obj
 0001:0000740a       ?OnSetFocus@CComControlBase@ATL@@QAEJIIJAAH@Z 1000840a f i MICR.obj
 0001:00007493       ?Open@CRegKey@ATL@@QAEJPAUHKEY__@@PB_WK@Z 10008493 f i MICR.obj
 0001:000074e8       ?PreProcessBuffer@CRegParser@ATL@@QAEJPA_WPAPA_W@Z 100084e8 f i MICR.obj
 0001:00007757       ?ProcessWindowMessage@?$CComControl@VCOPOSMICR@@V?$CWindowImpl@VCOPOSMICR@@VCWindow@ATL@@V?$CWinTraits@$0FGAAAAAA@$0A@@3@@ATL@@@ATL@@UAEHPAUHWND__@@IIJAAJK@Z 10008757 f i MICR.obj
 0001:000077f6       ?ReadFromStream@CComBSTR@ATL@@QAEJPAUIStream@@@Z 100087f6 f i MICR.obj
 0001:00007919       ?ReadFromStream@CComVariant@ATL@@QAEJPAUIStream@@GTClassesAllowedInStream@2@K@Z 10008919 f i MICR.obj
 0001:00007aa3       ?RecurseDeleteKey@CRegKey@ATL@@QAEJPB_W@Z 10008aa3 f i MICR.obj
 0001:00007b91       ?RegCreateKeyExW@CAtlTransactionManager@ATL@@QAEJPAUHKEY__@@PB_WKPA_WKKQAU_SECURITY_ATTRIBUTES@@PAPAU3@PAK@Z 10008b91 f i MICR.obj
 0001:00007bf4       ?RegDeleteKeyW@CAtlTransactionManager@ATL@@QAEJPAUHKEY__@@PB_W@Z 10008bf4 f i MICR.obj
 0001:00007c46       ?RegOpenKeyExW@CAtlTransactionManager@ATL@@QAEJPAUHKEY__@@PB_WKKPAPAU3@@Z 10008c46 f i MICR.obj
 0001:00007c9d       ?Register@_ATL_WNDCLASSINFOW@ATL@@QAEGPAP6GJPAUHWND__@@IIJ@Z@Z 10008c9d f i MICR.obj
 0001:00007cbd       ?RegisterBuffer@CRegParser@ATL@@QAEJPA_WH@Z 10008cbd f i MICR.obj
 0001:00007e04       ?RegisterFromResource@CRegObject@ATL@@IAEJPB_W00H@Z 10008e04 f i MICR.obj
 0001:00007f3a       ?RegisterServer@?$CAtlModuleT@VCComModule@ATL@@@ATL@@QAEJHPBU_GUID@@@Z 10008f3a f i MICR.obj
 0001:00007f68       ?RegisterServer@CComModule@ATL@@QAEJHPBU_GUID@@@Z 10008f68 f i MICR.obj
 0001:00007fde       ?RegisterSubkeys@CRegParser@ATL@@IAEJPA_WPAUHKEY__@@HH@Z 10008fde f i MICR.obj
 0001:0000868b       ?Remove@CComDynamicUnkArray@ATL@@QAEHK@Z 1000968b f i MICR.obj
 0001:000086b4       ?RemoveAll@?$CSimpleMap@PA_WPA_WVCExpansionVectorEqualHelper@ATL@@@ATL@@QAEXXZ 100096b4 f i MICR.obj
 0001:000086e0       ?ResourceRegisterSz@CRegObject@ATL@@QAGJPB_W00@Z 100096e0 f i MICR.obj
 0001:0000870d       ?ResourceUnregisterSz@CRegObject@ATL@@QAGJPB_W00@Z 1000970d f i MICR.obj
 0001:0000873a       ?SendOnDataChange@CComControlBase@ATL@@QAEJK@Z 1000973a f i MICR.obj
 0001:00008787       ?SetControlFocus@CComControlBase@ATL@@QAEHH@Z 10009787 f i MICR.obj
 0001:00008824       ?SetMultiStringValue@CRegKey@ATL@@QAEJPB_W0@Z 10009824 f i MICR.obj
 0001:00008880       ?SetStringValue@CRegKey@ATL@@QAEJPB_W0K@Z 10009880 f i MICR.obj
 0001:000088c9       ?SkipAssignment@CRegParser@ATL@@IAEJPA_W@Z 100098c9 f i MICR.obj
 0001:0000892e       ?SkipWhiteSpace@CRegParser@ATL@@IAEXXZ 1000992e f i MICR.obj
 0001:00008950       ?StrChrW@CRegParser@ATL@@KAPA_WPA_W_W@Z 10009950 f i MICR.obj
 0001:0000898d       ?Term@CAtlModule@ATL@@QAEXXZ 1000998d f i MICR.obj
 0001:000089e0       ?Term@CComModule@ATL@@QAEXXZ 100099e0 f i MICR.obj
 0001:00008a38       ?UnregisterServer@?$CAtlModuleT@VCComModule@ATL@@@ATL@@QAEJHPBU_GUID@@@Z 10009a38 f i MICR.obj
 0001:00008a5e       ?UnregisterServer@CComModule@ATL@@QAEJHPBU_GUID@@@Z 10009a5e f i MICR.obj
 0001:00008ad4       ?UpdateRegistryFromResource@CAtlModule@ATL@@QAGJIHPAU_ATL_REGMAP_ENTRY@2@@Z 10009ad4 f i MICR.obj
 0001:00008c9f       ?UpdateRegistryFromResource@CAtlModule@ATL@@QAGJPB_WHPAU_ATL_REGMAP_ENTRY@2@@Z 10009c9f f i MICR.obj
 0001:00008e70       ?VTFromRegType@CRegParser@ATL@@KAHPB_WAAG@Z 10009e70 f i MICR.obj
 0001:00008edd       ?WindowProc@?$CWindowImplBaseT@VCWindow@ATL@@V?$CWinTraits@$0FGAAAAAA@$0A@@2@@ATL@@SGJPAUHWND__@@IIJ@Z 10009edd f i MICR.obj
 0001:00008fcf       ?WriteToStream@CComBSTR@ATL@@QAEJPAUIStream@@@Z 10009fcf f i MICR.obj
 0001:00009031       ?WriteToStream@CComVariant@ATL@@QAEJPAUIStream@@@Z 1000a031 f i MICR.obj
 0001:000091ab       ?WriteToStream@CComVariant@ATL@@QAEJPAUIStream@@G@Z 1000a1ab f i MICR.obj
 0001:00009214       ?_AtlInitialConstruct@?$CComObjectRootEx@VCComMultiThreadModel@ATL@@@ATL@@QAEJXZ 1000a214 f i MICR.obj
 0001:00009229       ?_AtlVerifyStackAvailable@_ATL_SAFE_ALLOCA_IMPL@ATL@@YA_NK@Z 1000a229 f i MICR.obj
 0001:000092a7       ?atlCreate@?$CWindowImpl@VCOPOSMICR@@VCWindow@ATL@@V?$CWinTraits@$0FGAAAAAA@$0A@@3@@ATL@@QAEPAUHWND__@@PAU3@V_U_RECT@2@PB_WKKV_U_MENUorID@2@PAX@Z 1000a2a7 f i MICR.obj
 0001:000092eb       ?atlCreate@?$CWindowImplBaseT@VCWindow@ATL@@V?$CWinTraits@$0FGAAAAAA@$0A@@2@@ATL@@QAEPAUHWND__@@PAU3@V_U_RECT@2@PB_WKKV_U_MENUorID@2@GPAX@Z 1000a2eb f i MICR.obj
 0001:00009387       ?copy@?$_Copy@UtagCONNECTDATA@@@ATL@@SAJPAUtagCONNECTDATA@@PBU3@@Z 1000a387 f i MICR.obj
 0001:000093bd       ?copy@?$_CopyInterface@UIConnectionPoint@@@ATL@@SAJPAPAUIConnectionPoint@@PBQAU3@@Z 1000a3bd f i MICR.obj
 0001:000093eb       ?memcpy_s@Checked@ATL@@YAXPAXIPBXI@Z 1000a3eb f i MICR.obj
 0001:0000940a       ?ocscpy_s@@YA_NPA_WIPB_W@Z 1000a40a f i MICR.obj
 0001:00009454       ?wcscpy_s@Checked@ATL@@YAXPA_WIPB_W@Z 1000a454 f i MICR.obj
 0001:00009470       _DllCanUnloadNow@0         1000a470 f   MICR.obj
 0001:0000947c       _DllGetClassObject@12      1000a47c f   MICR.obj
 0001:0000948a       _DllMain@12                1000a48a f   MICR.obj
 0001:000094cc       _DllRegisterServer@0       1000a4cc f   MICR.obj
 0001:000094db       _DllUnregisterServer@0     1000a4db f   MICR.obj
 0001:000094ea       _InlineIsEqualGUID         1000a4ea f i MICR.obj
 0001:0000951a       ___local_stdio_printf_options 1000a51a f i MICR.obj
 0001:00009520       __vswprintf_s_l            1000a520 f i MICR.obj
 0001:000095cd       _swprintf_s                1000a5cd f i MICR.obj
 0001:000095e9       ??0?$CComControl@VCOPOSMICR@@V?$CWindowImpl@VCOPOSMICR@@VCWindow@ATL@@V?$CWinTraits@$0FGAAAAAA@$0A@@3@@ATL@@@ATL@@QAE@XZ 1000a5e9 f i MICRImpl.obj
 0001:00009610       ??0?$CProxy_IOPOSEvents@VCOPOSMICR@@@@QAE@XZ 1000a610 f i MICRImpl.obj
 0001:00009630       ??0CComControlBase@ATL@@QAE@AAPAUHWND__@@@Z 1000a630 f i MICRImpl.obj
 0001:0000967a       ??0COPOSMICR@@QAE@XZ       1000a67a f   MICRImpl.obj
 0001:000096b0       ??1?$CComControl@VCOPOSMICR@@V?$CWindowImpl@VCOPOSMICR@@VCWindow@ATL@@V?$CWinTraits@$0FGAAAAAA@$0A@@3@@ATL@@@ATL@@UAE@XZ 1000a6b0 f i MICRImpl.obj
 0001:000096c9       ??1?$IConnectionPointImpl@VCOPOSMICR@@$1?IID_IPropertyNotifySink@@3U_GUID@@BVCComDynamicUnkArray@ATL@@@ATL@@QAE@XZ 1000a6c9 f i MICRImpl.obj
 0001:000096c9       ??1?$IConnectionPointImpl@VCOPOSMICR@@$1?DIID__IOPOSMICREvents@@3U_GUID@@BVCComDynamicUnkArray@ATL@@@ATL@@QAE@XZ 1000a6c9 f i MICRImpl.obj
 0001:00009706       ??1CComControlBase@ATL@@UAE@XZ 1000a706 f i MICRImpl.obj
 0001:00009769       ??1COPOSMICR@@UAE@XZ       1000a769 f   MICRImpl.obj
 0001:000097b1       ?BeginInsertion@COPOSMICR@@UAGJJPAJ@Z 1000a7b1 f   MICRImpl.obj
 0001:00009800       ?BeginRemoval@COPOSMICR@@UAGJJPAJ@Z 1000a800 f   MICRImpl.obj
 0001:0000984f       ?CheckHealth@COPOSMICR@@UAGJJPAJ@Z 1000a84f f   MICRImpl.obj
 0001:0000989e       ?ClaimDevice@COPOSMICR@@UAGJJPAJ@Z 1000a89e f   MICRImpl.obj
 0001:00009913       ?ClearInput@COPOSMICR@@UAGJPAJ@Z 1000a913 f   MICRImpl.obj
 0001:0000992e       ?ClearInputProperties@COPOSMICR@@UAGJPAJ@Z 1000a92e f   MICRImpl.obj
 0001:00009949       ?Close@COPOSMICR@@UAGJPAJ@Z 1000a949 f   MICRImpl.obj
 0001:000099b7       ?CompareFirmwareVersion@COPOSMICR@@UAGJPA_WPAJ1@Z 1000a9b7 f   MICRImpl.obj
 0001:00009a37       ?DirectIO@COPOSMICR@@UAGJJPAJPAPA_W0@Z 1000aa37 f   MICRImpl.obj
 0001:00009ae5       ?DoInvoke@COPOSMICR@@IAEJJPAVOposVariant@@IHPAJ_N@Z 1000aae5 f   MICRImpl.obj
 0001:00009bc1       ?EndInsertion@COPOSMICR@@UAGJPAJ@Z 1000abc1 f   MICRImpl.obj
 0001:00009bdc       ?EndRemoval@COPOSMICR@@UAGJPAJ@Z 1000abdc f   MICRImpl.obj
 0001:00009bf7       ?EventClose@COPOSMICR@@IAEXXZ 1000abf7 f i MICRImpl.obj
 0001:00009c2a       ?EventInit@COPOSMICR@@IAEJXZ 1000ac2a f i MICRImpl.obj
 0001:00009cf6       ?EventUninit@COPOSMICR@@IAEXXZ 1000acf6 f i MICRImpl.obj
 0001:00009d48       ?EventWindowProc@COPOSMICR@@IAGJIIJ@Z 1000ad48 f i MICRImpl.obj
 0001:00009e1c       ?FinalConstruct@COPOSMICR@@QAEJXZ 1000ae1c f   MICRImpl.obj
 0001:00009e55       ?FireEventCleanup@COPOSMICR@@IAEXXZ 1000ae55 f i MICRImpl.obj
 0001:00009e6b       ?FireEventSetup@COPOSMICR@@IAE_NXZ 1000ae6b f i MICRImpl.obj
 0001:00009e9f       ?FreezeEvents@COPOSMICR@@MAGJH@Z 1000ae9f f   MICRImpl.obj
 0001:00009eff       ?GetOposProp@COPOSMICR@@IAEJJPAFJ@Z 1000aeff f   MICRImpl.obj
 0001:00009f22       ?GetOposProp@COPOSMICR@@IAEJJPAJJ@Z 1000af22 f   MICRImpl.obj
 0001:00009ff1       ?GetOposProp@COPOSMICR@@IAEJJPAPA_WJ@Z 1000aff1 f   MICRImpl.obj
 0001:0000a0cd       ?OnDraw@COPOSMICR@@MAEJAAUATL_DRAWINFO@@@Z 1000b0cd f   MICRImpl.obj
 0001:0000a16d       ?Open@COPOSMICR@@UAGJPA_WPAJ@Z 1000b16d f   MICRImpl.obj
 0001:0000a9b0       ?ReleaseDevice@COPOSMICR@@UAGJPAJ@Z 1000b9b0 f   MICRImpl.obj
 0001:0000a9ff       ?ResetStatistics@COPOSMICR@@UAGJPA_WPAJ@Z 1000b9ff f   MICRImpl.obj
 0001:0000aa56       ?RetrieveStatistics@COPOSMICR@@UAGJPAPA_WPAJ@Z 1000ba56 f   MICRImpl.obj
 0001:0000aaad       ?SOProcessID@COPOSMICR@@UAGJPAJ@Z 1000baad f   MICRImpl.obj
 0001:0000aac1       ?SetCOFreezeEvents@COPOSMICR@@IAEXF@Z 1000bac1 f   MICRImpl.obj
 0001:0000ab61       ?SetOposProp@COPOSMICR@@IAEJJJJ@Z 1000bb61 f   MICRImpl.obj
 0001:0000ac58       ?UpdateFirmware@COPOSMICR@@UAGJPA_WPAJ@Z 1000bc58 f   MICRImpl.obj
 0001:0000acaf       ?UpdateStatistics@COPOSMICR@@UAGJPA_WPAJ@Z 1000bcaf f   MICRImpl.obj
 0001:0000ad06       ?get_AccountNumber@COPOSMICR@@UAGJPAPA_W@Z 1000bd06 f   MICRImpl.obj
 0001:0000ad1f       ?get_Amount@COPOSMICR@@UAGJPAPA_W@Z 1000bd1f f   MICRImpl.obj
 0001:0000ad38       ?get_AutoDisable@COPOSMICR@@UAGJPAF@Z 1000bd38 f   MICRImpl.obj
 0001:0000ad4e       ?get_BankNumber@COPOSMICR@@UAGJPAPA_W@Z 1000bd4e f   MICRImpl.obj
 0001:0000ad67       ?get_BinaryConversion@COPOSMICR@@UAGJPAJ@Z 1000bd67 f   MICRImpl.obj
 0001:0000ad7d       ?get_CapCompareFirmwareVersion@COPOSMICR@@UAGJPAF@Z 1000bd7d f   MICRImpl.obj
 0001:0000ad96       ?get_CapPowerReporting@COPOSMICR@@UAGJPAJ@Z 1000bd96 f   MICRImpl.obj
 0001:0000adaf       ?get_CapStatisticsReporting@COPOSMICR@@UAGJPAF@Z 1000bdaf f   MICRImpl.obj
 0001:0000adc8       ?get_CapUpdateFirmware@COPOSMICR@@UAGJPAF@Z 1000bdc8 f   MICRImpl.obj
 0001:0000ade1       ?get_CapUpdateStatistics@COPOSMICR@@UAGJPAF@Z 1000bde1 f   MICRImpl.obj
 0001:0000adfa       ?get_CapValidationDevice@COPOSMICR@@UAGJPAF@Z 1000bdfa f   MICRImpl.obj
 0001:0000ae13       ?get_CheckHealthText@COPOSMICR@@UAGJPAPA_W@Z 1000be13 f   MICRImpl.obj
 0001:0000ae2c       ?get_CheckType@COPOSMICR@@UAGJPAJ@Z 1000be2c f   MICRImpl.obj
 0001:0000ae45       ?get_Claimed@COPOSMICR@@UAGJPAF@Z 1000be45 f   MICRImpl.obj
 0001:0000ae5b       ?get_ControlObjectDescription@COPOSMICR@@UAGJPAPA_W@Z 1000be5b f   MICRImpl.obj
 0001:0000aea9       ?get_ControlObjectVersion@COPOSMICR@@UAGJPAJ@Z 1000bea9 f   MICRImpl.obj
 0001:0000aebc       ?get_CountryCode@COPOSMICR@@UAGJPAJ@Z 1000bebc f   MICRImpl.obj
 0001:0000aed5       ?get_DataCount@COPOSMICR@@UAGJPAJ@Z 1000bed5 f   MICRImpl.obj
 0001:0000aeeb       ?get_DataEventEnabled@COPOSMICR@@UAGJPAF@Z 1000beeb f   MICRImpl.obj
 0001:0000af01       ?get_DeviceDescription@COPOSMICR@@UAGJPAPA_W@Z 1000bf01 f   MICRImpl.obj
 0001:0000af1a       ?get_DeviceEnabled@COPOSMICR@@UAGJPAF@Z 1000bf1a f   MICRImpl.obj
 0001:0000af30       ?get_DeviceName@COPOSMICR@@UAGJPAPA_W@Z 1000bf30 f   MICRImpl.obj
 0001:0000af49       ?get_EPC@COPOSMICR@@UAGJPAPA_W@Z 1000bf49 f   MICRImpl.obj
 0001:0000af62       ?get_FreezeEvents@COPOSMICR@@UAGJPAF@Z 1000bf62 f   MICRImpl.obj
 0001:0000af78       ?get_OpenResult@COPOSMICR@@UAGJPAJ@Z 1000bf78 f   MICRImpl.obj
 0001:0000af8f       ?get_PowerNotify@COPOSMICR@@UAGJPAJ@Z 1000bf8f f   MICRImpl.obj
 0001:0000afa5       ?get_PowerState@COPOSMICR@@UAGJPAJ@Z 1000bfa5 f   MICRImpl.obj
 0001:0000afbb       ?get_RawData@COPOSMICR@@UAGJPAPA_W@Z 1000bfbb f   MICRImpl.obj
 0001:0000afd4       ?get_ResultCode@COPOSMICR@@UAGJPAJ@Z 1000bfd4 f   MICRImpl.obj
 0001:0000b012       ?get_ResultCodeExtended@COPOSMICR@@UAGJPAJ@Z 1000c012 f   MICRImpl.obj
 0001:0000b028       ?get_SerialNumber@COPOSMICR@@UAGJPAPA_W@Z 1000c028 f   MICRImpl.obj
 0001:0000b041       ?get_ServiceObjectDescription@COPOSMICR@@UAGJPAPA_W@Z 1000c041 f   MICRImpl.obj
 0001:0000b05a       ?get_ServiceObjectVersion@COPOSMICR@@UAGJPAJ@Z 1000c05a f   MICRImpl.obj
 0001:0000b070       ?get_State@COPOSMICR@@UAGJPAJ@Z 1000c070 f   MICRImpl.obj
 0001:0000b09c       ?get_TransitNumber@COPOSMICR@@UAGJPAPA_W@Z 1000c09c f   MICRImpl.obj
 0001:0000b0b5       ?put_AutoDisable@COPOSMICR@@UAGJF@Z 1000c0b5 f   MICRImpl.obj
 0001:0000b0d2       ?put_BinaryConversion@COPOSMICR@@UAGJJ@Z 1000c0d2 f   MICRImpl.obj
 0001:0000b0e8       ?put_DataEventEnabled@COPOSMICR@@UAGJF@Z 1000c0e8 f   MICRImpl.obj
 0001:0000b105       ?put_DeviceEnabled@COPOSMICR@@UAGJF@Z 1000c105 f   MICRImpl.obj
 0001:0000b122       ?put_FreezeEvents@COPOSMICR@@UAGJF@Z 1000c122 f   MICRImpl.obj
 0001:0000b16e       ?put_PowerNotify@COPOSMICR@@UAGJJ@Z 1000c16e f   MICRImpl.obj
 0001:0000b184       ?s_EventWindowProc@COPOSMICR@@KGJPAUHWND__@@IIJ@Z 1000c184 f i MICRImpl.obj
 0001:0000b1d6       ??_U@YAPAXI@Z              1000c1d6 f   LIBCMT:new_array.obj
 0001:0000b1df       ??3@YAXPAXI@Z              1000c1df f   LIBCMT:delete_scalar_size.obj
 0001:0000b1ed       ??_V@YAXPAX@Z              1000c1ed f   LIBCMT:delete_array.obj
 0001:0000b1f2       ??_V@YAXPAXI@Z             1000c1f2 f   LIBCMT:delete_array_size.obj
 0001:0000b244       ___scrt_acquire_startup_lock 1000c244 f   LIBCMT:utility.obj
 0001:0000b276       ___scrt_dllmain_after_initialize_c 1000c276 f   LIBCMT:utility.obj
 0001:0000b2a1       ___scrt_dllmain_before_initialize_c 1000c2a1 f   LIBCMT:utility.obj
 0001:0000b2af       ___scrt_dllmain_crt_thread_attach 1000c2af f   LIBCMT:utility.obj
 0001:0000b2ce       ___scrt_dllmain_crt_thread_detach 1000c2ce f   LIBCMT:utility.obj
 0001:0000b2db       ___scrt_dllmain_exception_filter 1000c2db f   LIBCMT:utility.obj
 0001:0000b30f       ___scrt_dllmain_uninitialize_c 1000c30f f   LIBCMT:utility.obj
 0001:0000b332       ___scrt_dllmain_uninitialize_critical 1000c332 f   LIBCMT:utility.obj
 0001:0000b33f       ___scrt_initialize_crt     1000c33f f   LIBCMT:utility.obj
 0001:0000b378       ___scrt_initialize_onexit_tables 1000c378 f   LIBCMT:utility.obj
 0001:0000b3ff       ___scrt_is_nonwritable_in_current_image 1000c3ff f   LIBCMT:utility.obj
 0001:0000b493       ___scrt_release_startup_lock 1000c493 f   LIBCMT:utility.obj
 0001:0000b4b0       ___scrt_uninitialize_crt   1000c4b0 f   LIBCMT:utility.obj
 0001:0000b4d8       __onexit                   1000c4d8 f   LIBCMT:utility.obj
 0001:0000b505       _atexit                    1000c505 f   LIBCMT:utility.obj
 0001:0000b51a       ??3@YAXPAX@Z               1000c51a f   LIBCMT:delete_scalar.obj
 0001:0000b5e4       __Init_thread_footer       1000c5e4 f   LIBCMT:thread_safe_statics.obj
 0001:0000b62e       __Init_thread_header       1000c62e f   LIBCMT:thread_safe_statics.obj
 0001:0000b680       __Init_thread_notify       1000c680 f   LIBCMT:thread_safe_statics.obj
 0001:0000b6b6       __Init_thread_wait         1000c6b6 f   LIBCMT:thread_safe_statics.obj
 0001:0000b704       ___raise_securityfailure   1000c704 f   LIBCMT:gs_report.obj
 0001:0000b72c       ___report_gsfailure        1000c72c f   LIBCMT:gs_report.obj
 0001:0000b825       ___report_rangecheckfailure 1000c825 f   LIBCMT:gs_report.obj
 0001:0000b831       ___report_securityfailure  1000c831 f   LIBCMT:gs_report.obj
 0001:0000b8ff       ??2@YAPAXIABUnothrow_t@std@@@Z 1000c8ff f   LIBCMT:new_scalar_nothrow.obj
 0001:0000b94f       ??_U@YAPAXIABUnothrow_t@std@@@Z 1000c94f f   LIBCMT:new_array_nothrow.obj
 0001:0000b958       @__security_check_cookie@4 1000c958 f   LIBCMT:secchk.obj
 0001:0000b970       __SEH_prolog4_GS           1000c970 f   LIBCMT:sehprolg4gs.obj
 0001:0000b9b9       __SEH_epilog4_GS           1000c9b9 f   LIBCMT:sehprolg4gs.obj
 0001:0000b9d0       __alloca_probe_16          1000c9d0 f   LIBCMT:alloca16.obj
 0001:0000b9e6       __alloca_probe_8           1000c9e6     LIBCMT:alloca16.obj
 0001:0000ba00       __chkstk                   1000ca00 f   LIBCMT:chkstk.obj
 0001:0000ba00       __alloca_probe             1000ca00 f   LIBCMT:chkstk.obj
 0001:0000bd6d       __DllMainCRTStartup@12     1000cd6d f   LIBCMT:dll_dllmain.obj
 0001:0000bd90       ??2@YAPAXI@Z               1000cd90 f   LIBCMT:new_scalar.obj
 0001:0000bdc0       ___isa_available_init      1000cdc0 f   LIBCMT:cpu_disp.obj
 0001:0000bf90       ___scrt_is_ucrt_dll_in_use 1000cf90 f   LIBCMT:ucrt_detection.obj
 0001:0000bf9c       ___scrt_fastfail           1000cf9c f   LIBCMT:utility_desktop.obj
 0001:0000c0b6       __crt_debugger_hook        1000d0b6 f   LIBCMT:utility_desktop.obj
 0001:0000c0c0       __SEH_prolog4              1000d0c0 f   LIBCMT:sehprolg4.obj
 0001:0000c106       __SEH_epilog4              1000d106 f   LIBCMT:sehprolg4.obj
 0001:0000c11b       @_guard_check_icall_nop@4  1000d11b f i LIBCMT:guard_support.obj
 0001:0000c169       ___security_init_cookie    1000d169 f   LIBCMT:gs_support.obj
 0001:0000c1b4       ?__scrt_initialize_type_info@@YAXXZ 1000d1b4 f   LIBCMT:tncleanup.obj
 0001:0000c1c0       ?__scrt_uninitialize_type_info@@YAXXZ 1000d1c0 f   LIBCMT:tncleanup.obj
 0001:0000c1cc       ___local_stdio_scanf_options 1000d1cc f i LIBCMT:default_local_stdio_options.obj
 0001:0000c1d2       ___scrt_initialize_default_local_stdio_options 1000d1d2 f   LIBCMT:default_local_stdio_options.obj
 0001:0000c1ef       ___scrt_get_dyn_tls_init_callback 1000d1ef f   LIBCMT:dyn_tls_init.obj
 0001:0000c1f5       __RTC_Initialize           1000d1f5 f   LIBCMT:initsect.obj
 0001:0000c221       __RTC_Terminate            1000d221 f   LIBCMT:initsect.obj
 0001:0000c24d       ??0bad_alloc@std@@QAE@ABV01@@Z 1000d24d f i LIBCMT:throw_bad_alloc.obj
 0001:0000c268       ??0bad_alloc@std@@QAE@XZ   1000d268 f i LIBCMT:throw_bad_alloc.obj
 0001:0000c280       ??0bad_array_new_length@std@@QAE@ABV01@@Z 1000d280 f i LIBCMT:throw_bad_alloc.obj
 0001:0000c29b       ??0bad_array_new_length@std@@QAE@XZ 1000d29b f i LIBCMT:throw_bad_alloc.obj
 0001:0000c2b3       ??0exception@std@@QAE@ABV01@@Z 1000d2b3 f i LIBCMT:throw_bad_alloc.obj
 0001:0000c2df       ??1bad_exception@std@@UAE@XZ 1000d2df f i libvcruntime:frame.obj
 0001:0000c2df       ??1bad_array_new_length@std@@UAE@XZ 1000d2df f i LIBCMT:throw_bad_alloc.obj
 0001:0000c2df       ??1bad_alloc@std@@UAE@XZ   1000d2df f i LIBCMT:throw_bad_alloc.obj
 0001:0000c2f0       ??_Ebad_array_new_length@std@@UAEPAXI@Z 1000d2f0 f i LIBCMT:throw_bad_alloc.obj
 0001:0000c2f0       ??_Ebad_alloc@std@@UAEPAXI@Z 1000d2f0 f i LIBCMT:throw_bad_alloc.obj
 0001:0000c2f0       ??_Ebad_exception@std@@UAEPAXI@Z 1000d2f0 f i libvcruntime:frame.obj
 0001:0000c2f0       ??_Gexception@std@@UAEPAXI@Z 1000d2f0 f i LIBCMT:throw_bad_alloc.obj
 0001:0000c2f0       ??_Eexception@std@@UAEPAXI@Z 1000d2f0 f i LIBCMT:throw_bad_alloc.obj
 0001:0000c2f0       ??_Gbad_exception@std@@UAEPAXI@Z 1000d2f0 f i libvcruntime:frame.obj
 0001:0000c2f0       ??_Gbad_array_new_length@std@@UAEPAXI@Z 1000d2f0 f i LIBCMT:throw_bad_alloc.obj
 0001:0000c2f0       ??_Gbad_alloc@std@@UAEPAXI@Z 1000d2f0 f i LIBCMT:throw_bad_alloc.obj
 0001:0000c31d       ?__scrt_throw_std_bad_alloc@@YAXXZ 1000d31d f   LIBCMT:throw_bad_alloc.obj
 0001:0000c33a       ?__scrt_throw_std_bad_array_new_length@@YAXXZ 1000d33a f   LIBCMT:throw_bad_alloc.obj
 0001:0000c357       ?what@exception@std@@UBEPBDXZ 1000d357 f i LIBCMT:throw_bad_alloc.obj
 0001:0000c364       ??_Gtype_info@@UAEPAXI@Z   1000d364 f i LIBCMT:std_type_info_static.obj
 0001:0000c364       ??_Etype_info@@UAEPAXI@Z   1000d364 f i LIBCMT:std_type_info_static.obj
 0001:0000c387       ??0CAtlBaseModule@ATL@@QAE@XZ 1000d387 f   atls:atlbase.obj
 0001:0000c3da       ??0_ATL_BASE_MODULE70@ATL@@QAE@XZ 1000d3da f i atls:atlbase.obj
 0001:0000c3fd       ??1CAtlBaseModule@ATL@@QAE@XZ 1000d3fd f   atls:atlbase.obj
 0001:0000c4ea       ?Init@_stdcallthunk@ATL@@QAEHKPAX@Z 1000d4ea f i atls:atlthunk.obj
 0001:0000c51f       ?__AllocStdCallThunk_cmn@@YAPAXXZ 1000d51f f   atls:atlthunk.obj
 0001:0000c5e5       ?__FreeStdCallThunk_cmn@@YAXPAX@Z 1000d5e5 f   atls:atlthunk.obj
 0001:0000c680       _AtlThunk_AllocateData@0   1000d680 f   atls:atlthunk.obj
 0001:0000c6e5       _AtlThunk_DataToCode@4     1000d6e5 f   atls:atlthunk.obj
 0001:0000c72c       _AtlThunk_FreeData@4       1000d72c f   atls:atlthunk.obj
 0001:0000c782       _AtlThunk_InitData@12      1000d782 f   atls:atlthunk.obj
 0001:0000c7d1       __get_purecall_handler     1000d7d1 f   libvcruntime:purevirt.obj
 0001:0000c7d7       __purecall                 1000d7d7 f   libvcruntime:purevirt.obj
 0001:0000c7f3       _wcsstr                    1000d7f3 f   libvcruntime:wcsstr.obj
 0001:0000caa0       __except_handler4          1000daa0 f   libvcruntime:chandler4.obj
 0001:0000cbfe       _memcmp                    1000dbfe f   libvcruntime:memcmp.obj
 0001:0000db10       _memcpy                    1000eb10 f   libvcruntime:memcpy.obj
 0001:0000e090       _memset                    1000f090 f   libvcruntime:memset.obj
 0001:0000e1ea       ___vcrt_initialize         1000f1ea f   libvcruntime:initialization.obj
 0001:0000e209       ___vcrt_thread_attach      1000f209 f   libvcruntime:initialization.obj
 0001:0000e214       ___vcrt_thread_detach      1000f214 f   libvcruntime:initialization.obj
 0001:0000e21f       ___vcrt_uninitialize       1000f21f f   libvcruntime:initialization.obj
 0001:0000e236       ___vcrt_uninitialize_critical 1000f236 f   libvcruntime:initialization.obj
 0001:0000e23e       ?GetRangeOfTrysToCheck@__FrameHandler3@@SA?AU?$pair@Viterator@TryBlockMap@__FrameHandler3@@V123@@std@@AAVTryBlockMap@1@HPAXPBU_s_FuncInfo@@H@Z 1000f23e f   libvcruntime:trnsctrl.obj
 0001:0000e2ae       ?_CallCatchBlock2@@YAPAXPAUEHRegistrationNode@@PBU_s_FuncInfo@@PAXHK@Z 1000f2ae f   libvcruntime:trnsctrl.obj
 0001:0000e30c       ?_CallSETranslator@@YAHPAUEHExceptionRecord@@PAUEHRegistrationNode@@PAX2PBU_s_FuncInfo@@H1@Z 1000f30c f   libvcruntime:trnsctrl.obj
 0001:0000e3f2       ?_JumpToContinuation@@YGXPAXPAUEHRegistrationNode@@@Z 1000f3f2 f   libvcruntime:trnsctrl.obj
 0001:0000e422       ?_UnwindNestedFrames@@YGXPAUEHRegistrationNode@@PAUEHExceptionRecord@@@Z 1000f422 f   libvcruntime:trnsctrl.obj
 0001:0000e475       __CatchGuardHandler        1000f475 f   libvcruntime:trnsctrl.obj
 0001:0000e4a6       __CreateFrameInfo          1000f4a6 f   libvcruntime:trnsctrl.obj
 0001:0000e4ca       __FindAndUnlinkFrame       1000f4ca f   libvcruntime:trnsctrl.obj
 0001:0000e512       __TranslatorGuardHandler   1000f512 f   libvcruntime:trnsctrl.obj
 0001:0000e5af       ___CxxFrameHandler3        1000f5af f   libvcruntime:trnsctrl.obj
 0001:0000e5e5       ___DestructExceptionObject 1000f5e5 f   libvcruntime:ehhelpers.obj
 0001:0000e686       ?_CallMemberFunction0@@YGXQAX0@Z 1000f686 f i libvcruntime:ehhelpers.obj
 0001:0000e6eb       __IsExceptionObjectToBeDestroyed 1000f6eb f   libvcruntime:ehhelpers.obj
 0001:0000e711       ___AdjustPointer           1000f711 f   libvcruntime:ehhelpers.obj
 0001:0000e736       ___FrameUnwindFilter       1000f736 f   libvcruntime:ehhelpers.obj
 0001:0000e78c       ___std_type_info_compare   1000f78c f   libvcruntime:std_type_info.obj
 0001:0000e7c8       ___std_type_info_destroy_list 1000f7c8 f   libvcruntime:std_type_info.obj
 0001:0000e7eb       ___std_exception_copy      1000f7eb f   libvcruntime:std_exception.obj
 0001:0000e84e       ___std_exception_destroy   1000f84e f   libvcruntime:std_exception.obj
 0001:0000e86d       __CxxThrowException@8      1000f86d f   libvcruntime:throw.obj
 0001:0000e8e0       _memmove                   1000f8e0 f   libvcruntime:memmove.obj
 0001:0000ee60       __local_unwind4            1000fe60 f   libvcruntime:exsup4.obj
 0001:0000ef38       __seh_longjmp_unwind4@4    1000ff38 f   libvcruntime:exsup4.obj
 0001:0000ef60       @_EH4_CallFilterFunc@8     1000ff60 f   libvcruntime:exsup4.obj
 0001:0000ef78       @_EH4_TransferToHandler@8  1000ff78 f   libvcruntime:exsup4.obj
 0001:0000ef94       @_EH4_GlobalUnwind2@8      1000ff94 f   libvcruntime:exsup4.obj
 0001:0000efb0       @_EH4_LocalUnwind@16       1000ffb0 f   libvcruntime:exsup4.obj
 0001:0000efc7       ___except_validate_context_record 1000ffc7 f   libvcruntime:jbcxrval.obj
 0001:0000eff7       ___except_validate_jump_buffer 1000fff7 f   libvcruntime:jbcxrval.obj
 0001:0000f024       ___vcrt_freefls@4          10010024 f   libvcruntime:per_thread_data.obj
 0001:0000f040       ___vcrt_freeptd            10010040 f   libvcruntime:per_thread_data.obj
 0001:0000f076       ___vcrt_getptd             10010076 f   libvcruntime:per_thread_data.obj
 0001:0000f084       ___vcrt_getptd_noexit      10010084 f   libvcruntime:per_thread_data.obj
 0001:0000f116       ___vcrt_initialize_ptd     10010116 f   libvcruntime:per_thread_data.obj
 0001:0000f149       ___vcrt_uninitialize_ptd   10010149 f   libvcruntime:per_thread_data.obj
 0001:0000f164       ___vcrt_initialize_locks   10010164 f   libvcruntime:locks.obj
 0001:0000f1a0       ___vcrt_uninitialize_locks 100101a0 f   libvcruntime:locks.obj
 0001:0000f912       ??$TypeMatchHelper@V__FrameHandler3@@@@YAHPBU_s_HandlerType@@PBU_s_CatchableType@@PBU_s_ThrowInfo@@@Z 10010912 f i libvcruntime:frame.obj
 0001:0000f9a0       ??$__InternalCxxFrameHandler@V__FrameHandler3@@@@YA?AW4_EXCEPTION_DISPOSITION@@PAUEHExceptionRecord@@PAUEHRegistrationNode@@PAU_CONTEXT@@PAXPBU_s_FuncInfo@@H1E@Z 100109a0 f i libvcruntime:frame.obj
 0001:0000faa2       ??0bad_exception@std@@QAE@ABV01@@Z 10010aa2 f i libvcruntime:frame.obj
 0001:0000fabd       ??0bad_exception@std@@QAE@XZ 10010abd f i libvcruntime:frame.obj
 0001:0000fad5       ??8type_info@@QBE_NABV0@@Z 10010ad5 f i libvcruntime:frame.obj
 0001:0000fd3c       ?FrameUnwindToEmptyState@__FrameHandler3@@SAXPAUEHRegistrationNode@@PAXPBU_s_FuncInfo@@@Z 10010d3c f   libvcruntime:frame.obj
 0001:0000fd54       ?FrameUnwindToState@__FrameHandler3@@SAXPAUEHRegistrationNode@@PAXPBU_s_FuncInfo@@H@Z 10010d54 f   libvcruntime:frame.obj
 0001:0000fed6       ?_CallMemberFunction1@@YGXQAX00@Z 10010ed6 f i libvcruntime:frame.obj
 0001:0000fee6       ?_CallMemberFunction2@@YGXQAX00H@Z 10010ee6 f i libvcruntime:frame.obj
 0001:0000fef9       ?getESTypes@__FrameHandler3@@SAPBU_s_ESTypeList@@PBU_s_FuncInfo@@@Z 10010ef9 f i libvcruntime:frame.obj
 0001:0000ff10       __CallSettingFrame@12      10010f10 f   libvcruntime:lowhelpr.obj
 0001:0000ff37       __NLG_Return               10010f37     libvcruntime:lowhelpr.obj
 0001:0000ff60       __global_unwind2           10010f60 f   libvcruntime:exsup.obj
 0001:0000ffc6       __local_unwind2            10010fc6 f   libvcruntime:exsup.obj
 0001:0001004a       __abnormal_termination     1001104a f   libvcruntime:exsup.obj
 0001:00010070       __NLG_Notify1              10011070 f   libvcruntime:exsup.obj
 0001:0001007c       __NLG_Notify               1001107c f   libvcruntime:exsup.obj
 0001:00010093       __NLG_Dispatch             10011093     libvcruntime:exsup.obj
 0001:00010093       __NLG_Dispatch2            10011093     libvcruntime:exsup.obj
 0001:0001009b       __NLG_Call                 1001109b f   libvcruntime:exsup.obj
 0001:0001009d       __NLG_Return2              1001109d     libvcruntime:exsup.obj
 0001:00010181       ___vcrt_FlsAlloc           10011181 f   libvcruntime:winapi_downlevel.obj
 0001:000101bc       ___vcrt_FlsFree            100111bc f   libvcruntime:winapi_downlevel.obj
 0001:000101f7       ___vcrt_FlsGetValue        100111f7 f   libvcruntime:winapi_downlevel.obj
 0001:00010232       ___vcrt_FlsSetValue        10011232 f   libvcruntime:winapi_downlevel.obj
 0001:00010270       ___vcrt_InitializeCriticalSectionEx 10011270 f   libvcruntime:winapi_downlevel.obj
 0001:000102b7       _unexpected                100112b7 f   libvcruntime:unexpected.obj
 0001:000102d4       ?GetCurrentState@__FrameHandler3@@SAHPAUEHRegistrationNode@@PAXPBU_s_FuncInfo@@@Z 100112d4 f   libvcruntime:ehstate.obj
 0001:000102f1       ?SetState@__FrameHandler3@@SAXPAUEHRegistrationNode@@PBU_s_FuncInfo@@H@Z 100112f1 f   libvcruntime:ehstate.obj
 0001:000102ff       _free                      100112ff f   libucrt:free.obj
 0001:0001031a       ___acrt_call_reportfault   1001131a f   libucrt:invalid_parameter.obj
 0001:00010453       ___acrt_initialize_invalid_parameter_handler 10011453 f   libucrt:invalid_parameter.obj
 0001:00010462       __invalid_parameter        10011462 f   libucrt:invalid_parameter.obj
 0001:000104c6       __invalid_parameter_noinfo 100114c6 f   libucrt:invalid_parameter.obj
 0001:000104d6       __invoke_watson            100114d6 f   libucrt:invalid_parameter.obj
 0001:0001050a       ___acrt_errno_from_os_error 1001150a f   libucrt:errno.obj
 0001:0001054d       ___acrt_errno_map_os_error 1001154d f   libucrt:errno.obj
 0001:00010570       ___doserrno                10011570 f   libucrt:errno.obj
 0001:00010583       __errno                    10011583 f   libucrt:errno.obj
 0001:00010596       _calloc                    10011596 f   libucrt:calloc.obj
 0001:000105a1       _malloc                    100115a1 f   libucrt:malloc.obj
 0001:000105ac       __recalloc                 100115ac f   libucrt:recalloc.obj
 0001:000105b7       __recalloc_base            100115b7 f   libucrt:recalloc.obj
 0001:00010624       __resetstkoflw             10011624 f   libucrt:resetstk.obj
 0001:000106e9       _wcscat_s                  100116e9 f   libucrt:wcscat_s.obj
 0001:0001075e       _wcscpy_s                  1001175e f   libucrt:wcscpy_s.obj
 0001:0001088d       _wcsncpy_s                 1001188d f   libucrt:wcsncpy_s.obj
 0001:00010a99       ??$count@D@formatting_buffer@__crt_stdio_output@@QBEIXZ 10011a99 f i libucrt:output.obj
 0001:00010ab1       ??$count@_W@formatting_buffer@__crt_stdio_output@@QBEIXZ 10011ab1 f i libucrt:output.obj
 0001:00010aca       ??$ensure_buffer_is_big_enough@D@formatting_buffer@__crt_stdio_output@@QAE_NI@Z 10011aca f i libucrt:output.obj
 0001:00010b47       ??$ensure_buffer_is_big_enough@_W@formatting_buffer@__crt_stdio_output@@QAE_NI@Z 10011b47 f i libucrt:output.obj
 0001:00010bc5       ??$is_wide_character_specifier@_W@__crt_stdio_output@@YA_N_K_WW4length_modifier@0@@Z 10011bc5 f i libucrt:output.obj
 0001:00010c13       ??$scratch_data@D@formatting_buffer@__crt_stdio_output@@QAEPADXZ 10011c13 f i libucrt:output.obj
 0001:00010c31       ??$type_case_integer_parse_into_buffer@I@?$output_processor@_WV?$string_output_adapter@_W@__crt_stdio_output@@V?$format_validation_base@_WV?$string_output_adapter@_W@__crt_stdio_output@@@2@@__crt_stdio_output@@AAEXII_N@Z 10011c31 f i libucrt:output.obj
 0001:00010cb8       ??$type_case_integer_parse_into_buffer@_K@?$output_processor@_WV?$string_output_adapter@_W@__crt_stdio_output@@V?$format_validation_base@_WV?$string_output_adapter@_W@__crt_stdio_output@@@2@@__crt_stdio_output@@AAEX_KI_N@Z 10011cb8 f i libucrt:output.obj
 0001:00010d5a       ??$write_multiple_characters@V?$string_output_adapter@_W@__crt_stdio_output@@D@__crt_stdio_output@@YAXABV?$string_output_adapter@_W@0@DHQAH@Z 10011d5a f i libucrt:output.obj
 0001:00010d8b       ??0?$common_data@_W@__crt_stdio_output@@IAE@XZ 10011d8b f i libucrt:output.obj
 0001:00010dd5       ??0?$output_adapter_data@_WV?$string_output_adapter@_W@__crt_stdio_output@@@__crt_stdio_output@@IAE@ABV?$string_output_adapter@_W@1@_KQB_WQAU__crt_locale_pointers@@QAD@Z 10011dd5 f i libucrt:output.obj
 0001:00010e11       ??0_LocaleUpdate@@QAE@QAU__crt_locale_pointers@@@Z 10011e11 f i libucrt:output.obj
 0001:00010e94       ??1formatting_buffer@__crt_stdio_output@@QAE@XZ 10011e94 f i libucrt:output.obj
 0001:00010eae       ??4?$__crt_unique_heap_ptr@DU__crt_internal_free_policy@@@@QAEAAV0@$$QAV0@@Z 10011eae f i libucrt:output.obj
 0001:00010ee0       ?crop_zeroes@__crt_stdio_output@@YAXPADQAU__crt_locale_pointers@@@Z 10011ee0 f i libucrt:output.obj
 0001:00010f61       ?find_next_state@?$output_processor@_WV?$string_output_adapter@_W@__crt_stdio_output@@V?$format_validation_base@_WV?$string_output_adapter@_W@__crt_stdio_output@@@2@@__crt_stdio_output@@ABE?AW4state@2@_WW432@@Z 10011f61 f i libucrt:output.obj
 0001:00010fa0       ?force_decimal_point@__crt_stdio_output@@YAXPADQAU__crt_locale_pointers@@@Z 10011fa0 f i libucrt:output.obj
 0001:00011005       ?parse_int_from_format_string@?$output_processor@_WV?$string_output_adapter@_W@__crt_stdio_output@@V?$format_validation_base@_WV?$string_output_adapter@_W@__crt_stdio_output@@@2@@__crt_stdio_output@@AAE_NQAH@Z 10012005 f i libucrt:output.obj
 0001:0001107b       ?process@?$output_processor@_WV?$string_output_adapter@_W@__crt_stdio_output@@V?$format_validation_base@_WV?$string_output_adapter@_W@__crt_stdio_output@@@2@@__crt_stdio_output@@QAEHXZ 1001207b f i libucrt:output.obj
 0001:000111a3       ?state_case_flag@?$output_processor@_WV?$string_output_adapter@_W@__crt_stdio_output@@V?$format_validation_base@_WV?$string_output_adapter@_W@__crt_stdio_output@@@2@@__crt_stdio_output@@AAE_NXZ 100121a3 f i libucrt:output.obj
 0001:000111e0       ?state_case_normal@?$output_processor@_WV?$string_output_adapter@_W@__crt_stdio_output@@V?$format_validation_base@_WV?$string_output_adapter@_W@__crt_stdio_output@@@2@@__crt_stdio_output@@AAE_NXZ 100121e0 f i libucrt:output.obj
 0001:000111ff       ?state_case_normal_common@?$output_processor@_WV?$string_output_adapter@_W@__crt_stdio_output@@V?$format_validation_base@_WV?$string_output_adapter@_W@__crt_stdio_output@@@2@@__crt_stdio_output@@AAE_NXZ 100121ff f i libucrt:output.obj
 0001:0001121a       ?state_case_precision@?$output_processor@_WV?$string_output_adapter@_W@__crt_stdio_output@@V?$format_validation_base@_WV?$string_output_adapter@_W@__crt_stdio_output@@@2@@__crt_stdio_output@@AAE_NXZ 1001221a f i libucrt:output.obj
 0001:00011241       ?state_case_size@?$output_processor@_WV?$string_output_adapter@_W@__crt_stdio_output@@V?$format_validation_base@_WV?$string_output_adapter@_W@__crt_stdio_output@@@2@@__crt_stdio_output@@AAE_NXZ 10012241 f i libucrt:output.obj
 0001:000113b9       ?state_case_type@?$output_processor@_WV?$string_output_adapter@_W@__crt_stdio_output@@V?$format_validation_base@_WV?$string_output_adapter@_W@__crt_stdio_output@@@2@@__crt_stdio_output@@AAE_NXZ 100123b9 f i libucrt:output.obj
 0001:00011616       ?state_case_width@?$output_processor@_WV?$string_output_adapter@_W@__crt_stdio_output@@V?$format_validation_base@_WV?$string_output_adapter@_W@__crt_stdio_output@@@2@@__crt_stdio_output@@AAE_NXZ 10012616 f i libucrt:output.obj
 0001:00011650       ?to_integer_size@__crt_stdio_output@@YAIW4length_modifier@1@@Z 10012650 f i libucrt:output.obj
 0001:000116ac       ?type_case_Z@?$output_processor@_WV?$string_output_adapter@_W@__crt_stdio_output@@V?$format_validation_base@_WV?$string_output_adapter@_W@__crt_stdio_output@@@2@@__crt_stdio_output@@AAE_NXZ 100126ac f i libucrt:output.obj
 0001:00011706       ?type_case_a@?$output_processor@_WV?$string_output_adapter@_W@__crt_stdio_output@@V?$format_validation_base@_WV?$string_output_adapter@_W@__crt_stdio_output@@@2@@__crt_stdio_output@@AAE_NXZ 10012706 f i libucrt:output.obj
 0001:0001186d       ?type_case_c_tchar@?$output_processor@_WV?$string_output_adapter@_W@__crt_stdio_output@@V?$format_validation_base@_WV?$string_output_adapter@_W@__crt_stdio_output@@@2@@__crt_stdio_output@@AAE_N_W@Z 1001286d f i libucrt:output.obj
 0001:00011903       ?type_case_integer@?$output_processor@_WV?$string_output_adapter@_W@__crt_stdio_output@@V?$format_validation_base@_WV?$string_output_adapter@_W@__crt_stdio_output@@@2@@__crt_stdio_output@@AAE_NI_N@Z 10012903 f i libucrt:output.obj
 0001:00011a58       ?type_case_n@?$output_processor@_WV?$string_output_adapter@_W@__crt_stdio_output@@V?$format_validation_base@_WV?$string_output_adapter@_W@__crt_stdio_output@@@2@@__crt_stdio_output@@AAE_NXZ 10012a58 f i libucrt:output.obj
 0001:00011acc       ?type_case_o@?$output_processor@_WV?$string_output_adapter@_W@__crt_stdio_output@@V?$format_validation_base@_WV?$string_output_adapter@_W@__crt_stdio_output@@@2@@__crt_stdio_output@@AAE_NXZ 10012acc f i libucrt:output.obj
 0001:00011aeb       ?type_case_p@?$output_processor@_WV?$string_output_adapter@_W@__crt_stdio_output@@V?$format_validation_base@_WV?$string_output_adapter@_W@__crt_stdio_output@@@2@@__crt_stdio_output@@AAE_NXZ 10012aeb f i libucrt:output.obj
 0001:00011b03       ?type_case_s@?$output_processor@_WV?$string_output_adapter@_W@__crt_stdio_output@@V?$format_validation_base@_WV?$string_output_adapter@_W@__crt_stdio_output@@@2@@__crt_stdio_output@@AAE_NXZ 10012b03 f i libucrt:output.obj
 0001:00011b76       ?type_case_s_compute_narrow_string_length@?$output_processor@_WV?$string_output_adapter@_W@__crt_stdio_output@@V?$format_validation_base@_WV?$string_output_adapter@_W@__crt_stdio_output@@@2@@__crt_stdio_output@@ABEHH_W@Z 10012b76 f i libucrt:output.obj
 0001:00011bbd       ?validate@?$string_output_adapter@_W@__crt_stdio_output@@QBE_NXZ 10012bbd f i libucrt:output.obj
 0001:00011bbd       ?validate@?$c_string_character_source@_W@__crt_strtox@@QBE_NXZ 10012bbd f i libucrt:atox.obj
 0001:00011bd8       ?validate_and_update_state_at_end_of_format_string@?$format_validation_base@_WV?$string_output_adapter@_W@__crt_stdio_output@@@__crt_stdio_output@@IBE_NXZ 10012bd8 f i libucrt:output.obj
 0001:00011bfa       ?write_character@?$string_output_adapter@_W@__crt_stdio_output@@QBE_N_WQAH@Z 10012bfa f i libucrt:output.obj
 0001:00011c3f       ?write_stored_string_tchar@?$output_processor@_WV?$string_output_adapter@_W@__crt_stdio_output@@V?$format_validation_base@_WV?$string_output_adapter@_W@__crt_stdio_output@@@2@@__crt_stdio_output@@AAE_N_W@Z 10012c3f f i libucrt:output.obj
 0001:00011ccc       ?write_string@?$string_output_adapter@_W@__crt_stdio_output@@QBEXQB_WHQAHAAV__crt_deferred_errno_cache@@@Z 10012ccc f i libucrt:output.obj
 0001:00011d3d       ___acrt_locale_get_ctype_array_value 10012d3d f i libucrt:output.obj
 0001:00011d5f       ___stdio_common_vswprintf_s 10012d5f f   libucrt:output.obj
 0001:00011d83       __seh_filter_dll           10012d83 f   libucrt:exception_filter.obj
 0001:00011da3       __seh_filter_exe           10012da3 f   libucrt:exception_filter.obj
 0001:00012171       ___acrt_initialize_thread_local_exit_callback 10013171 f   libucrt:exit.obj
 0001:00012180       __cexit                    10013180 f   libucrt:exit.obj
 0001:0001218f       __exit                     1001318f f   libucrt:exit.obj
 0001:000121a5       __is_c_termination_complete 100131a5 f   libucrt:exit.obj
 0001:00012456       ___acrt_allocate_buffer_for_argv 10013456 f   libucrt:argv_parsing.obj
 0001:000124a5       __configure_narrow_argv    100134a5 f   libucrt:argv_parsing.obj
 0001:00012602       ??$uninitialize@A6AXAAPAPA_W@Z@?$dual_state_global@PAPA_W@__crt_state_management@@QAEXA6AXAAPAPA_W@Z@Z 10013602 f i libucrt:environment_initialization.obj
 0001:00012602       ??$uninitialize@A6AXAAPAPAD@Z@?$dual_state_global@PAPAD@__crt_state_management@@QAEXA6AXAAPAPAD@Z@Z 10013602 f i libucrt:environment_initialization.obj
 0001:00012661       ___dcrt_uninitialize_environments_nolock 10013661 f   libucrt:environment_initialization.obj
 0001:00012698       __initialize_narrow_environment 10013698 f   libucrt:environment_initialization.obj
 0001:00012753       ??$__crt_fast_encode_pointer@PAX@@YAPAXQAX@Z 10013753 f i libucrt:initialization.obj
 0001:00012753       ??$__crt_fast_encode_pointer@PAP6AXXZ@@YAPAP6AXXZQAP6AXXZ@Z 10013753 f i libucrt:onexit.obj
 0001:00012753       ??$__crt_fast_encode_pointer@P6AHXZ@@YAP6AHXZQ6AHXZ@Z 10013753 f i libucrt:onexit.obj
 0001:00012975       __crt_atexit               10013975 f   libucrt:onexit.obj
 0001:0001298b       __execute_onexit_table     1001398b f   libucrt:onexit.obj
 0001:000129b8       __initialize_onexit_table  100139b8 f   libucrt:onexit.obj
 0001:000129e1       __register_onexit_function 100139e1 f   libucrt:onexit.obj
 0001:00012a3b       ___acrt_uninitialize_command_line 10013a3b f   libucrt:argv_data.obj
 0001:00012b12       ___acrt_initialize         10013b12 f   libucrt:initialization.obj
 0001:00012b24       ___acrt_thread_attach      10013b24 f   libucrt:initialization.obj
 0001:00012b2f       ___acrt_thread_detach      10013b2f f   libucrt:initialization.obj
 0001:00012b37       ___acrt_uninitialize       10013b37 f   libucrt:initialization.obj
 0001:00012b67       ___acrt_uninitialize_critical 10013b67 f   libucrt:initialization.obj
 0001:00012b79       __initterm                 10013b79 f   libucrt:initterm.obj
 0001:00012bbe       __initterm_e               10013bbe f   libucrt:initterm.obj
 0001:00012bec       ___acrt_initialize_new_handler 10013bec f   libucrt:new_handler.obj
 0001:00012bfb       __callnewh                 10013bfb f   libucrt:new_handler.obj
 0001:00012c28       __query_new_handler        10013c28 f   libucrt:new_handler.obj
 0001:00012c84       _terminate                 10013c84 f   libucrt:terminate.obj
 0001:00012cc0       _abort                     10013cc0 f   libucrt:abort.obj
 0001:00012d04       _strcpy_s                  10013d04 f   libucrt:strcpy_s.obj
 0001:00012d5e       ??$is_overflow_condition@K@__crt_strtox@@YA_NIK@Z 10013d5e f i libucrt:atox.obj
 0001:00012d8f       ??$parse_integer@KV?$c_string_character_source@_W@__crt_strtox@@@__crt_strtox@@YAKQAU__crt_locale_pointers@@V?$c_string_character_source@_W@0@H_N@Z 10013d8f f i libucrt:atox.obj
 0001:00013397       ?unget@?$c_string_character_source@_W@__crt_strtox@@QAEX_W@Z 10014397 f i libucrt:atox.obj
 0001:000133d0       _strncmp                   100143d0 f   libucrt:strncmp.obj
 0001:00013448       _wcsncmp                   10014448 f   libucrt:wcsncmp.obj
 0001:00013482       __free_base                10014482 f   libucrt:free_base.obj
 0001:000137fa       ___acrt_freeptd            100147fa f   libucrt:per_thread_data.obj
 0001:00013826       ___acrt_getptd             10014826 f   libucrt:per_thread_data.obj
 0001:000138e3       ___acrt_getptd_head        100148e3 f   libucrt:per_thread_data.obj
 0001:0001397d       ___acrt_getptd_noexit      1001497d f   libucrt:per_thread_data.obj
 0001:00013a32       ___acrt_initialize_ptd     10014a32 f   libucrt:per_thread_data.obj
 0001:00013a5e       ___acrt_uninitialize_ptd   10014a5e f   libucrt:per_thread_data.obj
 0001:00013a78       __calloc_base              10014a78 f   libucrt:calloc_base.obj
 0001:00013ad5       __malloc_base              10014ad5 f   libucrt:malloc_base.obj
 0001:00013b23       __msize_base               10014b23 f   libucrt:msize.obj
 0001:00013b56       __realloc_base             10014b56 f   libucrt:realloc_base.obj
 0001:00013d57       ___acrt_AppPolicyGetProcessTerminationMethodInternal@4 10014d57 f   libucrt:winapi_thunks.obj
 0001:00013d97       ___acrt_AreFileApisANSI@0  10014d97 f   libucrt:winapi_thunks.obj
 0001:00013db6       ___acrt_FlsAlloc@4         10014db6 f   libucrt:winapi_thunks.obj
 0001:00013df5       ___acrt_FlsFree@4          10014df5 f   libucrt:winapi_thunks.obj
 0001:00013e34       ___acrt_FlsGetValue@4      10014e34 f   libucrt:winapi_thunks.obj
 0001:00013e73       ___acrt_FlsSetValue@8      10014e73 f   libucrt:winapi_thunks.obj
 0001:00013eb5       ___acrt_InitializeCriticalSectionEx@12 10014eb5 f   libucrt:winapi_thunks.obj
 0001:00013f00       ___acrt_LCMapStringEx@36   10014f00 f   libucrt:winapi_thunks.obj
 0001:00013f5d       ___acrt_LocaleNameToLCID@8 10014f5d f   libucrt:winapi_thunks.obj
 0001:00013f8e       ___acrt_SetThreadStackGuarantee@4 10014f8e f   libucrt:winapi_thunks.obj
 0001:00013fc9       ___acrt_initialize_winapi_thunks 10014fc9 f   libucrt:winapi_thunks.obj
 0001:00013ff4       ___acrt_uninitialize_winapi_thunks 10014ff4 f   libucrt:winapi_thunks.obj
 0001:0001402a       ??$make_c_string_character_source@_WPAPA_W@__crt_strtox@@YA?AV?$c_string_character_source@_W@0@QB_WQAPA_W@Z 1001502a f i libucrt:strtox.obj
 0001:00014045       _wcstol                    10015045 f   libucrt:strtox.obj
 0001:0001406f       __mbtowc_l                 1001506f f   libucrt:mbtowc.obj
 0001:000141b1       _mbtowc                    100151b1 f   libucrt:mbtowc.obj
 0001:000141cb       _wcsnlen                   100151cb f   libucrt:strnlen.obj
 0001:0001437b       ___acrt_update_locale_info 1001537b f   libucrt:locale_update.obj
 0001:000143a8       ___acrt_update_multibyte_info 100153a8 f   libucrt:locale_update.obj
 0001:000143d5       ?__acrt_fp_classify@@YA?AW4__acrt_fp_class@@ABN@Z 100153d5 f i libucrt:cvt.obj
 0001:00014d87       ___acrt_fp_format          10015d87 f   libucrt:cvt.obj
 0001:00014ee5       __fileno                   10015ee5 f   libucrt:fileno.obj
 0001:00014f0c       ___acrt_initialize_stdio   10015f0c f   libucrt:_file.obj
 0001:00014fd4       ___acrt_uninitialize_stdio 10015fd4 f   libucrt:_file.obj
 0001:00015020       __lock_file                10016020 f   libucrt:_file.obj
 0001:00015034       __unlock_file              10016034 f   libucrt:_file.obj
 0001:00015048       __get_printf_count_output  10016048 f   libucrt:printf_count_output.obj
 0001:000150cb       ___acrt_set_locale_changed 100160cb f   libucrt:wsetlocale.obj
 0001:000150d6       ___acrt_uninitialize_locale 100160d6 f   libucrt:wsetlocale.obj
 0001:00015267       ___acrt_initialize_lowio   10016267 f   libucrt:ioinit.obj
 0001:000152c7       ___acrt_uninitialize_lowio 100162c7 f   libucrt:ioinit.obj
 0001:000152f3       ___acrt_initialize_locks   100162f3 f   libucrt:locks.obj
 0001:00015334       ___acrt_lock               10016334 f   libucrt:locks.obj
 0001:0001534b       ___acrt_uninitialize_locks 1001634b f   libucrt:locks.obj
 0001:0001537c       ___acrt_unlock             1001637c f   libucrt:locks.obj
 0001:00015393       ___acrt_get_process_end_policy 10016393 f   libucrt:win_policies.obj
 0001:0001555d       ??$__acrt_mbs_to_wcs_cp@U__crt_win32_buffer_internal_dynamic_resizing@@@@YAHQBDAAV?$__crt_win32_buffer@_WU__crt_win32_buffer_internal_dynamic_resizing@@@@I@Z 1001655d f i libucrt:argv_wildcards.obj
 0001:00015a71       ?__acrt_get_utf8_acp_compatibility_codepage@@YAIXZ 10016a71 f i libucrt:argv_wildcards.obj
 0001:00015ab0       ?_deallocate@?$__crt_win32_buffer@DU__crt_win32_buffer_internal_dynamic_resizing@@@@AAEXXZ 10016ab0 f i libucrt:argv_wildcards.obj
 0001:00015ab0       ?_deallocate@?$__crt_win32_buffer@_WU__crt_win32_buffer_internal_dynamic_resizing@@@@AAEXXZ 10016ab0 f i libucrt:argv_wildcards.obj
 0001:00015aca       ?allocate@?$__crt_win32_buffer@DU__crt_win32_buffer_internal_dynamic_resizing@@@@QAEHI@Z 10016aca f i libucrt:argv_wildcards.obj
 0001:00015b06       ?allocate@?$__crt_win32_buffer@_WU__crt_win32_buffer_internal_dynamic_resizing@@@@QAEHI@Z 10016b06 f i libucrt:argv_wildcards.obj
 0001:00015b45       ?allocate@__crt_win32_buffer_internal_dynamic_resizing@@SAHQAPAXIABV__crt_win32_buffer_empty_debug_info@@@Z 10016b45 f i libucrt:argv_wildcards.obj
 0001:00015beb       ___acrt_expand_narrow_argv_wildcards 10016beb f   libucrt:argv_wildcards.obj
 0001:00015cbd       ?allocate@?$__crt_win32_buffer@DU__crt_win32_buffer_no_resizing@@@@QAEHI@Z 10016cbd f i libucrt:getmodulefilenamea.obj
 0001:00015ce4       ?set_to_nullptr@?$__crt_win32_buffer@DU__crt_win32_buffer_no_resizing@@@@QAEXXZ 10016ce4 f i libucrt:getmodulefilenamea.obj
 0001:00015cf8       ___acrt_GetModuleFileNameA 10016cf8 f   libucrt:getmodulefilenamea.obj
 0001:000162b1       ___acrt_initialize_multibyte 100172b1 f   libucrt:mbctype.obj
 0001:000162f9       ___acrt_update_thread_multibyte_data 100172f9 f   libucrt:mbctype.obj
 0001:0001630c       __setmbcp_nolock           1001730c f   libucrt:mbctype.obj
 0001:000165d7       __ismbblead                100175d7 f   libucrt:ismbbyte.obj
 0001:000165ef       ___acrt_initialize_command_line 100175ef f   libucrt:argv_data.obj
 0001:00016608       ___acrt_MultiByteToWideChar 10017608 f   libucrt:multibytetowidechar.obj
 0001:00016684       ___acrt_WideCharToMultiByte 10017684 f   libucrt:widechartomultibyte.obj
 0001:00016772       ___dcrt_get_narrow_environment_from_os 10017772 f   libucrt:get_environment_from_os.obj
 0001:000167f6       ___acrt_initialize_heap    100177f6 f   libucrt:heap_handle.obj
 0001:00016807       ___acrt_uninitialize_heap  10017807 f   libucrt:heap_handle.obj
 0001:00016811       ___acrt_execute_initializers 10017811 f   libucrt:shared_initialization.obj
 0001:00016879       ___acrt_execute_uninitializers 10017879 f   libucrt:shared_initialization.obj
 0001:00016978       ___acrt_get_sigabrt_handler 10017978 f   libucrt:signal.obj
 0001:0001699f       ___acrt_initialize_signal_handlers 1001799f f   libucrt:signal.obj
 0001:000169bd       _raise                     100179bd f   libucrt:signal.obj
 0001:00016bb0       ___acrt_has_user_matherr   10017bb0 f   libucrt:matherr.obj
 0001:00016bc8       ___acrt_initialize_user_matherr 10017bc8 f   libucrt:matherr.obj
 0001:00016bd7       ___acrt_invoke_user_matherr 10017bd7 f   libucrt:matherr.obj
 0001:00016de6       ___acrt_stdio_flush_nolock 10017de6 f   libucrt:fflush.obj
 0001:00016e4b       __fflush_nolock            10017e4b f   libucrt:fflush.obj
 0001:00016e93       __flushall                 10017e93 f   libucrt:fflush.obj
 0001:00016e9c       ___pctype_func             10017e9c f   libucrt:ctype.obj
 0001:00016ec0       _iswctype                  10017ec0 f   libucrt:iswctype.obj
 0001:00016f29       ___acrt_add_locale_ref     10017f29 f   libucrt:locale_refcounting.obj
 0001:00016fa6       ___acrt_free_locale        10017fa6 f   libucrt:locale_refcounting.obj
 0001:000170ee       ___acrt_locale_add_lc_time_reference 100180ee f   libucrt:locale_refcounting.obj
 0001:00017117       ___acrt_locale_free_lc_time_if_unreferenced 10018117 f   libucrt:locale_refcounting.obj
 0001:00017148       ___acrt_locale_release_lc_time_reference 10018148 f   libucrt:locale_refcounting.obj
 0001:00017171       ___acrt_release_locale_ref 10018171 f   libucrt:locale_refcounting.obj
 0001:000171f2       ___acrt_update_thread_locale_data 100181f2 f   libucrt:locale_refcounting.obj
 0001:00017273       __updatetlocinfoEx_nolock  10018273 f   libucrt:locale_refcounting.obj
 0001:000172c3       __query_new_mode           100182c3 f   libucrt:new_mode.obj
 0001:0001731a       ___acrt_DownlevelLocaleNameToLCID 1001831a f   libucrt:lcidtoname_downlevel.obj
 0001:00017346       __isleadbyte_l             10018346 f i libucrt:_wctype.obj
 0001:000173ac       ?__mbrtowc_utf8@__crt_mbstring@@YAIPA_WPBDIPAU_Mbstatet@@@Z 100183ac f   libucrt:mbrtowc.obj
 0001:000173ec       ?__mbsrtowcs_utf8@__crt_mbstring@@YAIPA_WPAPBDIPAU_Mbstatet@@@Z 100183ec f   libucrt:mbrtowc.obj
 0001:000174e7       ?return_illegal_sequence@__crt_mbstring@@YAIPAU_Mbstatet@@@Z 100184e7 f i libucrt:c32rtomb.obj
 0001:00017571       ___acrt_fp_strflt_to_string 10018571 f   libucrt:_fptostr.obj
 0001:00017650       ?divide@__crt_strtox@@YA_KAAUbig_integer@1@ABU21@@Z 10018650 f i libucrt:cfout.obj
 0001:00017ae8       ___acrt_fltout             10018ae8 f   libucrt:cfout.obj
 0001:00018fef       _fegetround                10019fef f   libucrt:fegetround.obj
 0001:00018ffc       __fcloseall                10019ffc f   libucrt:closeall.obj
 0001:000190a7       ___acrt_stdio_free_buffer_nolock 1001a0a7 f   libucrt:_freebuf.obj
 0001:000190e7       __isatty                   1001a0e7 f   libucrt:isatty.obj
 0001:0001913d       ___acrt_locale_free_monetary 1001a13d f   libucrt:initmon.obj
 0001:0001923b       ___acrt_locale_free_numeric 1001a23b f   libucrt:initnum.obj
 0001:000192dc       ___acrt_locale_free_time   1001a2dc f   libucrt:inittime.obj
 0001:000193c0       ___acrt_GetStringTypeA     1001a3c0 f   libucrt:getstringtypea.obj
 0001:000194c3       __freea_crt                1001a4c3 f i libucrt:getstringtypea.obj
 0001:000194e3       ___acrt_lowio_create_handle_array 1001a4e3 f   libucrt:osfinfo.obj
 0001:0001955e       ___acrt_lowio_destroy_handle_array 1001a55e f   libucrt:osfinfo.obj
 0001:00019593       ___acrt_lowio_ensure_fh_exists 1001a593 f   libucrt:osfinfo.obj
 0001:00019631       ___acrt_lowio_lock_fh      1001a631 f   libucrt:osfinfo.obj
 0001:00019654       ___acrt_lowio_unlock_fh    1001a654 f   libucrt:osfinfo.obj
 0001:00019677       __free_osfhnd              1001a677 f   libucrt:osfinfo.obj
 0001:00019708       __get_osfhandle            1001a708 f   libucrt:osfinfo.obj
 0001:00019780       _qsort                     1001a780 f   libucrt:qsort.obj
 0001:00019d21       _strncpy_s                 1001ad21 f   libucrt:strncpy_s.obj
 0001:00019d30       _strpbrk                   1001ad30 f   libucrt:strpbrk.obj
 0001:00019d70       __mbsdec                   1001ad70 f   libucrt:mbsdec.obj
 0001:00019d87       __mbsdec_l                 1001ad87 f   libucrt:mbsdec.obj
 0001:00019ffe       ___acrt_LCMapStringA       1001affe f   libucrt:lcmapstringa.obj
 0001:0001a0f8       __commit                   1001b0f8 f   libucrt:commit.obj
 0001:0001a8f0       __write                    1001b8f0 f   libucrt:write.obj
 0001:0001a9e2       __write_nolock             1001b9e2 f   libucrt:write.obj
 0001:0001abbc       ___acrt_GetStringTypeW     1001bbbc f   libucrt:getstringtypew.obj
 0001:0001abd5       ___ascii_wcsnicmp          1001bbd5 f   libucrt:wcsnicmp.obj
 0001:0001ac24       ?__mbrtoc32_utf8@__crt_mbstring@@YAIPA_UPBDIPAU_Mbstatet@@@Z 1001bc24 f   libucrt:mbrtoc32.obj
 0001:0001adcb       __controlfp_s              1001bdcb f   libucrt:contrlfp.obj
 0001:0001ae2a       _fegetenv                  1001be2a f   libucrt:fegetenv.obj
 0001:0001ae47       _fesetenv                  1001be47 f   libucrt:fesetenv.obj
 0001:0001ae92       _feholdexcept              1001be92 f   libucrt:feholdexcept.obj
 0001:0001aee0       __CIlog10                  1001bee0 f   libucrt:log10_impl.obj
 0001:0001af1b       __CIlog10_default          1001bf1b f   libucrt:log10_impl.obj
 0001:0001af2f       __log10_default            1001bf2f     libucrt:log10_impl.obj
 0001:0001aff0       _ceil                      1001bff0 f   libucrt:ceil_pentium4.obj
 0001:0001b030       __ceil_pentium4            1001c030 f   libucrt:ceil_pentium4.obj
 0001:0001b42a       ___acrt_fenv_get_common_round_control 1001c42a f   libucrt:_fenvutils.obj
 0001:0001b44c       ___acrt_fenv_get_control   1001c44c f   libucrt:_fenvutils.obj
 0001:0001b4cc       ___acrt_fenv_get_status    1001c4cc f   libucrt:_fenvutils.obj
 0001:0001b584       ___acrt_fenv_set_control   1001c584 f   libucrt:_fenvutils.obj
 0001:0001b5ec       ___acrt_fenv_set_status    1001c5ec f   libucrt:_fenvutils.obj
 0001:0001b75f       __lseeki64_nolock          1001c75f f   libucrt:lseek.obj
 0001:0001b77a       __fclose_nolock            1001c77a f   libucrt:fclose.obj
 0001:0001b7f1       _fclose                    1001c7f1 f   libucrt:fclose.obj
 0001:0001b875       __query_app_type           1001c875 f   libucrt:report_runtime_error.obj
 0001:0001b87b       ___strncnt                 1001c87b f   libucrt:strncnt.obj
 0001:0001b897       __putwch_nolock            1001c897 f   libucrt:putwch.obj
 0001:0001b970       __clearfp                  1001c970 f   libucrt:ieee87.obj
 0001:0001ba4e       __control87                1001ca4e f   libucrt:ieee87.obj
 0001:0001bded       ___acrt_initialize_sse2    1001cded f   libucrt:mathfcns.obj
 0001:0001be00       __CIlog10_pentium4         1001ce00 f   libucrt:log10_pentium4.obj
 0001:0001be18       __log10_pentium4           1001ce18     libucrt:log10_pentium4.obj
 0001:0001c0b0       __fFEXP                    1001d0b0 f   libucrt:87tran.obj
 0001:0001c107       __rtinfpopse               1001d107     libucrt:87tran.obj
 0001:0001c109       __rtinfnpopse              1001d109     libucrt:87tran.obj
 0001:0001c119       __fFLN                     1001d119     libucrt:87tran.obj
 0001:0001c1ce       __rtinfpop                 1001d1ce     libucrt:87tran.obj
 0001:0001c1d0       __rtinfnpop                1001d1d0     libucrt:87tran.obj
 0001:0001c1e0       __rtforexpinf              1001d1e0 f   libucrt:87tran.obj
 0001:0001c1ed       __ffexpm1                  1001d1ed     libucrt:87tran.obj
 0001:0001c2a0       __trandisp1                1001d2a0 f   libucrt:87disp.obj
 0001:0001c315       __trandisp2                1001d315 f   libucrt:87disp.obj
 0001:0001c3af       __rttospopde               1001d3af     libucrt:87disp.obj
 0001:0001c3b4       __rttospop                 1001d3b4     libucrt:87disp.obj
 0001:0001c3c0       __rtnospop                 1001d3c0 f   libucrt:87disp.obj
 0001:0001c3d0       __rttosnpop                1001d3d0 f   libucrt:87disp.obj
 0001:0001c3d1       __rtnospopde               1001d3d1     libucrt:87disp.obj
 0001:0001c3d8       __rtzeropop                1001d3d8     libucrt:87disp.obj
 0001:0001c3da       __rtzeronpop               1001d3da     libucrt:87disp.obj
 0001:0001c3e0       __rtzerospop               1001d3e0 f   libucrt:87disp.obj
 0001:0001c3ed       __rtonepop                 1001d3ed     libucrt:87disp.obj
 0001:0001c3f0       __rtonenpop                1001d3f0 f   libucrt:87disp.obj
 0001:0001c400       __tosnan1                  1001d400 f   libucrt:87disp.obj
 0001:0001c430       __nosnan2                  1001d430 f   libucrt:87disp.obj
 0001:0001c440       __tosnan2                  1001d440 f   libucrt:87disp.obj
 0001:0001c470       __nan2                     1001d470 f   libucrt:87disp.obj
 0001:0001c4b0       __rtindfpop                1001d4b0 f   libucrt:87disp.obj
 0001:0001c4b2       __rtindfnpop               1001d4b2     libucrt:87disp.obj
 0001:0001c4c3       __rttosnpopde              1001d4c3     libucrt:87disp.obj
 0001:0001c4d0       __rtatan2inf               1001d4d0 f   libucrt:87disp.obj
 0001:0001c4ed       __rtchsifneg               1001d4ed     libucrt:87disp.obj
 0001:0001c500       __twoToTOS                 1001d500 f   libucrt:common.obj
 0001:0001c515       __load_CW                  1001d515 f   libucrt:common.obj
 0001:0001c52c       __convertTOStoQNaN         1001d52c f   libucrt:common.obj
 0001:0001c545       __fload_withFB             1001d545 f   libucrt:common.obj
 0001:0001c588       __checkTOS_withFB          1001d588 f   libucrt:common.obj
 0001:0001c59e       __fast_exit                1001d59e f   libucrt:common.obj
 0001:0001c5ab       __math_exit                1001d5ab f   libucrt:common.obj
 0001:0001c5d5       __check_overflow_exit      1001d5d5 f   libucrt:common.obj
 0001:0001c5e9       __check_range_exit         1001d5e9 f   libucrt:common.obj
 0001:0001c690       __startTwoArgErrorHandling 1001d690 f   libucrt:genexcep.obj
 0001:0001c6a7       __startOneArgErrorHandling 1001d6a7 f   libucrt:genexcep.obj
 0001:0001c6e3       ___libm_error_support      1001d6e3 f   libucrt:libm_error.obj
 0001:0001c8d7       __ceil_default             1001d8d7 f   libucrt:ceil.obj
 0001:0001ca18       __close                    1001da18 f   libucrt:close.obj
 0001:0001caa5       __close_nolock             1001daa5 f   libucrt:close.obj
 0001:0001cb41       ?__acrt_stdio_free_stream@@YAXV__crt_stdio_stream@@@Z 1001db41 f   libucrt:stream.obj
 0001:0001cb80       ___ascii_strnicmp          1001db80 f   libucrt:_strnicm.obj
 0001:0001cc00       ___dcrt_lowio_ensure_console_output_initialized 1001dc00 f   libucrt:initcon.obj
 0001:0001cc1f       ___dcrt_terminate_console_output 1001dc1f f   libucrt:initcon.obj
 0001:0001cc36       ___dcrt_write_console      1001dc36 f   libucrt:initcon.obj
 0001:0001cc8b       ___set_fpsr_sse2           1001dc8b f   libucrt:fpctrl.obj
 0001:0001cd0b       __clrfp                    1001dd0b f   libucrt:fpctrl.obj
 0001:0001cd1c       __ctrlfp                   1001dd1c f   libucrt:fpctrl.obj
 0001:0001cd46       __set_statfp               1001dd46 f   libucrt:fpctrl.obj
 0001:0001cd9f       __statfp                   1001dd9f f   libucrt:fpctrl.obj
 0001:0001cdaf       __d_inttype                1001ddaf f   libucrt:powhlp.obj
 0001:0001ce17       __powhlp                   1001de17 f   libucrt:powhlp.obj
 0001:0001cf42       __87except                 1001df42 f   libucrt:87except.obj
 0001:0001d04c       __frnd                     1001e04c f   libucrt:frnd.obj
 0001:0001d060       __errcode                  1001e060 f   libucrt:fpexcept.obj
 0001:0001d094       __except1                  1001e094 f   libucrt:fpexcept.obj
 0001:0001d162       __handle_exc               1001e162 f   libucrt:fpexcept.obj
 0001:0001d34d       __raise_exc                1001e34d f   libucrt:fpexcept.obj
 0001:0001d370       __raise_exc_ex             1001e370 f   libucrt:fpexcept.obj
 0001:0001d666       __set_errno_from_matherr   1001e666 f   libucrt:fpexcept.obj
 0001:0001d695       __umatherr                 1001e695 f   libucrt:fpexcept.obj
 0001:0001d735       __decomp                   1001e735 f   libucrt:util.obj
 0001:0001d807       __set_exp                  1001e807 f   libucrt:util.obj
 0001:0001d834       __sptype                   1001e834 f   libucrt:util.obj
 0001:0001d892       __fpclass                  1001e892 f   libucrt:ieeemisc.obj
 0001:0001d936       _IsProcessorFeaturePresent@4 1001e936 f   kernel32:KERNEL32.dll
 0001:0001d940       __FindPESection            1001e940 f   LIBCMT:pesect.obj
 0001:0001d990       __IsNonwritableInCurrentImage 1001e990 f   LIBCMT:pesect.obj
 0001:0001da50       __ValidateImageBase        1001ea50 f   LIBCMT:pesect.obj
 0001:0001da83       __EH_prolog3_catch         1001ea83 f   LIBCMT:ehprolg3.obj
 0001:0001dac0       __aulldvrm                 1001eac0 f   LIBCMT:ulldvrm.obj
 0001:0001db60       __allmul                   1001eb60 f   LIBCMT:llmul.obj
 0001:0001dba0       __alldvrm                  1001eba0 f   LIBCMT:lldvrm.obj
 0001:0001dc80       __allshl                   1001ec80 f   LIBCMT:llshl.obj
 0001:0001dca0       __aullshr                  1001eca0 f   LIBCMT:ullshr.obj
 0001:0001dcc0       __ftoi2                    1001ecc0 f   LIBCMT:ftol2.obj
 0001:0001dcc0       __ftol2_sse_excpt          1001ecc0     LIBCMT:ftol2.obj
 0001:0001dcc0       __ftol2_sse                1001ecc0     LIBCMT:ftol2.obj
 0001:0001dd40       __ftoui2                   1001ed40 f   LIBCMT:ftol2.obj
 0001:0001ddf0       __ftol2                    1001edf0 f   LIBCMT:ftol2.obj
 0001:0001dea0       __ftoul2                   1001eea0 f   LIBCMT:ftol2.obj
 0001:0001df60       _strrchr                   1001ef60 f   libvcruntime:strrchr.obj
 0001:0001e0a0       _strchr                    1001f0a0 f   libvcruntime:strchr.obj
 0001:0001e10e       ___from_strstr_to_strchr   1001f10e     libvcruntime:strchr.obj
 0001:0001e1cb       __filter_x86_sse2_floating_point_exception_default 1001f1cb f   LIBCMT:x86_exception_filter.obj
 0001:0001e1cb       __filter_x86_sse2_floating_point_exception 1001f1cb f   LIBCMT:x86_exception_filter.obj
 0002:00000000       __imp__RegQueryValueExW@24 10020000     advapi32:ADVAPI32.dll
 0002:00000004       __imp__RegSetValueExW@24   10020004     advapi32:ADVAPI32.dll
 0002:00000008       __imp__RegQueryInfoKeyW@48 10020008     advapi32:ADVAPI32.dll
 0002:0000000c       __imp__RegOpenKeyExW@20    1002000c     advapi32:ADVAPI32.dll
 0002:00000010       __imp__RegEnumKeyExW@32    10020010     advapi32:ADVAPI32.dll
 0002:00000014       __imp__RegDeleteValueW@8   10020014     advapi32:ADVAPI32.dll
 0002:00000018       __imp__RegDeleteKeyW@8     10020018     advapi32:ADVAPI32.dll
 0002:0000001c       __imp__RegCreateKeyExW@36  1002001c     advapi32:ADVAPI32.dll
 0002:00000020       __imp__RegCloseKey@4       10020020     advapi32:ADVAPI32.dll
 0002:00000024       \177ADVAPI32_NULL_THUNK_DATA 10020024     advapi32:ADVAPI32.dll
 0002:00000028       __imp__GetObjectW@12       10020028     gdi32:GDI32.dll
 0002:0000002c       __imp__SelectObject@8      1002002c     gdi32:GDI32.dll
 0002:00000030       __imp__DeleteObject@4      10020030     gdi32:GDI32.dll
 0002:00000034       __imp__CreateCompatibleDC@4 10020034     gdi32:GDI32.dll
 0002:00000038       __imp__BitBlt@36           10020038     gdi32:GDI32.dll
 0002:0000003c       __imp__SetWindowOrgEx@16   1002003c     gdi32:GDI32.dll
 0002:00000040       __imp__SetWindowExtEx@16   10020040     gdi32:GDI32.dll
 0002:00000044       __imp__SetViewportOrgEx@16 10020044     gdi32:GDI32.dll
 0002:00000048       __imp__LPtoDP@12           10020048     gdi32:GDI32.dll
 0002:0000004c       __imp__SetMapMode@8        1002004c     gdi32:GDI32.dll
 0002:00000050       __imp__SaveDC@4            10020050     gdi32:GDI32.dll
 0002:00000054       __imp__RestoreDC@8         10020054     gdi32:GDI32.dll
 0002:00000058       __imp__GetDeviceCaps@8     10020058     gdi32:GDI32.dll
 0002:0000005c       __imp__DeleteMetaFile@4    1002005c     gdi32:GDI32.dll
 0002:00000060       __imp__DeleteDC@4          10020060     gdi32:GDI32.dll
 0002:00000064       __imp__CreateRectRgnIndirect@4 10020064     gdi32:GDI32.dll
 0002:00000068       __imp__CreateMetaFileW@4   10020068     gdi32:GDI32.dll
 0002:0000006c       __imp__CreateDCW@16        1002006c     gdi32:GDI32.dll
 0002:00000070       __imp__CloseMetaFile@4     10020070     gdi32:GDI32.dll
 0002:00000074       \177GDI32_NULL_THUNK_DATA  10020074     gdi32:GDI32.dll
 0002:00000078       __imp__CloseHandle@4       10020078     kernel32:KERNEL32.dll
 0002:0000007c       __imp__SetEvent@4          1002007c     kernel32:KERNEL32.dll
 0002:00000080       __imp__CreateMutexW@12     10020080     kernel32:KERNEL32.dll
 0002:00000084       __imp__CreateEventW@16     10020084     kernel32:KERNEL32.dll
 0002:00000088       __imp__GetCurrentProcessId@0 10020088     kernel32:KERNEL32.dll
 0002:0000008c       __imp__CreateFileW@28      1002008c     kernel32:KERNEL32.dll
 0002:00000090       __imp__GetConsoleMode@8    10020090     kernel32:KERNEL32.dll
 0002:00000094       __imp__GetConsoleOutputCP@0 10020094     kernel32:KERNEL32.dll
 0002:00000098       __imp__WriteFile@20        10020098     kernel32:KERNEL32.dll
 0002:0000009c       __imp__FlushFileBuffers@4  1002009c     kernel32:KERNEL32.dll
 0002:000000a0       __imp__SetStdHandle@8      100200a0     kernel32:KERNEL32.dll
 0002:000000a4       __imp__GetStringTypeW@16   100200a4     kernel32:KERNEL32.dll
 0002:000000a8       __imp__SetFilePointerEx@20 100200a8     kernel32:KERNEL32.dll
 0002:000000ac       __imp__FreeEnvironmentStringsW@4 100200ac     kernel32:KERNEL32.dll
 0002:000000b0       __imp__GetEnvironmentStringsW@0 100200b0     kernel32:KERNEL32.dll
 0002:000000b4       __imp__lstrcmpiW@8         100200b4     kernel32:KERNEL32.dll
 0002:000000b8       __imp__GetCommandLineA@0   100200b8     kernel32:KERNEL32.dll
 0002:000000bc       __imp__GetCPInfo@8         100200bc     kernel32:KERNEL32.dll
 0002:000000c0       __imp__GetOEMCP@0          100200c0     kernel32:KERNEL32.dll
 0002:000000c4       __imp__GetACP@0            100200c4     kernel32:KERNEL32.dll
 0002:000000c8       __imp__IsValidCodePage@4   100200c8     kernel32:KERNEL32.dll
 0002:000000cc       __imp__FindNextFileW@8     100200cc     kernel32:KERNEL32.dll
 0002:000000d0       __imp__FindFirstFileExW@24 100200d0     kernel32:KERNEL32.dll
 0002:000000d4       __imp__FindClose@4         100200d4     kernel32:KERNEL32.dll
 0002:000000d8       __imp__GetFileType@4       100200d8     kernel32:KERNEL32.dll
 0002:000000dc       __imp__GetStdHandle@4      100200dc     kernel32:KERNEL32.dll
 0002:000000e0       __imp__LCMapStringW@24     100200e0     kernel32:KERNEL32.dll
 0002:000000e4       __imp__HeapReAlloc@16      100200e4     kernel32:KERNEL32.dll
 0002:000000e8       __imp__HeapSize@12         100200e8     kernel32:KERNEL32.dll
 0002:000000ec       __imp__MulDiv@12           100200ec     kernel32:KERNEL32.dll
 0002:000000f0       __imp__GlobalLock@4        100200f0     kernel32:KERNEL32.dll
 0002:000000f4       __imp__GlobalUnlock@4      100200f4     kernel32:KERNEL32.dll
 0002:000000f8       __imp__GlobalAlloc@8       100200f8     kernel32:KERNEL32.dll
 0002:000000fc       __imp__FindResourceW@12    100200fc     kernel32:KERNEL32.dll
 0002:00000100       __imp__SizeofResource@8    10020100     kernel32:KERNEL32.dll
 0002:00000104       __imp__LoadResource@8      10020104     kernel32:KERNEL32.dll
 0002:00000108       __imp__LoadLibraryExW@12   10020108     kernel32:KERNEL32.dll
 0002:0000010c       __imp__GetProcAddress@8    1002010c     kernel32:KERNEL32.dll
 0002:00000110       __imp__GetModuleHandleW@4  10020110     kernel32:KERNEL32.dll
 0002:00000114       __imp__GetModuleFileNameW@12 10020114     kernel32:KERNEL32.dll
 0002:00000118       __imp__FreeLibrary@4       10020118     kernel32:KERNEL32.dll
 0002:0000011c       __imp__DisableThreadLibraryCalls@4 1002011c     kernel32:KERNEL32.dll
 0002:00000120       __imp__GetCurrentThreadId@0 10020120     kernel32:KERNEL32.dll
 0002:00000124       __imp__Sleep@4             10020124     kernel32:KERNEL32.dll
 0002:00000128       __imp__WaitForSingleObject@8 10020128     kernel32:KERNEL32.dll
 0002:0000012c       __imp__ReleaseMutex@4      1002012c     kernel32:KERNEL32.dll
 0002:00000130       __imp__ResetEvent@4        10020130     kernel32:KERNEL32.dll
 0002:00000134       __imp__EnterCriticalSection@4 10020134     kernel32:KERNEL32.dll
 0002:00000138       __imp__LeaveCriticalSection@4 10020138     kernel32:KERNEL32.dll
 0002:0000013c       __imp__SetLastError@4      1002013c     kernel32:KERNEL32.dll
 0002:00000140       __imp__EncodePointer@4     10020140     kernel32:KERNEL32.dll
 0002:00000144       __imp__DeleteCriticalSection@4 10020144     kernel32:KERNEL32.dll
 0002:00000148       __imp__InitializeCriticalSectionEx@12 10020148     kernel32:KERNEL32.dll
 0002:0000014c       __imp__GetLastError@0      1002014c     kernel32:KERNEL32.dll
 0002:00000150       __imp__RaiseException@16   10020150     kernel32:KERNEL32.dll
 0002:00000154       __imp__DecodePointer@4     10020154     kernel32:KERNEL32.dll
 0002:00000158       __imp__WideCharToMultiByte@32 10020158     kernel32:KERNEL32.dll
 0002:0000015c       __imp__GetCommandLineW@0   1002015c     kernel32:KERNEL32.dll
 0002:00000160       __imp__MultiByteToWideChar@24 10020160     kernel32:KERNEL32.dll
 0002:00000164       __imp__WriteConsoleW@20    10020164     kernel32:KERNEL32.dll
 0002:00000168       __imp__GetModuleHandleExW@12 10020168     kernel32:KERNEL32.dll
 0002:0000016c       __imp__ExitProcess@4       1002016c     kernel32:KERNEL32.dll
 0002:00000170       __imp__VirtualQuery@12     10020170     kernel32:KERNEL32.dll
 0002:00000174       __imp__VirtualProtect@16   10020174     kernel32:KERNEL32.dll
 0002:00000178       __imp__GetSystemInfo@4     10020178     kernel32:KERNEL32.dll
 0002:0000017c       __imp__TlsFree@4           1002017c     kernel32:KERNEL32.dll
 0002:00000180       __imp__TlsSetValue@8       10020180     kernel32:KERNEL32.dll
 0002:00000184       __imp__TlsGetValue@4       10020184     kernel32:KERNEL32.dll
 0002:00000188       __imp__TlsAlloc@0          10020188     kernel32:KERNEL32.dll
 0002:0000018c       __imp__InterlockedFlushSList@4 1002018c     kernel32:KERNEL32.dll
 0002:00000190       __imp__RtlUnwind@16        10020190     kernel32:KERNEL32.dll
 0002:00000194       __imp__LoadLibraryExA@12   10020194     kernel32:KERNEL32.dll
 0002:00000198       __imp__VirtualFree@12      10020198     kernel32:KERNEL32.dll
 0002:0000019c       __imp__VirtualAlloc@16     1002019c     kernel32:KERNEL32.dll
 0002:000001a0       __imp__FlushInstructionCache@12 100201a0     kernel32:KERNEL32.dll
 0002:000001a4       __imp__InterlockedPushEntrySList@8 100201a4     kernel32:KERNEL32.dll
 0002:000001a8       __imp__InterlockedPopEntrySList@4 100201a8     kernel32:KERNEL32.dll
 0002:000001ac       __imp__GetProcessHeap@0    100201ac     kernel32:KERNEL32.dll
 0002:000001b0       __imp__HeapFree@12         100201b0     kernel32:KERNEL32.dll
 0002:000001b4       __imp__HeapAlloc@12        100201b4     kernel32:KERNEL32.dll
 0002:000001b8       __imp__OutputDebugStringW@4 100201b8     kernel32:KERNEL32.dll
 0002:000001bc       __imp__InitializeSListHead@4 100201bc     kernel32:KERNEL32.dll
 0002:000001c0       __imp__GetSystemTimeAsFileTime@4 100201c0     kernel32:KERNEL32.dll
 0002:000001c4       __imp__QueryPerformanceCounter@4 100201c4     kernel32:KERNEL32.dll
 0002:000001c8       __imp__GetStartupInfoW@4   100201c8     kernel32:KERNEL32.dll
 0002:000001cc       __imp__IsDebuggerPresent@0 100201cc     kernel32:KERNEL32.dll
 0002:000001d0       __imp__IsProcessorFeaturePresent@4 100201d0     kernel32:KERNEL32.dll
 0002:000001d4       __imp__TerminateProcess@8  100201d4     kernel32:KERNEL32.dll
 0002:000001d8       __imp__GetCurrentProcess@0 100201d8     kernel32:KERNEL32.dll
 0002:000001dc       __imp__SetUnhandledExceptionFilter@4 100201dc     kernel32:KERNEL32.dll
 0002:000001e0       __imp__UnhandledExceptionFilter@4 100201e0     kernel32:KERNEL32.dll
 0002:000001e4       __imp__InitializeCriticalSectionAndSpinCount@8 100201e4     kernel32:KERNEL32.dll
 0002:000001e8       __imp__WaitForSingleObjectEx@12 100201e8     kernel32:KERNEL32.dll
 0002:000001ec       \177KERNEL32_NULL_THUNK_DATA 100201ec     kernel32:KERNEL32.dll
 0002:000001f0       __imp__OleCreatePropertyFrame@44 100201f0     oleaut32:OLEAUT32.dll
 0002:000001f4       __imp__UnRegisterTypeLib@20 100201f4     oleaut32:OLEAUT32.dll
 0002:000001f8       __imp__RegisterTypeLib@12  100201f8     oleaut32:OLEAUT32.dll
 0002:000001fc       __imp__LoadRegTypeLib@20   100201fc     oleaut32:OLEAUT32.dll
 0002:00000200       __imp__LoadTypeLib@8       10020200     oleaut32:OLEAUT32.dll
 0002:00000204       __imp__VarUI4FromStr@16    10020204     oleaut32:OLEAUT32.dll
 0002:00000208       __imp__VariantInit@4       10020208     oleaut32:OLEAUT32.dll
 0002:0000020c       __imp__SysAllocStringByteLen@8 1002020c     oleaut32:OLEAUT32.dll
 0002:00000210       __imp__SysStringByteLen@4  10020210     oleaut32:OLEAUT32.dll
 0002:00000214       __imp__VariantChangeType@16 10020214     oleaut32:OLEAUT32.dll
 0002:00000218       __imp__VariantClear@4      10020218     oleaut32:OLEAUT32.dll
 0002:0000021c       __imp__SysStringLen@4      1002021c     oleaut32:OLEAUT32.dll
 0002:00000220       __imp__SysFreeString@4     10020220     oleaut32:OLEAUT32.dll
 0002:00000224       __imp__SysAllocStringLen@8 10020224     oleaut32:OLEAUT32.dll
 0002:00000228       __imp__SysAllocString@4    10020228     oleaut32:OLEAUT32.dll
 0002:0000022c       \177OLEAUT32_NULL_THUNK_DATA 1002022c     oleaut32:OLEAUT32.dll
 0002:00000230       __imp__UnregisterClassW@8  10020230     user32:USER32.dll
 0002:00000234       __imp__PostMessageW@16     10020234     user32:USER32.dll
 0002:00000238       __imp__DefWindowProcW@16   10020238     user32:USER32.dll
 0002:0000023c       __imp__CallWindowProcW@20  1002023c     user32:USER32.dll
 0002:00000240       __imp__RegisterClassExW@4  10020240     user32:USER32.dll
 0002:00000244       __imp__GetClassInfoExW@12  10020244     user32:USER32.dll
 0002:00000248       __imp__CreateWindowExW@48  10020248     user32:USER32.dll
 0002:0000024c       __imp__IsWindow@4          1002024c     user32:USER32.dll
 0002:00000250       __imp__IsChild@8           10020250     user32:USER32.dll
 0002:00000254       __imp__DestroyWindow@4     10020254     user32:USER32.dll
 0002:00000258       __imp__ShowWindow@8        10020258     user32:USER32.dll
 0002:0000025c       __imp__SetWindowPos@28     1002025c     user32:USER32.dll
 0002:00000260       __imp__CharNextW@4         10020260     user32:USER32.dll
 0002:00000264       __imp__SetFocus@4          10020264     user32:USER32.dll
 0002:00000268       __imp__LoadBitmapW@8       10020268     user32:USER32.dll
 0002:0000026c       __imp__RegisterClassW@4    1002026c     user32:USER32.dll
 0002:00000270       __imp__PeekMessageW@20     10020270     user32:USER32.dll
 0002:00000274       __imp__LoadCursorW@8       10020274     user32:USER32.dll
 0002:00000278       __imp__GetParent@4         10020278     user32:USER32.dll
 0002:0000027c       __imp__SetWindowLongW@12   1002027c     user32:USER32.dll
 0002:00000280       __imp__GetWindowLongW@8    10020280     user32:USER32.dll
 0002:00000284       __imp__PtInRect@12         10020284     user32:USER32.dll
 0002:00000288       __imp__EqualRect@8         10020288     user32:USER32.dll
 0002:0000028c       __imp__OffsetRect@12       1002028c     user32:USER32.dll
 0002:00000290       __imp__UnionRect@12        10020290     user32:USER32.dll
 0002:00000294       __imp__IntersectRect@12    10020294     user32:USER32.dll
 0002:00000298       __imp__GetClientRect@8     10020298     user32:USER32.dll
 0002:0000029c       __imp__InvalidateRect@12   1002029c     user32:USER32.dll
 0002:000002a0       __imp__SetWindowRgn@12     100202a0     user32:USER32.dll
 0002:000002a4       __imp__EndPaint@8          100202a4     user32:USER32.dll
 0002:000002a8       __imp__BeginPaint@8        100202a8     user32:USER32.dll
 0002:000002ac       __imp__ReleaseDC@8         100202ac     user32:USER32.dll
 0002:000002b0       __imp__GetDC@4             100202b0     user32:USER32.dll
 0002:000002b4       __imp__GetKeyState@4       100202b4     user32:USER32.dll
 0002:000002b8       __imp__GetFocus@0          100202b8     user32:USER32.dll
 0002:000002bc       \177USER32_NULL_THUNK_DATA 100202bc     user32:USER32.dll
 0002:000002c0       __imp__StringFromGUID2@12  100202c0     ole32:ole32.dll
 0002:000002c4       __imp__CoTaskMemAlloc@4    100202c4     ole32:ole32.dll
 0002:000002c8       __imp__CoTaskMemRealloc@8  100202c8     ole32:ole32.dll
 0002:000002cc       __imp__CoTaskMemFree@4     100202cc     ole32:ole32.dll
 0002:000002d0       __imp__ReadClassStm@8      100202d0     ole32:ole32.dll
 0002:000002d4       __imp__WriteClassStm@8     100202d4     ole32:ole32.dll
 0002:000002d8       __imp__CreateDataAdviseHolder@4 100202d8     ole32:ole32.dll
 0002:000002dc       __imp__OleSaveToStream@8   100202dc     ole32:ole32.dll
 0002:000002e0       __imp__CreateOleAdviseHolder@4 100202e0     ole32:ole32.dll
 0002:000002e4       __imp__OleRegGetUserType@12 100202e4     ole32:ole32.dll
 0002:000002e8       __imp__OleRegGetMiscStatus@12 100202e8     ole32:ole32.dll
 0002:000002ec       __imp__OleRegEnumVerbs@8   100202ec     ole32:ole32.dll
 0002:000002f0       __imp__CLSIDFromProgID@8   100202f0     ole32:ole32.dll
 0002:000002f4       __imp__CoCreateInstance@20 100202f4     ole32:ole32.dll
 0002:000002f8       \177ole32_NULL_THUNK_DATA  100202f8     ole32:ole32.dll
 0002:000002fc       ___guard_check_icall_fptr  100202fc     LIBCMT:guard_support.obj
 0002:00000300       ___xc_a                    10020300     LIBCMT:initializers.obj
 0002:00000318       ___xc_z                    10020318     LIBCMT:initializers.obj
 0002:0000031c       ___xi_a                    1002031c     LIBCMT:initializers.obj
 0002:00000324       ___acrt_stdio_initializer  10020324     libucrt:stdio_initializer.obj
 0002:00000328       ___acrt_multibyte_initializer 10020328     libucrt:multibyte_initializer.obj
 0002:0000032c       ___acrt_tran_sse2_initializer 1002032c     libucrt:sse2_initializer.obj
 0002:00000330       ___xi_z                    10020330     LIBCMT:initializers.obj
 0002:00000334       ___xl_a                    10020334     LIBCMT:tlssup.obj
 0002:00000338       ___xl_z                    10020338     LIBCMT:tlssup.obj
 0002:0000033c       ___xp_a                    1002033c     LIBCMT:initializers.obj
 0002:00000340       ___acrt_locale_terminator  10020340     libucrt:locale_initializer.obj
 0002:00000344       ___dcrt_console_output_terminator 10020344     libucrt:console_output_initializer.obj
 0002:00000348       ___acrt_stdio_terminator   10020348     libucrt:stdio_initializer.obj
 0002:0000034c       ___xp_z                    1002034c     LIBCMT:initializers.obj
 0002:00000350       ___xt_a                    10020350     LIBCMT:initializers.obj
 0002:00000354       ___xt_z                    10020354     LIBCMT:initializers.obj
 0002:00000360       ??_C@_13HADIAKP@?$AAS@     10020360     OposVariant.obj
 0002:00000364       ??_C@_13LHMFKAAD@?$AAM@    10020364     OposVariant.obj
 0002:00000368       ??_C@_13MKMNOPIJ@?$AAD@    10020368     OposVariant.obj
 0002:0000036c       ??_C@_13OPKGLAFF@?$AAB@    1002036c     OposVariant.obj
 0002:00000370       ??_C@_17LLMMEOJD@?$AAV?$AAa?$AAl@ 10020370     OposVariant.obj
 0002:00000378       ??_C@_1BI@JFAIJMHL@?$AAF?$AAo?$AAr?$AAc?$AAe?$AAR?$AAe?$AAm?$AAo?$AAv?$AAe@ 10020378     OposVariant.obj
 0002:00000390       ??_C@_1BC@GCKHIPE@?$AAN?$AAo?$AAR?$AAe?$AAm?$AAo?$AAv?$AAe@ 10020390     OposVariant.obj
 0002:000003a4       ??_C@_1O@JDLOHAN@?$AAD?$AAe?$AAl?$AAe?$AAt?$AAe@ 100203a4     OposVariant.obj
 0002:000003b4       ??_C@_11LOCGONAA@@         100203b4     OposVariant.obj
 0002:000003b8       ??_7CComClassFactory@ATL@@6B@ 100203b8     MICR.obj
 0002:000003d0       ?_entries@?1??_GetEntries@CComClassFactory@ATL@@SGPBU_ATL_INTMAP_ENTRY@3@XZ@4QBU43@B 100203d0     MICR.obj
 0002:000003e8       __GUID_00000001_0000_0000_c000_000000000046 100203e8     MICR.obj
 0002:000003f8       _IID_IOPOSMICR_1_5         100203f8     MICR.obj
 0002:00000408       _IID_IOPOSMICR_1_8         10020408     MICR.obj
 0002:00000418       _IID_IOPOSMICR_1_9         10020418     MICR.obj
 0002:00000428       _IID_IOPOSMICR_1_10        10020428     MICR.obj
 0002:00000438       _IID_IOPOSMICR             10020438     MICR.obj
 0002:00000448       _LIBID_OposMICR_CCO        10020448     MICR.obj
 0002:00000458       _DIID__IOPOSMICREvents     10020458     MICR.obj
 0002:00000468       _CLSID_OPOSMICR            10020468     MICR.obj
 0002:00000478       __GUID_00000114_0000_0000_c000_000000000046 10020478     MICR.obj
 0002:00000488       ??_C@_1BK@BIGILECK@?$AAA?$AAd?$AAv?$AAa?$AAp?$AAi?$AA3?$AA2?$AA?4?$AAd?$AAl?$AAl@ 10020488     MICR.obj
 0002:000004a4       ??_C@_0BI@MNCFCPFK@RegCreateKeyTransactedW@ 100204a4     MICR.obj
 0002:000004bc       __GUID_b196b287_bab4_101a_b69c_00aa00341d07 100204bc     MICR.obj
 0002:000004cc       __GUID_b196b285_bab4_101a_b69c_00aa00341d07 100204cc     MICR.obj
 0002:000004dc       __GUID_a6bc3ac0_dbaa_11ce_9de3_00aa004bb851 100204dc     MICR.obj
 0002:000004ec       __GUID_0000010c_0000_0000_c000_000000000046 100204ec     MICR.obj
 0002:000004fc       __GUID_00000146_0000_0000_c000_000000000046 100204fc     MICR.obj
 0002:00000510       ?_entries@?1??_GetEntries@COPOSMICR@@SGPBU_ATL_INTMAP_ENTRY@ATL@@XZ@4QBU34@B 10020510     MICR.obj
 0002:00000654       __GUID_cf51ed10_62fe_11cf_bf86_00a0c9034836 10020654     MICR.obj
 0002:00000664       __GUID_0000010a_0000_0000_c000_000000000046 10020664     MICR.obj
 0002:00000674       __GUID_b196b283_bab4_101a_b69c_00aa00341d07 10020674     MICR.obj
 0002:00000684       __GUID_cb5bdc81_93c1_11cf_8f20_00805f2cd064 10020684     MICR.obj
 0002:00000698       ?pPropMap@?1??GetPropertyMap@COPOSMICR@@SAPBUATL_PROPMAP_ENTRY@ATL@@XZ@4QBU34@B 10020698     MICR.obj
 0002:00000704       ??_C@_17DGDADEHL@?$AA_?$AAc?$AAx@ 10020704     MICR.obj
 0002:0000070c       ??_C@_17IOIMFDBO@?$AA_?$AAc?$AAy@ 1002070c     MICR.obj
 0002:00000714       ??_7CComModule@ATL@@6B@    10020714     MICR.obj
 0002:0000073c       __GUID_922eada0_3424_11cf_b670_00aa004cd6d8 1002073c     MICR.obj
 0002:0000074c       __GUID_9c2cad80_3424_11cf_b670_00aa004cd6d8 1002074c     MICR.obj
 0002:0000075c       __GUID_00000119_0000_0000_c000_000000000046 1002075c     MICR.obj
 0002:0000076c       __GUID_b196b289_bab4_101a_b69c_00aa00341d07 1002076c     MICR.obj
 0002:0000077c       ??_7?$CComObjectCached@VCComClassFactory@ATL@@@ATL@@6B@ 1002077c     MICR.obj
 0002:00000794       __GUID_00000000_0000_0000_c000_000000000046 10020794     MICR.obj
 0002:000007a4       ??_C@_1CE@PGFMOFKI@?$AAS?$AAt?$AAa?$AAt?$AAu?$AAs?$AAU?$AAp?$AAd?$AAa?$AAt?$AAe?$AAE?$AAv?$AAe@ 100207a4     MICR.obj
 0002:000007c8       __GUID_00020400_0000_0000_c000_000000000046 100207c8     MICR.obj
 0002:000007d8       ??_C@_1BG@LODEBHDD@?$AAE?$AAr?$AAr?$AAo?$AAr?$AAE?$AAv?$AAe?$AAn?$AAt@ 100207d8     MICR.obj
 0002:000007f0       ??_C@_1BM@CBGEBBBJ@?$AAD?$AAi?$AAr?$AAe?$AAc?$AAt?$AAI?$AAO?$AAE?$AAv?$AAe?$AAn?$AAt@ 100207f0     MICR.obj
 0002:0000080c       ??_C@_1BE@IEBMACEM@?$AAD?$AAa?$AAt?$AAa?$AAE?$AAv?$AAe?$AAn?$AAt@ 1002080c     MICR.obj
 0002:00000820       __GUID_00000117_0000_0000_c000_000000000046 10020820     MICR.obj
 0002:00000830       __GUID_b196b286_bab4_101a_b69c_00aa00341d07 10020830     MICR.obj
 0002:00000840       ??_C@_1BC@ENICKDH@?$AAC?$AAo?$AAn?$AAt?$AAe?$AAn?$AAt?$AAs@ 10020840     MICR.obj
 0002:00000854       ??_7?$CComObject@V?$CComEnum@UIEnumConnectionPoints@@$1?_GUID_b196b285_bab4_101a_b69c_00aa00341d07@@3U__s_GUID@@BPAUIConnectionPoint@@V?$_CopyInterface@UIConnectionPoint@@@ATL@@VCComSingleThreadModel@6@@ATL@@@ATL@@6B@ 10020854     MICR.obj
 0002:00000874       ??_C@_1M@KANJNLFF@?$AAC?$AAL?$AAS?$AAI?$AAD@ 10020874     MICR.obj
 0002:00000880       ??_C@_1M@EJNEECMJ@?$AAA?$AAp?$AAp?$AAI?$AAD@ 10020880     MICR.obj
 0002:0000088c       __GUID_0000010e_0000_0000_c000_000000000046 1002088c     MICR.obj
 0002:0000089c       __GUID_b196b288_bab4_101a_b69c_00aa00341d07 1002089c     MICR.obj
 0002:000008ac       ?rgszNeverDelete@CRegParser@ATL@@1QBQB_WB 100208ac     MICR.obj
 0002:000008dc       ??_7CRegObject@ATL@@6B@    100208dc     MICR.obj
 0002:000008f4       __GUID_00000113_0000_0000_c000_000000000046 100208f4     MICR.obj
 0002:00000904       __GUID_1c2056cc_5ef4_101b_8bc8_00aa003e3b29 10020904     MICR.obj
 0002:00000914       ??_C@_1CK@OEKPKBNA@?$AAC?$AAo?$AAm?$AAp?$AAo?$AAn?$AAe?$AAn?$AAt?$AA?5?$AAC?$AAa?$AAt?$AAe?$AAg@ 10020914     MICR.obj
 0002:00000940       ??_C@_1BC@NKMMNMGL@?$AAF?$AAi?$AAl?$AAe?$AAT?$AAy?$AAp?$AAe@ 10020940     MICR.obj
 0002:00000954       ??_C@_1BE@EKPAFMCP@?$AAI?$AAn?$AAt?$AAe?$AAr?$AAf?$AAa?$AAc?$AAe@ 10020954     MICR.obj
 0002:00000968       ??_C@_1BC@MAICEHGI@?$AAH?$AAa?$AAr?$AAd?$AAw?$AAa?$AAr?$AAe@ 10020968     MICR.obj
 0002:0000097c       ??_C@_19HLLLM@?$AAM?$AAi?$AAm?$AAe@ 1002097c     MICR.obj
 0002:00000988       ??_C@_17OMAOINJK@?$AAS?$AAA?$AAM@ 10020988     MICR.obj
 0002:00000990       ??_C@_1BC@IBECJAAI@?$AAS?$AAE?$AAC?$AAU?$AAR?$AAI?$AAT?$AAY@ 10020990     MICR.obj
 0002:000009a4       ??_C@_1O@GBFINDKL@?$AAS?$AAY?$AAS?$AAT?$AAE?$AAM@ 100209a4     MICR.obj
 0002:000009b4       ??_C@_1BC@EAHCMADO@?$AAS?$AAo?$AAf?$AAt?$AAw?$AAa?$AAr?$AAe@ 100209b4     MICR.obj
 0002:000009c8       ??_C@_1BA@JIHHIEDE@?$AAT?$AAy?$AAp?$AAe?$AAL?$AAi?$AAb@ 100209c8     MICR.obj
 0002:000009d8       ?map@?1??HKeyFromString@CRegParser@ATL@@KAPAUHKEY__@@PA_W@Z@4QBUkeymap@?1??123@KAPAU4@0@Z@B 100209d8     MICR.obj
 0002:00000a48       ??_C@_19NCHLBIN@?$AAH?$AAK?$AAC?$AAR@ 10020a48     MICR.obj
 0002:00000a54       ??_C@_19JAPAIJDE@?$AAH?$AAK?$AAC?$AAU@ 10020a54     MICR.obj
 0002:00000a60       ??_C@_19PEALEEJB@?$AAH?$AAK?$AAL?$AAM@ 10020a60     MICR.obj
 0002:00000a6c       ??_C@_17PJOJPMPB@?$AAH?$AAK?$AAU@ 10020a6c     MICR.obj
 0002:00000a74       ??_C@_19PNBHMJPL@?$AAH?$AAK?$AAP?$AAD@ 10020a74     MICR.obj
 0002:00000a80       ??_C@_19GFFAIJHG@?$AAH?$AAK?$AAD?$AAD@ 10020a80     MICR.obj
 0002:00000a8c       ??_C@_19OFICIBHH@?$AAH?$AAK?$AAC?$AAC@ 10020a8c     MICR.obj
 0002:00000a98       ??_C@_1CE@PACHPJFI@?$AAH?$AAK?$AAE?$AAY?$AA_?$AAC?$AAL?$AAA?$AAS?$AAS?$AAE?$AAS?$AA_?$AAR?$AAO@ 10020a98     MICR.obj
 0002:00000abc       ??_C@_1CE@HLHNCBPM@?$AAH?$AAK?$AAE?$AAY?$AA_?$AAC?$AAU?$AAR?$AAR?$AAE?$AAN?$AAT?$AA_?$AAU?$AAS@ 10020abc     MICR.obj
 0002:00000ae0       ??_C@_1CG@GFBEANJL@?$AAH?$AAK?$AAE?$AAY?$AA_?$AAL?$AAO?$AAC?$AAA?$AAL?$AA_?$AAM?$AAA?$AAC?$AAH@ 10020ae0     MICR.obj
 0002:00000b08       ??_C@_1BG@BGODANIO@?$AAH?$AAK?$AAE?$AAY?$AA_?$AAU?$AAS?$AAE?$AAR?$AAS@ 10020b08     MICR.obj
 0002:00000b20       ??_C@_1CM@KHNNAOIC@?$AAH?$AAK?$AAE?$AAY?$AA_?$AAP?$AAE?$AAR?$AAF?$AAO?$AAR?$AAM?$AAA?$AAN?$AAC@ 10020b20     MICR.obj
 0002:00000b4c       ??_C@_1BM@HAGMMHIA@?$AAH?$AAK?$AAE?$AAY?$AA_?$AAD?$AAY?$AAN?$AA_?$AAD?$AAA?$AAT?$AAA@ 10020b4c     MICR.obj
 0002:00000b68       ??_C@_1CI@BBJOACGG@?$AAH?$AAK?$AAE?$AAY?$AA_?$AAC?$AAU?$AAR?$AAR?$AAE?$AAN?$AAT?$AA_?$AAC?$AAO@ 10020b68     MICR.obj
 0002:00000b90       __GUID_00000112_0000_0000_c000_000000000046 10020b90     MICR.obj
 0002:00000ba0       __GUID_00000109_0000_0000_c000_000000000046 10020ba0     MICR.obj
 0002:00000bb0       __GUID_7fd52380_4e07_101b_ae2d_08002b2ec713 10020bb0     MICR.obj
 0002:00000bc0       __GUID_3af24292_0c96_11ce_a0cf_00aa00600ab8 10020bc0     MICR.obj
 0002:00000bd0       __GUID_00000127_0000_0000_c000_000000000046 10020bd0     MICR.obj
 0002:00000be0       __GUID_0000010d_0000_0000_c000_000000000046 10020be0     MICR.obj
 0002:00000bf0       ??_C@_1EA@NHKLICFA@?$AAH?$AAK?$AAC?$AAU?$AA?$AN?$AA?6?$AA?$HL?$AA?7?$AAS?$AAo?$AAf?$AAt?$AAw?$AAa?$AAr@ 10020bf0     MICR.obj
 0002:00000c30       ??_C@_1BE@LJOLIMEM@?$AA?$AN?$AA?6?$AA?7?$AA?$HN?$AA?$AN?$AA?6?$AA?$HN?$AA?$AN?$AA?6@ 10020c30     MICR.obj
 0002:00000c44       ??_C@_1M@PPPPCDEP@?$AAA?$AAP?$AAP?$AAI?$AAD@ 10020c44     MICR.obj
 0002:00000c50       ??_C@_1O@MNLDABAF@?$AAM?$AAo?$AAd?$AAu?$AAl?$AAe@ 10020c50     MICR.obj
 0002:00000c60       ??_C@_1BG@JBACFMF@?$AAM?$AAo?$AAd?$AAu?$AAl?$AAe?$AA_?$AAR?$AAa?$AAw@ 10020c60     MICR.obj
 0002:00000c78       ??_C@_1BC@KAILKFFG@?$AAR?$AAE?$AAG?$AAI?$AAS?$AAT?$AAR?$AAY@ 10020c78     MICR.obj
 0002:00000c8c       ??_7?$CComContainedObject@VCOPOSMICR@@@ATL@@6B?$IDispatchImpl@UIOPOSMICR@@$1?IID_IOPOSMICR@@3U_GUID@@B$1?LIBID_OposMICR_CCO@@3U3@B$00$0A@VCComTypeInfoHolder@ATL@@@1@@ 10020c8c     MICR.obj
 0002:00000da8       ??_7?$CComContainedObject@VCOPOSMICR@@@ATL@@6BCComControlBase@1@@ 10020da8     MICR.obj
 0002:00000dbc       ??_7?$CComContainedObject@VCOPOSMICR@@@ATL@@6B?$CWindowImpl@VCOPOSMICR@@VCWindow@ATL@@V?$CWinTraits@$0FGAAAAAA@$0A@@3@@1@@ 10020dbc     MICR.obj
 0002:00000dcc       ??_7?$CComContainedObject@VCOPOSMICR@@@ATL@@6B?$IPersistStreamInitImpl@VCOPOSMICR@@@1@@ 10020dcc     MICR.obj
 0002:00000df0       ??_7?$CComContainedObject@VCOPOSMICR@@@ATL@@6B?$IOleControlImpl@VCOPOSMICR@@@1@@ 10020df0     MICR.obj
 0002:00000e0c       ??_7?$CComContainedObject@VCOPOSMICR@@@ATL@@6B?$IOleObjectImpl@VCOPOSMICR@@@1@@ 10020e0c     MICR.obj
 0002:00000e6c       ??_7?$CComContainedObject@VCOPOSMICR@@@ATL@@6B?$IOleInPlaceActiveObjectImpl@VCOPOSMICR@@@1@@ 10020e6c     MICR.obj
 0002:00000e94       ??_7?$CComContainedObject@VCOPOSMICR@@@ATL@@6B?$IViewObjectExImpl@VCOPOSMICR@@@1@@ 10020e94     MICR.obj
 0002:00000ed0       ??_7?$CComContainedObject@VCOPOSMICR@@@ATL@@6B?$IOleInPlaceObjectWindowlessImpl@VCOPOSMICR@@@1@@ 10020ed0     MICR.obj
 0002:00000efc       ??_7?$CComContainedObject@VCOPOSMICR@@@ATL@@6B?$IConnectionPointContainerImpl@VCOPOSMICR@@@1@@ 10020efc     MICR.obj
 0002:00000f10       ??_7?$CComContainedObject@VCOPOSMICR@@@ATL@@6B?$IPersistStorageImpl@VCOPOSMICR@@@1@@ 10020f10     MICR.obj
 0002:00000f38       ??_7?$CComContainedObject@VCOPOSMICR@@@ATL@@6B?$ISpecifyPropertyPagesImpl@VCOPOSMICR@@@1@@ 10020f38     MICR.obj
 0002:00000f48       ??_7?$CComContainedObject@VCOPOSMICR@@@ATL@@6B?$IQuickActivateImpl@VCOPOSMICR@@@1@@ 10020f48     MICR.obj
 0002:00000f60       ??_7?$CComContainedObject@VCOPOSMICR@@@ATL@@6B?$IDataObjectImpl@VCOPOSMICR@@@1@@ 10020f60     MICR.obj
 0002:00000f90       ??_7?$CComContainedObject@VCOPOSMICR@@@ATL@@6B?$IProvideClassInfo2Impl@$1?CLSID_OPOSMICR@@3U_GUID@@B$1?DIID__IOPOSMICREvents@@3U2@B$1?LIBID_OposMICR_CCO@@3U2@B$00$0A@VCComTypeInfoHolder@ATL@@@1@@ 10020f90     MICR.obj
 0002:00000fa4       ??_7?$CComContainedObject@VCOPOSMICR@@@ATL@@6B?$IObjectSafetyImpl@VCOPOSMICR@@$02@1@@ 10020fa4     MICR.obj
 0002:00000fbc       ??_7?$CComContainedObject@VCOPOSMICR@@@ATL@@6B?$IPropertyNotifySinkCP@VCOPOSMICR@@VCComDynamicUnkArray@ATL@@@1@@ 10020fbc     MICR.obj
 0002:00000fdc       ??_7?$CComContainedObject@VCOPOSMICR@@@ATL@@6B?$CProxy_IOPOSEvents@VCOPOSMICR@@@@@ 10020fdc     MICR.obj
 0002:00000ffc       ??_7?$CComAggObject@VCOPOSMICR@@@ATL@@6B@ 10020ffc     MICR.obj
 0002:0000100c       ??_7?$CComObject@VCOPOSMICR@@@ATL@@6B?$IDispatchImpl@UIOPOSMICR@@$1?IID_IOPOSMICR@@3U_GUID@@B$1?LIBID_OposMICR_CCO@@3U3@B$00$0A@VCComTypeInfoHolder@ATL@@@1@@ 1002100c     MICR.obj
 0002:00001128       ??_7?$CComObject@VCOPOSMICR@@@ATL@@6BCComControlBase@1@@ 10021128     MICR.obj
 0002:0000113c       ??_7?$CComObject@VCOPOSMICR@@@ATL@@6B?$CWindowImpl@VCOPOSMICR@@VCWindow@ATL@@V?$CWinTraits@$0FGAAAAAA@$0A@@3@@1@@ 1002113c     MICR.obj
 0002:0000114c       ??_7?$CComObject@VCOPOSMICR@@@ATL@@6B?$IPersistStreamInitImpl@VCOPOSMICR@@@1@@ 1002114c     MICR.obj
 0002:00001170       ??_7?$CComObject@VCOPOSMICR@@@ATL@@6B?$IOleControlImpl@VCOPOSMICR@@@1@@ 10021170     MICR.obj
 0002:0000118c       ??_7?$CComObject@VCOPOSMICR@@@ATL@@6B?$IOleObjectImpl@VCOPOSMICR@@@1@@ 1002118c     MICR.obj
 0002:000011ec       ??_7?$CComObject@VCOPOSMICR@@@ATL@@6B?$IOleInPlaceActiveObjectImpl@VCOPOSMICR@@@1@@ 100211ec     MICR.obj
 0002:00001214       ??_7?$CComObject@VCOPOSMICR@@@ATL@@6B?$IViewObjectExImpl@VCOPOSMICR@@@1@@ 10021214     MICR.obj
 0002:00001250       ??_7?$CComObject@VCOPOSMICR@@@ATL@@6B?$IOleInPlaceObjectWindowlessImpl@VCOPOSMICR@@@1@@ 10021250     MICR.obj
 0002:0000127c       ??_7?$CComObject@VCOPOSMICR@@@ATL@@6B?$IConnectionPointContainerImpl@VCOPOSMICR@@@1@@ 1002127c     MICR.obj
 0002:00001290       ??_7?$CComObject@VCOPOSMICR@@@ATL@@6B?$IPersistStorageImpl@VCOPOSMICR@@@1@@ 10021290     MICR.obj
 0002:000012b8       ??_7?$CComObject@VCOPOSMICR@@@ATL@@6B?$ISpecifyPropertyPagesImpl@VCOPOSMICR@@@1@@ 100212b8     MICR.obj
 0002:000012c8       ??_7?$CComObject@VCOPOSMICR@@@ATL@@6B?$IQuickActivateImpl@VCOPOSMICR@@@1@@ 100212c8     MICR.obj
 0002:000012e0       ??_7?$CComObject@VCOPOSMICR@@@ATL@@6B?$IDataObjectImpl@VCOPOSMICR@@@1@@ 100212e0     MICR.obj
 0002:00001310       ??_7?$CComObject@VCOPOSMICR@@@ATL@@6B?$IProvideClassInfo2Impl@$1?CLSID_OPOSMICR@@3U_GUID@@B$1?DIID__IOPOSMICREvents@@3U2@B$1?LIBID_OposMICR_CCO@@3U2@B$00$0A@VCComTypeInfoHolder@ATL@@@1@@ 10021310     MICR.obj
 0002:00001324       ??_7?$CComObject@VCOPOSMICR@@@ATL@@6B?$IObjectSafetyImpl@VCOPOSMICR@@$02@1@@ 10021324     MICR.obj
 0002:0000133c       ??_7?$CComObject@VCOPOSMICR@@@ATL@@6B?$IPropertyNotifySinkCP@VCOPOSMICR@@VCComDynamicUnkArray@ATL@@@1@@ 1002133c     MICR.obj
 0002:0000135c       ??_7?$CComObject@VCOPOSMICR@@@ATL@@6B?$CProxy_IOPOSEvents@VCOPOSMICR@@@@@ 1002135c     MICR.obj
 0002:0000137c       ??_C@_1O@GBFKGNEO@?$AAA?$AAT?$AAL?$AA?3?$AA?$CF?$AAp@ 1002137c     MICR.obj
 0002:0000138c       ??_C@_1BA@PICGEGJB@?$AAD?$AAI?$AAS?$AAP?$AAL?$AAA?$AAY@ 1002138c     MICR.obj
 0002:0000139c       __GUID_9bfbbc02_eff1_101a_84ed_00aa00341d07 1002139c     MICR.obj
 0002:000013ac       __GUID_b196b284_bab4_101a_b69c_00aa00341d07 100213ac     MICR.obj
 0002:000013bc       ?_entries@?1??_GetEntries@?$CComEnum@UIEnumConnectionPoints@@$1?_GUID_b196b285_bab4_101a_b69c_00aa00341d07@@3U__s_GUID@@BPAUIConnectionPoint@@V?$_CopyInterface@UIConnectionPoint@@@ATL@@VCComSingleThreadModel@6@@ATL@@SGPBU_ATL_INTMAP_ENTRY@3@XZ@4QBU43@B 100213bc     MICR.obj
 0002:000013d4       __GUID_00020412_0000_0000_c000_000000000046 100213d4     MICR.obj
 0002:000013e4       __GUID_00020401_0000_0000_c000_000000000046 100213e4     MICR.obj
 0002:000013f4       ??_7?$CComObject@V?$CComEnum@UIEnumConnections@@$1?_GUID_b196b287_bab4_101a_b69c_00aa00341d07@@3U__s_GUID@@BUtagCONNECTDATA@@V?$_Copy@UtagCONNECTDATA@@@ATL@@VCComSingleThreadModel@6@@ATL@@@ATL@@6B@ 100213f4     MICR.obj
 0002:00001414       __GUID_55980ba0_35aa_11cf_b671_00aa004cd6d8 10021414     MICR.obj
 0002:00001424       __GUID_b196b28b_bab4_101a_b69c_00aa00341d07 10021424     MICR.obj
 0002:00001434       ?_entries@?1??_GetEntries@?$CComEnum@UIEnumConnections@@$1?_GUID_b196b287_bab4_101a_b69c_00aa00341d07@@3U__s_GUID@@BUtagCONNECTDATA@@V?$_Copy@UtagCONNECTDATA@@@ATL@@VCComSingleThreadModel@6@@ATL@@SGPBU_ATL_INTMAP_ENTRY@3@XZ@4QBU43@B 10021434     MICR.obj
 0002:0000144c       ??_C@_0BG@EKFFMJIO@RegOpenKeyTransactedW@ 1002144c     MICR.obj
 0002:00001464       ??_C@_0BI@HAKLOOGP@RegDeleteKeyTransactedW@ 10021464     MICR.obj
 0002:0000147c       ??_C@_0BA@LILAPHGE@RegDeleteKeyExW@ 1002147c     MICR.obj
 0002:0000148c       ??_C@_19ILOCMLCJ@?$AA?4?$AAt?$AAl?$AAb@ 1002148c     MICR.obj
 0002:00001498       __GUID_0002e012_0000_0000_c000_000000000046 10021498     MICR.obj
 0002:000014a8       ??_C@_1O@FHBGLCIO@?$AAC?$AAL?$AAS?$AAI?$AAD?$AA?2@ 100214a8     MICR.obj
 0002:000014b8       ??_C@_1CK@IFBKBFAA@?$AA?2?$AAR?$AAe?$AAq?$AAu?$AAi?$AAr?$AAe?$AAd?$AA?5?$AAC?$AAa?$AAt?$AAe?$AAg@ 100214b8     MICR.obj
 0002:000014e4       ??_C@_1DA@BIHALFED@?$AA?2?$AAI?$AAm?$AAp?$AAl?$AAe?$AAm?$AAe?$AAn?$AAt?$AAe?$AAd?$AA?5?$AAC?$AAa@ 100214e4     MICR.obj
 0002:00001514       ??_C@_1BK@EDKOLFBJ@?$AAO?$AAL?$AAE?$AAA?$AAU?$AAT?$AA3?$AA2?$AA?4?$AAD?$AAL?$AAL@ 10021514     MICR.obj
 0002:00001530       ??_C@_0BJ@CNLFOMHB@UnRegisterTypeLibForUser@ 10021530     MICR.obj
 0002:0000154c       ??_C@_0BH@LBOMMKPJ@RegisterTypeLibForUser@ 1002154c     MICR.obj
 0002:00001564       ??_C@_0P@MMNMMLGK@COFreezeEvents@ 10021564     MICRImpl.obj
 0002:00001574       ??_C@_0BC@OGCGGIMP@GetPropertyNumber@ 10021574     MICRImpl.obj
 0002:00001588       ??_C@_0BC@MDCNODNB@SetPropertyNumber@ 10021588     MICRImpl.obj
 0002:0000159c       ??_C@_0BC@CFCCMIMD@GetPropertyString@ 1002159c     MICRImpl.obj
 0002:000015b0       ??_C@_0BC@CJEDNN@SetPropertyString@ 100215b0     MICRImpl.obj
 0002:000015c4       ??_C@_0M@LNPKKKDA@OpenService@ 100215c4     MICRImpl.obj
 0002:000015d0       ??_C@_0M@PCMCHHMH@CheckHealth@ 100215d0     MICRImpl.obj
 0002:000015dc       ??_C@_0M@JGMIDNEK@ClaimDevice@ 100215dc     MICRImpl.obj
 0002:000015e8       ??_C@_0L@BNEIFEJC@ClearInput@ 100215e8     MICRImpl.obj
 0002:000015f4       ??_C@_0N@DDFIIBMP@CloseService@ 100215f4     MICRImpl.obj
 0002:00001604       ??_C@_08EEIHICPC@DirectIO@ 10021604     MICRImpl.obj
 0002:00001610       ??_C@_0O@BCPMENMJ@ReleaseDevice@ 10021610     MICRImpl.obj
 0002:00001620       ??_C@_0P@DPMKPLAE@BeginInsertion@ 10021620     MICRImpl.obj
 0002:00001630       ??_C@_0N@PCJLGBKP@BeginRemoval@ 10021630     MICRImpl.obj
 0002:00001640       ??_C@_0N@MIHLNKHM@EndInsertion@ 10021640     MICRImpl.obj
 0002:00001650       ??_C@_0L@FCEKAOMI@EndRemoval@ 10021650     MICRImpl.obj
 0002:0000165c       ??_C@_0BA@GFABKEEE@ResetStatistics@ 1002165c     MICRImpl.obj
 0002:0000166c       ??_C@_0BD@DPALHJGC@RetrieveStatistics@ 1002166c     MICRImpl.obj
 0002:00001680       ??_C@_0BB@KOHIKNFC@UpdateStatistics@ 10021680     MICRImpl.obj
 0002:00001694       ??_C@_0BH@PBKBNMGB@CompareFirmwareVersion@ 10021694     MICRImpl.obj
 0002:000016ac       ??_C@_0P@FBPDPIPA@UpdateFirmware@ 100216ac     MICRImpl.obj
 0002:000016bc       ??_C@_0BF@CMAPCJGM@ClearInputProperties@ 100216bc     MICRImpl.obj
 0002:000016d4       ??_7?$CProxy_IOPOSEvents@VCOPOSMICR@@@@6B@ 100216d4     MICRImpl.obj
 0002:000016f4       ??_C@_1BA@IFHENID@?$AA?$FL?$AAE?$AAr?$AAr?$AAo?$AAr?$AA?$FN@ 100216f4     MICRImpl.obj
 0002:00001704       ??_C@_0CH@BMFKNIPD@SOFTWARE?2OLEforRetail?2ServiceOP@ 10021704     MICRImpl.obj
 0002:0000172c       ??_C@_1M@IAIJHCCH@?$AAC?$AAl?$AAo?$AAs?$AAe@ 1002172c     MICRImpl.obj
 0002:00001738       ??_C@_1M@PCPKGJAH@?$AAC?$AAl?$AAa?$AAi?$AAm@ 10021738     MICRImpl.obj
 0002:00001744       ??_C@_1BA@NDFKIOCP@?$AAR?$AAe?$AAl?$AAe?$AAa?$AAs?$AAe@ 10021744     MICRImpl.obj
 0002:00001754       ??_C@_04IFPDIPOC@MICR@     10021754     MICRImpl.obj
 0002:0000175c       ??_C@_1BM@IJMNMBPK@?$AAG?$AAe?$AAt?$AAO?$AAp?$AAe?$AAn?$AAR?$AAe?$AAs?$AAu?$AAl?$AAt@ 1002175c     MICRImpl.obj
 0002:00001778       _IID_IPropertyNotifySink   10021778     uuid:ocidl_i.obj
 0002:00001788       _GUID_NULL                 10021788     uuid:cguid_i.obj
 0002:00001798       _CLSID_StdGlobalInterfaceTable 10021798     uuid:cguid_i.obj
 0002:000017a8       _IID_IDispatch             100217a8     uuid:oaidl_i.obj
 0002:000017b8       _CLSID_StdComponentCategoriesMgr 100217b8     uuid:ieguids.obj
 0002:000017c8       _IID_IUnknown              100217c8     uuid:unknwn_i.obj
 0002:000017d8       ??_C@_1EC@JIJBPKFM@?$AAa?$AAp?$AAi?$AA?9?$AAm?$AAs?$AA?9?$AAw?$AAi?$AAn?$AA?9?$AAc?$AAo?$AAr?$AAe@ 100217d8     LIBCMT:thread_safe_statics.obj
 0002:0000181c       ??_C@_1BK@MGMFAEKH@?$AAk?$AAe?$AAr?$AAn?$AAe?$AAl?$AA3?$AA2?$AA?4?$AAd?$AAl?$AAl@ 1002181c     LIBCMT:thread_safe_statics.obj
 0002:00001838       ??_C@_0BJ@JEBJOJFJ@SleepConditionVariableCS@ 10021838     LIBCMT:thread_safe_statics.obj
 0002:00001854       ??_C@_0BJ@PGPPEPCC@WakeAllConditionVariable@ 10021854     LIBCMT:thread_safe_statics.obj
 0002:0000186d       ?nothrow@std@@3Unothrow_t@1@B 1002186d     LIBCMT:std_nothrow.obj
 0002:00001878       __pRawDllMain              10021878     LIBCMT:dll_dllmain.obj
 0002:00001878       __pDefaultRawDllMain       10021878     LIBCMT:dll_dllmain.obj
 0002:00001880       ??_7exception@std@@6B@     10021880     LIBCMT:throw_bad_alloc.obj
 0002:00001888       ??_C@_0BC@EOODALEL@Unknown?5exception@ 10021888     LIBCMT:throw_bad_alloc.obj
 0002:000018a0       ??_7bad_alloc@std@@6B@     100218a0     LIBCMT:throw_bad_alloc.obj
 0002:000018a8       ??_C@_0P@GHFPNOJB@bad?5allocation@ 100218a8     LIBCMT:throw_bad_alloc.obj
 0002:000018bc       ??_7bad_array_new_length@std@@6B@ 100218bc     LIBCMT:throw_bad_alloc.obj
 0002:000018c4       ??_C@_0BF@KINCDENJ@bad?5array?5new?5length@ 100218c4     LIBCMT:throw_bad_alloc.obj
 0002:000018e0       ??_7type_info@@6B@         100218e0     LIBCMT:std_type_info_static.obj
 0002:000018e4       _GUID_ATLVer110            100218e4     atls:atlbase.obj
 0002:000018f8       ??_C@_1IC@ONKHOIDK@?$AAE?$AAR?$AAR?$AAO?$AAR?$AA?5?$AA?3?$AA?5?$AAU?$AAn?$AAa?$AAb?$AAl?$AAe?$AA?5@ 100218f8     atls:atlbase.obj
 0002:0000197c       ??_C@_0N@FJEPLCIH@atlthunk?4dll@ 1002197c     atls:atlthunk.obj
 0002:0000198c       ??_C@_0BG@GAKFHCBM@AtlThunk_AllocateData@ 1002198c     atls:atlthunk.obj
 0002:000019a4       ??_C@_0BC@JKONFIAH@AtlThunk_InitData@ 100219a4     atls:atlthunk.obj
 0002:000019b8       ??_C@_0BE@IAOEELAK@AtlThunk_DataToCode@ 100219b8     atls:atlthunk.obj
 0002:000019cc       ??_C@_0BC@GBGKAIPI@AtlThunk_FreeData@ 100219cc     atls:atlthunk.obj
 0002:000019e0       __pDestructExceptionObject 100219e0     libvcruntime:ehhelpers.obj
 0002:000019e8       ??_7bad_exception@std@@6B@ 100219e8     libvcruntime:frame.obj
 0002:000019f0       ??_C@_0O@DPKOEFFH@bad?5exception@ 100219f0     libvcruntime:frame.obj
 0002:00001d80       ??_C@_08EHJDFFNH@__based?$CI@ 10021d80     libvcruntime:undname.obj
 0002:00001d8c       ??_C@_07KOLFKCDI@__cdecl@  10021d8c     libvcruntime:undname.obj
 0002:00001d94       ??_C@_08GHMPAG@__pascal@   10021d94     libvcruntime:undname.obj
 0002:00001da0       ??_C@_09IFJBGAPI@__stdcall@ 10021da0     libvcruntime:undname.obj
 0002:00001dac       ??_C@_0L@NPHFGOKO@__thiscall@ 10021dac     libvcruntime:undname.obj
 0002:00001db8       ??_C@_0L@JMKHOMEK@__fastcall@ 10021db8     libvcruntime:undname.obj
 0002:00001dc4       ??_C@_0N@BCKKPABJ@__vectorcall@ 10021dc4     libvcruntime:undname.obj
 0002:00001dd4       ??_C@_09HIJEGCPM@__clrcall@ 10021dd4     libvcruntime:undname.obj
 0002:00001de0       ??_C@_06GHPCKEAG@__eabi@   10021de0     libvcruntime:undname.obj
 0002:00001de8       ??_C@_09IOPIDJLG@__swift_1@ 10021de8     libvcruntime:undname.obj
 0002:00001df4       ??_C@_09KFNFGKHF@__swift_2@ 10021df4     libvcruntime:undname.obj
 0002:00001e00       ??_C@_07JOMMBBKO@__ptr64@  10021e00     libvcruntime:undname.obj
 0002:00001e08       ??_C@_0L@PILCLIHE@__restrict@ 10021e08     libvcruntime:undname.obj
 0002:00001e14       ??_C@_0M@GFIIJFMG@__unaligned@ 10021e14     libvcruntime:undname.obj
 0002:00001e20       ??_C@_09DHDLOLLB@restrict?$CI@ 10021e20     libvcruntime:undname.obj
 0002:00001e2a       ??_C@_00CNPNBAHC@@         10021e2a     libvcruntime:undname.obj
 0002:00001e2c       ??_C@_04NIHEBCM@?5new@     10021e2c     libvcruntime:undname.obj
 0002:00001e34       ??_C@_07FPCDHGMM@?5delete@ 10021e34     libvcruntime:undname.obj
 0002:00001e3c       ??_C@_01NEMOKFLO@?$DN@     10021e3c     libvcruntime:undname.obj
 0002:00001e40       ??_C@_02GPIOPFAK@?$DO?$DO@ 10021e40     libvcruntime:undname.obj
 0002:00001e44       ??_C@_02FODMEDOG@?$DM?$DM@ 10021e44     libvcruntime:undname.obj
 0002:00001e48       ??_C@_01DCLJPIOD@?$CB@     10021e48     libvcruntime:undname.obj
 0002:00001e4c       ??_C@_02EGOFBIJA@?$DN?$DN@ 10021e4c     libvcruntime:undname.obj
 0002:00001e50       ??_C@_02FDNJECIE@?$CB?$DN@ 10021e50     libvcruntime:undname.obj
 0002:00001e54       ??_C@_02GPECMEKF@?$FL?$FN@ 10021e54     libvcruntime:undname.obj
 0002:00001e58       ??_C@_08LHJFAFGD@operator@ 10021e58     libvcruntime:undname.obj
 0002:00001e64       ??_C@_02HBOOOICD@?9?$DO@   10021e64     libvcruntime:undname.obj
 0002:00001e68       ??_C@_01NBENCBCI@?$CK@     10021e68     libvcruntime:undname.obj
 0002:00001e6c       ??_C@_02ECNGHCIF@?$CL?$CL@ 10021e6c     libvcruntime:undname.obj
 0002:00001e70       ??_C@_02BAABKJLB@?9?9@     10021e70     libvcruntime:undname.obj
 0002:00001e74       ??_C@_01JOAMLHOP@?9@       10021e74     libvcruntime:undname.obj
 0002:00001e78       ??_C@_01MIFGBAGJ@?$CL@     10021e78     libvcruntime:undname.obj
 0002:00001e7c       ??_C@_01HNPIGOCE@?$CG@     10021e7c     libvcruntime:undname.obj
 0002:00001e80       ??_C@_03MNHNFDLC@?9?$DO?$CK@ 10021e80     libvcruntime:undname.obj
 0002:00001e84       ??_C@_01KMDKNFGN@?1@       10021e84     libvcruntime:undname.obj
 0002:00001e88       ??_C@_01FGNFDNOH@?$CF@     10021e88     libvcruntime:undname.obj
 0002:00001e8c       ??_C@_01MNNFJEPP@?$DM@     10021e8c     libvcruntime:undname.obj
 0002:00001e90       ??_C@_02EHCHHCKH@?$DM?$DN@ 10021e90     libvcruntime:undname.obj
 0002:00001e94       ??_C@_01PPODPGHN@?$DO@     10021e94     libvcruntime:undname.obj
 0002:00001e98       ??_C@_02EEKDKGMJ@?$DO?$DN@ 10021e98     libvcruntime:undname.obj
 0002:00001e9c       ??_C@_01IHBHIGKO@?0@       10021e9c     libvcruntime:undname.obj
 0002:00001ea0       ??_C@_02HCKGKOFO@?$CI?$CJ@ 10021ea0     libvcruntime:undname.obj
 0002:00001ea4       ??_C@_01PJKLJHI@?$HO@      10021ea4     libvcruntime:undname.obj
 0002:00001ea8       ??_C@_01JKBOJNNK@?$FO@     10021ea8     libvcruntime:undname.obj
 0002:00001eac       ??_C@_01DNKMNLPK@?$HM@     10021eac     libvcruntime:undname.obj
 0002:00001eb0       ??_C@_02PPKAJPJL@?$CG?$CG@ 10021eb0     libvcruntime:undname.obj
 0002:00001eb4       ??_C@_02NONPIBCD@?$HM?$HM@ 10021eb4     libvcruntime:undname.obj
 0002:00001eb8       ??_C@_02FPIMKNGF@?$CK?$DN@ 10021eb8     libvcruntime:undname.obj
 0002:00001ebc       ??_C@_02FOEOMHFC@?$CL?$DN@ 10021ebc     libvcruntime:undname.obj
 0002:00001ec0       ??_C@_02FKMDLLOA@?9?$DN@   10021ec0     libvcruntime:undname.obj
 0002:00001ec4       ??_C@_02FJEHGPIO@?1?$DN@   10021ec4     libvcruntime:undname.obj
 0002:00001ec8       ??_C@_02FENAOKFI@?$CF?$DN@ 10021ec8     libvcruntime:undname.obj
 0002:00001ecc       ??_C@_03IKFCCPFF@?$DO?$DO?$DN@ 10021ecc     libvcruntime:undname.obj
 0002:00001ed0       ??_C@_03CDNPDDLA@?$DM?$DM?$DN@ 10021ed0     libvcruntime:undname.obj
 0002:00001ed4       ??_C@_02FGJGFEAB@?$CG?$DN@ 10021ed4     libvcruntime:undname.obj
 0002:00001ed8       ??_C@_02DHLNPPGH@?$HM?$DN@ 10021ed8     libvcruntime:undname.obj
 0002:00001edc       ??_C@_02MHEGNOJ@?$FO?$DN@  10021edc     libvcruntime:undname.obj
 0002:00001ee0       ??_C@_09IFPLHPGF@?$GAvftable?8@ 10021ee0     libvcruntime:undname.obj
 0002:00001eec       ??_C@_09BLBHBJP@?$GAvbtable?8@ 10021eec     libvcruntime:undname.obj
 0002:00001ef8       ??_C@_07FEEIOKP@?$GAvcall?8@ 10021ef8     libvcruntime:undname.obj
 0002:00001f00       ??_C@_08LLFFHHDJ@?$GAtypeof?8@ 10021f00     libvcruntime:undname.obj
 0002:00001f0c       ??_C@_0BF@KDPPACIK@?$GAlocal?5static?5guard?8@ 10021f0c     libvcruntime:undname.obj
 0002:00001f24       ??_C@_08OBABFOLI@?$GAstring?8@ 10021f24     libvcruntime:undname.obj
 0002:00001f30       ??_C@_0BD@JDLKDPAB@?$GAvbase?5destructor?8@ 10021f30     libvcruntime:undname.obj
 0002:00001f44       ??_C@_0BN@DEGPLNFK@?$GAvector?5deleting?5destructor?8@ 10021f44     libvcruntime:undname.obj
 0002:00001f64       ??_C@_0BO@OBMKPJIG@?$GAdefault?5constructor?5closure?8@ 10021f64     libvcruntime:undname.obj
 0002:00001f84       ??_C@_0BN@IMDCHIKM@?$GAscalar?5deleting?5destructor?8@ 10021f84     libvcruntime:undname.obj
 0002:00001fa4       ??_C@_0BO@PFGOCPJJ@?$GAvector?5constructor?5iterator?8@ 10021fa4     libvcruntime:undname.obj
 0002:00001fc4       ??_C@_0BN@LFPFMEDL@?$GAvector?5destructor?5iterator?8@ 10021fc4     libvcruntime:undname.obj
 0002:00001fe4       ??_C@_0CE@IKBNEHA@?$GAvector?5vbase?5constructor?5itera@ 10021fe4     libvcruntime:undname.obj
 0002:00002008       ??_C@_0BL@NILFHHPC@?$GAvirtual?5displacement?5map?8@ 10022008     libvcruntime:undname.obj
 0002:00002024       ??_C@_0CB@JONCMFFK@?$GAeh?5vector?5constructor?5iterator@ 10022024     libvcruntime:undname.obj
 0002:00002048       ??_C@_0CA@GCEOPDGL@?$GAeh?5vector?5destructor?5iterator?8@ 10022048     libvcruntime:undname.obj
 0002:00002068       ??_C@_0CH@OOJPLCPH@?$GAeh?5vector?5vbase?5constructor?5it@ 10022068     libvcruntime:undname.obj
 0002:00002090       ??_C@_0BL@LLKPOHJI@?$GAcopy?5constructor?5closure?8@ 10022090     libvcruntime:undname.obj
 0002:000020ac       ??_C@_0BA@KBCDOMBN@?$GAudt?5returning?8@ 100220ac     libvcruntime:undname.obj
 0002:000020bc       ??_C@_03KLGMFNMG@?$GAEH@   100220bc     libvcruntime:undname.obj
 0002:000020c0       ??_C@_05KHLCHHI@?$GARTTI@  100220c0     libvcruntime:undname.obj
 0002:000020c8       ??_C@_0BA@KKLDJDLB@?$GAlocal?5vftable?8@ 100220c8     libvcruntime:undname.obj
 0002:000020d8       ??_C@_0CE@IIHCMGGL@?$GAlocal?5vftable?5constructor?5clos@ 100220d8     libvcruntime:undname.obj
 0002:000020fc       ??_C@_06FHBGPFGH@?5new?$FL?$FN@ 100220fc     libvcruntime:undname.obj
 0002:00002104       ??_C@_09LBNFPBCA@?5delete?$FL?$FN@ 10022104     libvcruntime:undname.obj
 0002:00002110       ??_C@_0P@HJKNJFNN@?$GAomni?5callsig?8@ 10022110     libvcruntime:undname.obj
 0002:00002120       ??_C@_0BL@CNOONJFP@?$GAplacement?5delete?5closure?8@ 10022120     libvcruntime:undname.obj
 0002:0000213c       ??_C@_0BN@CKNJLHMB@?$GAplacement?5delete?$FL?$FN?5closure?8@ 1002213c     libvcruntime:undname.obj
 0002:0000215c       ??_C@_0CG@CFDHKGGD@?$GAmanaged?5vector?5constructor?5ite@ 1002215c     libvcruntime:undname.obj
 0002:00002184       ??_C@_0CF@IMGKMJNO@?$GAmanaged?5vector?5destructor?5iter@ 10022184     libvcruntime:undname.obj
 0002:000021ac       ??_C@_0CG@HLDDJMAG@?$GAeh?5vector?5copy?5constructor?5ite@ 100221ac     libvcruntime:undname.obj
 0002:000021d4       ??_C@_0CM@FCBBDIGB@?$GAeh?5vector?5vbase?5copy?5construct@ 100221d4     libvcruntime:undname.obj
 0002:00002200       ??_C@_0BL@CLIPGLGB@?$GAdynamic?5initializer?5for?5?8@ 10022200     libvcruntime:undname.obj
 0002:0000221c       ??_C@_0CB@PDBIFEP@?$GAdynamic?5atexit?5destructor?5for?5@ 1002221c     libvcruntime:undname.obj
 0002:00002240       ??_C@_0CD@CGAJBKEJ@?$GAvector?5copy?5constructor?5iterat@ 10022240     libvcruntime:undname.obj
 0002:00002264       ??_C@_0CJ@GJELGAMM@?$GAvector?5vbase?5copy?5constructor?5@ 10022264     libvcruntime:undname.obj
 0002:00002290       ??_C@_0CL@FGIJHLCE@?$GAmanaged?5vector?5copy?5constructo@ 10022290     libvcruntime:undname.obj
 0002:000022bc       ??_C@_0BM@PMGGMLDN@?$GAlocal?5static?5thread?5guard?8@ 100222bc     libvcruntime:undname.obj
 0002:000022d8       ??_C@_0N@BDNMDMOL@operator?5?$CC?$CC?5@ 100222d8     libvcruntime:undname.obj
 0002:000022e8       ??_C@_0BC@GGEBGALA@operator?5co_await@ 100222e8     libvcruntime:undname.obj
 0002:000022fc       ??_C@_0M@GAAIMMOH@operator?$DM?$DN?$DO@ 100222fc     libvcruntime:undname.obj
 0002:00002308       ??_C@_0BC@DAFEJGAK@?5Type?5Descriptor?8@ 10022308     libvcruntime:undname.obj
 0002:0000231c       ??_C@_0BM@LDKODKLH@?5Base?5Class?5Descriptor?5at?5?$CI@ 1002231c     libvcruntime:undname.obj
 0002:00002338       ??_C@_0BD@LGICGFMM@?5Base?5Class?5Array?8@ 10022338     libvcruntime:undname.obj
 0002:0000234c       ??_C@_0BN@MECKDCOJ@?5Class?5Hierarchy?5Descriptor?8@ 1002234c     libvcruntime:undname.obj
 0002:0000236c       ??_C@_0BK@CFCOFLF@?5Complete?5Object?5Locator?8@ 1002236c     libvcruntime:undname.obj
 0002:00002388       ??_C@_0BG@JNJLAMPM@?$GAanonymous?5namespace?8@ 10022388     libvcruntime:undname.obj
 0002:000023ac       ??_C@_1DM@KHCHBNEB@?$AAa?$AAp?$AAi?$AA?9?$AAm?$AAs?$AA?9?$AAw?$AAi?$AAn?$AA?9?$AAc?$AAo?$AAr?$AAe@ 100223ac     libvcruntime:winapi_downlevel.obj
 0002:000023e8       ??_C@_1DK@LPPGFMPP@?$AAa?$AAp?$AAi?$AA?9?$AAm?$AAs?$AA?9?$AAw?$AAi?$AAn?$AA?9?$AAc?$AAo?$AAr?$AAe@ 100223e8     libvcruntime:winapi_downlevel.obj
 0002:00002424       ??_C@_1BC@GDMECMAK@?$AAk?$AAe?$AAr?$AAn?$AAe?$AAl?$AA3?$AA2@ 10022424     libvcruntime:winapi_downlevel.obj
 0002:00002438       ??_C@_1BA@PFFKHIOG@?$AAa?$AAp?$AAi?$AA?9?$AAm?$AAs?$AA?9@ 10022438     libvcruntime:winapi_downlevel.obj
 0002:00002450       ??_C@_08KNHFBNJ@FlsAlloc@  10022450     libvcruntime:winapi_downlevel.obj
 0002:00002464       ??_C@_07PEJMOBNF@FlsFree@  10022464     libvcruntime:winapi_downlevel.obj
 0002:00002474       ??_C@_0M@GDNOONDI@FlsGetValue@ 10022474     libvcruntime:winapi_downlevel.obj
 0002:00002488       ??_C@_0M@JCPCPOEF@FlsSetValue@ 10022488     libvcruntime:winapi_downlevel.obj
 0002:0000249c       ??_C@_0BM@HCFOFFN@InitializeCriticalSectionEx@ 1002249c     libvcruntime:winapi_downlevel.obj
 0002:00002620       ?format_validation_lookup_table_spectre@__crt_stdio_output@@3V?$spectre_mitigated_lookup_table@Ustate_transition_pair@__crt_stdio_output@@$0IA@@1@B 10022620     libucrt:output.obj
 0002:00002a20       ??_C@_1O@CEDCILHN@?$AA?$CI?$AAn?$AAu?$AAl?$AAl?$AA?$CJ@ 10022a20     libucrt:output.obj
 0002:00002a30       ??_C@_06OJHGLDPL@?$CInull?$CJ@ 10022a30     libucrt:output.obj
 0002:00002a38       ___acrt_exception_action_table 10022a38     libucrt:exception_filter.obj
 0002:00002ac8       ___acrt_signal_action_table_count 10022ac8     libucrt:exception_filter.obj
 0002:00002acc       ___acrt_signal_action_first_fpe_index 10022acc     libucrt:exception_filter.obj
 0002:00002ad0       ___acrt_signal_action_fpe_count 10022ad0     libucrt:exception_filter.obj
 0002:00002ad4       ??_C@_1BI@BGOHAHKC@?$AAm?$AAs?$AAc?$AAo?$AAr?$AAe?$AAe?$AA?4?$AAd?$AAl?$AAl@ 10022ad4     libucrt:exit.obj
 0002:00002aec       ??_C@_0P@MIGLKIOC@CorExitProcess@ 10022aec     libucrt:exit.obj
 0002:00002bd0       ??_C@_1EA@JGEFHKEI@?$AAa?$AAp?$AAi?$AA?9?$AAm?$AAs?$AA?9?$AAw?$AAi?$AAn?$AA?9?$AAc?$AAo?$AAr?$AAe@ 10022bd0     libucrt:winapi_thunks.obj
 0002:00002c10       ??_C@_1DI@IJCEHOCB@?$AAa?$AAp?$AAi?$AA?9?$AAm?$AAs?$AA?9?$AAw?$AAi?$AAn?$AA?9?$AAc?$AAo?$AAr?$AAe@ 10022c10     libucrt:winapi_thunks.obj
 0002:00002c48       ??_C@_1EI@MPIAOHOC@?$AAa?$AAp?$AAi?$AA?9?$AAm?$AAs?$AA?9?$AAw?$AAi?$AAn?$AA?9?$AAc?$AAo?$AAr?$AAe@ 10022c48     libucrt:winapi_thunks.obj
 0002:00002c90       ??_C@_1FK@FPHCKFIE@?$AAa?$AAp?$AAi?$AA?9?$AAm?$AAs?$AA?9?$AAw?$AAi?$AAn?$AA?9?$AAc?$AAo?$AAr?$AAe@ 10022c90     libucrt:winapi_thunks.obj
 0002:00002cf0       ??_C@_1EM@DILCGIIO@?$AAa?$AAp?$AAi?$AA?9?$AAm?$AAs?$AA?9?$AAw?$AAi?$AAn?$AA?9?$AAc?$AAo?$AAr?$AAe@ 10022cf0     libucrt:winapi_thunks.obj
 0002:00002d3c       ??_C@_1DM@LNCGDDPN@?$AAa?$AAp?$AAi?$AA?9?$AAm?$AAs?$AA?9?$AAw?$AAi?$AAn?$AA?9?$AAc?$AAo?$AAr?$AAe@ 10022d3c     libucrt:winapi_thunks.obj
 0002:00002d78       ??_C@_1DO@FPAPJEMD@?$AAa?$AAp?$AAi?$AA?9?$AAm?$AAs?$AA?9?$AAw?$AAi?$AAn?$AA?9?$AAc?$AAo?$AAr?$AAe@ 10022d78     libucrt:winapi_thunks.obj
 0002:00002db8       ??_C@_1DK@NDHNAHIO@?$AAa?$AAp?$AAi?$AA?9?$AAm?$AAs?$AA?9?$AAw?$AAi?$AAn?$AA?9?$AAc?$AAo?$AAr?$AAe@ 10022db8     libucrt:winapi_thunks.obj
 0002:00002df4       ??_C@_1DM@KGHDGBCM@?$AAa?$AAp?$AAi?$AA?9?$AAm?$AAs?$AA?9?$AAw?$AAi?$AAn?$AA?9?$AAc?$AAo?$AAr?$AAe@ 10022df4     libucrt:winapi_thunks.obj
 0002:00002e30       ??_C@_1EO@IJIOEFOH@?$AAa?$AAp?$AAi?$AA?9?$AAm?$AAs?$AA?9?$AAw?$AAi?$AAn?$AA?9?$AAr?$AAt?$AAc?$AAo@ 10022e30     libucrt:winapi_thunks.obj
 0002:00002e80       ??_C@_1FG@HHGEKANL@?$AAa?$AAp?$AAi?$AA?9?$AAm?$AAs?$AA?9?$AAw?$AAi?$AAn?$AA?9?$AAs?$AAe?$AAc?$AAu@ 10022e80     libucrt:winapi_thunks.obj
 0002:00002ed8       ??_C@_1EG@DBIOJECG@?$AAe?$AAx?$AAt?$AA?9?$AAm?$AAs?$AA?9?$AAw?$AAi?$AAn?$AA?9?$AAn?$AAt?$AAu?$AAs@ 10022ed8     libucrt:winapi_thunks.obj
 0002:00002f20       ??_C@_1EO@FIHMJCLF@?$AAe?$AAx?$AAt?$AA?9?$AAm?$AAs?$AA?9?$AAw?$AAi?$AAn?$AA?9?$AAn?$AAt?$AAu?$AAs@ 10022f20     libucrt:winapi_thunks.obj
 0002:00002f70       ??_C@_1BC@DNHGCMLG@?$AAa?$AAd?$AAv?$AAa?$AAp?$AAi?$AA3?$AA2@ 10022f70     libucrt:winapi_thunks.obj
 0002:00002f84       ??_C@_1M@OAIMIKLP@?$AAn?$AAt?$AAd?$AAl?$AAl@ 10022f84     libucrt:winapi_thunks.obj
 0002:00002f90       ??_C@_1EG@DPGNFKGC@?$AAa?$AAp?$AAi?$AA?9?$AAm?$AAs?$AA?9?$AAw?$AAi?$AAn?$AA?9?$AAa?$AAp?$AAp?$AAm@ 10022f90     libucrt:winapi_thunks.obj
 0002:00002fd8       ??_C@_1O@BCCLBEOE@?$AAu?$AAs?$AAe?$AAr?$AA3?$AA2@ 10022fd8     libucrt:winapi_thunks.obj
 0002:00002fe8       ??_C@_1BA@IAIFMGEF@?$AAe?$AAx?$AAt?$AA?9?$AAm?$AAs?$AA?9@ 10022fe8     libucrt:winapi_thunks.obj
 0002:00002ffc       ??_C@_0BA@FHFNEAED@AreFileApisANSI@ 10022ffc     libucrt:winapi_thunks.obj
 0002:0000303c       ??_C@_0O@KKBNKAPF@LCMapStringEx@ 1002303c     libucrt:winapi_thunks.obj
 0002:00003054       ??_C@_0BB@HBDEELFH@LocaleNameToLCID@ 10023054     libucrt:winapi_thunks.obj
 0002:0000306c       ??_C@_0CF@OJOFEIGO@AppPolicyGetProcessTerminationM@ 1002306c     libucrt:winapi_thunks.obj
 0002:0000309c       ??_C@_0BI@BKLFFAPO@SetThreadStackGuarantee@ 1002309c     libucrt:winapi_thunks.obj
 0002:000030f8       ??_C@_03OEIAHPBN@INF@      100230f8     libucrt:cvt.obj
 0002:000030fc       ??_C@_03OJHLLCGB@inf@      100230fc     libucrt:cvt.obj
 0002:00003100       ??_C@_03LKNCIKJB@NAN@      10023100     libucrt:cvt.obj
 0002:00003104       ??_C@_03LHCJEHON@nan@      10023104     libucrt:cvt.obj
 0002:00003108       ??_C@_09OFJJIMPC@NAN?$CISNAN?$CJ@ 10023108     libucrt:cvt.obj
 0002:00003114       ??_C@_09IPFBKMDL@nan?$CIsnan?$CJ@ 10023114     libucrt:cvt.obj
 0002:00003120       ??_C@_08IKHNHAJ@NAN?$CIIND?$CJ@ 10023120     libucrt:cvt.obj
 0002:0000312c       ??_C@_08OFCDMILK@nan?$CIind?$CJ@ 1002312c     libucrt:cvt.obj
 0002:00003138       ??_C@_05KLBDPFGC@e?$CL000@ 10023138     libucrt:cvt.obj
 0002:00003140       ___lc_time_c               10023140     libucrt:nlsdata.obj
 0002:000032a4       ??_C@_03KOEHGMDN@Sun@      100232a4     libucrt:nlsdata.obj
 0002:000032a8       ??_C@_03PDAGKDH@Mon@       100232a8     libucrt:nlsdata.obj
 0002:000032ac       ??_C@_03NAGEINEP@Tue@      100232ac     libucrt:nlsdata.obj
 0002:000032b0       ??_C@_03MHOMLAJA@Wed@      100232b0     libucrt:nlsdata.obj
 0002:000032b4       ??_C@_03IOFIKPDN@Thu@      100232b4     libucrt:nlsdata.obj
 0002:000032b8       ??_C@_03IDIOELNC@Fri@      100232b8     libucrt:nlsdata.obj
 0002:000032bc       ??_C@_03FEFJNEK@Sat@       100232bc     libucrt:nlsdata.obj
 0002:000032c0       ??_C@_06OOPIFAJ@Sunday@    100232c0     libucrt:nlsdata.obj
 0002:000032c8       ??_C@_06JLEDEDGH@Monday@   100232c8     libucrt:nlsdata.obj
 0002:000032d0       ??_C@_07BAAGCFCM@Tuesday@  100232d0     libucrt:nlsdata.obj
 0002:000032d8       ??_C@_09DLIGFAKA@Wednesday@ 100232d8     libucrt:nlsdata.obj
 0002:000032e4       ??_C@_08HACCIKIA@Thursday@ 100232e4     libucrt:nlsdata.obj
 0002:000032f0       ??_C@_06JECMNKMI@Friday@   100232f0     libucrt:nlsdata.obj
 0002:000032f8       ??_C@_08INBOOONO@Saturday@ 100232f8     libucrt:nlsdata.obj
 0002:00003304       ??_C@_03JIHJHPIE@Jan@      10023304     libucrt:nlsdata.obj
 0002:00003308       ??_C@_03HJBDCHOM@Feb@      10023308     libucrt:nlsdata.obj
 0002:0000330c       ??_C@_03ODNJBKGA@Mar@      1002330c     libucrt:nlsdata.obj
 0002:00003310       ??_C@_03LEOLGMJP@Apr@      10023310     libucrt:nlsdata.obj
 0002:00003314       ??_C@_03CNMDKL@May@        10023314     libucrt:nlsdata.obj
 0002:00003318       ??_C@_03IDFGHECI@Jun@      10023318     libucrt:nlsdata.obj
 0002:0000331c       ??_C@_03LBGABGKK@Jul@      1002331c     libucrt:nlsdata.obj
 0002:00003320       ??_C@_03IFJFEIGA@Aug@      10023320     libucrt:nlsdata.obj
 0002:00003324       ??_C@_03GGCAPAJC@Sep@      10023324     libucrt:nlsdata.obj
 0002:00003328       ??_C@_03BMAOKBAD@Oct@      10023328     libucrt:nlsdata.obj
 0002:0000332c       ??_C@_03JPJOFNIA@Nov@      1002332c     libucrt:nlsdata.obj
 0002:00003330       ??_C@_03MKABNOCG@Dec@      10023330     libucrt:nlsdata.obj
 0002:00003334       ??_C@_07CGJPFGJA@January@  10023334     libucrt:nlsdata.obj
 0002:0000333c       ??_C@_08GNJGEPFN@February@ 1002333c     libucrt:nlsdata.obj
 0002:00003348       ??_C@_05HPCKOFNC@March@    10023348     libucrt:nlsdata.obj
 0002:00003350       ??_C@_05DMJDNLEJ@April@    10023350     libucrt:nlsdata.obj
 0002:00003358       ??_C@_04CNLMGBGM@June@     10023358     libucrt:nlsdata.obj
 0002:00003360       ??_C@_04MIEPOIFP@July@     10023360     libucrt:nlsdata.obj
 0002:00003368       ??_C@_06LBBHFDDG@August@   10023368     libucrt:nlsdata.obj
 0002:00003370       ??_C@_09BHHEALKD@September@ 10023370     libucrt:nlsdata.obj
 0002:0000337c       ??_C@_07JJNFCEND@October@  1002337c     libucrt:nlsdata.obj
 0002:00003384       ??_C@_08HCHEGEOA@November@ 10023384     libucrt:nlsdata.obj
 0002:00003390       ??_C@_08EDHMEBNP@December@ 10023390     libucrt:nlsdata.obj
 0002:0000339c       ??_C@_02DEDBPAFC@AM@       1002339c     libucrt:nlsdata.obj
 0002:000033a0       ??_C@_02CJNFDJBF@PM@       100233a0     libucrt:nlsdata.obj
 0002:000033a4       ??_C@_08BPBNCDIB@MM?1dd?1yy@ 100233a4     libucrt:nlsdata.obj
 0002:000033b0       ??_C@_0BE@CKGJFCPC@dddd?0?5MMMM?5dd?0?5yyyy@ 100233b0     libucrt:nlsdata.obj
 0002:000033c4       ??_C@_08JCCMCCIL@HH?3mm?3ss@ 100233c4     libucrt:nlsdata.obj
 0002:000033d0       ??_C@_17MBGCMIPB@?$AAS?$AAu?$AAn@ 100233d0     libucrt:nlsdata.obj
 0002:000033d8       ??_C@_17KBOMKBF@?$AAM?$AAo?$AAn@ 100233d8     libucrt:nlsdata.obj
 0002:000033e0       ??_C@_17BMKGEGOJ@?$AAT?$AAu?$AAe@ 100233e0     libucrt:nlsdata.obj
 0002:000033e8       ??_C@_17CJEDCEPE@?$AAW?$AAe?$AAd@ 100233e8     libucrt:nlsdata.obj
 0002:000033f0       ??_C@_17PDPHAADD@?$AAT?$AAh?$AAu@ 100233f0     libucrt:nlsdata.obj
 0002:000033f8       ??_C@_17HFOLPPLP@?$AAF?$AAr?$AAi@ 100233f8     libucrt:nlsdata.obj
 0002:00003400       ??_C@_17GGIBDPIH@?$AAS?$AAa?$AAt@ 10023400     libucrt:nlsdata.obj
 0002:00003408       ??_C@_1O@IHNHDHPB@?$AAS?$AAu?$AAn?$AAd?$AAa?$AAy@ 10023408     libucrt:nlsdata.obj
 0002:00003418       ??_C@_1O@MMNBFLIA@?$AAM?$AAo?$AAn?$AAd?$AAa?$AAy@ 10023418     libucrt:nlsdata.obj
 0002:00003428       ??_C@_1BA@ENFBFFEK@?$AAT?$AAu?$AAe?$AAs?$AAd?$AAa?$AAy@ 10023428     libucrt:nlsdata.obj
 0002:00003438       ??_C@_1BE@EBOGMDOH@?$AAW?$AAe?$AAd?$AAn?$AAe?$AAs?$AAd?$AAa?$AAy@ 10023438     libucrt:nlsdata.obj
 0002:0000344c       ??_C@_1BC@HHMNLIHE@?$AAT?$AAh?$AAu?$AAr?$AAs?$AAd?$AAa?$AAy@ 1002344c     libucrt:nlsdata.obj
 0002:00003460       ??_C@_1O@PDICJHAG@?$AAF?$AAr?$AAi?$AAd?$AAa?$AAy@ 10023460     libucrt:nlsdata.obj
 0002:00003470       ??_C@_1BC@ENMNNPAJ@?$AAS?$AAa?$AAt?$AAu?$AAr?$AAd?$AAa?$AAy@ 10023470     libucrt:nlsdata.obj
 0002:00003484       ??_C@_17DKNBKCHM@?$AAJ?$AAa?$AAn@ 10023484     libucrt:nlsdata.obj
 0002:0000348c       ??_C@_17LMDJEKJN@?$AAF?$AAe?$AAb@ 1002348c     libucrt:nlsdata.obj
 0002:00003494       ??_C@_17CKNLEDEC@?$AAM?$AAa?$AAr@ 10023494     libucrt:nlsdata.obj
 0002:0000349c       ??_C@_17LFPOIHDD@?$AAA?$AAp?$AAr@ 1002349c     libucrt:nlsdata.obj
 0002:000034a4       ??_C@_17PNNKMEED@?$AAM?$AAa?$AAy@ 100234a4     libucrt:nlsdata.obj
 0002:000034ac       ??_C@_17KCJGOCPB@?$AAJ?$AAu?$AAn@ 100234ac     libucrt:nlsdata.obj
 0002:000034b4       ??_C@_17IJPCKHK@?$AAJ?$AAu?$AAl@ 100234b4     libucrt:nlsdata.obj
 0002:000034bc       ??_C@_17ICPELBCN@?$AAA?$AAu?$AAg@ 100234bc     libucrt:nlsdata.obj
 0002:000034c4       ??_C@_17HCHCOKMG@?$AAS?$AAe?$AAp@ 100234c4     libucrt:nlsdata.obj
 0002:000034cc       ??_C@_17FNLKOI@?$AAO?$AAc?$AAt@ 100234cc     libucrt:nlsdata.obj
 0002:000034d4       ??_C@_17BBDMLCIG@?$AAN?$AAo?$AAv@ 100234d4     libucrt:nlsdata.obj
 0002:000034dc       ??_C@_17EGKACKIF@?$AAD?$AAe?$AAc@ 100234dc     libucrt:nlsdata.obj
 0002:000034e4       ??_C@_1BA@EFMEIEBA@?$AAJ?$AAa?$AAn?$AAu?$AAa?$AAr?$AAy@ 100234e4     libucrt:nlsdata.obj
 0002:000034f4       ??_C@_1BC@JGDDFFAM@?$AAF?$AAe?$AAb?$AAr?$AAu?$AAa?$AAr?$AAy@ 100234f4     libucrt:nlsdata.obj
 0002:00003508       ??_C@_1M@IKEENEDF@?$AAM?$AAa?$AAr?$AAc?$AAh@ 10023508     libucrt:nlsdata.obj
 0002:00003514       ??_C@_1M@GJNLMHFD@?$AAA?$AAp?$AAr?$AAi?$AAl@ 10023514     libucrt:nlsdata.obj
 0002:00003520       ??_C@_19EPFLPGAP@?$AAJ?$AAu?$AAn?$AAe@ 10023520     libucrt:nlsdata.obj
 0002:0000352c       ??_C@_19BIFMLPCD@?$AAJ?$AAu?$AAl?$AAy@ 1002352c     libucrt:nlsdata.obj
 0002:00003538       ??_C@_1O@PAHLKOAC@?$AAA?$AAu?$AAg?$AAu?$AAs?$AAt@ 10023538     libucrt:nlsdata.obj
 0002:00003548       ??_C@_1BE@DKAAMBJL@?$AAS?$AAe?$AAp?$AAt?$AAe?$AAm?$AAb?$AAe?$AAr@ 10023548     libucrt:nlsdata.obj
 0002:0000355c       ??_C@_1BA@EPANDLNG@?$AAO?$AAc?$AAt?$AAo?$AAb?$AAe?$AAr@ 1002355c     libucrt:nlsdata.obj
 0002:0000356c       ??_C@_1BC@BGLIFPF@?$AAN?$AAo?$AAv?$AAe?$AAm?$AAb?$AAe?$AAr@ 1002356c     libucrt:nlsdata.obj
 0002:00003580       ??_C@_1BC@FEMKIFH@?$AAD?$AAe?$AAc?$AAe?$AAm?$AAb?$AAe?$AAr@ 10023580     libucrt:nlsdata.obj
 0002:00003594       ??_C@_15ODEHAHHF@?$AAA?$AAM@ 10023594     libucrt:nlsdata.obj
 0002:0000359c       ??_C@_15CLMNNGEL@?$AAP?$AAM@ 1002359c     libucrt:nlsdata.obj
 0002:000035a4       ??_C@_1BC@IEBCMHCM@?$AAM?$AAM?$AA?1?$AAd?$AAd?$AA?1?$AAy?$AAy@ 100235a4     libucrt:nlsdata.obj
 0002:000035b8       ??_C@_1CI@KNAKOEBC@?$AAd?$AAd?$AAd?$AAd?$AA?0?$AA?5?$AAM?$AAM?$AAM?$AAM?$AA?5?$AAd?$AAd?$AA?0?$AA?5@ 100235b8     libucrt:nlsdata.obj
 0002:000035e0       ??_C@_1BC@GDGBMEMK@?$AAH?$AAH?$AA?3?$AAm?$AAm?$AA?3?$AAs?$AAs@ 100235e0     libucrt:nlsdata.obj
 0002:000035f4       ??_C@_1M@BMHNFIME@?$AAe?$AAn?$AA?9?$AAU?$AAS@ 100235f4     libucrt:nlsdata.obj
 0002:00003610       ??_C@_1M@HPNHIDJI@?$AAj?$AAa?$AA?9?$AAJ?$AAP@ 10023610     libucrt:mbctype.obj
 0002:0000361c       ??_C@_1M@BIBDDEMK@?$AAz?$AAh?$AA?9?$AAC?$AAN@ 1002361c     libucrt:mbctype.obj
 0002:00003628       ??_C@_1M@JLOOOEGK@?$AAk?$AAo?$AA?9?$AAK?$AAR@ 10023628     libucrt:mbctype.obj
 0002:00003634       ??_C@_1M@CLNBBOPM@?$AAz?$AAh?$AA?9?$AAT?$AAW@ 10023634     libucrt:mbctype.obj
 0002:00003640       ___newctype                10023640     libucrt:ctype.obj
 0002:00003940       ___newclmap                10023940     libucrt:ctype.obj
 0002:00003ac0       ___newcumap                10023ac0     libucrt:ctype.obj
 0002:00003c40       __wctype                   10023c40     libucrt:ctype.obj
 0002:00004568       ??_C@_15EMKDOKLE@?$AAa?$AAr@ 10024568     libucrt:lcidtoname_downlevel.obj
 0002:00004570       ??_C@_15KNPADPLH@?$AAb?$AAg@ 10024570     libucrt:lcidtoname_downlevel.obj
 0002:00004578       ??_C@_15EDMHLDMO@?$AAc?$AAa@ 10024578     libucrt:lcidtoname_downlevel.obj
 0002:00004580       ??_C@_1O@BPEAJADD@?$AAz?$AAh?$AA?9?$AAC?$AAH?$AAS@ 10024580     libucrt:lcidtoname_downlevel.obj
 0002:00004590       ??_C@_15LJNHCMNK@?$AAc?$AAs@ 10024590     libucrt:lcidtoname_downlevel.obj
 0002:00004598       ??_C@_15FOMCIDHG@?$AAd?$AAa@ 10024598     libucrt:lcidtoname_downlevel.obj
 0002:000045a0       ??_C@_15NBKABECB@?$AAd?$AAe@ 100245a0     libucrt:lcidtoname_downlevel.obj
 0002:000045a8       ??_C@_15GHPEIIAO@?$AAe?$AAl@ 100245a8     libucrt:lcidtoname_downlevel.obj
 0002:000045b0       ??_C@_15MNPNEAIF@?$AAe?$AAn@ 100245b0     libucrt:lcidtoname_downlevel.obj
 0002:000045b8       ??_C@_15GPIOMPMH@?$AAe?$AAs@ 100245b8     libucrt:lcidtoname_downlevel.obj
 0002:000045c0       ??_C@_15NGLOAKJC@?$AAf?$AAi@ 100245c0     libucrt:lcidtoname_downlevel.obj
 0002:000045c8       ??_C@_15FBKGNKAM@?$AAf?$AAr@ 100245c8     libucrt:lcidtoname_downlevel.obj
 0002:000045d0       ??_C@_15KGGCNEFK@?$AAh?$AAe@ 100245d0     libucrt:lcidtoname_downlevel.obj
 0002:000045d8       ??_C@_15PGHLIDMF@?$AAh?$AAu@ 100245d8     libucrt:lcidtoname_downlevel.obj
 0002:000045e0       ??_C@_15BIEMAPLM@?$AAi?$AAs@ 100245e0     libucrt:lcidtoname_downlevel.obj
 0002:000045e8       ??_C@_15IFJLDHAF@?$AAi?$AAt@ 100245e8     libucrt:lcidtoname_downlevel.obj
 0002:000045f0       ??_C@_15GEMIOCAG@?$AAj?$AAa@ 100245f0     libucrt:lcidtoname_downlevel.obj
 0002:000045f8       ??_C@_15EPELEGJA@?$AAk?$AAo@ 100245f8     libucrt:lcidtoname_downlevel.obj
 0002:00004600       ??_C@_15NDDHIMN@?$AAn?$AAl@ 10024600     libucrt:lcidtoname_downlevel.obj
 0002:00004608       ??_C@_15BPIGNHCD@?$AAn?$AAo@ 10024608     libucrt:lcidtoname_downlevel.obj
 0002:00004610       ??_C@_15DEOPBLCG@?$AAp?$AAl@ 10024610     libucrt:lcidtoname_downlevel.obj
 0002:00004618       ??_C@_15KBECGEFG@?$AAp?$AAt@ 10024618     libucrt:lcidtoname_downlevel.obj
 0002:00004620       ??_C@_15GLJCBFMD@?$AAr?$AAo@ 10024620     libucrt:lcidtoname_downlevel.obj
 0002:00004628       ??_C@_15FEDGKCDI@?$AAr?$AAu@ 10024628     libucrt:lcidtoname_downlevel.obj
 0002:00004630       ??_C@_15GLKMLLHM@?$AAh?$AAr@ 10024630     libucrt:lcidtoname_downlevel.obj
 0002:00004638       ??_C@_15CPKMFBDB@?$AAs?$AAk@ 10024638     libucrt:lcidtoname_downlevel.obj
 0002:00004640       ??_C@_15BAAIOGMK@?$AAs?$AAq@ 10024640     libucrt:lcidtoname_downlevel.obj
 0002:00004648       ??_C@_15INNPNOHD@?$AAs?$AAv@ 10024648     libucrt:lcidtoname_downlevel.obj
 0002:00004650       ??_C@_15CABMMOGH@?$AAt?$AAh@ 10024650     libucrt:lcidtoname_downlevel.obj
 0002:00004658       ??_C@_15BPLIHJJM@?$AAt?$AAr@ 10024658     libucrt:lcidtoname_downlevel.obj
 0002:00004660       ??_C@_15NEOEKKDJ@?$AAu?$AAr@ 10024660     libucrt:lcidtoname_downlevel.obj
 0002:00004668       ??_C@_15NFICGAJK@?$AAi?$AAd@ 10024668     libucrt:lcidtoname_downlevel.obj
 0002:00004670       ??_C@_15PJPFLCCM@?$AAu?$AAk@ 10024670     libucrt:lcidtoname_downlevel.obj
 0002:00004678       ??_C@_15HPJPHDM@?$AAb?$AAe@ 10024678     libucrt:lcidtoname_downlevel.obj
 0002:00004680       ??_C@_15LCHLGJII@?$AAs?$AAl@ 10024680     libucrt:lcidtoname_downlevel.obj
 0002:00004688       ??_C@_15PCFJPHHO@?$AAe?$AAt@ 10024688     libucrt:lcidtoname_downlevel.obj
 0002:00004690       ??_C@_15HPFPGODN@?$AAl?$AAv@ 10024690     libucrt:lcidtoname_downlevel.obj
 0002:00004698       ??_C@_15NFFGKGLG@?$AAl?$AAt@ 10024698     libucrt:lcidtoname_downlevel.obj
 0002:000046a0       ??_C@_15BDAKCCHN@?$AAf?$AAa@ 100246a0     libucrt:lcidtoname_downlevel.obj
 0002:000046a8       ??_C@_15NFGIAIAJ@?$AAv?$AAi@ 100246a8     libucrt:lcidtoname_downlevel.obj
 0002:000046b0       ??_C@_15LMKNDMHN@?$AAh?$AAy@ 100246b0     libucrt:lcidtoname_downlevel.obj
 0002:000046b8       ??_C@_15IJBHMCFL@?$AAa?$AAz@ 100246b8     libucrt:lcidtoname_downlevel.obj
 0002:000046c0       ??_C@_15EKOFJABL@?$AAe?$AAu@ 100246c0     libucrt:lcidtoname_downlevel.obj
 0002:000046c8       ??_C@_15BGHADCNK@?$AAm?$AAk@ 100246c8     libucrt:lcidtoname_downlevel.obj
 0002:000046d0       ??_C@_15JDNICKHM@?$AAa?$AAf@ 100246d0     libucrt:lcidtoname_downlevel.obj
 0002:000046d8       ??_C@_15KPJEDBKD@?$AAk?$AAa@ 100246d8     libucrt:lcidtoname_downlevel.obj
 0002:000046e0       ??_C@_15PDNFFFEO@?$AAf?$AAo@ 100246e0     libucrt:lcidtoname_downlevel.obj
 0002:000046e8       ??_C@_15OMLEGLOC@?$AAh?$AAi@ 100246e8     libucrt:lcidtoname_downlevel.obj
 0002:000046f0       ??_C@_15IDNNENKK@?$AAm?$AAs@ 100246f0     libucrt:lcidtoname_downlevel.obj
 0002:000046f8       ??_C@_15MACJNBMH@?$AAk?$AAk@ 100246f8     libucrt:lcidtoname_downlevel.obj
 0002:00004700       ??_C@_15DKDJEOND@?$AAk?$AAy@ 10024700     libucrt:lcidtoname_downlevel.obj
 0002:00004708       ??_C@_15DFGDLJBG@?$AAs?$AAw@ 10024708     libucrt:lcidtoname_downlevel.obj
 0002:00004710       ??_C@_15BBFAICNG@?$AAu?$AAz@ 10024710     libucrt:lcidtoname_downlevel.obj
 0002:00004718       ??_C@_15DKNDCGEA@?$AAt?$AAt@ 10024718     libucrt:lcidtoname_downlevel.obj
 0002:00004720       ??_C@_15MGIFMDPL@?$AAp?$AAa@ 10024720     libucrt:lcidtoname_downlevel.obj
 0002:00004728       ??_C@_15HCNDBBA@?$AAg?$AAu@ 10024728     libucrt:lcidtoname_downlevel.obj
 0002:00004730       ??_C@_15FNBEIBON@?$AAt?$AAa@ 10024730     libucrt:lcidtoname_downlevel.obj
 0002:00004738       ??_C@_15NCHGBGLK@?$AAt?$AAe@ 10024738     libucrt:lcidtoname_downlevel.obj
 0002:00004740       ??_C@_15PHPHCBPF@?$AAk?$AAn@ 10024740     libucrt:lcidtoname_downlevel.obj
 0002:00004748       ??_C@_15DLGBCKMP@?$AAm?$AAr@ 10024748     libucrt:lcidtoname_downlevel.obj
 0002:00004750       ??_C@_15EABBLBFF@?$AAs?$AAa@ 10024750     libucrt:lcidtoname_downlevel.obj
 0002:00004758       ??_C@_15CBKOMCOI@?$AAm?$AAn@ 10024758     libucrt:lcidtoname_downlevel.obj
 0002:00004760       ??_C@_15CKDMCJAF@?$AAg?$AAl@ 10024760     libucrt:lcidtoname_downlevel.obj
 0002:00004768       ??_C@_17CNJFBPG@?$AAk?$AAo?$AAk@ 10024768     libucrt:lcidtoname_downlevel.obj
 0002:00004770       ??_C@_17FFBJICPL@?$AAs?$AAy?$AAr@ 10024770     libucrt:lcidtoname_downlevel.obj
 0002:00004778       ??_C@_17KPNDCPAF@?$AAd?$AAi?$AAv@ 10024778     libucrt:lcidtoname_downlevel.obj
 0002:00004780       ??_C@_1M@OKAHONE@?$AAa?$AAr?$AA?9?$AAS?$AAA@ 10024780     libucrt:lcidtoname_downlevel.obj
 0002:0000478c       ??_C@_1M@FFFIGIGK@?$AAb?$AAg?$AA?9?$AAB?$AAG@ 1002478c     libucrt:lcidtoname_downlevel.obj
 0002:00004798       ??_C@_1M@BJNKEDC@?$AAc?$AAa?$AA?9?$AAE?$AAS@ 10024798     libucrt:lcidtoname_downlevel.obj
 0002:000047a4       ??_C@_1M@IJJHFJHA@?$AAc?$AAs?$AA?9?$AAC?$AAZ@ 100247a4     libucrt:lcidtoname_downlevel.obj
 0002:000047b0       ??_C@_1M@CLPEOBGI@?$AAd?$AAa?$AA?9?$AAD?$AAK@ 100247b0     libucrt:lcidtoname_downlevel.obj
 0002:000047bc       ??_C@_1M@MCMADGCB@?$AAd?$AAe?$AA?9?$AAD?$AAE@ 100247bc     libucrt:lcidtoname_downlevel.obj
 0002:000047c8       ??_C@_1M@OOCKEMAM@?$AAe?$AAl?$AA?9?$AAG?$AAR@ 100247c8     libucrt:lcidtoname_downlevel.obj
 0002:000047d4       ??_C@_1M@DDNJFGID@?$AAf?$AAi?$AA?9?$AAF?$AAI@ 100247d4     libucrt:lcidtoname_downlevel.obj
 0002:000047e0       ??_C@_1M@GLIPPMAC@?$AAf?$AAr?$AA?9?$AAF?$AAR@ 100247e0     libucrt:lcidtoname_downlevel.obj
 0002:000047ec       ??_C@_1M@GFMCHPE@?$AAh?$AAe?$AA?9?$AAI?$AAL@ 100247ec     libucrt:lcidtoname_downlevel.obj
 0002:000047f8       ??_C@_1M@MHLPGNKM@?$AAh?$AAu?$AA?9?$AAH?$AAU@ 100247f8     libucrt:lcidtoname_downlevel.obj
 0002:00004804       ??_C@_1M@LPDDNNPN@?$AAi?$AAs?$AA?9?$AAI?$AAS@ 10024804     libucrt:lcidtoname_downlevel.obj
 0002:00004810       ??_C@_1M@MADIPODN@?$AAi?$AAt?$AA?9?$AAI?$AAT@ 10024810     libucrt:lcidtoname_downlevel.obj
 0002:0000481c       ??_C@_1M@IHBJJGG@?$AAn?$AAl?$AA?9?$AAN?$AAL@ 1002481c     libucrt:lcidtoname_downlevel.obj
 0002:00004828       ??_C@_1M@EANAGDL@?$AAn?$AAb?$AA?9?$AAN?$AAO@ 10024828     libucrt:lcidtoname_downlevel.obj
 0002:00004834       ??_C@_1M@NEIEMEGP@?$AAp?$AAl?$AA?9?$AAP?$AAL@ 10024834     libucrt:lcidtoname_downlevel.obj
 0002:00004840       ??_C@_1M@BOCFIGEP@?$AAp?$AAt?$AA?9?$AAB?$AAR@ 10024840     libucrt:lcidtoname_downlevel.obj
 0002:0000484c       ??_C@_1M@IMPFOPBG@?$AAr?$AAo?$AA?9?$AAR?$AAO@ 1002484c     libucrt:lcidtoname_downlevel.obj
 0002:00004858       ??_C@_1M@IDNNEJMM@?$AAr?$AAu?$AA?9?$AAR?$AAU@ 10024858     libucrt:lcidtoname_downlevel.obj
 0002:00004864       ??_C@_1M@LILEEOGM@?$AAh?$AAr?$AA?9?$AAH?$AAR@ 10024864     libucrt:lcidtoname_downlevel.obj
 0002:00004870       ??_C@_1M@FKIFEHPB@?$AAs?$AAk?$AA?9?$AAS?$AAK@ 10024870     libucrt:lcidtoname_downlevel.obj
 0002:0000487c       ??_C@_1M@LJMAMNPJ@?$AAs?$AAq?$AA?9?$AAA?$AAL@ 1002487c     libucrt:lcidtoname_downlevel.obj
 0002:00004888       ??_C@_1M@GIAKDKJK@?$AAs?$AAv?$AA?9?$AAS?$AAE@ 10024888     libucrt:lcidtoname_downlevel.obj
 0002:00004894       ??_C@_1M@MKJKIKCL@?$AAt?$AAh?$AA?9?$AAT?$AAH@ 10024894     libucrt:lcidtoname_downlevel.obj
 0002:000048a0       ??_C@_1M@MFLCCMPB@?$AAt?$AAr?$AA?9?$AAT?$AAR@ 100248a0     libucrt:lcidtoname_downlevel.obj
 0002:000048ac       ??_C@_1M@OIJHDKJN@?$AAu?$AAr?$AA?9?$AAP?$AAK@ 100248ac     libucrt:lcidtoname_downlevel.obj
 0002:000048b8       ??_C@_1M@LHIPCIEK@?$AAi?$AAd?$AA?9?$AAI?$AAD@ 100248b8     libucrt:lcidtoname_downlevel.obj
 0002:000048c4       ??_C@_1M@MFMOBGI@?$AAu?$AAk?$AA?9?$AAU?$AAA@ 100248c4     libucrt:lcidtoname_downlevel.obj
 0002:000048d0       ??_C@_1M@OBGLJIPL@?$AAb?$AAe?$AA?9?$AAB?$AAY@ 100248d0     libucrt:lcidtoname_downlevel.obj
 0002:000048dc       ??_C@_1M@BCFAJEAD@?$AAs?$AAl?$AA?9?$AAS?$AAI@ 100248dc     libucrt:lcidtoname_downlevel.obj
 0002:000048e8       ??_C@_1M@FKFFEDDN@?$AAe?$AAt?$AA?9?$AAE?$AAE@ 100248e8     libucrt:lcidtoname_downlevel.obj
 0002:000048f4       ??_C@_1M@KGKKAACI@?$AAl?$AAv?$AA?9?$AAL?$AAV@ 100248f4     libucrt:lcidtoname_downlevel.obj
 0002:00004900       ??_C@_1M@IFGBIJO@?$AAl?$AAt?$AA?9?$AAL?$AAT@ 10024900     libucrt:lcidtoname_downlevel.obj
 0002:0000490c       ??_C@_1M@FGEAHEDM@?$AAf?$AAa?$AA?9?$AAI?$AAR@ 1002490c     libucrt:lcidtoname_downlevel.obj
 0002:00004918       ??_C@_1M@KBMAIBFN@?$AAv?$AAi?$AA?9?$AAV?$AAN@ 10024918     libucrt:lcidtoname_downlevel.obj
 0002:00004924       ??_C@_1M@GPCBKDJK@?$AAh?$AAy?$AA?9?$AAA?$AAM@ 10024924     libucrt:lcidtoname_downlevel.obj
 0002:00004930       ??_C@_1BG@BECMDDJB@?$AAa?$AAz?$AA?9?$AAA?$AAZ?$AA?9?$AAL?$AAa?$AAt?$AAn@ 10024930     libucrt:lcidtoname_downlevel.obj
 0002:00004948       ??_C@_1M@MAOFCAEA@?$AAe?$AAu?$AA?9?$AAE?$AAS@ 10024948     libucrt:lcidtoname_downlevel.obj
 0002:00004954       ??_C@_1M@IGHABKPI@?$AAm?$AAk?$AA?9?$AAM?$AAK@ 10024954     libucrt:lcidtoname_downlevel.obj
 0002:00004960       ??_C@_1M@IAIGNEJG@?$AAt?$AAn?$AA?9?$AAZ?$AAA@ 10024960     libucrt:lcidtoname_downlevel.obj
 0002:0000496c       ??_C@_1M@IIJCOJFA@?$AAx?$AAh?$AA?9?$AAZ?$AAA@ 1002496c     libucrt:lcidtoname_downlevel.obj
 0002:00004978       ??_C@_1M@LGPJHNJH@?$AAz?$AAu?$AA?9?$AAZ?$AAA@ 10024978     libucrt:lcidtoname_downlevel.obj
 0002:00004984       ??_C@_1M@HOKAOIO@?$AAa?$AAf?$AA?9?$AAZ?$AAA@ 10024984     libucrt:lcidtoname_downlevel.obj
 0002:00004990       ??_C@_1M@DPCLHLIE@?$AAk?$AAa?$AA?9?$AAG?$AAE@ 10024990     libucrt:lcidtoname_downlevel.obj
 0002:0000499c       ??_C@_1M@BLKMHJBI@?$AAf?$AAo?$AA?9?$AAF?$AAO@ 1002499c     libucrt:lcidtoname_downlevel.obj
 0002:000049a8       ??_C@_1M@LGGJAPPB@?$AAh?$AAi?$AA?9?$AAI?$AAN@ 100249a8     libucrt:lcidtoname_downlevel.obj
 0002:000049b4       ??_C@_1M@FIKPIHFE@?$AAm?$AAt?$AA?9?$AAM?$AAT@ 100249b4     libucrt:lcidtoname_downlevel.obj
 0002:000049c0       ??_C@_1M@HEGGPBFA@?$AAs?$AAe?$AA?9?$AAN?$AAO@ 100249c0     libucrt:lcidtoname_downlevel.obj
 0002:000049cc       ??_C@_1M@EIBJEEPA@?$AAm?$AAs?$AA?9?$AAM?$AAY@ 100249cc     libucrt:lcidtoname_downlevel.obj
 0002:000049d8       ??_C@_1M@FHLBGMPP@?$AAk?$AAk?$AA?9?$AAK?$AAZ@ 100249d8     libucrt:lcidtoname_downlevel.obj
 0002:000049e4       ??_C@_1M@NGJJLCGI@?$AAk?$AAy?$AA?9?$AAK?$AAG@ 100249e4     libucrt:lcidtoname_downlevel.obj
 0002:000049f0       ??_C@_1M@GIENNBFC@?$AAs?$AAw?$AA?9?$AAK?$AAE@ 100249f0     libucrt:lcidtoname_downlevel.obj
 0002:000049fc       ??_C@_1BG@NDGMJIMJ@?$AAu?$AAz?$AA?9?$AAU?$AAZ?$AA?9?$AAL?$AAa?$AAt?$AAn@ 100249fc     libucrt:lcidtoname_downlevel.obj
 0002:00004a14       ??_C@_1M@IDCCIHBC@?$AAt?$AAt?$AA?9?$AAR?$AAU@ 10024a14     libucrt:lcidtoname_downlevel.obj
 0002:00004a20       ??_C@_1M@LOICPMOJ@?$AAb?$AAn?$AA?9?$AAI?$AAN@ 10024a20     libucrt:lcidtoname_downlevel.obj
 0002:00004a2c       ??_C@_1M@KPKKNEAH@?$AAp?$AAa?$AA?9?$AAI?$AAN@ 10024a2c     libucrt:lcidtoname_downlevel.obj
 0002:00004a38       ??_C@_1M@PJGPPBOG@?$AAg?$AAu?$AA?9?$AAI?$AAN@ 10024a38     libucrt:lcidtoname_downlevel.obj
 0002:00004a44       ??_C@_1M@KMKMOPHI@?$AAt?$AAa?$AA?9?$AAI?$AAN@ 10024a44     libucrt:lcidtoname_downlevel.obj
 0002:00004a50       ??_C@_1M@KFEHEPAC@?$AAt?$AAe?$AA?9?$AAI?$AAN@ 10024a50     libucrt:lcidtoname_downlevel.obj
 0002:00004a5c       ??_C@_1M@CDCLMGHI@?$AAk?$AAn?$AA?9?$AAI?$AAN@ 10024a5c     libucrt:lcidtoname_downlevel.obj
 0002:00004a68       ??_C@_1M@MIODLDKF@?$AAm?$AAl?$AA?9?$AAI?$AAN@ 10024a68     libucrt:lcidtoname_downlevel.obj
 0002:00004a74       ??_C@_1M@PBIEACPO@?$AAm?$AAr?$AA?9?$AAI?$AAN@ 10024a74     libucrt:lcidtoname_downlevel.obj
 0002:00004a80       ??_C@_1M@NIDEAGPH@?$AAs?$AAa?$AA?9?$AAI?$AAN@ 10024a80     libucrt:lcidtoname_downlevel.obj
 0002:00004a8c       ??_C@_1M@FHIHCBIO@?$AAm?$AAn?$AA?9?$AAM?$AAN@ 10024a8c     libucrt:lcidtoname_downlevel.obj
 0002:00004a98       ??_C@_1M@JAIJPENP@?$AAc?$AAy?$AA?9?$AAG?$AAB@ 10024a98     libucrt:lcidtoname_downlevel.obj
 0002:00004aa4       ??_C@_1M@PHGFBEPN@?$AAg?$AAl?$AA?9?$AAE?$AAS@ 10024aa4     libucrt:lcidtoname_downlevel.obj
 0002:00004ab0       ??_C@_1O@KPIPDNCP@?$AAk?$AAo?$AAk?$AA?9?$AAI?$AAN@ 10024ab0     libucrt:lcidtoname_downlevel.obj
 0002:00004ac0       ??_C@_1O@KNHJLDJA@?$AAs?$AAy?$AAr?$AA?9?$AAS?$AAY@ 10024ac0     libucrt:lcidtoname_downlevel.obj
 0002:00004ad0       ??_C@_1O@MKEKBLAH@?$AAd?$AAi?$AAv?$AA?9?$AAM?$AAV@ 10024ad0     libucrt:lcidtoname_downlevel.obj
 0002:00004ae0       ??_C@_1O@OHDCKDDF@?$AAq?$AAu?$AAz?$AA?9?$AAB?$AAO@ 10024ae0     libucrt:lcidtoname_downlevel.obj
 0002:00004af0       ??_C@_1M@LEPJNLFD@?$AAn?$AAs?$AA?9?$AAZ?$AAA@ 10024af0     libucrt:lcidtoname_downlevel.obj
 0002:00004afc       ??_C@_1M@OMLEIIJB@?$AAm?$AAi?$AA?9?$AAN?$AAZ@ 10024afc     libucrt:lcidtoname_downlevel.obj
 0002:00004b08       ??_C@_1M@PMPEAILG@?$AAa?$AAr?$AA?9?$AAI?$AAQ@ 10024b08     libucrt:lcidtoname_downlevel.obj
 0002:00004b14       ??_C@_1M@CNKPNOEE@?$AAd?$AAe?$AA?9?$AAC?$AAH@ 10024b14     libucrt:lcidtoname_downlevel.obj
 0002:00004b20       ??_C@_1M@LKMGMLKO@?$AAe?$AAn?$AA?9?$AAG?$AAB@ 10024b20     libucrt:lcidtoname_downlevel.obj
 0002:00004b2c       ??_C@_1M@PGKJFFGL@?$AAe?$AAs?$AA?9?$AAM?$AAX@ 10024b2c     libucrt:lcidtoname_downlevel.obj
 0002:00004b38       ??_C@_1M@DNNANBDC@?$AAf?$AAr?$AA?9?$AAB?$AAE@ 10024b38     libucrt:lcidtoname_downlevel.obj
 0002:00004b44       ??_C@_1M@HLGMDFHM@?$AAi?$AAt?$AA?9?$AAC?$AAH@ 10024b44     libucrt:lcidtoname_downlevel.obj
 0002:00004b50       ??_C@_1M@CLLBGJH@?$AAn?$AAl?$AA?9?$AAB?$AAE@ 10024b50     libucrt:lcidtoname_downlevel.obj
 0002:00004b5c       ??_C@_1M@BODBOGLF@?$AAn?$AAn?$AA?9?$AAN?$AAO@ 10024b5c     libucrt:lcidtoname_downlevel.obj
 0002:00004b68       ??_C@_1M@HFFAHKAD@?$AAp?$AAt?$AA?9?$AAP?$AAT@ 10024b68     libucrt:lcidtoname_downlevel.obj
 0002:00004b74       ??_C@_1BG@LNOAKHIE@?$AAs?$AAr?$AA?9?$AAS?$AAP?$AA?9?$AAL?$AAa?$AAt?$AAn@ 10024b74     libucrt:lcidtoname_downlevel.obj
 0002:00004b8c       ??_C@_1M@HBMHBGAK@?$AAs?$AAv?$AA?9?$AAF?$AAI@ 10024b8c     libucrt:lcidtoname_downlevel.obj
 0002:00004b98       ??_C@_1BG@DGCJGJBE@?$AAa?$AAz?$AA?9?$AAA?$AAZ?$AA?9?$AAC?$AAy?$AAr?$AAl@ 10024b98     libucrt:lcidtoname_downlevel.obj
 0002:00004bb0       ??_C@_1M@KEJDAAHB@?$AAs?$AAe?$AA?9?$AAS?$AAE@ 10024bb0     libucrt:lcidtoname_downlevel.obj
 0002:00004bbc       ??_C@_1M@HEIBJJAD@?$AAm?$AAs?$AA?9?$AAB?$AAN@ 10024bbc     libucrt:lcidtoname_downlevel.obj
 0002:00004bc8       ??_C@_1BG@PBGJMCEM@?$AAu?$AAz?$AA?9?$AAU?$AAZ?$AA?9?$AAC?$AAy?$AAr?$AAl@ 10024bc8     libucrt:lcidtoname_downlevel.obj
 0002:00004be0       ??_C@_1O@LAOBCMDF@?$AAq?$AAu?$AAz?$AA?9?$AAE?$AAC@ 10024be0     libucrt:lcidtoname_downlevel.obj
 0002:00004bf0       ??_C@_1M@POEEMAIO@?$AAa?$AAr?$AA?9?$AAE?$AAG@ 10024bf0     libucrt:lcidtoname_downlevel.obj
 0002:00004bfc       ??_C@_1M@EFAKDEDL@?$AAz?$AAh?$AA?9?$AAH?$AAK@ 10024bfc     libucrt:lcidtoname_downlevel.obj
 0002:00004c08       ??_C@_1M@HKKIJHGI@?$AAd?$AAe?$AA?9?$AAA?$AAT@ 10024c08     libucrt:lcidtoname_downlevel.obj
 0002:00004c14       ??_C@_1M@KBFBEHJF@?$AAe?$AAn?$AA?9?$AAA?$AAU@ 10024c14     libucrt:lcidtoname_downlevel.obj
 0002:00004c20       ??_C@_1M@MNPLFAAH@?$AAe?$AAs?$AA?9?$AAE?$AAS@ 10024c20     libucrt:lcidtoname_downlevel.obj
 0002:00004c2c       ??_C@_1M@HJOOJFMA@?$AAf?$AAr?$AA?9?$AAC?$AAA@ 10024c2c     libucrt:lcidtoname_downlevel.obj
 0002:00004c38       ??_C@_1BG@JPOFPNAB@?$AAs?$AAr?$AA?9?$AAS?$AAP?$AA?9?$AAC?$AAy?$AAr?$AAl@ 10024c38     libucrt:lcidtoname_downlevel.obj
 0002:00004c50       ??_C@_1M@LNFOCMOB@?$AAs?$AAe?$AA?9?$AAF?$AAI@ 10024c50     libucrt:lcidtoname_downlevel.obj
 0002:00004c5c       ??_C@_1O@MGJBOAMB@?$AAq?$AAu?$AAz?$AA?9?$AAP?$AAE@ 10024c5c     libucrt:lcidtoname_downlevel.obj
 0002:00004c6c       ??_C@_1M@GJINLBOK@?$AAa?$AAr?$AA?9?$AAL?$AAY@ 10024c6c     libucrt:lcidtoname_downlevel.obj
 0002:00004c78       ??_C@_1M@GGMNHJNL@?$AAz?$AAh?$AA?9?$AAS?$AAG@ 10024c78     libucrt:lcidtoname_downlevel.obj
 0002:00004c84       ??_C@_1M@HOIKODND@?$AAd?$AAe?$AA?9?$AAL?$AAU@ 10024c84     libucrt:lcidtoname_downlevel.obj
 0002:00004c90       ??_C@_1M@DDOCCGFG@?$AAe?$AAn?$AA?9?$AAC?$AAA@ 10024c90     libucrt:lcidtoname_downlevel.obj
 0002:00004c9c       ??_C@_1M@BNOEMJLF@?$AAe?$AAs?$AA?9?$AAG?$AAT@ 10024c9c     libucrt:lcidtoname_downlevel.obj
 0002:00004ca8       ??_C@_1M@EOGNKEK@?$AAf?$AAr?$AA?9?$AAC?$AAH@ 10024ca8     libucrt:lcidtoname_downlevel.obj
 0002:00004cb4       ??_C@_1M@FLIDJFHL@?$AAh?$AAr?$AA?9?$AAB?$AAA@ 10024cb4     libucrt:lcidtoname_downlevel.obj
 0002:00004cc0       ??_C@_1O@FMCELNAJ@?$AAs?$AAm?$AAj?$AA?9?$AAN?$AAO@ 10024cc0     libucrt:lcidtoname_downlevel.obj
 0002:00004cd0       ??_C@_1M@JHGLJMGJ@?$AAa?$AAr?$AA?9?$AAD?$AAZ@ 10024cd0     libucrt:lcidtoname_downlevel.obj
 0002:00004cdc       ??_C@_1M@JKKFDCNP@?$AAz?$AAh?$AA?9?$AAM?$AAO@ 10024cdc     libucrt:lcidtoname_downlevel.obj
 0002:00004ce8       ??_C@_1M@GEEFALPE@?$AAd?$AAe?$AA?9?$AAL?$AAI@ 10024ce8     libucrt:lcidtoname_downlevel.obj
 0002:00004cf4       ??_C@_1M@IGEOFBG@?$AAe?$AAn?$AA?9?$AAN?$AAZ@ 10024cf4     libucrt:lcidtoname_downlevel.obj
 0002:00004d00       ??_C@_1M@KDBONEHP@?$AAe?$AAs?$AA?9?$AAC?$AAR@ 10024d00     libucrt:lcidtoname_downlevel.obj
 0002:00004d0c       ??_C@_1M@FHMDOHNN@?$AAf?$AAr?$AA?9?$AAL?$AAU@ 10024d0c     libucrt:lcidtoname_downlevel.obj
 0002:00004d18       ??_C@_1BG@NFKKMAFG@?$AAb?$AAs?$AA?9?$AAB?$AAA?$AA?9?$AAL?$AAa?$AAt?$AAn@ 10024d18     libucrt:lcidtoname_downlevel.obj
 0002:00004d30       ??_C@_1O@IMNBEMCI@?$AAs?$AAm?$AAj?$AA?9?$AAS?$AAE@ 10024d30     libucrt:lcidtoname_downlevel.obj
 0002:00004d40       ??_C@_1M@DHHMBNDP@?$AAa?$AAr?$AA?9?$AAM?$AAA@ 10024d40     libucrt:lcidtoname_downlevel.obj
 0002:00004d4c       ??_C@_1M@BNBLJCGH@?$AAe?$AAn?$AA?9?$AAI?$AAE@ 10024d4c     libucrt:lcidtoname_downlevel.obj
 0002:00004d58       ??_C@_1M@GEPAFMDL@?$AAe?$AAs?$AA?9?$AAP?$AAA@ 10024d58     libucrt:lcidtoname_downlevel.obj
 0002:00004d64       ??_C@_1M@OJONDMDL@?$AAf?$AAr?$AA?9?$AAM?$AAC@ 10024d64     libucrt:lcidtoname_downlevel.obj
 0002:00004d70       ??_C@_1BG@OBCNFJB@?$AAs?$AAr?$AA?9?$AAB?$AAA?$AA?9?$AAL?$AAa?$AAt?$AAn@ 10024d70     libucrt:lcidtoname_downlevel.obj
 0002:00004d88       ??_C@_1O@KEMEEGPO@?$AAs?$AAm?$AAa?$AA?9?$AAN?$AAO@ 10024d88     libucrt:lcidtoname_downlevel.obj
 0002:00004d98       ??_C@_1M@ELMGFODK@?$AAa?$AAr?$AA?9?$AAT?$AAN@ 10024d98     libucrt:lcidtoname_downlevel.obj
 0002:00004da4       ??_C@_1M@BHDLHFAF@?$AAe?$AAn?$AA?9?$AAZ?$AAA@ 10024da4     libucrt:lcidtoname_downlevel.obj
 0002:00004db0       ??_C@_1M@BMGIGLIF@?$AAe?$AAs?$AA?9?$AAD?$AAO@ 10024db0     libucrt:lcidtoname_downlevel.obj
 0002:00004dbc       ??_C@_1BG@CMBHIPBE@?$AAs?$AAr?$AA?9?$AAB?$AAA?$AA?9?$AAC?$AAy?$AAr?$AAl@ 10024dbc     libucrt:lcidtoname_downlevel.obj
 0002:00004dd4       ??_C@_1O@HEDBLHNP@?$AAs?$AAm?$AAa?$AA?9?$AAS?$AAE@ 10024dd4     libucrt:lcidtoname_downlevel.obj
 0002:00004de4       ??_C@_1M@DAGCADIM@?$AAa?$AAr?$AA?9?$AAO?$AAM@ 10024de4     libucrt:lcidtoname_downlevel.obj
 0002:00004df0       ??_C@_1M@FODLMICG@?$AAe?$AAn?$AA?9?$AAJ?$AAM@ 10024df0     libucrt:lcidtoname_downlevel.obj
 0002:00004dfc       ??_C@_1M@DNMLCIHB@?$AAe?$AAs?$AA?9?$AAV?$AAE@ 10024dfc     libucrt:lcidtoname_downlevel.obj
 0002:00004e08       ??_C@_1O@EOKHMKJK@?$AAs?$AAm?$AAs?$AA?9?$AAF?$AAI@ 10024e08     libucrt:lcidtoname_downlevel.obj
 0002:00004e18       ??_C@_1M@CAFJMKOF@?$AAa?$AAr?$AA?9?$AAY?$AAE@ 10024e18     libucrt:lcidtoname_downlevel.obj
 0002:00004e24       ??_C@_1M@CBFHIJLI@?$AAe?$AAn?$AA?9?$AAC?$AAB@ 10024e24     libucrt:lcidtoname_downlevel.obj
 0002:00004e30       ??_C@_1M@BGNFLDN@?$AAe?$AAs?$AA?9?$AAC?$AAO@ 10024e30     libucrt:lcidtoname_downlevel.obj
 0002:00004e3c       ??_C@_1O@JMPHMAMC@?$AAs?$AAm?$AAn?$AA?9?$AAF?$AAI@ 10024e3c     libucrt:lcidtoname_downlevel.obj
 0002:00004e4c       ??_C@_1M@JLANABKE@?$AAa?$AAr?$AA?9?$AAS?$AAY@ 10024e4c     libucrt:lcidtoname_downlevel.obj
 0002:00004e58       ??_C@_1M@HPKGCFGN@?$AAe?$AAn?$AA?9?$AAB?$AAZ@ 10024e58     libucrt:lcidtoname_downlevel.obj
 0002:00004e64       ??_C@_1M@OLJCMLGM@?$AAe?$AAs?$AA?9?$AAP?$AAE@ 10024e64     libucrt:lcidtoname_downlevel.obj
 0002:00004e70       ??_C@_1M@MKKGFKLE@?$AAa?$AAr?$AA?9?$AAJ?$AAO@ 10024e70     libucrt:lcidtoname_downlevel.obj
 0002:00004e7c       ??_C@_1M@EKPGLDNI@?$AAe?$AAn?$AA?9?$AAT?$AAT@ 10024e7c     libucrt:lcidtoname_downlevel.obj
 0002:00004e88       ??_C@_1M@OONGHFHE@?$AAe?$AAs?$AA?9?$AAA?$AAR@ 10024e88     libucrt:lcidtoname_downlevel.obj
 0002:00004e94       ??_C@_1M@OOJFGBHE@?$AAa?$AAr?$AA?9?$AAL?$AAB@ 10024e94     libucrt:lcidtoname_downlevel.obj
 0002:00004ea0       ??_C@_1M@GCEJHNEG@?$AAe?$AAn?$AA?9?$AAZ?$AAW@ 10024ea0     libucrt:lcidtoname_downlevel.obj
 0002:00004eac       ??_C@_1M@JNOCAHJI@?$AAe?$AAs?$AA?9?$AAE?$AAC@ 10024eac     libucrt:lcidtoname_downlevel.obj
 0002:00004eb8       ??_C@_1M@JEFHPGGB@?$AAa?$AAr?$AA?9?$AAK?$AAW@ 10024eb8     libucrt:lcidtoname_downlevel.obj
 0002:00004ec4       ??_C@_1M@MLKIBJOJ@?$AAe?$AAn?$AA?9?$AAP?$AAH@ 10024ec4     libucrt:lcidtoname_downlevel.obj
 0002:00004ed0       ??_C@_1M@BDNIPEND@?$AAe?$AAs?$AA?9?$AAC?$AAL@ 10024ed0     libucrt:lcidtoname_downlevel.obj
 0002:00004edc       ??_C@_1M@MPNMEKBD@?$AAa?$AAr?$AA?9?$AAA?$AAE@ 10024edc     libucrt:lcidtoname_downlevel.obj
 0002:00004ee8       ??_C@_1M@KBJALCPI@?$AAe?$AAs?$AA?9?$AAU?$AAY@ 10024ee8     libucrt:lcidtoname_downlevel.obj
 0002:00004ef4       ??_C@_1M@LLCCOAGA@?$AAa?$AAr?$AA?9?$AAB?$AAH@ 10024ef4     libucrt:lcidtoname_downlevel.obj
 0002:00004f00       ??_C@_1M@PBFNCDEL@?$AAe?$AAs?$AA?9?$AAP?$AAY@ 10024f00     libucrt:lcidtoname_downlevel.obj
 0002:00004f0c       ??_C@_1M@EDGINPNP@?$AAa?$AAr?$AA?9?$AAQ?$AAA@ 10024f0c     libucrt:lcidtoname_downlevel.obj
 0002:00004f18       ??_C@_1M@MKDBIIJI@?$AAe?$AAs?$AA?9?$AAB?$AAO@ 10024f18     libucrt:lcidtoname_downlevel.obj
 0002:00004f24       ??_C@_1M@CPKKEBLD@?$AAe?$AAs?$AA?9?$AAS?$AAV@ 10024f24     libucrt:lcidtoname_downlevel.obj
 0002:00004f30       ??_C@_1M@NDBGMMJL@?$AAe?$AAs?$AA?9?$AAH?$AAN@ 10024f30     libucrt:lcidtoname_downlevel.obj
 0002:00004f3c       ??_C@_1M@JIJIBHDP@?$AAe?$AAs?$AA?9?$AAN?$AAI@ 10024f3c     libucrt:lcidtoname_downlevel.obj
 0002:00004f48       ??_C@_1M@CGFMKEEK@?$AAe?$AAs?$AA?9?$AAP?$AAR@ 10024f48     libucrt:lcidtoname_downlevel.obj
 0002:00004f54       ??_C@_1O@ICJHKIIK@?$AAz?$AAh?$AA?9?$AAC?$AAH?$AAT@ 10024f54     libucrt:lcidtoname_downlevel.obj
 0002:00004f64       ??_C@_15CLNEJCE@?$AAs?$AAr@ 10024f64     libucrt:lcidtoname_downlevel.obj
 0002:00005690       ??_C@_1M@KAHEKEIG@?$AAa?$AAf?$AA?9?$AAz?$AAa@ 10025690     libucrt:lcidtoname_downlevel.obj
 0002:0000569c       ??_C@_1M@GIECOABL@?$AAa?$AAr?$AA?9?$AAa?$AAe@ 1002569c     libucrt:lcidtoname_downlevel.obj
 0002:000056a8       ??_C@_1M@BMLMEKGI@?$AAa?$AAr?$AA?9?$AAb?$AAh@ 100256a8     libucrt:lcidtoname_downlevel.obj
 0002:000056b4       ??_C@_1M@DAPFDGGB@?$AAa?$AAr?$AA?9?$AAd?$AAz@ 100256b4     libucrt:lcidtoname_downlevel.obj
 0002:000056c0       ??_C@_1M@FJNKGKIG@?$AAa?$AAr?$AA?9?$AAe?$AAg@ 100256c0     libucrt:lcidtoname_downlevel.obj
 0002:000056cc       ??_C@_1M@FLGKKCLO@?$AAa?$AAr?$AA?9?$AAi?$AAq@ 100256cc     libucrt:lcidtoname_downlevel.obj
 0002:000056d8       ??_C@_1M@GNDIPALM@?$AAa?$AAr?$AA?9?$AAj?$AAo@ 100256d8     libucrt:lcidtoname_downlevel.obj
 0002:000056e4       ??_C@_1M@DDMJFMGJ@?$AAa?$AAr?$AA?9?$AAk?$AAw@ 100256e4     libucrt:lcidtoname_downlevel.obj
 0002:000056f0       ??_C@_1M@EJALMLHM@?$AAa?$AAr?$AA?9?$AAl?$AAb@ 100256f0     libucrt:lcidtoname_downlevel.obj
 0002:000056fc       ??_C@_1M@MOBDBLOC@?$AAa?$AAr?$AA?9?$AAl?$AAy@ 100256fc     libucrt:lcidtoname_downlevel.obj
 0002:00005708       ??_C@_1M@JAOCLHDH@?$AAa?$AAr?$AA?9?$AAm?$AAa@ 10025708     libucrt:lcidtoname_downlevel.obj
 0002:00005714       ??_C@_1M@JHPMKJIE@?$AAa?$AAr?$AA?9?$AAo?$AAm@ 10025714     libucrt:lcidtoname_downlevel.obj
 0002:00005720       ??_C@_1M@OEPGHFNH@?$AAa?$AAr?$AA?9?$AAq?$AAa@ 10025720     libucrt:lcidtoname_downlevel.obj
 0002:0000572c       ??_C@_1M@KJDONENM@?$AAa?$AAr?$AA?9?$AAs?$AAa@ 1002572c     libucrt:lcidtoname_downlevel.obj
 0002:00005738       ??_C@_1M@DMJDKLKM@?$AAa?$AAr?$AA?9?$AAs?$AAy@ 10025738     libucrt:lcidtoname_downlevel.obj
 0002:00005744       ??_C@_1M@OMFIPEDC@?$AAa?$AAr?$AA?9?$AAt?$AAn@ 10025744     libucrt:lcidtoname_downlevel.obj
 0002:00005750       ??_C@_1M@IHMHGAON@?$AAa?$AAr?$AA?9?$AAy?$AAe@ 10025750     libucrt:lcidtoname_downlevel.obj
 0002:0000575c       ??_C@_1BG@KDCPGJGB@?$AAa?$AAz?$AA?9?$AAa?$AAz?$AA?9?$AAc?$AAy?$AAr?$AAl@ 1002575c     libucrt:lcidtoname_downlevel.obj
 0002:00005774       ??_C@_1BG@IBCKDDOE@?$AAa?$AAz?$AA?9?$AAa?$AAz?$AA?9?$AAl?$AAa?$AAt?$AAn@ 10025774     libucrt:lcidtoname_downlevel.obj
 0002:0000578c       ??_C@_1M@EGPFDCPD@?$AAb?$AAe?$AA?9?$AAb?$AAy@ 1002578c     libucrt:lcidtoname_downlevel.obj
 0002:00005798       ??_C@_1M@PCMGMCGC@?$AAb?$AAg?$AA?9?$AAb?$AAg@ 10025798     libucrt:lcidtoname_downlevel.obj
 0002:000057a4       ??_C@_1M@BJBMFGOB@?$AAb?$AAn?$AA?9?$AAi?$AAn@ 100257a4     libucrt:lcidtoname_downlevel.obj
 0002:000057b0       ??_C@_1BG@EAKMMACD@?$AAb?$AAs?$AA?9?$AAb?$AAa?$AA?9?$AAl?$AAa?$AAt?$AAn@ 100257b0     libucrt:lcidtoname_downlevel.obj
 0002:000057c8       ??_C@_1M@KGADAODK@?$AAc?$AAa?$AA?9?$AAe?$AAs@ 100257c8     libucrt:lcidtoname_downlevel.obj
 0002:000057d4       ??_C@_1M@COAJPDHI@?$AAc?$AAs?$AA?9?$AAc?$AAz@ 100257d4     libucrt:lcidtoname_downlevel.obj
 0002:000057e0       ??_C@_1M@DHBHFONH@?$AAc?$AAy?$AA?9?$AAg?$AAb@ 100257e0     libucrt:lcidtoname_downlevel.obj
 0002:000057ec       ??_C@_1M@IMGKELGA@?$AAd?$AAa?$AA?9?$AAd?$AAk@ 100257ec     libucrt:lcidtoname_downlevel.obj
 0002:000057f8       ??_C@_1M@NNDGDNGA@?$AAd?$AAe?$AA?9?$AAa?$AAt@ 100257f8     libucrt:lcidtoname_downlevel.obj
 0002:00005804       ??_C@_1M@IKDBHEEM@?$AAd?$AAe?$AA?9?$AAc?$AAh@ 10025804     libucrt:lcidtoname_downlevel.obj
 0002:00005810       ??_C@_1M@GFFOJMCJ@?$AAd?$AAe?$AA?9?$AAd?$AAe@ 10025810     libucrt:lcidtoname_downlevel.obj
 0002:0000581c       ??_C@_1M@MDNLKBPM@?$AAd?$AAe?$AA?9?$AAl?$AAi@ 1002581c     libucrt:lcidtoname_downlevel.obj
 0002:00005828       ??_C@_1M@NJBEEJNL@?$AAd?$AAe?$AA?9?$AAl?$AAu@ 10025828     libucrt:lcidtoname_downlevel.obj
 0002:00005834       ??_C@_1O@GNNELBAP@?$AAd?$AAi?$AAv?$AA?9?$AAm?$AAv@ 10025834     libucrt:lcidtoname_downlevel.obj
 0002:00005844       ??_C@_1M@EJLEOGAE@?$AAe?$AAl?$AA?9?$AAg?$AAr@ 10025844     libucrt:lcidtoname_downlevel.obj
 0002:00005850       ??_C@_1M@GMPONJN@?$AAe?$AAn?$AA?9?$AAa?$AAu@ 10025850     libucrt:lcidtoname_downlevel.obj
 0002:0000585c       ??_C@_1M@NIDIIPGF@?$AAe?$AAn?$AA?9?$AAb?$AAz@ 1002585c     libucrt:lcidtoname_downlevel.obj
 0002:00005868       ??_C@_1M@JEHMIMFO@?$AAe?$AAn?$AA?9?$AAc?$AAa@ 10025868     libucrt:lcidtoname_downlevel.obj
 0002:00005874       ??_C@_1M@IGMJCDLA@?$AAe?$AAn?$AA?9?$AAc?$AAb@ 10025874     libucrt:lcidtoname_downlevel.obj
 0002:00005880       ??_C@_1M@BNFIGBKG@?$AAe?$AAn?$AA?9?$AAg?$AAb@ 10025880     libucrt:lcidtoname_downlevel.obj
 0002:0000588c       ??_C@_1M@LKIFDIGP@?$AAe?$AAn?$AA?9?$AAi?$AAe@ 1002588c     libucrt:lcidtoname_downlevel.obj
 0002:00005898       ??_C@_1M@PJKFGCCO@?$AAe?$AAn?$AA?9?$AAj?$AAm@ 10025898     libucrt:lcidtoname_downlevel.obj
 0002:000058a4       ??_C@_1M@KPPKEPBO@?$AAe?$AAn?$AA?9?$AAn?$AAz@ 100258a4     libucrt:lcidtoname_downlevel.obj
 0002:000058b0       ??_C@_1M@GMDGLDOB@?$AAe?$AAn?$AA?9?$AAp?$AAh@ 100258b0     libucrt:lcidtoname_downlevel.obj
 0002:000058bc       ??_C@_1M@ONGIBJNA@?$AAe?$AAn?$AA?9?$AAt?$AAt@ 100258bc     libucrt:lcidtoname_downlevel.obj
 0002:000058c8       ??_C@_1M@LLODPCMM@?$AAe?$AAn?$AA?9?$AAu?$AAs@ 100258c8     libucrt:lcidtoname_downlevel.obj
 0002:000058d4       ??_C@_1M@LAKFNPAN@?$AAe?$AAn?$AA?9?$AAz?$AAa@ 100258d4     libucrt:lcidtoname_downlevel.obj
 0002:000058e0       ??_C@_1M@MFNHNHEO@?$AAe?$AAn?$AA?9?$AAz?$AAw@ 100258e0     libucrt:lcidtoname_downlevel.obj
 0002:000058ec       ??_C@_1M@EJEINPHM@?$AAe?$AAs?$AA?9?$AAa?$AAr@ 100258ec     libucrt:lcidtoname_downlevel.obj
 0002:000058f8       ??_C@_1M@GNKPCCJA@?$AAe?$AAs?$AA?9?$AAb?$AAo@ 100258f8     libucrt:lcidtoname_downlevel.obj
 0002:00005904       ??_C@_1M@LEEGFONL@?$AAe?$AAs?$AA?9?$AAc?$AAl@ 10025904     libucrt:lcidtoname_downlevel.obj
 0002:00005910       ??_C@_1M@KGPDPBDF@?$AAe?$AAs?$AA?9?$AAc?$AAo@ 10025910     libucrt:lcidtoname_downlevel.obj
 0002:0000591c       ??_C@_1M@EIAHOHH@?$AAe?$AAs?$AA?9?$AAc?$AAr@ 1002591c     libucrt:lcidtoname_downlevel.obj
 0002:00005928       ??_C@_1M@LLPGMBIN@?$AAe?$AAs?$AA?9?$AAd?$AAo@ 10025928     libucrt:lcidtoname_downlevel.obj
 0002:00005934       ??_C@_1M@DKHMKNJA@?$AAe?$AAs?$AA?9?$AAe?$AAc@ 10025934     libucrt:lcidtoname_downlevel.obj
 0002:00005940       ??_C@_1M@GKGFPKAP@?$AAe?$AAs?$AA?9?$AAe?$AAs@ 10025940     libucrt:lcidtoname_downlevel.obj
 0002:0000594c       ??_C@_1M@LKHKGDLN@?$AAe?$AAs?$AA?9?$AAg?$AAt@ 1002594c     libucrt:lcidtoname_downlevel.obj
 0002:00005958       ??_C@_1M@HEIIGGJD@?$AAe?$AAs?$AA?9?$AAh?$AAn@ 10025958     libucrt:lcidtoname_downlevel.obj
 0002:00005964       ??_C@_1M@FBDHPPGD@?$AAe?$AAs?$AA?9?$AAm?$AAx@ 10025964     libucrt:lcidtoname_downlevel.obj
 0002:00005970       ??_C@_1M@DPAGLNDH@?$AAe?$AAs?$AA?9?$AAn?$AAi@ 10025970     libucrt:lcidtoname_downlevel.obj
 0002:0000597c       ??_C@_1M@MDGOPGDD@?$AAe?$AAs?$AA?9?$AAp?$AAa@ 1002597c     libucrt:lcidtoname_downlevel.obj
 0002:00005988       ??_C@_1M@EMAMGBGE@?$AAe?$AAs?$AA?9?$AAp?$AAe@ 10025988     libucrt:lcidtoname_downlevel.obj
 0002:00005994       ??_C@_1M@IBMCAOEC@?$AAe?$AAs?$AA?9?$AAp?$AAr@ 10025994     libucrt:lcidtoname_downlevel.obj
 0002:000059a0       ??_C@_1M@FGMDIJED@?$AAe?$AAs?$AA?9?$AAp?$AAy@ 100259a0     libucrt:lcidtoname_downlevel.obj
 0002:000059ac       ??_C@_1M@IIDEOLLL@?$AAe?$AAs?$AA?9?$AAs?$AAv@ 100259ac     libucrt:lcidtoname_downlevel.obj
 0002:000059b8       ??_C@_1M@GAOBIPA@?$AAe?$AAs?$AA?9?$AAu?$AAy@ 100259b8     libucrt:lcidtoname_downlevel.obj
 0002:000059c4       ??_C@_1M@JKFFICHJ@?$AAe?$AAs?$AA?9?$AAv?$AAe@ 100259c4     libucrt:lcidtoname_downlevel.obj
 0002:000059d0       ??_C@_1M@PNMLOJDF@?$AAe?$AAt?$AA?9?$AAe?$AAe@ 100259d0     libucrt:lcidtoname_downlevel.obj
 0002:000059dc       ??_C@_1M@GHHLIKEI@?$AAe?$AAu?$AA?9?$AAe?$AAs@ 100259dc     libucrt:lcidtoname_downlevel.obj
 0002:000059e8       ??_C@_1M@PBNONODE@?$AAf?$AAa?$AA?9?$AAi?$AAr@ 100259e8     libucrt:lcidtoname_downlevel.obj
 0002:000059f4       ??_C@_1M@JEEHPMIL@?$AAf?$AAi?$AA?9?$AAf?$AAi@ 100259f4     libucrt:lcidtoname_downlevel.obj
 0002:00005a00       ??_C@_1M@LMDCNDBA@?$AAf?$AAo?$AA?9?$AAf?$AAo@ 10025a00     libucrt:lcidtoname_downlevel.obj
 0002:00005a0c       ??_C@_1M@JKEOHLDK@?$AAf?$AAr?$AA?9?$AAb?$AAe@ 10025a0c     libucrt:lcidtoname_downlevel.obj
 0002:00005a18       ??_C@_1M@NOHADPMI@?$AAf?$AAr?$AA?9?$AAc?$AAa@ 10025a18     libucrt:lcidtoname_downlevel.obj
 0002:00005a24       ??_C@_1M@KDHIHAEC@?$AAf?$AAr?$AA?9?$AAc?$AAh@ 10025a24     libucrt:lcidtoname_downlevel.obj
 0002:00005a30       ??_C@_1M@MMBBFGAK@?$AAf?$AAr?$AA?9?$AAf?$AAr@ 10025a30     libucrt:lcidtoname_downlevel.obj
 0002:00005a3c       ??_C@_1M@PAFNENNF@?$AAf?$AAr?$AA?9?$AAl?$AAu@ 10025a3c     libucrt:lcidtoname_downlevel.obj
 0002:00005a48       ??_C@_1M@EOHDJGDD@?$AAf?$AAr?$AA?9?$AAm?$AAc@ 10025a48     libucrt:lcidtoname_downlevel.obj
 0002:00005a54       ??_C@_1M@FAPLLOPF@?$AAg?$AAl?$AA?9?$AAe?$AAs@ 10025a54     libucrt:lcidtoname_downlevel.obj
 0002:00005a60       ??_C@_1M@FOPBFLOO@?$AAg?$AAu?$AA?9?$AAi?$AAn@ 10025a60     libucrt:lcidtoname_downlevel.obj
 0002:00005a6c       ??_C@_1M@KBMCINPM@?$AAh?$AAe?$AA?9?$AAi?$AAl@ 10025a6c     libucrt:lcidtoname_downlevel.obj
 0002:00005a78       ??_C@_1M@BBPHKFPJ@?$AAh?$AAi?$AA?9?$AAi?$AAn@ 10025a78     libucrt:lcidtoname_downlevel.obj
 0002:00005a84       ??_C@_1M@PMBNDPHD@?$AAh?$AAr?$AA?9?$AAb?$AAa@ 10025a84     libucrt:lcidtoname_downlevel.obj
 0002:00005a90       ??_C@_1M@BPCKOEGE@?$AAh?$AAr?$AA?9?$AAh?$AAr@ 10025a90     libucrt:lcidtoname_downlevel.obj
 0002:00005a9c       ??_C@_1M@GACBMHKE@?$AAh?$AAu?$AA?9?$AAh?$AAu@ 10025a9c     libucrt:lcidtoname_downlevel.obj
 0002:00005aa8       ??_C@_1M@MILPAJJC@?$AAh?$AAy?$AA?9?$AAa?$AAm@ 10025aa8     libucrt:lcidtoname_downlevel.obj
 0002:00005ab4       ??_C@_1M@BABBICEC@?$AAi?$AAd?$AA?9?$AAi?$AAd@ 10025ab4     libucrt:lcidtoname_downlevel.obj
 0002:00005ac0       ??_C@_1M@BIKNHHPF@?$AAi?$AAs?$AA?9?$AAi?$AAs@ 10025ac0     libucrt:lcidtoname_downlevel.obj
 0002:00005acc       ??_C@_1M@NMPCJPHE@?$AAi?$AAt?$AA?9?$AAc?$AAh@ 10025acc     libucrt:lcidtoname_downlevel.obj
 0002:00005ad8       ??_C@_1M@GHKGFEDF@?$AAi?$AAt?$AA?9?$AAi?$AAt@ 10025ad8     libucrt:lcidtoname_downlevel.obj
 0002:00005ae4       ??_C@_1M@NIEJCJJA@?$AAj?$AAa?$AA?9?$AAj?$AAp@ 10025ae4     libucrt:lcidtoname_downlevel.obj
 0002:00005af0       ??_C@_1M@JILFNBIM@?$AAk?$AAa?$AA?9?$AAg?$AAe@ 10025af0     libucrt:lcidtoname_downlevel.obj
 0002:00005afc       ??_C@_1M@PACPMGPH@?$AAk?$AAk?$AA?9?$AAk?$AAz@ 10025afc     libucrt:lcidtoname_downlevel.obj
 0002:00005b08       ??_C@_1M@IELFGMHA@?$AAk?$AAn?$AA?9?$AAi?$AAn@ 10025b08     libucrt:lcidtoname_downlevel.obj
 0002:00005b14       ??_C@_1O@IBBJHCH@?$AAk?$AAo?$AAk?$AA?9?$AAi?$AAn@ 10025b14     libucrt:lcidtoname_downlevel.obj
 0002:00005b24       ??_C@_1M@DMHAEOGC@?$AAk?$AAo?$AA?9?$AAk?$AAr@ 10025b24     libucrt:lcidtoname_downlevel.obj
 0002:00005b30       ??_C@_1M@HBAHBIGA@?$AAk?$AAy?$AA?9?$AAk?$AAg@ 10025b30     libucrt:lcidtoname_downlevel.obj
 0002:00005b3c       ??_C@_1M@KPMILCJG@?$AAl?$AAt?$AA?9?$AAl?$AAt@ 10025b3c     libucrt:lcidtoname_downlevel.obj
 0002:00005b48       ??_C@_1M@BDEKKCA@?$AAl?$AAv?$AA?9?$AAl?$AAv@ 10025b48     libucrt:lcidtoname_downlevel.obj
 0002:00005b54       ??_C@_1M@ELCKCCJJ@?$AAm?$AAi?$AA?9?$AAn?$AAz@ 10025b54     libucrt:lcidtoname_downlevel.obj
 0002:00005b60       ??_C@_1M@CBOOLAPA@?$AAm?$AAk?$AA?9?$AAm?$AAk@ 10025b60     libucrt:lcidtoname_downlevel.obj
 0002:00005b6c       ??_C@_1M@GPHNBJKN@?$AAm?$AAl?$AA?9?$AAi?$AAn@ 10025b6c     libucrt:lcidtoname_downlevel.obj
 0002:00005b78       ??_C@_1M@PABJILIG@?$AAm?$AAn?$AA?9?$AAm?$AAn@ 10025b78     libucrt:lcidtoname_downlevel.obj
 0002:00005b84       ??_C@_1M@FGBKKIPG@?$AAm?$AAr?$AA?9?$AAi?$AAn@ 10025b84     libucrt:lcidtoname_downlevel.obj
 0002:00005b90       ??_C@_1M@NDBPDDAL@?$AAm?$AAs?$AA?9?$AAb?$AAn@ 10025b90     libucrt:lcidtoname_downlevel.obj
 0002:00005b9c       ??_C@_1M@OPIHOOPI@?$AAm?$AAs?$AA?9?$AAm?$AAy@ 10025b9c     libucrt:lcidtoname_downlevel.obj
 0002:00005ba8       ??_C@_1M@PPDBCNFM@?$AAm?$AAt?$AA?9?$AAm?$AAt@ 10025ba8     libucrt:lcidtoname_downlevel.obj
 0002:00005bb4       ??_C@_1M@KDJDKMDD@?$AAn?$AAb?$AA?9?$AAn?$AAo@ 10025bb4     libucrt:lcidtoname_downlevel.obj
 0002:00005bc0       ??_C@_1M@KFCFLMJP@?$AAn?$AAl?$AA?9?$AAb?$AAe@ 10025bc0     libucrt:lcidtoname_downlevel.obj
 0002:00005bcc       ??_C@_1M@KPOPDDGO@?$AAn?$AAl?$AA?9?$AAn?$AAl@ 10025bcc     libucrt:lcidtoname_downlevel.obj
 0002:00005bd8       ??_C@_1M@LJKPEMLN@?$AAn?$AAn?$AA?9?$AAn?$AAo@ 10025bd8     libucrt:lcidtoname_downlevel.obj
 0002:00005be4       ??_C@_1M@BDGHHBFL@?$AAn?$AAs?$AA?9?$AAz?$AAa@ 10025be4     libucrt:lcidtoname_downlevel.obj
 0002:00005bf0       ??_C@_1M@IDEHOAP@?$AAp?$AAa?$AA?9?$AAi?$AAn@ 10025bf0     libucrt:lcidtoname_downlevel.obj
 0002:00005bfc       ??_C@_1M@HDBKGOGH@?$AAp?$AAl?$AA?9?$AAp?$AAl@ 10025bfc     libucrt:lcidtoname_downlevel.obj
 0002:00005c08       ??_C@_1M@LJLLCMEH@?$AAp?$AAt?$AA?9?$AAb?$AAr@ 10025c08     libucrt:lcidtoname_downlevel.obj
 0002:00005c14       ??_C@_1M@NCMONAAL@?$AAp?$AAt?$AA?9?$AAp?$AAt@ 10025c14     libucrt:lcidtoname_downlevel.obj
 0002:00005c20       ??_C@_1O@EAKMAJDN@?$AAq?$AAu?$AAz?$AA?9?$AAb?$AAo@ 10025c20     libucrt:lcidtoname_downlevel.obj
 0002:00005c30       ??_C@_1O@BHHPIGDN@?$AAq?$AAu?$AAz?$AA?9?$AAe?$AAc@ 10025c30     libucrt:lcidtoname_downlevel.obj
 0002:00005c40       ??_C@_1O@GBAPEKMJ@?$AAq?$AAu?$AAz?$AA?9?$AAp?$AAe@ 10025c40     libucrt:lcidtoname_downlevel.obj
 0002:00005c50       ??_C@_1M@CLGLEFBO@?$AAr?$AAo?$AA?9?$AAr?$AAo@ 10025c50     libucrt:lcidtoname_downlevel.obj
 0002:00005c5c       ??_C@_1M@CEEDODME@?$AAr?$AAu?$AA?9?$AAr?$AAu@ 10025c5c     libucrt:lcidtoname_downlevel.obj
 0002:00005c68       ??_C@_1M@HPKKKMPP@?$AAs?$AAa?$AA?9?$AAi?$AAn@ 10025c68     libucrt:lcidtoname_downlevel.obj
 0002:00005c74       ??_C@_1M@BKMAIGOJ@?$AAs?$AAe?$AA?9?$AAf?$AAi@ 10025c74     libucrt:lcidtoname_downlevel.obj
 0002:00005c80       ??_C@_1M@NDPIFLFI@?$AAs?$AAe?$AA?9?$AAn?$AAo@ 10025c80     libucrt:lcidtoname_downlevel.obj
 0002:00005c8c       ??_C@_1M@DANKKHJ@?$AAs?$AAe?$AA?9?$AAs?$AAe@ 10025c8c     libucrt:lcidtoname_downlevel.obj
 0002:00005c98       ??_C@_1M@PNBLONPJ@?$AAs?$AAk?$AA?9?$AAs?$AAk@ 10025c98     libucrt:lcidtoname_downlevel.obj
 0002:00005ca4       ??_C@_1M@LFMODOAL@?$AAs?$AAl?$AA?9?$AAs?$AAi@ 10025ca4     libucrt:lcidtoname_downlevel.obj
 0002:00005cb0       ??_C@_1O@DFKOMPG@?$AAs?$AAm?$AAa?$AA?9?$AAn?$AAo@ 10025cb0     libucrt:lcidtoname_downlevel.obj
 0002:00005cc0       ??_C@_1O@NDKPBNNH@?$AAs?$AAm?$AAa?$AA?9?$AAs?$AAe@ 10025cc0     libucrt:lcidtoname_downlevel.obj
 0002:00005cd0       ??_C@_1O@PLLKBHAB@?$AAs?$AAm?$AAj?$AA?9?$AAn?$AAo@ 10025cd0     libucrt:lcidtoname_downlevel.obj
 0002:00005ce0       ??_C@_1O@CLEPOGCA@?$AAs?$AAm?$AAj?$AA?9?$AAs?$AAe@ 10025ce0     libucrt:lcidtoname_downlevel.obj
 0002:00005cf0       ??_C@_1O@DLGJGKMK@?$AAs?$AAm?$AAn?$AA?9?$AAf?$AAi@ 10025cf0     libucrt:lcidtoname_downlevel.obj
 0002:00005d00       ??_C@_1O@OJDJGAJC@?$AAs?$AAm?$AAs?$AA?9?$AAf?$AAi@ 10025d00     libucrt:lcidtoname_downlevel.obj
 0002:00005d10       ??_C@_1M@BOFOGHPB@?$AAs?$AAq?$AA?9?$AAa?$AAl@ 10025d10     libucrt:lcidtoname_downlevel.obj
 0002:00005d1c       ??_C@_1BG@LJBBIPGB@?$AAs?$AAr?$AA?9?$AAb?$AAa?$AA?9?$AAc?$AAy?$AAr?$AAl@ 10025d1c     libucrt:lcidtoname_downlevel.obj
 0002:00005d34       ??_C@_1BG@JLBENFOE@?$AAs?$AAr?$AA?9?$AAb?$AAa?$AA?9?$AAl?$AAa?$AAt?$AAn@ 10025d34     libucrt:lcidtoname_downlevel.obj
 0002:00005d4c       ??_C@_1BG@KODPNHE@?$AAs?$AAr?$AA?9?$AAs?$AAp?$AA?9?$AAc?$AAy?$AAr?$AAl@ 10025d4c     libucrt:lcidtoname_downlevel.obj
 0002:00005d64       ??_C@_1BG@CIOGKHPB@?$AAs?$AAr?$AA?9?$AAs?$AAp?$AA?9?$AAl?$AAa?$AAt?$AAn@ 10025d64     libucrt:lcidtoname_downlevel.obj
 0002:00005d7c       ??_C@_1M@NGFJLMAC@?$AAs?$AAv?$AA?9?$AAf?$AAi@ 10025d7c     libucrt:lcidtoname_downlevel.obj
 0002:00005d88       ??_C@_1M@MPJEJAJC@?$AAs?$AAv?$AA?9?$AAs?$AAe@ 10025d88     libucrt:lcidtoname_downlevel.obj
 0002:00005d94       ??_C@_1M@MPNDHLFK@?$AAs?$AAw?$AA?9?$AAk?$AAe@ 10025d94     libucrt:lcidtoname_downlevel.obj
 0002:00005da0       ??_C@_1O@KOHBJJI@?$AAs?$AAy?$AAr?$AA?9?$AAs?$AAy@ 10025da0     libucrt:lcidtoname_downlevel.obj
 0002:00005db0       ??_C@_1M@LDCEFHA@?$AAt?$AAa?$AA?9?$AAi?$AAn@ 10025db0     libucrt:lcidtoname_downlevel.obj
 0002:00005dbc       ??_C@_1M@CNJOFAK@?$AAt?$AAe?$AA?9?$AAi?$AAn@ 10025dbc     libucrt:lcidtoname_downlevel.obj
 0002:00005dc8       ??_C@_1M@GNAECACD@?$AAt?$AAh?$AA?9?$AAt?$AAh@ 10025dc8     libucrt:lcidtoname_downlevel.obj
 0002:00005dd4       ??_C@_1M@CHBIHOJO@?$AAt?$AAn?$AA?9?$AAz?$AAa@ 10025dd4     libucrt:lcidtoname_downlevel.obj
 0002:00005de0       ??_C@_1M@GCCMIGPJ@?$AAt?$AAr?$AA?9?$AAt?$AAr@ 10025de0     libucrt:lcidtoname_downlevel.obj
 0002:00005dec       ??_C@_1M@CELMCNBK@?$AAt?$AAt?$AA?9?$AAr?$AAu@ 10025dec     libucrt:lcidtoname_downlevel.obj
 0002:00005df8       ??_C@_1M@KLMCELGA@?$AAu?$AAk?$AA?9?$AAu?$AAa@ 10025df8     libucrt:lcidtoname_downlevel.obj
 0002:00005e04       ??_C@_1M@EPAJJAJF@?$AAu?$AAr?$AA?9?$AAp?$AAk@ 10025e04     libucrt:lcidtoname_downlevel.obj
 0002:00005e10       ??_C@_1BG@GEGPMCDJ@?$AAu?$AAz?$AA?9?$AAu?$AAz?$AA?9?$AAc?$AAy?$AAr?$AAl@ 10025e10     libucrt:lcidtoname_downlevel.obj
 0002:00005e28       ??_C@_1BG@EGGKJILM@?$AAu?$AAz?$AA?9?$AAu?$AAz?$AA?9?$AAl?$AAa?$AAt?$AAn@ 10025e28     libucrt:lcidtoname_downlevel.obj
 0002:00005e40       ??_C@_1M@GFOCLFF@?$AAv?$AAi?$AA?9?$AAv?$AAn@ 10025e40     libucrt:lcidtoname_downlevel.obj
 0002:00005e4c       ??_C@_1M@CPAMEDFI@?$AAx?$AAh?$AA?9?$AAz?$AAa@ 10025e4c     libucrt:lcidtoname_downlevel.obj
 0002:00005e58       ??_C@_1O@EBKIFIGN@?$AAz?$AAh?$AA?9?$AAc?$AAh?$AAs@ 10025e58     libucrt:lcidtoname_downlevel.obj
 0002:00005e68       ??_C@_1O@NMHPGANE@?$AAz?$AAh?$AA?9?$AAc?$AAh?$AAt@ 10025e68     libucrt:lcidtoname_downlevel.obj
 0002:00005e78       ??_C@_1M@LPINJOMC@?$AAz?$AAh?$AA?9?$AAc?$AAn@ 10025e78     libucrt:lcidtoname_downlevel.obj
 0002:00005e84       ??_C@_1M@OCJEJODD@?$AAz?$AAh?$AA?9?$AAh?$AAk@ 10025e84     libucrt:lcidtoname_downlevel.obj
 0002:00005e90       ??_C@_1M@DNDLJINH@?$AAz?$AAh?$AA?9?$AAm?$AAo@ 10025e90     libucrt:lcidtoname_downlevel.obj
 0002:00005e9c       ??_C@_1M@MBFDNDND@?$AAz?$AAh?$AA?9?$AAs?$AAg@ 10025e9c     libucrt:lcidtoname_downlevel.obj
 0002:00005ea8       ??_C@_1M@IMEPLEPE@?$AAz?$AAh?$AA?9?$AAt?$AAw@ 10025ea8     libucrt:lcidtoname_downlevel.obj
 0002:00005eb4       ??_C@_1M@BBGHNHJP@?$AAz?$AAu?$AA?9?$AAz?$AAa@ 10025eb4     libucrt:lcidtoname_downlevel.obj
 0002:00005ec0       ?large_power_data@?1??multiply_by_power_of_ten@__crt_strtox@@YA_NAAUbig_integer@2@I@Z@4QBIB 10025ec0     libucrt:cfout.obj
 0002:000067c8       ?large_power_indices@?1??multiply_by_power_of_ten@__crt_strtox@@YA_NAAUbig_integer@2@I@Z@4QBUunpack_index@?1??12@YA_N0I@Z@B 100267c8     libucrt:cfout.obj
 0002:00006860       ?small_powers_of_ten@?1??multiply_by_power_of_ten@__crt_strtox@@YA_NAAUbig_integer@2@I@Z@4QBIB 10026860     libucrt:cfout.obj
 0002:00006884       ??_C@_01GBGANLPD@0@        10026884     libucrt:cfout.obj
 0002:00006888       ??_C@_05DNEBIAHO@1?$CDINF@ 10026888     libucrt:cfout.obj
 0002:00006890       ??_C@_06IMKFLFPG@1?$CDQNAN@ 10026890     libucrt:cfout.obj
 0002:00006898       ??_C@_06PGGFOGJG@1?$CDSNAN@ 10026898     libucrt:cfout.obj
 0002:000068a0       ??_C@_05PHHOCPM@1?$CDIND@  100268a0     libucrt:cfout.obj
 0002:00006a10       __infinity                 10026a10     libucrt:87tran.obj
 0002:00006a1a       __minfinity                10026a1a     libucrt:87tran.obj
 0002:00006a24       __logemax                  10026a24     libucrt:87tran.obj
 0002:00006a4a       __OP_EXPjmptab             10026a4a     libucrt:87tran.obj
 0002:00006a70       __indefinite               10026a70     libucrt:87disp.obj
 0002:00006a7a       __piby2                    10026a7a     libucrt:87disp.obj
 0002:00006a84       __piby4                    10026a84     libucrt:87disp.obj
 0002:00006ab8       __DEFAULT_CW_in_mem        10026ab8     libucrt:common.obj
 0002:00006aba       __pi_by_2_to_61            10026aba     libucrt:common.obj
 0002:00006af4       ??_C@_03MGHMBJCF@log@      10026af4     libucrt:libm_error.obj
 0002:00006af8       ??_C@_05HGHHAHAP@log10@    10026af8     libucrt:libm_error.obj
 0002:00006b00       ??_C@_03KHJOGHMM@exp@      10026b00     libucrt:libm_error.obj
 0002:00006b04       ??_C@_03JGHBODFD@pow@      10026b04     libucrt:libm_error.obj
 0002:00006b08       ??_C@_04FIHNOPOL@asin@     10026b08     libucrt:libm_error.obj
 0002:00006b10       ??_C@_04PDIFKINK@acos@     10026b10     libucrt:libm_error.obj
 0002:00006b18       ??_C@_04EIAKFFMI@sqrt@     10026b18     libucrt:libm_error.obj
 0002:00006b20       __real@3ff0000000000000    10026b20     libucrt:libm_error.obj
 0002:00006b28       ??_C@_1BA@BALFACEM@?$AAC?$AAO?$AAN?$AAO?$AAU?$AAT?$AA$@ 10026b28     libucrt:initcon.obj
 0002:00006b50       ___acrt_log10_table_t      10026b50     libucrt:log10_tables.obj
 0002:00006f60       ___acrt_log10_table_cb     10026f60     libucrt:log10_tables.obj
 0002:00007370       __real@3fe0000000000000    10027370     libucrt:powhlp.obj
 0002:00007460       ??_C@_04COOMCNPB@sinh@     10027460     libucrt:fpexcept.obj
 0002:00007468       ??_C@_04HPJJNFIM@cosh@     10027468     libucrt:fpexcept.obj
 0002:00007470       ??_C@_04FJHINJAO@tanh@     10027470     libucrt:fpexcept.obj
 0002:00007478       ??_C@_04MLLJIGOK@atan@     10027478     libucrt:fpexcept.obj
 0002:00007480       ??_C@_05KNGEOGJB@atan2@    10027480     libucrt:fpexcept.obj
 0002:00007488       ??_C@_03BLEJJJBH@sin@      10027488     libucrt:fpexcept.obj
 0002:0000748c       ??_C@_03LALBNOCG@cos@      1002748c     libucrt:fpexcept.obj
 0002:00007490       ??_C@_03IIINPABG@tan@      10027490     libucrt:fpexcept.obj
 0002:00007494       ??_C@_04GFPJNGEK@ceil@     10027494     libucrt:fpexcept.obj
 0002:0000749c       ??_C@_05PBJFFIGL@floor@    1002749c     libucrt:fpexcept.obj
 0002:000074a4       ??_C@_04ODHECPBC@fabs@     100274a4     libucrt:fpexcept.obj
 0002:000074ac       ??_C@_04EHEDPDJG@modf@     100274ac     libucrt:fpexcept.obj
 0002:000074b4       ??_C@_05CEJMAHNP@ldexp@    100274b4     libucrt:fpexcept.obj
 0002:000074bc       ??_C@_05KBKMEMPO@_cabs@    100274bc     libucrt:fpexcept.obj
 0002:000074c4       ??_C@_06MEIMCGCF@_hypot@   100274c4     libucrt:fpexcept.obj
 0002:000074cc       ??_C@_04KEPJIHGP@fmod@     100274cc     libucrt:fpexcept.obj
 0002:000074d4       ??_C@_05GKKHEGJL@frexp@    100274d4     libucrt:fpexcept.obj
 0002:000074dc       ??_C@_03MJLDFKDL@_y0@      100274dc     libucrt:fpexcept.obj
 0002:000074e0       ??_C@_03NAKIGLHK@_y1@      100274e0     libucrt:fpexcept.obj
 0002:000074e4       ??_C@_03ONILCKOB@_yn@      100274e4     libucrt:fpexcept.obj
 0002:000074e8       ??_C@_05JGDBENOH@_logb@    100274e8     libucrt:fpexcept.obj
 0002:000074f0       ??_C@_0L@KDOEJCKC@_nextafter@ 100274f0     libucrt:fpexcept.obj
 0002:00007500       __d_inf                    10027500     libucrt:util.obj
 0002:00007508       __d_max                    10027508     libucrt:util.obj
 0002:00007510       __d_mzero                  10027510     libucrt:util.obj
 0002:00007580       __load_config_used         10027580     LIBCMT:loadcfg.obj
 0002:00007638       __tls_used                 10027638     LIBCMT:tlssup.obj
 0002:00007650       ??_R4exception@std@@6B@    10027650     LIBCMT:throw_bad_alloc.obj
 0002:00007664       ??_R3exception@std@@8      10027664     LIBCMT:throw_bad_alloc.obj
 0002:00007674       ??_R2exception@std@@8      10027674     LIBCMT:throw_bad_alloc.obj
 0002:0000767c       ??_R1A@?0A@EA@exception@std@@8 1002767c     LIBCMT:throw_bad_alloc.obj
 0002:00007698       ??_R4bad_alloc@std@@6B@    10027698     LIBCMT:throw_bad_alloc.obj
 0002:000076ac       ??_R3bad_alloc@std@@8      100276ac     LIBCMT:throw_bad_alloc.obj
 0002:000076bc       ??_R2bad_alloc@std@@8      100276bc     LIBCMT:throw_bad_alloc.obj
 0002:000076c8       ??_R1A@?0A@EA@bad_alloc@std@@8 100276c8     LIBCMT:throw_bad_alloc.obj
 0002:000076e4       ??_R4bad_array_new_length@std@@6B@ 100276e4     LIBCMT:throw_bad_alloc.obj
 0002:000076f8       ??_R3bad_array_new_length@std@@8 100276f8     LIBCMT:throw_bad_alloc.obj
 0002:00007708       ??_R2bad_array_new_length@std@@8 10027708     LIBCMT:throw_bad_alloc.obj
 0002:00007718       ??_R1A@?0A@EA@bad_array_new_length@std@@8 10027718     LIBCMT:throw_bad_alloc.obj
 0002:00007734       ??_R4type_info@@6B@        10027734     LIBCMT:std_type_info_static.obj
 0002:00007748       ??_R3type_info@@8          10027748     LIBCMT:std_type_info_static.obj
 0002:00007758       ??_R2type_info@@8          10027758     LIBCMT:std_type_info_static.obj
 0002:00007760       ??_R1A@?0A@EA@type_info@@8 10027760     LIBCMT:std_type_info_static.obj
 0002:0000777c       ??_R4bad_exception@std@@6B@ 1002777c     libvcruntime:frame.obj
 0002:00007790       ??_R3bad_exception@std@@8  10027790     libvcruntime:frame.obj
 0002:000077a0       ??_R2bad_exception@std@@8  100277a0     libvcruntime:frame.obj
 0002:000077ac       ??_R1A@?0A@EA@bad_exception@std@@8 100277ac     libvcruntime:frame.obj
 0002:000077c8       ___safe_se_handler_table   100277c8     <linker-defined>
 0002:00007bbc       ___rtc_iaa                 10027bbc     LIBCMT:initsect.obj
 0002:00007bc0       ___rtc_izz                 10027bc0     LIBCMT:initsect.obj
 0002:00007bc4       ___rtc_taa                 10027bc4     LIBCMT:initsect.obj
 0002:00007bc8       ___rtc_tzz                 10027bc8     LIBCMT:initsect.obj
 0002:00007bcc       __tls_start                10027bcc     LIBCMT:tlssup.obj
 0002:00007bd0       __Init_thread_epoch        10027bd0     LIBCMT:thread_safe_statics.obj
 0002:00007bd4       __tls_end                  10027bd4     LIBCMT:tlssup.obj
 0002:00007cd4       __TI2?AVbad_alloc@std@@    10027cd4     LIBCMT:throw_bad_alloc.obj
 0002:00007ce4       __CTA2?AVbad_alloc@std@@   10027ce4     LIBCMT:throw_bad_alloc.obj
 0002:00007cf0       __CT??_R0?AVbad_alloc@std@@@8??0bad_alloc@std@@QAE@ABV01@@Z12 10027cf0     LIBCMT:throw_bad_alloc.obj
 0002:00007d0c       __CT??_R0?AVexception@std@@@8??0exception@std@@QAE@ABV01@@Z12 10027d0c     LIBCMT:throw_bad_alloc.obj
 0002:00007d28       __TI3?AVbad_array_new_length@std@@ 10027d28     LIBCMT:throw_bad_alloc.obj
 0002:00007d38       __CTA3?AVbad_array_new_length@std@@ 10027d38     LIBCMT:throw_bad_alloc.obj
 0002:00007d48       __CT??_R0?AVbad_array_new_length@std@@@8??0bad_array_new_length@std@@QAE@ABV01@@Z12 10027d48     LIBCMT:throw_bad_alloc.obj
 0002:00007e6c       __TI2?AVbad_exception@std@@ 10027e6c     libvcruntime:frame.obj
 0002:00007e7c       __CTA2?AVbad_exception@std@@ 10027e7c     libvcruntime:frame.obj
 0002:00007e88       __CT??_R0?AVbad_exception@std@@@8??0bad_exception@std@@QAE@ABV01@@Z12 10027e88     libvcruntime:frame.obj
 0002:00008204       ___pobjMapEntryFirst       10028204     OposVariant.obj
 0002:00008208       ___pobjMapEntryLast        10028208     OposVariant.obj
 0002:000082b8       __IMPORT_DESCRIPTOR_KERNEL32 100282b8     kernel32:KERNEL32.dll
 0002:000082cc       __IMPORT_DESCRIPTOR_USER32 100282cc     user32:USER32.dll
 0002:000082e0       __IMPORT_DESCRIPTOR_GDI32  100282e0     gdi32:GDI32.dll
 0002:000082f4       __IMPORT_DESCRIPTOR_ADVAPI32 100282f4     advapi32:ADVAPI32.dll
 0002:00008308       __IMPORT_DESCRIPTOR_ole32  10028308     ole32:ole32.dll
 0002:0000831c       __IMPORT_DESCRIPTOR_OLEAUT32 1002831c     oleaut32:OLEAUT32.dll
 0002:00008330       __NULL_IMPORT_DESCRIPTOR   10028330     kernel32:KERNEL32.dll
 0003:00000000       ?s_Claim@?7??GetIDsOfNames@CComTypeInfoHolder@ATL@@QAEJABU_GUID@@PAPA_WIKPAJ@Z@4PA_WA 1002a000     MICR.obj
 0003:00000018       ?s_Release@?7??GetIDsOfNames@CComTypeInfoHolder@ATL@@QAEJABU_GUID@@PAPA_WIKPAJ@Z@4PA_WA 1002a018     MICR.obj
 0003:00000034       ?_tih@?$IDispatchImpl@UIOPOSMICR@@$1?IID_IOPOSMICR@@3U_GUID@@B$1?LIBID_OposMICR_CCO@@3U3@B$00$0A@VCComTypeInfoHolder@ATL@@@ATL@@1VCComTypeInfoHolder@2@A 1002a034     MICR.obj
 0003:00000050       ?_tih@?$IProvideClassInfo2Impl@$1?CLSID_OPOSMICR@@3U_GUID@@B$1?DIID__IOPOSMICREvents@@3U2@B$1?LIBID_OposMICR_CCO@@3U2@B$00$0A@VCComTypeInfoHolder@ATL@@@ATL@@1VCComTypeInfoHolder@2@A 1002a050     MICR.obj
 0003:0000006c       ?vszContents@?6??Save@?$IPersistStorageImpl@VCOPOSMICR@@@ATL@@UAGJPAUIStorage@@H@Z@4PB_WB 1002a06c     MICR.obj
 0003:00000070       ?wc@?1??GetWndClassInfo@?$CWindowImpl@VCOPOSMICR@@VCWindow@ATL@@V?$CWinTraits@$0FGAAAAAA@$0A@@3@@ATL@@SAAAU_ATL_WNDCLASSINFOW@3@XZ@4U43@A 1002a070     MICR.obj
 0003:000000fc       ?rcDefault@CWindow@ATL@@2UtagRECT@@A 1002a0fc     MICR.obj
 0003:00000158       ?g_WindowName@@3PA_WA      1002a158     MICRImpl.obj
 0003:00000170       ?g_ControlDescription@@3PADA 1002a170     MICRImpl.obj
 0003:000001b4       ?g_ControlVersion@@3JA     1002a1b4     MICRImpl.obj
 0003:00000240       ___scrt_native_dllmain_reason 1002a240     LIBCMT:utility.obj
 0003:00000244       __Init_global_epoch        1002a244     LIBCMT:thread_safe_statics.obj
 0003:00000250       ___security_cookie_complement 1002a250     LIBCMT:gs_cookie.obj
 0003:00000254       ___security_cookie         1002a254     LIBCMT:gs_cookie.obj
 0003:00000258       ___isa_enabled             1002a258     LIBCMT:cpu_disp.obj
 0003:00000270       __NLG_Destination          1002a270     libvcruntime:exsup.obj
 0003:00000288       ___abort_behavior          1002a288     libucrt:abort.obj
 0003:00000298       __iob                      1002a298     libucrt:_file.obj
 0003:00000340       ___acrt_initial_locale_data 1002a340     libucrt:nlsdata.obj
 0003:000003f8       ___acrt_initial_locale_pointers 1002a3f8     libucrt:nlsdata.obj
 0003:00000400       ___acrt_wide_c_locale_string 1002a400     libucrt:nlsdata.obj
 0003:00000408       ___acrt_initial_multibyte_data 1002a408     libucrt:mbctype.obj
 0003:00000928       __pwctype                  1002a928     libucrt:ctype.obj
 0003:0000092c       ___globallocalestatus      1002a92c     libucrt:glstatus.obj
 0003:00000930       ___acrt_lconv_c            1002a930     libucrt:localeconv.obj
 0003:00000980       ___acrt_lconv_static_decimal 1002a980     libucrt:localeconv.obj
 0003:00000984       ___acrt_lconv_static_W_decimal 1002a984     libucrt:localeconv.obj
 0003:00000990       __lookuptrailbytes         1002a990     libucrt:read.obj
 0003:00000aa0       __fltused                  1002aaa0     LIBCMT:fltused.obj
 0003:00000ab0       ??_R0?AVbad_alloc@std@@@8  1002aab0     LIBCMT:throw_bad_alloc.obj
 0003:00000acc       ??_R0?AVexception@std@@@8  1002aacc     LIBCMT:throw_bad_alloc.obj
 0003:00000ae8       ??_R0?AVbad_array_new_length@std@@@8 1002aae8     LIBCMT:throw_bad_alloc.obj
 0003:00000b10       ??_R0?AVtype_info@@@8      1002ab10     LIBCMT:std_type_info_static.obj
 0003:00000b28       ??_R0?AVbad_exception@std@@@8 1002ab28     libvcruntime:frame.obj
 0003:00000b48       ?m_bInitFailed@CAtlBaseModule@ATL@@2_NA 1002ab48     OposVariant.obj
 0003:00000b4c       ?_pPerfRegFunc@ATL@@3P6AJPAUHINSTANCE__@@@ZA 1002ab4c     OposVariant.obj
 0003:00000b50       ?_pPerfUnRegFunc@ATL@@3P6AJXZA 1002ab50     OposVariant.obj
 0003:00000b54       ?_AtlRegisterPerUser@ATL@@3_NA 1002ab54     OposVariant.obj
 0003:00000b58       ?_pAtlModule@ATL@@3PAVCAtlModule@1@A 1002ab58     OposVariant.obj
 0003:00000b5c       ?_pModule@ATL@@3PAVCComModule@1@A 1002ab5c     OposVariant.obj
 0003:00000b60       ?_AtlComModule@ATL@@3VCAtlComModule@1@A 1002ab60     OposVariant.obj
 0003:00000b88       ?_AtlWinModule@ATL@@3VCAtlWinModule@1@A 1002ab88     OposVariant.obj
 0003:00000bb4       ?m_libid@CAtlModule@ATL@@2U_GUID@@A 1002abb4     MICR.obj
 0003:00000bc4       ?_entries@?1??GetConnMap@COPOSMICR@@SAPBU_ATL_CONNMAP_ENTRY@ATL@@PAH@Z@4QBU34@B 1002abc4     MICR.obj
 0003:00000bd0       ?$TSS0@?1??GetConnMap@COPOSMICR@@SAPBU_ATL_CONNMAP_ENTRY@ATL@@PAH@Z@4HA 1002abd0     MICR.obj
 0003:00000bd8       ?_OptionsStorage@?1??__local_stdio_printf_options@@9@4_KA 1002abd8     MICR.obj
 0003:00000be0       ?pfnRegDeleteKeyEx@?1??DeleteSubKey@CRegKey@ATL@@QAEJPB_W@Z@4P6GJPAUHKEY__@@0KK@ZA 1002abe0     MICR.obj
 0003:00000be4       ?bInitialized@?1??DeleteSubKey@CRegKey@ATL@@QAEJPB_W@Z@4_NA 1002abe4     MICR.obj
 0003:00000be8       ?_Module@@3VCComModule@ATL@@A 1002abe8     MICR.obj
 0003:00000c18       ?pConnMap@?$IConnectionPointContainerImpl@VCOPOSMICR@@@ATL@@0PBU_ATL_CONNMAP_ENTRY@2@B 1002ac18     MICR.obj
 0003:00000c1c       ?s_nInstances@COPOSMICR@@1HA 1002ac1c     MICRImpl.obj
 0003:00000c20       ___scrt_current_native_startup_state 1002ac20     LIBCMT:utility.obj
 0003:00000c24       ___scrt_native_startup_lock 1002ac24     LIBCMT:utility.obj
 0003:00000f8c       __tls_index                1002af8c     LIBCMT:tlssup.obj
 0003:00000f94       ___isa_available           1002af94     LIBCMT:cpu_disp.obj
 0003:00000f98       ___favor                   1002af98     LIBCMT:cpu_disp.obj
 0003:00000f9c       ___scrt_debugger_hook_flag 1002af9c     LIBCMT:utility_desktop.obj
 0003:00000fa0       ?__type_info_root_node@@3U__type_info_node@@A 1002afa0     LIBCMT:tncleanup.obj
 0003:00000fa8       ?_OptionsStorage@?1??__local_stdio_scanf_options@@9@4_KA 1002afa8     LIBCMT:default_local_stdio_options.obj
 0003:00000fb0       ?_AtlBaseModule@ATL@@3VCAtlBaseModule@1@A 1002afb0     atls:atlbase.obj
 0003:00000fe8       ?__AtlThunkPool@@3PAT_SLIST_HEADER@@A 1002afe8     atls:atlthunk.obj
 0003:00001000       ___@@_PchSym_@00@UztvmgUPdlipUEUhUrmgvinvwrzgvUexgllohUzgohOmzgrevkilqPBACIAJCBDBUlyqiUcIGUhgwzucOlyq@4B2008FD98C1DD4 1002b000     atls:stdafx.obj
 0003:00001004       ?__WinRTOutOfMemoryExceptionCallback@@3P6GPAXXZA 1002b004     libvcruntime:ehhelpers.obj
 0003:00001008       ___pPurecall               1002b008     libvcruntime:purevirt_data.obj
 0003:00001050       ?pArgList@UnDecorator@@0PAVReplicator@@A 1002b050     libvcruntime:undname.obj
 0003:00001054       ?pZNameList@UnDecorator@@0PAVReplicator@@A 1002b054     libvcruntime:undname.obj
 0003:00001058       ?pTemplateArgList@UnDecorator@@0PAVReplicator@@A 1002b058     libvcruntime:undname.obj
 0003:0000105c       ?gName@UnDecorator@@0PBDB  1002b05c     libvcruntime:undname.obj
 0003:00001060       ?name@UnDecorator@@0PBDB   1002b060     libvcruntime:undname.obj
 0003:00001064       ?disableFlags@UnDecorator@@0KA 1002b064     libvcruntime:undname.obj
 0003:00001068       ?fExplicitTemplateParams@UnDecorator@@0_NA 1002b068     libvcruntime:undname.obj
 0003:00001069       ?fGetTemplateArgumentList@UnDecorator@@0_NA 1002b069     libvcruntime:undname.obj
 0003:0000106c       ?m_pGetParameter@UnDecorator@@0P6APADJ@ZA 1002b06c     libvcruntime:undname.obj
 0003:00001070       ?m_CHPENameOffset@UnDecorator@@0KA 1002b070     libvcruntime:undname.obj
 0003:00001074       ?m_recursionLevel@UnDecorator@@0KA 1002b074     libvcruntime:undname.obj
 0003:000010b8       ?c_exit_complete@?1???R<lambda_6e4b09c48022b2350581041d5f6b0c4c>@@QBE@XZ@4_NA 1002b0b8     libucrt:exit.obj
 0003:000011c8       __environ_table            1002b1c8     libucrt:environment_initialization.obj
 0003:000011cc       __wenviron_table           1002b1cc     libucrt:environment_initialization.obj
 0003:000011d0       ___dcrt_initial_wide_environment 1002b1d0     libucrt:environment_initialization.obj
 0003:000011d4       ___dcrt_initial_narrow_environment 1002b1d4     libucrt:environment_initialization.obj
 0003:000011d8       ___acrt_atexit_table       1002b1d8     libucrt:onexit.obj
 0003:000011e4       ___acrt_at_quick_exit_table 1002b1e4     libucrt:onexit.obj
 0003:000012d8       __nstream                  1002b2d8     libucrt:_file.obj
 0003:000012dc       ___piob                    1002b2dc     libucrt:_file.obj
 0003:000012e4       ___acrt_stdout_buffer      1002b2e4     libucrt:_sftbuf.obj
 0003:000012e8       ___acrt_stderr_buffer      1002b2e8     libucrt:_sftbuf.obj
 0003:000012ec       ___acrt_locale_changed_data 1002b2ec     libucrt:wsetlocale.obj
 0003:000012f0       ___acrt_current_locale_data 1002b2f0     libucrt:nlsdata.obj
 0003:000012f8       ___pioinfo                 1002b2f8     libucrt:ioinit.obj
 0003:000014f8       __nhandle                  1002b4f8     libucrt:ioinit.obj
 0003:00001654       __mbctype                  1002b654     libucrt:mbctype.obj
 0003:00001658       __mbcasemap                1002b658     libucrt:mbctype.obj
 0003:0000165c       ___acrt_current_multibyte_data 1002b65c     libucrt:mbctype.obj
 0003:00001668       __pgmptr                   1002b668     libucrt:argv_data.obj
 0003:0000166c       ___argc                    1002b66c     libucrt:argv_data.obj
 0003:00001670       ___argv                    1002b670     libucrt:argv_data.obj
 0003:00001674       ___wargv                   1002b674     libucrt:argv_data.obj
 0003:00001678       __acmdln                   1002b678     libucrt:argv_data.obj
 0003:0000167c       __wcmdln                   1002b67c     libucrt:argv_data.obj
 0003:00001680       ___acrt_heap               1002b680     libucrt:heap_handle.obj
 0003:0000169c       ___acrt_lconv_static_null  1002b69c     libucrt:localeconv.obj
 0003:000016a0       ___acrt_lconv_static_W_null 1002b6a0     libucrt:localeconv.obj
 0003:000016b0       ___fastflag                1002b6b0     libucrt:fp_flags.obj
 0003:000016b8       ___dyn_tls_init_callback   1002b6b8     <common>
 0003:000016bc       ___scrt_ucrt_dll_is_in_use 1002b6bc     <common>
 0003:000016c0       __pmatherr                 1002b6c0     <common>
 0003:000016c4       ___use_sse2_mathfcns       1002b6c4     <common>

 entry point at        0001:0000bd6d

 Static symbols

 0000:fffcd000       .debug$S                   10000000     OPOSMICR.exp
 0000:fffcd000       .debug$S                   10000000     advapi32:ADVAPI32.dll
 0000:fffcd000       .debug$S                   10000000     advapi32:ADVAPI32.dll
 0000:fffcd000       .debug$S                   10000000     advapi32:ADVAPI32.dll
 0000:fffcd000       .debug$S                   10000000     advapi32:ADVAPI32.dll
 0000:fffcd000       .debug$S                   10000000     advapi32:ADVAPI32.dll
 0000:fffcd000       .debug$S                   10000000     advapi32:ADVAPI32.dll
 0000:fffcd000       .debug$S                   10000000     advapi32:ADVAPI32.dll
 0000:fffcd000       .debug$S                   10000000     advapi32:ADVAPI32.dll
 0000:fffcd000       .debug$S                   10000000     advapi32:ADVAPI32.dll
 0000:fffcd000       .debug$S                   10000000     gdi32:GDI32.dll
 0000:fffcd000       .debug$S                   10000000     gdi32:GDI32.dll
 0000:fffcd000       .debug$S                   10000000     gdi32:GDI32.dll
 0000:fffcd000       .debug$S                   10000000     gdi32:GDI32.dll
 0000:fffcd000       .debug$S                   10000000     gdi32:GDI32.dll
 0000:fffcd000       .debug$S                   10000000     gdi32:GDI32.dll
 0000:fffcd000       .debug$S                   10000000     gdi32:GDI32.dll
 0000:fffcd000       .debug$S                   10000000     gdi32:GDI32.dll
 0000:fffcd000       .debug$S                   10000000     gdi32:GDI32.dll
 0000:fffcd000       .debug$S                   10000000     gdi32:GDI32.dll
 0000:fffcd000       .debug$S                   10000000     gdi32:GDI32.dll
 0000:fffcd000       .debug$S                   10000000     gdi32:GDI32.dll
 0000:fffcd000       .debug$S                   10000000     gdi32:GDI32.dll
 0000:fffcd000       .debug$S                   10000000     gdi32:GDI32.dll
 0000:fffcd000       .debug$S                   10000000     gdi32:GDI32.dll
 0000:fffcd000       .debug$S                   10000000     gdi32:GDI32.dll
 0000:fffcd000       .debug$S                   10000000     gdi32:GDI32.dll
 0000:fffcd000       .debug$S                   10000000     gdi32:GDI32.dll
 0000:fffcd000       .debug$S                   10000000     gdi32:GDI32.dll
 0000:fffcd000       .debug$S                   10000000     kernel32:KERNEL32.dll
 0000:fffcd000       .debug$S                   10000000     kernel32:KERNEL32.dll
 0000:fffcd000       .debug$S                   10000000     kernel32:KERNEL32.dll
 0000:fffcd000       .debug$S                   10000000     kernel32:KERNEL32.dll
 0000:fffcd000       .debug$S                   10000000     kernel32:KERNEL32.dll
 0000:fffcd000       .debug$S                   10000000     kernel32:KERNEL32.dll
 0000:fffcd000       .debug$S                   10000000     kernel32:KERNEL32.dll
 0000:fffcd000       .debug$S                   10000000     kernel32:KERNEL32.dll
 0000:fffcd000       .debug$S                   10000000     kernel32:KERNEL32.dll
 0000:fffcd000       .debug$S                   10000000     kernel32:KERNEL32.dll
 0000:fffcd000       .debug$S                   10000000     kernel32:KERNEL32.dll
 0000:fffcd000       .debug$S                   10000000     kernel32:KERNEL32.dll
 0000:fffcd000       .debug$S                   10000000     kernel32:KERNEL32.dll
 0000:fffcd000       .debug$S                   10000000     kernel32:KERNEL32.dll
 0000:fffcd000       .debug$S                   10000000     kernel32:KERNEL32.dll
 0000:fffcd000       .debug$S                   10000000     kernel32:KERNEL32.dll
 0000:fffcd000       .debug$S                   10000000     kernel32:KERNEL32.dll
 0000:fffcd000       .debug$S                   10000000     kernel32:KERNEL32.dll
 0000:fffcd000       .debug$S                   10000000     kernel32:KERNEL32.dll
 0000:fffcd000       .debug$S                   10000000     kernel32:KERNEL32.dll
 0000:fffcd000       .debug$S                   10000000     kernel32:KERNEL32.dll
 0000:fffcd000       .debug$S                   10000000     kernel32:KERNEL32.dll
 0000:fffcd000       .debug$S                   10000000     kernel32:KERNEL32.dll
 0000:fffcd000       .debug$S                   10000000     kernel32:KERNEL32.dll
 0000:fffcd000       .debug$S                   10000000     kernel32:KERNEL32.dll
 0000:fffcd000       .debug$S                   10000000     kernel32:KERNEL32.dll
 0000:fffcd000       .debug$S                   10000000     kernel32:KERNEL32.dll
 0000:fffcd000       .debug$S                   10000000     kernel32:KERNEL32.dll
 0000:fffcd000       .debug$S                   10000000     kernel32:KERNEL32.dll
 0000:fffcd000       .debug$S                   10000000     kernel32:KERNEL32.dll
 0000:fffcd000       .debug$S                   10000000     kernel32:KERNEL32.dll
 0000:fffcd000       .debug$S                   10000000     kernel32:KERNEL32.dll
 0000:fffcd000       .debug$S                   10000000     kernel32:KERNEL32.dll
 0000:fffcd000       .debug$S                   10000000     kernel32:KERNEL32.dll
 0000:fffcd000       .debug$S                   10000000     kernel32:KERNEL32.dll
 0000:fffcd000       .debug$S                   10000000     kernel32:KERNEL32.dll
 0000:fffcd000       .debug$S                   10000000     kernel32:KERNEL32.dll
 0000:fffcd000       .debug$S                   10000000     kernel32:KERNEL32.dll
 0000:fffcd000       .debug$S                   10000000     kernel32:KERNEL32.dll
 0000:fffcd000       .debug$S                   10000000     kernel32:KERNEL32.dll
 0000:fffcd000       .debug$S                   10000000     kernel32:KERNEL32.dll
 0000:fffcd000       .debug$S                   10000000     kernel32:KERNEL32.dll
 0000:fffcd000       .debug$S                   10000000     kernel32:KERNEL32.dll
 0000:fffcd000       .debug$S                   10000000     kernel32:KERNEL32.dll
 0000:fffcd000       .debug$S                   10000000     kernel32:KERNEL32.dll
 0000:fffcd000       .debug$S                   10000000     kernel32:KERNEL32.dll
 0000:fffcd000       .debug$S                   10000000     kernel32:KERNEL32.dll
 0000:fffcd000       .debug$S                   10000000     kernel32:KERNEL32.dll
 0000:fffcd000       .debug$S                   10000000     kernel32:KERNEL32.dll
 0000:fffcd000       .debug$S                   10000000     kernel32:KERNEL32.dll
 0000:fffcd000       .debug$S                   10000000     kernel32:KERNEL32.dll
 0000:fffcd000       .debug$S                   10000000     kernel32:KERNEL32.dll
 0000:fffcd000       .debug$S                   10000000     kernel32:KERNEL32.dll
 0000:fffcd000       .debug$S                   10000000     kernel32:KERNEL32.dll
 0000:fffcd000       .debug$S                   10000000     kernel32:KERNEL32.dll
 0000:fffcd000       .debug$S                   10000000     kernel32:KERNEL32.dll
 0000:fffcd000       .debug$S                   10000000     kernel32:KERNEL32.dll
 0000:fffcd000       .debug$S                   10000000     kernel32:KERNEL32.dll
 0000:fffcd000       .debug$S                   10000000     kernel32:KERNEL32.dll
 0000:fffcd000       .debug$S                   10000000     kernel32:KERNEL32.dll
 0000:fffcd000       .debug$S                   10000000     kernel32:KERNEL32.dll
 0000:fffcd000       .debug$S                   10000000     kernel32:KERNEL32.dll
 0000:fffcd000       .debug$S                   10000000     kernel32:KERNEL32.dll
 0000:fffcd000       .debug$S                   10000000     kernel32:KERNEL32.dll
 0000:fffcd000       .debug$S                   10000000     kernel32:KERNEL32.dll
 0000:fffcd000       .debug$S                   10000000     kernel32:KERNEL32.dll
 0000:fffcd000       .debug$S                   10000000     kernel32:KERNEL32.dll
 0000:fffcd000       .debug$S                   10000000     kernel32:KERNEL32.dll
 0000:fffcd000       .debug$S                   10000000     kernel32:KERNEL32.dll
 0000:fffcd000       .debug$S                   10000000     kernel32:KERNEL32.dll
 0000:fffcd000       .debug$S                   10000000     kernel32:KERNEL32.dll
 0000:fffcd000       .debug$S                   10000000     kernel32:KERNEL32.dll
 0000:fffcd000       .debug$S                   10000000     kernel32:KERNEL32.dll
 0000:fffcd000       .debug$S                   10000000     kernel32:KERNEL32.dll
 0000:fffcd000       .debug$S                   10000000     kernel32:KERNEL32.dll
 0000:fffcd000       .debug$S                   10000000     kernel32:KERNEL32.dll
 0000:fffcd000       .debug$S                   10000000     kernel32:KERNEL32.dll
 0000:fffcd000       .debug$S                   10000000     kernel32:KERNEL32.dll
 0000:fffcd000       .debug$S                   10000000     kernel32:KERNEL32.dll
 0000:fffcd000       .debug$S                   10000000     kernel32:KERNEL32.dll
 0000:fffcd000       .debug$S                   10000000     kernel32:KERNEL32.dll
 0000:fffcd000       .debug$S                   10000000     kernel32:KERNEL32.dll
 0000:fffcd000       .debug$S                   10000000     kernel32:KERNEL32.dll
 0000:fffcd000       .debug$S                   10000000     kernel32:KERNEL32.dll
 0000:fffcd000       .debug$S                   10000000     kernel32:KERNEL32.dll
 0000:fffcd000       .debug$S                   10000000     kernel32:KERNEL32.dll
 0000:fffcd000       .debug$S                   10000000     kernel32:KERNEL32.dll
 0000:fffcd000       .debug$S                   10000000     kernel32:KERNEL32.dll
 0000:fffcd000       .debug$S                   10000000     kernel32:KERNEL32.dll
 0000:fffcd000       .debug$S                   10000000     kernel32:KERNEL32.dll
 0000:fffcd000       .debug$S                   10000000     kernel32:KERNEL32.dll
 0000:fffcd000       .debug$S                   10000000     kernel32:KERNEL32.dll
 0000:fffcd000       .debug$S                   10000000     kernel32:KERNEL32.dll
 0000:fffcd000       .debug$S                   10000000     kernel32:KERNEL32.dll
 0000:fffcd000       .debug$S                   10000000     kernel32:KERNEL32.dll
 0000:fffcd000       .debug$S                   10000000     kernel32:KERNEL32.dll
 0000:fffcd000       .debug$S                   10000000     kernel32:KERNEL32.dll
 0000:fffcd000       .debug$S                   10000000     kernel32:KERNEL32.dll
 0000:fffcd000       .debug$S                   10000000     kernel32:KERNEL32.dll
 0000:fffcd000       .debug$S                   10000000     kernel32:KERNEL32.dll
 0000:fffcd000       .debug$S                   10000000     kernel32:KERNEL32.dll
 0000:fffcd000       .debug$S                   10000000     kernel32:KERNEL32.dll
 0000:fffcd000       .debug$S                   10000000     kernel32:KERNEL32.dll
 0000:fffcd000       .debug$S                   10000000     kernel32:KERNEL32.dll
 0000:fffcd000       .debug$S                   10000000     kernel32:KERNEL32.dll
 0000:fffcd000       .debug$S                   10000000     kernel32:KERNEL32.dll
 0000:fffcd000       .debug$S                   10000000     ole32:ole32.dll
 0000:fffcd000       .debug$S                   10000000     ole32:ole32.dll
 0000:fffcd000       .debug$S                   10000000     ole32:ole32.dll
 0000:fffcd000       .debug$S                   10000000     ole32:ole32.dll
 0000:fffcd000       .debug$S                   10000000     ole32:ole32.dll
 0000:fffcd000       .debug$S                   10000000     ole32:ole32.dll
 0000:fffcd000       .debug$S                   10000000     ole32:ole32.dll
 0000:fffcd000       .debug$S                   10000000     ole32:ole32.dll
 0000:fffcd000       .debug$S                   10000000     ole32:ole32.dll
 0000:fffcd000       .debug$S                   10000000     ole32:ole32.dll
 0000:fffcd000       .debug$S                   10000000     ole32:ole32.dll
 0000:fffcd000       .debug$S                   10000000     ole32:ole32.dll
 0000:fffcd000       .debug$S                   10000000     ole32:ole32.dll
 0000:fffcd000       .debug$S                   10000000     ole32:ole32.dll
 0000:fffcd000       .debug$S                   10000000     oleaut32:OLEAUT32.dll
 0000:fffcd000       .debug$S                   10000000     oleaut32:OLEAUT32.dll
 0000:fffcd000       .debug$S                   10000000     oleaut32:OLEAUT32.dll
 0000:fffcd000       .debug$S                   10000000     oleaut32:OLEAUT32.dll
 0000:fffcd000       .debug$S                   10000000     oleaut32:OLEAUT32.dll
 0000:fffcd000       .debug$S                   10000000     oleaut32:OLEAUT32.dll
 0000:fffcd000       .debug$S                   10000000     oleaut32:OLEAUT32.dll
 0000:fffcd000       .debug$S                   10000000     oleaut32:OLEAUT32.dll
 0000:fffcd000       .debug$S                   10000000     oleaut32:OLEAUT32.dll
 0000:fffcd000       .debug$S                   10000000     oleaut32:OLEAUT32.dll
 0000:fffcd000       .debug$S                   10000000     oleaut32:OLEAUT32.dll
 0000:fffcd000       .debug$S                   10000000     oleaut32:OLEAUT32.dll
 0000:fffcd000       .debug$S                   10000000     oleaut32:OLEAUT32.dll
 0000:fffcd000       .debug$S                   10000000     oleaut32:OLEAUT32.dll
 0000:fffcd000       .debug$S                   10000000     oleaut32:OLEAUT32.dll
 0000:fffcd000       .debug$S                   10000000     oleaut32:OLEAUT32.dll
 0000:fffcd000       .debug$S                   10000000     user32:USER32.dll
 0000:fffcd000       .debug$S                   10000000     user32:USER32.dll
 0000:fffcd000       .debug$S                   10000000     user32:USER32.dll
 0000:fffcd000       .debug$S                   10000000     user32:USER32.dll
 0000:fffcd000       .debug$S                   10000000     user32:USER32.dll
 0000:fffcd000       .debug$S                   10000000     user32:USER32.dll
 0000:fffcd000       .debug$S                   10000000     user32:USER32.dll
 0000:fffcd000       .debug$S                   10000000     user32:USER32.dll
 0000:fffcd000       .debug$S                   10000000     user32:USER32.dll
 0000:fffcd000       .debug$S                   10000000     user32:USER32.dll
 0000:fffcd000       .debug$S                   10000000     user32:USER32.dll
 0000:fffcd000       .debug$S                   10000000     user32:USER32.dll
 0000:fffcd000       .debug$S                   10000000     user32:USER32.dll
 0000:fffcd000       .debug$S                   10000000     user32:USER32.dll
 0000:fffcd000       .debug$S                   10000000     user32:USER32.dll
 0000:fffcd000       .debug$S                   10000000     user32:USER32.dll
 0000:fffcd000       .debug$S                   10000000     user32:USER32.dll
 0000:fffcd000       .debug$S                   10000000     user32:USER32.dll
 0000:fffcd000       .debug$S                   10000000     user32:USER32.dll
 0000:fffcd000       .debug$S                   10000000     user32:USER32.dll
 0000:fffcd000       .debug$S                   10000000     user32:USER32.dll
 0000:fffcd000       .debug$S                   10000000     user32:USER32.dll
 0000:fffcd000       .debug$S                   10000000     user32:USER32.dll
 0000:fffcd000       .debug$S                   10000000     user32:USER32.dll
 0000:fffcd000       .debug$S                   10000000     user32:USER32.dll
 0000:fffcd000       .debug$S                   10000000     user32:USER32.dll
 0000:fffcd000       .debug$S                   10000000     user32:USER32.dll
 0000:fffcd000       .debug$S                   10000000     user32:USER32.dll
 0000:fffcd000       .debug$S                   10000000     user32:USER32.dll
 0000:fffcd000       .debug$S                   10000000     user32:USER32.dll
 0000:fffcd000       .debug$S                   10000000     user32:USER32.dll
 0000:fffcd000       .debug$S                   10000000     user32:USER32.dll
 0000:fffcd000       .debug$S                   10000000     user32:USER32.dll
 0000:fffcd000       .debug$S                   10000000     user32:USER32.dll
 0000:fffcd000       .debug$S                   10000000     user32:USER32.dll
 0001:00000000       ??__E_AtlComModule@ATL@@YAXXZ 10001000 f   OposVariant.obj
 0001:00000016       ??__E_AtlWinModule@ATL@@YAXXZ 10001016 f   OposVariant.obj
 0001:0000002c       ??__E?pConnMap@?$IConnectionPointContainerImpl@VCOPOSMICR@@@ATL@@0PBU_ATL_CONNMAP_ENTRY@2@B@@YAXXZ 1000102c f   MICR.obj
 0001:0000003a       ??__E_Module@@YAXXZ        1000103a f   MICR.obj
 0001:00000064       ??__E_AtlBaseModule@ATL@@YAXXZ 10001064 f   atls:atlbase.obj
 0001:00000ebc       $LN24                      10001ebc     MICR.obj
 0001:000058b0       $LN48                      100068b0     MICR.obj
 0001:000058c8       $LN47                      100068c8     MICR.obj
 0001:00007a75       $LN38                      10008a75     MICR.obj
 0001:00007a8d       $LN37                      10008a8d     MICR.obj
 0001:0000917d       $LN76                      1000a17d     MICR.obj
 0001:00009195       $LN75                      1000a195     MICR.obj
 0001:0000954e       _memcpy_s                  1000a54e f   MICR.obj
 0001:0000b200       ?find_pe_section@@YAPAU_IMAGE_SECTION_HEADER@@QAEI@Z 1000c200 f   LIBCMT:utility.obj
 0001:0000b51f       ?__scrt_initialize_thread_safe_statics@@YAHXZ 1000c51f f   LIBCMT:thread_safe_statics.obj
 0001:0000b546       ?__scrt_initialize_thread_safe_statics_platform_specific@@YAXXZ 1000c546 f   LIBCMT:thread_safe_statics.obj
 0001:0000b5c8       ?__scrt_uninitialize_thread_safe_statics@@YAXXZ 1000c5c8 f   LIBCMT:thread_safe_statics.obj
 0001:0000b937       __catch$??2@YAPAXIABUnothrow_t@std@@@Z$0 1000c937 f   LIBCMT:new_scalar_nothrow.obj
 0001:0000b970       $$000000                   1000c970     LIBCMT:sehprolg4gs.obj
 0001:0000b9d0       $$000000                   1000c9d0     LIBCMT:alloca16.obj
 0001:0000ba00       $$000000                   1000ca00     LIBCMT:chkstk.obj
 0001:0000ba2d       ?dllmain_crt_dispatch@@YGHQAUHINSTANCE__@@KQAX@Z 1000ca2d f   LIBCMT:dll_dllmain.obj
 0001:0000ba80       ?dllmain_crt_process_attach@@YAHQAUHINSTANCE__@@QAX@Z 1000ca80 f   LIBCMT:dll_dllmain.obj
 0001:0000bb87       ?dllmain_crt_process_detach@@YAH_N@Z 1000cb87 f   LIBCMT:dll_dllmain.obj
 0001:0000bc37       ?dllmain_dispatch@@YAHQAUHINSTANCE__@@KQAX@Z 1000cc37 f   LIBCMT:dll_dllmain.obj
 0001:0000bd42       ?dllmain_raw@@YGHQAUHINSTANCE__@@KQAX@Z 1000cd42 f   LIBCMT:dll_dllmain.obj
 0001:0000c0c0       $$000000                   1000d0c0     LIBCMT:sehprolg4.obj
 0001:0000c11c       ___get_entropy             1000d11c f   LIBCMT:gs_support.obj
 0001:0000c413       ??$GetProcAddressAll@P6GP6GJPAUHWND__@@IIJ@ZPAUAtlThunkData_t@@@Z@@YAP6GP6GJPAUHWND__@@IIJ@ZPAUAtlThunkData_t@@@ZPAP6GP6GJ0IIJ@Z1@Z@Z 1000d413 f   atls:atlthunk.obj
 0001:0000c413       ??$GetProcAddressAll@P6GPAUAtlThunkData_t@@XZ@@YAP6GPAUAtlThunkData_t@@XZPAP6GPAU0@XZ@Z 1000d413 f   atls:atlthunk.obj
 0001:0000c413       ??$GetProcAddressAll@P6GXPAUAtlThunkData_t@@@Z@@YAP6GXPAUAtlThunkData_t@@@ZPAP6GX0@Z@Z 1000d413 f   atls:atlthunk.obj
 0001:0000c413       ??$GetProcAddressAll@P6GXPAUAtlThunkData_t@@PAXI@Z@@YAP6GXPAUAtlThunkData_t@@PAXI@ZPAP6GX01I@Z@Z 1000d413 f   atls:atlthunk.obj
 0001:0000c4c3       ?GetProcAddressSingle@@YA_NPAUHINSTANCE__@@PBDPAPAX@Z 1000d4c3 f   atls:atlthunk.obj
 0001:0000c615       ?__InitializeThunkPool@@YAHXZ 1000d615 f   atls:atlthunk.obj
 0001:0000ca60       _ValidateLocalCookies      1000da60 f   libvcruntime:chandler4.obj
 0001:0000da8a       $LN1250                    1000ea8a     libvcruntime:memcmp.obj
 0001:0000db10       $$000000                   1000eb10     libvcruntime:memcpy.obj
 0001:0000dd74       TrailingUpVec              1000ed74     libvcruntime:memcpy.obj
 0001:0000de20       TrailingDownVec            1000ee20     libvcruntime:memcpy.obj
 0001:0000e090       $$000000                   1000f090     libvcruntime:memset.obj
 0001:0000e693       ?_FilterSetCurrentException@@YAKPAU_EXCEPTION_POINTERS@@E@Z 1000f693 f   libvcruntime:ehhelpers.obj
 0001:0000e8e0       $$000000                   1000f8e0     libvcruntime:memmove.obj
 0001:0000eb44       TrailingUpVec              1000fb44     libvcruntime:memmove.obj
 0001:0000ebf0       TrailingDownVec            1000fbf0     libvcruntime:memmove.obj
 0001:0000ee60       $$000000                   1000fe60     libvcruntime:exsup4.obj
 0001:0000eef0       __unwind_handler4          1000fef0 f   libvcruntime:exsup4.obj
 0001:0000f1cf       ??$BuildCatchObjectHelperInternal@V__FrameHandler3@@@@YAHPAUEHExceptionRecord@@PAXPBU_s_HandlerType@@PBU_s_CatchableType@@@Z 100101cf f   libvcruntime:frame.obj
 0001:0000f30d       ??$BuildCatchObjectInternal@V__FrameHandler3@@@@YAXPAUEHExceptionRecord@@PAXPBU_s_HandlerType@@PBU_s_CatchableType@@@Z 1001030d f   libvcruntime:frame.obj
 0001:0000f3a6       ??$CatchIt@V__FrameHandler3@@@@YAXPAUEHExceptionRecord@@PAUEHRegistrationNode@@PAU_CONTEXT@@PAXPBU_s_FuncInfo@@PBU_s_HandlerType@@PBU_s_CatchableType@@PBU_s_TryBlockMapEntry@@H1EE@Z 100103a6 f   libvcruntime:frame.obj
 0001:0000f426       ??$FindHandler@V__FrameHandler3@@@@YAXPAUEHExceptionRecord@@PAUEHRegistrationNode@@PAU_CONTEXT@@PAXPBU_s_FuncInfo@@EH1@Z 10010426 f   libvcruntime:frame.obj
 0001:0000f7dc       ??$FindHandlerForForeignException@V__FrameHandler3@@@@YAXPAUEHExceptionRecord@@PAUEHRegistrationNode@@PAU_CONTEXT@@PAXPBU_s_FuncInfo@@HH1@Z 100107dc f   libvcruntime:frame.obj
 0001:0000faf4       ?CallCatchBlock@@YAPAXPAUEHExceptionRecord@@PAUEHRegistrationNode@@PAU_CONTEXT@@PBU_s_FuncInfo@@PAXHK@Z 10010af4 f   libvcruntime:frame.obj
 0001:0000fcb8       ?CallUnexpected@@YAXPBU_s_ESTypeList@@@Z 10010cb8 f   libvcruntime:frame.obj
 0001:0000fcd8       __catch$?CallUnexpected@@YAXPBU_s_ESTypeList@@@Z$0 10010cd8 f   libvcruntime:frame.obj
 0001:0000fcf2       ?ExFilterRethrow@@YAHPAU_EXCEPTION_POINTERS@@@Z 10010cf2 f   libvcruntime:frame.obj
 0001:0000fe3c       ?IsInExceptionSpec@@YAEPAUEHExceptionRecord@@PBU_s_ESTypeList@@@Z 10010e3c f   libvcruntime:frame.obj
 0001:0000ff10       $$000000                   10010f10     libvcruntime:lowhelpr.obj
 0001:0000ff60       $$000000                   10010f60     libvcruntime:exsup.obj
 0001:0000ff81       __unwind_handler           10010f81 f   libvcruntime:exsup.obj
 0001:0001009e       ?try_get_first_available_module@@YAPAUHINSTANCE__@@QBW4module_id@?A0x9d0f8d90@@0@Z 1001109e f   libvcruntime:winapi_downlevel.obj
 0001:00010138       ?try_get_function@@YAPAXW4function_id@?A0x9d0f8d90@@QBDQBW4module_id@2@2@Z 10011138 f   libvcruntime:winapi_downlevel.obj
 0001:000107c2       ??$common_tcsncpy_s@_W@@YAHQA_WIQB_WI@Z 100117c2 f   libucrt:wcsncpy_s.obj
 0001:00010898       ??$common_vsprintf@Vformat_validation_base@__crt_stdio_output@@_W@@YAH_KQA_WIQB_WQAU__crt_locale_pointers@@QAD@Z 10011898 f   libucrt:output.obj
 0001:00010a1f       ??$common_vsprintf_s@_W@@YAH_KQA_WIQB_WQAU__crt_locale_pointers@@QAD@Z 10011a1f f   libucrt:output.obj
 0001:00011183       $LN48                      10012183     libucrt:output.obj
 0001:0001168c       $LN18                      1001268c     libucrt:output.obj
 0001:000116a0       $LN17                      100126a0     libucrt:output.obj
 0001:00011efb       ??$?RV<lambda_03b1d95aef87969028cfba75ccab2455>@@AAV<lambda_6e4b09c48022b2350581041d5f6b0c4c>@@V<lambda_22bdf7517842c4b3e53723af5aa32b9e>@@@?$__crt_seh_guarded_call@X@@QAEX$$QAV<lambda_03b1d95aef87969028cfba75ccab2455>@@AAV<lambda_6e4b09c48022b2350581041d5f6b0c4c>@@$$QAV<lambda_22bdf7517842c4b3e53723af5aa32b9e>@@@Z 10012efb f   libucrt:exit.obj
 0001:00011f48       ??R<lambda_6e4b09c48022b2350581041d5f6b0c4c>@@QBE@XZ 10012f48 f   libucrt:exit.obj
 0001:00012022       ?atexit_exception_filter@@YAHK@Z 10013022 f   libucrt:exit.obj
 0001:00012035       ?common_exit@@YAXHW4_crt_exit_cleanup_mode@@W4_crt_exit_return_mode@@@Z 10013035 f   libucrt:exit.obj
 0001:00012099       ?exit_or_terminate_process@@YAXI@Z 10013099 f   libucrt:exit.obj
 0001:000120db       ?is_managed_app@@YA_NXZ    100130db f   libucrt:exit.obj
 0001:0001211e       ?try_cor_exit_process@@YAXI@Z 1001311e f   libucrt:exit.obj
 0001:000121ac       ??$common_configure_argv@D@@YAHW4_crt_argv_mode@@@Z 100131ac f   libucrt:argv_parsing.obj
 0001:000122e2       ??$parse_command_line@D@@YAXPADPAPAD0PAI2@Z 100132e2 f   libucrt:argv_parsing.obj
 0001:000124b0       ??$common_initialize_environment_nolock@D@@YAHXZ 100134b0 f   libucrt:environment_initialization.obj
 0001:00012503       ??$create_environment@D@@YAQAPADQAD@Z 10013503 f   libucrt:environment_initialization.obj
 0001:000125d3       ??$free_environment@D@@YAXQAPAD@Z 100135d3 f   libucrt:environment_initialization.obj
 0001:000125d3       ??$free_environment@_W@@YAXQAPA_W@Z 100135d3 f   libucrt:environment_initialization.obj
 0001:0001262b       ??$uninitialize_environment_internal@D@@YAXAAPAPAD@Z 1001362b f   libucrt:environment_initialization.obj
 0001:00012646       ??$uninitialize_environment_internal@_W@@YAXAAPAPA_W@Z 10013646 f   libucrt:environment_initialization.obj
 0001:0001269d       ??$?RV<lambda_69a2805e680e0e292e8ba93315fe43a8>@@AAV<lambda_f03950bc5685219e0bcd2087efbe011e>@@V<lambda_03fcd07e894ec930e3f35da366ca99d6>@@@?$__crt_seh_guarded_call@H@@QAEH$$QAV<lambda_69a2805e680e0e292e8ba93315fe43a8>@@AAV<lambda_f03950bc5685219e0bcd2087efbe011e>@@$$QAV<lambda_03fcd07e894ec930e3f35da366ca99d6>@@@Z 1001369d f   libucrt:onexit.obj
 0001:000126f8       ??$?RV<lambda_8e746cf0007f6ed984d6f78af1fec997>@@AAV<lambda_22ebabd17bc4fa466a2aca6d8deb888d>@@V<lambda_18ed0c0b38a6dc0daf1e7ac6d6adf05e>@@@?$__crt_seh_guarded_call@H@@QAEH$$QAV<lambda_8e746cf0007f6ed984d6f78af1fec997>@@AAV<lambda_22ebabd17bc4fa466a2aca6d8deb888d>@@$$QAV<lambda_18ed0c0b38a6dc0daf1e7ac6d6adf05e>@@@Z 100136f8 f   libucrt:onexit.obj
 0001:00012772       ??R<lambda_22ebabd17bc4fa466a2aca6d8deb888d>@@QBEHXZ 10013772 f   libucrt:onexit.obj
 0001:0001289b       ??R<lambda_f03950bc5685219e0bcd2087efbe011e>@@QBEHXZ 1001389b f   libucrt:onexit.obj
 0001:00012a14       _initialize_global_variables 10013a14 f   libucrt:initialization.obj
 0001:00012a21       _initialize_c              10013a21 f   libucrt:initialization.obj
 0001:00012a3b       _initialize_environment    10013a3b f   libucrt:initialization.obj
 0001:00012a3b       _initialize_global_state_isolation 10013a3b f   libucrt:initialization.obj
 0001:00012a3b       _report_memory_leaks       10013a3b f   libucrt:initialization.obj
 0001:00012a3b       _uninitialize_c            10013a3b f   libucrt:initialization.obj
 0001:00012a3b       _uninitialize_global_state_isolation 10013a3b f   libucrt:initialization.obj
 0001:00012a3e       _uninitialize_environment  10013a3e f   libucrt:initialization.obj
 0001:00012a46       _initialize_pointers       10013a46 f   libucrt:initialization.obj
 0001:00012a74       _uninitialize_vcruntime    10013a74 f   libucrt:initialization.obj
 0001:00012a7d       _uninitialize_allocated_memory 10013a7d f   libucrt:initialization.obj
 0001:00012a94       _uninitialize_allocated_io_buffers 10013a94 f   libucrt:initialization.obj
 0001:00012ae4       ??R<lambda_af42a3ee9806e9a7305d451646e05244>@@QBEXAAPAU__crt_multibyte_data@@@Z 10013ae4 f   libucrt:initialization.obj
 0001:000133d0       $$000000                   100143d0     libucrt:strncmp.obj
 0001:000134bc       ??$?RV<lambda_15ade71b0218206bbe3333a0c9b79046>@@AAV<lambda_da44e0f8b0f19ba52fefafb335991732>@@V<lambda_207f2d024fc103971653565357d6cd41>@@@?$__crt_seh_guarded_call@X@@QAEX$$QAV<lambda_15ade71b0218206bbe3333a0c9b79046>@@AAV<lambda_da44e0f8b0f19ba52fefafb335991732>@@$$QAV<lambda_207f2d024fc103971653565357d6cd41>@@@Z 100144bc f   libucrt:per_thread_data.obj
 0001:0001350e       ??$?RV<lambda_38edbb1296d33220d7e4dd0ed76b244a>@@AAV<lambda_5ce1d447e08cb34b2473517608e21441>@@V<lambda_fb385d3da700c9147fc39e65dd577a8c>@@@?$__crt_seh_guarded_call@X@@QAEX$$QAV<lambda_38edbb1296d33220d7e4dd0ed76b244a>@@AAV<lambda_5ce1d447e08cb34b2473517608e21441>@@$$QAV<lambda_fb385d3da700c9147fc39e65dd577a8c>@@@Z 1001450e f   libucrt:per_thread_data.obj
 0001:00013579       ??$?RV<lambda_6affb1475c98b40b75cdec977db92e3c>@@AAV<lambda_b8d4b9c228a6ecc3f80208dbb4b4a104>@@V<lambda_608742c3c92a14382c1684fc64f96c88>@@@?$__crt_seh_guarded_call@X@@QAEX$$QAV<lambda_6affb1475c98b40b75cdec977db92e3c>@@AAV<lambda_b8d4b9c228a6ecc3f80208dbb4b4a104>@@$$QAV<lambda_608742c3c92a14382c1684fc64f96c88>@@@Z 10014579 f   libucrt:per_thread_data.obj
 0001:000135ce       ??$?RV<lambda_a7e850c220f1c8d1e6efeecdedd162c6>@@AAV<lambda_46720907175c18b6c9d2717bc0d2d362>@@V<lambda_9048902d66e8d99359bc9897bbb930a8>@@@?$__crt_seh_guarded_call@X@@QAEX$$QAV<lambda_a7e850c220f1c8d1e6efeecdedd162c6>@@AAV<lambda_46720907175c18b6c9d2717bc0d2d362>@@$$QAV<lambda_9048902d66e8d99359bc9897bbb930a8>@@@Z 100145ce f   libucrt:per_thread_data.obj
 0001:00013628       ?construct_ptd@@YAXQAU__acrt_ptd@@QAPAU__crt_locale_data@@@Z 10014628 f   libucrt:per_thread_data.obj
 0001:000136c1       ?destroy_fls@@YGXPAX@Z     100146c1 f   libucrt:per_thread_data.obj
 0001:000136e2       ?destroy_ptd@@YAXQAU__acrt_ptd@@@Z 100146e2 f   libucrt:per_thread_data.obj
 0001:000137af       ?replace_current_thread_locale_nolock@@YAXQAU__acrt_ptd@@QAU__crt_locale_data@@@Z 100147af f   libucrt:per_thread_data.obj
 0001:00013bbf       ?try_get_AreFileApisANSI@@YAP6GHXZXZ 10014bbf f   libucrt:winapi_thunks.obj
 0001:00013bd9       ?try_get_LCMapStringEx@@YAP6GHPB_WK0HPA_WHPAU_nlsversioninfo@@PAXJ@ZXZ 10014bd9 f   libucrt:winapi_thunks.obj
 0001:00013bf3       ?try_get_LocaleNameToLCID@@YAP6GKPB_WK@ZXZ 10014bf3 f   libucrt:winapi_thunks.obj
 0001:00013c0d       ?try_get_first_available_module@@YAPAUHINSTANCE__@@QBW4module_id@?A0x391cf84c@@0@Z 10014c0d f   libucrt:winapi_thunks.obj
 0001:00013cd4       ?try_get_function@@YAPAXW4function_id@?A0x391cf84c@@QBDQBW4module_id@2@2@Z 10014cd4 f   libucrt:winapi_thunks.obj
 0001:00014437       ?fe_to_nearest@@YA_NQBN_KF@Z 10015437 f   libucrt:cvt.obj
 0001:000144da       ?fp_format_a@@YAHQBNPADIQADIH_NIQAU__crt_locale_pointers@@W4__acrt_rounding_mode@@@Z 100154da f   libucrt:cvt.obj
 0001:000147e9       ?fp_format_e@@YAHQBNQADI1IH_NIQAU__crt_locale_pointers@@W4__acrt_rounding_mode@@@Z 100157e9 f   libucrt:cvt.obj
 0001:00014891       ?fp_format_e_internal@@YAHQADIH_NIQAU_strflt@@1QAU__crt_locale_pointers@@@Z 10015891 f   libucrt:cvt.obj
 0001:000149d9       ?fp_format_f@@YAHQBNQADI1IHQAU__crt_locale_pointers@@W4__acrt_rounding_mode@@@Z 100159d9 f   libucrt:cvt.obj
 0001:00014a6a       ?fp_format_f_internal@@YAHQADIHQAU_strflt@@_NQAU__crt_locale_pointers@@@Z 10015a6a f   libucrt:cvt.obj
 0001:00014b62       ?fp_format_g@@YAHQBNQADI1IH_NIQAU__crt_locale_pointers@@@Z 10015b62 f   libucrt:cvt.obj
 0001:00014c2b       ?fp_format_nan_or_infinity@@YAHW4__acrt_fp_class@@_NPADI1@Z 10015c2b f   libucrt:cvt.obj
 0001:00014cc0       ?shift_bytes@@YAXQADI0H@Z  10015cc0 f   libucrt:cvt.obj
 0001:00014cf4       ?should_round_up@@YA_NQBN_KFW4__acrt_rounding_mode@@@Z 10015cf4 f   libucrt:cvt.obj
 0001:0001505d       ??$?RV<lambda_e5124f882df8998aaf41531e079ba474>@@AAV<lambda_3e16ef9562a7dcce91392c22ab16ea36>@@V<lambda_e25ca0880e6ef98be67edffd8c599615>@@@?$__crt_seh_guarded_call@X@@QAEX$$QAV<lambda_e5124f882df8998aaf41531e079ba474>@@AAV<lambda_3e16ef9562a7dcce91392c22ab16ea36>@@$$QAV<lambda_e25ca0880e6ef98be67edffd8c599615>@@@Z 1001605d f   libucrt:wsetlocale.obj
 0001:000150fd       ?initialize_inherited_file_handles_nolock@@YAXXZ 100160fd f   libucrt:ioinit.obj
 0001:000151b3       ?initialize_stdio_handles_nolock@@YAXXZ 100161b3 f   libucrt:ioinit.obj
 0001:000153c4       ?<lambda_invoker_cdecl>@<lambda_838c7f62c73c983481e27c09e84b0b5d>@@CAHPBX0@Z 100163c4 f   libucrt:argv_wildcards.obj
 0001:000153dc       ??$__acrt_convert_wcs_mbs_cp@D_WV<lambda_62f6974d9771e494a5ea317cc32e971c>@@U__crt_win32_buffer_internal_dynamic_resizing@@@@YAHQBDAAV?$__crt_win32_buffer@_WU__crt_win32_buffer_internal_dynamic_resizing@@@@ABV<lambda_62f6974d9771e494a5ea317cc32e971c>@@I@Z 100163dc f   libucrt:argv_wildcards.obj
 0001:0001548e       ??$__acrt_convert_wcs_mbs_cp@_WDV<lambda_28bda7af82a03b66c1cb3803a755f95d>@@U__crt_win32_buffer_internal_dynamic_resizing@@@@YAHQB_WAAV?$__crt_win32_buffer@DU__crt_win32_buffer_internal_dynamic_resizing@@@@ABV<lambda_28bda7af82a03b66c1cb3803a755f95d>@@I@Z 1001648e f   libucrt:argv_wildcards.obj
 0001:0001557a       ??$common_expand_argv_wildcards@D@@YAHQAPADQAPAPAD@Z 1001657a f   libucrt:argv_wildcards.obj
 0001:00015769       ??$copy_and_add_argument_to_buffer@D@@YAHQBD0IAAV?$argument_list@D@?A0x5f5c8891@@@Z 10016769 f   libucrt:argv_wildcards.obj
 0001:0001581a       ??$expand_argument_wildcards@D@@YAHQAD0AAV?$argument_list@D@?A0x5f5c8891@@@Z 1001681a f   libucrt:argv_wildcards.obj
 0001:00015b64       ?expand_if_necessary@?$argument_list@D@?A0x5f5c8891@@AAEHXZ 10016b64 f   libucrt:argv_wildcards.obj
 0001:00015bf6       ??$__acrt_convert_wcs_mbs_cp@_WDV<lambda_0fec1a7b3f42a53036604e18c2d5e07e>@@U__crt_win32_buffer_no_resizing@@@@YAHQB_WAAV?$__crt_win32_buffer@DU__crt_win32_buffer_no_resizing@@@@ABV<lambda_0fec1a7b3f42a53036604e18c2d5e07e>@@I@Z 10016bf6 f   libucrt:getmodulefilenamea.obj
 0001:00015d99       ??$?RV<lambda_ceb1ee4838e85a9d631eb091e2fbe199>@@AAV<lambda_ae742caa10f662c28703da3d2ea5e57e>@@V<lambda_cd08b5d6af4937fe54fc07d0c9bf6b37>@@@?$__crt_seh_guarded_call@X@@QAEX$$QAV<lambda_ceb1ee4838e85a9d631eb091e2fbe199>@@AAV<lambda_ae742caa10f662c28703da3d2ea5e57e>@@$$QAV<lambda_cd08b5d6af4937fe54fc07d0c9bf6b37>@@@Z 10016d99 f   libucrt:mbctype.obj
 0001:00015de6       ??R<lambda_ae742caa10f662c28703da3d2ea5e57e>@@QBEXXZ 10016de6 f   libucrt:mbctype.obj
 0001:00015e69       ?CPtoLocaleName@@YAPB_WH@Z 10016e69 f   libucrt:mbctype.obj
 0001:00015ea7       ?getSystemCP@@YAHH@Z       10016ea7 f   libucrt:mbctype.obj
 0001:00015f18       ?setSBCS@@YAXPAU__crt_multibyte_data@@@Z 10016f18 f   libucrt:mbctype.obj
 0001:00015f7d       ?setSBUpLow@@YAXPAU__crt_multibyte_data@@@Z 10016f7d f   libucrt:mbctype.obj
 0001:000160fd       ?setmbcp_internal@@YAHH_NQAU__acrt_ptd@@QAPAU__crt_multibyte_data@@@Z 100170fd f   libucrt:mbctype.obj
 0001:00016211       ?update_thread_multibyte_data_internal@@YAPAU__crt_multibyte_data@@QAU__acrt_ptd@@QAPAU1@@Z 10017211 f   libucrt:mbctype.obj
 0001:000164ff       _memcpy_s                  100174ff f   libucrt:cfout.obj
 0001:000164ff       _memcpy_s                  100174ff f   libucrt:mbctype.obj
 0001:00016580       ?x_ismbbtype_l@@YAHPAU__crt_locale_pointers@@IHH@Z 10017580 f   libucrt:ismbbyte.obj
 0001:0001673b       ?find_end_of_double_null_terminated_sequence@@YAPB_WQB_W@Z 1001773b f   libucrt:get_environment_from_os.obj
 0001:000168aa       ??$?RV<lambda_cbab9ec6f41b0180b23cc171c22676b0>@@AAV<lambda_44731a7d0e6d81c3e6aa82d741081786>@@V<lambda_4b292cb8dd18144e164572427af410ab>@@@?$__crt_seh_guarded_call@P6AXH@Z@@QAEP6AXH@Z$$QAV<lambda_cbab9ec6f41b0180b23cc171c22676b0>@@AAV<lambda_44731a7d0e6d81c3e6aa82d741081786>@@$$QAV<lambda_4b292cb8dd18144e164572427af410ab>@@@Z 100178aa f   libucrt:signal.obj
 0001:0001690e       ?get_global_action_nolock@@YAPAP6AXH@ZH@Z 1001790e f   libucrt:signal.obj
 0001:00016950       ?siglookup@@YAPAU__crt_signal_action_t@@HQAU1@@Z 10017950 f   libucrt:signal.obj
 0001:00016c09       ??$?RV<lambda_2866be3712abc81a800a822484c830d8>@@AAV<lambda_39ca0ed439415581b5b15c265174cece>@@V<lambda_2b24c74d71094a6cd0cb82e44167d71b>@@@?$__crt_seh_guarded_call@X@@QAEX$$QAV<lambda_2866be3712abc81a800a822484c830d8>@@AAV<lambda_39ca0ed439415581b5b15c265174cece>@@$$QAV<lambda_2b24c74d71094a6cd0cb82e44167d71b>@@@Z 10017c09 f   libucrt:fflush.obj
 0001:00016c95       ??$?RV<lambda_2cc53f568c5a2bb6f192f930a45d44ea>@@AAV<lambda_ab61a845afdef5b7c387490eaf3616ee>@@V<lambda_c2ffc0b7726aa6be21d5f0026187e748>@@@?$__crt_seh_guarded_call@X@@QAEX$$QAV<lambda_2cc53f568c5a2bb6f192f930a45d44ea>@@AAV<lambda_ab61a845afdef5b7c387490eaf3616ee>@@$$QAV<lambda_c2ffc0b7726aa6be21d5f0026187e748>@@@Z 10017c95 f   libucrt:fflush.obj
 0001:00016d41       ?common_flush_all@@YAH_N@Z 10017d41 f   libucrt:fflush.obj
 0001:00016d8e       ?common_flush_all_should_try_to_flush_stream@@YA_NV__crt_stdio_stream@@QAH@Z 10017d8e f   libucrt:fflush.obj
 0001:00016dc1       ?is_stream_flushable_or_commitable@@YA_NJ@Z 10017dc1 f   libucrt:fflush.obj
 0001:000172ca       ?GetTableIndexFromLocaleName@@YAHPB_W@Z 100182ca f   libucrt:lcidtoname_downlevel.obj
 0001:00017380       ??R<lambda_3d301b9e52f5099be73030e1f0bf487e>@@QBEIPBD@Z 10018380 f   libucrt:mbrtowc.obj
 0001:00017506       ?should_round_up@@YA_NQBDHW4__acrt_has_trailing_digits@@W4__acrt_rounding_mode@@@Z 10018506 f   libucrt:_fptostr.obj
 0001:000192a4       ?free_crt_array_internal@@YAXQAPBXI@Z 1001a2a4 f   libucrt:inittime.obj
 0001:00019c6e       ??$common_tcsncpy_s@D@@YAHQADIQBDI@Z 1001ac6e f   libucrt:strncpy_s.obj
 0001:00019d30       $$000000                   1001ad30     libucrt:strpbrk.obj
 0001:00019e14       ?__acrt_LCMapStringA_stat@@YAHPAU__crt_locale_pointers@@PB_WKPBDHPADHHH@Z 1001ae14 f   libucrt:lcmapstringa.obj
 0001:0001a047       ?initialize_multibyte@@YAHXZ 1001b047 f   libucrt:multibyte_initializer.obj
 0001:0001a056       ??$?RV<lambda_9e9de3de5fa147e2223d7db92bc10aa6>@@AAV<lambda_38ce7e780aa69e748d6df282ebc68efe>@@V<lambda_8ca6da459f0f6780f1cff60fdc3d00e5>@@@?$__crt_seh_guarded_call@H@@QAEH$$QAV<lambda_9e9de3de5fa147e2223d7db92bc10aa6>@@AAV<lambda_38ce7e780aa69e748d6df282ebc68efe>@@$$QAV<lambda_8ca6da459f0f6780f1cff60fdc3d00e5>@@@Z 1001b056 f   libucrt:commit.obj
 0001:0001a175       ?write_double_translated_ansi_nolock@@YA?AUwrite_result@?A0x17268360@@HQBDI@Z 1001b175 f   libucrt:write.obj
 0001:0001a521       ?write_double_translated_unicode_nolock@@YA?AUwrite_result@?A0x17268360@@QBDI@Z 1001b521 f   libucrt:write.obj
 0001:0001a589       ?write_requires_double_translation_nolock@@YA_NH@Z 1001b589 f   libucrt:write.obj
 0001:0001a5fa       ?write_text_ansi_nolock@@YA?AUwrite_result@?A0x17268360@@HQBDI@Z 1001b5fa f   libucrt:write.obj
 0001:0001a6d5       ?write_text_utf16le_nolock@@YA?AUwrite_result@?A0x17268360@@HQBDI@Z 1001b6d5 f   libucrt:write.obj
 0001:0001a7be       ?write_text_utf8_nolock@@YA?AUwrite_result@?A0x17268360@@HQBDI@Z 1001b7be f   libucrt:write.obj
 0001:0001aee0       $$000000                   1001bee0     libucrt:log10_impl.obj
 0001:0001aff0       $$000000                   1001bff0     libucrt:ceil_pentium4.obj
 0001:0001b10d       ?to_abstract_control@@YA?AW4__acrt_fenv_abstract_control@@W4__acrt_fenv_machine_sse_control@@@Z 1001c10d f   libucrt:_fenvutils.obj
 0001:0001b1c9       ?to_abstract_control@@YA?AW4__acrt_fenv_abstract_control@@W4__acrt_fenv_machine_x87_control@@@Z 1001c1c9 f   libucrt:_fenvutils.obj
 0001:0001b282       ?to_machine_sse_control@@YA?AW4__acrt_fenv_machine_sse_control@@W4__acrt_fenv_abstract_control@@@Z 1001c282 f   libucrt:_fenvutils.obj
 0001:0001b34f       ?to_machine_x87_control@@YA?AW4__acrt_fenv_machine_x87_control@@W4__acrt_fenv_abstract_control@@@Z 1001c34f f   libucrt:_fenvutils.obj
 0001:0001b6e3       ??$common_lseek_nolock@_J@@YA_JH_JH@Z 1001c6e3 f   libucrt:lseek.obj
 0001:0001b8c9       ___hw_cw_sse2              1001c8c9 f   libucrt:ieee87.obj
 0001:0001bd4f       __hw_cw                    1001cd4f f   libucrt:ieee87.obj
 0001:0001be00       $$000000                   1001ce00     libucrt:log10_pentium4.obj
 0001:0001c090       $$000000                   1001d090     libucrt:87tran.obj
 0001:0001c2a0       $$000000                   1001d2a0     libucrt:87disp.obj
 0001:0001c500       $$000000                   1001d500     libucrt:common.obj
 0001:0001c690       $$000000                   1001d690     libucrt:genexcep.obj
 0001:0001c98c       ??$?RV<lambda_218ce3db14220d0be481dae8ef3383b6>@@AAV<lambda_628dfdc04ba53c8bfc02c9951375f3f5>@@V<lambda_57dc472bd5c9d5f3b2cbca59b8a843ae>@@@?$__crt_seh_guarded_call@H@@QAEH$$QAV<lambda_218ce3db14220d0be481dae8ef3383b6>@@AAV<lambda_628dfdc04ba53c8bfc02c9951375f3f5>@@$$QAV<lambda_57dc472bd5c9d5f3b2cbca59b8a843ae>@@@Z 1001d98c f   libucrt:close.obj
 0001:0001cb80       $$000000                   1001db80     libucrt:_strnicm.obj
 0001:0001cbe1       ?__dcrt_lowio_initialize_console_output@@YAXXZ 1001dbe1 f   libucrt:initcon.obj
 0001:0001dac0       $$000000                   1001eac0     LIBCMT:ulldvrm.obj
 0001:0001db60       $$000000                   1001eb60     LIBCMT:llmul.obj
 0001:0001dba0       $$000000                   1001eba0     LIBCMT:lldvrm.obj
 0001:0001dc80       $$000000                   1001ec80     LIBCMT:llshl.obj
 0001:0001dca0       $$000000                   1001eca0     LIBCMT:ullshr.obj
 0001:0001dcc0       $$000000                   1001ecc0     LIBCMT:ftol2.obj
 0001:0001df60       $$000000                   1001ef60     libvcruntime:strrchr.obj
 0001:0001e0a0       $$000000                   1001f0a0     libvcruntime:strchr.obj
 0001:0001e243       __ehhandler$??2@YAPAXIABUnothrow_t@std@@@Z 1001f243 f   LIBCMT:new_scalar_nothrow.obj
 0001:0001e25e       __ehhandler$?CallUnexpected@@YAXPBU_s_ESTypeList@@@Z 1001f25e f   libvcruntime:frame.obj
 0001:0001e279       ??__F_AtlComModule@ATL@@YAXXZ 1001f279 f   OposVariant.obj
 0001:0001e283       ??__F_AtlWinModule@ATL@@YAXXZ 1001f283 f   OposVariant.obj
 0001:0001e29d       ??__F_Module@@YAXXZ        1001f29d f   MICR.obj
 0001:0001e2b1       ??__F_AtlBaseModule@ATL@@YAXXZ 1001f2b1 f   atls:atlbase.obj
 0002:00000304       ?_AtlBaseModule$initializer$@ATL@@3P6AXXZA 10020304     atls:atlbase.obj
 0002:00000308       ?_AtlComModule$initializer$@ATL@@3P6AXXZA 10020308     OposVariant.obj
 0002:0000030c       ?_AtlWinModule$initializer$@ATL@@3P6AXXZA 1002030c     OposVariant.obj
 0002:00000310       ?_Module$initializer$@@3P6AXXZA 10020310     MICR.obj
 0002:00000314       ??pConnMap$initializer$@?$IConnectionPointContainerImpl@VCOPOSMICR@@@ATL@@0P6AXXZA@@3P6AXXZA 10020314     MICR.obj
 0002:00000320       ?__scrt_initialize_tss_var@@3P6AHXZA 10020320     LIBCMT:thread_safe_statics.obj
 0002:00001870       _GS_ExceptionPointers      10021870     LIBCMT:gs_report.obj
 0002:00001a00       ?tokenTable@@3QBUStringLiteral@@B 10021a00     libvcruntime:undname.obj
 0002:00001a80       ?nameTable@@3QBUStringLiteral@@B 10021a80     libvcruntime:undname.obj
 0002:00001d18       ?rttiTable@@3QBUStringLiteral@@B 10021d18     libvcruntime:undname.obj
 0002:00001d40       ?IndirectionName@@3QBUStringLiteral@@B 10021d40     libvcruntime:undname.obj
 0002:00001d70       ?PrefixName@@3QBUStringLiteral@@B 10021d70     libvcruntime:undname.obj
 0002:000023a0       ?module_names@?A0x9d0f8d90@@3QBQB_WB 100223a0     libvcruntime:winapi_downlevel.obj
 0002:00002448       ?candidate_modules@?1??try_get_FlsAlloc@@YAP6GKP6GXPAX@Z@ZXZ@4QBW4module_id@?A0x9d0f8d90@@B 10022448     libvcruntime:winapi_downlevel.obj
 0002:0000245c       ?candidate_modules@?1??try_get_FlsFree@@YAP6GHK@ZXZ@4QBW4module_id@?A0x9d0f8d90@@B 1002245c     libvcruntime:winapi_downlevel.obj
 0002:0000246c       ?candidate_modules@?1??try_get_FlsGetValue@@YAP6GPAXK@ZXZ@4QBW4module_id@?A0x9d0f8d90@@B 1002246c     libvcruntime:winapi_downlevel.obj
 0002:00002480       ?candidate_modules@?1??try_get_FlsSetValue@@YAP6GHKPAX@ZXZ@4QBW4module_id@?A0x9d0f8d90@@B 10022480     libvcruntime:winapi_downlevel.obj
 0002:00002494       ?candidate_modules@?1??try_get_InitializeCriticalSectionEx@@YAP6GHPAU_RTL_CRITICAL_SECTION@@KK@ZXZ@4QBW4module_id@?A0x9d0f8d90@@B 10022494     libvcruntime:winapi_downlevel.obj
 0002:000024b8       ?errtable@@3QBUerrentry@?A0x31fdb9ec@@B 100224b8     libucrt:errno.obj
 0002:00002b00       ___acrt_initializers       10022b00     libucrt:initialization.obj
 0002:00002b80       ?module_names@?A0x391cf84c@@3QBQB_WB 10022b80     libucrt:winapi_thunks.obj
 0002:00002ff8       ?candidate_modules@?1??try_get_AreFileApisANSI@@YAP6GHXZXZ@4QBW4module_id@?A0x391cf84c@@B 10022ff8     libucrt:winapi_thunks.obj
 0002:0000300c       ?candidate_modules@?1??try_get_FlsAlloc@@YAP6GKP6GXPAX@Z@ZXZ@4QBW4module_id@?A0x391cf84c@@B 1002300c     libucrt:winapi_thunks.obj
 0002:00003014       ?candidate_modules@?1??try_get_FlsFree@@YAP6GHK@ZXZ@4QBW4module_id@?A0x391cf84c@@B 10023014     libucrt:winapi_thunks.obj
 0002:0000301c       ?candidate_modules@?1??try_get_FlsGetValue@@YAP6GPAXK@ZXZ@4QBW4module_id@?A0x391cf84c@@B 1002301c     libucrt:winapi_thunks.obj
 0002:00003024       ?candidate_modules@?1??try_get_FlsSetValue@@YAP6GHKPAX@ZXZ@4QBW4module_id@?A0x391cf84c@@B 10023024     libucrt:winapi_thunks.obj
 0002:0000302c       ?candidate_modules@?1??try_get_InitializeCriticalSectionEx@@YAP6GHPAU_RTL_CRITICAL_SECTION@@KK@ZXZ@4QBW4module_id@?A0x391cf84c@@B 1002302c     libucrt:winapi_thunks.obj
 0002:00003034       ?candidate_modules@?1??try_get_LCMapStringEx@@YAP6GHPB_WK0HPA_WHPAU_nlsversioninfo@@PAXJ@ZXZ@4QBW4module_id@?A0x391cf84c@@B 10023034     libucrt:winapi_thunks.obj
 0002:0000304c       ?candidate_modules@?1??try_get_LocaleNameToLCID@@YAP6GKPB_WK@ZXZ@4QBW4module_id@?A0x391cf84c@@B 1002304c     libucrt:winapi_thunks.obj
 0002:00003068       ?candidate_modules@?1??try_get_AppPolicyGetProcessTerminationMethod@@YAP6GJPAXPAW4AppPolicyProcessTerminationMethod@@@ZXZ@4QBW4module_id@?A0x391cf84c@@B 10023068     libucrt:winapi_thunks.obj
 0002:00003094       ?candidate_modules@?1??try_get_SetThreadStackGuarantee@@YAP6GHPAK@ZXZ@4QBW4module_id@?A0x391cf84c@@B 10023094     libucrt:winapi_thunks.obj
 0002:000030b8       ?strings@?1??fp_format_nan_or_infinity@@YAHW4__acrt_fp_class@@_NPADI1@Z@4QAY03QBDA 100230b8     libucrt:cvt.obj
 0002:00003600       ?_mb_locale_names@@3QBQB_WB 10023600     libucrt:mbctype.obj
 0002:00003e48       ?LcidToLocaleNameTable@?A0x881e4c05@@3QBULcidToLocaleName@1@B 10023e48     libucrt:lcidtoname_downlevel.obj
 0002:00004f70       ?LocaleNameToIndexTable@?A0x881e4c05@@3QBULocaleNameIndex@1@B 10024f70     libucrt:lcidtoname_downlevel.obj
 0002:000068b0       LOG_name                   100268b0     libucrt:log10_impl.obj
 0002:000068c0       _One                       100268c0     libucrt:ceil_pentium4.obj
 0002:000068d0       _Bns                       100268d0     libucrt:ceil_pentium4.obj
 0002:000068e0       _Zero                      100268e0     libucrt:ceil_pentium4.obj
 0002:000068f0       _S                         100268f0     libucrt:ceil_pentium4.obj
 0002:00006900       _NegZero                   10026900     libucrt:ceil_pentium4.obj
 0002:00006910       emask                      10026910     libucrt:log10_pentium4.obj
 0002:00006920       CC                         10026920     libucrt:log10_pentium4.obj
 0002:00006930       Magic                      10026930     libucrt:log10_pentium4.obj
 0002:00006940       hi_mask                    10026940     libucrt:log10_pentium4.obj
 0002:00006950       LOG10_2                    10026950     libucrt:log10_pentium4.obj
 0002:00006960       place_L                    10026960     libucrt:log10_pentium4.obj
 0002:00006980       One                        10026980     libucrt:log10_pentium4.obj
 0002:00006990       Zero                       10026990     libucrt:log10_pentium4.obj
 0002:000069a0       Two52                      100269a0     libucrt:log10_pentium4.obj
 0002:000069b0       Infs                       100269b0     libucrt:log10_pentium4.obj
 0002:000069c0       NaN                        100269c0     libucrt:log10_pentium4.obj
 0002:000069d0       coeff                      100269d0     libucrt:log10_pentium4.obj
 0002:00006a2e       _log2max                   10026a2e     libucrt:87tran.obj
 0002:00006a38       _smallarg                  10026a38     libucrt:87tran.obj
 0002:00006a42       _half                      10026a42     libucrt:87tran.obj
 0002:00006a8e       One                        10026a8e     libucrt:87disp.obj
 0002:00006a96       Three                      10026a96     libucrt:87disp.obj
 0002:00006a9e       XAMtoTagTab                10026a9e     libucrt:87disp.obj
 0002:00006ab0       One                        10026ab0     libucrt:common.obj
 0002:00006ac4       DblMax                     10026ac4     libucrt:common.obj
 0002:00006acc       DblMin                     10026acc     libucrt:common.obj
 0002:00006ad4       IeeeAdjO                   10026ad4     libucrt:common.obj
 0002:00006adc       IeeeAdjU                   10026adc     libucrt:common.obj
 0002:00006ae4       _infinity                  10026ae4     libucrt:common.obj
 0002:00006aec       _zero                      10026aec     libucrt:common.obj
 0002:00006b38       _over                      10026b38     libucrt:fpctrl.obj
 0002:00006b44       _under                     10026b44     libucrt:fpctrl.obj
 0002:00007378       ?_names@?1??_get_fname@@9@9 10027378     libucrt:fpexcept.obj
 0002:00007520       two32                      10027520     LIBCMT:ftol2.obj
 0002:00007524       two63                      10027524     LIBCMT:ftol2.obj
 0002:00007528       _NaN                       10027528     LIBCMT:ftol2.obj
 0002:00007bd8       __sehtable$?_AtlVerifyStackAvailable@_ATL_SAFE_ALLOCA_IMPL@ATL@@YA_NK@Z 10027bd8     MICR.obj
 0002:00007bf8       __sehtable$___scrt_is_nonwritable_in_current_image 10027bf8     LIBCMT:utility.obj
 0002:00007c14       __catchsym$??2@YAPAXIABUnothrow_t@std@@@Z$2 10027c14     LIBCMT:new_scalar_nothrow.obj
 0002:00007c24       __unwindtable$??2@YAPAXIABUnothrow_t@std@@@Z 10027c24     LIBCMT:new_scalar_nothrow.obj
 0002:00007c34       __tryblocktable$??2@YAPAXIABUnothrow_t@std@@@Z 10027c34     LIBCMT:new_scalar_nothrow.obj
 0002:00007c48       __ehfuncinfo$??2@YAPAXIABUnothrow_t@std@@@Z 10027c48     LIBCMT:new_scalar_nothrow.obj
 0002:00007c70       __sehtable$?dllmain_crt_process_attach@@YAHQAUHINSTANCE__@@QAX@Z 10027c70     LIBCMT:dll_dllmain.obj
 0002:00007c90       __sehtable$?dllmain_crt_process_detach@@YAH_N@Z 10027c90     LIBCMT:dll_dllmain.obj
 0002:00007cb8       __sehtable$?dllmain_dispatch@@YAHQAUHINSTANCE__@@KQAX@Z 10027cb8     LIBCMT:dll_dllmain.obj
 0002:00007d68       __sehtable$___DestructExceptionObject 10027d68     libvcruntime:ehhelpers.obj
 0002:00007d88       __sehtable$?FrameUnwindToState@__FrameHandler3@@SAXPAUEHRegistrationNode@@PAXPBU_s_FuncInfo@@H@Z 10027d88     libvcruntime:frame.obj
 0002:00007db0       __sehtable$?CallCatchBlock@@YAPAXPAUEHExceptionRecord@@PAUEHRegistrationNode@@PAU_CONTEXT@@PBU_s_FuncInfo@@PAXHK@Z 10027db0     libvcruntime:frame.obj
 0002:00007dd8       __catchsym$?CallUnexpected@@YAXPBU_s_ESTypeList@@@Z$2 10027dd8     libvcruntime:frame.obj
 0002:00007de8       __unwindtable$?CallUnexpected@@YAXPBU_s_ESTypeList@@@Z 10027de8     libvcruntime:frame.obj
 0002:00007df8       __tryblocktable$?CallUnexpected@@YAXPBU_s_ESTypeList@@@Z 10027df8     libvcruntime:frame.obj
 0002:00007e0c       __ehfuncinfo$?CallUnexpected@@YAXPBU_s_ESTypeList@@@Z 10027e0c     libvcruntime:frame.obj
 0002:00007e30       __sehtable$??$BuildCatchObjectHelperInternal@V__FrameHandler3@@@@YAHPAUEHExceptionRecord@@PAXPBU_s_HandlerType@@PBU_s_CatchableType@@@Z 10027e30     libvcruntime:frame.obj
 0002:00007e50       __sehtable$??$BuildCatchObjectInternal@V__FrameHandler3@@@@YAXPAUEHExceptionRecord@@PAXPBU_s_HandlerType@@PBU_s_CatchableType@@@Z 10027e50     libvcruntime:frame.obj
 0002:00007ea8       __sehtable$??R<lambda_6e4b09c48022b2350581041d5f6b0c4c>@@QBE@XZ 10027ea8     libucrt:exit.obj
 0002:00007ec8       __sehtable$??$?RV<lambda_03b1d95aef87969028cfba75ccab2455>@@AAV<lambda_6e4b09c48022b2350581041d5f6b0c4c>@@V<lambda_22bdf7517842c4b3e53723af5aa32b9e>@@@?$__crt_seh_guarded_call@X@@QAEX$$QAV<lambda_03b1d95aef87969028cfba75ccab2455>@@AAV<lambda_6e4b09c48022b2350581041d5f6b0c4c>@@$$QAV<lambda_22bdf7517842c4b3e53723af5aa32b9e>@@@Z 10027ec8     libucrt:exit.obj
 0002:00007ee8       __sehtable$??$?RV<lambda_8e746cf0007f6ed984d6f78af1fec997>@@AAV<lambda_22ebabd17bc4fa466a2aca6d8deb888d>@@V<lambda_18ed0c0b38a6dc0daf1e7ac6d6adf05e>@@@?$__crt_seh_guarded_call@H@@QAEH$$QAV<lambda_8e746cf0007f6ed984d6f78af1fec997>@@AAV<lambda_22ebabd17bc4fa466a2aca6d8deb888d>@@$$QAV<lambda_18ed0c0b38a6dc0daf1e7ac6d6adf05e>@@@Z 10027ee8     libucrt:onexit.obj
 0002:00007f08       __sehtable$??$?RV<lambda_69a2805e680e0e292e8ba93315fe43a8>@@AAV<lambda_f03950bc5685219e0bcd2087efbe011e>@@V<lambda_03fcd07e894ec930e3f35da366ca99d6>@@@?$__crt_seh_guarded_call@H@@QAEH$$QAV<lambda_69a2805e680e0e292e8ba93315fe43a8>@@AAV<lambda_f03950bc5685219e0bcd2087efbe011e>@@$$QAV<lambda_03fcd07e894ec930e3f35da366ca99d6>@@@Z 10027f08     libucrt:onexit.obj
 0002:00007f28       __sehtable$__query_new_handler 10027f28     libucrt:new_handler.obj
 0002:00007f48       __sehtable$_terminate      10027f48     libucrt:terminate.obj
 0002:00007f68       __sehtable$??$?RV<lambda_15ade71b0218206bbe3333a0c9b79046>@@AAV<lambda_da44e0f8b0f19ba52fefafb335991732>@@V<lambda_207f2d024fc103971653565357d6cd41>@@@?$__crt_seh_guarded_call@X@@QAEX$$QAV<lambda_15ade71b0218206bbe3333a0c9b79046>@@AAV<lambda_da44e0f8b0f19ba52fefafb335991732>@@$$QAV<lambda_207f2d024fc103971653565357d6cd41>@@@Z 10027f68     libucrt:per_thread_data.obj
 0002:00007f88       __sehtable$??$?RV<lambda_a7e850c220f1c8d1e6efeecdedd162c6>@@AAV<lambda_46720907175c18b6c9d2717bc0d2d362>@@V<lambda_9048902d66e8d99359bc9897bbb930a8>@@@?$__crt_seh_guarded_call@X@@QAEX$$QAV<lambda_a7e850c220f1c8d1e6efeecdedd162c6>@@AAV<lambda_46720907175c18b6c9d2717bc0d2d362>@@$$QAV<lambda_9048902d66e8d99359bc9897bbb930a8>@@@Z 10027f88     libucrt:per_thread_data.obj
 0002:00007fa8       __sehtable$??$?RV<lambda_38edbb1296d33220d7e4dd0ed76b244a>@@AAV<lambda_5ce1d447e08cb34b2473517608e21441>@@V<lambda_fb385d3da700c9147fc39e65dd577a8c>@@@?$__crt_seh_guarded_call@X@@QAEX$$QAV<lambda_38edbb1296d33220d7e4dd0ed76b244a>@@AAV<lambda_5ce1d447e08cb34b2473517608e21441>@@$$QAV<lambda_fb385d3da700c9147fc39e65dd577a8c>@@@Z 10027fa8     libucrt:per_thread_data.obj
 0002:00007fc8       __sehtable$??$?RV<lambda_6affb1475c98b40b75cdec977db92e3c>@@AAV<lambda_b8d4b9c228a6ecc3f80208dbb4b4a104>@@V<lambda_608742c3c92a14382c1684fc64f96c88>@@@?$__crt_seh_guarded_call@X@@QAEX$$QAV<lambda_6affb1475c98b40b75cdec977db92e3c>@@AAV<lambda_b8d4b9c228a6ecc3f80208dbb4b4a104>@@$$QAV<lambda_608742c3c92a14382c1684fc64f96c88>@@@Z 10027fc8     libucrt:per_thread_data.obj
 0002:00007fe8       __sehtable$??$?RV<lambda_e5124f882df8998aaf41531e079ba474>@@AAV<lambda_3e16ef9562a7dcce91392c22ab16ea36>@@V<lambda_e25ca0880e6ef98be67edffd8c599615>@@@?$__crt_seh_guarded_call@X@@QAEX$$QAV<lambda_e5124f882df8998aaf41531e079ba474>@@AAV<lambda_3e16ef9562a7dcce91392c22ab16ea36>@@$$QAV<lambda_e25ca0880e6ef98be67edffd8c599615>@@@Z 10027fe8     libucrt:wsetlocale.obj
 0002:00008008       __sehtable$___acrt_initialize_lowio 10028008     libucrt:ioinit.obj
 0002:00008028       __sehtable$?update_thread_multibyte_data_internal@@YAPAU__crt_multibyte_data@@QAU__acrt_ptd@@QAPAU1@@Z 10028028     libucrt:mbctype.obj
 0002:00008048       __sehtable$??$?RV<lambda_ceb1ee4838e85a9d631eb091e2fbe199>@@AAV<lambda_ae742caa10f662c28703da3d2ea5e57e>@@V<lambda_cd08b5d6af4937fe54fc07d0c9bf6b37>@@@?$__crt_seh_guarded_call@X@@QAEX$$QAV<lambda_ceb1ee4838e85a9d631eb091e2fbe199>@@AAV<lambda_ae742caa10f662c28703da3d2ea5e57e>@@$$QAV<lambda_cd08b5d6af4937fe54fc07d0c9bf6b37>@@@Z 10028048     libucrt:mbctype.obj
 0002:00008068       __sehtable$_raise          10028068     libucrt:signal.obj
 0002:00008088       __sehtable$??$?RV<lambda_cbab9ec6f41b0180b23cc171c22676b0>@@AAV<lambda_44731a7d0e6d81c3e6aa82d741081786>@@V<lambda_4b292cb8dd18144e164572427af410ab>@@@?$__crt_seh_guarded_call@P6AXH@Z@@QAEP6AXH@Z$$QAV<lambda_cbab9ec6f41b0180b23cc171c22676b0>@@AAV<lambda_44731a7d0e6d81c3e6aa82d741081786>@@$$QAV<lambda_4b292cb8dd18144e164572427af410ab>@@@Z 10028088     libucrt:signal.obj
 0002:000080a8       __sehtable$??$?RV<lambda_2866be3712abc81a800a822484c830d8>@@AAV<lambda_39ca0ed439415581b5b15c265174cece>@@V<lambda_2b24c74d71094a6cd0cb82e44167d71b>@@@?$__crt_seh_guarded_call@X@@QAEX$$QAV<lambda_2866be3712abc81a800a822484c830d8>@@AAV<lambda_39ca0ed439415581b5b15c265174cece>@@$$QAV<lambda_2b24c74d71094a6cd0cb82e44167d71b>@@@Z 100280a8     libucrt:fflush.obj
 0002:000080c8       __sehtable$??$?RV<lambda_2cc53f568c5a2bb6f192f930a45d44ea>@@AAV<lambda_ab61a845afdef5b7c387490eaf3616ee>@@V<lambda_c2ffc0b7726aa6be21d5f0026187e748>@@@?$__crt_seh_guarded_call@X@@QAEX$$QAV<lambda_2cc53f568c5a2bb6f192f930a45d44ea>@@AAV<lambda_ab61a845afdef5b7c387490eaf3616ee>@@$$QAV<lambda_c2ffc0b7726aa6be21d5f0026187e748>@@@Z 100280c8     libucrt:fflush.obj
 0002:000080e8       __sehtable$___acrt_update_thread_locale_data 100280e8     libucrt:locale_refcounting.obj
 0002:00008108       __sehtable$__fcloseall     10028108     libucrt:closeall.obj
 0002:00008128       __sehtable$___acrt_lowio_ensure_fh_exists 10028128     libucrt:osfinfo.obj
 0002:00008148       __sehtable$??$?RV<lambda_9e9de3de5fa147e2223d7db92bc10aa6>@@AAV<lambda_38ce7e780aa69e748d6df282ebc68efe>@@V<lambda_8ca6da459f0f6780f1cff60fdc3d00e5>@@@?$__crt_seh_guarded_call@H@@QAEH$$QAV<lambda_9e9de3de5fa147e2223d7db92bc10aa6>@@AAV<lambda_38ce7e780aa69e748d6df282ebc68efe>@@$$QAV<lambda_8ca6da459f0f6780f1cff60fdc3d00e5>@@@Z 10028148     libucrt:commit.obj
 0002:00008168       __sehtable$__write         10028168     libucrt:write.obj
 0002:00008188       __sehtable$_fclose         10028188     libucrt:fclose.obj
 0002:000081a8       __sehtable$??$?RV<lambda_218ce3db14220d0be481dae8ef3383b6>@@AAV<lambda_628dfdc04ba53c8bfc02c9951375f3f5>@@V<lambda_57dc472bd5c9d5f3b2cbca59b8a843ae>@@@?$__crt_seh_guarded_call@H@@QAEH$$QAV<lambda_218ce3db14220d0be481dae8ef3383b6>@@AAV<lambda_628dfdc04ba53c8bfc02c9951375f3f5>@@$$QAV<lambda_57dc472bd5c9d5f3b2cbca59b8a843ae>@@@Z 100281a8     libucrt:close.obj
 0002:000081c8       __sehtable$___set_fpsr_sse2 100281c8     libucrt:fpctrl.obj
 0002:000081e8       __sehtable$__IsNonwritableInCurrentImage 100281e8     LIBCMT:pesect.obj
 0002:00008210       .edata                     10028210     OPOSMICR.exp
 0002:00008238       rgpv                       10028238     OPOSMICR.exp
 0002:00008248       rgszName                   10028248     OPOSMICR.exp
 0002:00008258       rgwOrd                     10028258     OPOSMICR.exp
 0002:00008260       szName                     10028260     OPOSMICR.exp
 0002:0000826d       $N00001                    1002826d     OPOSMICR.exp
 0002:0000827d       $N00002                    1002827d     OPOSMICR.exp
 0002:0000828f       $N00003                    1002828f     OPOSMICR.exp
 0002:000082a1       $N00004                    100282a1     OPOSMICR.exp
 0002:000088b2       .idata$6                   100288b2     kernel32:KERNEL32.dll
 0002:00008ac6       .idata$6                   10028ac6     user32:USER32.dll
 0002:00008bfa       .idata$6                   10028bfa     gdi32:GDI32.dll
 0002:00008ca0       .idata$6                   10028ca0     advapi32:ADVAPI32.dll
 0002:00008dbc       .idata$6                   10028dbc     ole32:ole32.dll
 0002:00008dc6       .idata$6                   10028dc6     oleaut32:OLEAUT32.dll
 0003:00000110       ?ObjectMap@@3PAU_ATL_OBJMAP_ENTRY30@ATL@@A 1002a110     MICR.obj
 0003:000001b8       ?s_SOMethodNames@@3PAPADA  1002a1b8     MICRImpl.obj
 0003:00000214       ?s_RequiredMethodsPerRelease@@3PAHA 1002a214     MICRImpl.obj
 0003:00000260       ?__vcrt_flsindex@@3KA      1002a260     libvcruntime:per_thread_data.obj
 0003:00000280       ?errno_no_memory@@3HA      1002a280     libucrt:errno.obj
 0003:00000284       ?doserrno_no_memory@@3KA   1002a284     libucrt:errno.obj
 0003:00000290       ?__acrt_flsindex@@3KA      1002a290     libucrt:per_thread_data.obj
 0003:00000628       __mbctypes                 1002a628     libucrt:mbctype.obj
 0003:00000730       __mbcasemaps               1002a730     libucrt:mbctype.obj
 0003:00000830       ?__rgctypeflag@@3PADA      1002a830     libucrt:mbctype.obj
 0003:00000838       ?__rgcode_page_info@@3PAUcode_page_info@@A 1002a838     libucrt:mbctype.obj
 0003:00000a90       ?__dcrt_lowio_console_output_handle@@3PAXA 1002aa90     libucrt:initcon.obj
 0003:00000a94       ?__DAZ_ENABLED@?1??__set_fpsr_sse2@@9@9 1002aa94     libucrt:fpctrl.obj
 0003:00000c28       ?is_initialized_as_dll@@3_NA 1002ac28     LIBCMT:utility.obj
 0003:00000c29       ?module_local_atexit_table_initialized@@3_NA 1002ac29     LIBCMT:utility.obj
 0003:00000c2c       ?module_local_atexit_table@@3U_onexit_table_t@@A 1002ac2c     LIBCMT:utility.obj
 0003:00000c38       ?module_local_at_quick_exit_table@@3U_onexit_table_t@@A 1002ac38     LIBCMT:utility.obj
 0003:00000c44       ?g_tss_cv@@3U_RTL_CONDITION_VARIABLE@@A 1002ac44     LIBCMT:thread_safe_statics.obj
 0003:00000c48       ?g_tss_event@@3PAXA        1002ac48     LIBCMT:thread_safe_statics.obj
 0003:00000c4c       ?g_tss_mutex@@3U_RTL_CRITICAL_SECTION@@A 1002ac4c     LIBCMT:thread_safe_statics.obj
 0003:00000c64       ?g_sleep_condition_variable_cs@@3P6GHPAU_RTL_CONDITION_VARIABLE@@PAU_RTL_CRITICAL_SECTION@@K@ZA 1002ac64     LIBCMT:thread_safe_statics.obj
 0003:00000c68       ?g_wake_all_condition_variable@@3P6GXPAU_RTL_CONDITION_VARIABLE@@@ZA 1002ac68     LIBCMT:thread_safe_statics.obj
 0003:00000c70       _GS_ExceptionRecord        1002ac70     LIBCMT:gs_report.obj
 0003:00000cc0       _GS_ContextRecord          1002acc0     LIBCMT:gs_report.obj
 0003:00000f90       ?__proc_attached@@3HA      1002af90     LIBCMT:dll_dllmain.obj
 0003:00000fec       ?AllocateData@@3P6GPAUAtlThunkData_t@@XZA 1002afec     atls:atlthunk.obj
 0003:00000ff0       ?InitData@@3P6GXPAUAtlThunkData_t@@PAXI@ZA 1002aff0     atls:atlthunk.obj
 0003:00000ff4       ?DataToCode@@3P6GP6GJPAUHWND__@@IIJ@ZPAUAtlThunkData_t@@@ZA 1002aff4     atls:atlthunk.obj
 0003:00000ff8       ?FreeData@@3P6GXPAUAtlThunkData_t@@@ZA 1002aff8     atls:atlthunk.obj
 0003:00000ffc       ?Initialized@@3_NA         1002affc     atls:atlthunk.obj
 0003:0000100c       ?__vcrt_startup_thread_ptd@@3U__vcrt_ptd@@A 1002b00c     libvcruntime:per_thread_data.obj
 0003:00001034       ___vcrt_lock_table         1002b034     libvcruntime:locks.obj
 0003:0000104c       ___vcrt_locks_initialized  1002b04c     libvcruntime:locks.obj
 0003:00001078       ?heap@@3V_HeapManager@@A   1002b078     libvcruntime:undname.obj
 0003:0000108c       ?module_handles@@3PAPAUHINSTANCE__@@A 1002b08c     libvcruntime:winapi_downlevel.obj
 0003:00001098       ?function_pointers@@3PAPAXA 1002b098     libvcruntime:winapi_downlevel.obj
 0003:000010ac       ?__acrt_invalid_parameter_handler@@3V?$dual_state_global@P6AXPB_W00II@Z@__crt_state_management@@A 1002b0ac     libucrt:invalid_parameter.obj
 0003:000010b0       ?c_termination_complete@@3JA 1002b0b0     libucrt:exit.obj
 0003:000010b4       ?thread_local_exit_callback_func@@3P6GXPAXK0@ZA 1002b0b4     libucrt:exit.obj
 0003:000010c0       ?program_name@?1???$common_configure_argv@D@@YAHW4_crt_argv_mode@@@Z@4PADA 1002b0c0     libucrt:argv_parsing.obj
 0003:000011f0       ?__acrt_new_handler@@3V?$dual_state_global@P6AHI@Z@__crt_state_management@@A 1002b1f0     libucrt:new_handler.obj
 0003:000011f8       ?module_handles@@3PAPAUHINSTANCE__@@A 1002b1f8     libucrt:winapi_thunks.obj
 0003:00001248       ?encoded_function_pointers@@3PAPAXA 1002b248     libucrt:winapi_thunks.obj
 0003:000012d0       ?internal_state@?1??_mbtowc_l@@9@4U_Mbstatet@@A 1002b2d0     libucrt:mbtowc.obj
 0003:000012e0       ?enable_percent_n@@3IA     1002b2e0     libucrt:printf_count_output.obj
 0003:00001500       ?__acrt_lock_table@@3PAU_RTL_CRITICAL_SECTION@@A 1002b500     libucrt:locks.obj
 0003:00001650       ?__acrt_locks_initialized@@3IA 1002b650     libucrt:locks.obj
 0003:00001660       ?fSystemSet@@3HA           1002b660     libucrt:mbctype.obj
 0003:00001664       ?initialized@?1??__acrt_initialize_multibyte@@9@4_NA 1002b664     libucrt:mbctype.obj
 0003:00001684       ?ctrlc_action@@3V?$dual_state_global@P6AXH@Z@__crt_state_management@@A 1002b684     libucrt:signal.obj
 0003:00001688       ?ctrlbreak_action@@3V?$dual_state_global@P6AXH@Z@__crt_state_management@@A 1002b688     libucrt:signal.obj
 0003:0000168c       ?abort_action@@3V?$dual_state_global@P6AXH@Z@__crt_state_management@@A 1002b68c     libucrt:signal.obj
 0003:00001690       ?term_action@@3V?$dual_state_global@P6AXH@Z@__crt_state_management@@A 1002b690     libucrt:signal.obj
 0003:00001694       ?user_matherr@@3V?$dual_state_global@P6AHPAU_exception@@@Z@__crt_state_management@@A 1002b694     libucrt:matherr.obj
 0003:00001698       ?__acrt_global_new_mode@@3V?$dual_state_global@J@__crt_state_management@@A 1002b698     libucrt:new_mode.obj
 0003:000016a4       ?internal_pst@?1??__mbrtoc32_utf8@__crt_mbstring@@YAIPA_UPBDIPAU_Mbstatet@@@Z@4U3@A 1002b6a4     libucrt:mbrtoc32.obj
 0003:000016ac       ?__acrt_app_type@@3W4_crt_app_type@@A 1002b6ac     libucrt:report_runtime_error.obj
 0003:000016b4       __pmatherr_set             1002b6b4     libucrt:libm_error.obj
 0004:00000220       $R000000                   1002c220     MICR.res
 0004:00000b98       $R000978                   1002cb98     MICR.res
 0004:00000c80       $R000A60                   1002cc80     MICR.res
 0004:00000ee8       $R000CC8                   1002cee8     MICR.res
 0004:00001420       $R001200                   1002d420     MICR.res
 0004:000040b0       $R003E90                   100300b0     MICR.res
 0004:000040d8       $R003EB8                   100300d8     MICR.res
