 OPOSToneIndicator

 Timestamp is 61a75a98 (Wed Dec  1 20:20:56 2021)

 Preferred load address is 10000000

 Start         Length     Name                   Class
 0001:00000000 00000080H .text$di                CODE
 0001:00000080 0001eb78H .text$mn                CODE
 0001:0001ebf8 000000d8H .text$x                 CODE
 0001:0001ecd0 00000042H .text$yd                CODE
 0002:00000000 000002fcH .idata$5                DATA
 0002:000002fc 00000008H .00cfg                  DATA
 0002:00000304 00000004H .CRT$XCA                DATA
 0002:00000308 00000004H .CRT$XCL                DATA
 0002:0000030c 00000010H .CRT$XCU                DATA
 0002:0000031c 00000004H .CRT$XCZ                DATA
 0002:00000320 00000004H .CRT$XIA                DATA
 0002:00000324 00000010H .CRT$XIC                DATA
 0002:00000334 00000004H .CRT$XIZ                DATA
 0002:00000338 00000004H .CRT$XLA                DATA
 0002:0000033c 00000004H .CRT$XLZ                DATA
 0002:00000340 00000004H .CRT$XPA                DATA
 0002:00000344 00000008H .CRT$XPX                DATA
 0002:0000034c 00000004H .CRT$XPXA               DATA
 0002:00000350 00000004H .CRT$XPZ                DATA
 0002:00000354 00000004H .CRT$XTA                DATA
 0002:00000358 00000008H .CRT$XTZ                DATA
 0002:0000035c 00000000H .gfids$y                DATA
 0002:00000360 00006e60H .rdata                  DATA
 0002:000071c0 00000000H .rdata$CastGuardVftablesA DATA
 0002:000071c0 00000000H .rdata$CastGuardVftablesC DATA
 0002:000071c0 00000018H .rdata$T                DATA
 0002:000071d8 00000178H .rdata$r                DATA
 0002:00007350 0000002cH .rdata$sxdata           DATA
 0002:0000737c 00000030H .rdata$voltmd           DATA
 0002:000073ac 0000040cH .rdata$zzzdbg           DATA
 0002:000077b8 00000004H .rtc$IAA                DATA
 0002:000077bc 00000004H .rtc$IZZ                DATA
 0002:000077c0 00000004H .rtc$TAA                DATA
 0002:000077c4 00000004H .rtc$TZZ                DATA
 0002:000077c8 00000004H .tls                    DATA
 0002:000077cc 00000004H .tls$                   DATA
 0002:000077d0 00000008H .tls$ZZZ                DATA
 0002:000077d8 000006dcH .xdata$x                DATA
 0002:00007eb4 00000004H ATL$__a                 DATA
 0002:00007eb8 00000008H ATL$__z                 DATA
 0002:00007ec0 000000b0H .edata                  DATA
 0002:00007f70 00000078H .idata$2                DATA
 0002:00007fe8 00000014H .idata$3                DATA
 0002:00007ffc 000002fcH .idata$4                DATA
 0002:000082f8 00000bceH .idata$6                DATA
 0003:00000000 00000ad0H .data                   DATA
 0003:00000ad0 00000080H .data$r                 DATA
 0003:00000b50 00000018H .data$rs                DATA
 0003:00000b68 00000b80H .bss                    DATA
 0004:00000000 00000220H .rsrc$01                DATA
 0004:00000220 00004358H .rsrc$02                DATA

  Address         Publics by Value              Rva+Base       Lib:Object

 0000:00000000       ___guard_fids_count        00000000     <absolute>
 0000:00000000       ___guard_eh_cont_table     00000000     <absolute>
 0000:00000000       ___guard_longjmp_table     00000000     <absolute>
 0000:00000000       ___arm64x_extra_rfe_table  00000000     <absolute>
 0000:00000000       ___arm64x_redirection_metadata 00000000     <absolute>
 0000:00000000       ___guard_iat_count         00000000     <absolute>
 0000:00000000       ___guard_eh_cont_count     00000000     <absolute>
 0000:00000000       __except_list              00000000     <absolute>
 0000:00000000       ___x64_code_ranges_to_entry_points_count 00000000     <absolute>
 0000:00000000       ___hybrid_code_map_count   00000000     <absolute>
 0000:00000000       ___x64_code_ranges_to_entry_points 00000000     <absolute>
 0000:00000000       ___guard_iat_table         00000000     <absolute>
 0000:00000000       ___arm64x_native_entrypoint 00000000     <absolute>
 0000:00000000       ___hybrid_code_map         00000000     <absolute>
 0000:00000000       ___arm64x_extra_rfe_table_size 00000000     <absolute>
 0000:00000000       ___guard_longjmp_count     00000000     <absolute>
 0000:00000000       ___guard_check_icall_a64n_fptr 00000000     <absolute>
 0000:00000000       ___arm64x_redirection_metadata_count 00000000     <absolute>
 0000:00000000       ___hybrid_auxiliary_iat    00000000     <absolute>
 0000:00000000       ___dynamic_value_reloc_table 00000000     <absolute>
 0000:00000000       ___AbsoluteZero            00000000     <absolute>
 0000:00000000       ___enclave_config          00000000     <absolute>
 0000:00000000       ___guard_fids_table        00000000     <absolute>
 0000:00000000       ___hybrid_auxiliary_iat_copy 00000000     <absolute>
 0000:0000000b       ___safe_se_handler_count   0000000b     <absolute>
 0000:0000002c       __tls_array                0000002c     <absolute>
 0000:00000100       ___guard_flags             00000100     <absolute>
 0000:00000000       ___ImageBase               10000000     <linker-defined>
 0001:00000080       ?DupWide@_CW@@AAEXXZ       10001080 f   CWString.obj
 0001:0000009c       ?cw_dup@@YGXPBDAAHAAPA_W1@Z 1000109c f   CWString.obj
 0001:00000124       ?cw_memcpy@@YGHPA_WPBDH@Z  10001124 f   CWString.obj
 0001:00000150       ?cw_strcpy@@YAHPA_WPBD@Z   10001150 f   CWString.obj
 0001:00000163       ?cw_strlen@@YAHPBD@Z       10001163 f   CWString.obj
 0001:0000017c       ??0CAtlComModule@ATL@@QAE@XZ 1000117c f i OposVariant.obj
 0001:000001c1       ??0CAtlWinModule@ATL@@QAE@XZ 100011c1 f i OposVariant.obj
 0001:000001f8       ??0OposDispParms@@QAE@PAVOposVariant@@H@Z 100011f8 f   OposVariant.obj
 0001:00000269       ??1OposDispParms@@QAE@XZ   10001269 f   OposVariant.obj
 0001:00000277       ??A?$CSimpleArray@GV?$CSimpleArrayEqualHelper@G@ATL@@@ATL@@QAEAAGH@Z 10001277 f i OposVariant.obj
 0001:0000029c       ??_Estringdispid@CComTypeInfoHolder@ATL@@QAEPAXI@Z 1000129c f i OposVariant.obj
 0001:00000308       ?AtlWinModuleInit@ATL@@YGJPAU_ATL_WIN_MODULE70@1@@Z 10001308 f i OposVariant.obj
 0001:0000032e       ?AtlWinModuleTerm@ATL@@YGJPAU_ATL_WIN_MODULE70@1@PAUHINSTANCE__@@@Z 1000132e f i OposVariant.obj
 0001:00000391       ?ChangeBSTR@OposVariant@@QAEXPAPA_WAAJ@Z 10001391 f   OposVariant.obj
 0001:000003d2       ?ChangeLONG@OposVariant@@QAEXPAJAAJ@Z 100013d2 f   OposVariant.obj
 0001:00000413       ?GetLONG@OposVariant@@QAEJXZ 10001413 f   OposVariant.obj
 0001:0000042e       ?Init@CComCriticalSection@ATL@@QAEJXZ 1000142e f i OposVariant.obj
 0001:00000456       ?RemoveAll@?$CSimpleArray@GV?$CSimpleArrayEqualHelper@G@ATL@@@ATL@@QAEXXZ 10001456 f i OposVariant.obj
 0001:00000456       ?RemoveAll@?$CSimpleArray@PAUHINSTANCE__@@V?$CSimpleArrayEqualHelper@PAUHINSTANCE__@@@ATL@@@ATL@@QAEXXZ 10001456 f i atls:atlbase.obj
 0001:00000473       ?SetBSTR@OposVariant@@QAEXPA_WAAJ@Z 10001473 f   OposVariant.obj
 0001:000004a7       ?SetBSTR_Copy@OposVariant@@QAEXPA_WAAJ@Z 100014a7 f   OposVariant.obj
 0001:000004f7       ?SetBSTR_InOutPtr@OposVariant@@QAE_NPAPA_WAAJ@Z 100014f7 f   OposVariant.obj
 0001:0000052e       ?SetDispatch_Ptr@OposVariant@@QAEXPAUIDispatch@@AAJ@Z 1000152e f   OposVariant.obj
 0001:00000569       ?SetLONG@OposVariant@@QAEXJ@Z 10001569 f   OposVariant.obj
 0001:0000058b       ?SetLONG_Ptr@OposVariant@@QAEXPAJAAJ@Z 1000158b f   OposVariant.obj
 0001:000005be       ?SetString@OposVariant@@QAEXPB_WAAJ@Z 100015be f   OposVariant.obj
 0001:00000604       ?SetVARIANT_BOOL@OposVariant@@QAEXF@Z 10001604 f   OposVariant.obj
 0001:0000062e       ?Term@CAtlComModule@ATL@@QAEXXZ 1000162e f i OposVariant.obj
 0001:00000678       ?_AtlRaiseException@ATL@@YAXKK@Z 10001678 f i OposVariant.obj
 0001:0000068d       ?OnDrawAdvanced@CComControlBase@ATL@@UAEJAAUATL_DRAWINFO@@@Z 1000168d f i ToneIndicator.obj
 0001:00000780       ?Next@?$CComEnumImpl@UIEnumConnections@@$1?_GUID_b196b287_bab4_101a_b69c_00aa00341d07@@3U__s_GUID@@BUtagCONNECTDATA@@V?$_Copy@UtagCONNECTDATA@@@ATL@@@ATL@@UAGJKPAUtagCONNECTDATA@@PAK@Z 10001780 f i ToneIndicator.obj
 0001:0000084f       ?Skip@?$CComEnumImpl@UIEnumConnections@@$1?_GUID_b196b287_bab4_101a_b69c_00aa00341d07@@3U__s_GUID@@BUtagCONNECTDATA@@V?$_Copy@UtagCONNECTDATA@@@ATL@@@ATL@@UAGJK@Z 1000184f f i ToneIndicator.obj
 0001:0000087c       ?Reset@?$CComEnumImpl@UIEnumConnectionPoints@@$1?_GUID_b196b285_bab4_101a_b69c_00aa00341d07@@3U__s_GUID@@BPAUIConnectionPoint@@V?$_CopyInterface@UIConnectionPoint@@@ATL@@@ATL@@UAGJXZ 1000187c f i ToneIndicator.obj
 0001:0000087c       ?Reset@?$CComEnumImpl@UIEnumConnections@@$1?_GUID_b196b287_bab4_101a_b69c_00aa00341d07@@3U__s_GUID@@BUtagCONNECTDATA@@V?$_Copy@UtagCONNECTDATA@@@ATL@@@ATL@@UAGJXZ 1000187c f i ToneIndicator.obj
 0001:0000088e       ?Clone@?$CComEnumImpl@UIEnumConnections@@$1?_GUID_b196b287_bab4_101a_b69c_00aa00341d07@@3U__s_GUID@@BUtagCONNECTDATA@@V?$_Copy@UtagCONNECTDATA@@@ATL@@@ATL@@UAGJPAPAUIEnumConnections@@@Z 1000188e f i ToneIndicator.obj
 0001:0000096f       ?AddRef@?$CComObject@V?$CComEnum@UIEnumConnectionPoints@@$1?_GUID_b196b285_bab4_101a_b69c_00aa00341d07@@3U__s_GUID@@BPAUIConnectionPoint@@V?$_CopyInterface@UIConnectionPoint@@@ATL@@VCComSingleThreadModel@6@@ATL@@@ATL@@UAGKXZ 1000196f f i ToneIndicator.obj
 0001:0000096f       ?AddRef@?$CComObject@V?$CComEnum@UIEnumConnections@@$1?_GUID_b196b287_bab4_101a_b69c_00aa00341d07@@3U__s_GUID@@BUtagCONNECTDATA@@V?$_Copy@UtagCONNECTDATA@@@ATL@@VCComSingleThreadModel@6@@ATL@@@ATL@@UAGKXZ 1000196f f i ToneIndicator.obj
 0001:00000980       ?Release@?$CComObject@V?$CComEnum@UIEnumConnections@@$1?_GUID_b196b287_bab4_101a_b69c_00aa00341d07@@3U__s_GUID@@BUtagCONNECTDATA@@V?$_Copy@UtagCONNECTDATA@@@ATL@@VCComSingleThreadModel@6@@ATL@@@ATL@@UAGKXZ 10001980 f i ToneIndicator.obj
 0001:00000980       ?Release@?$CComObject@V?$CComEnum@UIEnumConnectionPoints@@$1?_GUID_b196b285_bab4_101a_b69c_00aa00341d07@@3U__s_GUID@@BPAUIConnectionPoint@@V?$_CopyInterface@UIConnectionPoint@@@ATL@@VCComSingleThreadModel@6@@ATL@@@ATL@@UAGKXZ 10001980 f i ToneIndicator.obj
 0001:000009bc       ?QueryInterface@?$CComObject@V?$CComEnum@UIEnumConnections@@$1?_GUID_b196b287_bab4_101a_b69c_00aa00341d07@@3U__s_GUID@@BUtagCONNECTDATA@@V?$_Copy@UtagCONNECTDATA@@@ATL@@VCComSingleThreadModel@6@@ATL@@@ATL@@UAGJABU_GUID@@PAPAX@Z 100019bc f i ToneIndicator.obj
 0001:000009d6       ??_E?$CComObject@V?$CComEnum@UIEnumConnections@@$1?_GUID_b196b287_bab4_101a_b69c_00aa00341d07@@3U__s_GUID@@BUtagCONNECTDATA@@V?$_Copy@UtagCONNECTDATA@@@ATL@@VCComSingleThreadModel@6@@ATL@@@ATL@@UAEPAXI@Z 100019d6 f i ToneIndicator.obj
 0001:000009d6       ??_G?$CComObject@V?$CComEnum@UIEnumConnections@@$1?_GUID_b196b287_bab4_101a_b69c_00aa00341d07@@3U__s_GUID@@BUtagCONNECTDATA@@V?$_Copy@UtagCONNECTDATA@@@ATL@@VCComSingleThreadModel@6@@ATL@@@ATL@@UAEPAXI@Z 100019d6 f i ToneIndicator.obj
 0001:000009f8       ?OnFinalMessage@?$CWindowImplBaseT@VCWindow@ATL@@V?$CWinTraits@$0FGAAAAAA@$0A@@2@@ATL@@UAEXPAUHWND__@@@Z 100019f8 f i ToneIndicator.obj
 0001:000009f8       ?ObjectMain@CComObjectRootBase@ATL@@SGX_N@Z 100019f8 f i ToneIndicator.obj
 0001:000009fb       ?GetCategoryMap@CComObjectRootBase@ATL@@SAPBU_ATL_CATMAP_ENTRY@2@XZ 100019fb f i ToneIndicator.obj
 0001:000009fb       ?GetObjectDescription@?$CComCoClass@VCOPOSToneIndicator@@$1?CLSID_OPOSToneIndicator@@3U_GUID@@B@ATL@@SGPB_WXZ 100019fb f i ToneIndicator.obj
 0001:000009fe       ?CreateInstance@CComClassFactory@ATL@@UAGJPAUIUnknown@@ABU_GUID@@PAPAX@Z 100019fe f i ToneIndicator.obj
 0001:00000a3c       ?LockServer@CComClassFactory@ATL@@UAGJH@Z 10001a3c f i ToneIndicator.obj
 0001:00000a5b       ??_ECComClassFactory@ATL@@UAEPAXI@Z 10001a5b f i ToneIndicator.obj
 0001:00000a5b       ??_GCComClassFactory@ATL@@UAEPAXI@Z 10001a5b f i ToneIndicator.obj
 0001:00000a86       ??_E?$CComObject@VCOPOSToneIndicator@@@ATL@@W3AEPAXI@Z 10001a86 f i ToneIndicator.obj
 0001:00000a8e       ??_E?$CComObject@VCOPOSToneIndicator@@@ATL@@WEM@AEPAXI@Z 10001a8e f i ToneIndicator.obj
 0001:00000a96       ?QueryInterface@?$CComObject@VCOPOSToneIndicator@@@ATL@@WHA@AGJABU_GUID@@PAPAX@Z 10001a96 f i ToneIndicator.obj
 0001:00000aa0       ?AddRef@?$CComObject@VCOPOSToneIndicator@@@ATL@@WHA@AGKXZ 10001aa0 f i ToneIndicator.obj
 0001:00000aaa       ?Release@?$CComObject@VCOPOSToneIndicator@@@ATL@@WHA@AGKXZ 10001aaa f i ToneIndicator.obj
 0001:00000ab4       ?QueryInterface@?$CComObject@VCOPOSToneIndicator@@@ATL@@WHE@AGJABU_GUID@@PAPAX@Z 10001ab4 f i ToneIndicator.obj
 0001:00000abe       ?AddRef@?$CComObject@VCOPOSToneIndicator@@@ATL@@WHE@AGKXZ 10001abe f i ToneIndicator.obj
 0001:00000ac8       ?Release@?$CComObject@VCOPOSToneIndicator@@@ATL@@WHE@AGKXZ 10001ac8 f i ToneIndicator.obj
 0001:00000ad2       ?QueryInterface@?$CComObject@VCOPOSToneIndicator@@@ATL@@WHI@AGJABU_GUID@@PAPAX@Z 10001ad2 f i ToneIndicator.obj
 0001:00000adc       ?AddRef@?$CComObject@VCOPOSToneIndicator@@@ATL@@WHI@AGKXZ 10001adc f i ToneIndicator.obj
 0001:00000ae6       ?Release@?$CComObject@VCOPOSToneIndicator@@@ATL@@WHI@AGKXZ 10001ae6 f i ToneIndicator.obj
 0001:00000af0       ?QueryInterface@?$CComObject@VCOPOSToneIndicator@@@ATL@@WHM@AGJABU_GUID@@PAPAX@Z 10001af0 f i ToneIndicator.obj
 0001:00000afa       ?AddRef@?$CComObject@VCOPOSToneIndicator@@@ATL@@WHM@AGKXZ 10001afa f i ToneIndicator.obj
 0001:00000b04       ?Release@?$CComObject@VCOPOSToneIndicator@@@ATL@@WHM@AGKXZ 10001b04 f i ToneIndicator.obj
 0001:00000b0e       ?QueryInterface@?$CComObject@VCOPOSToneIndicator@@@ATL@@WIA@AGJABU_GUID@@PAPAX@Z 10001b0e f i ToneIndicator.obj
 0001:00000b1b       ?AddRef@?$CComObject@VCOPOSToneIndicator@@@ATL@@WIA@AGKXZ 10001b1b f i ToneIndicator.obj
 0001:00000b28       ?Release@?$CComObject@VCOPOSToneIndicator@@@ATL@@WIA@AGKXZ 10001b28 f i ToneIndicator.obj
 0001:00000b35       ?QueryInterface@?$CComObject@VCOPOSToneIndicator@@@ATL@@WIE@AGJABU_GUID@@PAPAX@Z 10001b35 f i ToneIndicator.obj
 0001:00000b42       ?AddRef@?$CComObject@VCOPOSToneIndicator@@@ATL@@WIE@AGKXZ 10001b42 f i ToneIndicator.obj
 0001:00000b4f       ?Release@?$CComObject@VCOPOSToneIndicator@@@ATL@@WIE@AGKXZ 10001b4f f i ToneIndicator.obj
 0001:00000b5c       ?QueryInterface@?$CComObject@VCOPOSToneIndicator@@@ATL@@WII@AGJABU_GUID@@PAPAX@Z 10001b5c f i ToneIndicator.obj
 0001:00000b69       ?AddRef@?$CComObject@VCOPOSToneIndicator@@@ATL@@WII@AGKXZ 10001b69 f i ToneIndicator.obj
 0001:00000b76       ?Release@?$CComObject@VCOPOSToneIndicator@@@ATL@@WII@AGKXZ 10001b76 f i ToneIndicator.obj
 0001:00000b83       ?QueryInterface@?$CComObject@VCOPOSToneIndicator@@@ATL@@WIM@AGJABU_GUID@@PAPAX@Z 10001b83 f i ToneIndicator.obj
 0001:00000b90       ?AddRef@?$CComObject@VCOPOSToneIndicator@@@ATL@@WIM@AGKXZ 10001b90 f i ToneIndicator.obj
 0001:00000b9d       ?Release@?$CComObject@VCOPOSToneIndicator@@@ATL@@WIM@AGKXZ 10001b9d f i ToneIndicator.obj
 0001:00000baa       ?QueryInterface@?$CComObject@VCOPOSToneIndicator@@@ATL@@WJA@AGJABU_GUID@@PAPAX@Z 10001baa f i ToneIndicator.obj
 0001:00000bb7       ?AddRef@?$CComObject@VCOPOSToneIndicator@@@ATL@@WJA@AGKXZ 10001bb7 f i ToneIndicator.obj
 0001:00000bc4       ?Release@?$CComObject@VCOPOSToneIndicator@@@ATL@@WJA@AGKXZ 10001bc4 f i ToneIndicator.obj
 0001:00000bd1       ?QueryInterface@?$CComObject@VCOPOSToneIndicator@@@ATL@@WJE@AGJABU_GUID@@PAPAX@Z 10001bd1 f i ToneIndicator.obj
 0001:00000bde       ?AddRef@?$CComObject@VCOPOSToneIndicator@@@ATL@@WJE@AGKXZ 10001bde f i ToneIndicator.obj
 0001:00000beb       ?Release@?$CComObject@VCOPOSToneIndicator@@@ATL@@WJE@AGKXZ 10001beb f i ToneIndicator.obj
 0001:00000bf8       ?QueryInterface@?$CComObject@VCOPOSToneIndicator@@@ATL@@WJI@AGJABU_GUID@@PAPAX@Z 10001bf8 f i ToneIndicator.obj
 0001:00000c05       ?AddRef@?$CComObject@VCOPOSToneIndicator@@@ATL@@WJI@AGKXZ 10001c05 f i ToneIndicator.obj
 0001:00000c12       ?Release@?$CComObject@VCOPOSToneIndicator@@@ATL@@WJI@AGKXZ 10001c12 f i ToneIndicator.obj
 0001:00000c1f       ?QueryInterface@?$CComObject@VCOPOSToneIndicator@@@ATL@@WJM@AGJABU_GUID@@PAPAX@Z 10001c1f f i ToneIndicator.obj
 0001:00000c2c       ?AddRef@?$CComObject@VCOPOSToneIndicator@@@ATL@@WJM@AGKXZ 10001c2c f i ToneIndicator.obj
 0001:00000c39       ?Release@?$CComObject@VCOPOSToneIndicator@@@ATL@@WJM@AGKXZ 10001c39 f i ToneIndicator.obj
 0001:00000c46       ?QueryInterface@?$CComObject@VCOPOSToneIndicator@@@ATL@@WKA@AGJABU_GUID@@PAPAX@Z 10001c46 f i ToneIndicator.obj
 0001:00000c53       ?AddRef@?$CComObject@VCOPOSToneIndicator@@@ATL@@WKA@AGKXZ 10001c53 f i ToneIndicator.obj
 0001:00000c60       ?Release@?$CComObject@VCOPOSToneIndicator@@@ATL@@WKA@AGKXZ 10001c60 f i ToneIndicator.obj
 0001:00000c6d       ?AddRef@?$CComObject@VCOPOSToneIndicator@@@ATL@@WKI@AGKXZ 10001c6d f i ToneIndicator.obj
 0001:00000c7a       ?Release@?$CComObject@VCOPOSToneIndicator@@@ATL@@WKI@AGKXZ 10001c7a f i ToneIndicator.obj
 0001:00000c87       ?AddRef@?$CComObject@VCOPOSToneIndicator@@@ATL@@WLE@AGKXZ 10001c87 f i ToneIndicator.obj
 0001:00000c94       ?Release@?$CComObject@VCOPOSToneIndicator@@@ATL@@WLE@AGKXZ 10001c94 f i ToneIndicator.obj
 0001:00000ca1       ??_E?$CComContainedObject@VCOPOSToneIndicator@@@ATL@@W3AEPAXI@Z 10001ca1 f i ToneIndicator.obj
 0001:00000ca9       ??_E?$CComContainedObject@VCOPOSToneIndicator@@@ATL@@WEM@AEPAXI@Z 10001ca9 f i ToneIndicator.obj
 0001:00000cb1       ?QueryInterface@?$CComContainedObject@VCOPOSToneIndicator@@@ATL@@WHA@AGJABU_GUID@@PAPAX@Z 10001cb1 f i ToneIndicator.obj
 0001:00000cbb       ?AddRef@?$CComContainedObject@VCOPOSToneIndicator@@@ATL@@WHA@AGKXZ 10001cbb f i ToneIndicator.obj
 0001:00000cc5       ?Release@?$CComContainedObject@VCOPOSToneIndicator@@@ATL@@WHA@AGKXZ 10001cc5 f i ToneIndicator.obj
 0001:00000ccf       ?QueryInterface@?$CComContainedObject@VCOPOSToneIndicator@@@ATL@@WHE@AGJABU_GUID@@PAPAX@Z 10001ccf f i ToneIndicator.obj
 0001:00000cd9       ?AddRef@?$CComContainedObject@VCOPOSToneIndicator@@@ATL@@WHE@AGKXZ 10001cd9 f i ToneIndicator.obj
 0001:00000ce3       ?Release@?$CComContainedObject@VCOPOSToneIndicator@@@ATL@@WHE@AGKXZ 10001ce3 f i ToneIndicator.obj
 0001:00000ced       ?QueryInterface@?$CComContainedObject@VCOPOSToneIndicator@@@ATL@@WHI@AGJABU_GUID@@PAPAX@Z 10001ced f i ToneIndicator.obj
 0001:00000cf7       ?AddRef@?$CComContainedObject@VCOPOSToneIndicator@@@ATL@@WHI@AGKXZ 10001cf7 f i ToneIndicator.obj
 0001:00000d01       ?Release@?$CComContainedObject@VCOPOSToneIndicator@@@ATL@@WHI@AGKXZ 10001d01 f i ToneIndicator.obj
 0001:00000d0b       ?QueryInterface@?$CComContainedObject@VCOPOSToneIndicator@@@ATL@@WHM@AGJABU_GUID@@PAPAX@Z 10001d0b f i ToneIndicator.obj
 0001:00000d15       ?AddRef@?$CComContainedObject@VCOPOSToneIndicator@@@ATL@@WHM@AGKXZ 10001d15 f i ToneIndicator.obj
 0001:00000d1f       ?Release@?$CComContainedObject@VCOPOSToneIndicator@@@ATL@@WHM@AGKXZ 10001d1f f i ToneIndicator.obj
 0001:00000d29       ?QueryInterface@?$CComContainedObject@VCOPOSToneIndicator@@@ATL@@WIA@AGJABU_GUID@@PAPAX@Z 10001d29 f i ToneIndicator.obj
 0001:00000d36       ?AddRef@?$CComContainedObject@VCOPOSToneIndicator@@@ATL@@WIA@AGKXZ 10001d36 f i ToneIndicator.obj
 0001:00000d43       ?Release@?$CComContainedObject@VCOPOSToneIndicator@@@ATL@@WIA@AGKXZ 10001d43 f i ToneIndicator.obj
 0001:00000d50       ?QueryInterface@?$CComContainedObject@VCOPOSToneIndicator@@@ATL@@WIE@AGJABU_GUID@@PAPAX@Z 10001d50 f i ToneIndicator.obj
 0001:00000d5d       ?AddRef@?$CComContainedObject@VCOPOSToneIndicator@@@ATL@@WIE@AGKXZ 10001d5d f i ToneIndicator.obj
 0001:00000d6a       ?Release@?$CComContainedObject@VCOPOSToneIndicator@@@ATL@@WIE@AGKXZ 10001d6a f i ToneIndicator.obj
 0001:00000d77       ?QueryInterface@?$CComContainedObject@VCOPOSToneIndicator@@@ATL@@WII@AGJABU_GUID@@PAPAX@Z 10001d77 f i ToneIndicator.obj
 0001:00000d84       ?AddRef@?$CComContainedObject@VCOPOSToneIndicator@@@ATL@@WII@AGKXZ 10001d84 f i ToneIndicator.obj
 0001:00000d91       ?Release@?$CComContainedObject@VCOPOSToneIndicator@@@ATL@@WII@AGKXZ 10001d91 f i ToneIndicator.obj
 0001:00000d9e       ?QueryInterface@?$CComContainedObject@VCOPOSToneIndicator@@@ATL@@WIM@AGJABU_GUID@@PAPAX@Z 10001d9e f i ToneIndicator.obj
 0001:00000dab       ?AddRef@?$CComContainedObject@VCOPOSToneIndicator@@@ATL@@WIM@AGKXZ 10001dab f i ToneIndicator.obj
 0001:00000db8       ?Release@?$CComContainedObject@VCOPOSToneIndicator@@@ATL@@WIM@AGKXZ 10001db8 f i ToneIndicator.obj
 0001:00000dc5       ?QueryInterface@?$CComContainedObject@VCOPOSToneIndicator@@@ATL@@WJA@AGJABU_GUID@@PAPAX@Z 10001dc5 f i ToneIndicator.obj
 0001:00000dd2       ?AddRef@?$CComContainedObject@VCOPOSToneIndicator@@@ATL@@WJA@AGKXZ 10001dd2 f i ToneIndicator.obj
 0001:00000ddf       ?Release@?$CComContainedObject@VCOPOSToneIndicator@@@ATL@@WJA@AGKXZ 10001ddf f i ToneIndicator.obj
 0001:00000dec       ?QueryInterface@?$CComContainedObject@VCOPOSToneIndicator@@@ATL@@WJE@AGJABU_GUID@@PAPAX@Z 10001dec f i ToneIndicator.obj
 0001:00000df9       ?AddRef@?$CComContainedObject@VCOPOSToneIndicator@@@ATL@@WJE@AGKXZ 10001df9 f i ToneIndicator.obj
 0001:00000e06       ?Release@?$CComContainedObject@VCOPOSToneIndicator@@@ATL@@WJE@AGKXZ 10001e06 f i ToneIndicator.obj
 0001:00000e13       ?QueryInterface@?$CComContainedObject@VCOPOSToneIndicator@@@ATL@@WJI@AGJABU_GUID@@PAPAX@Z 10001e13 f i ToneIndicator.obj
 0001:00000e20       ?AddRef@?$CComContainedObject@VCOPOSToneIndicator@@@ATL@@WJI@AGKXZ 10001e20 f i ToneIndicator.obj
 0001:00000e2d       ?Release@?$CComContainedObject@VCOPOSToneIndicator@@@ATL@@WJI@AGKXZ 10001e2d f i ToneIndicator.obj
 0001:00000e3a       ?QueryInterface@?$CComContainedObject@VCOPOSToneIndicator@@@ATL@@WJM@AGJABU_GUID@@PAPAX@Z 10001e3a f i ToneIndicator.obj
 0001:00000e47       ?AddRef@?$CComContainedObject@VCOPOSToneIndicator@@@ATL@@WJM@AGKXZ 10001e47 f i ToneIndicator.obj
 0001:00000e54       ?Release@?$CComContainedObject@VCOPOSToneIndicator@@@ATL@@WJM@AGKXZ 10001e54 f i ToneIndicator.obj
 0001:00000e61       ?QueryInterface@?$CComContainedObject@VCOPOSToneIndicator@@@ATL@@WKA@AGJABU_GUID@@PAPAX@Z 10001e61 f i ToneIndicator.obj
 0001:00000e6e       ?AddRef@?$CComContainedObject@VCOPOSToneIndicator@@@ATL@@WKA@AGKXZ 10001e6e f i ToneIndicator.obj
 0001:00000e7b       ?Release@?$CComContainedObject@VCOPOSToneIndicator@@@ATL@@WKA@AGKXZ 10001e7b f i ToneIndicator.obj
 0001:00000e88       ?AddRef@?$CComContainedObject@VCOPOSToneIndicator@@@ATL@@WKI@AGKXZ 10001e88 f i ToneIndicator.obj
 0001:00000e95       ?Release@?$CComContainedObject@VCOPOSToneIndicator@@@ATL@@WKI@AGKXZ 10001e95 f i ToneIndicator.obj
 0001:00000ea2       ?AddRef@?$CComContainedObject@VCOPOSToneIndicator@@@ATL@@WLE@AGKXZ 10001ea2 f i ToneIndicator.obj
 0001:00000eaf       ?Release@?$CComContainedObject@VCOPOSToneIndicator@@@ATL@@WLE@AGKXZ 10001eaf f i ToneIndicator.obj
 0001:00000ebc       ?GetWindowProc@?$CWindowImplBaseT@VCWindow@ATL@@V?$CWinTraits@$0FGAAAAAA@$0A@@2@@ATL@@UAEP6GJPAUHWND__@@IIJ@ZXZ 10001ebc f i ToneIndicator.obj
 0001:00000ec2       ?StartWindowProc@?$CWindowImplBaseT@VCWindow@ATL@@V?$CWinTraits@$0FGAAAAAA@$0A@@2@@ATL@@SGJPAUHWND__@@IIJ@Z 10001ec2 f i ToneIndicator.obj
 0001:00000f16       ?GetTypeInfoCount@?$IDispatchImpl@UIOPOSToneIndicator@@$1?IID_IOPOSToneIndicator@@3U_GUID@@B$1?LIBID_OposToneIndicator_CCO@@3U3@B$00$0A@VCComTypeInfoHolder@ATL@@@ATL@@UAGJPAI@Z 10001f16 f i ToneIndicator.obj
 0001:00000f33       ?GetTypeInfo@?$IDispatchImpl@UIOPOSToneIndicator@@$1?IID_IOPOSToneIndicator@@3U_GUID@@B$1?LIBID_OposToneIndicator_CCO@@3U3@B$00$0A@VCComTypeInfoHolder@ATL@@@ATL@@UAGJIKPAPAUITypeInfo@@@Z 10001f33 f i ToneIndicator.obj
 0001:00000f57       ?GetIDsOfNames@?$IDispatchImpl@UIOPOSToneIndicator@@$1?IID_IOPOSToneIndicator@@3U_GUID@@B$1?LIBID_OposToneIndicator_CCO@@3U3@B$00$0A@VCComTypeInfoHolder@ATL@@@ATL@@UAGJABU_GUID@@PAPA_WIKPAJ@Z 10001f57 f i ToneIndicator.obj
 0001:00000f77       ?Invoke@?$IDispatchImpl@UIOPOSToneIndicator@@$1?IID_IOPOSToneIndicator@@3U_GUID@@B$1?LIBID_OposToneIndicator_CCO@@3U3@B$00$0A@VCComTypeInfoHolder@ATL@@@ATL@@UAGJJABU_GUID@@KGPAUtagDISPPARAMS@@PAUtagVARIANT@@PAUtagEXCEPINFO@@PAI@Z 10001f77 f i ToneIndicator.obj
 0001:00000f85       ?CreateControlWindow@?$CComControl@VCOPOSToneIndicator@@V?$CWindowImpl@VCOPOSToneIndicator@@VCWindow@ATL@@V?$CWinTraits@$0FGAAAAAA@$0A@@3@@ATL@@@ATL@@UAEPAUHWND__@@PAU3@AAUtagRECT@@@Z 10001f85 f i ToneIndicator.obj
 0001:00000fb4       ?ControlQueryInterface@?$CComControl@VCOPOSToneIndicator@@V?$CWindowImpl@VCOPOSToneIndicator@@VCWindow@ATL@@V?$CWinTraits@$0FGAAAAAA@$0A@@3@@ATL@@@ATL@@UAEJABU_GUID@@PAPAX@Z 10001fb4 f i ToneIndicator.obj
 0001:00000fcf       ?GetClassID@?$IPersistStorageImpl@VCOPOSToneIndicator@@@ATL@@UAGJPAU_GUID@@@Z 10001fcf f i ToneIndicator.obj
 0001:00000fcf       ?GetClassID@?$IPersistStreamInitImpl@VCOPOSToneIndicator@@@ATL@@UAGJPAU_GUID@@@Z 10001fcf f i ToneIndicator.obj
 0001:00000fcf       ?GetUserClassID@?$IOleObjectImpl@VCOPOSToneIndicator@@@ATL@@UAGJPAU_GUID@@@Z 10001fcf f i ToneIndicator.obj
 0001:00000ff3       ?IsDirty@?$IPersistStreamInitImpl@VCOPOSToneIndicator@@@ATL@@UAGJXZ 10001ff3 f i ToneIndicator.obj
 0001:00001012       ?Load@?$IPersistStreamInitImpl@VCOPOSToneIndicator@@@ATL@@UAGJPAUIStream@@@Z 10002012 f i ToneIndicator.obj
 0001:00001031       ?Save@?$IPersistStreamInitImpl@VCOPOSToneIndicator@@@ATL@@UAGJPAUIStream@@H@Z 10002031 f i ToneIndicator.obj
 0001:00001053       ?GetSizeMax@?$IPersistStreamInitImpl@VCOPOSToneIndicator@@@ATL@@UAGJPAT_ULARGE_INTEGER@@@Z 10002053 f i ToneIndicator.obj
 0001:00001232       ?InitNew@?$IPersistStreamInitImpl@VCOPOSToneIndicator@@@ATL@@UAGJXZ 10002232 f i ToneIndicator.obj
 0001:0000124f       ?SetColorScheme@?$IOleObjectImpl@VCOPOSToneIndicator@@@ATL@@UAGJPAUtagLOGPALETTE@@@Z 1000224f f i ToneIndicator.obj
 0001:0000124f       ?ContextSensitiveHelp@?$IOleInPlaceActiveObjectImpl@VCOPOSToneIndicator@@@ATL@@UAGJH@Z 1000224f f i ToneIndicator.obj
 0001:0000124f       ?OnMnemonic@?$IOleControlImpl@VCOPOSToneIndicator@@@ATL@@UAGJPAUtagMSG@@@Z 1000224f f i ToneIndicator.obj
 0001:0000124f       ?SODataDummy@COPOSToneIndicator@@MAGJJ@Z 1000224f f i ToneIndicator.obj
 0001:0000124f       ?Unfreeze@?$IViewObjectExImpl@VCOPOSToneIndicator@@@ATL@@UAGJK@Z 1000224f f i ToneIndicator.obj
 0001:0000124f       ?QueryGetData@?$IDataObjectImpl@VCOPOSToneIndicator@@@ATL@@UAGJPAUtagFORMATETC@@@Z 1000224f f i ToneIndicator.obj
 0001:0000124f       ?GetDropTarget@?$IOleInPlaceObjectWindowlessImpl@VCOPOSToneIndicator@@@ATL@@UAGJPAPAUIDropTarget@@@Z 1000224f f i ToneIndicator.obj
 0001:0000124f       ?ContextSensitiveHelp@?$IOleInPlaceObjectWindowlessImpl@VCOPOSToneIndicator@@@ATL@@UAGJH@Z 1000224f f i ToneIndicator.obj
 0001:0000124f       ?GetControlInfo@?$IOleControlImpl@VCOPOSToneIndicator@@@ATL@@UAGJPAUtagCONTROLINFO@@@Z 1000224f f i ToneIndicator.obj
 0001:00001257       ?OnFrameWindowActivate@?$IOleInPlaceActiveObjectImpl@VCOPOSToneIndicator@@@ATL@@UAGJH@Z 10002257 f i ToneIndicator.obj
 0001:00001257       ?EnableModeless@?$IOleInPlaceActiveObjectImpl@VCOPOSToneIndicator@@@ATL@@UAGJH@Z 10002257 f i ToneIndicator.obj
 0001:00001257       ?OnAmbientPropertyChange@?$IOleControlImpl@VCOPOSToneIndicator@@@ATL@@UAGJJ@Z 10002257 f i ToneIndicator.obj
 0001:00001257       ?SaveCompleted@?$IPersistStorageImpl@VCOPOSToneIndicator@@@ATL@@UAGJPAUIStorage@@@Z 10002257 f i ToneIndicator.obj
 0001:0000125c       ?SetClientSite@?$IOleObjectImpl@VCOPOSToneIndicator@@@ATL@@UAGJPAUIOleClientSite@@@Z 1000225c f i ToneIndicator.obj
 0001:00001279       ?GetClientSite@?$IOleObjectImpl@VCOPOSToneIndicator@@@ATL@@UAGJPAPAUIOleClientSite@@@Z 10002279 f i ToneIndicator.obj
 0001:00001296       ?SetHostNames@?$IOleObjectImpl@VCOPOSToneIndicator@@@ATL@@UAGJPB_W0@Z 10002296 f i ToneIndicator.obj
 0001:0000129b       ?Close@?$IOleObjectImpl@VCOPOSToneIndicator@@@ATL@@UAGJK@Z 1000229b f i ToneIndicator.obj
 0001:000012b8       ?GetDataHere@?$IDataObjectImpl@VCOPOSToneIndicator@@@ATL@@UAGJPAUtagFORMATETC@@PAUtagSTGMEDIUM@@@Z 100022b8 f i ToneIndicator.obj
 0001:000012b8       ?GetCanonicalFormatEtc@?$IDataObjectImpl@VCOPOSToneIndicator@@@ATL@@UAGJPAUtagFORMATETC@@0@Z 100022b8 f i ToneIndicator.obj
 0001:000012b8       ?QueryInterface@CRegObject@ATL@@UAGJABU_GUID@@PAPAX@Z 100022b8 f i ToneIndicator.obj
 0001:000012b8       ?EnumFormatEtc@?$IDataObjectImpl@VCOPOSToneIndicator@@@ATL@@UAGJKPAPAUIEnumFORMATETC@@@Z 100022b8 f i ToneIndicator.obj
 0001:000012b8       ?GetRect@?$IViewObjectExImpl@VCOPOSToneIndicator@@@ATL@@UAGJKPAU_RECTL@@@Z 100022b8 f i ToneIndicator.obj
 0001:000012b8       ?SetMoniker@?$IOleObjectImpl@VCOPOSToneIndicator@@@ATL@@UAGJKPAUIMoniker@@@Z 100022b8 f i ToneIndicator.obj
 0001:000012b8       ?GetClipboardData@?$IOleObjectImpl@VCOPOSToneIndicator@@@ATL@@UAGJKPAPAUIDataObject@@@Z 100022b8 f i ToneIndicator.obj
 0001:000012c0       ?InitFromData@?$IOleObjectImpl@VCOPOSToneIndicator@@@ATL@@UAGJPAUIDataObject@@HK@Z 100022c0 f i ToneIndicator.obj
 0001:000012c0       ?SetData@?$IDataObjectImpl@VCOPOSToneIndicator@@@ATL@@UAGJPAUtagFORMATETC@@PAUtagSTGMEDIUM@@H@Z 100022c0 f i ToneIndicator.obj
 0001:000012c0       ?GetMoniker@?$IOleObjectImpl@VCOPOSToneIndicator@@@ATL@@UAGJKKPAPAUIMoniker@@@Z 100022c0 f i ToneIndicator.obj
 0001:000012c8       ?DoVerb@?$IOleObjectImpl@VCOPOSToneIndicator@@@ATL@@UAGJJPAUtagMSG@@PAUIOleClientSite@@JPAUHWND__@@PBUtagRECT@@@Z 100022c8 f i ToneIndicator.obj
 0001:000013bc       ?EnumVerbs@?$IOleObjectImpl@VCOPOSToneIndicator@@@ATL@@UAGJPAPAUIEnumOLEVERB@@@Z 100023bc f i ToneIndicator.obj
 0001:000013de       ?Release@CRegObject@ATL@@UAGKXZ 100023de f i ToneIndicator.obj
 0001:000013de       ?HandsOffStorage@?$IPersistStorageImpl@VCOPOSToneIndicator@@@ATL@@UAGJXZ 100023de f i ToneIndicator.obj
 0001:000013de       ?Update@?$IOleObjectImpl@VCOPOSToneIndicator@@@ATL@@UAGJXZ 100023de f i ToneIndicator.obj
 0001:000013de       ?IsUpToDate@?$IOleObjectImpl@VCOPOSToneIndicator@@@ATL@@UAGJXZ 100023de f i ToneIndicator.obj
 0001:000013e3       ?GetUserType@?$IOleObjectImpl@VCOPOSToneIndicator@@@ATL@@UAGJKPAPA_W@Z 100023e3 f i ToneIndicator.obj
 0001:000013fb       ?SetExtent@?$IOleObjectImpl@VCOPOSToneIndicator@@@ATL@@UAGJKPAUtagSIZE@@@Z 100023fb f i ToneIndicator.obj
 0001:0000141b       ?GetExtent@?$IOleObjectImpl@VCOPOSToneIndicator@@@ATL@@UAGJKPAUtagSIZE@@@Z 1000241b f i ToneIndicator.obj
 0001:00001459       ?Advise@?$IOleObjectImpl@VCOPOSToneIndicator@@@ATL@@UAGJPAUIAdviseSink@@PAK@Z 10002459 f i ToneIndicator.obj
 0001:00001479       ?Unadvise@?$IOleObjectImpl@VCOPOSToneIndicator@@@ATL@@UAGJK@Z 10002479 f i ToneIndicator.obj
 0001:000014a8       ?EnumAdvise@?$IOleObjectImpl@VCOPOSToneIndicator@@@ATL@@UAGJPAPAUIEnumSTATDATA@@@Z 100024a8 f i ToneIndicator.obj
 0001:000014e8       ?GetMiscStatus@?$IOleObjectImpl@VCOPOSToneIndicator@@@ATL@@UAGJKPAK@Z 100024e8 f i ToneIndicator.obj
 0001:00001500       ?GetWindow@?$IOleInPlaceActiveObjectImpl@VCOPOSToneIndicator@@@ATL@@UAGJPAPAUHWND__@@@Z 10002500 f i ToneIndicator.obj
 0001:0000154d       ?TranslateAcceleratorW@?$IOleInPlaceActiveObjectImpl@VCOPOSToneIndicator@@@ATL@@UAGJPAUtagMSG@@@Z 1000254d f i ToneIndicator.obj
 0001:000015fb       ?OnDocWindowActivate@?$IOleInPlaceActiveObjectImpl@VCOPOSToneIndicator@@@ATL@@UAGJH@Z 100025fb f i ToneIndicator.obj
 0001:0000161d       ?ResizeBorder@?$IOleInPlaceActiveObjectImpl@VCOPOSToneIndicator@@@ATL@@UAGJPBUtagRECT@@PAUIOleInPlaceUIWindow@@H@Z 1000261d f i ToneIndicator.obj
 0001:00001622       ?Draw@?$IViewObjectExImpl@VCOPOSToneIndicator@@@ATL@@UAGJKJPAXPAUtagDVTARGETDEVICE@@PAUHDC__@@2PBU_RECTL@@3P6GHK@ZK@Z 10002622 f i ToneIndicator.obj
 0001:00001654       ?GetColorSet@?$IViewObjectExImpl@VCOPOSToneIndicator@@@ATL@@UAGJKJPAXPAUtagDVTARGETDEVICE@@PAUHDC__@@PAPAUtagLOGPALETTE@@@Z 10002654 f i ToneIndicator.obj
 0001:0000165c       ?Freeze@?$IViewObjectExImpl@VCOPOSToneIndicator@@@ATL@@UAGJKJPAXPAK@Z 1000265c f i ToneIndicator.obj
 0001:00001664       ?SetAdvise@?$IViewObjectExImpl@VCOPOSToneIndicator@@@ATL@@UAGJKKPAUIAdviseSink@@@Z 10002664 f i ToneIndicator.obj
 0001:00001683       ?GetAdvise@?$IViewObjectExImpl@VCOPOSToneIndicator@@@ATL@@UAGJPAK0PAPAUIAdviseSink@@@Z 10002683 f i ToneIndicator.obj
 0001:000016b8       ?GetExtent@?$IViewObjectExImpl@VCOPOSToneIndicator@@@ATL@@UAGJKJPAUtagDVTARGETDEVICE@@PAUtagSIZE@@@Z 100026b8 f i ToneIndicator.obj
 0001:000016e9       ?GetViewStatus@?$IViewObjectExImpl@VCOPOSToneIndicator@@@ATL@@UAGJPAK@Z 100026e9 f i ToneIndicator.obj
 0001:00001706       ?QueryHitPoint@?$IViewObjectExImpl@VCOPOSToneIndicator@@@ATL@@UAGJKPBUtagRECT@@UtagPOINT@@JPAK@Z 10002706 f i ToneIndicator.obj
 0001:00001747       ?QueryHitRect@?$IViewObjectExImpl@VCOPOSToneIndicator@@@ATL@@UAGJKPBUtagRECT@@0JPAK@Z 10002747 f i ToneIndicator.obj
 0001:000017a2       ?GetNaturalExtent@?$IViewObjectExImpl@VCOPOSToneIndicator@@@ATL@@UAGJKJPAUtagDVTARGETDEVICE@@PAUHDC__@@PAUtagExtentInfo@@PAUtagSIZE@@@Z 100027a2 f i ToneIndicator.obj
 0001:000017ed       ?GetWindow@?$IOleInPlaceObjectWindowlessImpl@VCOPOSToneIndicator@@@ATL@@UAGJPAPAUHWND__@@@Z 100027ed f i ToneIndicator.obj
 0001:0000183a       ?InPlaceDeactivate@?$IOleInPlaceObjectWindowlessImpl@VCOPOSToneIndicator@@@ATL@@UAGJXZ 1000283a f i ToneIndicator.obj
 0001:00001854       ?UIDeactivate@?$IOleInPlaceObjectWindowlessImpl@VCOPOSToneIndicator@@@ATL@@UAGJXZ 10002854 f i ToneIndicator.obj
 0001:0000186e       ?SetObjectRects@?$IOleInPlaceObjectWindowlessImpl@VCOPOSToneIndicator@@@ATL@@UAGJPBUtagRECT@@0@Z 1000286e f i ToneIndicator.obj
 0001:0000188e       ?ReactivateAndUndo@?$IOleInPlaceObjectWindowlessImpl@VCOPOSToneIndicator@@@ATL@@UAGJXZ 1000288e f i ToneIndicator.obj
 0001:00001896       ?OnWindowMessage@?$IOleInPlaceObjectWindowlessImpl@VCOPOSToneIndicator@@@ATL@@UAGJIIJPAJ@Z 10002896 f i ToneIndicator.obj
 0001:00001906       ?EnumConnectionPoints@?$IConnectionPointContainerImpl@VCOPOSToneIndicator@@@ATL@@UAGJPAPAUIEnumConnectionPoints@@@Z 10002906 f i ToneIndicator.obj
 0001:00001a96       ?FindConnectionPoint@?$IConnectionPointContainerImpl@VCOPOSToneIndicator@@@ATL@@UAGJABU_GUID@@PAPAUIConnectionPoint@@@Z 10002a96 f i ToneIndicator.obj
 0001:00001b39       ?IsDirty@?$IPersistStorageImpl@VCOPOSToneIndicator@@@ATL@@UAGJXZ 10002b39 f i ToneIndicator.obj
 0001:00001b69       ?InitNew@?$IPersistStorageImpl@VCOPOSToneIndicator@@@ATL@@UAGJPAUIStorage@@@Z 10002b69 f i ToneIndicator.obj
 0001:00001b99       ?Load@?$IPersistStorageImpl@VCOPOSToneIndicator@@@ATL@@UAGJPAUIStorage@@@Z 10002b99 f i ToneIndicator.obj
 0001:00001c05       ?Save@?$IPersistStorageImpl@VCOPOSToneIndicator@@@ATL@@UAGJPAUIStorage@@H@Z 10002c05 f i ToneIndicator.obj
 0001:00001c78       ?GetPages@?$ISpecifyPropertyPagesImpl@VCOPOSToneIndicator@@@ATL@@UAGJPAUtagCAUUID@@@Z 10002c78 f i ToneIndicator.obj
 0001:00001c8f       ?QuickActivate@?$IQuickActivateImpl@VCOPOSToneIndicator@@@ATL@@UAGJPAUtagQACONTAINER@@PAUtagQACONTROL@@@Z 10002c8f f i ToneIndicator.obj
 0001:00001cb2       ?SetContentExtent@?$IQuickActivateImpl@VCOPOSToneIndicator@@@ATL@@UAGJPAUtagSIZE@@@Z 10002cb2 f i ToneIndicator.obj
 0001:00001cde       ?GetContentExtent@?$IQuickActivateImpl@VCOPOSToneIndicator@@@ATL@@UAGJPAUtagSIZE@@@Z 10002cde f i ToneIndicator.obj
 0001:00001d1a       ?GetData@?$IDataObjectImpl@VCOPOSToneIndicator@@@ATL@@UAGJPAUtagFORMATETC@@PAUtagSTGMEDIUM@@@Z 10002d1a f i ToneIndicator.obj
 0001:00001d3d       ?DAdvise@?$IDataObjectImpl@VCOPOSToneIndicator@@@ATL@@UAGJPAUtagFORMATETC@@KPAUIAdviseSink@@PAK@Z 10002d3d f i ToneIndicator.obj
 0001:00001d7e       ?DUnadvise@?$IDataObjectImpl@VCOPOSToneIndicator@@@ATL@@UAGJK@Z 10002d7e f i ToneIndicator.obj
 0001:00001dac       ?EnumDAdvise@?$IDataObjectImpl@VCOPOSToneIndicator@@@ATL@@UAGJPAPAUIEnumSTATDATA@@@Z 10002dac f i ToneIndicator.obj
 0001:00001deb       ?GetClassInfoW@?$IProvideClassInfo2Impl@$1?CLSID_OPOSToneIndicator@@3U_GUID@@B$1?DIID__IOPOSToneIndicatorEvents@@3U2@B$1?LIBID_OposToneIndicator_CCO@@3U2@B$00$0A@VCComTypeInfoHolder@ATL@@@ATL@@UAGJPAPAUITypeInfo@@@Z 10002deb f i ToneIndicator.obj
 0001:00001e01       ?GetGUID@?$IProvideClassInfo2Impl@$1?CLSID_OPOSToneIndicator@@3U_GUID@@B$1?DIID__IOPOSToneIndicatorEvents@@3U2@B$1?LIBID_OposToneIndicator_CCO@@3U2@B$00$0A@VCComTypeInfoHolder@ATL@@@ATL@@UAGJKPAU_GUID@@@Z 10002e01 f i ToneIndicator.obj
 0001:00001e3f       __get_startup_argv_mode    10002e3f f i LIBCMT:argv_mode.obj
 0001:00001e3f       ?FAccessAllowed@?$IObjectSafetyImpl@VCOPOSToneIndicator@@$02@ATL@@MAEHXZ 10002e3f f i ToneIndicator.obj
 0001:00001e43       ?Lock@CAtlModule@ATL@@UAEJXZ 10002e43 f i ToneIndicator.obj
 0001:00001e4d       ?Unlock@CAtlModule@ATL@@UAEJXZ 10002e4d f i ToneIndicator.obj
 0001:00001e57       ?GetInterfaceSafetyOptions@?$IObjectSafetyImpl@VCOPOSToneIndicator@@$02@ATL@@UAGJABU_GUID@@PAK1@Z 10002e57 f i ToneIndicator.obj
 0001:00001eca       ?GetLockCount@CAtlModule@ATL@@UAEJXZ 10002eca f i ToneIndicator.obj
 0001:00001ece       ?SetInterfaceSafetyOptions@?$IObjectSafetyImpl@VCOPOSToneIndicator@@$02@ATL@@UAGJABU_GUID@@KK@Z 10002ece f i ToneIndicator.obj
 0001:00001f48       ?GetGITPtr@CAtlModule@ATL@@UAEJPAPAUIGlobalInterfaceTable@@@Z 10002f48 f i ToneIndicator.obj
 0001:00001f94       ?_LocCPQueryInterface@?$IConnectionPointImpl@VCOPOSToneIndicator@@$1?IID_IPropertyNotifySink@@3U_GUID@@BVCComDynamicUnkArray@ATL@@@ATL@@UAGJABU_GUID@@PAPAX@Z 10002f94 f i ToneIndicator.obj
 0001:00001f94       ?_LocCPQueryInterface@?$IConnectionPointImpl@VCOPOSToneIndicator@@$1?DIID__IOPOSToneIndicatorEvents@@3U_GUID@@BVCComDynamicUnkArray@ATL@@@ATL@@UAGJABU_GUID@@PAPAX@Z 10002f94 f i ToneIndicator.obj
 0001:00001fe1       ?GetConnectionInterface@?$IConnectionPointImpl@VCOPOSToneIndicator@@$1?IID_IPropertyNotifySink@@3U_GUID@@BVCComDynamicUnkArray@ATL@@@ATL@@UAGJPAU_GUID@@@Z 10002fe1 f i ToneIndicator.obj
 0001:00002005       ?GetConnectionPointContainer@?$IConnectionPointImpl@VCOPOSToneIndicator@@$1?IID_IPropertyNotifySink@@3U_GUID@@BVCComDynamicUnkArray@ATL@@@ATL@@UAGJPAPAUIConnectionPointContainer@@@Z 10003005 f i ToneIndicator.obj
 0001:00002028       ?Advise@?$IConnectionPointImpl@VCOPOSToneIndicator@@$1?IID_IPropertyNotifySink@@3U_GUID@@BVCComDynamicUnkArray@ATL@@@ATL@@UAGJPAUIUnknown@@PAK@Z 10003028 f i ToneIndicator.obj
 0001:00002028       ?Advise@?$IConnectionPointImpl@VCOPOSToneIndicator@@$1?DIID__IOPOSToneIndicatorEvents@@3U_GUID@@BVCComDynamicUnkArray@ATL@@@ATL@@UAGJPAUIUnknown@@PAK@Z 10003028 f i ToneIndicator.obj
 0001:000020c8       ?Unadvise@?$IConnectionPointImpl@VCOPOSToneIndicator@@$1?DIID__IOPOSToneIndicatorEvents@@3U_GUID@@BVCComDynamicUnkArray@ATL@@@ATL@@UAGJK@Z 100030c8 f i ToneIndicator.obj
 0001:000020c8       ?Unadvise@?$IConnectionPointImpl@VCOPOSToneIndicator@@$1?IID_IPropertyNotifySink@@3U_GUID@@BVCComDynamicUnkArray@ATL@@@ATL@@UAGJK@Z 100030c8 f i ToneIndicator.obj
 0001:00002108       ?EnumConnections@?$IConnectionPointImpl@VCOPOSToneIndicator@@$1?IID_IPropertyNotifySink@@3U_GUID@@BVCComDynamicUnkArray@ATL@@@ATL@@UAGJPAPAUIEnumConnections@@@Z 10003108 f i ToneIndicator.obj
 0001:00002108       ?EnumConnections@?$IConnectionPointImpl@VCOPOSToneIndicator@@$1?DIID__IOPOSToneIndicatorEvents@@3U_GUID@@BVCComDynamicUnkArray@ATL@@@ATL@@UAGJPAPAUIEnumConnections@@@Z 10003108 f i ToneIndicator.obj
 0001:0000220b       ?GetConnectionInterface@?$IConnectionPointImpl@VCOPOSToneIndicator@@$1?DIID__IOPOSToneIndicatorEvents@@3U_GUID@@BVCComDynamicUnkArray@ATL@@@ATL@@UAGJPAU_GUID@@@Z 1000320b f i ToneIndicator.obj
 0001:0000222f       ?GetConnectionPointContainer@?$IConnectionPointImpl@VCOPOSToneIndicator@@$1?DIID__IOPOSToneIndicatorEvents@@3U_GUID@@BVCComDynamicUnkArray@ATL@@@ATL@@UAGJPAPAUIConnectionPointContainer@@@Z 1000322f f i ToneIndicator.obj
 0001:00002252       ?AddCommonRGSReplacements@?$CAtlModuleT@VCComModule@ATL@@@ATL@@UAEJPAUIRegistrarBase@@@Z 10003252 f i ToneIndicator.obj
 0001:0000226c       ?UpdateRegistry@COPOSToneIndicator@@SGJH@Z 1000326c f i ToneIndicator.obj
 0001:00002284       ?ProcessWindowMessage@COPOSToneIndicator@@UAEHPAUHWND__@@IIJAAJK@Z 10003284 f i ToneIndicator.obj
 0001:000022d1       ?UpdateRegistryFromResourceD@CComModule@ATL@@UAGJIHPAU_ATL_REGMAP_ENTRY@2@@Z 100032d1 f i ToneIndicator.obj
 0001:000022d1       ?UpdateRegistryFromResourceD@CComModule@ATL@@UAGJPB_WHPAU_ATL_REGMAP_ENTRY@2@@Z 100032d1 f i ToneIndicator.obj
 0001:000022d9       ?SODirectIO@COPOSToneIndicator@@MAGJJPAJPAPA_W@Z 100032d9 f i ToneIndicator.obj
 0001:00002322       ?SOError@COPOSToneIndicator@@MAGJJJJPAJ@Z 10003322 f i ToneIndicator.obj
 0001:00002377       ?SOOutputComplete@COPOSToneIndicator@@MAGJJ@Z 10003377 f i ToneIndicator.obj
 0001:000023b0       ?UpdateRegistryFromResource@CComModule@ATL@@UAGJPB_WHPAU_ATL_REGMAP_ENTRY@2@@Z 100033b0 f i ToneIndicator.obj
 0001:000023b9       ?SOStatusUpdate@COPOSToneIndicator@@MAGJJ@Z 100033b9 f i ToneIndicator.obj
 0001:000023f2       ?UpdateRegistryFromResource@CComModule@ATL@@UAGJIHPAU_ATL_REGMAP_ENTRY@2@@Z 100033f2 f i ToneIndicator.obj
 0001:000023fb       ??_GCComModule@ATL@@UAEPAXI@Z 100033fb f i ToneIndicator.obj
 0001:000023fb       ??_ECComModule@ATL@@UAEPAXI@Z 100033fb f i ToneIndicator.obj
 0001:00002423       ?CreateInstance@?$CComCreator@V?$CComObjectCached@VCComClassFactory@ATL@@@ATL@@@ATL@@SGJPAXABU_GUID@@PAPAX@Z 10003423 f i ToneIndicator.obj
 0001:000024c4       ?CreateInstance@?$CComCreator2@V?$CComCreator@V?$CComObject@VCOPOSToneIndicator@@@ATL@@@ATL@@V?$CComCreator@V?$CComAggObject@VCOPOSToneIndicator@@@ATL@@@2@@ATL@@SGJPAXABU_GUID@@PAPAX@Z 100034c4 f i ToneIndicator.obj
 0001:000024e4       ?AddRef@?$CComObjectCached@VCComClassFactory@ATL@@@ATL@@UAGKXZ 100034e4 f i ToneIndicator.obj
 0001:0000250b       ?Release@?$CComObjectCached@VCComClassFactory@ATL@@@ATL@@UAGKXZ 1000350b f i ToneIndicator.obj
 0001:00002541       ?QueryInterface@?$CComObjectCached@VCComClassFactory@ATL@@@ATL@@UAGJABU_GUID@@PAPAX@Z 10003541 f i ToneIndicator.obj
 0001:0000255b       ??_E?$CComObjectCached@VCComClassFactory@ATL@@@ATL@@UAEPAXI@Z 1000355b f i ToneIndicator.obj
 0001:0000255b       ??_G?$CComObjectCached@VCComClassFactory@ATL@@@ATL@@UAEPAXI@Z 1000355b f i ToneIndicator.obj
 0001:0000257d       ?Next@?$CComEnumImpl@UIEnumConnectionPoints@@$1?_GUID_b196b285_bab4_101a_b69c_00aa00341d07@@3U__s_GUID@@BPAUIConnectionPoint@@V?$_CopyInterface@UIConnectionPoint@@@ATL@@@ATL@@UAGJKPAPAUIConnectionPoint@@PAK@Z 1000357d f i ToneIndicator.obj
 0001:0000264c       ?Skip@?$CComEnumImpl@UIEnumConnectionPoints@@$1?_GUID_b196b285_bab4_101a_b69c_00aa00341d07@@3U__s_GUID@@BPAUIConnectionPoint@@V?$_CopyInterface@UIConnectionPoint@@@ATL@@@ATL@@UAGJK@Z 1000364c f i ToneIndicator.obj
 0001:00002679       ?Clone@?$CComEnumImpl@UIEnumConnectionPoints@@$1?_GUID_b196b285_bab4_101a_b69c_00aa00341d07@@3U__s_GUID@@BPAUIConnectionPoint@@V?$_CopyInterface@UIConnectionPoint@@@ATL@@@ATL@@UAGJPAPAUIEnumConnectionPoints@@@Z 10003679 f i ToneIndicator.obj
 0001:0000275a       ?QueryInterface@?$CComObject@V?$CComEnum@UIEnumConnectionPoints@@$1?_GUID_b196b285_bab4_101a_b69c_00aa00341d07@@3U__s_GUID@@BPAUIConnectionPoint@@V?$_CopyInterface@UIConnectionPoint@@@ATL@@VCComSingleThreadModel@6@@ATL@@@ATL@@UAGJABU_GUID@@PAPAX@Z 1000375a f i ToneIndicator.obj
 0001:00002774       ??_E?$CComObject@V?$CComEnum@UIEnumConnectionPoints@@$1?_GUID_b196b285_bab4_101a_b69c_00aa00341d07@@3U__s_GUID@@BPAUIConnectionPoint@@V?$_CopyInterface@UIConnectionPoint@@@ATL@@VCComSingleThreadModel@6@@ATL@@@ATL@@UAEPAXI@Z 10003774 f i ToneIndicator.obj
 0001:00002774       ??_G?$CComObject@V?$CComEnum@UIEnumConnectionPoints@@$1?_GUID_b196b285_bab4_101a_b69c_00aa00341d07@@3U__s_GUID@@BPAUIConnectionPoint@@V?$_CopyInterface@UIConnectionPoint@@@ATL@@VCComSingleThreadModel@6@@ATL@@@ATL@@UAEPAXI@Z 10003774 f i ToneIndicator.obj
 0001:00002796       ?AddRef@CRegObject@ATL@@UAGKXZ 10003796 f i ToneIndicator.obj
 0001:0000279c       ?AddReplacement@CRegObject@ATL@@UAGJPB_W0@Z 1000379c f i ToneIndicator.obj
 0001:000027d5       ?ClearReplacements@CRegObject@ATL@@UAGJXZ 100037d5 f i ToneIndicator.obj
 0001:000027e7       ??_GCRegObject@ATL@@UAEPAXI@Z 100037e7 f i ToneIndicator.obj
 0001:000027e7       ??_ECRegObject@ATL@@UAEPAXI@Z 100037e7 f i ToneIndicator.obj
 0001:00002809       ?AddRef@?$CComAggObject@VCOPOSToneIndicator@@@ATL@@UAGKXZ 10003809 f i ToneIndicator.obj
 0001:0000281a       ?Release@?$CComAggObject@VCOPOSToneIndicator@@@ATL@@UAGKXZ 1000381a f i ToneIndicator.obj
 0001:00002856       ?QueryInterface@?$CComAggObject@VCOPOSToneIndicator@@@ATL@@UAGJABU_GUID@@PAPAX@Z 10003856 f i ToneIndicator.obj
 0001:000028a5       ?AddRef@?$CComContainedObject@VCOPOSToneIndicator@@@ATL@@UAGKXZ 100038a5 f i ToneIndicator.obj
 0001:000028bb       ?Release@?$CComContainedObject@VCOPOSToneIndicator@@@ATL@@UAGKXZ 100038bb f i ToneIndicator.obj
 0001:000028d1       ?QueryInterface@?$CComContainedObject@VCOPOSToneIndicator@@@ATL@@UAGJABU_GUID@@PAPAX@Z 100038d1 f i ToneIndicator.obj
 0001:000028ec       ??_G?$CComAggObject@VCOPOSToneIndicator@@@ATL@@UAEPAXI@Z 100038ec f i ToneIndicator.obj
 0001:000028ec       ??_E?$CComAggObject@VCOPOSToneIndicator@@@ATL@@UAEPAXI@Z 100038ec f i ToneIndicator.obj
 0001:00002911       ?AddRef@?$CComObject@VCOPOSToneIndicator@@@ATL@@UAGKXZ 10003911 f i ToneIndicator.obj
 0001:00002928       ?Release@?$CComObject@VCOPOSToneIndicator@@@ATL@@UAGKXZ 10003928 f i ToneIndicator.obj
 0001:0000296a       ?QueryInterface@?$CComObject@VCOPOSToneIndicator@@@ATL@@UAGJABU_GUID@@PAPAX@Z 1000396a f i ToneIndicator.obj
 0001:00002984       ??$?4UITypeInfo2@@@?$CComPtr@UITypeInfo@@@ATL@@QAEPAUITypeInfo@@ABV?$CComPtr@UITypeInfo2@@@1@@Z 10003984 f i ToneIndicator.obj
 0001:000029b1       ??$AtlAdd@K@ATL@@YAJPAKKK@Z 100039b1 f i ToneIndicator.obj
 0001:000029d4       ??$AtlAdd@_K@ATL@@YAJPA_K_K1@Z 100039d4 f i ToneIndicator.obj
 0001:00002a0c       ??$AtlAddThrow@K@ATL@@YAKKK@Z 10003a0c f i ToneIndicator.obj
 0001:00002a32       ??$AtlModuleRegisterWndClassInfoT@VAtlModuleRegisterWndClassInfoParamW@ATL@@@ATL@@YAGPAU_ATL_BASE_MODULE70@0@PAU_ATL_WIN_MODULE70@0@PAU_ATL_WNDCLASSINFOW@0@PAP6GJPAUHWND__@@IIJ@ZVAtlModuleRegisterWndClassInfoParamW@0@@Z 10003a32 f i ToneIndicator.obj
 0001:00002b7f       ??$AtlMultiply@H@ATL@@YAJPAHHH@Z 10003b7f f i ToneIndicator.obj
 0001:00002bb7       ??$AtlMultiply@I@ATL@@YAJPAIII@Z 10003bb7 f i ToneIndicator.obj
 0001:00002bb7       ??$AtlMultiply@K@ATL@@YAJPAKKK@Z 10003bb7 f i ToneIndicator.obj
 0001:00002bd9       ??$AtlMultiplyThrow@I@ATL@@YAIII@Z 10003bd9 f i ToneIndicator.obj
 0001:00002bff       ??0?$CComAggObject@VCOPOSToneIndicator@@@ATL@@QAE@PAX@Z 10003bff f i ToneIndicator.obj
 0001:00002c2c       ??0?$CComContainedObject@VCOPOSToneIndicator@@@ATL@@QAE@PAX@Z 10003c2c f i ToneIndicator.obj
 0001:00002ce5       ??0?$CComObject@V?$CComEnum@UIEnumConnectionPoints@@$1?_GUID_b196b285_bab4_101a_b69c_00aa00341d07@@3U__s_GUID@@BPAUIConnectionPoint@@V?$_CopyInterface@UIConnectionPoint@@@ATL@@VCComSingleThreadModel@6@@ATL@@@ATL@@QAE@PAX@Z 10003ce5 f i ToneIndicator.obj
 0001:00002d13       ??0?$CComObject@V?$CComEnum@UIEnumConnections@@$1?_GUID_b196b287_bab4_101a_b69c_00aa00341d07@@3U__s_GUID@@BUtagCONNECTDATA@@V?$_Copy@UtagCONNECTDATA@@@ATL@@VCComSingleThreadModel@6@@ATL@@@ATL@@QAE@PAX@Z 10003d13 f i ToneIndicator.obj
 0001:00002d41       ??0?$CComObject@VCOPOSToneIndicator@@@ATL@@QAE@PAX@Z 10003d41 f i ToneIndicator.obj
 0001:00002df8       ??0?$CComQIPtr@UIOleControlSite@@$1?_GUID_b196b289_bab4_101a_b69c_00aa00341d07@@3U__s_GUID@@B@ATL@@QAE@PAUIUnknown@@@Z 10003df8 f i ToneIndicator.obj
 0001:00002e21       ??0CAtlModule@ATL@@QAE@XZ  10003e21 f i ToneIndicator.obj
 0001:00002e62       ??0CParseBuffer@CRegParser@ATL@@QAE@H@Z 10003e62 f i ToneIndicator.obj
 0001:00002e98       ??0_ATL_MSG@ATL@@QAE@PAUHWND__@@IIJH@Z 10003e98 f i ToneIndicator.obj
 0001:00002ed0       ??1?$CComAggObject@VCOPOSToneIndicator@@@ATL@@UAE@XZ 10003ed0 f i ToneIndicator.obj
 0001:00002ef4       ??1?$CComEnumImpl@UIEnumConnectionPoints@@$1?_GUID_b196b285_bab4_101a_b69c_00aa00341d07@@3U__s_GUID@@BPAUIConnectionPoint@@V?$_CopyInterface@UIConnectionPoint@@@ATL@@@ATL@@UAE@XZ 10003ef4 f i ToneIndicator.obj
 0001:00002f30       ??1?$CComEnumImpl@UIEnumConnections@@$1?_GUID_b196b287_bab4_101a_b69c_00aa00341d07@@3U__s_GUID@@BUtagCONNECTDATA@@V?$_Copy@UtagCONNECTDATA@@@ATL@@@ATL@@UAE@XZ 10003f30 f i ToneIndicator.obj
 0001:00002f6c       ??1?$CComObject@V?$CComEnum@UIEnumConnectionPoints@@$1?_GUID_b196b285_bab4_101a_b69c_00aa00341d07@@3U__s_GUID@@BPAUIConnectionPoint@@V?$_CopyInterface@UIConnectionPoint@@@ATL@@VCComSingleThreadModel@6@@ATL@@@ATL@@UAE@XZ 10003f6c f i ToneIndicator.obj
 0001:00002f8f       ??1?$CComObject@V?$CComEnum@UIEnumConnections@@$1?_GUID_b196b287_bab4_101a_b69c_00aa00341d07@@3U__s_GUID@@BUtagCONNECTDATA@@V?$_Copy@UtagCONNECTDATA@@@ATL@@VCComSingleThreadModel@6@@ATL@@@ATL@@UAE@XZ 10003f8f f i ToneIndicator.obj
 0001:00002fb2       ??1?$CComObject@VCOPOSToneIndicator@@@ATL@@UAE@XZ 10003fb2 f i ToneIndicator.obj
 0001:00003070       ??1?$CComObjectCached@VCComClassFactory@ATL@@@ATL@@UAE@XZ 10004070 f i ToneIndicator.obj
 0001:00003086       ??1?$CComObjectRootEx@VCComMultiThreadModel@ATL@@@ATL@@QAE@XZ 10004086 f i ToneIndicator.obj
 0001:0000309b       ??1CRegObject@ATL@@UAE@XZ  1000409b f i ToneIndicator.obj
 0001:000030bb       ??4?$CComPtr@UIOleClientSite@@@ATL@@QAEPAUIOleClientSite@@PAU2@@Z 100040bb f i ToneIndicator.obj
 0001:000030bb       ??4?$CComPtr@UIUnknown@@@ATL@@QAEPAUIUnknown@@PAU2@@Z 100040bb f i ToneIndicator.obj
 0001:000030bb       ??4?$CComPtr@UIAdviseSink@@@ATL@@QAEPAUIAdviseSink@@PAU2@@Z 100040bb f i ToneIndicator.obj
 0001:000030e9       ??_E?$CComContainedObject@VCOPOSToneIndicator@@@ATL@@UAEPAXI@Z 100040e9 f i ToneIndicator.obj
 0001:000030e9       ??_G?$CComContainedObject@VCOPOSToneIndicator@@@ATL@@UAEPAXI@Z 100040e9 f i ToneIndicator.obj
 0001:0000310e       ??_G?$CComObject@VCOPOSToneIndicator@@@ATL@@UAEPAXI@Z 1000410e f i ToneIndicator.obj
 0001:0000310e       ??_E?$CComObject@VCOPOSToneIndicator@@@ATL@@UAEPAXI@Z 1000410e f i ToneIndicator.obj
 0001:00003133       ?Add@?$CSimpleArray@GV?$CSimpleArrayEqualHelper@G@ATL@@@ATL@@QAEHABG@Z 10004133 f i ToneIndicator.obj
 0001:000031ad       ?Add@?$CSimpleMap@PA_WPA_WVCExpansionVectorEqualHelper@ATL@@@ATL@@QAEHABQA_W0@Z 100041ad f i ToneIndicator.obj
 0001:00003202       ?Add@CComDynamicUnkArray@ATL@@QAEKPAUIUnknown@@@Z 10004202 f i ToneIndicator.obj
 0001:000032b3       ?Add@CExpansionVector@ATL@@QAEHPB_W0@Z 100042b3 f i ToneIndicator.obj
 0001:000033bc       ?AddString@CParseBuffer@CRegParser@ATL@@QAEHPB_W@Z 100043bc f i ToneIndicator.obj
 0001:000033f1       ?AddTermFunc@CAtlModule@ATL@@QAEJP6GXK@ZK@Z 100043f1 f i ToneIndicator.obj
 0001:0000345d       ?AddValue@CRegParser@ATL@@IAEJAAVCRegKey@2@PB_WPA_W@Z 1000445d f i ToneIndicator.obj
 0001:00003777       ?Allocate@?$CAtlSafeAllocBufferManager@VCCRTAllocator@ATL@@@_ATL_SAFE_ALLOCA_IMPL@ATL@@QAEPAXK@Z 10004777 f i ToneIndicator.obj
 0001:000037a4       ?Allocate@?$CTempBuffer@E$0BAA@VCCRTAllocator@ATL@@@ATL@@QAEPAEI@Z 100047a4 f i ToneIndicator.obj
 0001:000037d3       ?Allocate@?$CTempBuffer@_W$0BAA@VCCRTAllocator@ATL@@@ATL@@QAEPA_WI@Z 100047d3 f i ToneIndicator.obj
 0001:00003802       ?Allocate@?$CTempBuffer@_W$0EAA@VCCRTAllocator@ATL@@@ATL@@QAEPA_WI@Z 10004802 f i ToneIndicator.obj
 0001:00003831       ?AllocateHeap@?$CTempBuffer@E$0BAA@VCCRTAllocator@ATL@@@ATL@@AAEXI@Z 10004831 f i ToneIndicator.obj
 0001:00003831       ?AllocateHeap@?$CTempBuffer@_W$0BAA@VCCRTAllocator@ATL@@@ATL@@AAEXI@Z 10004831 f i ToneIndicator.obj
 0001:00003831       ?AllocateHeap@?$CTempBuffer@_W$0EAA@VCCRTAllocator@ATL@@@ATL@@AAEXI@Z 10004831 f i ToneIndicator.obj
 0001:00003856       ?Append@CParseBuffer@CRegParser@ATL@@QAEHPB_WH@Z 10004856 f i ToneIndicator.obj
 0001:000038e2       ?AtlCoTaskMemCAlloc@ATL@@YAPAXKK@Z 100048e2 f i ToneIndicator.obj
 0001:0000390f       ?AtlCoTaskMemRecalloc@ATL@@YAPAXPAXKK@Z 1000490f f i ToneIndicator.obj
 0001:0000393f       ?AtlComModuleGetClassObject@ATL@@YGJPAU_ATL_COM_MODULE70@1@ABU_GUID@@1PAPAX@Z 1000493f f i ToneIndicator.obj
 0001:00003a34       ?AtlComModuleRegisterServer@ATL@@YGJPAU_ATL_COM_MODULE70@1@HPBU_GUID@@@Z 10004a34 f i ToneIndicator.obj
 0001:00003abc       ?AtlComModuleUnregisterServer@ATL@@YGJPAU_ATL_COM_MODULE70@1@HPBU_GUID@@@Z 10004abc f i ToneIndicator.obj
 0001:00003b44       ?AtlComQIPtrAssign2@ATL@@YAXPAPAUIUnknown@@PAU2@ABU_GUID@@@Z 10004b44 f i ToneIndicator.obj
 0001:00003b73       ?AtlCreateTargetDC@ATL@@YGPAUHDC__@@PAU2@PAUtagDVTARGETDEVICE@@@Z 10004b73 f i ToneIndicator.obj
 0001:00003bdc       ?AtlCrtErrorCheck@ATL@@YAHH@Z 10004bdc f i ToneIndicator.obj
 0001:00003c17       ?AtlHiMetricToPixel@ATL@@YGXPBUtagSIZE@@PAU2@@Z 10004c17 f i ToneIndicator.obj
 0001:00003c8c       ?AtlHresultFromLastError@ATL@@YAJXZ 10004c8c f i ToneIndicator.obj
 0001:00003ca3       ?AtlHresultFromWin32@ATL@@YAJK@Z 10004ca3 f i ToneIndicator.obj
 0001:00003cb8       ?AtlInternalOleLoadFromStream@ATL@@YAJPAUIStream@@ABU_GUID@@PAPAXTClassesAllowedInStream@1@K@Z 10004cb8 f i ToneIndicator.obj
 0001:00003de1       ?AtlInternalQueryInterface@ATL@@YGJPAXPBU_ATL_INTMAP_ENTRY@1@ABU_GUID@@PAPAX@Z 10004de1 f i ToneIndicator.obj
 0001:00003e84       ?AtlLoadTypeLib@ATL@@YGJPAUHINSTANCE__@@PB_WPAPA_WPAPAUITypeLib@@@Z 10004e84 f i ToneIndicator.obj
 0001:00004062       ?AtlRegisterClassCategoriesHelper@ATL@@YGJABU_GUID@@PBU_ATL_CATMAP_ENTRY@1@H@Z 10005062 f i ToneIndicator.obj
 0001:0000435e       ?AtlRegisterTypeLib@ATL@@YGJPAUHINSTANCE__@@PB_W@Z 1000535e f i ToneIndicator.obj
 0001:000044e6       ?AtlThrowImpl@ATL@@YGXJ@Z  100054e6 f i ToneIndicator.obj
 0001:00004504       ?AtlUnRegisterTypeLib@ATL@@YGJPAUHINSTANCE__@@PB_W@Z 10005504 f i ToneIndicator.obj
 0001:000045af       ?AtlWinModuleAddCreateWndData@ATL@@YGXPAU_ATL_WIN_MODULE70@1@PAU_AtlCreateWndData@1@PAX@Z 100055af f i ToneIndicator.obj
 0001:00004603       ?AtlWinModuleExtractCreateWndData@ATL@@YGPAXPAU_ATL_WIN_MODULE70@1@@Z 10005603 f i ToneIndicator.obj
 0001:00004667       ?AtlWinModuleRegisterClassExW@ATL@@YGGPAU_ATL_WIN_MODULE70@1@PBUtagWNDCLASSEXW@@@Z 10005667 f i ToneIndicator.obj
 0001:000046a6       ?CanForceRemoveKey@CRegParser@ATL@@IAEHPB_W@Z 100056a6 f i ToneIndicator.obj
 0001:000046d5       ?ChToByte@CRegParser@ATL@@KAE_W@Z 100056d5 f i ToneIndicator.obj
 0001:0000475d       ?Cleanup@CComTypeInfoHolder@ATL@@SGXK@Z 1000575d f i ToneIndicator.obj
 0001:00004790       ?ClearReplacements@CExpansionVector@ATL@@QAEJXZ 10005790 f i ToneIndicator.obj
 0001:000047cd       ?Close@CRegKey@ATL@@QAEJXZ 100057cd f i ToneIndicator.obj
 0001:000047e7       ?CreateInstance@?$CComCreator@V?$CComAggObject@VCOPOSToneIndicator@@@ATL@@@ATL@@SGJPAXABU_GUID@@PAPAX@Z 100057e7 f i ToneIndicator.obj
 0001:0000485c       ?CreateInstance@?$CComCreator@V?$CComObject@VCOPOSToneIndicator@@@ATL@@@ATL@@SGJPAXABU_GUID@@PAPAX@Z 1000585c f i ToneIndicator.obj
 0001:000048e5       ?CreateInstance@?$CComObject@V?$CComEnum@UIEnumConnectionPoints@@$1?_GUID_b196b285_bab4_101a_b69c_00aa00341d07@@3U__s_GUID@@BPAUIConnectionPoint@@V?$_CopyInterface@UIConnectionPoint@@@ATL@@VCComSingleThreadModel@6@@ATL@@@ATL@@SGJPAPAV12@@Z 100058e5 f i ToneIndicator.obj
 0001:0000492f       ?CreateInstance@?$CComObject@V?$CComEnum@UIEnumConnections@@$1?_GUID_b196b287_bab4_101a_b69c_00aa00341d07@@3U__s_GUID@@BUtagCONNECTDATA@@V?$_Copy@UtagCONNECTDATA@@@ATL@@VCComSingleThreadModel@6@@ATL@@@ATL@@SGJPAPAV12@@Z 1000592f f i ToneIndicator.obj
 0001:00004979       ?DefaultReflectionHandler@?$CWindowImplRoot@VCWindow@ATL@@@ATL@@SAHPAUHWND__@@IIJAAJ@Z 10005979 f i ToneIndicator.obj
 0001:00004a19       ?DeleteSubKey@CRegKey@ATL@@QAEJPB_W@Z 10005a19 f i ToneIndicator.obj
 0001:00004a92       ?DoEvent@COPOSToneIndicator@@IAEXIIJ@Z 10005a92 f i ToneIndicator.obj
 0001:00004b12       ?DoVerbHide@?$IOleObjectImpl@VCOPOSToneIndicator@@@ATL@@QAEJPBUtagRECT@@PAUHWND__@@@Z 10005b12 f i ToneIndicator.obj
 0001:00004b48       ?DoVerbInPlaceActivate@?$IOleObjectImpl@VCOPOSToneIndicator@@@ATL@@QAEJPBUtagRECT@@PAUHWND__@@@Z 10005b48 f i ToneIndicator.obj
 0001:00004b7b       ?DoVerbPrimary@?$IOleObjectImpl@VCOPOSToneIndicator@@@ATL@@QAEJPBUtagRECT@@PAUHWND__@@@Z 10005b7b f i ToneIndicator.obj
 0001:00004c07       ?DoVerbProperties@CComControlBase@ATL@@QAEJPBUtagRECT@@PAUHWND__@@@Z 10005c07 f i ToneIndicator.obj
 0001:00004d86       ?DoVerbUIActivate@?$IOleObjectImpl@VCOPOSToneIndicator@@@ATL@@QAEJPBUtagRECT@@PAUHWND__@@@Z 10005d86 f i ToneIndicator.obj
 0001:00004dc3       ?DoesVerbActivate@CComControlBase@ATL@@QAEHJ@Z 10005dc3 f i ToneIndicator.obj
 0001:00004de7       ?DoesVerbUIActivate@CComControlBase@ATL@@QAEHJ@Z 10005de7 f i ToneIndicator.obj
 0001:00004e1c       ?EndOfVar@CRegParser@ATL@@IAEHXZ 10005e1c f i ToneIndicator.obj
 0001:00004e3c       ?EscapeSingleQuote@CAtlModule@ATL@@SAXPA_WIPB_W@Z 10005e3c f i ToneIndicator.obj
 0001:00004e8b       ?FindKey@?$CSimpleMap@PA_WPA_WVCExpansionVectorEqualHelper@ATL@@@ATL@@QBEHABQA_W@Z 10005e8b f i ToneIndicator.obj
 0001:00004ec2       ?FireTheEvent@?$CProxy_IOPOSEvents@VCOPOSToneIndicator@@@@IAEXPAVOposVariant@@IAAJPB_WJ@Z 10005ec2 f i ToneIndicator.obj
 0001:00004f54       ?FireViewChange@CComControlBase@ATL@@QAEJXZ 10005f54 f i ToneIndicator.obj
 0001:00004f9d       ?Fire_DirectIOEvent@?$CProxy_IOPOSEvents@VCOPOSToneIndicator@@@@QAEXJPAJPAPA_W@Z 10005f9d f i ToneIndicator.obj
 0001:00005089       ?Fire_ErrorEvent@?$CProxy_IOPOSEvents@VCOPOSToneIndicator@@@@QAEXJJJPAJ@Z 10006089 f i ToneIndicator.obj
 0001:0000517a       ?Fire_OutputCompleteEvent@?$CProxy_IOPOSEvents@VCOPOSToneIndicator@@@@QAEXJ@Z 1000617a f i ToneIndicator.obj
 0001:00005210       ?Fire_StatusUpdateEvent@?$CProxy_IOPOSEvents@VCOPOSToneIndicator@@@@QAEXJ@Z 10006210 f i ToneIndicator.obj
 0001:000052a6       ?FreeHeap@?$CTempBuffer@_W$0BAA@VCCRTAllocator@ATL@@@ATL@@AAEXXZ 100062a6 f i ToneIndicator.obj
 0001:000052a6       ?FreeHeap@?$CTempBuffer@_W$0EAA@VCCRTAllocator@ATL@@@ATL@@AAEXXZ 100062a6 f i ToneIndicator.obj
 0001:000052a6       ?FreeHeap@?$CTempBuffer@E$0BAA@VCCRTAllocator@ATL@@@ATL@@AAEXXZ 100062a6 f i ToneIndicator.obj
 0001:000052af       ?GetAmbientLocaleID@CComControlBase@ATL@@QAEJAAK@Z 100062af f i ToneIndicator.obj
 0001:0000530b       ?GetAmbientUserMode@CComControlBase@ATL@@QAEJAAH@Z 1000630b f i ToneIndicator.obj
 0001:0000537b       ?GetAt@CComDynamicUnkArray@ATL@@QAEPAUIUnknown@@H@Z 1000637b f i ToneIndicator.obj
 0001:00005397       ?GetClassObject@CComModule@ATL@@QAEJABU_GUID@@0PAPAX@Z 10006397 f i ToneIndicator.obj
 0001:00005439       ?GetConnMap@COPOSToneIndicator@@SAPBU_ATL_CONNMAP_ENTRY@ATL@@PAH@Z 10006439 f i ToneIndicator.obj
 0001:000054a9       ?GetCookie@CComDynamicUnkArray@ATL@@QAGKPAPAUIUnknown@@@Z 100064a9 f i ToneIndicator.obj
 0001:000054e1       ?GetIDsOfNames@CComTypeInfoHolder@ATL@@QAEJABU_GUID@@PAPA_WIKPAJ@Z 100064e1 f i ToneIndicator.obj
 0001:00005601       ?GetKeyAt@?$CSimpleMap@PA_WPA_WVCExpansionVectorEqualHelper@ATL@@@ATL@@QBEAAPA_WH@Z 10006601 f i ToneIndicator.obj
 0001:00005626       ?GetPagesHelper@?$ISpecifyPropertyPagesImpl@VCOPOSToneIndicator@@@ATL@@IAEJPAUtagCAUUID@@PBUATL_PROPMAP_ENTRY@2@@Z 10006626 f i ToneIndicator.obj
 0001:0000574d       ?GetProperty@?$CComPtr@UIDispatch@@@ATL@@SAJPAUIDispatch@@JPAUtagVARIANT@@@Z 1000674d f i ToneIndicator.obj
 0001:0000579c       ?GetSizeMax@CComVariant@ATL@@QBEJPAT_ULARGE_INTEGER@@@Z 1000679c f i ToneIndicator.obj
 0001:0000595e       ?GetTI@CComTypeInfoHolder@ATL@@QAEJK@Z 1000695e f i ToneIndicator.obj
 0001:00005b3e       ?GetTI@CComTypeInfoHolder@ATL@@QAEJKPAPAUITypeInfo@@@Z 10006b3e f i ToneIndicator.obj
 0001:00005b7c       ?GetUnknown@CComDynamicUnkArray@ATL@@QAGPAUIUnknown@@K@Z 10006b7c f i ToneIndicator.obj
 0001:00005b9d       ?GetValueAt@?$CSimpleMap@PA_WPA_WVCExpansionVectorEqualHelper@ATL@@@ATL@@QBEAAPA_WH@Z 10006b9d f i ToneIndicator.obj
 0001:00005bc3       ?GetZoomInfo@CComControlBase@ATL@@QAEXAAUATL_DRAWINFO@@@Z 10006bc3 f i ToneIndicator.obj
 0001:00005c56       ?HKeyFromString@CRegParser@ATL@@KAPAUHKEY__@@PA_W@Z 10006c56 f i ToneIndicator.obj
 0001:00005c84       ?HasSubKeys@CRegParser@ATL@@IAEHPAUHKEY__@@@Z 10006c84 f i ToneIndicator.obj
 0001:00005cb9       ?IDataObject_GetData@CComControlBase@ATL@@QAEJPAUtagFORMATETC@@PAUtagSTGMEDIUM@@@Z 10006cb9 f i ToneIndicator.obj
 0001:00005e5b       ?IOleInPlaceObject_InPlaceDeactivate@CComControlBase@ATL@@QAEJXZ 10006e5b f i ToneIndicator.obj
 0001:00005ee2       ?IOleInPlaceObject_SetObjectRects@CComControlBase@ATL@@QAEJPBUtagRECT@@0@Z 10006ee2 f i ToneIndicator.obj
 0001:00005faf       ?IOleInPlaceObject_UIDeactivate@CComControlBase@ATL@@QAEJXZ 10006faf f i ToneIndicator.obj
 0001:00006071       ?IOleObject_Advise@CComControlBase@ATL@@QAEJPAUIAdviseSink@@PAK@Z 10007071 f i ToneIndicator.obj
 0001:0000609b       ?IOleObject_Close@CComControlBase@ATL@@QAEJK@Z 1000709b f i ToneIndicator.obj
 0001:0000617f       ?IOleObject_GetClientSite@CComControlBase@ATL@@QAEJPAPAUIOleClientSite@@@Z 1000717f f i ToneIndicator.obj
 0001:000061a8       ?IOleObject_SetClientSite@CComControlBase@ATL@@QAEJPAUIOleClientSite@@@Z 100071a8 f i ToneIndicator.obj
 0001:000061e7       ?IOleObject_SetExtent@CComControlBase@ATL@@QAEJKPAUtagSIZE@@@Z 100071e7 f i ToneIndicator.obj
 0001:00006299       ?IPSI_GetIPersistStreamInit@?$IPersistStorageImpl@VCOPOSToneIndicator@@@ATL@@AAEPAUIPersistStreamInit@@XZ 10007299 f i ToneIndicator.obj
 0001:00006341       ?IPersistStreamInit_Load@?$IPersistStreamInitImpl@VCOPOSToneIndicator@@@ATL@@QAEJPAUIStream@@PBUATL_PROPMAP_ENTRY@2@@Z 10007341 f i ToneIndicator.obj
 0001:000065b7       ?IPersistStreamInit_Save@?$IPersistStreamInitImpl@VCOPOSToneIndicator@@@ATL@@QAEJPAUIStream@@HPBUATL_PROPMAP_ENTRY@2@@Z 100075b7 f i ToneIndicator.obj
 0001:000067a6       ?IQuickActivate_QuickActivate@CComControlBase@ATL@@QAEJPAUtagQACONTAINER@@PAUtagQACONTROL@@@Z 100077a6 f i ToneIndicator.obj
 0001:000069e8       ?IViewObject_Draw@CComControlBase@ATL@@QAEJKJPAXPAUtagDVTARGETDEVICE@@PAUHDC__@@2PBU_RECTL@@3@Z 100079e8 f i ToneIndicator.obj
 0001:00006a90       ?InPlaceActivate@CComControlBase@ATL@@QAEJJPBUtagRECT@@@Z 10007a90 f i ToneIndicator.obj
 0001:00006d02       ?Init@?$CComEnumImpl@UIEnumConnectionPoints@@$1?_GUID_b196b285_bab4_101a_b69c_00aa00341d07@@3U__s_GUID@@BPAUIConnectionPoint@@V?$_CopyInterface@UIConnectionPoint@@@ATL@@@ATL@@QAEJPAPAUIConnectionPoint@@0PAUIUnknown@@W4CComEnumFlags@2@@Z 10007d02 f i ToneIndicator.obj
 0001:00006dde       ?Init@?$CComEnumImpl@UIEnumConnections@@$1?_GUID_b196b287_bab4_101a_b69c_00aa00341d07@@3U__s_GUID@@BUtagCONNECTDATA@@V?$_Copy@UtagCONNECTDATA@@@ATL@@@ATL@@QAEJPAUtagCONNECTDATA@@0PAUIUnknown@@W4CComEnumFlags@2@@Z 10007dde f i ToneIndicator.obj
 0001:00006eba       ?Init@CComModule@ATL@@QAEJPAU_ATL_OBJMAP_ENTRY30@2@PAUHINSTANCE__@@PBU_GUID@@@Z 10007eba f i ToneIndicator.obj
 0001:00006f19       ?Init@CDynamicStdCallThunk2@ATL@@QAEHKPAX@Z 10007f19 f i ToneIndicator.obj
 0001:00006f44       ?InlineIsEqualUnknown@ATL@@YGHABU_GUID@@@Z 10007f44 f i ToneIndicator.obj
 0001:00006f6c       ?InternalSetAtIndex@?$CSimpleMap@PA_WPA_WVCExpansionVectorEqualHelper@ATL@@@ATL@@QAEXHABQA_W0@Z 10007f6c f i ToneIndicator.obj
 0001:00006f96       ?Invoke@CComTypeInfoHolder@ATL@@QAEJPAUIDispatch@@JABU_GUID@@KGPAUtagDISPPARAMS@@PAUtagVARIANT@@PAUtagEXCEPINFO@@PAI@Z 10007f96 f i ToneIndicator.obj
 0001:00006fd7       ?IsEqualObject@?$CComPtrBase@UITypeInfo@@@ATL@@QAE_NPAUIUnknown@@@Z 10007fd7 f i ToneIndicator.obj
 0001:00006fd7       ?IsEqualObject@?$CComPtrBase@UIOleClientSite@@@ATL@@QAE_NPAUIUnknown@@@Z 10007fd7 f i ToneIndicator.obj
 0001:00007043       ?IsSpace@CRegParser@ATL@@IAEH_W@Z 10008043 f i ToneIndicator.obj
 0001:00007069       ?LoadNameCache@CComTypeInfoHolder@ATL@@QAEJPAUITypeInfo@@@Z 10008069 f i ToneIndicator.obj
 0001:0000719e       ?Lookup@?$CSimpleMap@PA_WPA_WVCExpansionVectorEqualHelper@ATL@@@ATL@@QBEPA_WABQA_W@Z 1000819e f i ToneIndicator.obj
 0001:000071c4       ?NextToken@CRegParser@ATL@@IAEJPA_W@Z 100081c4 f i ToneIndicator.obj
 0001:000072f3       ?OnKillFocus@CComControlBase@ATL@@QAEJIIJAAH@Z 100082f3 f i ToneIndicator.obj
 0001:0000734e       ?OnMouseActivate@CComControlBase@ATL@@QAEJIIJAAH@Z 1000834e f i ToneIndicator.obj
 0001:000073bc       ?OnPaint@CComControlBase@ATL@@QAEJIIJAAH@Z 100083bc f i ToneIndicator.obj
 0001:00007473       ?OnSetFocus@CComControlBase@ATL@@QAEJIIJAAH@Z 10008473 f i ToneIndicator.obj
 0001:000074fe       ?Open@CRegKey@ATL@@QAEJPAUHKEY__@@PB_WK@Z 100084fe f i ToneIndicator.obj
 0001:00007553       ?PreProcessBuffer@CRegParser@ATL@@QAEJPA_WPAPA_W@Z 10008553 f i ToneIndicator.obj
 0001:000077c3       ?ProcessWindowMessage@?$CComControl@VCOPOSToneIndicator@@V?$CWindowImpl@VCOPOSToneIndicator@@VCWindow@ATL@@V?$CWinTraits@$0FGAAAAAA@$0A@@3@@ATL@@@ATL@@UAEHPAUHWND__@@IIJAAJK@Z 100087c3 f i ToneIndicator.obj
 0001:0000786b       ?ReadFromStream@CComBSTR@ATL@@QAEJPAUIStream@@@Z 1000886b f i ToneIndicator.obj
 0001:0000798e       ?ReadFromStream@CComVariant@ATL@@QAEJPAUIStream@@GTClassesAllowedInStream@2@K@Z 1000898e f i ToneIndicator.obj
 0001:00007b18       ?RecurseDeleteKey@CRegKey@ATL@@QAEJPB_W@Z 10008b18 f i ToneIndicator.obj
 0001:00007c06       ?RegCreateKeyExW@CAtlTransactionManager@ATL@@QAEJPAUHKEY__@@PB_WKPA_WKKQAU_SECURITY_ATTRIBUTES@@PAPAU3@PAK@Z 10008c06 f i ToneIndicator.obj
 0001:00007c69       ?RegDeleteKeyW@CAtlTransactionManager@ATL@@QAEJPAUHKEY__@@PB_W@Z 10008c69 f i ToneIndicator.obj
 0001:00007cbb       ?RegOpenKeyExW@CAtlTransactionManager@ATL@@QAEJPAUHKEY__@@PB_WKKPAPAU3@@Z 10008cbb f i ToneIndicator.obj
 0001:00007d12       ?Register@_ATL_WNDCLASSINFOW@ATL@@QAEGPAP6GJPAUHWND__@@IIJ@Z@Z 10008d12 f i ToneIndicator.obj
 0001:00007d32       ?RegisterBuffer@CRegParser@ATL@@QAEJPA_WH@Z 10008d32 f i ToneIndicator.obj
 0001:00007e79       ?RegisterFromResource@CRegObject@ATL@@IAEJPB_W00H@Z 10008e79 f i ToneIndicator.obj
 0001:00007faf       ?RegisterServer@?$CAtlModuleT@VCComModule@ATL@@@ATL@@QAEJHPBU_GUID@@@Z 10008faf f i ToneIndicator.obj
 0001:00007fdd       ?RegisterServer@CComModule@ATL@@QAEJHPBU_GUID@@@Z 10008fdd f i ToneIndicator.obj
 0001:0000804e       ?RegisterSubkeys@CRegParser@ATL@@IAEJPA_WPAUHKEY__@@HH@Z 1000904e f i ToneIndicator.obj
 0001:000086aa       ?Remove@CComDynamicUnkArray@ATL@@QAEHK@Z 100096aa f i ToneIndicator.obj
 0001:000086d3       ?RemoveAll@?$CSimpleMap@PA_WPA_WVCExpansionVectorEqualHelper@ATL@@@ATL@@QAEXXZ 100096d3 f i ToneIndicator.obj
 0001:000086ff       ?ResourceRegisterSz@CRegObject@ATL@@QAGJPB_W00@Z 100096ff f i ToneIndicator.obj
 0001:0000872c       ?ResourceUnregisterSz@CRegObject@ATL@@QAGJPB_W00@Z 1000972c f i ToneIndicator.obj
 0001:00008759       ?SendOnDataChange@CComControlBase@ATL@@QAEJK@Z 10009759 f i ToneIndicator.obj
 0001:000087a6       ?SetControlFocus@CComControlBase@ATL@@QAEHH@Z 100097a6 f i ToneIndicator.obj
 0001:00008841       ?SetMultiStringValue@CRegKey@ATL@@QAEJPB_W0@Z 10009841 f i ToneIndicator.obj
 0001:0000889d       ?SetStringValue@CRegKey@ATL@@QAEJPB_W0K@Z 1000989d f i ToneIndicator.obj
 0001:000088e6       ?SkipAssignment@CRegParser@ATL@@IAEJPA_W@Z 100098e6 f i ToneIndicator.obj
 0001:00008952       ?SkipWhiteSpace@CRegParser@ATL@@IAEXXZ 10009952 f i ToneIndicator.obj
 0001:0000897b       ?StrChrW@CRegParser@ATL@@KAPA_WPA_W_W@Z 1000997b f i ToneIndicator.obj
 0001:000089b8       ?Term@CAtlModule@ATL@@QAEXXZ 100099b8 f i ToneIndicator.obj
 0001:00008a35       ?Term@CComModule@ATL@@QAEXXZ 10009a35 f i ToneIndicator.obj
 0001:00008a8d       ?UnregisterServer@?$CAtlModuleT@VCComModule@ATL@@@ATL@@QAEJHPBU_GUID@@@Z 10009a8d f i ToneIndicator.obj
 0001:00008ab3       ?UnregisterServer@CComModule@ATL@@QAEJHPBU_GUID@@@Z 10009ab3 f i ToneIndicator.obj
 0001:00008b24       ?UpdateRegistryFromResource@CAtlModule@ATL@@QAGJIHPAU_ATL_REGMAP_ENTRY@2@@Z 10009b24 f i ToneIndicator.obj
 0001:00008cef       ?UpdateRegistryFromResource@CAtlModule@ATL@@QAGJPB_WHPAU_ATL_REGMAP_ENTRY@2@@Z 10009cef f i ToneIndicator.obj
 0001:00008ec0       ?VTFromRegType@CRegParser@ATL@@KAHPB_WAAG@Z 10009ec0 f i ToneIndicator.obj
 0001:00008f2d       ?WindowProc@?$CWindowImplBaseT@VCWindow@ATL@@V?$CWinTraits@$0FGAAAAAA@$0A@@2@@ATL@@SGJPAUHWND__@@IIJ@Z 10009f2d f i ToneIndicator.obj
 0001:0000901b       ?WriteToStream@CComBSTR@ATL@@QAEJPAUIStream@@@Z 1000a01b f i ToneIndicator.obj
 0001:0000907d       ?WriteToStream@CComVariant@ATL@@QAEJPAUIStream@@@Z 1000a07d f i ToneIndicator.obj
 0001:000091f7       ?WriteToStream@CComVariant@ATL@@QAEJPAUIStream@@G@Z 1000a1f7 f i ToneIndicator.obj
 0001:00009260       ?_AtlInitialConstruct@?$CComObjectRootEx@VCComMultiThreadModel@ATL@@@ATL@@QAEJXZ 1000a260 f i ToneIndicator.obj
 0001:00009275       ?_AtlVerifyStackAvailable@_ATL_SAFE_ALLOCA_IMPL@ATL@@YA_NK@Z 1000a275 f i ToneIndicator.obj
 0001:000092f3       ?atlCreate@?$CWindowImpl@VCOPOSToneIndicator@@VCWindow@ATL@@V?$CWinTraits@$0FGAAAAAA@$0A@@3@@ATL@@QAEPAUHWND__@@PAU3@V_U_RECT@2@PB_WKKV_U_MENUorID@2@PAX@Z 1000a2f3 f i ToneIndicator.obj
 0001:0000933e       ?atlCreate@?$CWindowImplBaseT@VCWindow@ATL@@V?$CWinTraits@$0FGAAAAAA@$0A@@2@@ATL@@QAEPAUHWND__@@PAU3@V_U_RECT@2@PB_WKKV_U_MENUorID@2@GPAX@Z 1000a33e f i ToneIndicator.obj
 0001:000093da       ?copy@?$_Copy@UtagCONNECTDATA@@@ATL@@SAJPAUtagCONNECTDATA@@PBU3@@Z 1000a3da f i ToneIndicator.obj
 0001:00009410       ?copy@?$_CopyInterface@UIConnectionPoint@@@ATL@@SAJPAPAUIConnectionPoint@@PBQAU3@@Z 1000a410 f i ToneIndicator.obj
 0001:0000943e       ?memcpy_s@Checked@ATL@@YAXPAXIPBXI@Z 1000a43e f i ToneIndicator.obj
 0001:0000945d       ?ocscpy_s@@YA_NPA_WIPB_W@Z 1000a45d f i ToneIndicator.obj
 0001:000094a7       ?wcscpy_s@Checked@ATL@@YAXPA_WIPB_W@Z 1000a4a7 f i ToneIndicator.obj
 0001:000094c3       _DllCanUnloadNow@0         1000a4c3 f   ToneIndicator.obj
 0001:000094cf       _DllGetClassObject@12      1000a4cf f   ToneIndicator.obj
 0001:000094dd       _DllMain@12                1000a4dd f   ToneIndicator.obj
 0001:0000951f       _DllRegisterServer@0       1000a51f f   ToneIndicator.obj
 0001:0000952e       _DllUnregisterServer@0     1000a52e f   ToneIndicator.obj
 0001:0000953d       _InlineIsEqualGUID         1000a53d f i ToneIndicator.obj
 0001:0000956d       ___local_stdio_printf_options 1000a56d f i ToneIndicator.obj
 0001:00009573       __vswprintf_s_l            1000a573 f i ToneIndicator.obj
 0001:00009620       _swprintf_s                1000a620 f i ToneIndicator.obj
 0001:0000963c       ??0?$CComControl@VCOPOSToneIndicator@@V?$CWindowImpl@VCOPOSToneIndicator@@VCWindow@ATL@@V?$CWinTraits@$0FGAAAAAA@$0A@@3@@ATL@@@ATL@@QAE@XZ 1000a63c f i ToneIndicatorImpl.obj
 0001:00009663       ??0?$CProxy_IOPOSEvents@VCOPOSToneIndicator@@@@QAE@XZ 1000a663 f i ToneIndicatorImpl.obj
 0001:00009683       ??0CComControlBase@ATL@@QAE@AAPAUHWND__@@@Z 1000a683 f i ToneIndicatorImpl.obj
 0001:000096d3       ??0COPOSToneIndicator@@QAE@XZ 1000a6d3 f   ToneIndicatorImpl.obj
 0001:00009709       ??1?$CComControl@VCOPOSToneIndicator@@V?$CWindowImpl@VCOPOSToneIndicator@@VCWindow@ATL@@V?$CWinTraits@$0FGAAAAAA@$0A@@3@@ATL@@@ATL@@UAE@XZ 1000a709 f i ToneIndicatorImpl.obj
 0001:00009722       ??1?$IConnectionPointImpl@VCOPOSToneIndicator@@$1?DIID__IOPOSToneIndicatorEvents@@3U_GUID@@BVCComDynamicUnkArray@ATL@@@ATL@@QAE@XZ 1000a722 f i ToneIndicatorImpl.obj
 0001:00009722       ??1?$IConnectionPointImpl@VCOPOSToneIndicator@@$1?IID_IPropertyNotifySink@@3U_GUID@@BVCComDynamicUnkArray@ATL@@@ATL@@QAE@XZ 1000a722 f i ToneIndicatorImpl.obj
 0001:0000975f       ??1CComControlBase@ATL@@UAE@XZ 1000a75f f i ToneIndicatorImpl.obj
 0001:000097c2       ??1COPOSToneIndicator@@UAE@XZ 1000a7c2 f   ToneIndicatorImpl.obj
 0001:0000980a       ?CheckHealth@COPOSToneIndicator@@UAGJJPAJ@Z 1000a80a f   ToneIndicatorImpl.obj
 0001:00009859       ?ClaimDevice@COPOSToneIndicator@@UAGJJPAJ@Z 1000a859 f   ToneIndicatorImpl.obj
 0001:000098c7       ?ClearOutput@COPOSToneIndicator@@UAGJPAJ@Z 1000a8c7 f   ToneIndicatorImpl.obj
 0001:000098e2       ?Close@COPOSToneIndicator@@UAGJPAJ@Z 1000a8e2 f   ToneIndicatorImpl.obj
 0001:00009950       ?CompareFirmwareVersion@COPOSToneIndicator@@UAGJPA_WPAJ1@Z 1000a950 f   ToneIndicatorImpl.obj
 0001:000099d0       ?DirectIO@COPOSToneIndicator@@UAGJJPAJPAPA_W0@Z 1000a9d0 f   ToneIndicatorImpl.obj
 0001:00009a7e       ?DoInvoke@COPOSToneIndicator@@IAEJJPAVOposVariant@@IHPAJ_N@Z 1000aa7e f   ToneIndicatorImpl.obj
 0001:00009b5a       ?EventClose@COPOSToneIndicator@@IAEXXZ 1000ab5a f i ToneIndicatorImpl.obj
 0001:00009b8d       ?EventInit@COPOSToneIndicator@@IAEJXZ 1000ab8d f i ToneIndicatorImpl.obj
 0001:00009c61       ?EventUninit@COPOSToneIndicator@@IAEXXZ 1000ac61 f i ToneIndicatorImpl.obj
 0001:00009cb3       ?EventWindowProc@COPOSToneIndicator@@IAGJIIJ@Z 1000acb3 f i ToneIndicatorImpl.obj
 0001:00009d86       ?FinalConstruct@COPOSToneIndicator@@QAEJXZ 1000ad86 f   ToneIndicatorImpl.obj
 0001:00009dbf       ?FireEventCleanup@COPOSToneIndicator@@IAEXXZ 1000adbf f i ToneIndicatorImpl.obj
 0001:00009dd5       ?FireEventSetup@COPOSToneIndicator@@IAE_NXZ 1000add5 f i ToneIndicatorImpl.obj
 0001:00009e09       ?FreezeEvents@COPOSToneIndicator@@MAGJH@Z 1000ae09 f   ToneIndicatorImpl.obj
 0001:00009e62       ?GetOposProp@COPOSToneIndicator@@IAEJJPAFJ@Z 1000ae62 f   ToneIndicatorImpl.obj
 0001:00009e85       ?GetOposProp@COPOSToneIndicator@@IAEJJPAJJ@Z 1000ae85 f   ToneIndicatorImpl.obj
 0001:00009f54       ?GetOposProp@COPOSToneIndicator@@IAEJJPAPA_WJ@Z 1000af54 f   ToneIndicatorImpl.obj
 0001:0000a030       ?OnDraw@COPOSToneIndicator@@MAEJAAUATL_DRAWINFO@@@Z 1000b030 f   ToneIndicatorImpl.obj
 0001:0000a0d0       ?Open@COPOSToneIndicator@@UAGJPA_WPAJ@Z 1000b0d0 f   ToneIndicatorImpl.obj
 0001:0000a910       ?ReleaseDevice@COPOSToneIndicator@@UAGJPAJ@Z 1000b910 f   ToneIndicatorImpl.obj
 0001:0000a947       ?ResetStatistics@COPOSToneIndicator@@UAGJPA_WPAJ@Z 1000b947 f   ToneIndicatorImpl.obj
 0001:0000a99e       ?RetrieveStatistics@COPOSToneIndicator@@UAGJPAPA_WPAJ@Z 1000b99e f   ToneIndicatorImpl.obj
 0001:0000a9f5       ?SOProcessID@COPOSToneIndicator@@UAGJPAJ@Z 1000b9f5 f   ToneIndicatorImpl.obj
 0001:0000aa09       ?SetCOFreezeEvents@COPOSToneIndicator@@IAEXF@Z 1000ba09 f   ToneIndicatorImpl.obj
 0001:0000aaa9       ?SetOposProp@COPOSToneIndicator@@IAEJJJJ@Z 1000baa9 f   ToneIndicatorImpl.obj
 0001:0000aba0       ?Sound@COPOSToneIndicator@@UAGJJJPAJ@Z 1000bba0 f   ToneIndicatorImpl.obj
 0001:0000ac14       ?SoundImmediate@COPOSToneIndicator@@UAGJPAJ@Z 1000bc14 f   ToneIndicatorImpl.obj
 0001:0000ac2f       ?UpdateFirmware@COPOSToneIndicator@@UAGJPA_WPAJ@Z 1000bc2f f   ToneIndicatorImpl.obj
 0001:0000ac86       ?UpdateStatistics@COPOSToneIndicator@@UAGJPA_WPAJ@Z 1000bc86 f   ToneIndicatorImpl.obj
 0001:0000acdd       ?get_AsyncMode@COPOSToneIndicator@@UAGJPAF@Z 1000bcdd f   ToneIndicatorImpl.obj
 0001:0000acf6       ?get_BinaryConversion@COPOSToneIndicator@@UAGJPAJ@Z 1000bcf6 f   ToneIndicatorImpl.obj
 0001:0000ad0c       ?get_CapCompareFirmwareVersion@COPOSToneIndicator@@UAGJPAF@Z 1000bd0c f   ToneIndicatorImpl.obj
 0001:0000ad25       ?get_CapMelody@COPOSToneIndicator@@UAGJPAJ@Z 1000bd25 f   ToneIndicatorImpl.obj
 0001:0000ad3e       ?get_CapPitch@COPOSToneIndicator@@UAGJPAF@Z 1000bd3e f   ToneIndicatorImpl.obj
 0001:0000ad57       ?get_CapPowerReporting@COPOSToneIndicator@@UAGJPAJ@Z 1000bd57 f   ToneIndicatorImpl.obj
 0001:0000ad70       ?get_CapStatisticsReporting@COPOSToneIndicator@@UAGJPAF@Z 1000bd70 f   ToneIndicatorImpl.obj
 0001:0000ad89       ?get_CapUpdateFirmware@COPOSToneIndicator@@UAGJPAF@Z 1000bd89 f   ToneIndicatorImpl.obj
 0001:0000ada2       ?get_CapUpdateStatistics@COPOSToneIndicator@@UAGJPAF@Z 1000bda2 f   ToneIndicatorImpl.obj
 0001:0000adbb       ?get_CapVolume@COPOSToneIndicator@@UAGJPAF@Z 1000bdbb f   ToneIndicatorImpl.obj
 0001:0000add4       ?get_CheckHealthText@COPOSToneIndicator@@UAGJPAPA_W@Z 1000bdd4 f   ToneIndicatorImpl.obj
 0001:0000aded       ?get_Claimed@COPOSToneIndicator@@UAGJPAF@Z 1000bded f   ToneIndicatorImpl.obj
 0001:0000ae03       ?get_ControlObjectDescription@COPOSToneIndicator@@UAGJPAPA_W@Z 1000be03 f   ToneIndicatorImpl.obj
 0001:0000ae51       ?get_ControlObjectVersion@COPOSToneIndicator@@UAGJPAJ@Z 1000be51 f   ToneIndicatorImpl.obj
 0001:0000ae64       ?get_DeviceDescription@COPOSToneIndicator@@UAGJPAPA_W@Z 1000be64 f   ToneIndicatorImpl.obj
 0001:0000ae7d       ?get_DeviceEnabled@COPOSToneIndicator@@UAGJPAF@Z 1000be7d f   ToneIndicatorImpl.obj
 0001:0000ae93       ?get_DeviceName@COPOSToneIndicator@@UAGJPAPA_W@Z 1000be93 f   ToneIndicatorImpl.obj
 0001:0000aeac       ?get_FreezeEvents@COPOSToneIndicator@@UAGJPAF@Z 1000beac f   ToneIndicatorImpl.obj
 0001:0000aec2       ?get_InterToneWait@COPOSToneIndicator@@UAGJPAJ@Z 1000bec2 f   ToneIndicatorImpl.obj
 0001:0000aedb       ?get_MelodyType@COPOSToneIndicator@@UAGJPAJ@Z 1000bedb f   ToneIndicatorImpl.obj
 0001:0000aef4       ?get_MelodyVolume@COPOSToneIndicator@@UAGJPAJ@Z 1000bef4 f   ToneIndicatorImpl.obj
 0001:0000af0d       ?get_OpenResult@COPOSToneIndicator@@UAGJPAJ@Z 1000bf0d f   ToneIndicatorImpl.obj
 0001:0000af24       ?get_OutputID@COPOSToneIndicator@@UAGJPAJ@Z 1000bf24 f   ToneIndicatorImpl.obj
 0001:0000af3a       ?get_PowerNotify@COPOSToneIndicator@@UAGJPAJ@Z 1000bf3a f   ToneIndicatorImpl.obj
 0001:0000af50       ?get_PowerState@COPOSToneIndicator@@UAGJPAJ@Z 1000bf50 f   ToneIndicatorImpl.obj
 0001:0000af66       ?get_ResultCode@COPOSToneIndicator@@UAGJPAJ@Z 1000bf66 f   ToneIndicatorImpl.obj
 0001:0000afa4       ?get_ResultCodeExtended@COPOSToneIndicator@@UAGJPAJ@Z 1000bfa4 f   ToneIndicatorImpl.obj
 0001:0000afba       ?get_ServiceObjectDescription@COPOSToneIndicator@@UAGJPAPA_W@Z 1000bfba f   ToneIndicatorImpl.obj
 0001:0000afd3       ?get_ServiceObjectVersion@COPOSToneIndicator@@UAGJPAJ@Z 1000bfd3 f   ToneIndicatorImpl.obj
 0001:0000afe9       ?get_State@COPOSToneIndicator@@UAGJPAJ@Z 1000bfe9 f   ToneIndicatorImpl.obj
 0001:0000b015       ?get_Tone1Duration@COPOSToneIndicator@@UAGJPAJ@Z 1000c015 f   ToneIndicatorImpl.obj
 0001:0000b02e       ?get_Tone1Pitch@COPOSToneIndicator@@UAGJPAJ@Z 1000c02e f   ToneIndicatorImpl.obj
 0001:0000b047       ?get_Tone1Volume@COPOSToneIndicator@@UAGJPAJ@Z 1000c047 f   ToneIndicatorImpl.obj
 0001:0000b060       ?get_Tone2Duration@COPOSToneIndicator@@UAGJPAJ@Z 1000c060 f   ToneIndicatorImpl.obj
 0001:0000b079       ?get_Tone2Pitch@COPOSToneIndicator@@UAGJPAJ@Z 1000c079 f   ToneIndicatorImpl.obj
 0001:0000b092       ?get_Tone2Volume@COPOSToneIndicator@@UAGJPAJ@Z 1000c092 f   ToneIndicatorImpl.obj
 0001:0000b0ab       ?put_AsyncMode@COPOSToneIndicator@@UAGJF@Z 1000c0ab f   ToneIndicatorImpl.obj
 0001:0000b0cb       ?put_BinaryConversion@COPOSToneIndicator@@UAGJJ@Z 1000c0cb f   ToneIndicatorImpl.obj
 0001:0000b0e1       ?put_DeviceEnabled@COPOSToneIndicator@@UAGJF@Z 1000c0e1 f   ToneIndicatorImpl.obj
 0001:0000b0fe       ?put_FreezeEvents@COPOSToneIndicator@@UAGJF@Z 1000c0fe f   ToneIndicatorImpl.obj
 0001:0000b14a       ?put_InterToneWait@COPOSToneIndicator@@UAGJJ@Z 1000c14a f   ToneIndicatorImpl.obj
 0001:0000b163       ?put_MelodyType@COPOSToneIndicator@@UAGJJ@Z 1000c163 f   ToneIndicatorImpl.obj
 0001:0000b17c       ?put_MelodyVolume@COPOSToneIndicator@@UAGJJ@Z 1000c17c f   ToneIndicatorImpl.obj
 0001:0000b195       ?put_PowerNotify@COPOSToneIndicator@@UAGJJ@Z 1000c195 f   ToneIndicatorImpl.obj
 0001:0000b1ab       ?put_Tone1Duration@COPOSToneIndicator@@UAGJJ@Z 1000c1ab f   ToneIndicatorImpl.obj
 0001:0000b1c4       ?put_Tone1Pitch@COPOSToneIndicator@@UAGJJ@Z 1000c1c4 f   ToneIndicatorImpl.obj
 0001:0000b1dd       ?put_Tone1Volume@COPOSToneIndicator@@UAGJJ@Z 1000c1dd f   ToneIndicatorImpl.obj
 0001:0000b1f6       ?put_Tone2Duration@COPOSToneIndicator@@UAGJJ@Z 1000c1f6 f   ToneIndicatorImpl.obj
 0001:0000b20f       ?put_Tone2Pitch@COPOSToneIndicator@@UAGJJ@Z 1000c20f f   ToneIndicatorImpl.obj
 0001:0000b228       ?put_Tone2Volume@COPOSToneIndicator@@UAGJJ@Z 1000c228 f   ToneIndicatorImpl.obj
 0001:0000b241       ?s_EventWindowProc@COPOSToneIndicator@@KGJPAUHWND__@@IIJ@Z 1000c241 f i ToneIndicatorImpl.obj
 0001:0000b293       ??_U@YAPAXI@Z              1000c293 f   LIBCMT:new_array.obj
 0001:0000b29c       ??3@YAXPAXI@Z              1000c29c f   LIBCMT:delete_scalar_size.obj
 0001:0000b2aa       ??_V@YAXPAX@Z              1000c2aa f   LIBCMT:delete_array.obj
 0001:0000b2af       ??_V@YAXPAXI@Z             1000c2af f   LIBCMT:delete_array_size.obj
 0001:0000b301       ___scrt_acquire_startup_lock 1000c301 f   LIBCMT:utility.obj
 0001:0000b333       ___scrt_dllmain_after_initialize_c 1000c333 f   LIBCMT:utility.obj
 0001:0000b35e       ___scrt_dllmain_before_initialize_c 1000c35e f   LIBCMT:utility.obj
 0001:0000b36c       ___scrt_dllmain_crt_thread_attach 1000c36c f   LIBCMT:utility.obj
 0001:0000b38b       ___scrt_dllmain_crt_thread_detach 1000c38b f   LIBCMT:utility.obj
 0001:0000b398       ___scrt_dllmain_exception_filter 1000c398 f   LIBCMT:utility.obj
 0001:0000b3cc       ___scrt_dllmain_uninitialize_c 1000c3cc f   LIBCMT:utility.obj
 0001:0000b3ef       ___scrt_dllmain_uninitialize_critical 1000c3ef f   LIBCMT:utility.obj
 0001:0000b3fc       ___scrt_initialize_crt     1000c3fc f   LIBCMT:utility.obj
 0001:0000b435       ___scrt_initialize_onexit_tables 1000c435 f   LIBCMT:utility.obj
 0001:0000b4bc       ___scrt_is_nonwritable_in_current_image 1000c4bc f   LIBCMT:utility.obj
 0001:0000b550       ___scrt_release_startup_lock 1000c550 f   LIBCMT:utility.obj
 0001:0000b56d       ___scrt_uninitialize_crt   1000c56d f   LIBCMT:utility.obj
 0001:0000b595       __onexit                   1000c595 f   LIBCMT:utility.obj
 0001:0000b5c2       _atexit                    1000c5c2 f   LIBCMT:utility.obj
 0001:0000b5d7       ??3@YAXPAX@Z               1000c5d7 f   LIBCMT:delete_scalar.obj
 0001:0000b6a1       __Init_thread_footer       1000c6a1 f   LIBCMT:thread_safe_statics.obj
 0001:0000b6eb       __Init_thread_header       1000c6eb f   LIBCMT:thread_safe_statics.obj
 0001:0000b73d       __Init_thread_notify       1000c73d f   LIBCMT:thread_safe_statics.obj
 0001:0000b773       __Init_thread_wait         1000c773 f   LIBCMT:thread_safe_statics.obj
 0001:0000b7c1       ___raise_securityfailure   1000c7c1 f   LIBCMT:gs_report.obj
 0001:0000b7e9       ___report_gsfailure        1000c7e9 f   LIBCMT:gs_report.obj
 0001:0000b8e3       ___report_rangecheckfailure 1000c8e3 f   LIBCMT:gs_report.obj
 0001:0000b8ef       ___report_securityfailure  1000c8ef f   LIBCMT:gs_report.obj
 0001:0000b9be       ??2@YAPAXIABUnothrow_t@std@@@Z 1000c9be f   LIBCMT:new_scalar_nothrow.obj
 0001:0000ba13       ??_U@YAPAXIABUnothrow_t@std@@@Z 1000ca13 f   LIBCMT:new_array_nothrow.obj
 0001:0000ba1c       @__security_check_cookie@4 1000ca1c f   LIBCMT:secchk.obj
 0001:0000ba30       __SEH_prolog4_GS           1000ca30 f   LIBCMT:sehprolg4gs.obj
 0001:0000ba80       __alloca_probe_16          1000ca80 f   LIBCMT:alloca16.obj
 0001:0000ba96       __alloca_probe_8           1000ca96     LIBCMT:alloca16.obj
 0001:0000bab0       __alloca_probe             1000cab0 f   LIBCMT:chkstk.obj
 0001:0000bab0       __chkstk                   1000cab0 f   LIBCMT:chkstk.obj
 0001:0000be1b       __DllMainCRTStartup@12     1000ce1b f   LIBCMT:dll_dllmain.obj
 0001:0000be3e       ??2@YAPAXI@Z               1000ce3e f   LIBCMT:new_scalar.obj
 0001:0000be6e       ___isa_available_init      1000ce6e f   LIBCMT:cpu_disp.obj
 0001:0000c042       ___scrt_is_ucrt_dll_in_use 1000d042 f   LIBCMT:ucrt_detection.obj
 0001:0000c04e       ___scrt_fastfail           1000d04e f   LIBCMT:utility_desktop.obj
 0001:0000c169       __crt_debugger_hook        1000d169 f   LIBCMT:utility_desktop.obj
 0001:0000c180       __SEH_prolog4              1000d180 f   LIBCMT:sehprolg4.obj
 0001:0000c1c5       @_guard_check_icall_nop@4  1000d1c5 f i LIBCMT:guard_support.obj
 0001:0000c215       ___security_init_cookie    1000d215 f   LIBCMT:gs_support.obj
 0001:0000c260       ?__scrt_initialize_type_info@@YAXXZ 1000d260 f   LIBCMT:tncleanup.obj
 0001:0000c26c       ?__scrt_uninitialize_type_info@@YAXXZ 1000d26c f   LIBCMT:tncleanup.obj
 0001:0000c278       ___local_stdio_scanf_options 1000d278 f i LIBCMT:default_local_stdio_options.obj
 0001:0000c27e       ___scrt_initialize_default_local_stdio_options 1000d27e f   LIBCMT:default_local_stdio_options.obj
 0001:0000c29b       ___scrt_get_dyn_tls_init_callback 1000d29b f   LIBCMT:dyn_tls_init.obj
 0001:0000c2a1       __RTC_Initialize           1000d2a1 f   LIBCMT:initsect.obj
 0001:0000c2cd       __RTC_Terminate            1000d2cd f   LIBCMT:initsect.obj
 0001:0000c2f9       ??0bad_alloc@std@@QAE@ABV01@@Z 1000d2f9 f i LIBCMT:throw_bad_alloc.obj
 0001:0000c314       ??0bad_alloc@std@@QAE@XZ   1000d314 f i LIBCMT:throw_bad_alloc.obj
 0001:0000c32c       ??0bad_array_new_length@std@@QAE@ABV01@@Z 1000d32c f i LIBCMT:throw_bad_alloc.obj
 0001:0000c347       ??0bad_array_new_length@std@@QAE@XZ 1000d347 f i LIBCMT:throw_bad_alloc.obj
 0001:0000c35f       ??0exception@std@@QAE@ABV01@@Z 1000d35f f i LIBCMT:throw_bad_alloc.obj
 0001:0000c38b       ??1bad_exception@std@@UAE@XZ 1000d38b f i libvcruntime:frame.obj
 0001:0000c38b       ??1bad_array_new_length@std@@UAE@XZ 1000d38b f i LIBCMT:throw_bad_alloc.obj
 0001:0000c38b       ??1bad_alloc@std@@UAE@XZ   1000d38b f i LIBCMT:throw_bad_alloc.obj
 0001:0000c39c       ??_Gbad_exception@std@@UAEPAXI@Z 1000d39c f i libvcruntime:frame.obj
 0001:0000c39c       ??_Ebad_alloc@std@@UAEPAXI@Z 1000d39c f i LIBCMT:throw_bad_alloc.obj
 0001:0000c39c       ??_Ebad_exception@std@@UAEPAXI@Z 1000d39c f i libvcruntime:frame.obj
 0001:0000c39c       ??_Gbad_alloc@std@@UAEPAXI@Z 1000d39c f i LIBCMT:throw_bad_alloc.obj
 0001:0000c39c       ??_Ebad_array_new_length@std@@UAEPAXI@Z 1000d39c f i LIBCMT:throw_bad_alloc.obj
 0001:0000c39c       ??_Eexception@std@@UAEPAXI@Z 1000d39c f i LIBCMT:throw_bad_alloc.obj
 0001:0000c39c       ??_Gexception@std@@UAEPAXI@Z 1000d39c f i LIBCMT:throw_bad_alloc.obj
 0001:0000c39c       ??_Gbad_array_new_length@std@@UAEPAXI@Z 1000d39c f i LIBCMT:throw_bad_alloc.obj
 0001:0000c3c9       ?__scrt_throw_std_bad_alloc@@YAXXZ 1000d3c9 f   LIBCMT:throw_bad_alloc.obj
 0001:0000c3e6       ?__scrt_throw_std_bad_array_new_length@@YAXXZ 1000d3e6 f   LIBCMT:throw_bad_alloc.obj
 0001:0000c403       ?what@exception@std@@UBEPBDXZ 1000d403 f i LIBCMT:throw_bad_alloc.obj
 0001:0000c410       ??_Gtype_info@@UAEPAXI@Z   1000d410 f i LIBCMT:std_type_info_static.obj
 0001:0000c410       ??_Etype_info@@UAEPAXI@Z   1000d410 f i LIBCMT:std_type_info_static.obj
 0001:0000c433       ??0CAtlBaseModule@ATL@@QAE@XZ 1000d433 f   atls:atlbase.obj
 0001:0000c486       ??0_ATL_BASE_MODULE70@ATL@@QAE@XZ 1000d486 f i atls:atlbase.obj
 0001:0000c4a9       ??1CAtlBaseModule@ATL@@QAE@XZ 1000d4a9 f   atls:atlbase.obj
 0001:0000c596       ?Init@_stdcallthunk@ATL@@QAEHKPAX@Z 1000d596 f i atls:atlthunk.obj
 0001:0000c5cb       ?__AllocStdCallThunk_cmn@@YAPAXXZ 1000d5cb f   atls:atlthunk.obj
 0001:0000c691       ?__FreeStdCallThunk_cmn@@YAXPAX@Z 1000d691 f   atls:atlthunk.obj
 0001:0000c72d       _AtlThunk_AllocateData@0   1000d72d f   atls:atlthunk.obj
 0001:0000c792       _AtlThunk_DataToCode@4     1000d792 f   atls:atlthunk.obj
 0001:0000c7d9       _AtlThunk_FreeData@4       1000d7d9 f   atls:atlthunk.obj
 0001:0000c82f       _AtlThunk_InitData@12      1000d82f f   atls:atlthunk.obj
 0001:0000c87e       __get_purecall_handler     1000d87e f   libvcruntime:purevirt.obj
 0001:0000c885       __purecall                 1000d885 f   libvcruntime:purevirt.obj
 0001:0000c8a1       _wcsstr                    1000d8a1 f   libvcruntime:wcsstr.obj
 0001:0000cb60       __except_handler4          1000db60 f   libvcruntime:chandler4.obj
 0001:0000ccbe       _memcmp                    1000dcbe f   libvcruntime:memcmp.obj
 0001:0000e340       _memmove                   1000f340 f   libvcruntime:memmove.obj
 0001:0000e340       _memcpy                    1000f340 f   libvcruntime:memcpy.obj
 0001:0000e8c0       _memset                    1000f8c0 f   libvcruntime:memset.obj
 0001:0000ea1a       ___vcrt_initialize         1000fa1a f   libvcruntime:initialization.obj
 0001:0000ea39       ___vcrt_thread_attach      1000fa39 f   libvcruntime:initialization.obj
 0001:0000ea44       ___vcrt_thread_detach      1000fa44 f   libvcruntime:initialization.obj
 0001:0000ea4f       ___vcrt_uninitialize       1000fa4f f   libvcruntime:initialization.obj
 0001:0000ea66       ___vcrt_uninitialize_critical 1000fa66 f   libvcruntime:initialization.obj
 0001:0000ea6e       ?GetRangeOfTrysToCheck@__FrameHandler3@@SA?AU?$pair@Viterator@TryBlockMap@__FrameHandler3@@V123@@std@@AAVTryBlockMap@1@HPAXPBU_s_FuncInfo@@H@Z 1000fa6e f   libvcruntime:trnsctrl.obj
 0001:0000eade       ?_CallCatchBlock2@@YAPAXPAUEHRegistrationNode@@PBU_s_FuncInfo@@PAXHK@Z 1000fade f   libvcruntime:trnsctrl.obj
 0001:0000eb3b       ?_CallSETranslator@@YAHPAUEHExceptionRecord@@PAUEHRegistrationNode@@PAX2PBU_s_FuncInfo@@H1@Z 1000fb3b f   libvcruntime:trnsctrl.obj
 0001:0000ec31       ?_JumpToContinuation@@YGXPAXPAUEHRegistrationNode@@@Z 1000fc31 f   libvcruntime:trnsctrl.obj
 0001:0000ec61       ?_UnwindNestedFrames@@YGXPAUEHRegistrationNode@@PAUEHExceptionRecord@@@Z 1000fc61 f   libvcruntime:trnsctrl.obj
 0001:0000ecb4       __CatchGuardHandler        1000fcb4 f   libvcruntime:trnsctrl.obj
 0001:0000ece5       __CreateFrameInfo          1000fce5 f   libvcruntime:trnsctrl.obj
 0001:0000ed09       __FindAndUnlinkFrame       1000fd09 f   libvcruntime:trnsctrl.obj
 0001:0000ed51       __TranslatorGuardHandler   1000fd51 f   libvcruntime:trnsctrl.obj
 0001:0000edee       ___CxxFrameHandler3        1000fdee f   libvcruntime:trnsctrl.obj
 0001:0000ee24       ___DestructExceptionObject 1000fe24 f   libvcruntime:ehhelpers.obj
 0001:0000eec5       ?_CallMemberFunction0@@YGXQAX0@Z 1000fec5 f i libvcruntime:ehhelpers.obj
 0001:0000ef2a       __IsExceptionObjectToBeDestroyed 1000ff2a f   libvcruntime:ehhelpers.obj
 0001:0000ef50       ___AdjustPointer           1000ff50 f   libvcruntime:ehhelpers.obj
 0001:0000ef75       ___FrameUnwindFilter       1000ff75 f   libvcruntime:ehhelpers.obj
 0001:0000efcb       ___std_terminate           1000ffcb f   libvcruntime:ehhelpers.obj
 0001:0000efd0       ___std_type_info_compare   1000ffd0 f   libvcruntime:std_type_info.obj
 0001:0000f00c       ___std_type_info_destroy_list 1001000c f   libvcruntime:std_type_info.obj
 0001:0000f02f       ___std_exception_copy      1001002f f   libvcruntime:std_exception.obj
 0001:0000f092       ___std_exception_destroy   10010092 f   libvcruntime:std_exception.obj
 0001:0000f0b1       __CxxThrowException@8      100100b1 f   libvcruntime:throw.obj
 0001:0000f120       __local_unwind4            10010120 f   libvcruntime:exsup4.obj
 0001:0000f210       @_EH4_CallFilterFunc@8     10010210 f   libvcruntime:exsup4.obj
 0001:0000f230       @_EH4_TransferToHandler@8  10010230 f   libvcruntime:exsup4.obj
 0001:0000f250       @_EH4_GlobalUnwind2@8      10010250 f   libvcruntime:exsup4.obj
 0001:0000f270       @_EH4_LocalUnwind@16       10010270 f   libvcruntime:exsup4.obj
 0001:0000f287       ___except_validate_context_record 10010287 f   libvcruntime:jbcxrval.obj
 0001:0000f2b7       ___vcrt_freefls@4          100102b7 f   libvcruntime:per_thread_data.obj
 0001:0000f2d3       ___vcrt_freeptd            100102d3 f   libvcruntime:per_thread_data.obj
 0001:0000f309       ___vcrt_getptd             10010309 f   libvcruntime:per_thread_data.obj
 0001:0000f317       ___vcrt_getptd_noexit      10010317 f   libvcruntime:per_thread_data.obj
 0001:0000f3a9       ___vcrt_initialize_ptd     100103a9 f   libvcruntime:per_thread_data.obj
 0001:0000f3dc       ___vcrt_uninitialize_ptd   100103dc f   libvcruntime:per_thread_data.obj
 0001:0000f3f7       ___vcrt_initialize_locks   100103f7 f   libvcruntime:locks.obj
 0001:0000f433       ___vcrt_uninitialize_locks 10010433 f   libvcruntime:locks.obj
 0001:0000fb94       ??$TypeMatchHelper@V__FrameHandler3@@@@YAHPBU_s_HandlerType@@PBU_s_CatchableType@@PBU_s_ThrowInfo@@@Z 10010b94 f i libvcruntime:frame.obj
 0001:0000fc22       ??$__InternalCxxFrameHandler@V__FrameHandler3@@@@YA?AW4_EXCEPTION_DISPOSITION@@PAUEHExceptionRecord@@PAUEHRegistrationNode@@PAU_CONTEXT@@PAXPBU_s_FuncInfo@@H1E@Z 10010c22 f i libvcruntime:frame.obj
 0001:0000fd24       ??0bad_exception@std@@QAE@ABV01@@Z 10010d24 f i libvcruntime:frame.obj
 0001:0000fd3f       ??0bad_exception@std@@QAE@XZ 10010d3f f i libvcruntime:frame.obj
 0001:0000fd57       ??8type_info@@QBE_NABV0@@Z 10010d57 f i libvcruntime:frame.obj
 0001:0000ffce       ?FrameUnwindToEmptyState@__FrameHandler3@@SAXPAUEHRegistrationNode@@PAXPBU_s_FuncInfo@@@Z 10010fce f   libvcruntime:frame.obj
 0001:0000ffe6       ?FrameUnwindToState@__FrameHandler3@@SAXPAUEHRegistrationNode@@PAXPBU_s_FuncInfo@@H@Z 10010fe6 f   libvcruntime:frame.obj
 0001:00010168       ?_CallMemberFunction1@@YGXQAX00@Z 10011168 f i libvcruntime:frame.obj
 0001:00010178       ?_CallMemberFunction2@@YGXQAX00H@Z 10011178 f i libvcruntime:frame.obj
 0001:0001018b       ?getESTypes@__FrameHandler3@@SAPBU_s_ESTypeList@@PBU_s_FuncInfo@@@Z 1001118b f i libvcruntime:frame.obj
 0001:000101a0       __CallSettingFrame@12      100111a0 f   libvcruntime:lowhelpr.obj
 0001:000101c7       __NLG_Return               100111c7     libvcruntime:lowhelpr.obj
 0001:000101f0       __NLG_Notify1              100111f0 f   libvcruntime:exsup.obj
 0001:00010200       __NLG_Notify               10011200 f   libvcruntime:exsup.obj
 0001:00010217       __NLG_Dispatch             10011217     libvcruntime:exsup.obj
 0001:00010217       __NLG_Dispatch2            10011217     libvcruntime:exsup.obj
 0001:00010220       __NLG_Call                 10011220 f   libvcruntime:exsup.obj
 0001:00010222       __NLG_Return2              10011222     libvcruntime:exsup.obj
 0001:00010308       ___vcrt_FlsAlloc           10011308 f   libvcruntime:winapi_downlevel.obj
 0001:00010343       ___vcrt_FlsFree            10011343 f   libvcruntime:winapi_downlevel.obj
 0001:0001037e       ___vcrt_FlsGetValue        1001137e f   libvcruntime:winapi_downlevel.obj
 0001:000103b9       ___vcrt_FlsSetValue        100113b9 f   libvcruntime:winapi_downlevel.obj
 0001:000103f7       ___vcrt_InitializeCriticalSectionEx 100113f7 f   libvcruntime:winapi_downlevel.obj
 0001:0001043e       _unexpected                1001143e f   libvcruntime:unexpected.obj
 0001:0001045b       ?GetCurrentState@__FrameHandler3@@SAHPAUEHRegistrationNode@@PAXPBU_s_FuncInfo@@@Z 1001145b f   libvcruntime:ehstate.obj
 0001:00010478       ?SetState@__FrameHandler3@@SAXPAUEHRegistrationNode@@PBU_s_FuncInfo@@H@Z 10011478 f   libvcruntime:ehstate.obj
 0001:00010486       _free                      10011486 f   libucrt:free.obj
 0001:000104a1       ??0__crt_cached_ptd_host@@QAE@QAU__crt_locale_pointers@@@Z 100114a1 f i libucrt:invalid_parameter.obj
 0001:000104e9       ??1__crt_cached_ptd_host@@QAE@XZ 100114e9 f i libucrt:invalid_parameter.obj
 0001:00010525       ?check_synchronize_global_state_index@__crt_cached_ptd_host@@AAEIXZ 10011525 f i libucrt:invalid_parameter.obj
 0001:0001054e       ?force_synchronize_per_thread_data@__crt_cached_ptd_host@@AAEPAU__acrt_ptd@@XZ 1001154e f i libucrt:invalid_parameter.obj
 0001:00010594       ?get_raw_ptd@__crt_cached_ptd_host@@QAEPAU__acrt_ptd@@XZ 10011594 f i libucrt:invalid_parameter.obj
 0001:000105b1       ___acrt_call_reportfault   100115b1 f   libucrt:invalid_parameter.obj
 0001:000106ea       ___acrt_initialize_invalid_parameter_handler 100116ea f   libucrt:invalid_parameter.obj
 0001:000106f9       __invalid_parameter        100116f9 f   libucrt:invalid_parameter.obj
 0001:00010730       __invalid_parameter_internal 10011730 f   libucrt:invalid_parameter.obj
 0001:000107ad       __invalid_parameter_noinfo 100117ad f   libucrt:invalid_parameter.obj
 0001:000107bd       __invoke_watson            100117bd f   libucrt:invalid_parameter.obj
 0001:000107f1       ___acrt_errno_from_os_error 100117f1 f   libucrt:errno.obj
 0001:00010834       ___acrt_errno_map_os_error 10011834 f   libucrt:errno.obj
 0001:00010857       ___acrt_errno_map_os_error_ptd 10011857 f   libucrt:errno.obj
 0001:0001087b       ___doserrno                1001187b f   libucrt:errno.obj
 0001:0001088e       __errno                    1001188e f   libucrt:errno.obj
 0001:000108a1       _calloc                    100118a1 f   libucrt:calloc.obj
 0001:000108ac       _malloc                    100118ac f   libucrt:malloc.obj
 0001:000108b7       __recalloc                 100118b7 f   libucrt:recalloc.obj
 0001:000108c2       __recalloc_base            100118c2 f   libucrt:recalloc.obj
 0001:0001092f       __resetstkoflw             1001192f f   libucrt:resetstk.obj
 0001:00010a6c       _wcscat_s                  10011a6c f   libucrt:wcscat_s.obj
 0001:00010a77       _wcscpy_s                  10011a77 f   libucrt:wcscpy_s.obj
 0001:00010ba9       _wcsncpy_s                 10011ba9 f   libucrt:wcsncpy_s.obj
 0001:00010dd1       ??$count@D@formatting_buffer@__crt_stdio_output@@QBEIXZ 10011dd1 f i libucrt:output.obj
 0001:00010de9       ??$count@_W@formatting_buffer@__crt_stdio_output@@QBEIXZ 10011de9 f i libucrt:output.obj
 0001:00010e02       ??$ensure_buffer_is_big_enough@D@formatting_buffer@__crt_stdio_output@@QAE_NIAAV__crt_cached_ptd_host@@@Z 10011e02 f i libucrt:output.obj
 0001:00010e83       ??$ensure_buffer_is_big_enough@_W@formatting_buffer@__crt_stdio_output@@QAE_NIAAV__crt_cached_ptd_host@@@Z 10011e83 f i libucrt:output.obj
 0001:00010f05       ??$is_overflow_condition@K@__crt_strtox@@YA_NIK@Z 10011f05 f i libucrt:output.obj
 0001:00010f36       ??$is_wide_character_specifier@_W@__crt_stdio_output@@YA_N_K_WW4length_modifier@0@@Z 10011f36 f i libucrt:output.obj
 0001:00010f84       ??$parse_integer@KV?$c_string_character_source@_W@__crt_strtox@@$0A@@__crt_strtox@@YAKAAV__crt_cached_ptd_host@@V?$c_string_character_source@_W@0@H_N@Z 10011f84 f i libucrt:output.obj
 0001:00011553       ??$scratch_data@D@formatting_buffer@__crt_stdio_output@@QAEPADXZ 10012553 f i libucrt:output.obj
 0001:00011571       ??$type_case_integer@$07@?$output_processor@_WV?$string_output_adapter@_W@__crt_stdio_output@@V?$format_validation_base@_WV?$string_output_adapter@_W@__crt_stdio_output@@@2@@__crt_stdio_output@@AAE_N_N@Z 10012571 f i libucrt:output.obj
 0001:000116f3       ??$type_case_integer@$09@?$output_processor@_WV?$string_output_adapter@_W@__crt_stdio_output@@V?$format_validation_base@_WV?$string_output_adapter@_W@__crt_stdio_output@@@2@@__crt_stdio_output@@AAE_N_N@Z 100126f3 f i libucrt:output.obj
 0001:00011875       ??$type_case_integer@$0BA@@?$output_processor@_WV?$string_output_adapter@_W@__crt_stdio_output@@V?$format_validation_base@_WV?$string_output_adapter@_W@__crt_stdio_output@@@2@@__crt_stdio_output@@AAE_N_N@Z 10012875 f i libucrt:output.obj
 0001:000119f7       ??$type_case_integer_parse_into_buffer@I$07@?$output_processor@_WV?$string_output_adapter@_W@__crt_stdio_output@@V?$format_validation_base@_WV?$string_output_adapter@_W@__crt_stdio_output@@@2@@__crt_stdio_output@@AAEXI_N@Z 100129f7 f i libucrt:output.obj
 0001:00011a64       ??$type_case_integer_parse_into_buffer@I$09@?$output_processor@_WV?$string_output_adapter@_W@__crt_stdio_output@@V?$format_validation_base@_WV?$string_output_adapter@_W@__crt_stdio_output@@@2@@__crt_stdio_output@@AAEXI_N@Z 10012a64 f i libucrt:output.obj
 0001:00011af3       ??$type_case_integer_parse_into_buffer@I$0BA@@?$output_processor@_WV?$string_output_adapter@_W@__crt_stdio_output@@V?$format_validation_base@_WV?$string_output_adapter@_W@__crt_stdio_output@@@2@@__crt_stdio_output@@AAEXI_N@Z 10012af3 f i libucrt:output.obj
 0001:00011b80       ??$type_case_integer_parse_into_buffer@_K$07@?$output_processor@_WV?$string_output_adapter@_W@__crt_stdio_output@@V?$format_validation_base@_WV?$string_output_adapter@_W@__crt_stdio_output@@@2@@__crt_stdio_output@@AAEX_K_N@Z 10012b80 f i libucrt:output.obj
 0001:00011c09       ??$type_case_integer_parse_into_buffer@_K$09@?$output_processor@_WV?$string_output_adapter@_W@__crt_stdio_output@@V?$format_validation_base@_WV?$string_output_adapter@_W@__crt_stdio_output@@@2@@__crt_stdio_output@@AAEX_K_N@Z 10012c09 f i libucrt:output.obj
 0001:00011cb8       ??$type_case_integer_parse_into_buffer@_K$0BA@@?$output_processor@_WV?$string_output_adapter@_W@__crt_stdio_output@@V?$format_validation_base@_WV?$string_output_adapter@_W@__crt_stdio_output@@@2@@__crt_stdio_output@@AAEX_K_N@Z 10012cb8 f i libucrt:output.obj
 0001:00011d53       ??0?$output_adapter_data@_WV?$string_output_adapter@_W@__crt_stdio_output@@@__crt_stdio_output@@IAE@ABV?$string_output_adapter@_W@1@_KQB_WAAV__crt_cached_ptd_host@@QAD@Z 10012d53 f i libucrt:output.obj
 0001:00011dbf       ??1formatting_buffer@__crt_stdio_output@@QAE@XZ 10012dbf f i libucrt:output.obj
 0001:00011dd9       ??4?$__crt_unique_heap_ptr@DU__crt_internal_free_policy@@@@QAEAAV0@$$QAV0@@Z 10012dd9 f i libucrt:output.obj
 0001:00011dfd       ?crop_zeroes@__crt_stdio_output@@YAXPADQAU__crt_locale_pointers@@@Z 10012dfd f i libucrt:output.obj
 0001:00011e5d       ?find_next_state@?$output_processor@_WV?$string_output_adapter@_W@__crt_stdio_output@@V?$format_validation_base@_WV?$string_output_adapter@_W@__crt_stdio_output@@@2@@__crt_stdio_output@@ABE?AW4state@2@_WW432@@Z 10012e5d f i libucrt:output.obj
 0001:00011e99       ?force_decimal_point@__crt_stdio_output@@YAXPADQAU__crt_locale_pointers@@@Z 10012e99 f i libucrt:output.obj
 0001:00011ef5       ?parse_int_from_format_string@?$output_processor@_WV?$string_output_adapter@_W@__crt_stdio_output@@V?$format_validation_base@_WV?$string_output_adapter@_W@__crt_stdio_output@@@2@@__crt_stdio_output@@AAE_NQAH@Z 10012ef5 f i libucrt:output.obj
 0001:00011f6f       ?process@?$output_processor@_WV?$string_output_adapter@_W@__crt_stdio_output@@V?$format_validation_base@_WV?$string_output_adapter@_W@__crt_stdio_output@@@2@@__crt_stdio_output@@QAEHXZ 10012f6f f i libucrt:output.obj
 0001:000121bf       ?state_case_size@?$output_processor@_WV?$string_output_adapter@_W@__crt_stdio_output@@V?$format_validation_base@_WV?$string_output_adapter@_W@__crt_stdio_output@@@2@@__crt_stdio_output@@AAE_NXZ 100131bf f i libucrt:output.obj
 0001:0001234d       ?state_case_type@?$output_processor@_WV?$string_output_adapter@_W@__crt_stdio_output@@V?$format_validation_base@_WV?$string_output_adapter@_W@__crt_stdio_output@@@2@@__crt_stdio_output@@AAE_NXZ 1001334d f i libucrt:output.obj
 0001:0001276e       ?to_integer_size@__crt_stdio_output@@YAIW4length_modifier@1@@Z 1001376e f i libucrt:output.obj
 0001:000127c2       ?type_case_Z@?$output_processor@_WV?$string_output_adapter@_W@__crt_stdio_output@@V?$format_validation_base@_WV?$string_output_adapter@_W@__crt_stdio_output@@@2@@__crt_stdio_output@@AAE_NXZ 100137c2 f i libucrt:output.obj
 0001:0001281c       ?type_case_a@?$output_processor@_WV?$string_output_adapter@_W@__crt_stdio_output@@V?$format_validation_base@_WV?$string_output_adapter@_W@__crt_stdio_output@@@2@@__crt_stdio_output@@AAE_NXZ 1001381c f i libucrt:output.obj
 0001:000129bc       ?type_case_c_tchar@?$output_processor@_WV?$string_output_adapter@_W@__crt_stdio_output@@V?$format_validation_base@_WV?$string_output_adapter@_W@__crt_stdio_output@@@2@@__crt_stdio_output@@AAE_N_W@Z 100139bc f i libucrt:output.obj
 0001:00012a63       ?type_case_n@?$output_processor@_WV?$string_output_adapter@_W@__crt_stdio_output@@V?$format_validation_base@_WV?$string_output_adapter@_W@__crt_stdio_output@@@2@@__crt_stdio_output@@AAE_NXZ 10013a63 f i libucrt:output.obj
 0001:00012ae7       ?type_case_o@?$output_processor@_WV?$string_output_adapter@_W@__crt_stdio_output@@V?$format_validation_base@_WV?$string_output_adapter@_W@__crt_stdio_output@@@2@@__crt_stdio_output@@AAE_NXZ 10013ae7 f i libucrt:output.obj
 0001:00012b04       ?type_case_p@?$output_processor@_WV?$string_output_adapter@_W@__crt_stdio_output@@V?$format_validation_base@_WV?$string_output_adapter@_W@__crt_stdio_output@@@2@@__crt_stdio_output@@AAE_NXZ 10013b04 f i libucrt:output.obj
 0001:00012b1a       ?type_case_s@?$output_processor@_WV?$string_output_adapter@_W@__crt_stdio_output@@V?$format_validation_base@_WV?$string_output_adapter@_W@__crt_stdio_output@@@2@@__crt_stdio_output@@AAE_NXZ 10013b1a f i libucrt:output.obj
 0001:00012b8d       ?type_case_s_compute_narrow_string_length@?$output_processor@_WV?$string_output_adapter@_W@__crt_stdio_output@@V?$format_validation_base@_WV?$string_output_adapter@_W@__crt_stdio_output@@@2@@__crt_stdio_output@@AAEHH_W@Z 10013b8d f i libucrt:output.obj
 0001:00012be2       ?unget@?$c_string_character_source@_W@__crt_strtox@@QAEX_W@Z 10013be2 f i libucrt:output.obj
 0001:00012c10       ?update_locale_slow@__crt_cached_ptd_host@@AAEXXZ 10013c10 f i libucrt:output.obj
 0001:00012c6b       ?validate@?$c_string_character_source@_W@__crt_strtox@@QBE_NXZ 10013c6b f i libucrt:output.obj
 0001:00012c86       ?validate@?$string_output_adapter@_W@__crt_stdio_output@@QBE_NAAV__crt_cached_ptd_host@@@Z 10013c86 f i libucrt:output.obj
 0001:00012cb7       ?write_string@?$string_output_adapter@_W@__crt_stdio_output@@QBEXQB_WHQAHAAV__crt_cached_ptd_host@@@Z 10013cb7 f i libucrt:output.obj
 0001:00012d28       ___acrt_locale_get_ctype_array_value 10013d28 f i libucrt:output.obj
 0001:00012d4a       ___stdio_common_vswprintf_s 10013d4a f   libucrt:output.obj
 0001:00012d8b       __seh_filter_dll           10013d8b f   libucrt:exception_filter.obj
 0001:00012dab       __seh_filter_exe           10013dab f   libucrt:exception_filter.obj
 0001:000131d8       ___acrt_initialize_thread_local_exit_callback 100141d8 f   libucrt:exit.obj
 0001:000131e7       __cexit                    100141e7 f   libucrt:exit.obj
 0001:000131f6       __exit                     100141f6 f   libucrt:exit.obj
 0001:0001320c       __is_c_termination_complete 1001420c f   libucrt:exit.obj
 0001:000134c4       ___acrt_allocate_buffer_for_argv 100144c4 f   libucrt:argv_parsing.obj
 0001:00013513       __configure_narrow_argv    10014513 f   libucrt:argv_parsing.obj
 0001:000136bf       ___dcrt_uninitialize_environments_nolock 100146bf f   libucrt:environment_initialization.obj
 0001:00013710       __initialize_narrow_environment 10014710 f   libucrt:environment_initialization.obj
 0001:000137cb       ??$__crt_fast_encode_pointer@P6AHXZ@@YAP6AHXZQ6AHXZ@Z 100147cb f i libucrt:onexit.obj
 0001:000137cb       ??$__crt_fast_encode_pointer@PAX@@YAPAXQAX@Z 100147cb f i libucrt:initialization.obj
 0001:000137cb       ??$__crt_fast_encode_pointer@PAP6AXXZ@@YAPAP6AXXZQAP6AXXZ@Z 100147cb f i libucrt:onexit.obj
 0001:000139c6       __crt_atexit               100149c6 f   libucrt:onexit.obj
 0001:000139dc       __execute_onexit_table     100149dc f   libucrt:onexit.obj
 0001:00013a1a       __initialize_onexit_table  10014a1a f   libucrt:onexit.obj
 0001:00013a43       __register_onexit_function 10014a43 f   libucrt:onexit.obj
 0001:00013ac6       ___acrt_uninitialize_command_line 10014ac6 f   libucrt:argv_data.obj
 0001:00013b74       ___acrt_initialize         10014b74 f   libucrt:initialization.obj
 0001:00013b86       ___acrt_thread_attach      10014b86 f   libucrt:initialization.obj
 0001:00013b91       ___acrt_thread_detach      10014b91 f   libucrt:initialization.obj
 0001:00013b99       ___acrt_uninitialize       10014b99 f   libucrt:initialization.obj
 0001:00013bc9       ___acrt_uninitialize_critical 10014bc9 f   libucrt:initialization.obj
 0001:00013bdb       __initterm                 10014bdb f   libucrt:initterm.obj
 0001:00013c06       __initterm_e               10014c06 f   libucrt:initterm.obj
 0001:00013c34       ___acrt_initialize_new_handler 10014c34 f   libucrt:new_handler.obj
 0001:00013c43       __callnewh                 10014c43 f   libucrt:new_handler.obj
 0001:00013c70       __query_new_handler        10014c70 f   libucrt:new_handler.obj
 0001:00013ccc       _terminate                 10014ccc f   libucrt:terminate.obj
 0001:00013d08       _abort                     10014d08 f   libucrt:abort.obj
 0001:00013d4c       _strcpy_s                  10014d4c f   libucrt:strcpy_s.obj
 0001:00013db0       _strncmp                   10014db0 f   libucrt:strncmp.obj
 0001:00013e28       _wcsncmp                   10014e28 f   libucrt:wcsncmp.obj
 0001:00013e62       __free_base                10014e62 f   libucrt:free_base.obj
 0001:000141da       ___acrt_freeptd            100151da f   libucrt:per_thread_data.obj
 0001:00014206       ___acrt_getptd             10015206 f   libucrt:per_thread_data.obj
 0001:000142c1       ___acrt_getptd_head        100152c1 f   libucrt:per_thread_data.obj
 0001:00014357       ___acrt_getptd_noexit      10015357 f   libucrt:per_thread_data.obj
 0001:00014408       ___acrt_getptd_noexit_explicit 10015408 f   libucrt:per_thread_data.obj
 0001:000144ab       ___acrt_initialize_ptd     100154ab f   libucrt:per_thread_data.obj
 0001:000144d7       ___acrt_uninitialize_ptd   100154d7 f   libucrt:per_thread_data.obj
 0001:0001455f       ___acrt_set_locale_changed 1001555f f   libucrt:wsetlocale.obj
 0001:0001456a       ___acrt_uninitialize_locale 1001556a f   libucrt:wsetlocale.obj
 0001:00014591       __calloc_base              10015591 f   libucrt:calloc_base.obj
 0001:000145ee       __malloc_base              100155ee f   libucrt:malloc_base.obj
 0001:0001463c       __msize_base               1001563c f   libucrt:msize.obj
 0001:0001466f       __realloc_base             1001566f f   libucrt:realloc_base.obj
 0001:00014874       ___acrt_AppPolicyGetProcessTerminationMethodInternal@4 10015874 f   libucrt:winapi_thunks.obj
 0001:000148b4       ___acrt_AreFileApisANSI@0  100158b4 f   libucrt:winapi_thunks.obj
 0001:000148d3       ___acrt_FlsAlloc@4         100158d3 f   libucrt:winapi_thunks.obj
 0001:00014912       ___acrt_FlsFree@4          10015912 f   libucrt:winapi_thunks.obj
 0001:00014951       ___acrt_FlsGetValue@4      10015951 f   libucrt:winapi_thunks.obj
 0001:00014990       ___acrt_FlsSetValue@8      10015990 f   libucrt:winapi_thunks.obj
 0001:000149d2       ___acrt_InitializeCriticalSectionEx@12 100159d2 f   libucrt:winapi_thunks.obj
 0001:00014a1d       ___acrt_LCMapStringEx@36   10015a1d f   libucrt:winapi_thunks.obj
 0001:00014a7a       ___acrt_LocaleNameToLCID@8 10015a7a f   libucrt:winapi_thunks.obj
 0001:00014aab       ___acrt_SetThreadStackGuarantee@4 10015aab f   libucrt:winapi_thunks.obj
 0001:00014ae6       ___acrt_initialize_winapi_thunks 10015ae6 f   libucrt:winapi_thunks.obj
 0001:00014afa       ___acrt_uninitialize_winapi_thunks 10015afa f   libucrt:winapi_thunks.obj
 0001:00014b30       _wcsnlen                   10015b30 f   libucrt:strnlen.obj
 0001:00014ce0       ___acrt_update_locale_info 10015ce0 f   libucrt:locale_update.obj
 0001:00014d0d       ___acrt_update_locale_info_explicit 10015d0d f   libucrt:locale_update.obj
 0001:00014d3e       ___acrt_update_multibyte_info 10015d3e f   libucrt:locale_update.obj
 0001:00014d6b       ___acrt_update_multibyte_info_explicit 10015d6b f   libucrt:locale_update.obj
 0001:00014d9c       ?__acrt_fp_classify@@YA?AW4__acrt_fp_class@@ABN@Z 10015d9c f i libucrt:cvt.obj
 0001:00015765       ___acrt_fp_format          10016765 f   libucrt:cvt.obj
 0001:000158e6       __mbtowc_internal          100168e6 f   libucrt:mbtowc.obj
 0001:00015a19       __fileno                   10016a19 f   libucrt:fileno.obj
 0001:00015a40       ___acrt_initialize_stdio   10016a40 f   libucrt:_file.obj
 0001:00015b08       ___acrt_uninitialize_stdio 10016b08 f   libucrt:_file.obj
 0001:00015b54       __lock_file                10016b54 f   libucrt:_file.obj
 0001:00015b68       __unlock_file              10016b68 f   libucrt:_file.obj
 0001:00015b7c       __get_printf_count_output  10016b7c f   libucrt:printf_count_output.obj
 0001:00015cf7       ___acrt_initialize_lowio   10016cf7 f   libucrt:ioinit.obj
 0001:00015d57       ___acrt_uninitialize_lowio 10016d57 f   libucrt:ioinit.obj
 0001:00015d83       ___acrt_initialize_locks   10016d83 f   libucrt:locks.obj
 0001:00015dc4       ___acrt_lock               10016dc4 f   libucrt:locks.obj
 0001:00015ddb       ___acrt_uninitialize_locks 10016ddb f   libucrt:locks.obj
 0001:00015e0c       ___acrt_unlock             10016e0c f   libucrt:locks.obj
 0001:00015e23       ___acrt_get_process_end_policy 10016e23 f   libucrt:win_policies.obj
 0001:00015e6c       ??$__acrt_convert_wcs_mbs_cp@D_WV<lambda_62f6974d9771e494a5ea317cc32e971c>@@U__crt_win32_buffer_internal_dynamic_resizing@@@@YAHQBDAAV?$__crt_win32_buffer@_WU__crt_win32_buffer_internal_dynamic_resizing@@@@ABV<lambda_62f6974d9771e494a5ea317cc32e971c>@@I@Z 10016e6c f i libucrt:argv_wildcards.obj
 0001:00015f1e       ??$__acrt_convert_wcs_mbs_cp@_WDV<lambda_28bda7af82a03b66c1cb3803a755f95d>@@U__crt_win32_buffer_internal_dynamic_resizing@@@@YAHQB_WAAV?$__crt_win32_buffer@DU__crt_win32_buffer_internal_dynamic_resizing@@@@ABV<lambda_28bda7af82a03b66c1cb3803a755f95d>@@I@Z 10016f1e f i libucrt:argv_wildcards.obj
 0001:00015fe4       ??$__acrt_mbs_to_wcs_cp@U__crt_win32_buffer_internal_dynamic_resizing@@@@YAHQBDAAV?$__crt_win32_buffer@_WU__crt_win32_buffer_internal_dynamic_resizing@@@@I@Z 10016fe4 f i libucrt:argv_wildcards.obj
 0001:000164b4       ??0_LocaleUpdate@@QAE@QAU__crt_locale_pointers@@@Z 100174b4 f i libucrt:argv_wildcards.obj
 0001:0001655f       ??R<lambda_0fec1a7b3f42a53036604e18c2d5e07e>@@QBEHIQB_WQADI@Z 1001755f f i libucrt:getmodulefilenamea.obj
 0001:0001655f       ??R<lambda_28bda7af82a03b66c1cb3803a755f95d>@@QBEHIQB_WQADI@Z 1001755f f i libucrt:argv_wildcards.obj
 0001:00016583       ?__acrt_get_utf8_acp_compatibility_codepage@@YAIXZ 10017583 f i libucrt:argv_wildcards.obj
 0001:000165c2       ?_deallocate@?$__crt_win32_buffer@DU__crt_win32_buffer_internal_dynamic_resizing@@@@AAEXXZ 100175c2 f i libucrt:argv_wildcards.obj
 0001:000165c2       ?_deallocate@?$__crt_win32_buffer@_WU__crt_win32_buffer_internal_dynamic_resizing@@@@AAEXXZ 100175c2 f i libucrt:argv_wildcards.obj
 0001:000165dc       ?allocate@?$__crt_win32_buffer@DU__crt_win32_buffer_internal_dynamic_resizing@@@@QAEHI@Z 100175dc f i libucrt:argv_wildcards.obj
 0001:00016618       ?allocate@?$__crt_win32_buffer@_WU__crt_win32_buffer_internal_dynamic_resizing@@@@QAEHI@Z 10017618 f i libucrt:argv_wildcards.obj
 0001:00016657       ?allocate@__crt_win32_buffer_internal_dynamic_resizing@@SAHQAPAXIABV__crt_win32_buffer_empty_debug_info@@@Z 10017657 f i libucrt:argv_wildcards.obj
 0001:000166fd       ___acrt_expand_narrow_argv_wildcards 100176fd f   libucrt:argv_wildcards.obj
 0001:00016708       ??$__acrt_convert_wcs_mbs_cp@_WDV<lambda_0fec1a7b3f42a53036604e18c2d5e07e>@@U__crt_win32_buffer_no_resizing@@@@YAHQB_WAAV?$__crt_win32_buffer@DU__crt_win32_buffer_no_resizing@@@@ABV<lambda_0fec1a7b3f42a53036604e18c2d5e07e>@@I@Z 10017708 f i libucrt:getmodulefilenamea.obj
 0001:000167ca       ?allocate@?$__crt_win32_buffer@DU__crt_win32_buffer_no_resizing@@@@QAEHI@Z 100177ca f i libucrt:getmodulefilenamea.obj
 0001:000167f1       ?set_to_nullptr@?$__crt_win32_buffer@DU__crt_win32_buffer_no_resizing@@@@QAEXXZ 100177f1 f i libucrt:getmodulefilenamea.obj
 0001:00016805       ___acrt_GetModuleFileNameA 10017805 f   libucrt:getmodulefilenamea.obj
 0001:00016e29       ___acrt_initialize_multibyte 10017e29 f   libucrt:mbctype.obj
 0001:00016e71       ___acrt_update_thread_multibyte_data 10017e71 f   libucrt:mbctype.obj
 0001:00016e84       __setmbcp_nolock           10017e84 f   libucrt:mbctype.obj
 0001:0001715d       __ismbblead                1001815d f   libucrt:ismbbyte.obj
 0001:00017175       ___acrt_initialize_command_line 10018175 f   libucrt:argv_data.obj
 0001:0001718e       ___acrt_MultiByteToWideChar 1001818e f   libucrt:multibytetowidechar.obj
 0001:0001720a       ___acrt_WideCharToMultiByte 1001820a f   libucrt:widechartomultibyte.obj
 0001:000172f8       ___dcrt_get_narrow_environment_from_os 100182f8 f   libucrt:get_environment_from_os.obj
 0001:00017398       ___acrt_initialize_heap    10018398 f   libucrt:heap_handle.obj
 0001:000173a9       ___acrt_uninitialize_heap  100183a9 f   libucrt:heap_handle.obj
 0001:000173b3       ___acrt_execute_initializers 100183b3 f   libucrt:shared_initialization.obj
 0001:0001741b       ___acrt_execute_uninitializers 1001841b f   libucrt:shared_initialization.obj
 0001:0001751a       ___acrt_get_sigabrt_handler 1001851a f   libucrt:signal.obj
 0001:00017541       ___acrt_initialize_signal_handlers 10018541 f   libucrt:signal.obj
 0001:0001755f       _raise                     1001855f f   libucrt:signal.obj
 0001:00017752       ___acrt_has_user_matherr   10018752 f   libucrt:matherr.obj
 0001:0001776a       ___acrt_initialize_user_matherr 1001876a f   libucrt:matherr.obj
 0001:00017779       ___acrt_invoke_user_matherr 10018779 f   libucrt:matherr.obj
 0001:00017988       ___acrt_stdio_flush_nolock 10018988 f   libucrt:fflush.obj
 0001:000179f1       __fflush_nolock            100189f1 f   libucrt:fflush.obj
 0001:00017a56       __flushall                 10018a56 f   libucrt:fflush.obj
 0001:00017a5f       ___acrt_add_locale_ref     10018a5f f   libucrt:locale_refcounting.obj
 0001:00017adc       ___acrt_free_locale        10018adc f   libucrt:locale_refcounting.obj
 0001:00017c24       ___acrt_locale_add_lc_time_reference 10018c24 f   libucrt:locale_refcounting.obj
 0001:00017c4d       ___acrt_locale_free_lc_time_if_unreferenced 10018c4d f   libucrt:locale_refcounting.obj
 0001:00017c7e       ___acrt_locale_release_lc_time_reference 10018c7e f   libucrt:locale_refcounting.obj
 0001:00017ca7       ___acrt_release_locale_ref 10018ca7 f   libucrt:locale_refcounting.obj
 0001:00017d28       ___acrt_update_thread_locale_data 10018d28 f   libucrt:locale_refcounting.obj
 0001:00017da9       __updatetlocinfoEx_nolock  10018da9 f   libucrt:locale_refcounting.obj
 0001:00017df9       ___acrt_locale_free_monetary 10018df9 f   libucrt:initmon.obj
 0001:00017ef7       ___acrt_locale_free_numeric 10018ef7 f   libucrt:initnum.obj
 0001:00017f85       ___acrt_locale_free_time   10018f85 f   libucrt:inittime.obj
 0001:00018069       ___acrt_GetStringTypeA     10019069 f   libucrt:getstringtypea.obj
 0001:00018172       __freea_crt                10019172 f i libucrt:getstringtypea.obj
 0001:00018192       __query_new_mode           10019192 f   libucrt:new_mode.obj
 0001:000181e9       ___acrt_DownlevelLocaleNameToLCID 100191e9 f   libucrt:lcidtoname_downlevel.obj
 0001:00018293       ___acrt_fp_strflt_to_string 10019293 f   libucrt:_fptostr.obj
 0001:00018390       ?divide@__crt_strtox@@YA_KAAUbig_integer@1@ABU21@@Z 10019390 f i libucrt:cfout.obj
 0001:00018818       ___acrt_fltout             10019818 f   libucrt:cfout.obj
 0001:00019d51       _fegetround                1001ad51 f   libucrt:fegetround.obj
 0001:00019d8a       ?__mbrtowc_utf8@__crt_mbstring@@YAIPA_WPBDIPAU_Mbstatet@@AAV__crt_cached_ptd_host@@@Z 1001ad8a f   libucrt:mbrtowc.obj
 0001:00019dcd       ?__mbsrtowcs_utf8@__crt_mbstring@@YAIPA_WPAPBDIPAU_Mbstatet@@AAV__crt_cached_ptd_host@@@Z 1001adcd f   libucrt:mbrtowc.obj
 0001:00019ed5       __fcloseall                1001aed5 f   libucrt:closeall.obj
 0001:00019f80       ___acrt_stdio_free_buffer_nolock 1001af80 f   libucrt:_freebuf.obj
 0001:00019fc0       __isatty                   1001afc0 f   libucrt:isatty.obj
 0001:0001a016       ___acrt_lowio_create_handle_array 1001b016 f   libucrt:osfinfo.obj
 0001:0001a091       ___acrt_lowio_destroy_handle_array 1001b091 f   libucrt:osfinfo.obj
 0001:0001a0c6       ___acrt_lowio_ensure_fh_exists 1001b0c6 f   libucrt:osfinfo.obj
 0001:0001a164       ___acrt_lowio_lock_fh      1001b164 f   libucrt:osfinfo.obj
 0001:0001a187       ___acrt_lowio_unlock_fh    1001b187 f   libucrt:osfinfo.obj
 0001:0001a1aa       __free_osfhnd              1001b1aa f   libucrt:osfinfo.obj
 0001:0001a23b       __get_osfhandle            1001b23b f   libucrt:osfinfo.obj
 0001:0001a2b0       _qsort                     1001b2b0 f   libucrt:qsort.obj
 0001:0001a855       _strncpy_s                 1001b855 f   libucrt:strncpy_s.obj
 0001:0001a860       _strpbrk                   1001b860 f   libucrt:strpbrk.obj
 0001:0001a8a0       __mbsdec                   1001b8a0 f   libucrt:mbsdec.obj
 0001:0001a8b7       __mbsdec_l                 1001b8b7 f   libucrt:mbsdec.obj
 0001:0001ab32       ___acrt_LCMapStringA       1001bb32 f   libucrt:lcmapstringa.obj
 0001:0001ac2c       __commit                   1001bc2c f   libucrt:commit.obj
 0001:0001b457       __write_internal           1001c457 f   libucrt:write.obj
 0001:0001b55f       __write_nolock             1001c55f f   libucrt:write.obj
 0001:0001b75f       ___ascii_wcsnicmp          1001c75f f   libucrt:wcsnicmp.obj
 0001:0001b7ae       __controlfp_s              1001c7ae f   libucrt:contrlfp.obj
 0001:0001b80d       _fegetenv                  1001c80d f   libucrt:fegetenv.obj
 0001:0001b82a       _fesetenv                  1001c82a f   libucrt:fesetenv.obj
 0001:0001b875       _feholdexcept              1001c875 f   libucrt:feholdexcept.obj
 0001:0001b8d0       __CIlog10                  1001c8d0 f   libucrt:log10_impl.obj
 0001:0001b90b       __CIlog10_default          1001c90b f   libucrt:log10_impl.obj
 0001:0001b91f       __log10_default            1001c91f     libucrt:log10_impl.obj
 0001:0001b9e0       _ceil                      1001c9e0 f   libucrt:ceil_pentium4.obj
 0001:0001ba20       __ceil_pentium4            1001ca20 f   libucrt:ceil_pentium4.obj
 0001:0001bdc6       ___acrt_fenv_get_common_round_control 1001cdc6 f   libucrt:_fenvutils.obj
 0001:0001bde8       ___acrt_fenv_get_control   1001cde8 f   libucrt:_fenvutils.obj
 0001:0001be68       ___acrt_fenv_get_status    1001ce68 f   libucrt:_fenvutils.obj
 0001:0001bf12       ___acrt_fenv_set_control   1001cf12 f   libucrt:_fenvutils.obj
 0001:0001bf8d       ___acrt_fenv_set_status    1001cf8d f   libucrt:_fenvutils.obj
 0001:0001c087       ?reset_and_return@__crt_mbstring@@YAIIPAU_Mbstatet@@@Z 1001d087 f   libucrt:common_utf8.obj
 0001:0001c09b       ?return_illegal_sequence@__crt_mbstring@@YAIPAU_Mbstatet@@AAV__crt_cached_ptd_host@@@Z 1001d09b f   libucrt:common_utf8.obj
 0001:0001c0bd       ?__mbrtoc32_utf8@__crt_mbstring@@YAIPA_UPBDIPAU_Mbstatet@@AAV__crt_cached_ptd_host@@@Z 1001d0bd f   libucrt:mbrtoc32.obj
 0001:0001c3a0       _fclose                    1001d3a0 f   libucrt:fclose.obj
 0001:0001c453       __lseeki64_nolock_internal 1001d453 f   libucrt:lseek.obj
 0001:0001c471       __query_app_type           1001d471 f   libucrt:report_runtime_error.obj
 0001:0001c477       ___strncnt                 1001d477 f   libucrt:strncnt.obj
 0001:0001c493       __putwch_nolock            1001d493 f   libucrt:putwch.obj
 0001:0001c56c       __clearfp                  1001d56c f   libucrt:ieee87.obj
 0001:0001c64a       __control87                1001d64a f   libucrt:ieee87.obj
 0001:0001c9e9       ___acrt_initialize_sse2    1001d9e9 f   libucrt:mathfcns.obj
 0001:0001ca00       __CIlog10_pentium4         1001da00 f   libucrt:log10_pentium4.obj
 0001:0001ca18       __log10_pentium4           1001da18     libucrt:log10_pentium4.obj
 0001:0001ccb0       __fFEXP                    1001dcb0 f   libucrt:87tran.obj
 0001:0001cd07       __rtinfpopse               1001dd07     libucrt:87tran.obj
 0001:0001cd09       __rtinfnpopse              1001dd09     libucrt:87tran.obj
 0001:0001cd19       __fFLN                     1001dd19     libucrt:87tran.obj
 0001:0001cdce       __rtinfpop                 1001ddce     libucrt:87tran.obj
 0001:0001cdd0       __rtinfnpop                1001ddd0     libucrt:87tran.obj
 0001:0001cde0       __rtforexpinf              1001dde0 f   libucrt:87tran.obj
 0001:0001cded       __ffexpm1                  1001dded     libucrt:87tran.obj
 0001:0001cea0       __trandisp1                1001dea0 f   libucrt:87disp.obj
 0001:0001cf15       __trandisp2                1001df15 f   libucrt:87disp.obj
 0001:0001cfaf       __rttospopde               1001dfaf     libucrt:87disp.obj
 0001:0001cfb4       __rttospop                 1001dfb4     libucrt:87disp.obj
 0001:0001cfc0       __rtnospop                 1001dfc0 f   libucrt:87disp.obj
 0001:0001cfd0       __rttosnpop                1001dfd0 f   libucrt:87disp.obj
 0001:0001cfd1       __rtnospopde               1001dfd1     libucrt:87disp.obj
 0001:0001cfd8       __rtzeropop                1001dfd8     libucrt:87disp.obj
 0001:0001cfda       __rtzeronpop               1001dfda     libucrt:87disp.obj
 0001:0001cfe0       __rtzerospop               1001dfe0 f   libucrt:87disp.obj
 0001:0001cfed       __rtonepop                 1001dfed     libucrt:87disp.obj
 0001:0001cff0       __rtonenpop                1001dff0 f   libucrt:87disp.obj
 0001:0001d000       __tosnan1                  1001e000 f   libucrt:87disp.obj
 0001:0001d030       __nosnan2                  1001e030 f   libucrt:87disp.obj
 0001:0001d040       __tosnan2                  1001e040 f   libucrt:87disp.obj
 0001:0001d070       __nan2                     1001e070 f   libucrt:87disp.obj
 0001:0001d0b0       __rtindfpop                1001e0b0 f   libucrt:87disp.obj
 0001:0001d0b2       __rtindfnpop               1001e0b2     libucrt:87disp.obj
 0001:0001d0c3       __rttosnpopde              1001e0c3     libucrt:87disp.obj
 0001:0001d0d0       __rtatan2inf               1001e0d0 f   libucrt:87disp.obj
 0001:0001d0ed       __rtchsifneg               1001e0ed     libucrt:87disp.obj
 0001:0001d100       __twoToTOS                 1001e100 f   libucrt:common.obj
 0001:0001d115       __load_CW                  1001e115 f   libucrt:common.obj
 0001:0001d12c       __convertTOStoQNaN         1001e12c f   libucrt:common.obj
 0001:0001d145       __fload_withFB             1001e145 f   libucrt:common.obj
 0001:0001d188       __checkTOS_withFB          1001e188 f   libucrt:common.obj
 0001:0001d19e       __fast_exit                1001e19e f   libucrt:common.obj
 0001:0001d1ab       __math_exit                1001e1ab f   libucrt:common.obj
 0001:0001d1d5       __check_overflow_exit      1001e1d5 f   libucrt:common.obj
 0001:0001d1e9       __check_range_exit         1001e1e9 f   libucrt:common.obj
 0001:0001d290       __startTwoArgErrorHandling 1001e290 f   libucrt:genexcep.obj
 0001:0001d2a7       __startOneArgErrorHandling 1001e2a7 f   libucrt:genexcep.obj
 0001:0001d2e3       ___libm_error_support      1001e2e3 f   libucrt:libm_error.obj
 0001:0001d4d7       __ceil_default             1001e4d7 f   libucrt:ceil.obj
 0001:0001d61d       __close_internal           1001e61d f   libucrt:close.obj
 0001:0001d6c0       __close_nolock_internal    1001e6c0 f   libucrt:close.obj
 0001:0001d760       ?__acrt_stdio_free_stream@@YAXV__crt_stdio_stream@@@Z 1001e760 f   libucrt:stream.obj
 0001:0001d7a0       ___ascii_strnicmp          1001e7a0 f   libucrt:_strnicm.obj
 0001:0001d820       ___dcrt_lowio_ensure_console_output_initialized 1001e820 f   libucrt:initcon.obj
 0001:0001d83f       ___dcrt_terminate_console_output 1001e83f f   libucrt:initcon.obj
 0001:0001d856       ___dcrt_write_console      1001e856 f   libucrt:initcon.obj
 0001:0001d8ab       ___set_fpsr_sse2           1001e8ab f   libucrt:fpctrl.obj
 0001:0001d92b       __clrfp                    1001e92b f   libucrt:fpctrl.obj
 0001:0001d93c       __ctrlfp                   1001e93c f   libucrt:fpctrl.obj
 0001:0001d966       __set_statfp               1001e966 f   libucrt:fpctrl.obj
 0001:0001d9bf       __statfp                   1001e9bf f   libucrt:fpctrl.obj
 0001:0001d9cf       __d_inttype                1001e9cf f   libucrt:powhlp.obj
 0001:0001da37       __powhlp                   1001ea37 f   libucrt:powhlp.obj
 0001:0001db62       __87except                 1001eb62 f   libucrt:87except.obj
 0001:0001dc6c       __frnd                     1001ec6c f   libucrt:frnd.obj
 0001:0001dc80       __errcode                  1001ec80 f   libucrt:fpexcept.obj
 0001:0001dcb4       __except1                  1001ecb4 f   libucrt:fpexcept.obj
 0001:0001dd82       __handle_exc               1001ed82 f   libucrt:fpexcept.obj
 0001:0001dffb       __raise_exc                1001effb f   libucrt:fpexcept.obj
 0001:0001e01e       __raise_exc_ex             1001f01e f   libucrt:fpexcept.obj
 0001:0001e314       __set_errno_from_matherr   1001f314 f   libucrt:fpexcept.obj
 0001:0001e343       __umatherr                 1001f343 f   libucrt:fpexcept.obj
 0001:0001e3e3       __decomp                   1001f3e3 f   libucrt:util.obj
 0001:0001e4b5       __set_exp                  1001f4b5 f   libucrt:util.obj
 0001:0001e4e2       __sptype                   1001f4e2 f   libucrt:util.obj
 0001:0001e540       __fpclass                  1001f540 f   libucrt:ieeemisc.obj
 0001:0001e5f0       __FindPESection            1001f5f0 f   LIBCMT:pesect.obj
 0001:0001e640       __IsNonwritableInCurrentImage 1001f640 f   LIBCMT:pesect.obj
 0001:0001e700       __ValidateImageBase        1001f700 f   LIBCMT:pesect.obj
 0001:0001e731       __EH_epilog3               1001f731 f   LIBCMT:ehprolg3.obj
 0001:0001e745       __EH_prolog3               1001f745 f   LIBCMT:ehprolg3.obj
 0001:0001e778       __EH_prolog3_catch         1001f778 f   LIBCMT:ehprolg3.obj
 0001:0001e7b0       __aulldvrm                 1001f7b0 f   LIBCMT:ulldvrm.obj
 0001:0001e850       __allmul                   1001f850 f   LIBCMT:llmul.obj
 0001:0001e890       __alldvrm                  1001f890 f   LIBCMT:lldvrm.obj
 0001:0001e970       __allshl                   1001f970 f   LIBCMT:llshl.obj
 0001:0001e990       __aullshr                  1001f990 f   LIBCMT:ullshr.obj
 0001:0001e9b0       __ftol2_sse                1001f9b0 f   LIBCMT:ftol2.obj
 0001:0001e9c0       __ftoi2                    1001f9c0 f   LIBCMT:ftol2.obj
 0001:0001ea40       _strrchr                   1001fa40 f   libvcruntime:strrchr.obj
 0001:0001eb80       __filter_x86_sse2_floating_point_exception 1001fb80 f   LIBCMT:x86_exception_filter.obj
 0001:0001eb80       __filter_x86_sse2_floating_point_exception_default 1001fb80 f   LIBCMT:x86_exception_filter.obj
 0002:00000000       __imp__RegQueryValueExW@24 10020000     advapi32:ADVAPI32.dll
 0002:00000004       __imp__RegSetValueExW@24   10020004     advapi32:ADVAPI32.dll
 0002:00000008       __imp__RegQueryInfoKeyW@48 10020008     advapi32:ADVAPI32.dll
 0002:0000000c       __imp__RegOpenKeyExW@20    1002000c     advapi32:ADVAPI32.dll
 0002:00000010       __imp__RegEnumKeyExW@32    10020010     advapi32:ADVAPI32.dll
 0002:00000014       __imp__RegDeleteValueW@8   10020014     advapi32:ADVAPI32.dll
 0002:00000018       __imp__RegDeleteKeyW@8     10020018     advapi32:ADVAPI32.dll
 0002:0000001c       __imp__RegCreateKeyExW@36  1002001c     advapi32:ADVAPI32.dll
 0002:00000020       __imp__RegCloseKey@4       10020020     advapi32:ADVAPI32.dll
 0002:00000024       \177ADVAPI32_NULL_THUNK_DATA 10020024     advapi32:ADVAPI32.dll
 0002:00000028       __imp__GetObjectW@12       10020028     gdi32:GDI32.dll
 0002:0000002c       __imp__SelectObject@8      1002002c     gdi32:GDI32.dll
 0002:00000030       __imp__DeleteObject@4      10020030     gdi32:GDI32.dll
 0002:00000034       __imp__CreateCompatibleDC@4 10020034     gdi32:GDI32.dll
 0002:00000038       __imp__BitBlt@36           10020038     gdi32:GDI32.dll
 0002:0000003c       __imp__SetWindowOrgEx@16   1002003c     gdi32:GDI32.dll
 0002:00000040       __imp__SetWindowExtEx@16   10020040     gdi32:GDI32.dll
 0002:00000044       __imp__SetViewportOrgEx@16 10020044     gdi32:GDI32.dll
 0002:00000048       __imp__LPtoDP@12           10020048     gdi32:GDI32.dll
 0002:0000004c       __imp__SetMapMode@8        1002004c     gdi32:GDI32.dll
 0002:00000050       __imp__SaveDC@4            10020050     gdi32:GDI32.dll
 0002:00000054       __imp__RestoreDC@8         10020054     gdi32:GDI32.dll
 0002:00000058       __imp__GetDeviceCaps@8     10020058     gdi32:GDI32.dll
 0002:0000005c       __imp__DeleteMetaFile@4    1002005c     gdi32:GDI32.dll
 0002:00000060       __imp__DeleteDC@4          10020060     gdi32:GDI32.dll
 0002:00000064       __imp__CreateRectRgnIndirect@4 10020064     gdi32:GDI32.dll
 0002:00000068       __imp__CreateMetaFileW@4   10020068     gdi32:GDI32.dll
 0002:0000006c       __imp__CreateDCW@16        1002006c     gdi32:GDI32.dll
 0002:00000070       __imp__CloseMetaFile@4     10020070     gdi32:GDI32.dll
 0002:00000074       \177GDI32_NULL_THUNK_DATA  10020074     gdi32:GDI32.dll
 0002:00000078       __imp__CloseHandle@4       10020078     kernel32:KERNEL32.dll
 0002:0000007c       __imp__SetEvent@4          1002007c     kernel32:KERNEL32.dll
 0002:00000080       __imp__CreateMutexW@12     10020080     kernel32:KERNEL32.dll
 0002:00000084       __imp__CreateEventW@16     10020084     kernel32:KERNEL32.dll
 0002:00000088       __imp__GetCurrentProcessId@0 10020088     kernel32:KERNEL32.dll
 0002:0000008c       __imp__CreateFileW@28      1002008c     kernel32:KERNEL32.dll
 0002:00000090       __imp__GetConsoleMode@8    10020090     kernel32:KERNEL32.dll
 0002:00000094       __imp__GetConsoleOutputCP@0 10020094     kernel32:KERNEL32.dll
 0002:00000098       __imp__WriteFile@20        10020098     kernel32:KERNEL32.dll
 0002:0000009c       __imp__FlushFileBuffers@4  1002009c     kernel32:KERNEL32.dll
 0002:000000a0       __imp__SetStdHandle@8      100200a0     kernel32:KERNEL32.dll
 0002:000000a4       __imp__SetFilePointerEx@20 100200a4     kernel32:KERNEL32.dll
 0002:000000a8       __imp__GetStringTypeW@16   100200a8     kernel32:KERNEL32.dll
 0002:000000ac       __imp__FreeEnvironmentStringsW@4 100200ac     kernel32:KERNEL32.dll
 0002:000000b0       __imp__GetEnvironmentStringsW@0 100200b0     kernel32:KERNEL32.dll
 0002:000000b4       __imp__lstrcmpiW@8         100200b4     kernel32:KERNEL32.dll
 0002:000000b8       __imp__GetCommandLineA@0   100200b8     kernel32:KERNEL32.dll
 0002:000000bc       __imp__GetCPInfo@8         100200bc     kernel32:KERNEL32.dll
 0002:000000c0       __imp__GetOEMCP@0          100200c0     kernel32:KERNEL32.dll
 0002:000000c4       __imp__GetACP@0            100200c4     kernel32:KERNEL32.dll
 0002:000000c8       __imp__IsValidCodePage@4   100200c8     kernel32:KERNEL32.dll
 0002:000000cc       __imp__FindNextFileW@8     100200cc     kernel32:KERNEL32.dll
 0002:000000d0       __imp__FindFirstFileExW@24 100200d0     kernel32:KERNEL32.dll
 0002:000000d4       __imp__FindClose@4         100200d4     kernel32:KERNEL32.dll
 0002:000000d8       __imp__GetFileType@4       100200d8     kernel32:KERNEL32.dll
 0002:000000dc       __imp__GetStdHandle@4      100200dc     kernel32:KERNEL32.dll
 0002:000000e0       __imp__LCMapStringW@24     100200e0     kernel32:KERNEL32.dll
 0002:000000e4       __imp__HeapReAlloc@16      100200e4     kernel32:KERNEL32.dll
 0002:000000e8       __imp__HeapSize@12         100200e8     kernel32:KERNEL32.dll
 0002:000000ec       __imp__MulDiv@12           100200ec     kernel32:KERNEL32.dll
 0002:000000f0       __imp__GlobalLock@4        100200f0     kernel32:KERNEL32.dll
 0002:000000f4       __imp__GlobalUnlock@4      100200f4     kernel32:KERNEL32.dll
 0002:000000f8       __imp__GlobalAlloc@8       100200f8     kernel32:KERNEL32.dll
 0002:000000fc       __imp__FindResourceW@12    100200fc     kernel32:KERNEL32.dll
 0002:00000100       __imp__SizeofResource@8    10020100     kernel32:KERNEL32.dll
 0002:00000104       __imp__LoadResource@8      10020104     kernel32:KERNEL32.dll
 0002:00000108       __imp__LoadLibraryExW@12   10020108     kernel32:KERNEL32.dll
 0002:0000010c       __imp__GetProcAddress@8    1002010c     kernel32:KERNEL32.dll
 0002:00000110       __imp__GetModuleHandleW@4  10020110     kernel32:KERNEL32.dll
 0002:00000114       __imp__GetModuleFileNameW@12 10020114     kernel32:KERNEL32.dll
 0002:00000118       __imp__FreeLibrary@4       10020118     kernel32:KERNEL32.dll
 0002:0000011c       __imp__DisableThreadLibraryCalls@4 1002011c     kernel32:KERNEL32.dll
 0002:00000120       __imp__GetCurrentThreadId@0 10020120     kernel32:KERNEL32.dll
 0002:00000124       __imp__Sleep@4             10020124     kernel32:KERNEL32.dll
 0002:00000128       __imp__WaitForSingleObject@8 10020128     kernel32:KERNEL32.dll
 0002:0000012c       __imp__ReleaseMutex@4      1002012c     kernel32:KERNEL32.dll
 0002:00000130       __imp__ResetEvent@4        10020130     kernel32:KERNEL32.dll
 0002:00000134       __imp__EnterCriticalSection@4 10020134     kernel32:KERNEL32.dll
 0002:00000138       __imp__LeaveCriticalSection@4 10020138     kernel32:KERNEL32.dll
 0002:0000013c       __imp__SetLastError@4      1002013c     kernel32:KERNEL32.dll
 0002:00000140       __imp__EncodePointer@4     10020140     kernel32:KERNEL32.dll
 0002:00000144       __imp__DeleteCriticalSection@4 10020144     kernel32:KERNEL32.dll
 0002:00000148       __imp__InitializeCriticalSectionEx@12 10020148     kernel32:KERNEL32.dll
 0002:0000014c       __imp__GetLastError@0      1002014c     kernel32:KERNEL32.dll
 0002:00000150       __imp__RaiseException@16   10020150     kernel32:KERNEL32.dll
 0002:00000154       __imp__DecodePointer@4     10020154     kernel32:KERNEL32.dll
 0002:00000158       __imp__WideCharToMultiByte@32 10020158     kernel32:KERNEL32.dll
 0002:0000015c       __imp__GetCommandLineW@0   1002015c     kernel32:KERNEL32.dll
 0002:00000160       __imp__MultiByteToWideChar@24 10020160     kernel32:KERNEL32.dll
 0002:00000164       __imp__WriteConsoleW@20    10020164     kernel32:KERNEL32.dll
 0002:00000168       __imp__GetModuleHandleExW@12 10020168     kernel32:KERNEL32.dll
 0002:0000016c       __imp__ExitProcess@4       1002016c     kernel32:KERNEL32.dll
 0002:00000170       __imp__VirtualQuery@12     10020170     kernel32:KERNEL32.dll
 0002:00000174       __imp__VirtualProtect@16   10020174     kernel32:KERNEL32.dll
 0002:00000178       __imp__GetSystemInfo@4     10020178     kernel32:KERNEL32.dll
 0002:0000017c       __imp__TlsFree@4           1002017c     kernel32:KERNEL32.dll
 0002:00000180       __imp__TlsSetValue@8       10020180     kernel32:KERNEL32.dll
 0002:00000184       __imp__TlsGetValue@4       10020184     kernel32:KERNEL32.dll
 0002:00000188       __imp__TlsAlloc@0          10020188     kernel32:KERNEL32.dll
 0002:0000018c       __imp__InterlockedFlushSList@4 1002018c     kernel32:KERNEL32.dll
 0002:00000190       __imp__RtlUnwind@16        10020190     kernel32:KERNEL32.dll
 0002:00000194       __imp__LoadLibraryExA@12   10020194     kernel32:KERNEL32.dll
 0002:00000198       __imp__VirtualFree@12      10020198     kernel32:KERNEL32.dll
 0002:0000019c       __imp__VirtualAlloc@16     1002019c     kernel32:KERNEL32.dll
 0002:000001a0       __imp__FlushInstructionCache@12 100201a0     kernel32:KERNEL32.dll
 0002:000001a4       __imp__InterlockedPushEntrySList@8 100201a4     kernel32:KERNEL32.dll
 0002:000001a8       __imp__InterlockedPopEntrySList@4 100201a8     kernel32:KERNEL32.dll
 0002:000001ac       __imp__GetProcessHeap@0    100201ac     kernel32:KERNEL32.dll
 0002:000001b0       __imp__HeapFree@12         100201b0     kernel32:KERNEL32.dll
 0002:000001b4       __imp__HeapAlloc@12        100201b4     kernel32:KERNEL32.dll
 0002:000001b8       __imp__OutputDebugStringW@4 100201b8     kernel32:KERNEL32.dll
 0002:000001bc       __imp__InitializeSListHead@4 100201bc     kernel32:KERNEL32.dll
 0002:000001c0       __imp__GetSystemTimeAsFileTime@4 100201c0     kernel32:KERNEL32.dll
 0002:000001c4       __imp__QueryPerformanceCounter@4 100201c4     kernel32:KERNEL32.dll
 0002:000001c8       __imp__GetStartupInfoW@4   100201c8     kernel32:KERNEL32.dll
 0002:000001cc       __imp__IsDebuggerPresent@0 100201cc     kernel32:KERNEL32.dll
 0002:000001d0       __imp__IsProcessorFeaturePresent@4 100201d0     kernel32:KERNEL32.dll
 0002:000001d4       __imp__TerminateProcess@8  100201d4     kernel32:KERNEL32.dll
 0002:000001d8       __imp__GetCurrentProcess@0 100201d8     kernel32:KERNEL32.dll
 0002:000001dc       __imp__SetUnhandledExceptionFilter@4 100201dc     kernel32:KERNEL32.dll
 0002:000001e0       __imp__UnhandledExceptionFilter@4 100201e0     kernel32:KERNEL32.dll
 0002:000001e4       __imp__InitializeCriticalSectionAndSpinCount@8 100201e4     kernel32:KERNEL32.dll
 0002:000001e8       __imp__WaitForSingleObjectEx@12 100201e8     kernel32:KERNEL32.dll
 0002:000001ec       \177KERNEL32_NULL_THUNK_DATA 100201ec     kernel32:KERNEL32.dll
 0002:000001f0       __imp__OleCreatePropertyFrame@44 100201f0     oleaut32:OLEAUT32.dll
 0002:000001f4       __imp__UnRegisterTypeLib@20 100201f4     oleaut32:OLEAUT32.dll
 0002:000001f8       __imp__RegisterTypeLib@12  100201f8     oleaut32:OLEAUT32.dll
 0002:000001fc       __imp__LoadRegTypeLib@20   100201fc     oleaut32:OLEAUT32.dll
 0002:00000200       __imp__LoadTypeLib@8       10020200     oleaut32:OLEAUT32.dll
 0002:00000204       __imp__VarUI4FromStr@16    10020204     oleaut32:OLEAUT32.dll
 0002:00000208       __imp__VariantInit@4       10020208     oleaut32:OLEAUT32.dll
 0002:0000020c       __imp__SysAllocStringByteLen@8 1002020c     oleaut32:OLEAUT32.dll
 0002:00000210       __imp__SysStringByteLen@4  10020210     oleaut32:OLEAUT32.dll
 0002:00000214       __imp__VariantChangeType@16 10020214     oleaut32:OLEAUT32.dll
 0002:00000218       __imp__VariantClear@4      10020218     oleaut32:OLEAUT32.dll
 0002:0000021c       __imp__SysStringLen@4      1002021c     oleaut32:OLEAUT32.dll
 0002:00000220       __imp__SysFreeString@4     10020220     oleaut32:OLEAUT32.dll
 0002:00000224       __imp__SysAllocStringLen@8 10020224     oleaut32:OLEAUT32.dll
 0002:00000228       __imp__SysAllocString@4    10020228     oleaut32:OLEAUT32.dll
 0002:0000022c       \177OLEAUT32_NULL_THUNK_DATA 1002022c     oleaut32:OLEAUT32.dll
 0002:00000230       __imp__UnregisterClassW@8  10020230     user32:USER32.dll
 0002:00000234       __imp__PostMessageW@16     10020234     user32:USER32.dll
 0002:00000238       __imp__DefWindowProcW@16   10020238     user32:USER32.dll
 0002:0000023c       __imp__CallWindowProcW@20  1002023c     user32:USER32.dll
 0002:00000240       __imp__RegisterClassExW@4  10020240     user32:USER32.dll
 0002:00000244       __imp__GetClassInfoExW@12  10020244     user32:USER32.dll
 0002:00000248       __imp__CreateWindowExW@48  10020248     user32:USER32.dll
 0002:0000024c       __imp__IsWindow@4          1002024c     user32:USER32.dll
 0002:00000250       __imp__IsChild@8           10020250     user32:USER32.dll
 0002:00000254       __imp__DestroyWindow@4     10020254     user32:USER32.dll
 0002:00000258       __imp__ShowWindow@8        10020258     user32:USER32.dll
 0002:0000025c       __imp__SetWindowPos@28     1002025c     user32:USER32.dll
 0002:00000260       __imp__CharNextW@4         10020260     user32:USER32.dll
 0002:00000264       __imp__SetFocus@4          10020264     user32:USER32.dll
 0002:00000268       __imp__LoadBitmapW@8       10020268     user32:USER32.dll
 0002:0000026c       __imp__RegisterClassW@4    1002026c     user32:USER32.dll
 0002:00000270       __imp__PeekMessageW@20     10020270     user32:USER32.dll
 0002:00000274       __imp__LoadCursorW@8       10020274     user32:USER32.dll
 0002:00000278       __imp__GetParent@4         10020278     user32:USER32.dll
 0002:0000027c       __imp__SetWindowLongW@12   1002027c     user32:USER32.dll
 0002:00000280       __imp__GetWindowLongW@8    10020280     user32:USER32.dll
 0002:00000284       __imp__PtInRect@12         10020284     user32:USER32.dll
 0002:00000288       __imp__EqualRect@8         10020288     user32:USER32.dll
 0002:0000028c       __imp__OffsetRect@12       1002028c     user32:USER32.dll
 0002:00000290       __imp__UnionRect@12        10020290     user32:USER32.dll
 0002:00000294       __imp__IntersectRect@12    10020294     user32:USER32.dll
 0002:00000298       __imp__GetClientRect@8     10020298     user32:USER32.dll
 0002:0000029c       __imp__InvalidateRect@12   1002029c     user32:USER32.dll
 0002:000002a0       __imp__SetWindowRgn@12     100202a0     user32:USER32.dll
 0002:000002a4       __imp__EndPaint@8          100202a4     user32:USER32.dll
 0002:000002a8       __imp__BeginPaint@8        100202a8     user32:USER32.dll
 0002:000002ac       __imp__ReleaseDC@8         100202ac     user32:USER32.dll
 0002:000002b0       __imp__GetDC@4             100202b0     user32:USER32.dll
 0002:000002b4       __imp__GetKeyState@4       100202b4     user32:USER32.dll
 0002:000002b8       __imp__GetFocus@0          100202b8     user32:USER32.dll
 0002:000002bc       \177USER32_NULL_THUNK_DATA 100202bc     user32:USER32.dll
 0002:000002c0       __imp__StringFromGUID2@12  100202c0     ole32:ole32.dll
 0002:000002c4       __imp__CoTaskMemAlloc@4    100202c4     ole32:ole32.dll
 0002:000002c8       __imp__CoTaskMemRealloc@8  100202c8     ole32:ole32.dll
 0002:000002cc       __imp__CoTaskMemFree@4     100202cc     ole32:ole32.dll
 0002:000002d0       __imp__ReadClassStm@8      100202d0     ole32:ole32.dll
 0002:000002d4       __imp__WriteClassStm@8     100202d4     ole32:ole32.dll
 0002:000002d8       __imp__CreateDataAdviseHolder@4 100202d8     ole32:ole32.dll
 0002:000002dc       __imp__OleSaveToStream@8   100202dc     ole32:ole32.dll
 0002:000002e0       __imp__CreateOleAdviseHolder@4 100202e0     ole32:ole32.dll
 0002:000002e4       __imp__OleRegGetUserType@12 100202e4     ole32:ole32.dll
 0002:000002e8       __imp__OleRegGetMiscStatus@12 100202e8     ole32:ole32.dll
 0002:000002ec       __imp__OleRegEnumVerbs@8   100202ec     ole32:ole32.dll
 0002:000002f0       __imp__CLSIDFromProgID@8   100202f0     ole32:ole32.dll
 0002:000002f4       __imp__CoCreateInstance@20 100202f4     ole32:ole32.dll
 0002:000002f8       \177ole32_NULL_THUNK_DATA  100202f8     ole32:ole32.dll
 0002:000002fc       ___guard_check_icall_fptr  100202fc     LIBCMT:guard_support.obj
 0002:00000300       ___castguard_check_failure_os_handled_fptr 10020300     LIBCMT:guard_support.obj
 0002:00000304       ___xc_a                    10020304     LIBCMT:initializers.obj
 0002:0000031c       ___xc_z                    1002031c     LIBCMT:initializers.obj
 0002:00000320       ___xi_a                    10020320     LIBCMT:initializers.obj
 0002:00000328       ___acrt_stdio_initializer  10020328     libucrt:stdio_initializer.obj
 0002:0000032c       ___acrt_multibyte_initializer 1002032c     libucrt:multibyte_initializer.obj
 0002:00000330       ___acrt_tran_sse2_initializer 10020330     libucrt:sse2_initializer.obj
 0002:00000334       ___xi_z                    10020334     LIBCMT:initializers.obj
 0002:00000338       ___xl_a                    10020338     LIBCMT:tlssup.obj
 0002:0000033c       ___xl_z                    1002033c     LIBCMT:tlssup.obj
 0002:00000340       ___xp_a                    10020340     LIBCMT:initializers.obj
 0002:00000344       ___acrt_locale_terminator  10020344     libucrt:locale_initializer.obj
 0002:00000348       ___dcrt_console_output_terminator 10020348     libucrt:console_output_initializer.obj
 0002:0000034c       ___acrt_stdio_terminator   1002034c     libucrt:stdio_initializer.obj
 0002:00000350       ___xp_z                    10020350     LIBCMT:initializers.obj
 0002:00000354       ___xt_a                    10020354     LIBCMT:initializers.obj
 0002:00000358       ___xt_z                    10020358     LIBCMT:initializers.obj
 0002:00000360       ??_C@_13HADIAKP@?$AAS@     10020360     OposVariant.obj
 0002:00000364       ??_C@_13LHMFKAAD@?$AAM@    10020364     OposVariant.obj
 0002:00000368       ??_C@_13MKMNOPIJ@?$AAD@    10020368     OposVariant.obj
 0002:0000036c       ??_C@_13OPKGLAFF@?$AAB@    1002036c     OposVariant.obj
 0002:00000370       ??_C@_17LLMMEOJD@?$AAV?$AAa?$AAl@ 10020370     OposVariant.obj
 0002:00000378       ??_C@_1BI@JFAIJMHL@?$AAF?$AAo?$AAr?$AAc?$AAe?$AAR?$AAe?$AAm?$AAo?$AAv?$AAe@ 10020378     OposVariant.obj
 0002:00000390       ??_C@_1BC@GCKHIPE@?$AAN?$AAo?$AAR?$AAe?$AAm?$AAo?$AAv?$AAe@ 10020390     OposVariant.obj
 0002:000003a4       ??_C@_1O@JDLOHAN@?$AAD?$AAe?$AAl?$AAe?$AAt?$AAe@ 100203a4     OposVariant.obj
 0002:000003b4       ??_C@_11LOCGONAA@@         100203b4     OposVariant.obj
 0002:000003b8       __GUID_00020412_0000_0000_c000_000000000046 100203b8     ToneIndicator.obj
 0002:000003c8       __GUID_00020401_0000_0000_c000_000000000046 100203c8     ToneIndicator.obj
 0002:000003d8       __GUID_55980ba0_35aa_11cf_b671_00aa004cd6d8 100203d8     ToneIndicator.obj
 0002:000003e8       ??_7?$CComObject@V?$CComEnum@UIEnumConnections@@$1?_GUID_b196b287_bab4_101a_b69c_00aa00341d07@@3U__s_GUID@@BUtagCONNECTDATA@@V?$_Copy@UtagCONNECTDATA@@@ATL@@VCComSingleThreadModel@6@@ATL@@@ATL@@6B@ 100203e8     ToneIndicator.obj
 0002:00000408       __GUID_b196b28b_bab4_101a_b69c_00aa00341d07 10020408     ToneIndicator.obj
 0002:00000418       ?_entries@?1??_GetEntries@?$CComEnum@UIEnumConnections@@$1?_GUID_b196b287_bab4_101a_b69c_00aa00341d07@@3U__s_GUID@@BUtagCONNECTDATA@@V?$_Copy@UtagCONNECTDATA@@@ATL@@VCComSingleThreadModel@6@@ATL@@SGPBU_ATL_INTMAP_ENTRY@3@XZ@4QBU43@B 10020418     ToneIndicator.obj
 0002:00000430       ??_7CComClassFactory@ATL@@6B@ 10020430     ToneIndicator.obj
 0002:00000448       ?_entries@?1??_GetEntries@CComClassFactory@ATL@@SGPBU_ATL_INTMAP_ENTRY@3@XZ@4QBU43@B 10020448     ToneIndicator.obj
 0002:00000460       __GUID_00000001_0000_0000_c000_000000000046 10020460     ToneIndicator.obj
 0002:00000470       _IID_IOPOSToneIndicator_1_5 10020470     ToneIndicator.obj
 0002:00000480       ??_C@_1BK@BIGILECK@?$AAA?$AAd?$AAv?$AAa?$AAp?$AAi?$AA3?$AA2?$AA?4?$AAd?$AAl?$AAl@ 10020480     ToneIndicator.obj
 0002:0000049c       ??_C@_0BI@MNCFCPFK@RegCreateKeyTransactedW@ 1002049c     ToneIndicator.obj
 0002:000004b4       _IID_IOPOSToneIndicator_1_8 100204b4     ToneIndicator.obj
 0002:000004c4       _IID_IOPOSToneIndicator_1_9 100204c4     ToneIndicator.obj
 0002:000004d4       _IID_IOPOSToneIndicator_1_9_zz 100204d4     ToneIndicator.obj
 0002:000004e4       _IID_IOPOSToneIndicator_1_13 100204e4     ToneIndicator.obj
 0002:000004f4       _IID_IOPOSToneIndicator    100204f4     ToneIndicator.obj
 0002:00000504       __GUID_b196b287_bab4_101a_b69c_00aa00341d07 10020504     ToneIndicator.obj
 0002:00000514       _LIBID_OposToneIndicator_CCO 10020514     ToneIndicator.obj
 0002:00000524       _DIID__IOPOSToneIndicatorEvents 10020524     ToneIndicator.obj
 0002:00000534       _CLSID_OPOSToneIndicator   10020534     ToneIndicator.obj
 0002:00000544       __GUID_b196b285_bab4_101a_b69c_00aa00341d07 10020544     ToneIndicator.obj
 0002:00000554       __GUID_00000114_0000_0000_c000_000000000046 10020554     ToneIndicator.obj
 0002:00000564       __GUID_a6bc3ac0_dbaa_11ce_9de3_00aa004bb851 10020564     ToneIndicator.obj
 0002:00000574       __GUID_0000010c_0000_0000_c000_000000000046 10020574     ToneIndicator.obj
 0002:00000584       __GUID_00000146_0000_0000_c000_000000000046 10020584     ToneIndicator.obj
 0002:00000594       ??_7CComModule@ATL@@6B@    10020594     ToneIndicator.obj
 0002:000005bc       __GUID_00000000_0000_0000_c000_000000000046 100205bc     ToneIndicator.obj
 0002:000005cc       __GUID_00020400_0000_0000_c000_000000000046 100205cc     ToneIndicator.obj
 0002:000005e0       ?_entries@?1??_GetEntries@COPOSToneIndicator@@SGPBU_ATL_INTMAP_ENTRY@ATL@@XZ@4QBU34@B 100205e0     ToneIndicator.obj
 0002:00000730       __GUID_cf51ed10_62fe_11cf_bf86_00a0c9034836 10020730     ToneIndicator.obj
 0002:00000740       __GUID_0000010a_0000_0000_c000_000000000046 10020740     ToneIndicator.obj
 0002:00000750       __GUID_b196b283_bab4_101a_b69c_00aa00341d07 10020750     ToneIndicator.obj
 0002:00000760       __GUID_cb5bdc81_93c1_11cf_8f20_00805f2cd064 10020760     ToneIndicator.obj
 0002:00000770       ?pPropMap@?1??GetPropertyMap@COPOSToneIndicator@@SAPBUATL_PROPMAP_ENTRY@ATL@@XZ@4QBU34@B 10020770     ToneIndicator.obj
 0002:000007dc       ??_C@_17DGDADEHL@?$AA_?$AAc?$AAx@ 100207dc     ToneIndicator.obj
 0002:000007e4       ??_C@_17IOIMFDBO@?$AA_?$AAc?$AAy@ 100207e4     ToneIndicator.obj
 0002:000007ec       __GUID_922eada0_3424_11cf_b670_00aa004cd6d8 100207ec     ToneIndicator.obj
 0002:000007fc       __GUID_9c2cad80_3424_11cf_b670_00aa004cd6d8 100207fc     ToneIndicator.obj
 0002:0000080c       __GUID_00000119_0000_0000_c000_000000000046 1002080c     ToneIndicator.obj
 0002:0000081c       __GUID_b196b289_bab4_101a_b69c_00aa00341d07 1002081c     ToneIndicator.obj
 0002:0000082c       ??_7?$CComObjectCached@VCComClassFactory@ATL@@@ATL@@6B@ 1002082c     ToneIndicator.obj
 0002:00000844       ??_C@_1CE@PGFMOFKI@?$AAS?$AAt?$AAa?$AAt?$AAu?$AAs?$AAU?$AAp?$AAd?$AAa?$AAt?$AAe?$AAE?$AAv?$AAe@ 10020844     ToneIndicator.obj
 0002:00000868       __GUID_00000117_0000_0000_c000_000000000046 10020868     ToneIndicator.obj
 0002:00000878       ??_C@_1CI@HLBJDONE@?$AAO?$AAu?$AAt?$AAp?$AAu?$AAt?$AAC?$AAo?$AAm?$AAp?$AAl?$AAe?$AAt?$AAe?$AAE@ 10020878     ToneIndicator.obj
 0002:000008a0       ??_C@_1BG@LODEBHDD@?$AAE?$AAr?$AAr?$AAo?$AAr?$AAE?$AAv?$AAe?$AAn?$AAt@ 100208a0     ToneIndicator.obj
 0002:000008b8       ??_C@_1BM@CBGEBBBJ@?$AAD?$AAi?$AAr?$AAe?$AAc?$AAt?$AAI?$AAO?$AAE?$AAv?$AAe?$AAn?$AAt@ 100208b8     ToneIndicator.obj
 0002:000008d4       __GUID_b196b286_bab4_101a_b69c_00aa00341d07 100208d4     ToneIndicator.obj
 0002:000008e4       ??_C@_1BC@ENICKDH@?$AAC?$AAo?$AAn?$AAt?$AAe?$AAn?$AAt?$AAs@ 100208e4     ToneIndicator.obj
 0002:000008f8       ??_C@_1M@KANJNLFF@?$AAC?$AAL?$AAS?$AAI?$AAD@ 100208f8     ToneIndicator.obj
 0002:00000904       ??_C@_1M@EJNEECMJ@?$AAA?$AAp?$AAp?$AAI?$AAD@ 10020904     ToneIndicator.obj
 0002:00000910       ??_7?$CComObject@V?$CComEnum@UIEnumConnectionPoints@@$1?_GUID_b196b285_bab4_101a_b69c_00aa00341d07@@3U__s_GUID@@BPAUIConnectionPoint@@V?$_CopyInterface@UIConnectionPoint@@@ATL@@VCComSingleThreadModel@6@@ATL@@@ATL@@6B@ 10020910     ToneIndicator.obj
 0002:00000930       ?rgszNeverDelete@CRegParser@ATL@@1QBQB_WB 10020930     ToneIndicator.obj
 0002:00000960       ??_7CRegObject@ATL@@6B@    10020960     ToneIndicator.obj
 0002:00000978       __GUID_0000010e_0000_0000_c000_000000000046 10020978     ToneIndicator.obj
 0002:00000988       __GUID_b196b288_bab4_101a_b69c_00aa00341d07 10020988     ToneIndicator.obj
 0002:00000998       ??_C@_1CK@OEKPKBNA@?$AAC?$AAo?$AAm?$AAp?$AAo?$AAn?$AAe?$AAn?$AAt?$AA?5?$AAC?$AAa?$AAt?$AAe?$AAg@ 10020998     ToneIndicator.obj
 0002:000009c4       ??_C@_1BC@NKMMNMGL@?$AAF?$AAi?$AAl?$AAe?$AAT?$AAy?$AAp?$AAe@ 100209c4     ToneIndicator.obj
 0002:000009d8       ??_C@_1BE@EKPAFMCP@?$AAI?$AAn?$AAt?$AAe?$AAr?$AAf?$AAa?$AAc?$AAe@ 100209d8     ToneIndicator.obj
 0002:000009ec       ??_C@_1BC@MAICEHGI@?$AAH?$AAa?$AAr?$AAd?$AAw?$AAa?$AAr?$AAe@ 100209ec     ToneIndicator.obj
 0002:00000a00       ??_C@_19HLLLM@?$AAM?$AAi?$AAm?$AAe@ 10020a00     ToneIndicator.obj
 0002:00000a0c       ??_C@_17OMAOINJK@?$AAS?$AAA?$AAM@ 10020a0c     ToneIndicator.obj
 0002:00000a14       ??_C@_1BC@IBECJAAI@?$AAS?$AAE?$AAC?$AAU?$AAR?$AAI?$AAT?$AAY@ 10020a14     ToneIndicator.obj
 0002:00000a28       ??_C@_1O@GBFINDKL@?$AAS?$AAY?$AAS?$AAT?$AAE?$AAM@ 10020a28     ToneIndicator.obj
 0002:00000a38       ??_C@_1BC@EAHCMADO@?$AAS?$AAo?$AAf?$AAt?$AAw?$AAa?$AAr?$AAe@ 10020a38     ToneIndicator.obj
 0002:00000a4c       ??_C@_1BA@JIHHIEDE@?$AAT?$AAy?$AAp?$AAe?$AAL?$AAi?$AAb@ 10020a4c     ToneIndicator.obj
 0002:00000a60       ?map@?1??HKeyFromString@CRegParser@ATL@@KAPAUHKEY__@@PA_W@Z@4QBUkeymap@?1??123@KAPAU4@0@Z@B 10020a60     ToneIndicator.obj
 0002:00000ad0       ??_C@_19NCHLBIN@?$AAH?$AAK?$AAC?$AAR@ 10020ad0     ToneIndicator.obj
 0002:00000adc       ??_C@_19JAPAIJDE@?$AAH?$AAK?$AAC?$AAU@ 10020adc     ToneIndicator.obj
 0002:00000ae8       ??_C@_19PEALEEJB@?$AAH?$AAK?$AAL?$AAM@ 10020ae8     ToneIndicator.obj
 0002:00000af4       ??_C@_17PJOJPMPB@?$AAH?$AAK?$AAU@ 10020af4     ToneIndicator.obj
 0002:00000afc       ??_C@_19PNBHMJPL@?$AAH?$AAK?$AAP?$AAD@ 10020afc     ToneIndicator.obj
 0002:00000b08       ??_C@_19GFFAIJHG@?$AAH?$AAK?$AAD?$AAD@ 10020b08     ToneIndicator.obj
 0002:00000b14       ??_C@_19OFICIBHH@?$AAH?$AAK?$AAC?$AAC@ 10020b14     ToneIndicator.obj
 0002:00000b20       ??_C@_1CE@PACHPJFI@?$AAH?$AAK?$AAE?$AAY?$AA_?$AAC?$AAL?$AAA?$AAS?$AAS?$AAE?$AAS?$AA_?$AAR?$AAO@ 10020b20     ToneIndicator.obj
 0002:00000b44       ??_C@_1CE@HLHNCBPM@?$AAH?$AAK?$AAE?$AAY?$AA_?$AAC?$AAU?$AAR?$AAR?$AAE?$AAN?$AAT?$AA_?$AAU?$AAS@ 10020b44     ToneIndicator.obj
 0002:00000b68       ??_C@_1CG@GFBEANJL@?$AAH?$AAK?$AAE?$AAY?$AA_?$AAL?$AAO?$AAC?$AAA?$AAL?$AA_?$AAM?$AAA?$AAC?$AAH@ 10020b68     ToneIndicator.obj
 0002:00000b90       ??_C@_1BG@BGODANIO@?$AAH?$AAK?$AAE?$AAY?$AA_?$AAU?$AAS?$AAE?$AAR?$AAS@ 10020b90     ToneIndicator.obj
 0002:00000ba8       ??_C@_1CM@KHNNAOIC@?$AAH?$AAK?$AAE?$AAY?$AA_?$AAP?$AAE?$AAR?$AAF?$AAO?$AAR?$AAM?$AAA?$AAN?$AAC@ 10020ba8     ToneIndicator.obj
 0002:00000bd4       ??_C@_1BM@HAGMMHIA@?$AAH?$AAK?$AAE?$AAY?$AA_?$AAD?$AAY?$AAN?$AA_?$AAD?$AAA?$AAT?$AAA@ 10020bd4     ToneIndicator.obj
 0002:00000bf0       ??_C@_1CI@BBJOACGG@?$AAH?$AAK?$AAE?$AAY?$AA_?$AAC?$AAU?$AAR?$AAR?$AAE?$AAN?$AAT?$AA_?$AAC?$AAO@ 10020bf0     ToneIndicator.obj
 0002:00000c18       __GUID_00000113_0000_0000_c000_000000000046 10020c18     ToneIndicator.obj
 0002:00000c28       __GUID_00000109_0000_0000_c000_000000000046 10020c28     ToneIndicator.obj
 0002:00000c38       __GUID_7fd52380_4e07_101b_ae2d_08002b2ec713 10020c38     ToneIndicator.obj
 0002:00000c48       __GUID_1c2056cc_5ef4_101b_8bc8_00aa003e3b29 10020c48     ToneIndicator.obj
 0002:00000c58       ??_C@_1EA@NHKLICFA@?$AAH?$AAK?$AAC?$AAU?$AA?$AN?$AA?6?$AA?$HL?$AA?7?$AAS?$AAo?$AAf?$AAt?$AAw?$AAa?$AAr@ 10020c58     ToneIndicator.obj
 0002:00000c98       ??_C@_1BE@LJOLIMEM@?$AA?$AN?$AA?6?$AA?7?$AA?$HN?$AA?$AN?$AA?6?$AA?$HN?$AA?$AN?$AA?6@ 10020c98     ToneIndicator.obj
 0002:00000cac       __GUID_00000112_0000_0000_c000_000000000046 10020cac     ToneIndicator.obj
 0002:00000cbc       ??_C@_1O@MNLDABAF@?$AAM?$AAo?$AAd?$AAu?$AAl?$AAe@ 10020cbc     ToneIndicator.obj
 0002:00000ccc       ??_C@_1BG@JBACFMF@?$AAM?$AAo?$AAd?$AAu?$AAl?$AAe?$AA_?$AAR?$AAa?$AAw@ 10020ccc     ToneIndicator.obj
 0002:00000ce4       ??_C@_1BC@KAILKFFG@?$AAR?$AAE?$AAG?$AAI?$AAS?$AAT?$AAR?$AAY@ 10020ce4     ToneIndicator.obj
 0002:00000cf8       __GUID_3af24292_0c96_11ce_a0cf_00aa00600ab8 10020cf8     ToneIndicator.obj
 0002:00000d08       __GUID_00000127_0000_0000_c000_000000000046 10020d08     ToneIndicator.obj
 0002:00000d18       __GUID_0000010d_0000_0000_c000_000000000046 10020d18     ToneIndicator.obj
 0002:00000d28       ??_C@_1M@PPPPCDEP@?$AAA?$AAP?$AAP?$AAI?$AAD@ 10020d28     ToneIndicator.obj
 0002:00000d34       ??_7?$CComContainedObject@VCOPOSToneIndicator@@@ATL@@6B?$IDispatchImpl@UIOPOSToneIndicator@@$1?IID_IOPOSToneIndicator@@3U_GUID@@B$1?LIBID_OposToneIndicator_CCO@@3U3@B$00$0A@VCComTypeInfoHolder@ATL@@@1@@ 10020d34     ToneIndicator.obj
 0002:00000e68       ??_7?$CComContainedObject@VCOPOSToneIndicator@@@ATL@@6BCComControlBase@1@@ 10020e68     ToneIndicator.obj
 0002:00000e7c       ??_7?$CComContainedObject@VCOPOSToneIndicator@@@ATL@@6B?$CWindowImpl@VCOPOSToneIndicator@@VCWindow@ATL@@V?$CWinTraits@$0FGAAAAAA@$0A@@3@@1@@ 10020e7c     ToneIndicator.obj
 0002:00000e8c       ??_7?$CComContainedObject@VCOPOSToneIndicator@@@ATL@@6B?$IPersistStreamInitImpl@VCOPOSToneIndicator@@@1@@ 10020e8c     ToneIndicator.obj
 0002:00000eb0       ??_7?$CComContainedObject@VCOPOSToneIndicator@@@ATL@@6B?$IOleControlImpl@VCOPOSToneIndicator@@@1@@ 10020eb0     ToneIndicator.obj
 0002:00000ecc       ??_7?$CComContainedObject@VCOPOSToneIndicator@@@ATL@@6B?$IOleObjectImpl@VCOPOSToneIndicator@@@1@@ 10020ecc     ToneIndicator.obj
 0002:00000f2c       ??_7?$CComContainedObject@VCOPOSToneIndicator@@@ATL@@6B?$IOleInPlaceActiveObjectImpl@VCOPOSToneIndicator@@@1@@ 10020f2c     ToneIndicator.obj
 0002:00000f54       ??_7?$CComContainedObject@VCOPOSToneIndicator@@@ATL@@6B?$IViewObjectExImpl@VCOPOSToneIndicator@@@1@@ 10020f54     ToneIndicator.obj
 0002:00000f90       ??_7?$CComContainedObject@VCOPOSToneIndicator@@@ATL@@6B?$IOleInPlaceObjectWindowlessImpl@VCOPOSToneIndicator@@@1@@ 10020f90     ToneIndicator.obj
 0002:00000fbc       ??_7?$CComContainedObject@VCOPOSToneIndicator@@@ATL@@6B?$IConnectionPointContainerImpl@VCOPOSToneIndicator@@@1@@ 10020fbc     ToneIndicator.obj
 0002:00000fd0       ??_7?$CComContainedObject@VCOPOSToneIndicator@@@ATL@@6B?$IPersistStorageImpl@VCOPOSToneIndicator@@@1@@ 10020fd0     ToneIndicator.obj
 0002:00000ff8       ??_7?$CComContainedObject@VCOPOSToneIndicator@@@ATL@@6B?$ISpecifyPropertyPagesImpl@VCOPOSToneIndicator@@@1@@ 10020ff8     ToneIndicator.obj
 0002:00001008       ??_7?$CComContainedObject@VCOPOSToneIndicator@@@ATL@@6B?$IQuickActivateImpl@VCOPOSToneIndicator@@@1@@ 10021008     ToneIndicator.obj
 0002:00001020       ??_7?$CComContainedObject@VCOPOSToneIndicator@@@ATL@@6B?$IDataObjectImpl@VCOPOSToneIndicator@@@1@@ 10021020     ToneIndicator.obj
 0002:00001050       ??_7?$CComContainedObject@VCOPOSToneIndicator@@@ATL@@6B?$IProvideClassInfo2Impl@$1?CLSID_OPOSToneIndicator@@3U_GUID@@B$1?DIID__IOPOSToneIndicatorEvents@@3U2@B$1?LIBID_OposToneIndicator_CCO@@3U2@B$00$0A@VCComTypeInfoHolder@ATL@@@1@@ 10021050     ToneIndicator.obj
 0002:00001064       ??_7?$CComContainedObject@VCOPOSToneIndicator@@@ATL@@6B?$IObjectSafetyImpl@VCOPOSToneIndicator@@$02@1@@ 10021064     ToneIndicator.obj
 0002:0000107c       ??_7?$CComContainedObject@VCOPOSToneIndicator@@@ATL@@6B?$IPropertyNotifySinkCP@VCOPOSToneIndicator@@VCComDynamicUnkArray@ATL@@@1@@ 1002107c     ToneIndicator.obj
 0002:0000109c       ??_7?$CComContainedObject@VCOPOSToneIndicator@@@ATL@@6B?$CProxy_IOPOSEvents@VCOPOSToneIndicator@@@@@ 1002109c     ToneIndicator.obj
 0002:000010bc       ??_7?$CComAggObject@VCOPOSToneIndicator@@@ATL@@6B@ 100210bc     ToneIndicator.obj
 0002:000010cc       ??_7?$CComObject@VCOPOSToneIndicator@@@ATL@@6B?$IDispatchImpl@UIOPOSToneIndicator@@$1?IID_IOPOSToneIndicator@@3U_GUID@@B$1?LIBID_OposToneIndicator_CCO@@3U3@B$00$0A@VCComTypeInfoHolder@ATL@@@1@@ 100210cc     ToneIndicator.obj
 0002:00001200       ??_7?$CComObject@VCOPOSToneIndicator@@@ATL@@6BCComControlBase@1@@ 10021200     ToneIndicator.obj
 0002:00001214       ??_7?$CComObject@VCOPOSToneIndicator@@@ATL@@6B?$CWindowImpl@VCOPOSToneIndicator@@VCWindow@ATL@@V?$CWinTraits@$0FGAAAAAA@$0A@@3@@1@@ 10021214     ToneIndicator.obj
 0002:00001224       ??_7?$CComObject@VCOPOSToneIndicator@@@ATL@@6B?$IPersistStreamInitImpl@VCOPOSToneIndicator@@@1@@ 10021224     ToneIndicator.obj
 0002:00001248       ??_7?$CComObject@VCOPOSToneIndicator@@@ATL@@6B?$IOleControlImpl@VCOPOSToneIndicator@@@1@@ 10021248     ToneIndicator.obj
 0002:00001264       ??_7?$CComObject@VCOPOSToneIndicator@@@ATL@@6B?$IOleObjectImpl@VCOPOSToneIndicator@@@1@@ 10021264     ToneIndicator.obj
 0002:000012c4       ??_7?$CComObject@VCOPOSToneIndicator@@@ATL@@6B?$IOleInPlaceActiveObjectImpl@VCOPOSToneIndicator@@@1@@ 100212c4     ToneIndicator.obj
 0002:000012ec       ??_7?$CComObject@VCOPOSToneIndicator@@@ATL@@6B?$IViewObjectExImpl@VCOPOSToneIndicator@@@1@@ 100212ec     ToneIndicator.obj
 0002:00001328       ??_7?$CComObject@VCOPOSToneIndicator@@@ATL@@6B?$IOleInPlaceObjectWindowlessImpl@VCOPOSToneIndicator@@@1@@ 10021328     ToneIndicator.obj
 0002:00001354       ??_7?$CComObject@VCOPOSToneIndicator@@@ATL@@6B?$IConnectionPointContainerImpl@VCOPOSToneIndicator@@@1@@ 10021354     ToneIndicator.obj
 0002:00001368       ??_7?$CComObject@VCOPOSToneIndicator@@@ATL@@6B?$IPersistStorageImpl@VCOPOSToneIndicator@@@1@@ 10021368     ToneIndicator.obj
 0002:00001390       ??_7?$CComObject@VCOPOSToneIndicator@@@ATL@@6B?$ISpecifyPropertyPagesImpl@VCOPOSToneIndicator@@@1@@ 10021390     ToneIndicator.obj
 0002:000013a0       ??_7?$CComObject@VCOPOSToneIndicator@@@ATL@@6B?$IQuickActivateImpl@VCOPOSToneIndicator@@@1@@ 100213a0     ToneIndicator.obj
 0002:000013b8       ??_7?$CComObject@VCOPOSToneIndicator@@@ATL@@6B?$IDataObjectImpl@VCOPOSToneIndicator@@@1@@ 100213b8     ToneIndicator.obj
 0002:000013e8       ??_7?$CComObject@VCOPOSToneIndicator@@@ATL@@6B?$IProvideClassInfo2Impl@$1?CLSID_OPOSToneIndicator@@3U_GUID@@B$1?DIID__IOPOSToneIndicatorEvents@@3U2@B$1?LIBID_OposToneIndicator_CCO@@3U2@B$00$0A@VCComTypeInfoHolder@ATL@@@1@@ 100213e8     ToneIndicator.obj
 0002:000013fc       ??_7?$CComObject@VCOPOSToneIndicator@@@ATL@@6B?$IObjectSafetyImpl@VCOPOSToneIndicator@@$02@1@@ 100213fc     ToneIndicator.obj
 0002:00001414       ??_7?$CComObject@VCOPOSToneIndicator@@@ATL@@6B?$IPropertyNotifySinkCP@VCOPOSToneIndicator@@VCComDynamicUnkArray@ATL@@@1@@ 10021414     ToneIndicator.obj
 0002:00001434       ??_7?$CComObject@VCOPOSToneIndicator@@@ATL@@6B?$CProxy_IOPOSEvents@VCOPOSToneIndicator@@@@@ 10021434     ToneIndicator.obj
 0002:00001454       ??_C@_1O@GBFKGNEO@?$AAA?$AAT?$AAL?$AA?3?$AA?$CF?$AAp@ 10021454     ToneIndicator.obj
 0002:00001464       __GUID_b196b284_bab4_101a_b69c_00aa00341d07 10021464     ToneIndicator.obj
 0002:00001474       ??_C@_1BA@PICGEGJB@?$AAD?$AAI?$AAS?$AAP?$AAL?$AAA?$AAY@ 10021474     ToneIndicator.obj
 0002:00001484       __GUID_9bfbbc02_eff1_101a_84ed_00aa00341d07 10021484     ToneIndicator.obj
 0002:00001494       ?_entries@?1??_GetEntries@?$CComEnum@UIEnumConnectionPoints@@$1?_GUID_b196b285_bab4_101a_b69c_00aa00341d07@@3U__s_GUID@@BPAUIConnectionPoint@@V?$_CopyInterface@UIConnectionPoint@@@ATL@@VCComSingleThreadModel@6@@ATL@@SGPBU_ATL_INTMAP_ENTRY@3@XZ@4QBU43@B 10021494     ToneIndicator.obj
 0002:000014ac       ??_C@_0BG@EKFFMJIO@RegOpenKeyTransactedW@ 100214ac     ToneIndicator.obj
 0002:000014c4       ??_C@_0BI@HAKLOOGP@RegDeleteKeyTransactedW@ 100214c4     ToneIndicator.obj
 0002:000014dc       ??_C@_0BA@LILAPHGE@RegDeleteKeyExW@ 100214dc     ToneIndicator.obj
 0002:000014ec       ??_C@_19ILOCMLCJ@?$AA?4?$AAt?$AAl?$AAb@ 100214ec     ToneIndicator.obj
 0002:000014f8       __GUID_0002e012_0000_0000_c000_000000000046 100214f8     ToneIndicator.obj
 0002:00001508       ??_C@_1O@FHBGLCIO@?$AAC?$AAL?$AAS?$AAI?$AAD?$AA?2@ 10021508     ToneIndicator.obj
 0002:00001518       ??_C@_1CK@IFBKBFAA@?$AA?2?$AAR?$AAe?$AAq?$AAu?$AAi?$AAr?$AAe?$AAd?$AA?5?$AAC?$AAa?$AAt?$AAe?$AAg@ 10021518     ToneIndicator.obj
 0002:00001544       ??_C@_1DA@BIHALFED@?$AA?2?$AAI?$AAm?$AAp?$AAl?$AAe?$AAm?$AAe?$AAn?$AAt?$AAe?$AAd?$AA?5?$AAC?$AAa@ 10021544     ToneIndicator.obj
 0002:00001574       ??_C@_1BK@EDKOLFBJ@?$AAO?$AAL?$AAE?$AAA?$AAU?$AAT?$AA3?$AA2?$AA?4?$AAD?$AAL?$AAL@ 10021574     ToneIndicator.obj
 0002:00001590       ??_C@_0BJ@CNLFOMHB@UnRegisterTypeLibForUser@ 10021590     ToneIndicator.obj
 0002:000015ac       ??_C@_0BH@LBOMMKPJ@RegisterTypeLibForUser@ 100215ac     ToneIndicator.obj
 0002:000015c4       ??_C@_0P@MMNMMLGK@COFreezeEvents@ 100215c4     ToneIndicatorImpl.obj
 0002:000015d4       ??_C@_0BC@OGCGGIMP@GetPropertyNumber@ 100215d4     ToneIndicatorImpl.obj
 0002:000015e8       ??_C@_0BC@MDCNODNB@SetPropertyNumber@ 100215e8     ToneIndicatorImpl.obj
 0002:000015fc       ??_C@_0BC@CFCCMIMD@GetPropertyString@ 100215fc     ToneIndicatorImpl.obj
 0002:00001610       ??_C@_0BC@CJEDNN@SetPropertyString@ 10021610     ToneIndicatorImpl.obj
 0002:00001624       ??_C@_0M@LNPKKKDA@OpenService@ 10021624     ToneIndicatorImpl.obj
 0002:00001630       ??_C@_0M@PCMCHHMH@CheckHealth@ 10021630     ToneIndicatorImpl.obj
 0002:0000163c       ??_C@_0M@JGMIDNEK@ClaimDevice@ 1002163c     ToneIndicatorImpl.obj
 0002:00001648       ??_C@_0M@JMBCPNGJ@ClearOutput@ 10021648     ToneIndicatorImpl.obj
 0002:00001654       ??_C@_0N@DDFIIBMP@CloseService@ 10021654     ToneIndicatorImpl.obj
 0002:00001664       ??_C@_08EEIHICPC@DirectIO@ 10021664     ToneIndicatorImpl.obj
 0002:00001670       ??_C@_0O@BCPMENMJ@ReleaseDevice@ 10021670     ToneIndicatorImpl.obj
 0002:00001680       ??_C@_05MAHMNMLO@Sound@    10021680     ToneIndicatorImpl.obj
 0002:00001688       ??_C@_0P@HJHINHHO@SoundImmediate@ 10021688     ToneIndicatorImpl.obj
 0002:00001698       ??_C@_0BA@GFABKEEE@ResetStatistics@ 10021698     ToneIndicatorImpl.obj
 0002:000016a8       ??_C@_0BD@DPALHJGC@RetrieveStatistics@ 100216a8     ToneIndicatorImpl.obj
 0002:000016bc       ??_C@_0BB@KOHIKNFC@UpdateStatistics@ 100216bc     ToneIndicatorImpl.obj
 0002:000016d0       ??_C@_0BH@PBKBNMGB@CompareFirmwareVersion@ 100216d0     ToneIndicatorImpl.obj
 0002:000016e8       ??_C@_0P@FBPDPIPA@UpdateFirmware@ 100216e8     ToneIndicatorImpl.obj
 0002:000016f8       ??_7?$CProxy_IOPOSEvents@VCOPOSToneIndicator@@@@6B@ 100216f8     ToneIndicatorImpl.obj
 0002:00001718       ??_C@_1BA@IFHENID@?$AA?$FL?$AAE?$AAr?$AAr?$AAo?$AAr?$AA?$FN@ 10021718     ToneIndicatorImpl.obj
 0002:00001728       ??_C@_0DA@PJOOGHOC@SOFTWARE?2OLEforRetail?2ServiceOP@ 10021728     ToneIndicatorImpl.obj
 0002:00001758       ??_C@_1M@IAIJHCCH@?$AAC?$AAl?$AAo?$AAs?$AAe@ 10021758     ToneIndicatorImpl.obj
 0002:00001764       ??_C@_1M@PCPKGJAH@?$AAC?$AAl?$AAa?$AAi?$AAm@ 10021764     ToneIndicatorImpl.obj
 0002:00001770       ??_C@_1BA@NDFKIOCP@?$AAR?$AAe?$AAl?$AAe?$AAa?$AAs?$AAe@ 10021770     ToneIndicatorImpl.obj
 0002:00001780       ??_C@_0O@PFOMBKDJ@ToneIndicator@ 10021780     ToneIndicatorImpl.obj
 0002:00001790       ??_C@_1BM@IJMNMBPK@?$AAG?$AAe?$AAt?$AAO?$AAp?$AAe?$AAn?$AAR?$AAe?$AAs?$AAu?$AAl?$AAt@ 10021790     ToneIndicatorImpl.obj
 0002:000017ac       _IID_IDispatch             100217ac     uuid:oaidl_i.obj
 0002:000017bc       _IID_IPropertyNotifySink   100217bc     uuid:ocidl_i.obj
 0002:000017cc       _GUID_NULL                 100217cc     uuid:cguid_i.obj
 0002:000017dc       _CLSID_StdGlobalInterfaceTable 100217dc     uuid:cguid_i.obj
 0002:000017ec       _CLSID_StdComponentCategoriesMgr 100217ec     uuid:ieguids.obj
 0002:000017fc       _IID_IUnknown              100217fc     uuid:unknwn_i.obj
 0002:00001810       ??_C@_1EC@JIJBPKFM@?$AAa?$AAp?$AAi?$AA?9?$AAm?$AAs?$AA?9?$AAw?$AAi?$AAn?$AA?9?$AAc?$AAo?$AAr?$AAe@ 10021810     LIBCMT:thread_safe_statics.obj
 0002:00001854       ??_C@_1BK@MGMFAEKH@?$AAk?$AAe?$AAr?$AAn?$AAe?$AAl?$AA3?$AA2?$AA?4?$AAd?$AAl?$AAl@ 10021854     LIBCMT:thread_safe_statics.obj
 0002:00001870       ??_C@_0BJ@JEBJOJFJ@SleepConditionVariableCS@ 10021870     LIBCMT:thread_safe_statics.obj
 0002:0000188c       ??_C@_0BJ@PGPPEPCC@WakeAllConditionVariable@ 1002188c     LIBCMT:thread_safe_statics.obj
 0002:000018a5       ?nothrow@std@@3Unothrow_t@1@B 100218a5     LIBCMT:std_nothrow.obj
 0002:000018b0       __pRawDllMain              100218b0     LIBCMT:dll_dllmain.obj
 0002:000018b0       __pDefaultRawDllMain       100218b0     LIBCMT:dll_dllmain.obj
 0002:000018b8       ??_7exception@std@@6B@     100218b8     LIBCMT:throw_bad_alloc.obj
 0002:000018c0       ??_C@_0BC@EOODALEL@Unknown?5exception@ 100218c0     LIBCMT:throw_bad_alloc.obj
 0002:000018d8       ??_7bad_alloc@std@@6B@     100218d8     LIBCMT:throw_bad_alloc.obj
 0002:000018e0       ??_C@_0P@GHFPNOJB@bad?5allocation@ 100218e0     LIBCMT:throw_bad_alloc.obj
 0002:000018f4       ??_7bad_array_new_length@std@@6B@ 100218f4     LIBCMT:throw_bad_alloc.obj
 0002:000018fc       ??_C@_0BF@KINCDENJ@bad?5array?5new?5length@ 100218fc     LIBCMT:throw_bad_alloc.obj
 0002:00001918       ??_7type_info@@6B@         10021918     LIBCMT:std_type_info_static.obj
 0002:0000191c       _GUID_ATLVer110            1002191c     atls:atlbase.obj
 0002:00001930       ??_C@_1IC@ONKHOIDK@?$AAE?$AAR?$AAR?$AAO?$AAR?$AA?5?$AA?3?$AA?5?$AAU?$AAn?$AAa?$AAb?$AAl?$AAe?$AA?5@ 10021930     atls:atlbase.obj
 0002:000019b4       ??_C@_0N@FJEPLCIH@atlthunk?4dll@ 100219b4     atls:atlthunk.obj
 0002:000019c4       ??_C@_0BG@GAKFHCBM@AtlThunk_AllocateData@ 100219c4     atls:atlthunk.obj
 0002:000019dc       ??_C@_0BC@JKONFIAH@AtlThunk_InitData@ 100219dc     atls:atlthunk.obj
 0002:000019f0       ??_C@_0BE@IAOEELAK@AtlThunk_DataToCode@ 100219f0     atls:atlthunk.obj
 0002:00001a04       ??_C@_0BC@GBGKAIPI@AtlThunk_FreeData@ 10021a04     atls:atlthunk.obj
 0002:00001a18       __pDestructExceptionObject 10021a18     libvcruntime:ehhelpers.obj
 0002:00001a20       ??_7bad_exception@std@@6B@ 10021a20     libvcruntime:frame.obj
 0002:00001a28       ??_C@_0O@DPKOEFFH@bad?5exception@ 10021a28     libvcruntime:frame.obj
 0002:00001dc0       ??_C@_08EHJDFFNH@__based?$CI@ 10021dc0     libvcruntime:undname.obj
 0002:00001dcc       ??_C@_07KOLFKCDI@__cdecl@  10021dcc     libvcruntime:undname.obj
 0002:00001dd4       ??_C@_08GHMPAG@__pascal@   10021dd4     libvcruntime:undname.obj
 0002:00001de0       ??_C@_09IFJBGAPI@__stdcall@ 10021de0     libvcruntime:undname.obj
 0002:00001dec       ??_C@_0L@NPHFGOKO@__thiscall@ 10021dec     libvcruntime:undname.obj
 0002:00001df8       ??_C@_0L@JMKHOMEK@__fastcall@ 10021df8     libvcruntime:undname.obj
 0002:00001e04       ??_C@_0N@BCKKPABJ@__vectorcall@ 10021e04     libvcruntime:undname.obj
 0002:00001e14       ??_C@_09HIJEGCPM@__clrcall@ 10021e14     libvcruntime:undname.obj
 0002:00001e20       ??_C@_06GHPCKEAG@__eabi@   10021e20     libvcruntime:undname.obj
 0002:00001e28       ??_C@_09IOPIDJLG@__swift_1@ 10021e28     libvcruntime:undname.obj
 0002:00001e34       ??_C@_09KFNFGKHF@__swift_2@ 10021e34     libvcruntime:undname.obj
 0002:00001e40       ??_C@_09LMMOFLDE@__swift_3@ 10021e40     libvcruntime:undname.obj
 0002:00001e4c       ??_C@_07JOMMBBKO@__ptr64@  10021e4c     libvcruntime:undname.obj
 0002:00001e54       ??_C@_0L@PILCLIHE@__restrict@ 10021e54     libvcruntime:undname.obj
 0002:00001e60       ??_C@_0M@GFIIJFMG@__unaligned@ 10021e60     libvcruntime:undname.obj
 0002:00001e6c       ??_C@_09DHDLOLLB@restrict?$CI@ 10021e6c     libvcruntime:undname.obj
 0002:00001e76       ??_C@_00CNPNBAHC@@         10021e76     libvcruntime:undname.obj
 0002:00001e78       ??_C@_04NIHEBCM@?5new@     10021e78     libvcruntime:undname.obj
 0002:00001e80       ??_C@_07FPCDHGMM@?5delete@ 10021e80     libvcruntime:undname.obj
 0002:00001e88       ??_C@_01NEMOKFLO@?$DN@     10021e88     libvcruntime:undname.obj
 0002:00001e8c       ??_C@_02GPIOPFAK@?$DO?$DO@ 10021e8c     libvcruntime:undname.obj
 0002:00001e90       ??_C@_02FODMEDOG@?$DM?$DM@ 10021e90     libvcruntime:undname.obj
 0002:00001e94       ??_C@_01DCLJPIOD@?$CB@     10021e94     libvcruntime:undname.obj
 0002:00001e98       ??_C@_02EGOFBIJA@?$DN?$DN@ 10021e98     libvcruntime:undname.obj
 0002:00001e9c       ??_C@_02FDNJECIE@?$CB?$DN@ 10021e9c     libvcruntime:undname.obj
 0002:00001ea0       ??_C@_02GPECMEKF@?$FL?$FN@ 10021ea0     libvcruntime:undname.obj
 0002:00001ea4       ??_C@_08LHJFAFGD@operator@ 10021ea4     libvcruntime:undname.obj
 0002:00001eb0       ??_C@_02HBOOOICD@?9?$DO@   10021eb0     libvcruntime:undname.obj
 0002:00001eb4       ??_C@_01NBENCBCI@?$CK@     10021eb4     libvcruntime:undname.obj
 0002:00001eb8       ??_C@_02ECNGHCIF@?$CL?$CL@ 10021eb8     libvcruntime:undname.obj
 0002:00001ebc       ??_C@_02BAABKJLB@?9?9@     10021ebc     libvcruntime:undname.obj
 0002:00001ec0       ??_C@_01JOAMLHOP@?9@       10021ec0     libvcruntime:undname.obj
 0002:00001ec4       ??_C@_01MIFGBAGJ@?$CL@     10021ec4     libvcruntime:undname.obj
 0002:00001ec8       ??_C@_01HNPIGOCE@?$CG@     10021ec8     libvcruntime:undname.obj
 0002:00001ecc       ??_C@_03MNHNFDLC@?9?$DO?$CK@ 10021ecc     libvcruntime:undname.obj
 0002:00001ed0       ??_C@_01KMDKNFGN@?1@       10021ed0     libvcruntime:undname.obj
 0002:00001ed4       ??_C@_01FGNFDNOH@?$CF@     10021ed4     libvcruntime:undname.obj
 0002:00001ed8       ??_C@_01MNNFJEPP@?$DM@     10021ed8     libvcruntime:undname.obj
 0002:00001edc       ??_C@_02EHCHHCKH@?$DM?$DN@ 10021edc     libvcruntime:undname.obj
 0002:00001ee0       ??_C@_01PPODPGHN@?$DO@     10021ee0     libvcruntime:undname.obj
 0002:00001ee4       ??_C@_02EEKDKGMJ@?$DO?$DN@ 10021ee4     libvcruntime:undname.obj
 0002:00001ee8       ??_C@_01IHBHIGKO@?0@       10021ee8     libvcruntime:undname.obj
 0002:00001eec       ??_C@_02HCKGKOFO@?$CI?$CJ@ 10021eec     libvcruntime:undname.obj
 0002:00001ef0       ??_C@_01PJKLJHI@?$HO@      10021ef0     libvcruntime:undname.obj
 0002:00001ef4       ??_C@_01JKBOJNNK@?$FO@     10021ef4     libvcruntime:undname.obj
 0002:00001ef8       ??_C@_01DNKMNLPK@?$HM@     10021ef8     libvcruntime:undname.obj
 0002:00001efc       ??_C@_02PPKAJPJL@?$CG?$CG@ 10021efc     libvcruntime:undname.obj
 0002:00001f00       ??_C@_02NONPIBCD@?$HM?$HM@ 10021f00     libvcruntime:undname.obj
 0002:00001f04       ??_C@_02FPIMKNGF@?$CK?$DN@ 10021f04     libvcruntime:undname.obj
 0002:00001f08       ??_C@_02FOEOMHFC@?$CL?$DN@ 10021f08     libvcruntime:undname.obj
 0002:00001f0c       ??_C@_02FKMDLLOA@?9?$DN@   10021f0c     libvcruntime:undname.obj
 0002:00001f10       ??_C@_02FJEHGPIO@?1?$DN@   10021f10     libvcruntime:undname.obj
 0002:00001f14       ??_C@_02FENAOKFI@?$CF?$DN@ 10021f14     libvcruntime:undname.obj
 0002:00001f18       ??_C@_03IKFCCPFF@?$DO?$DO?$DN@ 10021f18     libvcruntime:undname.obj
 0002:00001f1c       ??_C@_03CDNPDDLA@?$DM?$DM?$DN@ 10021f1c     libvcruntime:undname.obj
 0002:00001f20       ??_C@_02FGJGFEAB@?$CG?$DN@ 10021f20     libvcruntime:undname.obj
 0002:00001f24       ??_C@_02DHLNPPGH@?$HM?$DN@ 10021f24     libvcruntime:undname.obj
 0002:00001f28       ??_C@_02MHEGNOJ@?$FO?$DN@  10021f28     libvcruntime:undname.obj
 0002:00001f2c       ??_C@_09IFPLHPGF@?$GAvftable?8@ 10021f2c     libvcruntime:undname.obj
 0002:00001f38       ??_C@_09BLBHBJP@?$GAvbtable?8@ 10021f38     libvcruntime:undname.obj
 0002:00001f44       ??_C@_07FEEIOKP@?$GAvcall?8@ 10021f44     libvcruntime:undname.obj
 0002:00001f4c       ??_C@_08LLFFHHDJ@?$GAtypeof?8@ 10021f4c     libvcruntime:undname.obj
 0002:00001f58       ??_C@_0BF@KDPPACIK@?$GAlocal?5static?5guard?8@ 10021f58     libvcruntime:undname.obj
 0002:00001f70       ??_C@_08OBABFOLI@?$GAstring?8@ 10021f70     libvcruntime:undname.obj
 0002:00001f7c       ??_C@_0BD@JDLKDPAB@?$GAvbase?5destructor?8@ 10021f7c     libvcruntime:undname.obj
 0002:00001f90       ??_C@_0BN@DEGPLNFK@?$GAvector?5deleting?5destructor?8@ 10021f90     libvcruntime:undname.obj
 0002:00001fb0       ??_C@_0BO@OBMKPJIG@?$GAdefault?5constructor?5closure?8@ 10021fb0     libvcruntime:undname.obj
 0002:00001fd0       ??_C@_0BN@IMDCHIKM@?$GAscalar?5deleting?5destructor?8@ 10021fd0     libvcruntime:undname.obj
 0002:00001ff0       ??_C@_0BO@PFGOCPJJ@?$GAvector?5constructor?5iterator?8@ 10021ff0     libvcruntime:undname.obj
 0002:00002010       ??_C@_0BN@LFPFMEDL@?$GAvector?5destructor?5iterator?8@ 10022010     libvcruntime:undname.obj
 0002:00002030       ??_C@_0CE@IKBNEHA@?$GAvector?5vbase?5constructor?5itera@ 10022030     libvcruntime:undname.obj
 0002:00002054       ??_C@_0BL@NILFHHPC@?$GAvirtual?5displacement?5map?8@ 10022054     libvcruntime:undname.obj
 0002:00002070       ??_C@_0CB@JONCMFFK@?$GAeh?5vector?5constructor?5iterator@ 10022070     libvcruntime:undname.obj
 0002:00002094       ??_C@_0CA@GCEOPDGL@?$GAeh?5vector?5destructor?5iterator?8@ 10022094     libvcruntime:undname.obj
 0002:000020b4       ??_C@_0CH@OOJPLCPH@?$GAeh?5vector?5vbase?5constructor?5it@ 100220b4     libvcruntime:undname.obj
 0002:000020dc       ??_C@_0BL@LLKPOHJI@?$GAcopy?5constructor?5closure?8@ 100220dc     libvcruntime:undname.obj
 0002:000020f8       ??_C@_0BA@KBCDOMBN@?$GAudt?5returning?8@ 100220f8     libvcruntime:undname.obj
 0002:00002108       ??_C@_03KLGMFNMG@?$GAEH@   10022108     libvcruntime:undname.obj
 0002:0000210c       ??_C@_05KHLCHHI@?$GARTTI@  1002210c     libvcruntime:undname.obj
 0002:00002114       ??_C@_0BA@KKLDJDLB@?$GAlocal?5vftable?8@ 10022114     libvcruntime:undname.obj
 0002:00002124       ??_C@_0CE@IIHCMGGL@?$GAlocal?5vftable?5constructor?5clos@ 10022124     libvcruntime:undname.obj
 0002:00002148       ??_C@_06FHBGPFGH@?5new?$FL?$FN@ 10022148     libvcruntime:undname.obj
 0002:00002150       ??_C@_09LBNFPBCA@?5delete?$FL?$FN@ 10022150     libvcruntime:undname.obj
 0002:0000215c       ??_C@_0P@HJKNJFNN@?$GAomni?5callsig?8@ 1002215c     libvcruntime:undname.obj
 0002:0000216c       ??_C@_0BL@CNOONJFP@?$GAplacement?5delete?5closure?8@ 1002216c     libvcruntime:undname.obj
 0002:00002188       ??_C@_0BN@CKNJLHMB@?$GAplacement?5delete?$FL?$FN?5closure?8@ 10022188     libvcruntime:undname.obj
 0002:000021a8       ??_C@_0CG@CFDHKGGD@?$GAmanaged?5vector?5constructor?5ite@ 100221a8     libvcruntime:undname.obj
 0002:000021d0       ??_C@_0CF@IMGKMJNO@?$GAmanaged?5vector?5destructor?5iter@ 100221d0     libvcruntime:undname.obj
 0002:000021f8       ??_C@_0CG@HLDDJMAG@?$GAeh?5vector?5copy?5constructor?5ite@ 100221f8     libvcruntime:undname.obj
 0002:00002220       ??_C@_0CM@FCBBDIGB@?$GAeh?5vector?5vbase?5copy?5construct@ 10022220     libvcruntime:undname.obj
 0002:0000224c       ??_C@_0BL@CLIPGLGB@?$GAdynamic?5initializer?5for?5?8@ 1002224c     libvcruntime:undname.obj
 0002:00002268       ??_C@_0CB@PDBIFEP@?$GAdynamic?5atexit?5destructor?5for?5@ 10022268     libvcruntime:undname.obj
 0002:0000228c       ??_C@_0CD@CGAJBKEJ@?$GAvector?5copy?5constructor?5iterat@ 1002228c     libvcruntime:undname.obj
 0002:000022b0       ??_C@_0CJ@GJELGAMM@?$GAvector?5vbase?5copy?5constructor?5@ 100222b0     libvcruntime:undname.obj
 0002:000022dc       ??_C@_0CL@FGIJHLCE@?$GAmanaged?5vector?5copy?5constructo@ 100222dc     libvcruntime:undname.obj
 0002:00002308       ??_C@_0BM@PMGGMLDN@?$GAlocal?5static?5thread?5guard?8@ 10022308     libvcruntime:undname.obj
 0002:00002324       ??_C@_0N@BDNMDMOL@operator?5?$CC?$CC?5@ 10022324     libvcruntime:undname.obj
 0002:00002334       ??_C@_0BC@GGEBGALA@operator?5co_await@ 10022334     libvcruntime:undname.obj
 0002:00002348       ??_C@_0M@GAAIMMOH@operator?$DM?$DN?$DO@ 10022348     libvcruntime:undname.obj
 0002:00002354       ??_C@_0BC@DAFEJGAK@?5Type?5Descriptor?8@ 10022354     libvcruntime:undname.obj
 0002:00002368       ??_C@_0BM@LDKODKLH@?5Base?5Class?5Descriptor?5at?5?$CI@ 10022368     libvcruntime:undname.obj
 0002:00002384       ??_C@_0BD@LGICGFMM@?5Base?5Class?5Array?8@ 10022384     libvcruntime:undname.obj
 0002:00002398       ??_C@_0BN@MECKDCOJ@?5Class?5Hierarchy?5Descriptor?8@ 10022398     libvcruntime:undname.obj
 0002:000023b8       ??_C@_0BK@CFCOFLF@?5Complete?5Object?5Locator?8@ 100223b8     libvcruntime:undname.obj
 0002:000023d4       ??_C@_0BG@JNJLAMPM@?$GAanonymous?5namespace?8@ 100223d4     libvcruntime:undname.obj
 0002:000023f8       ??_C@_1DM@KHCHBNEB@?$AAa?$AAp?$AAi?$AA?9?$AAm?$AAs?$AA?9?$AAw?$AAi?$AAn?$AA?9?$AAc?$AAo?$AAr?$AAe@ 100223f8     libvcruntime:winapi_downlevel.obj
 0002:00002434       ??_C@_1DK@LPPGFMPP@?$AAa?$AAp?$AAi?$AA?9?$AAm?$AAs?$AA?9?$AAw?$AAi?$AAn?$AA?9?$AAc?$AAo?$AAr?$AAe@ 10022434     libvcruntime:winapi_downlevel.obj
 0002:00002470       ??_C@_1BC@GDMECMAK@?$AAk?$AAe?$AAr?$AAn?$AAe?$AAl?$AA3?$AA2@ 10022470     libvcruntime:winapi_downlevel.obj
 0002:00002484       ??_C@_1BA@PFFKHIOG@?$AAa?$AAp?$AAi?$AA?9?$AAm?$AAs?$AA?9@ 10022484     libvcruntime:winapi_downlevel.obj
 0002:0000249c       ??_C@_08KNHFBNJ@FlsAlloc@  1002249c     libvcruntime:winapi_downlevel.obj
 0002:000024b0       ??_C@_07PEJMOBNF@FlsFree@  100224b0     libvcruntime:winapi_downlevel.obj
 0002:000024c0       ??_C@_0M@GDNOONDI@FlsGetValue@ 100224c0     libvcruntime:winapi_downlevel.obj
 0002:000024d4       ??_C@_0M@JCPCPOEF@FlsSetValue@ 100224d4     libvcruntime:winapi_downlevel.obj
 0002:000024e8       ??_C@_0BM@HCFOFFN@InitializeCriticalSectionEx@ 100224e8     libvcruntime:winapi_downlevel.obj
 0002:00002670       ?format_validation_lookup_table_spectre@__crt_stdio_output@@3V?$spectre_mitigated_lookup_table@Ustate_transition_pair@__crt_stdio_output@@$0IA@@1@B 10022670     libucrt:output.obj
 0002:00002770       ??_C@_1O@CEDCILHN@?$AA?$CI?$AAn?$AAu?$AAl?$AAl?$AA?$CJ@ 10022770     libucrt:output.obj
 0002:00002780       ??_C@_06OJHGLDPL@?$CInull?$CJ@ 10022780     libucrt:output.obj
 0002:00002788       ___acrt_exception_action_table 10022788     libucrt:exception_filter.obj
 0002:00002818       ___acrt_signal_action_table_count 10022818     libucrt:exception_filter.obj
 0002:0000281c       ___acrt_signal_action_first_fpe_index 1002281c     libucrt:exception_filter.obj
 0002:00002820       ___acrt_signal_action_fpe_count 10022820     libucrt:exception_filter.obj
 0002:00002824       ??_C@_1BI@BGOHAHKC@?$AAm?$AAs?$AAc?$AAo?$AAr?$AAe?$AAe?$AA?4?$AAd?$AAl?$AAl@ 10022824     libucrt:exit.obj
 0002:0000283c       ??_C@_0P@MIGLKIOC@CorExitProcess@ 1002283c     libucrt:exit.obj
 0002:000028d0       ___lc_time_c               100228d0     libucrt:nlsdata.obj
 0002:00002a34       ??_C@_03KOEHGMDN@Sun@      10022a34     libucrt:nlsdata.obj
 0002:00002a38       ??_C@_03PDAGKDH@Mon@       10022a38     libucrt:nlsdata.obj
 0002:00002a3c       ??_C@_03NAGEINEP@Tue@      10022a3c     libucrt:nlsdata.obj
 0002:00002a40       ??_C@_03MHOMLAJA@Wed@      10022a40     libucrt:nlsdata.obj
 0002:00002a44       ??_C@_03IOFIKPDN@Thu@      10022a44     libucrt:nlsdata.obj
 0002:00002a48       ??_C@_03IDIOELNC@Fri@      10022a48     libucrt:nlsdata.obj
 0002:00002a4c       ??_C@_03FEFJNEK@Sat@       10022a4c     libucrt:nlsdata.obj
 0002:00002a50       ??_C@_06OOPIFAJ@Sunday@    10022a50     libucrt:nlsdata.obj
 0002:00002a58       ??_C@_06JLEDEDGH@Monday@   10022a58     libucrt:nlsdata.obj
 0002:00002a60       ??_C@_07BAAGCFCM@Tuesday@  10022a60     libucrt:nlsdata.obj
 0002:00002a68       ??_C@_09DLIGFAKA@Wednesday@ 10022a68     libucrt:nlsdata.obj
 0002:00002a74       ??_C@_08HACCIKIA@Thursday@ 10022a74     libucrt:nlsdata.obj
 0002:00002a80       ??_C@_06JECMNKMI@Friday@   10022a80     libucrt:nlsdata.obj
 0002:00002a88       ??_C@_08INBOOONO@Saturday@ 10022a88     libucrt:nlsdata.obj
 0002:00002a94       ??_C@_03JIHJHPIE@Jan@      10022a94     libucrt:nlsdata.obj
 0002:00002a98       ??_C@_03HJBDCHOM@Feb@      10022a98     libucrt:nlsdata.obj
 0002:00002a9c       ??_C@_03ODNJBKGA@Mar@      10022a9c     libucrt:nlsdata.obj
 0002:00002aa0       ??_C@_03LEOLGMJP@Apr@      10022aa0     libucrt:nlsdata.obj
 0002:00002aa4       ??_C@_03CNMDKL@May@        10022aa4     libucrt:nlsdata.obj
 0002:00002aa8       ??_C@_03IDFGHECI@Jun@      10022aa8     libucrt:nlsdata.obj
 0002:00002aac       ??_C@_03LBGABGKK@Jul@      10022aac     libucrt:nlsdata.obj
 0002:00002ab0       ??_C@_03IFJFEIGA@Aug@      10022ab0     libucrt:nlsdata.obj
 0002:00002ab4       ??_C@_03GGCAPAJC@Sep@      10022ab4     libucrt:nlsdata.obj
 0002:00002ab8       ??_C@_03BMAOKBAD@Oct@      10022ab8     libucrt:nlsdata.obj
 0002:00002abc       ??_C@_03JPJOFNIA@Nov@      10022abc     libucrt:nlsdata.obj
 0002:00002ac0       ??_C@_03MKABNOCG@Dec@      10022ac0     libucrt:nlsdata.obj
 0002:00002ac4       ??_C@_07CGJPFGJA@January@  10022ac4     libucrt:nlsdata.obj
 0002:00002acc       ??_C@_08GNJGEPFN@February@ 10022acc     libucrt:nlsdata.obj
 0002:00002ad8       ??_C@_05HPCKOFNC@March@    10022ad8     libucrt:nlsdata.obj
 0002:00002ae0       ??_C@_05DMJDNLEJ@April@    10022ae0     libucrt:nlsdata.obj
 0002:00002ae8       ??_C@_04CNLMGBGM@June@     10022ae8     libucrt:nlsdata.obj
 0002:00002af0       ??_C@_04MIEPOIFP@July@     10022af0     libucrt:nlsdata.obj
 0002:00002af8       ??_C@_06LBBHFDDG@August@   10022af8     libucrt:nlsdata.obj
 0002:00002b00       ??_C@_09BHHEALKD@September@ 10022b00     libucrt:nlsdata.obj
 0002:00002b0c       ??_C@_07JJNFCEND@October@  10022b0c     libucrt:nlsdata.obj
 0002:00002b14       ??_C@_08HCHEGEOA@November@ 10022b14     libucrt:nlsdata.obj
 0002:00002b20       ??_C@_08EDHMEBNP@December@ 10022b20     libucrt:nlsdata.obj
 0002:00002b2c       ??_C@_02DEDBPAFC@AM@       10022b2c     libucrt:nlsdata.obj
 0002:00002b30       ??_C@_02CJNFDJBF@PM@       10022b30     libucrt:nlsdata.obj
 0002:00002b34       ??_C@_08BPBNCDIB@MM?1dd?1yy@ 10022b34     libucrt:nlsdata.obj
 0002:00002b40       ??_C@_0BE@CKGJFCPC@dddd?0?5MMMM?5dd?0?5yyyy@ 10022b40     libucrt:nlsdata.obj
 0002:00002b54       ??_C@_08JCCMCCIL@HH?3mm?3ss@ 10022b54     libucrt:nlsdata.obj
 0002:00002b60       ??_C@_17MBGCMIPB@?$AAS?$AAu?$AAn@ 10022b60     libucrt:nlsdata.obj
 0002:00002b68       ??_C@_17KBOMKBF@?$AAM?$AAo?$AAn@ 10022b68     libucrt:nlsdata.obj
 0002:00002b70       ??_C@_17BMKGEGOJ@?$AAT?$AAu?$AAe@ 10022b70     libucrt:nlsdata.obj
 0002:00002b78       ??_C@_17CJEDCEPE@?$AAW?$AAe?$AAd@ 10022b78     libucrt:nlsdata.obj
 0002:00002b80       ??_C@_17PDPHAADD@?$AAT?$AAh?$AAu@ 10022b80     libucrt:nlsdata.obj
 0002:00002b88       ??_C@_17HFOLPPLP@?$AAF?$AAr?$AAi@ 10022b88     libucrt:nlsdata.obj
 0002:00002b90       ??_C@_17GGIBDPIH@?$AAS?$AAa?$AAt@ 10022b90     libucrt:nlsdata.obj
 0002:00002b98       ??_C@_1O@IHNHDHPB@?$AAS?$AAu?$AAn?$AAd?$AAa?$AAy@ 10022b98     libucrt:nlsdata.obj
 0002:00002ba8       ??_C@_1O@MMNBFLIA@?$AAM?$AAo?$AAn?$AAd?$AAa?$AAy@ 10022ba8     libucrt:nlsdata.obj
 0002:00002bb8       ??_C@_1BA@ENFBFFEK@?$AAT?$AAu?$AAe?$AAs?$AAd?$AAa?$AAy@ 10022bb8     libucrt:nlsdata.obj
 0002:00002bc8       ??_C@_1BE@EBOGMDOH@?$AAW?$AAe?$AAd?$AAn?$AAe?$AAs?$AAd?$AAa?$AAy@ 10022bc8     libucrt:nlsdata.obj
 0002:00002bdc       ??_C@_1BC@HHMNLIHE@?$AAT?$AAh?$AAu?$AAr?$AAs?$AAd?$AAa?$AAy@ 10022bdc     libucrt:nlsdata.obj
 0002:00002bf0       ??_C@_1O@PDICJHAG@?$AAF?$AAr?$AAi?$AAd?$AAa?$AAy@ 10022bf0     libucrt:nlsdata.obj
 0002:00002c00       ??_C@_1BC@ENMNNPAJ@?$AAS?$AAa?$AAt?$AAu?$AAr?$AAd?$AAa?$AAy@ 10022c00     libucrt:nlsdata.obj
 0002:00002c14       ??_C@_17DKNBKCHM@?$AAJ?$AAa?$AAn@ 10022c14     libucrt:nlsdata.obj
 0002:00002c1c       ??_C@_17LMDJEKJN@?$AAF?$AAe?$AAb@ 10022c1c     libucrt:nlsdata.obj
 0002:00002c24       ??_C@_17CKNLEDEC@?$AAM?$AAa?$AAr@ 10022c24     libucrt:nlsdata.obj
 0002:00002c2c       ??_C@_17LFPOIHDD@?$AAA?$AAp?$AAr@ 10022c2c     libucrt:nlsdata.obj
 0002:00002c34       ??_C@_17PNNKMEED@?$AAM?$AAa?$AAy@ 10022c34     libucrt:nlsdata.obj
 0002:00002c3c       ??_C@_17KCJGOCPB@?$AAJ?$AAu?$AAn@ 10022c3c     libucrt:nlsdata.obj
 0002:00002c44       ??_C@_17IJPCKHK@?$AAJ?$AAu?$AAl@ 10022c44     libucrt:nlsdata.obj
 0002:00002c4c       ??_C@_17ICPELBCN@?$AAA?$AAu?$AAg@ 10022c4c     libucrt:nlsdata.obj
 0002:00002c54       ??_C@_17HCHCOKMG@?$AAS?$AAe?$AAp@ 10022c54     libucrt:nlsdata.obj
 0002:00002c5c       ??_C@_17FNLKOI@?$AAO?$AAc?$AAt@ 10022c5c     libucrt:nlsdata.obj
 0002:00002c64       ??_C@_17BBDMLCIG@?$AAN?$AAo?$AAv@ 10022c64     libucrt:nlsdata.obj
 0002:00002c6c       ??_C@_17EGKACKIF@?$AAD?$AAe?$AAc@ 10022c6c     libucrt:nlsdata.obj
 0002:00002c74       ??_C@_1BA@EFMEIEBA@?$AAJ?$AAa?$AAn?$AAu?$AAa?$AAr?$AAy@ 10022c74     libucrt:nlsdata.obj
 0002:00002c84       ??_C@_1BC@JGDDFFAM@?$AAF?$AAe?$AAb?$AAr?$AAu?$AAa?$AAr?$AAy@ 10022c84     libucrt:nlsdata.obj
 0002:00002c98       ??_C@_1M@IKEENEDF@?$AAM?$AAa?$AAr?$AAc?$AAh@ 10022c98     libucrt:nlsdata.obj
 0002:00002ca4       ??_C@_1M@GJNLMHFD@?$AAA?$AAp?$AAr?$AAi?$AAl@ 10022ca4     libucrt:nlsdata.obj
 0002:00002cb0       ??_C@_19EPFLPGAP@?$AAJ?$AAu?$AAn?$AAe@ 10022cb0     libucrt:nlsdata.obj
 0002:00002cbc       ??_C@_19BIFMLPCD@?$AAJ?$AAu?$AAl?$AAy@ 10022cbc     libucrt:nlsdata.obj
 0002:00002cc8       ??_C@_1O@PAHLKOAC@?$AAA?$AAu?$AAg?$AAu?$AAs?$AAt@ 10022cc8     libucrt:nlsdata.obj
 0002:00002cd8       ??_C@_1BE@DKAAMBJL@?$AAS?$AAe?$AAp?$AAt?$AAe?$AAm?$AAb?$AAe?$AAr@ 10022cd8     libucrt:nlsdata.obj
 0002:00002cec       ??_C@_1BA@EPANDLNG@?$AAO?$AAc?$AAt?$AAo?$AAb?$AAe?$AAr@ 10022cec     libucrt:nlsdata.obj
 0002:00002cfc       ??_C@_1BC@BGLIFPF@?$AAN?$AAo?$AAv?$AAe?$AAm?$AAb?$AAe?$AAr@ 10022cfc     libucrt:nlsdata.obj
 0002:00002d10       ??_C@_1BC@FEMKIFH@?$AAD?$AAe?$AAc?$AAe?$AAm?$AAb?$AAe?$AAr@ 10022d10     libucrt:nlsdata.obj
 0002:00002d24       ??_C@_15ODEHAHHF@?$AAA?$AAM@ 10022d24     libucrt:nlsdata.obj
 0002:00002d2c       ??_C@_15CLMNNGEL@?$AAP?$AAM@ 10022d2c     libucrt:nlsdata.obj
 0002:00002d34       ??_C@_1BC@IEBCMHCM@?$AAM?$AAM?$AA?1?$AAd?$AAd?$AA?1?$AAy?$AAy@ 10022d34     libucrt:nlsdata.obj
 0002:00002d48       ??_C@_1CI@KNAKOEBC@?$AAd?$AAd?$AAd?$AAd?$AA?0?$AA?5?$AAM?$AAM?$AAM?$AAM?$AA?5?$AAd?$AAd?$AA?0?$AA?5@ 10022d48     libucrt:nlsdata.obj
 0002:00002d70       ??_C@_1BC@GDGBMEMK@?$AAH?$AAH?$AA?3?$AAm?$AAm?$AA?3?$AAs?$AAs@ 10022d70     libucrt:nlsdata.obj
 0002:00002d84       ??_C@_1M@BMHNFIME@?$AAe?$AAn?$AA?9?$AAU?$AAS@ 10022d84     libucrt:nlsdata.obj
 0002:00002de0       ??_C@_1EA@JGEFHKEI@?$AAa?$AAp?$AAi?$AA?9?$AAm?$AAs?$AA?9?$AAw?$AAi?$AAn?$AA?9?$AAc?$AAo?$AAr?$AAe@ 10022de0     libucrt:winapi_thunks.obj
 0002:00002e20       ??_C@_1DI@IJCEHOCB@?$AAa?$AAp?$AAi?$AA?9?$AAm?$AAs?$AA?9?$AAw?$AAi?$AAn?$AA?9?$AAc?$AAo?$AAr?$AAe@ 10022e20     libucrt:winapi_thunks.obj
 0002:00002e58       ??_C@_1EI@MPIAOHOC@?$AAa?$AAp?$AAi?$AA?9?$AAm?$AAs?$AA?9?$AAw?$AAi?$AAn?$AA?9?$AAc?$AAo?$AAr?$AAe@ 10022e58     libucrt:winapi_thunks.obj
 0002:00002ea0       ??_C@_1FK@FPHCKFIE@?$AAa?$AAp?$AAi?$AA?9?$AAm?$AAs?$AA?9?$AAw?$AAi?$AAn?$AA?9?$AAc?$AAo?$AAr?$AAe@ 10022ea0     libucrt:winapi_thunks.obj
 0002:00002f00       ??_C@_1EM@DILCGIIO@?$AAa?$AAp?$AAi?$AA?9?$AAm?$AAs?$AA?9?$AAw?$AAi?$AAn?$AA?9?$AAc?$AAo?$AAr?$AAe@ 10022f00     libucrt:winapi_thunks.obj
 0002:00002f4c       ??_C@_1DM@LNCGDDPN@?$AAa?$AAp?$AAi?$AA?9?$AAm?$AAs?$AA?9?$AAw?$AAi?$AAn?$AA?9?$AAc?$AAo?$AAr?$AAe@ 10022f4c     libucrt:winapi_thunks.obj
 0002:00002f88       ??_C@_1DO@FPAPJEMD@?$AAa?$AAp?$AAi?$AA?9?$AAm?$AAs?$AA?9?$AAw?$AAi?$AAn?$AA?9?$AAc?$AAo?$AAr?$AAe@ 10022f88     libucrt:winapi_thunks.obj
 0002:00002fc8       ??_C@_1DK@NDHNAHIO@?$AAa?$AAp?$AAi?$AA?9?$AAm?$AAs?$AA?9?$AAw?$AAi?$AAn?$AA?9?$AAc?$AAo?$AAr?$AAe@ 10022fc8     libucrt:winapi_thunks.obj
 0002:00003004       ??_C@_1DM@KGHDGBCM@?$AAa?$AAp?$AAi?$AA?9?$AAm?$AAs?$AA?9?$AAw?$AAi?$AAn?$AA?9?$AAc?$AAo?$AAr?$AAe@ 10023004     libucrt:winapi_thunks.obj
 0002:00003040       ??_C@_1EO@IJIOEFOH@?$AAa?$AAp?$AAi?$AA?9?$AAm?$AAs?$AA?9?$AAw?$AAi?$AAn?$AA?9?$AAr?$AAt?$AAc?$AAo@ 10023040     libucrt:winapi_thunks.obj
 0002:00003090       ??_C@_1FG@HHGEKANL@?$AAa?$AAp?$AAi?$AA?9?$AAm?$AAs?$AA?9?$AAw?$AAi?$AAn?$AA?9?$AAs?$AAe?$AAc?$AAu@ 10023090     libucrt:winapi_thunks.obj
 0002:000030e8       ??_C@_1EG@DBIOJECG@?$AAe?$AAx?$AAt?$AA?9?$AAm?$AAs?$AA?9?$AAw?$AAi?$AAn?$AA?9?$AAn?$AAt?$AAu?$AAs@ 100230e8     libucrt:winapi_thunks.obj
 0002:00003130       ??_C@_1EO@FIHMJCLF@?$AAe?$AAx?$AAt?$AA?9?$AAm?$AAs?$AA?9?$AAw?$AAi?$AAn?$AA?9?$AAn?$AAt?$AAu?$AAs@ 10023130     libucrt:winapi_thunks.obj
 0002:00003180       ??_C@_1BC@DNHGCMLG@?$AAa?$AAd?$AAv?$AAa?$AAp?$AAi?$AA3?$AA2@ 10023180     libucrt:winapi_thunks.obj
 0002:00003194       ??_C@_1M@OAIMIKLP@?$AAn?$AAt?$AAd?$AAl?$AAl@ 10023194     libucrt:winapi_thunks.obj
 0002:000031a0       ??_C@_1EG@DPGNFKGC@?$AAa?$AAp?$AAi?$AA?9?$AAm?$AAs?$AA?9?$AAw?$AAi?$AAn?$AA?9?$AAa?$AAp?$AAp?$AAm@ 100231a0     libucrt:winapi_thunks.obj
 0002:000031e8       ??_C@_1O@BCCLBEOE@?$AAu?$AAs?$AAe?$AAr?$AA3?$AA2@ 100231e8     libucrt:winapi_thunks.obj
 0002:000031f8       ??_C@_1DM@BPJLHKCE@?$AAa?$AAp?$AAi?$AA?9?$AAm?$AAs?$AA?9?$AAw?$AAi?$AAn?$AA?9?$AAc?$AAo?$AAr?$AAe@ 100231f8     libucrt:winapi_thunks.obj
 0002:00003234       ??_C@_1BA@IAIFMGEF@?$AAe?$AAx?$AAt?$AA?9?$AAm?$AAs?$AA?9@ 10023234     libucrt:winapi_thunks.obj
 0002:00003248       ??_C@_0BA@FHFNEAED@AreFileApisANSI@ 10023248     libucrt:winapi_thunks.obj
 0002:00003268       ??_C@_0O@KKBNKAPF@LCMapStringEx@ 10023268     libucrt:winapi_thunks.obj
 0002:00003280       ??_C@_0BB@HBDEELFH@LocaleNameToLCID@ 10023280     libucrt:winapi_thunks.obj
 0002:00003298       ??_C@_0CF@OJOFEIGO@AppPolicyGetProcessTerminationM@ 10023298     libucrt:winapi_thunks.obj
 0002:000032c8       ??_C@_0BI@BKLFFAPO@SetThreadStackGuarantee@ 100232c8     libucrt:winapi_thunks.obj
 0002:00003340       ??_C@_03OEIAHPBN@INF@      10023340     libucrt:cvt.obj
 0002:00003344       ??_C@_03OJHLLCGB@inf@      10023344     libucrt:cvt.obj
 0002:00003348       ??_C@_03LKNCIKJB@NAN@      10023348     libucrt:cvt.obj
 0002:0000334c       ??_C@_03LHCJEHON@nan@      1002334c     libucrt:cvt.obj
 0002:00003350       ??_C@_09OFJJIMPC@NAN?$CISNAN?$CJ@ 10023350     libucrt:cvt.obj
 0002:0000335c       ??_C@_09IPFBKMDL@nan?$CIsnan?$CJ@ 1002335c     libucrt:cvt.obj
 0002:00003368       ??_C@_08IKHNHAJ@NAN?$CIIND?$CJ@ 10023368     libucrt:cvt.obj
 0002:00003374       ??_C@_08OFCDMILK@nan?$CIind?$CJ@ 10023374     libucrt:cvt.obj
 0002:00003380       ??_C@_05KLBDPFGC@e?$CL000@ 10023380     libucrt:cvt.obj
 0002:00003398       ??_C@_1M@HPNHIDJI@?$AAj?$AAa?$AA?9?$AAJ?$AAP@ 10023398     libucrt:mbctype.obj
 0002:000033a4       ??_C@_1M@BIBDDEMK@?$AAz?$AAh?$AA?9?$AAC?$AAN@ 100233a4     libucrt:mbctype.obj
 0002:000033b0       ??_C@_1M@JLOOOEGK@?$AAk?$AAo?$AA?9?$AAK?$AAR@ 100233b0     libucrt:mbctype.obj
 0002:000033bc       ??_C@_1M@CLNBBOPM@?$AAz?$AAh?$AA?9?$AAT?$AAW@ 100233bc     libucrt:mbctype.obj
 0002:000033c8       ___newctype                100233c8     libucrt:ctype.obj
 0002:000036c8       ___newclmap                100236c8     libucrt:ctype.obj
 0002:00003848       ___newcumap                10023848     libucrt:ctype.obj
 0002:000039c8       ??_C@_15PJPFLCCM@?$AAu?$AAk@ 100239c8     libucrt:get_qualified_locale.obj
 0002:000040f0       ??_C@_15EMKDOKLE@?$AAa?$AAr@ 100240f0     libucrt:lcidtoname_downlevel.obj
 0002:000040f8       ??_C@_15KNPADPLH@?$AAb?$AAg@ 100240f8     libucrt:lcidtoname_downlevel.obj
 0002:00004100       ??_C@_15EDMHLDMO@?$AAc?$AAa@ 10024100     libucrt:lcidtoname_downlevel.obj
 0002:00004108       ??_C@_1O@BPEAJADD@?$AAz?$AAh?$AA?9?$AAC?$AAH?$AAS@ 10024108     libucrt:lcidtoname_downlevel.obj
 0002:00004118       ??_C@_15LJNHCMNK@?$AAc?$AAs@ 10024118     libucrt:lcidtoname_downlevel.obj
 0002:00004120       ??_C@_15FOMCIDHG@?$AAd?$AAa@ 10024120     libucrt:lcidtoname_downlevel.obj
 0002:00004128       ??_C@_15NBKABECB@?$AAd?$AAe@ 10024128     libucrt:lcidtoname_downlevel.obj
 0002:00004130       ??_C@_15GHPEIIAO@?$AAe?$AAl@ 10024130     libucrt:lcidtoname_downlevel.obj
 0002:00004138       ??_C@_15MNPNEAIF@?$AAe?$AAn@ 10024138     libucrt:lcidtoname_downlevel.obj
 0002:00004140       ??_C@_15GPIOMPMH@?$AAe?$AAs@ 10024140     libucrt:lcidtoname_downlevel.obj
 0002:00004148       ??_C@_15NGLOAKJC@?$AAf?$AAi@ 10024148     libucrt:lcidtoname_downlevel.obj
 0002:00004150       ??_C@_15FBKGNKAM@?$AAf?$AAr@ 10024150     libucrt:lcidtoname_downlevel.obj
 0002:00004158       ??_C@_15KGGCNEFK@?$AAh?$AAe@ 10024158     libucrt:lcidtoname_downlevel.obj
 0002:00004160       ??_C@_15PGHLIDMF@?$AAh?$AAu@ 10024160     libucrt:lcidtoname_downlevel.obj
 0002:00004168       ??_C@_15BIEMAPLM@?$AAi?$AAs@ 10024168     libucrt:lcidtoname_downlevel.obj
 0002:00004170       ??_C@_15IFJLDHAF@?$AAi?$AAt@ 10024170     libucrt:lcidtoname_downlevel.obj
 0002:00004178       ??_C@_15GEMIOCAG@?$AAj?$AAa@ 10024178     libucrt:lcidtoname_downlevel.obj
 0002:00004180       ??_C@_15EPELEGJA@?$AAk?$AAo@ 10024180     libucrt:lcidtoname_downlevel.obj
 0002:00004188       ??_C@_15NDDHIMN@?$AAn?$AAl@ 10024188     libucrt:lcidtoname_downlevel.obj
 0002:00004190       ??_C@_15BPIGNHCD@?$AAn?$AAo@ 10024190     libucrt:lcidtoname_downlevel.obj
 0002:00004198       ??_C@_15DEOPBLCG@?$AAp?$AAl@ 10024198     libucrt:lcidtoname_downlevel.obj
 0002:000041a0       ??_C@_15KBECGEFG@?$AAp?$AAt@ 100241a0     libucrt:lcidtoname_downlevel.obj
 0002:000041a8       ??_C@_15GLJCBFMD@?$AAr?$AAo@ 100241a8     libucrt:lcidtoname_downlevel.obj
 0002:000041b0       ??_C@_15FEDGKCDI@?$AAr?$AAu@ 100241b0     libucrt:lcidtoname_downlevel.obj
 0002:000041b8       ??_C@_15GLKMLLHM@?$AAh?$AAr@ 100241b8     libucrt:lcidtoname_downlevel.obj
 0002:000041c0       ??_C@_15CPKMFBDB@?$AAs?$AAk@ 100241c0     libucrt:lcidtoname_downlevel.obj
 0002:000041c8       ??_C@_15BAAIOGMK@?$AAs?$AAq@ 100241c8     libucrt:lcidtoname_downlevel.obj
 0002:000041d0       ??_C@_15INNPNOHD@?$AAs?$AAv@ 100241d0     libucrt:lcidtoname_downlevel.obj
 0002:000041d8       ??_C@_15CABMMOGH@?$AAt?$AAh@ 100241d8     libucrt:lcidtoname_downlevel.obj
 0002:000041e0       ??_C@_15BPLIHJJM@?$AAt?$AAr@ 100241e0     libucrt:lcidtoname_downlevel.obj
 0002:000041e8       ??_C@_15NEOEKKDJ@?$AAu?$AAr@ 100241e8     libucrt:lcidtoname_downlevel.obj
 0002:000041f0       ??_C@_15NFICGAJK@?$AAi?$AAd@ 100241f0     libucrt:lcidtoname_downlevel.obj
 0002:000041f8       ??_C@_15HPJPHDM@?$AAb?$AAe@ 100241f8     libucrt:lcidtoname_downlevel.obj
 0002:00004200       ??_C@_15LCHLGJII@?$AAs?$AAl@ 10024200     libucrt:lcidtoname_downlevel.obj
 0002:00004208       ??_C@_15PCFJPHHO@?$AAe?$AAt@ 10024208     libucrt:lcidtoname_downlevel.obj
 0002:00004210       ??_C@_15HPFPGODN@?$AAl?$AAv@ 10024210     libucrt:lcidtoname_downlevel.obj
 0002:00004218       ??_C@_15NFFGKGLG@?$AAl?$AAt@ 10024218     libucrt:lcidtoname_downlevel.obj
 0002:00004220       ??_C@_15BDAKCCHN@?$AAf?$AAa@ 10024220     libucrt:lcidtoname_downlevel.obj
 0002:00004228       ??_C@_15NFGIAIAJ@?$AAv?$AAi@ 10024228     libucrt:lcidtoname_downlevel.obj
 0002:00004230       ??_C@_15LMKNDMHN@?$AAh?$AAy@ 10024230     libucrt:lcidtoname_downlevel.obj
 0002:00004238       ??_C@_15IJBHMCFL@?$AAa?$AAz@ 10024238     libucrt:lcidtoname_downlevel.obj
 0002:00004240       ??_C@_15EKOFJABL@?$AAe?$AAu@ 10024240     libucrt:lcidtoname_downlevel.obj
 0002:00004248       ??_C@_15BGHADCNK@?$AAm?$AAk@ 10024248     libucrt:lcidtoname_downlevel.obj
 0002:00004250       ??_C@_15JDNICKHM@?$AAa?$AAf@ 10024250     libucrt:lcidtoname_downlevel.obj
 0002:00004258       ??_C@_15KPJEDBKD@?$AAk?$AAa@ 10024258     libucrt:lcidtoname_downlevel.obj
 0002:00004260       ??_C@_15PDNFFFEO@?$AAf?$AAo@ 10024260     libucrt:lcidtoname_downlevel.obj
 0002:00004268       ??_C@_15OMLEGLOC@?$AAh?$AAi@ 10024268     libucrt:lcidtoname_downlevel.obj
 0002:00004270       ??_C@_15IDNNENKK@?$AAm?$AAs@ 10024270     libucrt:lcidtoname_downlevel.obj
 0002:00004278       ??_C@_15MACJNBMH@?$AAk?$AAk@ 10024278     libucrt:lcidtoname_downlevel.obj
 0002:00004280       ??_C@_15DKDJEOND@?$AAk?$AAy@ 10024280     libucrt:lcidtoname_downlevel.obj
 0002:00004288       ??_C@_15DFGDLJBG@?$AAs?$AAw@ 10024288     libucrt:lcidtoname_downlevel.obj
 0002:00004290       ??_C@_15BBFAICNG@?$AAu?$AAz@ 10024290     libucrt:lcidtoname_downlevel.obj
 0002:00004298       ??_C@_15DKNDCGEA@?$AAt?$AAt@ 10024298     libucrt:lcidtoname_downlevel.obj
 0002:000042a0       ??_C@_15MGIFMDPL@?$AAp?$AAa@ 100242a0     libucrt:lcidtoname_downlevel.obj
 0002:000042a8       ??_C@_15HCNDBBA@?$AAg?$AAu@ 100242a8     libucrt:lcidtoname_downlevel.obj
 0002:000042b0       ??_C@_15FNBEIBON@?$AAt?$AAa@ 100242b0     libucrt:lcidtoname_downlevel.obj
 0002:000042b8       ??_C@_15NCHGBGLK@?$AAt?$AAe@ 100242b8     libucrt:lcidtoname_downlevel.obj
 0002:000042c0       ??_C@_15PHPHCBPF@?$AAk?$AAn@ 100242c0     libucrt:lcidtoname_downlevel.obj
 0002:000042c8       ??_C@_15DLGBCKMP@?$AAm?$AAr@ 100242c8     libucrt:lcidtoname_downlevel.obj
 0002:000042d0       ??_C@_15EABBLBFF@?$AAs?$AAa@ 100242d0     libucrt:lcidtoname_downlevel.obj
 0002:000042d8       ??_C@_15CBKOMCOI@?$AAm?$AAn@ 100242d8     libucrt:lcidtoname_downlevel.obj
 0002:000042e0       ??_C@_15CKDMCJAF@?$AAg?$AAl@ 100242e0     libucrt:lcidtoname_downlevel.obj
 0002:000042e8       ??_C@_17CNJFBPG@?$AAk?$AAo?$AAk@ 100242e8     libucrt:lcidtoname_downlevel.obj
 0002:000042f0       ??_C@_17FFBJICPL@?$AAs?$AAy?$AAr@ 100242f0     libucrt:lcidtoname_downlevel.obj
 0002:000042f8       ??_C@_17KPNDCPAF@?$AAd?$AAi?$AAv@ 100242f8     libucrt:lcidtoname_downlevel.obj
 0002:00004300       ??_C@_1M@OKAHONE@?$AAa?$AAr?$AA?9?$AAS?$AAA@ 10024300     libucrt:lcidtoname_downlevel.obj
 0002:0000430c       ??_C@_1M@FFFIGIGK@?$AAb?$AAg?$AA?9?$AAB?$AAG@ 1002430c     libucrt:lcidtoname_downlevel.obj
 0002:00004318       ??_C@_1M@BJNKEDC@?$AAc?$AAa?$AA?9?$AAE?$AAS@ 10024318     libucrt:lcidtoname_downlevel.obj
 0002:00004324       ??_C@_1M@IJJHFJHA@?$AAc?$AAs?$AA?9?$AAC?$AAZ@ 10024324     libucrt:lcidtoname_downlevel.obj
 0002:00004330       ??_C@_1M@CLPEOBGI@?$AAd?$AAa?$AA?9?$AAD?$AAK@ 10024330     libucrt:lcidtoname_downlevel.obj
 0002:0000433c       ??_C@_1M@MCMADGCB@?$AAd?$AAe?$AA?9?$AAD?$AAE@ 1002433c     libucrt:lcidtoname_downlevel.obj
 0002:00004348       ??_C@_1M@OOCKEMAM@?$AAe?$AAl?$AA?9?$AAG?$AAR@ 10024348     libucrt:lcidtoname_downlevel.obj
 0002:00004354       ??_C@_1M@DDNJFGID@?$AAf?$AAi?$AA?9?$AAF?$AAI@ 10024354     libucrt:lcidtoname_downlevel.obj
 0002:00004360       ??_C@_1M@GLIPPMAC@?$AAf?$AAr?$AA?9?$AAF?$AAR@ 10024360     libucrt:lcidtoname_downlevel.obj
 0002:0000436c       ??_C@_1M@GFMCHPE@?$AAh?$AAe?$AA?9?$AAI?$AAL@ 1002436c     libucrt:lcidtoname_downlevel.obj
 0002:00004378       ??_C@_1M@MHLPGNKM@?$AAh?$AAu?$AA?9?$AAH?$AAU@ 10024378     libucrt:lcidtoname_downlevel.obj
 0002:00004384       ??_C@_1M@LPDDNNPN@?$AAi?$AAs?$AA?9?$AAI?$AAS@ 10024384     libucrt:lcidtoname_downlevel.obj
 0002:00004390       ??_C@_1M@MADIPODN@?$AAi?$AAt?$AA?9?$AAI?$AAT@ 10024390     libucrt:lcidtoname_downlevel.obj
 0002:0000439c       ??_C@_1M@IHBJJGG@?$AAn?$AAl?$AA?9?$AAN?$AAL@ 1002439c     libucrt:lcidtoname_downlevel.obj
 0002:000043a8       ??_C@_1M@EANAGDL@?$AAn?$AAb?$AA?9?$AAN?$AAO@ 100243a8     libucrt:lcidtoname_downlevel.obj
 0002:000043b4       ??_C@_1M@NEIEMEGP@?$AAp?$AAl?$AA?9?$AAP?$AAL@ 100243b4     libucrt:lcidtoname_downlevel.obj
 0002:000043c0       ??_C@_1M@BOCFIGEP@?$AAp?$AAt?$AA?9?$AAB?$AAR@ 100243c0     libucrt:lcidtoname_downlevel.obj
 0002:000043cc       ??_C@_1M@IMPFOPBG@?$AAr?$AAo?$AA?9?$AAR?$AAO@ 100243cc     libucrt:lcidtoname_downlevel.obj
 0002:000043d8       ??_C@_1M@IDNNEJMM@?$AAr?$AAu?$AA?9?$AAR?$AAU@ 100243d8     libucrt:lcidtoname_downlevel.obj
 0002:000043e4       ??_C@_1M@LILEEOGM@?$AAh?$AAr?$AA?9?$AAH?$AAR@ 100243e4     libucrt:lcidtoname_downlevel.obj
 0002:000043f0       ??_C@_1M@FKIFEHPB@?$AAs?$AAk?$AA?9?$AAS?$AAK@ 100243f0     libucrt:lcidtoname_downlevel.obj
 0002:000043fc       ??_C@_1M@LJMAMNPJ@?$AAs?$AAq?$AA?9?$AAA?$AAL@ 100243fc     libucrt:lcidtoname_downlevel.obj
 0002:00004408       ??_C@_1M@GIAKDKJK@?$AAs?$AAv?$AA?9?$AAS?$AAE@ 10024408     libucrt:lcidtoname_downlevel.obj
 0002:00004414       ??_C@_1M@MKJKIKCL@?$AAt?$AAh?$AA?9?$AAT?$AAH@ 10024414     libucrt:lcidtoname_downlevel.obj
 0002:00004420       ??_C@_1M@MFLCCMPB@?$AAt?$AAr?$AA?9?$AAT?$AAR@ 10024420     libucrt:lcidtoname_downlevel.obj
 0002:0000442c       ??_C@_1M@OIJHDKJN@?$AAu?$AAr?$AA?9?$AAP?$AAK@ 1002442c     libucrt:lcidtoname_downlevel.obj
 0002:00004438       ??_C@_1M@LHIPCIEK@?$AAi?$AAd?$AA?9?$AAI?$AAD@ 10024438     libucrt:lcidtoname_downlevel.obj
 0002:00004444       ??_C@_1M@MFMOBGI@?$AAu?$AAk?$AA?9?$AAU?$AAA@ 10024444     libucrt:lcidtoname_downlevel.obj
 0002:00004450       ??_C@_1M@OBGLJIPL@?$AAb?$AAe?$AA?9?$AAB?$AAY@ 10024450     libucrt:lcidtoname_downlevel.obj
 0002:0000445c       ??_C@_1M@BCFAJEAD@?$AAs?$AAl?$AA?9?$AAS?$AAI@ 1002445c     libucrt:lcidtoname_downlevel.obj
 0002:00004468       ??_C@_1M@FKFFEDDN@?$AAe?$AAt?$AA?9?$AAE?$AAE@ 10024468     libucrt:lcidtoname_downlevel.obj
 0002:00004474       ??_C@_1M@KGKKAACI@?$AAl?$AAv?$AA?9?$AAL?$AAV@ 10024474     libucrt:lcidtoname_downlevel.obj
 0002:00004480       ??_C@_1M@IFGBIJO@?$AAl?$AAt?$AA?9?$AAL?$AAT@ 10024480     libucrt:lcidtoname_downlevel.obj
 0002:0000448c       ??_C@_1M@FGEAHEDM@?$AAf?$AAa?$AA?9?$AAI?$AAR@ 1002448c     libucrt:lcidtoname_downlevel.obj
 0002:00004498       ??_C@_1M@KBMAIBFN@?$AAv?$AAi?$AA?9?$AAV?$AAN@ 10024498     libucrt:lcidtoname_downlevel.obj
 0002:000044a4       ??_C@_1M@GPCBKDJK@?$AAh?$AAy?$AA?9?$AAA?$AAM@ 100244a4     libucrt:lcidtoname_downlevel.obj
 0002:000044b0       ??_C@_1BG@BECMDDJB@?$AAa?$AAz?$AA?9?$AAA?$AAZ?$AA?9?$AAL?$AAa?$AAt?$AAn@ 100244b0     libucrt:lcidtoname_downlevel.obj
 0002:000044c8       ??_C@_1M@MAOFCAEA@?$AAe?$AAu?$AA?9?$AAE?$AAS@ 100244c8     libucrt:lcidtoname_downlevel.obj
 0002:000044d4       ??_C@_1M@IGHABKPI@?$AAm?$AAk?$AA?9?$AAM?$AAK@ 100244d4     libucrt:lcidtoname_downlevel.obj
 0002:000044e0       ??_C@_1M@IAIGNEJG@?$AAt?$AAn?$AA?9?$AAZ?$AAA@ 100244e0     libucrt:lcidtoname_downlevel.obj
 0002:000044ec       ??_C@_1M@IIJCOJFA@?$AAx?$AAh?$AA?9?$AAZ?$AAA@ 100244ec     libucrt:lcidtoname_downlevel.obj
 0002:000044f8       ??_C@_1M@LGPJHNJH@?$AAz?$AAu?$AA?9?$AAZ?$AAA@ 100244f8     libucrt:lcidtoname_downlevel.obj
 0002:00004504       ??_C@_1M@HOKAOIO@?$AAa?$AAf?$AA?9?$AAZ?$AAA@ 10024504     libucrt:lcidtoname_downlevel.obj
 0002:00004510       ??_C@_1M@DPCLHLIE@?$AAk?$AAa?$AA?9?$AAG?$AAE@ 10024510     libucrt:lcidtoname_downlevel.obj
 0002:0000451c       ??_C@_1M@BLKMHJBI@?$AAf?$AAo?$AA?9?$AAF?$AAO@ 1002451c     libucrt:lcidtoname_downlevel.obj
 0002:00004528       ??_C@_1M@LGGJAPPB@?$AAh?$AAi?$AA?9?$AAI?$AAN@ 10024528     libucrt:lcidtoname_downlevel.obj
 0002:00004534       ??_C@_1M@FIKPIHFE@?$AAm?$AAt?$AA?9?$AAM?$AAT@ 10024534     libucrt:lcidtoname_downlevel.obj
 0002:00004540       ??_C@_1M@HEGGPBFA@?$AAs?$AAe?$AA?9?$AAN?$AAO@ 10024540     libucrt:lcidtoname_downlevel.obj
 0002:0000454c       ??_C@_1M@EIBJEEPA@?$AAm?$AAs?$AA?9?$AAM?$AAY@ 1002454c     libucrt:lcidtoname_downlevel.obj
 0002:00004558       ??_C@_1M@FHLBGMPP@?$AAk?$AAk?$AA?9?$AAK?$AAZ@ 10024558     libucrt:lcidtoname_downlevel.obj
 0002:00004564       ??_C@_1M@NGJJLCGI@?$AAk?$AAy?$AA?9?$AAK?$AAG@ 10024564     libucrt:lcidtoname_downlevel.obj
 0002:00004570       ??_C@_1M@GIENNBFC@?$AAs?$AAw?$AA?9?$AAK?$AAE@ 10024570     libucrt:lcidtoname_downlevel.obj
 0002:0000457c       ??_C@_1BG@NDGMJIMJ@?$AAu?$AAz?$AA?9?$AAU?$AAZ?$AA?9?$AAL?$AAa?$AAt?$AAn@ 1002457c     libucrt:lcidtoname_downlevel.obj
 0002:00004594       ??_C@_1M@IDCCIHBC@?$AAt?$AAt?$AA?9?$AAR?$AAU@ 10024594     libucrt:lcidtoname_downlevel.obj
 0002:000045a0       ??_C@_1M@LOICPMOJ@?$AAb?$AAn?$AA?9?$AAI?$AAN@ 100245a0     libucrt:lcidtoname_downlevel.obj
 0002:000045ac       ??_C@_1M@KPKKNEAH@?$AAp?$AAa?$AA?9?$AAI?$AAN@ 100245ac     libucrt:lcidtoname_downlevel.obj
 0002:000045b8       ??_C@_1M@PJGPPBOG@?$AAg?$AAu?$AA?9?$AAI?$AAN@ 100245b8     libucrt:lcidtoname_downlevel.obj
 0002:000045c4       ??_C@_1M@KMKMOPHI@?$AAt?$AAa?$AA?9?$AAI?$AAN@ 100245c4     libucrt:lcidtoname_downlevel.obj
 0002:000045d0       ??_C@_1M@KFEHEPAC@?$AAt?$AAe?$AA?9?$AAI?$AAN@ 100245d0     libucrt:lcidtoname_downlevel.obj
 0002:000045dc       ??_C@_1M@CDCLMGHI@?$AAk?$AAn?$AA?9?$AAI?$AAN@ 100245dc     libucrt:lcidtoname_downlevel.obj
 0002:000045e8       ??_C@_1M@MIODLDKF@?$AAm?$AAl?$AA?9?$AAI?$AAN@ 100245e8     libucrt:lcidtoname_downlevel.obj
 0002:000045f4       ??_C@_1M@PBIEACPO@?$AAm?$AAr?$AA?9?$AAI?$AAN@ 100245f4     libucrt:lcidtoname_downlevel.obj
 0002:00004600       ??_C@_1M@NIDEAGPH@?$AAs?$AAa?$AA?9?$AAI?$AAN@ 10024600     libucrt:lcidtoname_downlevel.obj
 0002:0000460c       ??_C@_1M@FHIHCBIO@?$AAm?$AAn?$AA?9?$AAM?$AAN@ 1002460c     libucrt:lcidtoname_downlevel.obj
 0002:00004618       ??_C@_1M@JAIJPENP@?$AAc?$AAy?$AA?9?$AAG?$AAB@ 10024618     libucrt:lcidtoname_downlevel.obj
 0002:00004624       ??_C@_1M@PHGFBEPN@?$AAg?$AAl?$AA?9?$AAE?$AAS@ 10024624     libucrt:lcidtoname_downlevel.obj
 0002:00004630       ??_C@_1O@KPIPDNCP@?$AAk?$AAo?$AAk?$AA?9?$AAI?$AAN@ 10024630     libucrt:lcidtoname_downlevel.obj
 0002:00004640       ??_C@_1O@KNHJLDJA@?$AAs?$AAy?$AAr?$AA?9?$AAS?$AAY@ 10024640     libucrt:lcidtoname_downlevel.obj
 0002:00004650       ??_C@_1O@MKEKBLAH@?$AAd?$AAi?$AAv?$AA?9?$AAM?$AAV@ 10024650     libucrt:lcidtoname_downlevel.obj
 0002:00004660       ??_C@_1O@OHDCKDDF@?$AAq?$AAu?$AAz?$AA?9?$AAB?$AAO@ 10024660     libucrt:lcidtoname_downlevel.obj
 0002:00004670       ??_C@_1M@LEPJNLFD@?$AAn?$AAs?$AA?9?$AAZ?$AAA@ 10024670     libucrt:lcidtoname_downlevel.obj
 0002:0000467c       ??_C@_1M@OMLEIIJB@?$AAm?$AAi?$AA?9?$AAN?$AAZ@ 1002467c     libucrt:lcidtoname_downlevel.obj
 0002:00004688       ??_C@_1M@PMPEAILG@?$AAa?$AAr?$AA?9?$AAI?$AAQ@ 10024688     libucrt:lcidtoname_downlevel.obj
 0002:00004694       ??_C@_1M@CNKPNOEE@?$AAd?$AAe?$AA?9?$AAC?$AAH@ 10024694     libucrt:lcidtoname_downlevel.obj
 0002:000046a0       ??_C@_1M@LKMGMLKO@?$AAe?$AAn?$AA?9?$AAG?$AAB@ 100246a0     libucrt:lcidtoname_downlevel.obj
 0002:000046ac       ??_C@_1M@PGKJFFGL@?$AAe?$AAs?$AA?9?$AAM?$AAX@ 100246ac     libucrt:lcidtoname_downlevel.obj
 0002:000046b8       ??_C@_1M@DNNANBDC@?$AAf?$AAr?$AA?9?$AAB?$AAE@ 100246b8     libucrt:lcidtoname_downlevel.obj
 0002:000046c4       ??_C@_1M@HLGMDFHM@?$AAi?$AAt?$AA?9?$AAC?$AAH@ 100246c4     libucrt:lcidtoname_downlevel.obj
 0002:000046d0       ??_C@_1M@CLLBGJH@?$AAn?$AAl?$AA?9?$AAB?$AAE@ 100246d0     libucrt:lcidtoname_downlevel.obj
 0002:000046dc       ??_C@_1M@BODBOGLF@?$AAn?$AAn?$AA?9?$AAN?$AAO@ 100246dc     libucrt:lcidtoname_downlevel.obj
 0002:000046e8       ??_C@_1M@HFFAHKAD@?$AAp?$AAt?$AA?9?$AAP?$AAT@ 100246e8     libucrt:lcidtoname_downlevel.obj
 0002:000046f4       ??_C@_1BG@LNOAKHIE@?$AAs?$AAr?$AA?9?$AAS?$AAP?$AA?9?$AAL?$AAa?$AAt?$AAn@ 100246f4     libucrt:lcidtoname_downlevel.obj
 0002:0000470c       ??_C@_1M@HBMHBGAK@?$AAs?$AAv?$AA?9?$AAF?$AAI@ 1002470c     libucrt:lcidtoname_downlevel.obj
 0002:00004718       ??_C@_1BG@DGCJGJBE@?$AAa?$AAz?$AA?9?$AAA?$AAZ?$AA?9?$AAC?$AAy?$AAr?$AAl@ 10024718     libucrt:lcidtoname_downlevel.obj
 0002:00004730       ??_C@_1M@KEJDAAHB@?$AAs?$AAe?$AA?9?$AAS?$AAE@ 10024730     libucrt:lcidtoname_downlevel.obj
 0002:0000473c       ??_C@_1M@HEIBJJAD@?$AAm?$AAs?$AA?9?$AAB?$AAN@ 1002473c     libucrt:lcidtoname_downlevel.obj
 0002:00004748       ??_C@_1BG@PBGJMCEM@?$AAu?$AAz?$AA?9?$AAU?$AAZ?$AA?9?$AAC?$AAy?$AAr?$AAl@ 10024748     libucrt:lcidtoname_downlevel.obj
 0002:00004760       ??_C@_1O@LAOBCMDF@?$AAq?$AAu?$AAz?$AA?9?$AAE?$AAC@ 10024760     libucrt:lcidtoname_downlevel.obj
 0002:00004770       ??_C@_1M@POEEMAIO@?$AAa?$AAr?$AA?9?$AAE?$AAG@ 10024770     libucrt:lcidtoname_downlevel.obj
 0002:0000477c       ??_C@_1M@EFAKDEDL@?$AAz?$AAh?$AA?9?$AAH?$AAK@ 1002477c     libucrt:lcidtoname_downlevel.obj
 0002:00004788       ??_C@_1M@HKKIJHGI@?$AAd?$AAe?$AA?9?$AAA?$AAT@ 10024788     libucrt:lcidtoname_downlevel.obj
 0002:00004794       ??_C@_1M@KBFBEHJF@?$AAe?$AAn?$AA?9?$AAA?$AAU@ 10024794     libucrt:lcidtoname_downlevel.obj
 0002:000047a0       ??_C@_1M@MNPLFAAH@?$AAe?$AAs?$AA?9?$AAE?$AAS@ 100247a0     libucrt:lcidtoname_downlevel.obj
 0002:000047ac       ??_C@_1M@HJOOJFMA@?$AAf?$AAr?$AA?9?$AAC?$AAA@ 100247ac     libucrt:lcidtoname_downlevel.obj
 0002:000047b8       ??_C@_1BG@JPOFPNAB@?$AAs?$AAr?$AA?9?$AAS?$AAP?$AA?9?$AAC?$AAy?$AAr?$AAl@ 100247b8     libucrt:lcidtoname_downlevel.obj
 0002:000047d0       ??_C@_1M@LNFOCMOB@?$AAs?$AAe?$AA?9?$AAF?$AAI@ 100247d0     libucrt:lcidtoname_downlevel.obj
 0002:000047dc       ??_C@_1O@MGJBOAMB@?$AAq?$AAu?$AAz?$AA?9?$AAP?$AAE@ 100247dc     libucrt:lcidtoname_downlevel.obj
 0002:000047ec       ??_C@_1M@GJINLBOK@?$AAa?$AAr?$AA?9?$AAL?$AAY@ 100247ec     libucrt:lcidtoname_downlevel.obj
 0002:000047f8       ??_C@_1M@GGMNHJNL@?$AAz?$AAh?$AA?9?$AAS?$AAG@ 100247f8     libucrt:lcidtoname_downlevel.obj
 0002:00004804       ??_C@_1M@HOIKODND@?$AAd?$AAe?$AA?9?$AAL?$AAU@ 10024804     libucrt:lcidtoname_downlevel.obj
 0002:00004810       ??_C@_1M@DDOCCGFG@?$AAe?$AAn?$AA?9?$AAC?$AAA@ 10024810     libucrt:lcidtoname_downlevel.obj
 0002:0000481c       ??_C@_1M@BNOEMJLF@?$AAe?$AAs?$AA?9?$AAG?$AAT@ 1002481c     libucrt:lcidtoname_downlevel.obj
 0002:00004828       ??_C@_1M@EOGNKEK@?$AAf?$AAr?$AA?9?$AAC?$AAH@ 10024828     libucrt:lcidtoname_downlevel.obj
 0002:00004834       ??_C@_1M@FLIDJFHL@?$AAh?$AAr?$AA?9?$AAB?$AAA@ 10024834     libucrt:lcidtoname_downlevel.obj
 0002:00004840       ??_C@_1O@FMCELNAJ@?$AAs?$AAm?$AAj?$AA?9?$AAN?$AAO@ 10024840     libucrt:lcidtoname_downlevel.obj
 0002:00004850       ??_C@_1M@JHGLJMGJ@?$AAa?$AAr?$AA?9?$AAD?$AAZ@ 10024850     libucrt:lcidtoname_downlevel.obj
 0002:0000485c       ??_C@_1M@JKKFDCNP@?$AAz?$AAh?$AA?9?$AAM?$AAO@ 1002485c     libucrt:lcidtoname_downlevel.obj
 0002:00004868       ??_C@_1M@GEEFALPE@?$AAd?$AAe?$AA?9?$AAL?$AAI@ 10024868     libucrt:lcidtoname_downlevel.obj
 0002:00004874       ??_C@_1M@IGEOFBG@?$AAe?$AAn?$AA?9?$AAN?$AAZ@ 10024874     libucrt:lcidtoname_downlevel.obj
 0002:00004880       ??_C@_1M@KDBONEHP@?$AAe?$AAs?$AA?9?$AAC?$AAR@ 10024880     libucrt:lcidtoname_downlevel.obj
 0002:0000488c       ??_C@_1M@FHMDOHNN@?$AAf?$AAr?$AA?9?$AAL?$AAU@ 1002488c     libucrt:lcidtoname_downlevel.obj
 0002:00004898       ??_C@_1BG@NFKKMAFG@?$AAb?$AAs?$AA?9?$AAB?$AAA?$AA?9?$AAL?$AAa?$AAt?$AAn@ 10024898     libucrt:lcidtoname_downlevel.obj
 0002:000048b0       ??_C@_1O@IMNBEMCI@?$AAs?$AAm?$AAj?$AA?9?$AAS?$AAE@ 100248b0     libucrt:lcidtoname_downlevel.obj
 0002:000048c0       ??_C@_1M@DHHMBNDP@?$AAa?$AAr?$AA?9?$AAM?$AAA@ 100248c0     libucrt:lcidtoname_downlevel.obj
 0002:000048cc       ??_C@_1M@BNBLJCGH@?$AAe?$AAn?$AA?9?$AAI?$AAE@ 100248cc     libucrt:lcidtoname_downlevel.obj
 0002:000048d8       ??_C@_1M@GEPAFMDL@?$AAe?$AAs?$AA?9?$AAP?$AAA@ 100248d8     libucrt:lcidtoname_downlevel.obj
 0002:000048e4       ??_C@_1M@OJONDMDL@?$AAf?$AAr?$AA?9?$AAM?$AAC@ 100248e4     libucrt:lcidtoname_downlevel.obj
 0002:000048f0       ??_C@_1BG@OBCNFJB@?$AAs?$AAr?$AA?9?$AAB?$AAA?$AA?9?$AAL?$AAa?$AAt?$AAn@ 100248f0     libucrt:lcidtoname_downlevel.obj
 0002:00004908       ??_C@_1O@KEMEEGPO@?$AAs?$AAm?$AAa?$AA?9?$AAN?$AAO@ 10024908     libucrt:lcidtoname_downlevel.obj
 0002:00004918       ??_C@_1M@ELMGFODK@?$AAa?$AAr?$AA?9?$AAT?$AAN@ 10024918     libucrt:lcidtoname_downlevel.obj
 0002:00004924       ??_C@_1M@BHDLHFAF@?$AAe?$AAn?$AA?9?$AAZ?$AAA@ 10024924     libucrt:lcidtoname_downlevel.obj
 0002:00004930       ??_C@_1M@BMGIGLIF@?$AAe?$AAs?$AA?9?$AAD?$AAO@ 10024930     libucrt:lcidtoname_downlevel.obj
 0002:0000493c       ??_C@_1BG@CMBHIPBE@?$AAs?$AAr?$AA?9?$AAB?$AAA?$AA?9?$AAC?$AAy?$AAr?$AAl@ 1002493c     libucrt:lcidtoname_downlevel.obj
 0002:00004954       ??_C@_1O@HEDBLHNP@?$AAs?$AAm?$AAa?$AA?9?$AAS?$AAE@ 10024954     libucrt:lcidtoname_downlevel.obj
 0002:00004964       ??_C@_1M@DAGCADIM@?$AAa?$AAr?$AA?9?$AAO?$AAM@ 10024964     libucrt:lcidtoname_downlevel.obj
 0002:00004970       ??_C@_1M@FODLMICG@?$AAe?$AAn?$AA?9?$AAJ?$AAM@ 10024970     libucrt:lcidtoname_downlevel.obj
 0002:0000497c       ??_C@_1M@DNMLCIHB@?$AAe?$AAs?$AA?9?$AAV?$AAE@ 1002497c     libucrt:lcidtoname_downlevel.obj
 0002:00004988       ??_C@_1O@EOKHMKJK@?$AAs?$AAm?$AAs?$AA?9?$AAF?$AAI@ 10024988     libucrt:lcidtoname_downlevel.obj
 0002:00004998       ??_C@_1M@CAFJMKOF@?$AAa?$AAr?$AA?9?$AAY?$AAE@ 10024998     libucrt:lcidtoname_downlevel.obj
 0002:000049a4       ??_C@_1M@CBFHIJLI@?$AAe?$AAn?$AA?9?$AAC?$AAB@ 100249a4     libucrt:lcidtoname_downlevel.obj
 0002:000049b0       ??_C@_1M@BGNFLDN@?$AAe?$AAs?$AA?9?$AAC?$AAO@ 100249b0     libucrt:lcidtoname_downlevel.obj
 0002:000049bc       ??_C@_1O@JMPHMAMC@?$AAs?$AAm?$AAn?$AA?9?$AAF?$AAI@ 100249bc     libucrt:lcidtoname_downlevel.obj
 0002:000049cc       ??_C@_1M@JLANABKE@?$AAa?$AAr?$AA?9?$AAS?$AAY@ 100249cc     libucrt:lcidtoname_downlevel.obj
 0002:000049d8       ??_C@_1M@HPKGCFGN@?$AAe?$AAn?$AA?9?$AAB?$AAZ@ 100249d8     libucrt:lcidtoname_downlevel.obj
 0002:000049e4       ??_C@_1M@OLJCMLGM@?$AAe?$AAs?$AA?9?$AAP?$AAE@ 100249e4     libucrt:lcidtoname_downlevel.obj
 0002:000049f0       ??_C@_1M@MKKGFKLE@?$AAa?$AAr?$AA?9?$AAJ?$AAO@ 100249f0     libucrt:lcidtoname_downlevel.obj
 0002:000049fc       ??_C@_1M@EKPGLDNI@?$AAe?$AAn?$AA?9?$AAT?$AAT@ 100249fc     libucrt:lcidtoname_downlevel.obj
 0002:00004a08       ??_C@_1M@OONGHFHE@?$AAe?$AAs?$AA?9?$AAA?$AAR@ 10024a08     libucrt:lcidtoname_downlevel.obj
 0002:00004a14       ??_C@_1M@OOJFGBHE@?$AAa?$AAr?$AA?9?$AAL?$AAB@ 10024a14     libucrt:lcidtoname_downlevel.obj
 0002:00004a20       ??_C@_1M@GCEJHNEG@?$AAe?$AAn?$AA?9?$AAZ?$AAW@ 10024a20     libucrt:lcidtoname_downlevel.obj
 0002:00004a2c       ??_C@_1M@JNOCAHJI@?$AAe?$AAs?$AA?9?$AAE?$AAC@ 10024a2c     libucrt:lcidtoname_downlevel.obj
 0002:00004a38       ??_C@_1M@JEFHPGGB@?$AAa?$AAr?$AA?9?$AAK?$AAW@ 10024a38     libucrt:lcidtoname_downlevel.obj
 0002:00004a44       ??_C@_1M@MLKIBJOJ@?$AAe?$AAn?$AA?9?$AAP?$AAH@ 10024a44     libucrt:lcidtoname_downlevel.obj
 0002:00004a50       ??_C@_1M@BDNIPEND@?$AAe?$AAs?$AA?9?$AAC?$AAL@ 10024a50     libucrt:lcidtoname_downlevel.obj
 0002:00004a5c       ??_C@_1M@MPNMEKBD@?$AAa?$AAr?$AA?9?$AAA?$AAE@ 10024a5c     libucrt:lcidtoname_downlevel.obj
 0002:00004a68       ??_C@_1M@KBJALCPI@?$AAe?$AAs?$AA?9?$AAU?$AAY@ 10024a68     libucrt:lcidtoname_downlevel.obj
 0002:00004a74       ??_C@_1M@LLCCOAGA@?$AAa?$AAr?$AA?9?$AAB?$AAH@ 10024a74     libucrt:lcidtoname_downlevel.obj
 0002:00004a80       ??_C@_1M@PBFNCDEL@?$AAe?$AAs?$AA?9?$AAP?$AAY@ 10024a80     libucrt:lcidtoname_downlevel.obj
 0002:00004a8c       ??_C@_1M@EDGINPNP@?$AAa?$AAr?$AA?9?$AAQ?$AAA@ 10024a8c     libucrt:lcidtoname_downlevel.obj
 0002:00004a98       ??_C@_1M@MKDBIIJI@?$AAe?$AAs?$AA?9?$AAB?$AAO@ 10024a98     libucrt:lcidtoname_downlevel.obj
 0002:00004aa4       ??_C@_1M@CPKKEBLD@?$AAe?$AAs?$AA?9?$AAS?$AAV@ 10024aa4     libucrt:lcidtoname_downlevel.obj
 0002:00004ab0       ??_C@_1M@NDBGMMJL@?$AAe?$AAs?$AA?9?$AAH?$AAN@ 10024ab0     libucrt:lcidtoname_downlevel.obj
 0002:00004abc       ??_C@_1M@JIJIBHDP@?$AAe?$AAs?$AA?9?$AAN?$AAI@ 10024abc     libucrt:lcidtoname_downlevel.obj
 0002:00004ac8       ??_C@_1M@CGFMKEEK@?$AAe?$AAs?$AA?9?$AAP?$AAR@ 10024ac8     libucrt:lcidtoname_downlevel.obj
 0002:00004ad4       ??_C@_1O@ICJHKIIK@?$AAz?$AAh?$AA?9?$AAC?$AAH?$AAT@ 10024ad4     libucrt:lcidtoname_downlevel.obj
 0002:00004ae4       ??_C@_15CLNEJCE@?$AAs?$AAr@ 10024ae4     libucrt:lcidtoname_downlevel.obj
 0002:00005210       ??_C@_1M@KAHEKEIG@?$AAa?$AAf?$AA?9?$AAz?$AAa@ 10025210     libucrt:lcidtoname_downlevel.obj
 0002:0000521c       ??_C@_1M@GIECOABL@?$AAa?$AAr?$AA?9?$AAa?$AAe@ 1002521c     libucrt:lcidtoname_downlevel.obj
 0002:00005228       ??_C@_1M@BMLMEKGI@?$AAa?$AAr?$AA?9?$AAb?$AAh@ 10025228     libucrt:lcidtoname_downlevel.obj
 0002:00005234       ??_C@_1M@DAPFDGGB@?$AAa?$AAr?$AA?9?$AAd?$AAz@ 10025234     libucrt:lcidtoname_downlevel.obj
 0002:00005240       ??_C@_1M@FJNKGKIG@?$AAa?$AAr?$AA?9?$AAe?$AAg@ 10025240     libucrt:lcidtoname_downlevel.obj
 0002:0000524c       ??_C@_1M@FLGKKCLO@?$AAa?$AAr?$AA?9?$AAi?$AAq@ 1002524c     libucrt:lcidtoname_downlevel.obj
 0002:00005258       ??_C@_1M@GNDIPALM@?$AAa?$AAr?$AA?9?$AAj?$AAo@ 10025258     libucrt:lcidtoname_downlevel.obj
 0002:00005264       ??_C@_1M@DDMJFMGJ@?$AAa?$AAr?$AA?9?$AAk?$AAw@ 10025264     libucrt:lcidtoname_downlevel.obj
 0002:00005270       ??_C@_1M@EJALMLHM@?$AAa?$AAr?$AA?9?$AAl?$AAb@ 10025270     libucrt:lcidtoname_downlevel.obj
 0002:0000527c       ??_C@_1M@MOBDBLOC@?$AAa?$AAr?$AA?9?$AAl?$AAy@ 1002527c     libucrt:lcidtoname_downlevel.obj
 0002:00005288       ??_C@_1M@JAOCLHDH@?$AAa?$AAr?$AA?9?$AAm?$AAa@ 10025288     libucrt:lcidtoname_downlevel.obj
 0002:00005294       ??_C@_1M@JHPMKJIE@?$AAa?$AAr?$AA?9?$AAo?$AAm@ 10025294     libucrt:lcidtoname_downlevel.obj
 0002:000052a0       ??_C@_1M@OEPGHFNH@?$AAa?$AAr?$AA?9?$AAq?$AAa@ 100252a0     libucrt:lcidtoname_downlevel.obj
 0002:000052ac       ??_C@_1M@KJDONENM@?$AAa?$AAr?$AA?9?$AAs?$AAa@ 100252ac     libucrt:lcidtoname_downlevel.obj
 0002:000052b8       ??_C@_1M@DMJDKLKM@?$AAa?$AAr?$AA?9?$AAs?$AAy@ 100252b8     libucrt:lcidtoname_downlevel.obj
 0002:000052c4       ??_C@_1M@OMFIPEDC@?$AAa?$AAr?$AA?9?$AAt?$AAn@ 100252c4     libucrt:lcidtoname_downlevel.obj
 0002:000052d0       ??_C@_1M@IHMHGAON@?$AAa?$AAr?$AA?9?$AAy?$AAe@ 100252d0     libucrt:lcidtoname_downlevel.obj
 0002:000052dc       ??_C@_1BG@KDCPGJGB@?$AAa?$AAz?$AA?9?$AAa?$AAz?$AA?9?$AAc?$AAy?$AAr?$AAl@ 100252dc     libucrt:lcidtoname_downlevel.obj
 0002:000052f4       ??_C@_1BG@IBCKDDOE@?$AAa?$AAz?$AA?9?$AAa?$AAz?$AA?9?$AAl?$AAa?$AAt?$AAn@ 100252f4     libucrt:lcidtoname_downlevel.obj
 0002:0000530c       ??_C@_1M@EGPFDCPD@?$AAb?$AAe?$AA?9?$AAb?$AAy@ 1002530c     libucrt:lcidtoname_downlevel.obj
 0002:00005318       ??_C@_1M@PCMGMCGC@?$AAb?$AAg?$AA?9?$AAb?$AAg@ 10025318     libucrt:lcidtoname_downlevel.obj
 0002:00005324       ??_C@_1M@BJBMFGOB@?$AAb?$AAn?$AA?9?$AAi?$AAn@ 10025324     libucrt:lcidtoname_downlevel.obj
 0002:00005330       ??_C@_1BG@EAKMMACD@?$AAb?$AAs?$AA?9?$AAb?$AAa?$AA?9?$AAl?$AAa?$AAt?$AAn@ 10025330     libucrt:lcidtoname_downlevel.obj
 0002:00005348       ??_C@_1M@KGADAODK@?$AAc?$AAa?$AA?9?$AAe?$AAs@ 10025348     libucrt:lcidtoname_downlevel.obj
 0002:00005354       ??_C@_1M@COAJPDHI@?$AAc?$AAs?$AA?9?$AAc?$AAz@ 10025354     libucrt:lcidtoname_downlevel.obj
 0002:00005360       ??_C@_1M@DHBHFONH@?$AAc?$AAy?$AA?9?$AAg?$AAb@ 10025360     libucrt:lcidtoname_downlevel.obj
 0002:0000536c       ??_C@_1M@IMGKELGA@?$AAd?$AAa?$AA?9?$AAd?$AAk@ 1002536c     libucrt:lcidtoname_downlevel.obj
 0002:00005378       ??_C@_1M@NNDGDNGA@?$AAd?$AAe?$AA?9?$AAa?$AAt@ 10025378     libucrt:lcidtoname_downlevel.obj
 0002:00005384       ??_C@_1M@IKDBHEEM@?$AAd?$AAe?$AA?9?$AAc?$AAh@ 10025384     libucrt:lcidtoname_downlevel.obj
 0002:00005390       ??_C@_1M@GFFOJMCJ@?$AAd?$AAe?$AA?9?$AAd?$AAe@ 10025390     libucrt:lcidtoname_downlevel.obj
 0002:0000539c       ??_C@_1M@MDNLKBPM@?$AAd?$AAe?$AA?9?$AAl?$AAi@ 1002539c     libucrt:lcidtoname_downlevel.obj
 0002:000053a8       ??_C@_1M@NJBEEJNL@?$AAd?$AAe?$AA?9?$AAl?$AAu@ 100253a8     libucrt:lcidtoname_downlevel.obj
 0002:000053b4       ??_C@_1O@GNNELBAP@?$AAd?$AAi?$AAv?$AA?9?$AAm?$AAv@ 100253b4     libucrt:lcidtoname_downlevel.obj
 0002:000053c4       ??_C@_1M@EJLEOGAE@?$AAe?$AAl?$AA?9?$AAg?$AAr@ 100253c4     libucrt:lcidtoname_downlevel.obj
 0002:000053d0       ??_C@_1M@GMPONJN@?$AAe?$AAn?$AA?9?$AAa?$AAu@ 100253d0     libucrt:lcidtoname_downlevel.obj
 0002:000053dc       ??_C@_1M@NIDIIPGF@?$AAe?$AAn?$AA?9?$AAb?$AAz@ 100253dc     libucrt:lcidtoname_downlevel.obj
 0002:000053e8       ??_C@_1M@JEHMIMFO@?$AAe?$AAn?$AA?9?$AAc?$AAa@ 100253e8     libucrt:lcidtoname_downlevel.obj
 0002:000053f4       ??_C@_1M@IGMJCDLA@?$AAe?$AAn?$AA?9?$AAc?$AAb@ 100253f4     libucrt:lcidtoname_downlevel.obj
 0002:00005400       ??_C@_1M@BNFIGBKG@?$AAe?$AAn?$AA?9?$AAg?$AAb@ 10025400     libucrt:lcidtoname_downlevel.obj
 0002:0000540c       ??_C@_1M@LKIFDIGP@?$AAe?$AAn?$AA?9?$AAi?$AAe@ 1002540c     libucrt:lcidtoname_downlevel.obj
 0002:00005418       ??_C@_1M@PJKFGCCO@?$AAe?$AAn?$AA?9?$AAj?$AAm@ 10025418     libucrt:lcidtoname_downlevel.obj
 0002:00005424       ??_C@_1M@KPPKEPBO@?$AAe?$AAn?$AA?9?$AAn?$AAz@ 10025424     libucrt:lcidtoname_downlevel.obj
 0002:00005430       ??_C@_1M@GMDGLDOB@?$AAe?$AAn?$AA?9?$AAp?$AAh@ 10025430     libucrt:lcidtoname_downlevel.obj
 0002:0000543c       ??_C@_1M@ONGIBJNA@?$AAe?$AAn?$AA?9?$AAt?$AAt@ 1002543c     libucrt:lcidtoname_downlevel.obj
 0002:00005448       ??_C@_1M@LLODPCMM@?$AAe?$AAn?$AA?9?$AAu?$AAs@ 10025448     libucrt:lcidtoname_downlevel.obj
 0002:00005454       ??_C@_1M@LAKFNPAN@?$AAe?$AAn?$AA?9?$AAz?$AAa@ 10025454     libucrt:lcidtoname_downlevel.obj
 0002:00005460       ??_C@_1M@MFNHNHEO@?$AAe?$AAn?$AA?9?$AAz?$AAw@ 10025460     libucrt:lcidtoname_downlevel.obj
 0002:0000546c       ??_C@_1M@EJEINPHM@?$AAe?$AAs?$AA?9?$AAa?$AAr@ 1002546c     libucrt:lcidtoname_downlevel.obj
 0002:00005478       ??_C@_1M@GNKPCCJA@?$AAe?$AAs?$AA?9?$AAb?$AAo@ 10025478     libucrt:lcidtoname_downlevel.obj
 0002:00005484       ??_C@_1M@LEEGFONL@?$AAe?$AAs?$AA?9?$AAc?$AAl@ 10025484     libucrt:lcidtoname_downlevel.obj
 0002:00005490       ??_C@_1M@KGPDPBDF@?$AAe?$AAs?$AA?9?$AAc?$AAo@ 10025490     libucrt:lcidtoname_downlevel.obj
 0002:0000549c       ??_C@_1M@EIAHOHH@?$AAe?$AAs?$AA?9?$AAc?$AAr@ 1002549c     libucrt:lcidtoname_downlevel.obj
 0002:000054a8       ??_C@_1M@LLPGMBIN@?$AAe?$AAs?$AA?9?$AAd?$AAo@ 100254a8     libucrt:lcidtoname_downlevel.obj
 0002:000054b4       ??_C@_1M@DKHMKNJA@?$AAe?$AAs?$AA?9?$AAe?$AAc@ 100254b4     libucrt:lcidtoname_downlevel.obj
 0002:000054c0       ??_C@_1M@GKGFPKAP@?$AAe?$AAs?$AA?9?$AAe?$AAs@ 100254c0     libucrt:lcidtoname_downlevel.obj
 0002:000054cc       ??_C@_1M@LKHKGDLN@?$AAe?$AAs?$AA?9?$AAg?$AAt@ 100254cc     libucrt:lcidtoname_downlevel.obj
 0002:000054d8       ??_C@_1M@HEIIGGJD@?$AAe?$AAs?$AA?9?$AAh?$AAn@ 100254d8     libucrt:lcidtoname_downlevel.obj
 0002:000054e4       ??_C@_1M@FBDHPPGD@?$AAe?$AAs?$AA?9?$AAm?$AAx@ 100254e4     libucrt:lcidtoname_downlevel.obj
 0002:000054f0       ??_C@_1M@DPAGLNDH@?$AAe?$AAs?$AA?9?$AAn?$AAi@ 100254f0     libucrt:lcidtoname_downlevel.obj
 0002:000054fc       ??_C@_1M@MDGOPGDD@?$AAe?$AAs?$AA?9?$AAp?$AAa@ 100254fc     libucrt:lcidtoname_downlevel.obj
 0002:00005508       ??_C@_1M@EMAMGBGE@?$AAe?$AAs?$AA?9?$AAp?$AAe@ 10025508     libucrt:lcidtoname_downlevel.obj
 0002:00005514       ??_C@_1M@IBMCAOEC@?$AAe?$AAs?$AA?9?$AAp?$AAr@ 10025514     libucrt:lcidtoname_downlevel.obj
 0002:00005520       ??_C@_1M@FGMDIJED@?$AAe?$AAs?$AA?9?$AAp?$AAy@ 10025520     libucrt:lcidtoname_downlevel.obj
 0002:0000552c       ??_C@_1M@IIDEOLLL@?$AAe?$AAs?$AA?9?$AAs?$AAv@ 1002552c     libucrt:lcidtoname_downlevel.obj
 0002:00005538       ??_C@_1M@GAOBIPA@?$AAe?$AAs?$AA?9?$AAu?$AAy@ 10025538     libucrt:lcidtoname_downlevel.obj
 0002:00005544       ??_C@_1M@JKFFICHJ@?$AAe?$AAs?$AA?9?$AAv?$AAe@ 10025544     libucrt:lcidtoname_downlevel.obj
 0002:00005550       ??_C@_1M@PNMLOJDF@?$AAe?$AAt?$AA?9?$AAe?$AAe@ 10025550     libucrt:lcidtoname_downlevel.obj
 0002:0000555c       ??_C@_1M@GHHLIKEI@?$AAe?$AAu?$AA?9?$AAe?$AAs@ 1002555c     libucrt:lcidtoname_downlevel.obj
 0002:00005568       ??_C@_1M@PBNONODE@?$AAf?$AAa?$AA?9?$AAi?$AAr@ 10025568     libucrt:lcidtoname_downlevel.obj
 0002:00005574       ??_C@_1M@JEEHPMIL@?$AAf?$AAi?$AA?9?$AAf?$AAi@ 10025574     libucrt:lcidtoname_downlevel.obj
 0002:00005580       ??_C@_1M@LMDCNDBA@?$AAf?$AAo?$AA?9?$AAf?$AAo@ 10025580     libucrt:lcidtoname_downlevel.obj
 0002:0000558c       ??_C@_1M@JKEOHLDK@?$AAf?$AAr?$AA?9?$AAb?$AAe@ 1002558c     libucrt:lcidtoname_downlevel.obj
 0002:00005598       ??_C@_1M@NOHADPMI@?$AAf?$AAr?$AA?9?$AAc?$AAa@ 10025598     libucrt:lcidtoname_downlevel.obj
 0002:000055a4       ??_C@_1M@KDHIHAEC@?$AAf?$AAr?$AA?9?$AAc?$AAh@ 100255a4     libucrt:lcidtoname_downlevel.obj
 0002:000055b0       ??_C@_1M@MMBBFGAK@?$AAf?$AAr?$AA?9?$AAf?$AAr@ 100255b0     libucrt:lcidtoname_downlevel.obj
 0002:000055bc       ??_C@_1M@PAFNENNF@?$AAf?$AAr?$AA?9?$AAl?$AAu@ 100255bc     libucrt:lcidtoname_downlevel.obj
 0002:000055c8       ??_C@_1M@EOHDJGDD@?$AAf?$AAr?$AA?9?$AAm?$AAc@ 100255c8     libucrt:lcidtoname_downlevel.obj
 0002:000055d4       ??_C@_1M@FAPLLOPF@?$AAg?$AAl?$AA?9?$AAe?$AAs@ 100255d4     libucrt:lcidtoname_downlevel.obj
 0002:000055e0       ??_C@_1M@FOPBFLOO@?$AAg?$AAu?$AA?9?$AAi?$AAn@ 100255e0     libucrt:lcidtoname_downlevel.obj
 0002:000055ec       ??_C@_1M@KBMCINPM@?$AAh?$AAe?$AA?9?$AAi?$AAl@ 100255ec     libucrt:lcidtoname_downlevel.obj
 0002:000055f8       ??_C@_1M@BBPHKFPJ@?$AAh?$AAi?$AA?9?$AAi?$AAn@ 100255f8     libucrt:lcidtoname_downlevel.obj
 0002:00005604       ??_C@_1M@PMBNDPHD@?$AAh?$AAr?$AA?9?$AAb?$AAa@ 10025604     libucrt:lcidtoname_downlevel.obj
 0002:00005610       ??_C@_1M@BPCKOEGE@?$AAh?$AAr?$AA?9?$AAh?$AAr@ 10025610     libucrt:lcidtoname_downlevel.obj
 0002:0000561c       ??_C@_1M@GACBMHKE@?$AAh?$AAu?$AA?9?$AAh?$AAu@ 1002561c     libucrt:lcidtoname_downlevel.obj
 0002:00005628       ??_C@_1M@MILPAJJC@?$AAh?$AAy?$AA?9?$AAa?$AAm@ 10025628     libucrt:lcidtoname_downlevel.obj
 0002:00005634       ??_C@_1M@BABBICEC@?$AAi?$AAd?$AA?9?$AAi?$AAd@ 10025634     libucrt:lcidtoname_downlevel.obj
 0002:00005640       ??_C@_1M@BIKNHHPF@?$AAi?$AAs?$AA?9?$AAi?$AAs@ 10025640     libucrt:lcidtoname_downlevel.obj
 0002:0000564c       ??_C@_1M@NMPCJPHE@?$AAi?$AAt?$AA?9?$AAc?$AAh@ 1002564c     libucrt:lcidtoname_downlevel.obj
 0002:00005658       ??_C@_1M@GHKGFEDF@?$AAi?$AAt?$AA?9?$AAi?$AAt@ 10025658     libucrt:lcidtoname_downlevel.obj
 0002:00005664       ??_C@_1M@NIEJCJJA@?$AAj?$AAa?$AA?9?$AAj?$AAp@ 10025664     libucrt:lcidtoname_downlevel.obj
 0002:00005670       ??_C@_1M@JILFNBIM@?$AAk?$AAa?$AA?9?$AAg?$AAe@ 10025670     libucrt:lcidtoname_downlevel.obj
 0002:0000567c       ??_C@_1M@PACPMGPH@?$AAk?$AAk?$AA?9?$AAk?$AAz@ 1002567c     libucrt:lcidtoname_downlevel.obj
 0002:00005688       ??_C@_1M@IELFGMHA@?$AAk?$AAn?$AA?9?$AAi?$AAn@ 10025688     libucrt:lcidtoname_downlevel.obj
 0002:00005694       ??_C@_1O@IBBJHCH@?$AAk?$AAo?$AAk?$AA?9?$AAi?$AAn@ 10025694     libucrt:lcidtoname_downlevel.obj
 0002:000056a4       ??_C@_1M@DMHAEOGC@?$AAk?$AAo?$AA?9?$AAk?$AAr@ 100256a4     libucrt:lcidtoname_downlevel.obj
 0002:000056b0       ??_C@_1M@HBAHBIGA@?$AAk?$AAy?$AA?9?$AAk?$AAg@ 100256b0     libucrt:lcidtoname_downlevel.obj
 0002:000056bc       ??_C@_1M@KPMILCJG@?$AAl?$AAt?$AA?9?$AAl?$AAt@ 100256bc     libucrt:lcidtoname_downlevel.obj
 0002:000056c8       ??_C@_1M@BDEKKCA@?$AAl?$AAv?$AA?9?$AAl?$AAv@ 100256c8     libucrt:lcidtoname_downlevel.obj
 0002:000056d4       ??_C@_1M@ELCKCCJJ@?$AAm?$AAi?$AA?9?$AAn?$AAz@ 100256d4     libucrt:lcidtoname_downlevel.obj
 0002:000056e0       ??_C@_1M@CBOOLAPA@?$AAm?$AAk?$AA?9?$AAm?$AAk@ 100256e0     libucrt:lcidtoname_downlevel.obj
 0002:000056ec       ??_C@_1M@GPHNBJKN@?$AAm?$AAl?$AA?9?$AAi?$AAn@ 100256ec     libucrt:lcidtoname_downlevel.obj
 0002:000056f8       ??_C@_1M@PABJILIG@?$AAm?$AAn?$AA?9?$AAm?$AAn@ 100256f8     libucrt:lcidtoname_downlevel.obj
 0002:00005704       ??_C@_1M@FGBKKIPG@?$AAm?$AAr?$AA?9?$AAi?$AAn@ 10025704     libucrt:lcidtoname_downlevel.obj
 0002:00005710       ??_C@_1M@NDBPDDAL@?$AAm?$AAs?$AA?9?$AAb?$AAn@ 10025710     libucrt:lcidtoname_downlevel.obj
 0002:0000571c       ??_C@_1M@OPIHOOPI@?$AAm?$AAs?$AA?9?$AAm?$AAy@ 1002571c     libucrt:lcidtoname_downlevel.obj
 0002:00005728       ??_C@_1M@PPDBCNFM@?$AAm?$AAt?$AA?9?$AAm?$AAt@ 10025728     libucrt:lcidtoname_downlevel.obj
 0002:00005734       ??_C@_1M@KDJDKMDD@?$AAn?$AAb?$AA?9?$AAn?$AAo@ 10025734     libucrt:lcidtoname_downlevel.obj
 0002:00005740       ??_C@_1M@KFCFLMJP@?$AAn?$AAl?$AA?9?$AAb?$AAe@ 10025740     libucrt:lcidtoname_downlevel.obj
 0002:0000574c       ??_C@_1M@KPOPDDGO@?$AAn?$AAl?$AA?9?$AAn?$AAl@ 1002574c     libucrt:lcidtoname_downlevel.obj
 0002:00005758       ??_C@_1M@LJKPEMLN@?$AAn?$AAn?$AA?9?$AAn?$AAo@ 10025758     libucrt:lcidtoname_downlevel.obj
 0002:00005764       ??_C@_1M@BDGHHBFL@?$AAn?$AAs?$AA?9?$AAz?$AAa@ 10025764     libucrt:lcidtoname_downlevel.obj
 0002:00005770       ??_C@_1M@IDEHOAP@?$AAp?$AAa?$AA?9?$AAi?$AAn@ 10025770     libucrt:lcidtoname_downlevel.obj
 0002:0000577c       ??_C@_1M@HDBKGOGH@?$AAp?$AAl?$AA?9?$AAp?$AAl@ 1002577c     libucrt:lcidtoname_downlevel.obj
 0002:00005788       ??_C@_1M@LJLLCMEH@?$AAp?$AAt?$AA?9?$AAb?$AAr@ 10025788     libucrt:lcidtoname_downlevel.obj
 0002:00005794       ??_C@_1M@NCMONAAL@?$AAp?$AAt?$AA?9?$AAp?$AAt@ 10025794     libucrt:lcidtoname_downlevel.obj
 0002:000057a0       ??_C@_1O@EAKMAJDN@?$AAq?$AAu?$AAz?$AA?9?$AAb?$AAo@ 100257a0     libucrt:lcidtoname_downlevel.obj
 0002:000057b0       ??_C@_1O@BHHPIGDN@?$AAq?$AAu?$AAz?$AA?9?$AAe?$AAc@ 100257b0     libucrt:lcidtoname_downlevel.obj
 0002:000057c0       ??_C@_1O@GBAPEKMJ@?$AAq?$AAu?$AAz?$AA?9?$AAp?$AAe@ 100257c0     libucrt:lcidtoname_downlevel.obj
 0002:000057d0       ??_C@_1M@CLGLEFBO@?$AAr?$AAo?$AA?9?$AAr?$AAo@ 100257d0     libucrt:lcidtoname_downlevel.obj
 0002:000057dc       ??_C@_1M@CEEDODME@?$AAr?$AAu?$AA?9?$AAr?$AAu@ 100257dc     libucrt:lcidtoname_downlevel.obj
 0002:000057e8       ??_C@_1M@HPKKKMPP@?$AAs?$AAa?$AA?9?$AAi?$AAn@ 100257e8     libucrt:lcidtoname_downlevel.obj
 0002:000057f4       ??_C@_1M@BKMAIGOJ@?$AAs?$AAe?$AA?9?$AAf?$AAi@ 100257f4     libucrt:lcidtoname_downlevel.obj
 0002:00005800       ??_C@_1M@NDPIFLFI@?$AAs?$AAe?$AA?9?$AAn?$AAo@ 10025800     libucrt:lcidtoname_downlevel.obj
 0002:0000580c       ??_C@_1M@DANKKHJ@?$AAs?$AAe?$AA?9?$AAs?$AAe@ 1002580c     libucrt:lcidtoname_downlevel.obj
 0002:00005818       ??_C@_1M@PNBLONPJ@?$AAs?$AAk?$AA?9?$AAs?$AAk@ 10025818     libucrt:lcidtoname_downlevel.obj
 0002:00005824       ??_C@_1M@LFMODOAL@?$AAs?$AAl?$AA?9?$AAs?$AAi@ 10025824     libucrt:lcidtoname_downlevel.obj
 0002:00005830       ??_C@_1O@DFKOMPG@?$AAs?$AAm?$AAa?$AA?9?$AAn?$AAo@ 10025830     libucrt:lcidtoname_downlevel.obj
 0002:00005840       ??_C@_1O@NDKPBNNH@?$AAs?$AAm?$AAa?$AA?9?$AAs?$AAe@ 10025840     libucrt:lcidtoname_downlevel.obj
 0002:00005850       ??_C@_1O@PLLKBHAB@?$AAs?$AAm?$AAj?$AA?9?$AAn?$AAo@ 10025850     libucrt:lcidtoname_downlevel.obj
 0002:00005860       ??_C@_1O@CLEPOGCA@?$AAs?$AAm?$AAj?$AA?9?$AAs?$AAe@ 10025860     libucrt:lcidtoname_downlevel.obj
 0002:00005870       ??_C@_1O@DLGJGKMK@?$AAs?$AAm?$AAn?$AA?9?$AAf?$AAi@ 10025870     libucrt:lcidtoname_downlevel.obj
 0002:00005880       ??_C@_1O@OJDJGAJC@?$AAs?$AAm?$AAs?$AA?9?$AAf?$AAi@ 10025880     libucrt:lcidtoname_downlevel.obj
 0002:00005890       ??_C@_1M@BOFOGHPB@?$AAs?$AAq?$AA?9?$AAa?$AAl@ 10025890     libucrt:lcidtoname_downlevel.obj
 0002:0000589c       ??_C@_1BG@LJBBIPGB@?$AAs?$AAr?$AA?9?$AAb?$AAa?$AA?9?$AAc?$AAy?$AAr?$AAl@ 1002589c     libucrt:lcidtoname_downlevel.obj
 0002:000058b4       ??_C@_1BG@JLBENFOE@?$AAs?$AAr?$AA?9?$AAb?$AAa?$AA?9?$AAl?$AAa?$AAt?$AAn@ 100258b4     libucrt:lcidtoname_downlevel.obj
 0002:000058cc       ??_C@_1BG@KODPNHE@?$AAs?$AAr?$AA?9?$AAs?$AAp?$AA?9?$AAc?$AAy?$AAr?$AAl@ 100258cc     libucrt:lcidtoname_downlevel.obj
 0002:000058e4       ??_C@_1BG@CIOGKHPB@?$AAs?$AAr?$AA?9?$AAs?$AAp?$AA?9?$AAl?$AAa?$AAt?$AAn@ 100258e4     libucrt:lcidtoname_downlevel.obj
 0002:000058fc       ??_C@_1M@NGFJLMAC@?$AAs?$AAv?$AA?9?$AAf?$AAi@ 100258fc     libucrt:lcidtoname_downlevel.obj
 0002:00005908       ??_C@_1M@MPJEJAJC@?$AAs?$AAv?$AA?9?$AAs?$AAe@ 10025908     libucrt:lcidtoname_downlevel.obj
 0002:00005914       ??_C@_1M@MPNDHLFK@?$AAs?$AAw?$AA?9?$AAk?$AAe@ 10025914     libucrt:lcidtoname_downlevel.obj
 0002:00005920       ??_C@_1O@KOHBJJI@?$AAs?$AAy?$AAr?$AA?9?$AAs?$AAy@ 10025920     libucrt:lcidtoname_downlevel.obj
 0002:00005930       ??_C@_1M@LDCEFHA@?$AAt?$AAa?$AA?9?$AAi?$AAn@ 10025930     libucrt:lcidtoname_downlevel.obj
 0002:0000593c       ??_C@_1M@CNJOFAK@?$AAt?$AAe?$AA?9?$AAi?$AAn@ 1002593c     libucrt:lcidtoname_downlevel.obj
 0002:00005948       ??_C@_1M@GNAECACD@?$AAt?$AAh?$AA?9?$AAt?$AAh@ 10025948     libucrt:lcidtoname_downlevel.obj
 0002:00005954       ??_C@_1M@CHBIHOJO@?$AAt?$AAn?$AA?9?$AAz?$AAa@ 10025954     libucrt:lcidtoname_downlevel.obj
 0002:00005960       ??_C@_1M@GCCMIGPJ@?$AAt?$AAr?$AA?9?$AAt?$AAr@ 10025960     libucrt:lcidtoname_downlevel.obj
 0002:0000596c       ??_C@_1M@CELMCNBK@?$AAt?$AAt?$AA?9?$AAr?$AAu@ 1002596c     libucrt:lcidtoname_downlevel.obj
 0002:00005978       ??_C@_1M@KLMCELGA@?$AAu?$AAk?$AA?9?$AAu?$AAa@ 10025978     libucrt:lcidtoname_downlevel.obj
 0002:00005984       ??_C@_1M@EPAJJAJF@?$AAu?$AAr?$AA?9?$AAp?$AAk@ 10025984     libucrt:lcidtoname_downlevel.obj
 0002:00005990       ??_C@_1BG@GEGPMCDJ@?$AAu?$AAz?$AA?9?$AAu?$AAz?$AA?9?$AAc?$AAy?$AAr?$AAl@ 10025990     libucrt:lcidtoname_downlevel.obj
 0002:000059a8       ??_C@_1BG@EGGKJILM@?$AAu?$AAz?$AA?9?$AAu?$AAz?$AA?9?$AAl?$AAa?$AAt?$AAn@ 100259a8     libucrt:lcidtoname_downlevel.obj
 0002:000059c0       ??_C@_1M@GFOCLFF@?$AAv?$AAi?$AA?9?$AAv?$AAn@ 100259c0     libucrt:lcidtoname_downlevel.obj
 0002:000059cc       ??_C@_1M@CPAMEDFI@?$AAx?$AAh?$AA?9?$AAz?$AAa@ 100259cc     libucrt:lcidtoname_downlevel.obj
 0002:000059d8       ??_C@_1O@EBKIFIGN@?$AAz?$AAh?$AA?9?$AAc?$AAh?$AAs@ 100259d8     libucrt:lcidtoname_downlevel.obj
 0002:000059e8       ??_C@_1O@NMHPGANE@?$AAz?$AAh?$AA?9?$AAc?$AAh?$AAt@ 100259e8     libucrt:lcidtoname_downlevel.obj
 0002:000059f8       ??_C@_1M@LPINJOMC@?$AAz?$AAh?$AA?9?$AAc?$AAn@ 100259f8     libucrt:lcidtoname_downlevel.obj
 0002:00005a04       ??_C@_1M@OCJEJODD@?$AAz?$AAh?$AA?9?$AAh?$AAk@ 10025a04     libucrt:lcidtoname_downlevel.obj
 0002:00005a10       ??_C@_1M@DNDLJINH@?$AAz?$AAh?$AA?9?$AAm?$AAo@ 10025a10     libucrt:lcidtoname_downlevel.obj
 0002:00005a1c       ??_C@_1M@MBFDNDND@?$AAz?$AAh?$AA?9?$AAs?$AAg@ 10025a1c     libucrt:lcidtoname_downlevel.obj
 0002:00005a28       ??_C@_1M@IMEPLEPE@?$AAz?$AAh?$AA?9?$AAt?$AAw@ 10025a28     libucrt:lcidtoname_downlevel.obj
 0002:00005a34       ??_C@_1M@BBGHNHJP@?$AAz?$AAu?$AA?9?$AAz?$AAa@ 10025a34     libucrt:lcidtoname_downlevel.obj
 0002:00005a40       ?large_power_data@?1??multiply_by_power_of_ten@__crt_strtox@@YA_NAAUbig_integer@2@I@Z@4QBIB 10025a40     libucrt:cfout.obj
 0002:00006348       ?large_power_indices@?1??multiply_by_power_of_ten@__crt_strtox@@YA_NAAUbig_integer@2@I@Z@4QBUunpack_index@?1??12@YA_N0I@Z@B 10026348     libucrt:cfout.obj
 0002:000063e0       ?small_powers_of_ten@?1??multiply_by_power_of_ten@__crt_strtox@@YA_NAAUbig_integer@2@I@Z@4QBIB 100263e0     libucrt:cfout.obj
 0002:00006404       ??_C@_01GBGANLPD@0@        10026404     libucrt:cfout.obj
 0002:00006408       ??_C@_05DNEBIAHO@1?$CDINF@ 10026408     libucrt:cfout.obj
 0002:00006410       ??_C@_06IMKFLFPG@1?$CDQNAN@ 10026410     libucrt:cfout.obj
 0002:00006418       ??_C@_06PGGFOGJG@1?$CDSNAN@ 10026418     libucrt:cfout.obj
 0002:00006420       ??_C@_05PHHOCPM@1?$CDIND@  10026420     libucrt:cfout.obj
 0002:00006590       __infinity                 10026590     libucrt:87tran.obj
 0002:0000659a       __minfinity                1002659a     libucrt:87tran.obj
 0002:000065a4       __logemax                  100265a4     libucrt:87tran.obj
 0002:000065ca       __OP_EXPjmptab             100265ca     libucrt:87tran.obj
 0002:000065f0       __indefinite               100265f0     libucrt:87disp.obj
 0002:000065fa       __piby2                    100265fa     libucrt:87disp.obj
 0002:00006604       __piby4                    10026604     libucrt:87disp.obj
 0002:00006638       __DEFAULT_CW_in_mem        10026638     libucrt:common.obj
 0002:0000663a       __pi_by_2_to_61            1002663a     libucrt:common.obj
 0002:00006674       ??_C@_03MGHMBJCF@log@      10026674     libucrt:libm_error.obj
 0002:00006678       ??_C@_05HGHHAHAP@log10@    10026678     libucrt:libm_error.obj
 0002:00006680       ??_C@_03KHJOGHMM@exp@      10026680     libucrt:libm_error.obj
 0002:00006684       ??_C@_03JGHBODFD@pow@      10026684     libucrt:libm_error.obj
 0002:00006688       ??_C@_04FIHNOPOL@asin@     10026688     libucrt:libm_error.obj
 0002:00006690       ??_C@_04PDIFKINK@acos@     10026690     libucrt:libm_error.obj
 0002:00006698       ??_C@_04EIAKFFMI@sqrt@     10026698     libucrt:libm_error.obj
 0002:000066a0       __real@3ff0000000000000    100266a0     libucrt:libm_error.obj
 0002:000066a8       ??_C@_1BA@BALFACEM@?$AAC?$AAO?$AAN?$AAO?$AAU?$AAT?$AA$@ 100266a8     libucrt:initcon.obj
 0002:000066d0       ___acrt_log10_table_t      100266d0     libucrt:log10_tables.obj
 0002:00006ae0       ___acrt_log10_table_cb     10026ae0     libucrt:log10_tables.obj
 0002:00006ef0       __real@3fe0000000000000    10026ef0     libucrt:powhlp.obj
 0002:00006fe0       ??_C@_04COOMCNPB@sinh@     10026fe0     libucrt:fpexcept.obj
 0002:00006fe8       ??_C@_04HPJJNFIM@cosh@     10026fe8     libucrt:fpexcept.obj
 0002:00006ff0       ??_C@_04FJHINJAO@tanh@     10026ff0     libucrt:fpexcept.obj
 0002:00006ff8       ??_C@_04MLLJIGOK@atan@     10026ff8     libucrt:fpexcept.obj
 0002:00007000       ??_C@_05KNGEOGJB@atan2@    10027000     libucrt:fpexcept.obj
 0002:00007008       ??_C@_03BLEJJJBH@sin@      10027008     libucrt:fpexcept.obj
 0002:0000700c       ??_C@_03LALBNOCG@cos@      1002700c     libucrt:fpexcept.obj
 0002:00007010       ??_C@_03IIINPABG@tan@      10027010     libucrt:fpexcept.obj
 0002:00007014       ??_C@_04GFPJNGEK@ceil@     10027014     libucrt:fpexcept.obj
 0002:0000701c       ??_C@_05PBJFFIGL@floor@    1002701c     libucrt:fpexcept.obj
 0002:00007024       ??_C@_04ODHECPBC@fabs@     10027024     libucrt:fpexcept.obj
 0002:0000702c       ??_C@_04EHEDPDJG@modf@     1002702c     libucrt:fpexcept.obj
 0002:00007034       ??_C@_05CEJMAHNP@ldexp@    10027034     libucrt:fpexcept.obj
 0002:0000703c       ??_C@_05KBKMEMPO@_cabs@    1002703c     libucrt:fpexcept.obj
 0002:00007044       ??_C@_06MEIMCGCF@_hypot@   10027044     libucrt:fpexcept.obj
 0002:0000704c       ??_C@_04KEPJIHGP@fmod@     1002704c     libucrt:fpexcept.obj
 0002:00007054       ??_C@_05GKKHEGJL@frexp@    10027054     libucrt:fpexcept.obj
 0002:0000705c       ??_C@_03MJLDFKDL@_y0@      1002705c     libucrt:fpexcept.obj
 0002:00007060       ??_C@_03NAKIGLHK@_y1@      10027060     libucrt:fpexcept.obj
 0002:00007064       ??_C@_03ONILCKOB@_yn@      10027064     libucrt:fpexcept.obj
 0002:00007068       ??_C@_05JGDBENOH@_logb@    10027068     libucrt:fpexcept.obj
 0002:00007070       ??_C@_0L@KDOEJCKC@_nextafter@ 10027070     libucrt:fpexcept.obj
 0002:00007080       __d_inf                    10027080     libucrt:util.obj
 0002:00007088       __d_max                    10027088     libucrt:util.obj
 0002:00007090       __d_mzero                  10027090     libucrt:util.obj
 0002:00007100       __load_config_used         10027100     LIBCMT:loadcfg.obj
 0002:000071c0       __tls_used                 100271c0     LIBCMT:tlssup.obj
 0002:000071d8       ??_R4exception@std@@6B@    100271d8     LIBCMT:throw_bad_alloc.obj
 0002:000071ec       ??_R3exception@std@@8      100271ec     LIBCMT:throw_bad_alloc.obj
 0002:000071fc       ??_R2exception@std@@8      100271fc     LIBCMT:throw_bad_alloc.obj
 0002:00007204       ??_R1A@?0A@EA@exception@std@@8 10027204     LIBCMT:throw_bad_alloc.obj
 0002:00007220       ??_R4bad_alloc@std@@6B@    10027220     LIBCMT:throw_bad_alloc.obj
 0002:00007234       ??_R3bad_alloc@std@@8      10027234     LIBCMT:throw_bad_alloc.obj
 0002:00007244       ??_R2bad_alloc@std@@8      10027244     LIBCMT:throw_bad_alloc.obj
 0002:00007250       ??_R1A@?0A@EA@bad_alloc@std@@8 10027250     LIBCMT:throw_bad_alloc.obj
 0002:0000726c       ??_R4bad_array_new_length@std@@6B@ 1002726c     LIBCMT:throw_bad_alloc.obj
 0002:00007280       ??_R3bad_array_new_length@std@@8 10027280     LIBCMT:throw_bad_alloc.obj
 0002:00007290       ??_R2bad_array_new_length@std@@8 10027290     LIBCMT:throw_bad_alloc.obj
 0002:000072a0       ??_R1A@?0A@EA@bad_array_new_length@std@@8 100272a0     LIBCMT:throw_bad_alloc.obj
 0002:000072bc       ??_R4type_info@@6B@        100272bc     LIBCMT:std_type_info_static.obj
 0002:000072d0       ??_R3type_info@@8          100272d0     LIBCMT:std_type_info_static.obj
 0002:000072e0       ??_R2type_info@@8          100272e0     LIBCMT:std_type_info_static.obj
 0002:000072e8       ??_R1A@?0A@EA@type_info@@8 100272e8     LIBCMT:std_type_info_static.obj
 0002:00007304       ??_R4bad_exception@std@@6B@ 10027304     libvcruntime:frame.obj
 0002:00007318       ??_R3bad_exception@std@@8  10027318     libvcruntime:frame.obj
 0002:00007328       ??_R2bad_exception@std@@8  10027328     libvcruntime:frame.obj
 0002:00007334       ??_R1A@?0A@EA@bad_exception@std@@8 10027334     libvcruntime:frame.obj
 0002:00007350       ___safe_se_handler_table   10027350     <linker-defined>
 0002:0000737c       ___volatile_metadata       1002737c     <linker-defined>
 0002:000077b8       ___rtc_iaa                 100277b8     LIBCMT:initsect.obj
 0002:000077bc       ___rtc_izz                 100277bc     LIBCMT:initsect.obj
 0002:000077c0       ___rtc_taa                 100277c0     LIBCMT:initsect.obj
 0002:000077c4       ___rtc_tzz                 100277c4     LIBCMT:initsect.obj
 0002:000077c8       __tls_start                100277c8     LIBCMT:tlssup.obj
 0002:000077cc       __Init_thread_epoch        100277cc     LIBCMT:thread_safe_statics.obj
 0002:000077d0       __tls_end                  100277d0     LIBCMT:tlssup.obj
 0002:000078d4       __TI2?AVbad_alloc@std@@    100278d4     LIBCMT:throw_bad_alloc.obj
 0002:000078e4       __CTA2?AVbad_alloc@std@@   100278e4     LIBCMT:throw_bad_alloc.obj
 0002:000078f0       __CT??_R0?AVbad_alloc@std@@@8??0bad_alloc@std@@QAE@ABV01@@Z12 100278f0     LIBCMT:throw_bad_alloc.obj
 0002:0000790c       __CT??_R0?AVexception@std@@@8??0exception@std@@QAE@ABV01@@Z12 1002790c     LIBCMT:throw_bad_alloc.obj
 0002:00007928       __TI3?AVbad_array_new_length@std@@ 10027928     LIBCMT:throw_bad_alloc.obj
 0002:00007938       __CTA3?AVbad_array_new_length@std@@ 10027938     LIBCMT:throw_bad_alloc.obj
 0002:00007948       __CT??_R0?AVbad_array_new_length@std@@@8??0bad_array_new_length@std@@QAE@ABV01@@Z12 10027948     LIBCMT:throw_bad_alloc.obj
 0002:00007a6c       __TI2?AVbad_exception@std@@ 10027a6c     libvcruntime:frame.obj
 0002:00007a7c       __CTA2?AVbad_exception@std@@ 10027a7c     libvcruntime:frame.obj
 0002:00007a88       __CT??_R0?AVbad_exception@std@@@8??0bad_exception@std@@QAE@ABV01@@Z12 10027a88     libvcruntime:frame.obj
 0002:00007eb4       ___pobjMapEntryFirst       10027eb4     OposVariant.obj
 0002:00007eb8       ___pobjMapEntryLast        10027eb8     OposVariant.obj
 0002:00007f70       __IMPORT_DESCRIPTOR_KERNEL32 10027f70     kernel32:KERNEL32.dll
 0002:00007f84       __IMPORT_DESCRIPTOR_USER32 10027f84     user32:USER32.dll
 0002:00007f98       __IMPORT_DESCRIPTOR_GDI32  10027f98     gdi32:GDI32.dll
 0002:00007fac       __IMPORT_DESCRIPTOR_ADVAPI32 10027fac     advapi32:ADVAPI32.dll
 0002:00007fc0       __IMPORT_DESCRIPTOR_ole32  10027fc0     ole32:ole32.dll
 0002:00007fd4       __IMPORT_DESCRIPTOR_OLEAUT32 10027fd4     oleaut32:OLEAUT32.dll
 0002:00007fe8       __NULL_IMPORT_DESCRIPTOR   10027fe8     kernel32:KERNEL32.dll
 0003:00000000       ?rcDefault@CWindow@ATL@@2UtagRECT@@A 10029000     ToneIndicator.obj
 0003:00000010       ?s_Claim@?7??GetIDsOfNames@CComTypeInfoHolder@ATL@@QAEJABU_GUID@@PAPA_WIKPAJ@Z@4PA_WA 10029010     ToneIndicator.obj
 0003:00000028       ?s_Release@?7??GetIDsOfNames@CComTypeInfoHolder@ATL@@QAEJABU_GUID@@PAPA_WIKPAJ@Z@4PA_WA 10029028     ToneIndicator.obj
 0003:00000044       ?_tih@?$IDispatchImpl@UIOPOSToneIndicator@@$1?IID_IOPOSToneIndicator@@3U_GUID@@B$1?LIBID_OposToneIndicator_CCO@@3U3@B$00$0A@VCComTypeInfoHolder@ATL@@@ATL@@1VCComTypeInfoHolder@2@A 10029044     ToneIndicator.obj
 0003:00000060       ?_tih@?$IProvideClassInfo2Impl@$1?CLSID_OPOSToneIndicator@@3U_GUID@@B$1?DIID__IOPOSToneIndicatorEvents@@3U2@B$1?LIBID_OposToneIndicator_CCO@@3U2@B$00$0A@VCComTypeInfoHolder@ATL@@@ATL@@1VCComTypeInfoHolder@2@A 10029060     ToneIndicator.obj
 0003:0000007c       ?vszContents@?6??Save@?$IPersistStorageImpl@VCOPOSToneIndicator@@@ATL@@UAGJPAUIStorage@@H@Z@4PB_WB 1002907c     ToneIndicator.obj
 0003:00000080       ?wc@?1??GetWndClassInfo@?$CWindowImpl@VCOPOSToneIndicator@@VCWindow@ATL@@V?$CWinTraits@$0FGAAAAAA@$0A@@3@@ATL@@SAAAU_ATL_WNDCLASSINFOW@3@XZ@4U43@A 10029080     ToneIndicator.obj
 0003:00000158       ?g_WindowName@@3PA_WA      10029158     ToneIndicatorImpl.obj
 0003:00000188       ?g_ControlDescription@@3PADA 10029188     ToneIndicatorImpl.obj
 0003:000001d8       ?g_ControlVersion@@3JA     100291d8     ToneIndicatorImpl.obj
 0003:00000260       ___scrt_native_dllmain_reason 10029260     LIBCMT:utility.obj
 0003:00000264       __Init_global_epoch        10029264     LIBCMT:thread_safe_statics.obj
 0003:00000270       ___security_cookie_complement 10029270     LIBCMT:gs_cookie.obj
 0003:00000274       ___security_cookie         10029274     LIBCMT:gs_cookie.obj
 0003:00000278       ___isa_enabled             10029278     LIBCMT:cpu_disp.obj
 0003:00000290       __NLG_Destination          10029290     libvcruntime:exsup.obj
 0003:000002a8       ___abort_behavior          100292a8     libucrt:abort.obj
 0003:000002b8       ___acrt_initial_locale_data 100292b8     libucrt:nlsdata.obj
 0003:00000370       ___acrt_initial_locale_pointers 10029370     libucrt:nlsdata.obj
 0003:00000378       ___acrt_wide_c_locale_string 10029378     libucrt:nlsdata.obj
 0003:00000380       __iob                      10029380     libucrt:_file.obj
 0003:00000428       ___acrt_initial_multibyte_data 10029428     libucrt:mbctype.obj
 0003:00000948       ___acrt_lconv_c            10029948     libucrt:localeconv.obj
 0003:00000998       ___acrt_lconv_static_decimal 10029998     libucrt:localeconv.obj
 0003:0000099c       ___acrt_lconv_static_W_decimal 1002999c     libucrt:localeconv.obj
 0003:000009a0       ___globallocalestatus      100299a0     libucrt:glstatus.obj
 0003:000009b0       __lookuptrailbytes         100299b0     libucrt:read.obj
 0003:00000ac0       __fltused                  10029ac0     LIBCMT:fltused.obj
 0003:00000ad0       ??_R0?AVbad_alloc@std@@@8  10029ad0     LIBCMT:throw_bad_alloc.obj
 0003:00000aec       ??_R0?AVexception@std@@@8  10029aec     LIBCMT:throw_bad_alloc.obj
 0003:00000b08       ??_R0?AVbad_array_new_length@std@@@8 10029b08     LIBCMT:throw_bad_alloc.obj
 0003:00000b30       ??_R0?AVbad_exception@std@@@8 10029b30     libvcruntime:frame.obj
 0003:00000b50       ??_R0?AVtype_info@@@8      10029b50     LIBCMT:std_type_info_static.obj
 0003:00000b68       ?m_bInitFailed@CAtlBaseModule@ATL@@2_NA 10029b68     OposVariant.obj
 0003:00000b6c       ?_pPerfRegFunc@ATL@@3P6AJPAUHINSTANCE__@@@ZA 10029b6c     OposVariant.obj
 0003:00000b70       ?_pPerfUnRegFunc@ATL@@3P6AJXZA 10029b70     OposVariant.obj
 0003:00000b74       ?_AtlRegisterPerUser@ATL@@3_NA 10029b74     OposVariant.obj
 0003:00000b78       ?_pAtlModule@ATL@@3PAVCAtlModule@1@A 10029b78     OposVariant.obj
 0003:00000b7c       ?_pModule@ATL@@3PAVCComModule@1@A 10029b7c     OposVariant.obj
 0003:00000b80       ?_AtlComModule@ATL@@3VCAtlComModule@1@A 10029b80     OposVariant.obj
 0003:00000ba8       ?_AtlWinModule@ATL@@3VCAtlWinModule@1@A 10029ba8     OposVariant.obj
 0003:00000bd4       ?m_libid@CAtlModule@ATL@@2U_GUID@@A 10029bd4     ToneIndicator.obj
 0003:00000be4       ?_entries@?1??GetConnMap@COPOSToneIndicator@@SAPBU_ATL_CONNMAP_ENTRY@ATL@@PAH@Z@4QBU34@B 10029be4     ToneIndicator.obj
 0003:00000bf0       ?$TSS0@?1??GetConnMap@COPOSToneIndicator@@SAPBU_ATL_CONNMAP_ENTRY@ATL@@PAH@Z@4HA 10029bf0     ToneIndicator.obj
 0003:00000bf8       ?_OptionsStorage@?1??__local_stdio_printf_options@@9@4_KA 10029bf8     ToneIndicator.obj
 0003:00000c00       ?pfnRegDeleteKeyEx@?1??DeleteSubKey@CRegKey@ATL@@QAEJPB_W@Z@4P6GJPAUHKEY__@@0KK@ZA 10029c00     ToneIndicator.obj
 0003:00000c04       ?bInitialized@?1??DeleteSubKey@CRegKey@ATL@@QAEJPB_W@Z@4_NA 10029c04     ToneIndicator.obj
 0003:00000c08       ?_Module@@3VCComModule@ATL@@A 10029c08     ToneIndicator.obj
 0003:00000c38       ?pConnMap@?$IConnectionPointContainerImpl@VCOPOSToneIndicator@@@ATL@@0PBU_ATL_CONNMAP_ENTRY@2@B 10029c38     ToneIndicator.obj
 0003:00000c3c       ?s_nInstances@COPOSToneIndicator@@1HA 10029c3c     ToneIndicatorImpl.obj
 0003:00000c40       ___scrt_current_native_startup_state 10029c40     LIBCMT:utility.obj
 0003:00000c44       ___scrt_native_startup_lock 10029c44     LIBCMT:utility.obj
 0003:00000fac       __tls_index                10029fac     LIBCMT:tlssup.obj
 0003:00000fb4       ___isa_available           10029fb4     LIBCMT:cpu_disp.obj
 0003:00000fb8       ___favor                   10029fb8     LIBCMT:cpu_disp.obj
 0003:00000fbc       ___scrt_debugger_hook_flag 10029fbc     LIBCMT:utility_desktop.obj
 0003:00000fc0       ?__type_info_root_node@@3U__type_info_node@@A 10029fc0     LIBCMT:tncleanup.obj
 0003:00000fc8       ?_OptionsStorage@?1??__local_stdio_scanf_options@@9@4_KA 10029fc8     LIBCMT:default_local_stdio_options.obj
 0003:00000fd0       ?_AtlBaseModule@ATL@@3VCAtlBaseModule@1@A 10029fd0     atls:atlbase.obj
 0003:00001008       ?__AtlThunkPool@@3PAT_SLIST_HEADER@@A 1002a008     atls:atlthunk.obj
 0003:00001020       ___@@_PchSym_@00@UzABUPdlipUBAUhUrmgvinvwrzgvUexgllohUzgohOmzgrevkilqPBACIAJCBDBUlyqiUcIGUhgwzucOlyq@4B2008FD98C1DD4 1002a020     atls:stdafx.obj
 0003:00001024       ?__WinRTOutOfMemoryExceptionCallback@@3P6GPAXXZA 1002a024     libvcruntime:ehhelpers.obj
 0003:00001028       ___pPurecall               1002a028     libvcruntime:purevirt_data.obj
 0003:00001070       ?m_pGetParameter@UnDecorator@@0P6APADJ@ZA 1002a070     libvcruntime:undname.obj
 0003:00001074       ?m_CHPENameOffset@UnDecorator@@0KA 1002a074     libvcruntime:undname.obj
 0003:00001078       ?m_recursionLevel@UnDecorator@@0KA 1002a078     libvcruntime:undname.obj
 0003:0000107c       ?pArgList@UnDecorator@@0PAVReplicator@@A 1002a07c     libvcruntime:undname.obj
 0003:00001080       ?pZNameList@UnDecorator@@0PAVReplicator@@A 1002a080     libvcruntime:undname.obj
 0003:00001084       ?pTemplateArgList@UnDecorator@@0PAVReplicator@@A 1002a084     libvcruntime:undname.obj
 0003:00001088       ?gName@UnDecorator@@0PBDB  1002a088     libvcruntime:undname.obj
 0003:0000108c       ?name@UnDecorator@@0PBDB   1002a08c     libvcruntime:undname.obj
 0003:00001090       ?disableFlags@UnDecorator@@0KA 1002a090     libvcruntime:undname.obj
 0003:00001094       ?fExplicitTemplateParams@UnDecorator@@0_NA 1002a094     libvcruntime:undname.obj
 0003:00001095       ?fGetTemplateArgumentList@UnDecorator@@0_NA 1002a095     libvcruntime:undname.obj
 0003:000010d8       ?c_exit_complete@?1???R<lambda_6e4b09c48022b2350581041d5f6b0c4c>@@QBE@XZ@4_NA 1002a0d8     libucrt:exit.obj
 0003:000011e8       __environ_table            1002a1e8     libucrt:environment_initialization.obj
 0003:000011ec       __wenviron_table           1002a1ec     libucrt:environment_initialization.obj
 0003:000011f0       ___dcrt_initial_wide_environment 1002a1f0     libucrt:environment_initialization.obj
 0003:000011f4       ___dcrt_initial_narrow_environment 1002a1f4     libucrt:environment_initialization.obj
 0003:000011f8       ___acrt_atexit_table       1002a1f8     libucrt:onexit.obj
 0003:00001204       ___acrt_at_quick_exit_table 1002a204     libucrt:onexit.obj
 0003:00001214       ___acrt_locale_changed_data 1002a214     libucrt:wsetlocale.obj
 0003:00001218       ___acrt_current_locale_data 1002a218     libucrt:nlsdata.obj
 0003:00001300       __nstream                  1002a300     libucrt:_file.obj
 0003:00001304       ___piob                    1002a304     libucrt:_file.obj
 0003:0000130c       ___acrt_stdout_buffer      1002a30c     libucrt:_sftbuf.obj
 0003:00001310       ___acrt_stderr_buffer      1002a310     libucrt:_sftbuf.obj
 0003:00001318       ___pioinfo                 1002a318     libucrt:ioinit.obj
 0003:00001518       __nhandle                  1002a518     libucrt:ioinit.obj
 0003:00001674       __mbctype                  1002a674     libucrt:mbctype.obj
 0003:00001678       __mbcasemap                1002a678     libucrt:mbctype.obj
 0003:0000167c       ___acrt_current_multibyte_data 1002a67c     libucrt:mbctype.obj
 0003:00001688       __pgmptr                   1002a688     libucrt:argv_data.obj
 0003:0000168c       ___argc                    1002a68c     libucrt:argv_data.obj
 0003:00001690       ___argv                    1002a690     libucrt:argv_data.obj
 0003:00001694       ___wargv                   1002a694     libucrt:argv_data.obj
 0003:00001698       __acmdln                   1002a698     libucrt:argv_data.obj
 0003:0000169c       __wcmdln                   1002a69c     libucrt:argv_data.obj
 0003:000016a0       ___acrt_heap               1002a6a0     libucrt:heap_handle.obj
 0003:000016b8       ___acrt_lconv_static_null  1002a6b8     libucrt:localeconv.obj
 0003:000016bc       ___acrt_lconv_static_W_null 1002a6bc     libucrt:localeconv.obj
 0003:000016d0       ___fastflag                1002a6d0     libucrt:fp_flags.obj
 0003:000016d8       ___dyn_tls_init_callback   1002a6d8     <common>
 0003:000016dc       ___scrt_ucrt_dll_is_in_use 1002a6dc     <common>
 0003:000016e0       __pmatherr                 1002a6e0     <common>
 0003:000016e4       ___use_sse2_mathfcns       1002a6e4     <common>

 entry point at        0001:0000be1b

 Static symbols

 0000:fffce000       .debug$S                   10000000     OPOSToneIndicator.exp
 0000:fffce000       .debug$S                   10000000     advapi32:ADVAPI32.dll
 0000:fffce000       .debug$S                   10000000     advapi32:ADVAPI32.dll
 0000:fffce000       .debug$S                   10000000     advapi32:ADVAPI32.dll
 0000:fffce000       .debug$S                   10000000     advapi32:ADVAPI32.dll
 0000:fffce000       .debug$S                   10000000     advapi32:ADVAPI32.dll
 0000:fffce000       .debug$S                   10000000     advapi32:ADVAPI32.dll
 0000:fffce000       .debug$S                   10000000     advapi32:ADVAPI32.dll
 0000:fffce000       .debug$S                   10000000     advapi32:ADVAPI32.dll
 0000:fffce000       .debug$S                   10000000     advapi32:ADVAPI32.dll
 0000:fffce000       .debug$S                   10000000     gdi32:GDI32.dll
 0000:fffce000       .debug$S                   10000000     gdi32:GDI32.dll
 0000:fffce000       .debug$S                   10000000     gdi32:GDI32.dll
 0000:fffce000       .debug$S                   10000000     gdi32:GDI32.dll
 0000:fffce000       .debug$S                   10000000     gdi32:GDI32.dll
 0000:fffce000       .debug$S                   10000000     gdi32:GDI32.dll
 0000:fffce000       .debug$S                   10000000     gdi32:GDI32.dll
 0000:fffce000       .debug$S                   10000000     gdi32:GDI32.dll
 0000:fffce000       .debug$S                   10000000     gdi32:GDI32.dll
 0000:fffce000       .debug$S                   10000000     gdi32:GDI32.dll
 0000:fffce000       .debug$S                   10000000     gdi32:GDI32.dll
 0000:fffce000       .debug$S                   10000000     gdi32:GDI32.dll
 0000:fffce000       .debug$S                   10000000     gdi32:GDI32.dll
 0000:fffce000       .debug$S                   10000000     gdi32:GDI32.dll
 0000:fffce000       .debug$S                   10000000     gdi32:GDI32.dll
 0000:fffce000       .debug$S                   10000000     gdi32:GDI32.dll
 0000:fffce000       .debug$S                   10000000     gdi32:GDI32.dll
 0000:fffce000       .debug$S                   10000000     gdi32:GDI32.dll
 0000:fffce000       .debug$S                   10000000     gdi32:GDI32.dll
 0000:fffce000       .debug$S                   10000000     kernel32:KERNEL32.dll
 0000:fffce000       .debug$S                   10000000     kernel32:KERNEL32.dll
 0000:fffce000       .debug$S                   10000000     kernel32:KERNEL32.dll
 0000:fffce000       .debug$S                   10000000     kernel32:KERNEL32.dll
 0000:fffce000       .debug$S                   10000000     kernel32:KERNEL32.dll
 0000:fffce000       .debug$S                   10000000     kernel32:KERNEL32.dll
 0000:fffce000       .debug$S                   10000000     kernel32:KERNEL32.dll
 0000:fffce000       .debug$S                   10000000     kernel32:KERNEL32.dll
 0000:fffce000       .debug$S                   10000000     kernel32:KERNEL32.dll
 0000:fffce000       .debug$S                   10000000     kernel32:KERNEL32.dll
 0000:fffce000       .debug$S                   10000000     kernel32:KERNEL32.dll
 0000:fffce000       .debug$S                   10000000     kernel32:KERNEL32.dll
 0000:fffce000       .debug$S                   10000000     kernel32:KERNEL32.dll
 0000:fffce000       .debug$S                   10000000     kernel32:KERNEL32.dll
 0000:fffce000       .debug$S                   10000000     kernel32:KERNEL32.dll
 0000:fffce000       .debug$S                   10000000     kernel32:KERNEL32.dll
 0000:fffce000       .debug$S                   10000000     kernel32:KERNEL32.dll
 0000:fffce000       .debug$S                   10000000     kernel32:KERNEL32.dll
 0000:fffce000       .debug$S                   10000000     kernel32:KERNEL32.dll
 0000:fffce000       .debug$S                   10000000     kernel32:KERNEL32.dll
 0000:fffce000       .debug$S                   10000000     kernel32:KERNEL32.dll
 0000:fffce000       .debug$S                   10000000     kernel32:KERNEL32.dll
 0000:fffce000       .debug$S                   10000000     kernel32:KERNEL32.dll
 0000:fffce000       .debug$S                   10000000     kernel32:KERNEL32.dll
 0000:fffce000       .debug$S                   10000000     kernel32:KERNEL32.dll
 0000:fffce000       .debug$S                   10000000     kernel32:KERNEL32.dll
 0000:fffce000       .debug$S                   10000000     kernel32:KERNEL32.dll
 0000:fffce000       .debug$S                   10000000     kernel32:KERNEL32.dll
 0000:fffce000       .debug$S                   10000000     kernel32:KERNEL32.dll
 0000:fffce000       .debug$S                   10000000     kernel32:KERNEL32.dll
 0000:fffce000       .debug$S                   10000000     kernel32:KERNEL32.dll
 0000:fffce000       .debug$S                   10000000     kernel32:KERNEL32.dll
 0000:fffce000       .debug$S                   10000000     kernel32:KERNEL32.dll
 0000:fffce000       .debug$S                   10000000     kernel32:KERNEL32.dll
 0000:fffce000       .debug$S                   10000000     kernel32:KERNEL32.dll
 0000:fffce000       .debug$S                   10000000     kernel32:KERNEL32.dll
 0000:fffce000       .debug$S                   10000000     kernel32:KERNEL32.dll
 0000:fffce000       .debug$S                   10000000     kernel32:KERNEL32.dll
 0000:fffce000       .debug$S                   10000000     kernel32:KERNEL32.dll
 0000:fffce000       .debug$S                   10000000     kernel32:KERNEL32.dll
 0000:fffce000       .debug$S                   10000000     kernel32:KERNEL32.dll
 0000:fffce000       .debug$S                   10000000     kernel32:KERNEL32.dll
 0000:fffce000       .debug$S                   10000000     kernel32:KERNEL32.dll
 0000:fffce000       .debug$S                   10000000     kernel32:KERNEL32.dll
 0000:fffce000       .debug$S                   10000000     kernel32:KERNEL32.dll
 0000:fffce000       .debug$S                   10000000     kernel32:KERNEL32.dll
 0000:fffce000       .debug$S                   10000000     kernel32:KERNEL32.dll
 0000:fffce000       .debug$S                   10000000     kernel32:KERNEL32.dll
 0000:fffce000       .debug$S                   10000000     kernel32:KERNEL32.dll
 0000:fffce000       .debug$S                   10000000     kernel32:KERNEL32.dll
 0000:fffce000       .debug$S                   10000000     kernel32:KERNEL32.dll
 0000:fffce000       .debug$S                   10000000     kernel32:KERNEL32.dll
 0000:fffce000       .debug$S                   10000000     kernel32:KERNEL32.dll
 0000:fffce000       .debug$S                   10000000     kernel32:KERNEL32.dll
 0000:fffce000       .debug$S                   10000000     kernel32:KERNEL32.dll
 0000:fffce000       .debug$S                   10000000     kernel32:KERNEL32.dll
 0000:fffce000       .debug$S                   10000000     kernel32:KERNEL32.dll
 0000:fffce000       .debug$S                   10000000     kernel32:KERNEL32.dll
 0000:fffce000       .debug$S                   10000000     kernel32:KERNEL32.dll
 0000:fffce000       .debug$S                   10000000     kernel32:KERNEL32.dll
 0000:fffce000       .debug$S                   10000000     kernel32:KERNEL32.dll
 0000:fffce000       .debug$S                   10000000     kernel32:KERNEL32.dll
 0000:fffce000       .debug$S                   10000000     kernel32:KERNEL32.dll
 0000:fffce000       .debug$S                   10000000     kernel32:KERNEL32.dll
 0000:fffce000       .debug$S                   10000000     kernel32:KERNEL32.dll
 0000:fffce000       .debug$S                   10000000     kernel32:KERNEL32.dll
 0000:fffce000       .debug$S                   10000000     kernel32:KERNEL32.dll
 0000:fffce000       .debug$S                   10000000     kernel32:KERNEL32.dll
 0000:fffce000       .debug$S                   10000000     kernel32:KERNEL32.dll
 0000:fffce000       .debug$S                   10000000     kernel32:KERNEL32.dll
 0000:fffce000       .debug$S                   10000000     kernel32:KERNEL32.dll
 0000:fffce000       .debug$S                   10000000     kernel32:KERNEL32.dll
 0000:fffce000       .debug$S                   10000000     kernel32:KERNEL32.dll
 0000:fffce000       .debug$S                   10000000     kernel32:KERNEL32.dll
 0000:fffce000       .debug$S                   10000000     kernel32:KERNEL32.dll
 0000:fffce000       .debug$S                   10000000     kernel32:KERNEL32.dll
 0000:fffce000       .debug$S                   10000000     kernel32:KERNEL32.dll
 0000:fffce000       .debug$S                   10000000     kernel32:KERNEL32.dll
 0000:fffce000       .debug$S                   10000000     kernel32:KERNEL32.dll
 0000:fffce000       .debug$S                   10000000     kernel32:KERNEL32.dll
 0000:fffce000       .debug$S                   10000000     kernel32:KERNEL32.dll
 0000:fffce000       .debug$S                   10000000     kernel32:KERNEL32.dll
 0000:fffce000       .debug$S                   10000000     kernel32:KERNEL32.dll
 0000:fffce000       .debug$S                   10000000     kernel32:KERNEL32.dll
 0000:fffce000       .debug$S                   10000000     kernel32:KERNEL32.dll
 0000:fffce000       .debug$S                   10000000     kernel32:KERNEL32.dll
 0000:fffce000       .debug$S                   10000000     kernel32:KERNEL32.dll
 0000:fffce000       .debug$S                   10000000     kernel32:KERNEL32.dll
 0000:fffce000       .debug$S                   10000000     kernel32:KERNEL32.dll
 0000:fffce000       .debug$S                   10000000     kernel32:KERNEL32.dll
 0000:fffce000       .debug$S                   10000000     kernel32:KERNEL32.dll
 0000:fffce000       .debug$S                   10000000     kernel32:KERNEL32.dll
 0000:fffce000       .debug$S                   10000000     kernel32:KERNEL32.dll
 0000:fffce000       .debug$S                   10000000     kernel32:KERNEL32.dll
 0000:fffce000       .debug$S                   10000000     kernel32:KERNEL32.dll
 0000:fffce000       .debug$S                   10000000     kernel32:KERNEL32.dll
 0000:fffce000       .debug$S                   10000000     kernel32:KERNEL32.dll
 0000:fffce000       .debug$S                   10000000     kernel32:KERNEL32.dll
 0000:fffce000       .debug$S                   10000000     kernel32:KERNEL32.dll
 0000:fffce000       .debug$S                   10000000     kernel32:KERNEL32.dll
 0000:fffce000       .debug$S                   10000000     kernel32:KERNEL32.dll
 0000:fffce000       .debug$S                   10000000     kernel32:KERNEL32.dll
 0000:fffce000       .debug$S                   10000000     kernel32:KERNEL32.dll
 0000:fffce000       .debug$S                   10000000     kernel32:KERNEL32.dll
 0000:fffce000       .debug$S                   10000000     kernel32:KERNEL32.dll
 0000:fffce000       .debug$S                   10000000     kernel32:KERNEL32.dll
 0000:fffce000       .debug$S                   10000000     ole32:ole32.dll
 0000:fffce000       .debug$S                   10000000     ole32:ole32.dll
 0000:fffce000       .debug$S                   10000000     ole32:ole32.dll
 0000:fffce000       .debug$S                   10000000     ole32:ole32.dll
 0000:fffce000       .debug$S                   10000000     ole32:ole32.dll
 0000:fffce000       .debug$S                   10000000     ole32:ole32.dll
 0000:fffce000       .debug$S                   10000000     ole32:ole32.dll
 0000:fffce000       .debug$S                   10000000     ole32:ole32.dll
 0000:fffce000       .debug$S                   10000000     ole32:ole32.dll
 0000:fffce000       .debug$S                   10000000     ole32:ole32.dll
 0000:fffce000       .debug$S                   10000000     ole32:ole32.dll
 0000:fffce000       .debug$S                   10000000     ole32:ole32.dll
 0000:fffce000       .debug$S                   10000000     ole32:ole32.dll
 0000:fffce000       .debug$S                   10000000     ole32:ole32.dll
 0000:fffce000       .debug$S                   10000000     oleaut32:OLEAUT32.dll
 0000:fffce000       .debug$S                   10000000     oleaut32:OLEAUT32.dll
 0000:fffce000       .debug$S                   10000000     oleaut32:OLEAUT32.dll
 0000:fffce000       .debug$S                   10000000     oleaut32:OLEAUT32.dll
 0000:fffce000       .debug$S                   10000000     oleaut32:OLEAUT32.dll
 0000:fffce000       .debug$S                   10000000     oleaut32:OLEAUT32.dll
 0000:fffce000       .debug$S                   10000000     oleaut32:OLEAUT32.dll
 0000:fffce000       .debug$S                   10000000     oleaut32:OLEAUT32.dll
 0000:fffce000       .debug$S                   10000000     oleaut32:OLEAUT32.dll
 0000:fffce000       .debug$S                   10000000     oleaut32:OLEAUT32.dll
 0000:fffce000       .debug$S                   10000000     oleaut32:OLEAUT32.dll
 0000:fffce000       .debug$S                   10000000     oleaut32:OLEAUT32.dll
 0000:fffce000       .debug$S                   10000000     oleaut32:OLEAUT32.dll
 0000:fffce000       .debug$S                   10000000     oleaut32:OLEAUT32.dll
 0000:fffce000       .debug$S                   10000000     oleaut32:OLEAUT32.dll
 0000:fffce000       .debug$S                   10000000     oleaut32:OLEAUT32.dll
 0000:fffce000       .debug$S                   10000000     user32:USER32.dll
 0000:fffce000       .debug$S                   10000000     user32:USER32.dll
 0000:fffce000       .debug$S                   10000000     user32:USER32.dll
 0000:fffce000       .debug$S                   10000000     user32:USER32.dll
 0000:fffce000       .debug$S                   10000000     user32:USER32.dll
 0000:fffce000       .debug$S                   10000000     user32:USER32.dll
 0000:fffce000       .debug$S                   10000000     user32:USER32.dll
 0000:fffce000       .debug$S                   10000000     user32:USER32.dll
 0000:fffce000       .debug$S                   10000000     user32:USER32.dll
 0000:fffce000       .debug$S                   10000000     user32:USER32.dll
 0000:fffce000       .debug$S                   10000000     user32:USER32.dll
 0000:fffce000       .debug$S                   10000000     user32:USER32.dll
 0000:fffce000       .debug$S                   10000000     user32:USER32.dll
 0000:fffce000       .debug$S                   10000000     user32:USER32.dll
 0000:fffce000       .debug$S                   10000000     user32:USER32.dll
 0000:fffce000       .debug$S                   10000000     user32:USER32.dll
 0000:fffce000       .debug$S                   10000000     user32:USER32.dll
 0000:fffce000       .debug$S                   10000000     user32:USER32.dll
 0000:fffce000       .debug$S                   10000000     user32:USER32.dll
 0000:fffce000       .debug$S                   10000000     user32:USER32.dll
 0000:fffce000       .debug$S                   10000000     user32:USER32.dll
 0000:fffce000       .debug$S                   10000000     user32:USER32.dll
 0000:fffce000       .debug$S                   10000000     user32:USER32.dll
 0000:fffce000       .debug$S                   10000000     user32:USER32.dll
 0000:fffce000       .debug$S                   10000000     user32:USER32.dll
 0000:fffce000       .debug$S                   10000000     user32:USER32.dll
 0000:fffce000       .debug$S                   10000000     user32:USER32.dll
 0000:fffce000       .debug$S                   10000000     user32:USER32.dll
 0000:fffce000       .debug$S                   10000000     user32:USER32.dll
 0000:fffce000       .debug$S                   10000000     user32:USER32.dll
 0000:fffce000       .debug$S                   10000000     user32:USER32.dll
 0000:fffce000       .debug$S                   10000000     user32:USER32.dll
 0000:fffce000       .debug$S                   10000000     user32:USER32.dll
 0000:fffce000       .debug$S                   10000000     user32:USER32.dll
 0000:fffce000       .debug$S                   10000000     user32:USER32.dll
 0001:00000000       ??__E_AtlComModule@ATL@@YAXXZ 10001000 f   OposVariant.obj
 0001:00000016       ??__E_AtlWinModule@ATL@@YAXXZ 10001016 f   OposVariant.obj
 0001:0000002c       ??__E?pConnMap@?$IConnectionPointContainerImpl@VCOPOSToneIndicator@@@ATL@@0PBU_ATL_CONNMAP_ENTRY@2@B@@YAXXZ 1000102c f   ToneIndicator.obj
 0001:0000003a       ??__E_Module@@YAXXZ        1000103a f   ToneIndicator.obj
 0001:00000064       ??__E_AtlBaseModule@ATL@@YAXXZ 10001064 f   atls:atlbase.obj
 0001:0000139c       $LN24                      1000239c     ToneIndicator.obj
 0001:00004751       $LN31                      10005751     ToneIndicator.obj
 0001:00004755       $LN30                      10005755     ToneIndicator.obj
 0001:00005930       $LN60                      10006930     ToneIndicator.obj
 0001:00005948       $LN59                      10006948     ToneIndicator.obj
 0001:00007aea       $LN50                      10008aea     ToneIndicator.obj
 0001:00007b02       $LN49                      10008b02     ToneIndicator.obj
 0001:000091c9       $LN88                      1000a1c9     ToneIndicator.obj
 0001:000091e1       $LN87                      1000a1e1     ToneIndicator.obj
 0001:000095a1       _memcpy_s                  1000a5a1 f   ToneIndicator.obj
 0001:0000b2bd       ?find_pe_section@@YAPAU_IMAGE_SECTION_HEADER@@QAEI@Z 1000c2bd f   LIBCMT:utility.obj
 0001:0000b5dc       ?__scrt_initialize_thread_safe_statics@@YAHXZ 1000c5dc f   LIBCMT:thread_safe_statics.obj
 0001:0000b603       ?__scrt_initialize_thread_safe_statics_platform_specific@@YAXXZ 1000c603 f   LIBCMT:thread_safe_statics.obj
 0001:0000b685       ?__scrt_uninitialize_thread_safe_statics@@YAXXZ 1000c685 f   LIBCMT:thread_safe_statics.obj
 0001:0000b9f6       __catch$??2@YAPAXIABUnothrow_t@std@@@Z$0 1000c9f6 f   LIBCMT:new_scalar_nothrow.obj
 0001:0000ba30       $$000000                   1000ca30     LIBCMT:sehprolg4gs.obj
 0001:0000ba80       $$000000                   1000ca80     LIBCMT:alloca16.obj
 0001:0000ba96       alloca_8                   1000ca96     LIBCMT:alloca16.obj
 0001:0000bab0       $$000000                   1000cab0     LIBCMT:chkstk.obj
 0001:0000bac4       cs10                       1000cac4     LIBCMT:chkstk.obj
 0001:0000bad2       cs20                       1000cad2     LIBCMT:chkstk.obj
 0001:0000badb       ?dllmain_crt_dispatch@@YGHQAUHINSTANCE__@@KQAX@Z 1000cadb f   LIBCMT:dll_dllmain.obj
 0001:0000bb2e       ?dllmain_crt_process_attach@@YAHQAUHINSTANCE__@@QAX@Z 1000cb2e f   LIBCMT:dll_dllmain.obj
 0001:0000bc35       ?dllmain_crt_process_detach@@YAH_N@Z 1000cc35 f   LIBCMT:dll_dllmain.obj
 0001:0000bce5       ?dllmain_dispatch@@YAHQAUHINSTANCE__@@KQAX@Z 1000cce5 f   LIBCMT:dll_dllmain.obj
 0001:0000bdf0       ?dllmain_raw@@YGHQAUHINSTANCE__@@KQAX@Z 1000cdf0 f   LIBCMT:dll_dllmain.obj
 0001:0000c180       $$000000                   1000d180     LIBCMT:sehprolg4.obj
 0001:0000c1c8       ___get_entropy             1000d1c8 f   LIBCMT:gs_support.obj
 0001:0000c4bf       ??$GetProcAddressAll@P6GP6GJPAUHWND__@@IIJ@ZPAUAtlThunkData_t@@@Z@@YAP6GP6GJPAUHWND__@@IIJ@ZPAUAtlThunkData_t@@@ZPAP6GP6GJ0IIJ@Z1@Z@Z 1000d4bf f   atls:atlthunk.obj
 0001:0000c4bf       ??$GetProcAddressAll@P6GPAUAtlThunkData_t@@XZ@@YAP6GPAUAtlThunkData_t@@XZPAP6GPAU0@XZ@Z 1000d4bf f   atls:atlthunk.obj
 0001:0000c4bf       ??$GetProcAddressAll@P6GXPAUAtlThunkData_t@@@Z@@YAP6GXPAUAtlThunkData_t@@@ZPAP6GX0@Z@Z 1000d4bf f   atls:atlthunk.obj
 0001:0000c4bf       ??$GetProcAddressAll@P6GXPAUAtlThunkData_t@@PAXI@Z@@YAP6GXPAUAtlThunkData_t@@PAXI@ZPAP6GX01I@Z@Z 1000d4bf f   atls:atlthunk.obj
 0001:0000c56f       ?GetProcAddressSingle@@YA_NPAUHINSTANCE__@@PBDPAPAX@Z 1000d56f f   atls:atlthunk.obj
 0001:0000c6c1       ?__InitializeThunkPool@@YAHXZ 1000d6c1 f   atls:atlthunk.obj
 0001:0000cb20       _ValidateLocalCookies      1000db20 f   libvcruntime:chandler4.obj
 0001:0000e2ba       $LN1250                    1000f2ba     libvcruntime:memcmp.obj
 0001:0000e340       $$000000                   1000f340     libvcruntime:memcpy.obj
 0001:0000e340       $$000000                   1000f340     libvcruntime:memmove.obj
 0001:0000e360       CopyUp                     1000f360     libvcruntime:memcpy.obj
 0001:0000e360       CopyUp                     1000f360     libvcruntime:memmove.obj
 0001:0000e384       CopyUpLargeMov             1000f384     libvcruntime:memcpy.obj
 0001:0000e384       CopyUpLargeMov             1000f384     libvcruntime:memmove.obj
 0001:0000e397       CopyUpSSE2Check            1000f397     libvcruntime:memcpy.obj
 0001:0000e397       CopyUpSSE2Check            1000f397     libvcruntime:memmove.obj
 0001:0000e3b0       AtomChk                    1000f3b0     libvcruntime:memcpy.obj
 0001:0000e3b0       AtomChk                    1000f3b0     libvcruntime:memmove.obj
 0001:0000e3d6       PalignHead4                1000f3d6     libvcruntime:memcpy.obj
 0001:0000e3d6       PalignHead4                1000f3d6     libvcruntime:memmove.obj
 0001:0000e3e9       PalignHead8                1000f3e9     libvcruntime:memcpy.obj
 0001:0000e3e9       PalignHead8                1000f3e9     libvcruntime:memmove.obj
 0001:0000e400       PalignLoop                 1000f400     libvcruntime:memcpy.obj
 0001:0000e400       PalignLoop                 1000f400     libvcruntime:memmove.obj
 0001:0000e412       MovPalign12                1000f412     libvcruntime:memcpy.obj
 0001:0000e412       MovPalign12                1000f412     libvcruntime:memmove.obj
 0001:0000e41c       PalignLoop12               1000f41c     libvcruntime:memcpy.obj
 0001:0000e41c       PalignLoop12               1000f41c     libvcruntime:memmove.obj
 0001:0000e46d       MovPalign8                 1000f46d     libvcruntime:memcpy.obj
 0001:0000e46d       MovPalign8                 1000f46d     libvcruntime:memmove.obj
 0001:0000e478       PalignLoop8                1000f478     libvcruntime:memcpy.obj
 0001:0000e478       PalignLoop8                1000f478     libvcruntime:memmove.obj
 0001:0000e4c6       MovPalign4                 1000f4c6     libvcruntime:memcpy.obj
 0001:0000e4c6       MovPalign4                 1000f4c6     libvcruntime:memmove.obj
 0001:0000e4d0       PalignLoop4                1000f4d0     libvcruntime:memcpy.obj
 0001:0000e4d0       PalignLoop4                1000f4d0     libvcruntime:memmove.obj
 0001:0000e51c       PalignTail                 1000f51c     libvcruntime:memcpy.obj
 0001:0000e51c       PalignTail                 1000f51c     libvcruntime:memmove.obj
 0001:0000e534       PalignTail4                1000f534     libvcruntime:memcpy.obj
 0001:0000e534       PalignTail4                1000f534     libvcruntime:memmove.obj
 0001:0000e547       PalignTail8                1000f547     libvcruntime:memcpy.obj
 0001:0000e547       PalignTail8                1000f547     libvcruntime:memmove.obj
 0001:0000e55e       PalignTailLE3              1000f55e     libvcruntime:memcpy.obj
 0001:0000e55e       PalignTailLE3              1000f55e     libvcruntime:memmove.obj
 0001:0000e567       Dword_align                1000f567     libvcruntime:memcpy.obj
 0001:0000e567       Dword_align                1000f567     libvcruntime:memmove.obj
 0001:0000e56f       Dword_up_align_loop        1000f56f     libvcruntime:memcpy.obj
 0001:0000e56f       Dword_up_align_loop        1000f56f     libvcruntime:memmove.obj
 0001:0000e582       Dword_align_Ok             1000f582     libvcruntime:memcpy.obj
 0001:0000e582       Dword_align_Ok             1000f582     libvcruntime:memmove.obj
 0001:0000e59c       ByteCopyUp                 1000f59c     libvcruntime:memcpy.obj
 0001:0000e59c       ByteCopyUp                 1000f59c     libvcruntime:memmove.obj
 0001:0000e5a4       TrailingUpVec              1000f5a4     libvcruntime:memcpy.obj
 0001:0000e5a4       TrailingUpVec              1000f5a4     libvcruntime:memmove.obj
 0001:0000e5b4       TrailingUp0                1000f5b4     libvcruntime:memcpy.obj
 0001:0000e5b4       TrailingUp0                1000f5b4     libvcruntime:memmove.obj
 0001:0000e5bc       TrailingUp1                1000f5bc     libvcruntime:memcpy.obj
 0001:0000e5bc       TrailingUp1                1000f5bc     libvcruntime:memmove.obj
 0001:0000e5c8       TrailingUp2                1000f5c8     libvcruntime:memcpy.obj
 0001:0000e5c8       TrailingUp2                1000f5c8     libvcruntime:memmove.obj
 0001:0000e5dc       TrailingUp3                1000f5dc     libvcruntime:memcpy.obj
 0001:0000e5dc       TrailingUp3                1000f5dc     libvcruntime:memmove.obj
 0001:0000e5f4       CopyDown                   1000f5f4     libvcruntime:memcpy.obj
 0001:0000e5f4       CopyDown                   1000f5f4     libvcruntime:memmove.obj
 0001:0000e619       CopyDownNotAligned         1000f619     libvcruntime:memcpy.obj
 0001:0000e619       CopyDownNotAligned         1000f619     libvcruntime:memmove.obj
 0001:0000e620       CopyDownAlignLoop          1000f620     libvcruntime:memcpy.obj
 0001:0000e620       CopyDownAlignLoop          1000f620     libvcruntime:memmove.obj
 0001:0000e62d       CopyDownAligned            1000f62d     libvcruntime:memcpy.obj
 0001:0000e62d       CopyDownAligned            1000f62d     libvcruntime:memmove.obj
 0001:0000e650       TrailingDownVec            1000f650     libvcruntime:memcpy.obj
 0001:0000e650       TrailingDownVec            1000f650     libvcruntime:memmove.obj
 0001:0000e660       TrailingDown0              1000f660     libvcruntime:memcpy.obj
 0001:0000e660       TrailingDown0              1000f660     libvcruntime:memmove.obj
 0001:0000e668       TrailingDown1              1000f668     libvcruntime:memcpy.obj
 0001:0000e668       TrailingDown1              1000f668     libvcruntime:memmove.obj
 0001:0000e678       TrailingDown2              1000f678     libvcruntime:memcpy.obj
 0001:0000e678       TrailingDown2              1000f678     libvcruntime:memmove.obj
 0001:0000e68c       TrailingDown3              1000f68c     libvcruntime:memcpy.obj
 0001:0000e68c       TrailingDown3              1000f68c     libvcruntime:memmove.obj
 0001:0000e6a5       XmmMovLargeAlignTest       1000f6a5     libvcruntime:memcpy.obj
 0001:0000e6a5       XmmMovLargeAlignTest       1000f6a5     libvcruntime:memmove.obj
 0001:0000e6ad       XmmMovAlignLoop            1000f6ad     libvcruntime:memcpy.obj
 0001:0000e6ad       XmmMovAlignLoop            1000f6ad     libvcruntime:memmove.obj
 0001:0000e6bc       XmmMovLargeLoop            1000f6bc     libvcruntime:memcpy.obj
 0001:0000e6bc       XmmMovLargeLoop            1000f6bc     libvcruntime:memmove.obj
 0001:0000e72c       XmmMovSmallTest            1000f72c     libvcruntime:memcpy.obj
 0001:0000e72c       XmmMovSmallTest            1000f72c     libvcruntime:memmove.obj
 0001:0000e731       XmmMovSmallLoop            1000f731     libvcruntime:memcpy.obj
 0001:0000e731       XmmMovSmallLoop            1000f731     libvcruntime:memmove.obj
 0001:0000e754       CopyDownSmall              1000f754     libvcruntime:memcpy.obj
 0001:0000e754       CopyDownSmall              1000f754     libvcruntime:memmove.obj
 0001:0000e75c       CopyDownDwordLoop          1000f75c     libvcruntime:memcpy.obj
 0001:0000e75c       CopyDownDwordLoop          1000f75c     libvcruntime:memmove.obj
 0001:0000e771       CopyDownByteTest           1000f771     libvcruntime:memcpy.obj
 0001:0000e771       CopyDownByteTest           1000f771     libvcruntime:memmove.obj
 0001:0000e775       CopyDownByteLoop           1000f775     libvcruntime:memcpy.obj
 0001:0000e775       CopyDownByteLoop           1000f775     libvcruntime:memmove.obj
 0001:0000e784       CopyDownReturn             1000f784     libvcruntime:memcpy.obj
 0001:0000e784       CopyDownReturn             1000f784     libvcruntime:memmove.obj
 0001:0000e790       XmmCopy                    1000f790     libvcruntime:memcpy.obj
 0001:0000e790       XmmCopy                    1000f790     libvcruntime:memmove.obj
 0001:0000e79d       XmmCopyAligned             1000f79d     libvcruntime:memcpy.obj
 0001:0000e79d       XmmCopyAligned             1000f79d     libvcruntime:memmove.obj
 0001:0000e7b0       XmmCopyLargeLoop           1000f7b0     libvcruntime:memcpy.obj
 0001:0000e7b0       XmmCopyLargeLoop           1000f7b0     libvcruntime:memmove.obj
 0001:0000e80d       XmmCopySmallTest           1000f80d     libvcruntime:memcpy.obj
 0001:0000e80d       XmmCopySmallTest           1000f80d     libvcruntime:memmove.obj
 0001:0000e820       XmmCopySmallLoop           1000f820     libvcruntime:memcpy.obj
 0001:0000e820       XmmCopySmallLoop           1000f820     libvcruntime:memmove.obj
 0001:0000e83b       CopyUpDwordMov             1000f83b     libvcruntime:memcpy.obj
 0001:0000e83b       CopyUpDwordMov             1000f83b     libvcruntime:memmove.obj
 0001:0000e840       CopyUpDwordTest            1000f840     libvcruntime:memcpy.obj
 0001:0000e840       CopyUpDwordTest            1000f840     libvcruntime:memmove.obj
 0001:0000e847       CopyUpDwordLoop            1000f847     libvcruntime:memcpy.obj
 0001:0000e847       CopyUpDwordLoop            1000f847     libvcruntime:memmove.obj
 0001:0000e856       CopyUpByteTest             1000f856     libvcruntime:memcpy.obj
 0001:0000e856       CopyUpByteTest             1000f856     libvcruntime:memmove.obj
 0001:0000e85d       CopyUpByteLoop             1000f85d     libvcruntime:memcpy.obj
 0001:0000e85d       CopyUpByteLoop             1000f85d     libvcruntime:memmove.obj
 0001:0000e870       CopyUpReturn               1000f870     libvcruntime:memcpy.obj
 0001:0000e870       CopyUpReturn               1000f870     libvcruntime:memmove.obj
 0001:0000e880       XmmCopyUnaligned           1000f880     libvcruntime:memcpy.obj
 0001:0000e880       XmmCopyUnaligned           1000f880     libvcruntime:memmove.obj
 0001:0000e893       XmmAlignByte               1000f893     libvcruntime:memcpy.obj
 0001:0000e893       XmmAlignByte               1000f893     libvcruntime:memmove.obj
 0001:0000e89c       XmmAlignDwordTest          1000f89c     libvcruntime:memcpy.obj
 0001:0000e89c       XmmAlignDwordTest          1000f89c     libvcruntime:memmove.obj
 0001:0000e8a1       XmmAlignDwordLoop          1000f8a1     libvcruntime:memcpy.obj
 0001:0000e8a1       XmmAlignDwordLoop          1000f8a1     libvcruntime:memmove.obj
 0001:0000e8ae       XmmAlignAdjustCnt          1000f8ae     libvcruntime:memcpy.obj
 0001:0000e8ae       XmmAlignAdjustCnt          1000f8ae     libvcruntime:memmove.obj
 0001:0000e8c0       $$000000                   1000f8c0     libvcruntime:memset.obj
 0001:0000e905       XMMMov                     1000f905     libvcruntime:memset.obj
 0001:0000e940       LargeRangeBytes            1000f940     libvcruntime:memset.obj
 0001:0000e97d       XmmMovSmall                1000f97d     libvcruntime:memset.obj
 0001:0000e990       XmmSmallLoop               1000f990     libvcruntime:memset.obj
 0001:0000e995       MidRangeBytes              1000f995     libvcruntime:memset.obj
 0001:0000e9b1       XMMTrailingBytes           1000f9b1     libvcruntime:memset.obj
 0001:0000e9c5       SmallMov                   1000f9c5     libvcruntime:memset.obj
 0001:0000e9cd       ByteLoop                   1000f9cd     libvcruntime:memset.obj
 0001:0000e9db       DwordTest                  1000f9db     libvcruntime:memset.obj
 0001:0000e9eb       QwordTest                  1000f9eb     libvcruntime:memset.obj
 0001:0000ea00       QwordLoop                  1000fa00     libvcruntime:memset.obj
 0001:0000ea13       toend                      1000fa13     libvcruntime:memset.obj
 0001:0000eed2       ?_FilterSetCurrentException@@YAKPAU_EXCEPTION_POINTERS@@E@Z 1000fed2 f   libvcruntime:ehhelpers.obj
 0001:0000f120       $$000000                   10010120     libvcruntime:exsup4.obj
 0001:0000f152       _lu_top                    10010152     libvcruntime:exsup4.obj
 0001:0000f1b1       _lu_done                   100101b1     libvcruntime:exsup4.obj
 0001:0000f1c0       $$000000                   100101c0     libvcruntime:exsup4.obj
 0001:0000f1c0       __unwind_handler4          100101c0 f   libvcruntime:exsup4.obj
 0001:0000f210       $$000000                   10010210     libvcruntime:exsup4.obj
 0001:0000f230       $$000000                   10010230     libvcruntime:exsup4.obj
 0001:0000f250       $$000000                   10010250     libvcruntime:exsup4.obj
 0001:0000f265       ReturnPoint                10010265     libvcruntime:exsup4.obj
 0001:0000f270       $$000000                   10010270     libvcruntime:exsup4.obj
 0001:0000f462       ??$BuildCatchObjectHelperInternal@V__FrameHandler3@@@@YAHPAUEHExceptionRecord@@PAXPBU_s_HandlerType@@PBU_s_CatchableType@@@Z 10010462 f   libvcruntime:frame.obj
 0001:0000f5a0       ??$BuildCatchObjectInternal@V__FrameHandler3@@@@YAXPAUEHExceptionRecord@@PAXPBU_s_HandlerType@@PBU_s_CatchableType@@@Z 100105a0 f   libvcruntime:frame.obj
 0001:0000f639       ??$CatchIt@V__FrameHandler3@@@@YAXPAUEHExceptionRecord@@PAUEHRegistrationNode@@PAU_CONTEXT@@PAXPBU_s_FuncInfo@@PBU_s_HandlerType@@PBU_s_CatchableType@@PBU_s_TryBlockMapEntry@@H1EE@Z 10010639 f   libvcruntime:frame.obj
 0001:0000f6b9       ??$FindHandler@V__FrameHandler3@@@@YAXPAUEHExceptionRecord@@PAUEHRegistrationNode@@PAU_CONTEXT@@PAXPBU_s_FuncInfo@@EH1@Z 100106b9 f   libvcruntime:frame.obj
 0001:0000fa5e       ??$FindHandlerForForeignException@V__FrameHandler3@@@@YAXPAUEHExceptionRecord@@PAUEHRegistrationNode@@PAU_CONTEXT@@PAXPBU_s_FuncInfo@@HH1@Z 10010a5e f   libvcruntime:frame.obj
 0001:0000fd76       ?CallCatchBlock@@YAPAXPAUEHExceptionRecord@@PAUEHRegistrationNode@@PAU_CONTEXT@@PBU_s_FuncInfo@@PAXHK@Z 10010d76 f   libvcruntime:frame.obj
 0001:0000ff45       ?CallUnexpected@@YAXPBU_s_ESTypeList@@@Z 10010f45 f   libvcruntime:frame.obj
 0001:0000ff65       __catch$?CallUnexpected@@YAXPBU_s_ESTypeList@@@Z$0 10010f65 f   libvcruntime:frame.obj
 0001:0000ff84       ?ExFilterRethrow@@YAHPAU_EXCEPTION_POINTERS@@@Z 10010f84 f   libvcruntime:frame.obj
 0001:000100ce       ?IsInExceptionSpec@@YAEPAUEHExceptionRecord@@PBU_s_ESTypeList@@@Z 100110ce f   libvcruntime:frame.obj
 0001:000101a0       $$000000                   100111a0     libvcruntime:lowhelpr.obj
 0001:000101df       _NLG_Continue              100111df     libvcruntime:lowhelpr.obj
 0001:000101f0       $$000000                   100111f0     libvcruntime:exsup.obj
 0001:00010200       $$000000                   10011200     libvcruntime:exsup.obj
 0001:0001020b       __NLG_Go                   1001120b     libvcruntime:exsup.obj
 0001:00010220       $$000000                   10011220     libvcruntime:exsup.obj
 0001:00010223       ?try_get_first_available_module@@YAPAUHINSTANCE__@@QBW4module_id@?A0x592e9a36@@0@Z 10011223 f   libvcruntime:winapi_downlevel.obj
 0001:000102be       ?try_get_function@@YAPAXW4function_id@?A0x592e9a36@@QBDQBW4module_id@2@2@Z 100112be f   libvcruntime:winapi_downlevel.obj
 0001:000109f4       ??$common_tcscat_s@_W@@YAHQA_WIQB_W@Z 100119f4 f   libucrt:wcscat_s.obj
 0001:00010adb       ??$common_tcsncpy_s@_W@@YAHQA_WIQB_WI@Z 10011adb f   libucrt:wcsncpy_s.obj
 0001:00010bb4       ??$common_vsprintf@Vformat_validation_base@__crt_stdio_output@@_W@@YAH_KQA_WIQB_WAAV__crt_cached_ptd_host@@QAD@Z 10011bb4 f   libucrt:output.obj
 0001:00010d37       ??$common_vsprintf_s@_W@@YAH_KQA_WIQB_WAAV__crt_cached_ptd_host@@QAD@Z 10011d37 f   libucrt:output.obj
 0001:0001219f       $LN116                     1001319f     libucrt:output.obj
 0001:000127a2       $LN18                      100137a2     libucrt:output.obj
 0001:000127b6       $LN17                      100137b6     libucrt:output.obj
 0001:00012ef1       ??$?RV<lambda_03b1d95aef87969028cfba75ccab2455>@@AAV<lambda_6e4b09c48022b2350581041d5f6b0c4c>@@V<lambda_22bdf7517842c4b3e53723af5aa32b9e>@@@?$__crt_seh_guarded_call@X@@QAEX$$QAV<lambda_03b1d95aef87969028cfba75ccab2455>@@AAV<lambda_6e4b09c48022b2350581041d5f6b0c4c>@@$$QAV<lambda_22bdf7517842c4b3e53723af5aa32b9e>@@@Z 10013ef1 f   libucrt:exit.obj
 0001:00012f3e       ??R<lambda_6e4b09c48022b2350581041d5f6b0c4c>@@QBE@XZ 10013f3e f   libucrt:exit.obj
 0001:00013029       ?common_exit@@YAXHW4_crt_exit_cleanup_mode@@W4_crt_exit_return_mode@@@Z 10014029 f   libucrt:exit.obj
 0001:000130c0       ?exit_or_terminate_process@@YAXI@Z 100140c0 f   libucrt:exit.obj
 0001:000130f1       ?is_managed_app@@YA_NXZ    100140f1 f   libucrt:exit.obj
 0001:00013134       ?should_call_terminate_process@@YA_NXZ 10014134 f   libucrt:exit.obj
 0001:00013156       ?try_cor_exit_process@@YAXI@Z 10014156 f   libucrt:exit.obj
 0001:00013213       ??$common_configure_argv@D@@YAHW4_crt_argv_mode@@@Z 10014213 f   libucrt:argv_parsing.obj
 0001:00013350       ??$parse_command_line@D@@YAXPADPAPAD0PAI2@Z 10014350 f   libucrt:argv_parsing.obj
 0001:0001351e       ??$common_initialize_environment_nolock@D@@YAHXZ 1001451e f   libucrt:environment_initialization.obj
 0001:00013578       ??$create_environment@D@@YAQAPADQAD@Z 10014578 f   libucrt:environment_initialization.obj
 0001:0001365a       ??$free_environment@D@@YAXQAPAD@Z 1001465a f   libucrt:environment_initialization.obj
 0001:0001365a       ??$free_environment@_W@@YAXQAPA_W@Z 1001465a f   libucrt:environment_initialization.obj
 0001:00013689       ??$uninitialize_environment_internal@D@@YAXAAPAPAD@Z 10014689 f   libucrt:environment_initialization.obj
 0001:000136a4       ??$uninitialize_environment_internal@_W@@YAXAAPAPA_W@Z 100146a4 f   libucrt:environment_initialization.obj
 0001:00013715       ??$?RV<lambda_69a2805e680e0e292e8ba93315fe43a8>@@AAV<lambda_f03950bc5685219e0bcd2087efbe011e>@@V<lambda_03fcd07e894ec930e3f35da366ca99d6>@@@?$__crt_seh_guarded_call@H@@QAEH$$QAV<lambda_69a2805e680e0e292e8ba93315fe43a8>@@AAV<lambda_f03950bc5685219e0bcd2087efbe011e>@@$$QAV<lambda_03fcd07e894ec930e3f35da366ca99d6>@@@Z 10014715 f   libucrt:onexit.obj
 0001:00013770       ??$?RV<lambda_8e746cf0007f6ed984d6f78af1fec997>@@AAV<lambda_22ebabd17bc4fa466a2aca6d8deb888d>@@V<lambda_18ed0c0b38a6dc0daf1e7ac6d6adf05e>@@@?$__crt_seh_guarded_call@H@@QAEH$$QAV<lambda_8e746cf0007f6ed984d6f78af1fec997>@@AAV<lambda_22ebabd17bc4fa466a2aca6d8deb888d>@@$$QAV<lambda_18ed0c0b38a6dc0daf1e7ac6d6adf05e>@@@Z 10014770 f   libucrt:onexit.obj
 0001:000137ea       ??R<lambda_22ebabd17bc4fa466a2aca6d8deb888d>@@QBEHXZ 100147ea f   libucrt:onexit.obj
 0001:000138ec       ??R<lambda_f03950bc5685219e0bcd2087efbe011e>@@QBEHXZ 100148ec f   libucrt:onexit.obj
 0001:00013a76       _uninitialize_allocated_io_buffers 10014a76 f   libucrt:initialization.obj
 0001:00013ac6       _initialize_environment    10014ac6 f   libucrt:initialization.obj
 0001:00013ac6       _initialize_global_state_isolation 10014ac6 f   libucrt:initialization.obj
 0001:00013ac6       _report_memory_leaks       10014ac6 f   libucrt:initialization.obj
 0001:00013ac6       _uninitialize_c            10014ac6 f   libucrt:initialization.obj
 0001:00013ac6       _uninitialize_global_state_isolation 10014ac6 f   libucrt:initialization.obj
 0001:00013ac9       _initialize_global_variables 10014ac9 f   libucrt:initialization.obj
 0001:00013ad6       _initialize_c              10014ad6 f   libucrt:initialization.obj
 0001:00013af0       _uninitialize_environment  10014af0 f   libucrt:initialization.obj
 0001:00013af8       _initialize_pointers       10014af8 f   libucrt:initialization.obj
 0001:00013b26       _uninitialize_vcruntime    10014b26 f   libucrt:initialization.obj
 0001:00013b2f       _uninitialize_allocated_memory 10014b2f f   libucrt:initialization.obj
 0001:00013b46       ??R<lambda_af42a3ee9806e9a7305d451646e05244>@@QBEXAAPAU__crt_multibyte_data@@@Z 10014b46 f   libucrt:initialization.obj
 0001:00013db0       $$000000                   10014db0     libucrt:strncmp.obj
 0001:00013e9c       ??$?RV<lambda_15ade71b0218206bbe3333a0c9b79046>@@AAV<lambda_da44e0f8b0f19ba52fefafb335991732>@@V<lambda_207f2d024fc103971653565357d6cd41>@@@?$__crt_seh_guarded_call@X@@QAEX$$QAV<lambda_15ade71b0218206bbe3333a0c9b79046>@@AAV<lambda_da44e0f8b0f19ba52fefafb335991732>@@$$QAV<lambda_207f2d024fc103971653565357d6cd41>@@@Z 10014e9c f   libucrt:per_thread_data.obj
 0001:00013eee       ??$?RV<lambda_38edbb1296d33220d7e4dd0ed76b244a>@@AAV<lambda_5ce1d447e08cb34b2473517608e21441>@@V<lambda_fb385d3da700c9147fc39e65dd577a8c>@@@?$__crt_seh_guarded_call@X@@QAEX$$QAV<lambda_38edbb1296d33220d7e4dd0ed76b244a>@@AAV<lambda_5ce1d447e08cb34b2473517608e21441>@@$$QAV<lambda_fb385d3da700c9147fc39e65dd577a8c>@@@Z 10014eee f   libucrt:per_thread_data.obj
 0001:00013f59       ??$?RV<lambda_6affb1475c98b40b75cdec977db92e3c>@@AAV<lambda_b8d4b9c228a6ecc3f80208dbb4b4a104>@@V<lambda_608742c3c92a14382c1684fc64f96c88>@@@?$__crt_seh_guarded_call@X@@QAEX$$QAV<lambda_6affb1475c98b40b75cdec977db92e3c>@@AAV<lambda_b8d4b9c228a6ecc3f80208dbb4b4a104>@@$$QAV<lambda_608742c3c92a14382c1684fc64f96c88>@@@Z 10014f59 f   libucrt:per_thread_data.obj
 0001:00013fae       ??$?RV<lambda_a7e850c220f1c8d1e6efeecdedd162c6>@@AAV<lambda_46720907175c18b6c9d2717bc0d2d362>@@V<lambda_9048902d66e8d99359bc9897bbb930a8>@@@?$__crt_seh_guarded_call@X@@QAEX$$QAV<lambda_a7e850c220f1c8d1e6efeecdedd162c6>@@AAV<lambda_46720907175c18b6c9d2717bc0d2d362>@@$$QAV<lambda_9048902d66e8d99359bc9897bbb930a8>@@@Z 10014fae f   libucrt:per_thread_data.obj
 0001:00014008       ?construct_ptd@@YAXQAU__acrt_ptd@@QAPAU__crt_locale_data@@@Z 10015008 f   libucrt:per_thread_data.obj
 0001:000140a1       ?destroy_fls@@YGXPAX@Z     100150a1 f   libucrt:per_thread_data.obj
 0001:000140c2       ?destroy_ptd@@YAXQAU__acrt_ptd@@@Z 100150c2 f   libucrt:per_thread_data.obj
 0001:0001418f       ?replace_current_thread_locale_nolock@@YAXQAU__acrt_ptd@@QAU__crt_locale_data@@@Z 1001518f f   libucrt:per_thread_data.obj
 0001:000144f1       ??$?RV<lambda_e5124f882df8998aaf41531e079ba474>@@AAV<lambda_3e16ef9562a7dcce91392c22ab16ea36>@@V<lambda_e25ca0880e6ef98be67edffd8c599615>@@@?$__crt_seh_guarded_call@X@@QAEX$$QAV<lambda_e5124f882df8998aaf41531e079ba474>@@AAV<lambda_3e16ef9562a7dcce91392c22ab16ea36>@@$$QAV<lambda_e25ca0880e6ef98be67edffd8c599615>@@@Z 100154f1 f   libucrt:wsetlocale.obj
 0001:000146d8       ?try_get_AreFileApisANSI@@YAP6GHXZXZ 100156d8 f   libucrt:winapi_thunks.obj
 0001:000146f2       ?try_get_LCMapStringEx@@YAP6GHPB_WK0HPA_WHPAU_nlsversioninfo@@PAXJ@ZXZ 100156f2 f   libucrt:winapi_thunks.obj
 0001:0001470c       ?try_get_LocaleNameToLCID@@YAP6GKPB_WK@ZXZ 1001570c f   libucrt:winapi_thunks.obj
 0001:00014726       ?try_get_first_available_module@@YAPAUHINSTANCE__@@QBW4module_id@?A0x391cf84c@@0@Z 10015726 f   libucrt:winapi_thunks.obj
 0001:000147f1       ?try_get_function@@YAPAXW4function_id@?A0x391cf84c@@QBDQBW4module_id@2@2@Z 100157f1 f   libucrt:winapi_thunks.obj
 0001:00014dfe       ?fe_to_nearest@@YA_NQBN_KF@Z 10015dfe f   libucrt:cvt.obj
 0001:00014ea1       ?fp_format_a@@YAHQBNPADIQADIH_NIW4__acrt_rounding_mode@@AAV__crt_cached_ptd_host@@@Z 10015ea1 f   libucrt:cvt.obj
 0001:000151cd       ?fp_format_e@@YAHQBNQADI1IH_NIW4__acrt_rounding_mode@@AAV__crt_cached_ptd_host@@@Z 100161cd f   libucrt:cvt.obj
 0001:00015271       ?fp_format_e_internal@@YAHQADIH_NIQAU_strflt@@1AAV__crt_cached_ptd_host@@@Z 10016271 f   libucrt:cvt.obj
 0001:000153b6       ?fp_format_f@@YAHQBNQADI1IHW4__acrt_rounding_mode@@AAV__crt_cached_ptd_host@@@Z 100163b6 f   libucrt:cvt.obj
 0001:0001544c       ?fp_format_f_internal@@YAHQADIHQAU_strflt@@_NAAV__crt_cached_ptd_host@@@Z 1001644c f   libucrt:cvt.obj
 0001:0001553a       ?fp_format_g@@YAHQBNQADI1IH_NIW4__acrt_rounding_mode@@AAV__crt_cached_ptd_host@@@Z 1001653a f   libucrt:cvt.obj
 0001:00015609       ?fp_format_nan_or_infinity@@YAHW4__acrt_fp_class@@_NPADI1@Z 10016609 f   libucrt:cvt.obj
 0001:0001569e       ?shift_bytes@@YAXQADI0H@Z  1001669e f   libucrt:cvt.obj
 0001:000156d2       ?should_round_up@@YA_NQBN_KFW4__acrt_rounding_mode@@@Z 100166d2 f   libucrt:cvt.obj
 0001:00015b91       ?initialize_inherited_file_handles_nolock@@YAXXZ 10016b91 f   libucrt:ioinit.obj
 0001:00015c47       ?initialize_stdio_handles_nolock@@YAXXZ 10016c47 f   libucrt:ioinit.obj
 0001:00015e54       ?<lambda_invoker_cdecl>@<lambda_838c7f62c73c983481e27c09e84b0b5d>@@CAHPBX0@Z 10016e54 f   libucrt:argv_wildcards.obj
 0001:00016001       ??$common_expand_argv_wildcards@D@@YAHQAPADQAPAPAD@Z 10017001 f   libucrt:argv_wildcards.obj
 0001:0001617e       ??$copy_and_add_argument_to_buffer@D@@YAHQBD0IAAV?$argument_list@D@?A0x5f5c8891@@@Z 1001717e f   libucrt:argv_wildcards.obj
 0001:0001622f       ??$expand_argument_wildcards@D@@YAHQAD0AAV?$argument_list@D@?A0x5f5c8891@@@Z 1001722f f   libucrt:argv_wildcards.obj
 0001:00016536       ??1?$argument_list@D@?A0x5f5c8891@@QAE@XZ 10017536 f   libucrt:argv_wildcards.obj
 0001:00016676       ?expand_if_necessary@?$argument_list@D@?A0x5f5c8891@@AAEHXZ 10017676 f   libucrt:argv_wildcards.obj
 0001:000168a6       ??$?RV<lambda_ceb1ee4838e85a9d631eb091e2fbe199>@@AAV<lambda_ae742caa10f662c28703da3d2ea5e57e>@@V<lambda_cd08b5d6af4937fe54fc07d0c9bf6b37>@@@?$__crt_seh_guarded_call@X@@QAEX$$QAV<lambda_ceb1ee4838e85a9d631eb091e2fbe199>@@AAV<lambda_ae742caa10f662c28703da3d2ea5e57e>@@$$QAV<lambda_cd08b5d6af4937fe54fc07d0c9bf6b37>@@@Z 100178a6 f   libucrt:mbctype.obj
 0001:000168f3       ??R<lambda_ae742caa10f662c28703da3d2ea5e57e>@@QBEXXZ 100178f3 f   libucrt:mbctype.obj
 0001:00016976       ?CPtoLocaleName@@YAPB_WH@Z 10017976 f   libucrt:mbctype.obj
 0001:000169b4       ?getSystemCP@@YAHH@Z       100179b4 f   libucrt:mbctype.obj
 0001:00016a25       ?setSBCS@@YAXPAU__crt_multibyte_data@@@Z 10017a25 f   libucrt:mbctype.obj
 0001:00016a88       ?setSBUpLow@@YAXPAU__crt_multibyte_data@@@Z 10017a88 f   libucrt:mbctype.obj
 0001:00016c34       ?setmbcp_internal@@YAHH_NQAU__acrt_ptd@@QAPAU__crt_multibyte_data@@@Z 10017c34 f   libucrt:mbctype.obj
 0001:00016d89       ?update_thread_multibyte_data_internal@@YAPAU__crt_multibyte_data@@QAU__acrt_ptd@@QAPAU1@@Z 10017d89 f   libucrt:mbctype.obj
 0001:0001708c       _memcpy_s                  1001808c f   libucrt:cfout.obj
 0001:0001708c       _memcpy_s                  1001808c f   libucrt:mbctype.obj
 0001:0001710d       ?x_ismbbtype_l@@YAHPAU__crt_locale_pointers@@IHH@Z 1001810d f   libucrt:ismbbyte.obj
 0001:000172c1       ?find_end_of_double_null_terminated_sequence@@YAPB_WQB_W@Z 100182c1 f   libucrt:get_environment_from_os.obj
 0001:0001744c       ??$?RV<lambda_cbab9ec6f41b0180b23cc171c22676b0>@@AAV<lambda_44731a7d0e6d81c3e6aa82d741081786>@@V<lambda_4b292cb8dd18144e164572427af410ab>@@@?$__crt_seh_guarded_call@P6AXH@Z@@QAEP6AXH@Z$$QAV<lambda_cbab9ec6f41b0180b23cc171c22676b0>@@AAV<lambda_44731a7d0e6d81c3e6aa82d741081786>@@$$QAV<lambda_4b292cb8dd18144e164572427af410ab>@@@Z 1001844c f   libucrt:signal.obj
 0001:000174b0       ?get_global_action_nolock@@YAPAP6AXH@ZH@Z 100184b0 f   libucrt:signal.obj
 0001:000174f2       ?siglookup@@YAPAU__crt_signal_action_t@@HQAU1@@Z 100184f2 f   libucrt:signal.obj
 0001:000177ab       ??$?RV<lambda_2866be3712abc81a800a822484c830d8>@@AAV<lambda_39ca0ed439415581b5b15c265174cece>@@V<lambda_2b24c74d71094a6cd0cb82e44167d71b>@@@?$__crt_seh_guarded_call@X@@QAEX$$QAV<lambda_2866be3712abc81a800a822484c830d8>@@AAV<lambda_39ca0ed439415581b5b15c265174cece>@@$$QAV<lambda_2b24c74d71094a6cd0cb82e44167d71b>@@@Z 100187ab f   libucrt:fflush.obj
 0001:00017837       ??$?RV<lambda_2cc53f568c5a2bb6f192f930a45d44ea>@@AAV<lambda_ab61a845afdef5b7c387490eaf3616ee>@@V<lambda_c2ffc0b7726aa6be21d5f0026187e748>@@@?$__crt_seh_guarded_call@X@@QAEX$$QAV<lambda_2cc53f568c5a2bb6f192f930a45d44ea>@@AAV<lambda_ab61a845afdef5b7c387490eaf3616ee>@@$$QAV<lambda_c2ffc0b7726aa6be21d5f0026187e748>@@@Z 10018837 f   libucrt:fflush.obj
 0001:000178e3       ?common_flush_all@@YAH_N@Z 100188e3 f   libucrt:fflush.obj
 0001:00017930       ?common_flush_all_should_try_to_flush_stream@@YA_NV__crt_stdio_stream@@QAH@Z 10018930 f   libucrt:fflush.obj
 0001:00017963       ?is_stream_flushable_or_commitable@@YA_NJ@Z 10018963 f   libucrt:fflush.obj
 0001:00017f60       ?free_crt_array_internal@@YAXQAPBXI@Z 10018f60 f   libucrt:inittime.obj
 0001:00018199       ?GetTableIndexFromLocaleName@@YAHPB_W@Z 10019199 f   libucrt:lcidtoname_downlevel.obj
 0001:00018215       ?should_round_up@@YA_NQBD0HW4__acrt_has_trailing_digits@@W4__acrt_rounding_mode@@@Z 10019215 f   libucrt:_fptostr.obj
 0001:00019d5e       ??R<lambda_e96123212306c92459f955e8e4eac55d>@@QBEIPBD@Z 1001ad5e f   libucrt:mbrtowc.obj
 0001:0001a79e       ??$common_tcsncpy_s@D@@YAHQADIQBDI@Z 1001b79e f   libucrt:strncpy_s.obj
 0001:0001a860       $$000000                   1001b860     libucrt:strpbrk.obj
 0001:0001a944       ?__acrt_LCMapStringA_stat@@YAHPAU__crt_locale_pointers@@PB_WKPBDHPADHHH@Z 1001b944 f   libucrt:lcmapstringa.obj
 0001:0001ab7b       ?initialize_multibyte@@YAHXZ 1001bb7b f   libucrt:multibyte_initializer.obj
 0001:0001ab8a       ??$?RV<lambda_9e9de3de5fa147e2223d7db92bc10aa6>@@AAV<lambda_38ce7e780aa69e748d6df282ebc68efe>@@V<lambda_8ca6da459f0f6780f1cff60fdc3d00e5>@@@?$__crt_seh_guarded_call@H@@QAEH$$QAV<lambda_9e9de3de5fa147e2223d7db92bc10aa6>@@AAV<lambda_38ce7e780aa69e748d6df282ebc68efe>@@$$QAV<lambda_8ca6da459f0f6780f1cff60fdc3d00e5>@@@Z 1001bb8a f   libucrt:commit.obj
 0001:0001aca9       ?write_double_translated_ansi_nolock@@YA?AUwrite_result@?A0x17268360@@HQBDIAAV__crt_cached_ptd_host@@@Z 1001bca9 f   libucrt:write.obj
 0001:0001b07b       ?write_double_translated_unicode_nolock@@YA?AUwrite_result@?A0x17268360@@QBDI@Z 1001c07b f   libucrt:write.obj
 0001:0001b0e3       ?write_requires_double_translation_nolock@@YA_NHAAV__crt_cached_ptd_host@@@Z 1001c0e3 f   libucrt:write.obj
 0001:0001b161       ?write_text_ansi_nolock@@YA?AUwrite_result@?A0x17268360@@HQBDI@Z 1001c161 f   libucrt:write.obj
 0001:0001b23c       ?write_text_utf16le_nolock@@YA?AUwrite_result@?A0x17268360@@HQBDI@Z 1001c23c f   libucrt:write.obj
 0001:0001b325       ?write_text_utf8_nolock@@YA?AUwrite_result@?A0x17268360@@HQBDI@Z 1001c325 f   libucrt:write.obj
 0001:0001b8d0       $$000000                   1001c8d0     libucrt:log10_impl.obj
 0001:0001b9e0       $$000000                   1001c9e0     libucrt:ceil_pentium4.obj
 0001:0001bafd       ?to_abstract_control@@YA?AW4__acrt_fenv_abstract_control@@W4__acrt_fenv_machine_sse_control@@@Z 1001cafd f   libucrt:_fenvutils.obj
 0001:0001bbad       ?to_abstract_control@@YA?AW4__acrt_fenv_abstract_control@@W4__acrt_fenv_machine_x87_control@@@Z 1001cbad f   libucrt:_fenvutils.obj
 0001:0001bc5a       ?to_machine_sse_control@@YA?AW4__acrt_fenv_machine_sse_control@@W4__acrt_fenv_abstract_control@@@Z 1001cc5a f   libucrt:_fenvutils.obj
 0001:0001bd10       ?to_machine_x87_control@@YA?AW4__acrt_fenv_machine_x87_control@@W4__acrt_fenv_abstract_control@@@Z 1001cd10 f   libucrt:_fenvutils.obj
 0001:0001c27b       ?_fclose_internal@@YAHQAU_iobuf@@AAV__crt_cached_ptd_host@@@Z 1001d27b f   libucrt:fclose.obj
 0001:0001c312       ?_fclose_nolock_internal@@YAHQAU_iobuf@@AAV__crt_cached_ptd_host@@@Z 1001d312 f   libucrt:fclose.obj
 0001:0001c3d0       ??$common_lseek_nolock@_J@@YA_JH_JHAAV__crt_cached_ptd_host@@@Z 1001d3d0 f   libucrt:lseek.obj
 0001:0001c4c5       ___hw_cw_sse2              1001d4c5 f   libucrt:ieee87.obj
 0001:0001c94b       __hw_cw                    1001d94b f   libucrt:ieee87.obj
 0001:0001ca00       $$000000                   1001da00     libucrt:log10_pentium4.obj
 0001:0001cc90       $$000000                   1001dc90     libucrt:87tran.obj
 0001:0001cea0       $$000000                   1001dea0     libucrt:87disp.obj
 0001:0001d100       $$000000                   1001e100     libucrt:common.obj
 0001:0001d290       $$000000                   1001e290     libucrt:genexcep.obj
 0001:0001d58c       ??$?RV<lambda_d422a76eb4c3bf3ad751449ab71a6ea4>@@AAV<lambda_c9ba49e555ba839a7b07aa3fbecb7617>@@V<lambda_9476263c8ee91a25d21c55370bdb50de>@@@?$__crt_seh_guarded_call@H@@QAEH$$QAV<lambda_d422a76eb4c3bf3ad751449ab71a6ea4>@@AAV<lambda_c9ba49e555ba839a7b07aa3fbecb7617>@@$$QAV<lambda_9476263c8ee91a25d21c55370bdb50de>@@@Z 1001e58c f   libucrt:close.obj
 0001:0001d7a0       $$000000                   1001e7a0     libucrt:_strnicm.obj
 0001:0001d801       ?__dcrt_lowio_initialize_console_output@@YAXXZ 1001e801 f   libucrt:initcon.obj
 0001:0001e7b0       $$000000                   1001f7b0     LIBCMT:ulldvrm.obj
 0001:0001e7e1       L1                         1001f7e1     LIBCMT:ulldvrm.obj
 0001:0001e7ef       L3                         1001f7ef     LIBCMT:ulldvrm.obj
 0001:0001e81d       L4                         1001f81d     LIBCMT:ulldvrm.obj
 0001:0001e826       L5                         1001f826     LIBCMT:ulldvrm.obj
 0001:0001e828       L2                         1001f828     LIBCMT:ulldvrm.obj
 0001:0001e850       $$000000                   1001f850     LIBCMT:llmul.obj
 0001:0001e869       hard                       1001f869     LIBCMT:llmul.obj
 0001:0001e890       $$000000                   1001f890     LIBCMT:lldvrm.obj
 0001:0001e8b4       L1                         1001f8b4     LIBCMT:lldvrm.obj
 0001:0001e8d0       L2                         1001f8d0     LIBCMT:lldvrm.obj
 0001:0001e8fc       L3                         1001f8fc     LIBCMT:lldvrm.obj
 0001:0001e90a       L5                         1001f90a     LIBCMT:lldvrm.obj
 0001:0001e938       L6                         1001f938     LIBCMT:lldvrm.obj
 0001:0001e941       L7                         1001f941     LIBCMT:lldvrm.obj
 0001:0001e943       L4                         1001f943     LIBCMT:lldvrm.obj
 0001:0001e955       L9                         1001f955     LIBCMT:lldvrm.obj
 0001:0001e969       L8                         1001f969     LIBCMT:lldvrm.obj
 0001:0001e970       $$000000                   1001f970     LIBCMT:llshl.obj
 0001:0001e980       MORE32                     1001f980     LIBCMT:llshl.obj
 0001:0001e98a       RETZERO                    1001f98a     LIBCMT:llshl.obj
 0001:0001e990       $$000000                   1001f990     LIBCMT:ullshr.obj
 0001:0001e9a0       MORE32                     1001f9a0     LIBCMT:ullshr.obj
 0001:0001e9aa       RETZERO                    1001f9aa     LIBCMT:ullshr.obj
 0001:0001e9b0       $$000000                   1001f9b0     LIBCMT:ftol2.obj
 0001:0001e9c0       $$000000                   1001f9c0     LIBCMT:ftol2.obj
 0001:0001e9d1       L3B                        1001f9d1     LIBCMT:ftol2.obj
 0001:0001ea14       L3F                        1001fa14     LIBCMT:ftol2.obj
 0001:0001ea1c       L40                        1001fa1c     LIBCMT:ftol2.obj
 0001:0001ea2f       L41                        1001fa2f     LIBCMT:ftol2.obj
 0001:0001ea40       $$000000                   1001fa40     libvcruntime:strrchr.obj
 0001:0001ea7d       strrchr_sse_loop           1001fa7d     libvcruntime:strrchr.obj
 0001:0001eaad       strrchr_sse_break          1001faad     libvcruntime:strrchr.obj
 0001:0001eacd       strrchr_sttni              1001facd     libvcruntime:strrchr.obj
 0001:0001eadf       strrchr_sttni_chars        1001fadf     libvcruntime:strrchr.obj
 0001:0001eaf4       strrchr_sttni_aligned      1001faf4     libvcruntime:strrchr.obj
 0001:0001eaf8       strrchr_sttni_xmm          1001faf8     libvcruntime:strrchr.obj
 0001:0001eb0b       exit                       1001fb0b     libvcruntime:strrchr.obj
 0001:0001eb0e       strrchr_zero               1001fb0e     libvcruntime:strrchr.obj
 0001:0001eb33       strchr_zero_loop           1001fb33     libvcruntime:strrchr.obj
 0001:0001eb47       strchr_zero_result         1001fb47     libvcruntime:strrchr.obj
 0001:0001eb4e       strrchr_no_sse             1001fb4e     libvcruntime:strrchr.obj
 0001:0001eb71       returndi                   1001fb71     libvcruntime:strrchr.obj
 0001:0001eb73       toend                      1001fb73     libvcruntime:strrchr.obj
 0001:0001ebf8       __ehhandler$??2@YAPAXIABUnothrow_t@std@@@Z 1001fbf8 f   LIBCMT:new_scalar_nothrow.obj
 0001:0001ec15       __ehhandler$?CallUnexpected@@YAXPBU_s_ESTypeList@@@Z 1001fc15 f   libvcruntime:frame.obj
 0001:0001ec32       __ehhandler$?common_exit@@YAXHW4_crt_exit_cleanup_mode@@W4_crt_exit_return_mode@@@Z 1001fc32 f   libucrt:exit.obj
 0001:0001ec4f       __ehhandler$?try_cor_exit_process@@YAXI@Z 1001fc4f f   libucrt:exit.obj
 0001:0001ec6c       __ehhandler$___dcrt_uninitialize_environments_nolock 1001fc6c f   libucrt:environment_initialization.obj
 0001:0001ec89       __ehhandler$__execute_onexit_table 1001fc89 f   libucrt:onexit.obj
 0001:0001eca6       __ehhandler$?write_double_translated_ansi_nolock@@YA?AUwrite_result@?A0x17268360@@HQBDIAAV__crt_cached_ptd_host@@@Z 1001fca6 f   libucrt:write.obj
 0001:0001ecd0       ??__F_AtlComModule@ATL@@YAXXZ 1001fcd0 f   OposVariant.obj
 0001:0001ecda       ??__F_AtlWinModule@ATL@@YAXXZ 1001fcda f   OposVariant.obj
 0001:0001ecf4       ??__F_Module@@YAXXZ        1001fcf4 f   ToneIndicator.obj
 0001:0001ed08       ??__F_AtlBaseModule@ATL@@YAXXZ 1001fd08 f   atls:atlbase.obj
 0002:00000308       ?_AtlBaseModule$initializer$@ATL@@3P6AXXZA 10020308     atls:atlbase.obj
 0002:0000030c       ?_AtlComModule$initializer$@ATL@@3P6AXXZA 1002030c     OposVariant.obj
 0002:00000310       ?_AtlWinModule$initializer$@ATL@@3P6AXXZA 10020310     OposVariant.obj
 0002:00000314       ?_Module$initializer$@@3P6AXXZA 10020314     ToneIndicator.obj
 0002:00000318       ??pConnMap$initializer$@?$IConnectionPointContainerImpl@VCOPOSToneIndicator@@@ATL@@0P6AXXZA@@3P6AXXZA 10020318     ToneIndicator.obj
 0002:00000324       ?__scrt_initialize_tss_var@@3P6AHXZA 10020324     LIBCMT:thread_safe_statics.obj
 0002:000018a8       _GS_ExceptionPointers      100218a8     LIBCMT:gs_report.obj
 0002:00001a38       ?tokenTable@@3QBUStringLiteral@@B 10021a38     libvcruntime:undname.obj
 0002:00001ac0       ?nameTable@@3QBUStringLiteral@@B 10021ac0     libvcruntime:undname.obj
 0002:00001d58       ?rttiTable@@3QBUStringLiteral@@B 10021d58     libvcruntime:undname.obj
 0002:00001d80       ?IndirectionName@@3QBUStringLiteral@@B 10021d80     libvcruntime:undname.obj
 0002:00001db0       ?PrefixName@@3QBUStringLiteral@@B 10021db0     libvcruntime:undname.obj
 0002:000023ec       ?module_names@?A0x592e9a36@@3QBQB_WB 100223ec     libvcruntime:winapi_downlevel.obj
 0002:00002494       ?candidate_modules@?1??try_get_FlsAlloc@@YAP6GKP6GXPAX@Z@ZXZ@4QBW4module_id@?A0x592e9a36@@B 10022494     libvcruntime:winapi_downlevel.obj
 0002:000024a8       ?candidate_modules@?1??try_get_FlsFree@@YAP6GHK@ZXZ@4QBW4module_id@?A0x592e9a36@@B 100224a8     libvcruntime:winapi_downlevel.obj
 0002:000024b8       ?candidate_modules@?1??try_get_FlsGetValue@@YAP6GPAXK@ZXZ@4QBW4module_id@?A0x592e9a36@@B 100224b8     libvcruntime:winapi_downlevel.obj
 0002:000024cc       ?candidate_modules@?1??try_get_FlsSetValue@@YAP6GHKPAX@ZXZ@4QBW4module_id@?A0x592e9a36@@B 100224cc     libvcruntime:winapi_downlevel.obj
 0002:000024e0       ?candidate_modules@?1??try_get_InitializeCriticalSectionEx@@YAP6GHPAU_RTL_CRITICAL_SECTION@@KK@ZXZ@4QBW4module_id@?A0x592e9a36@@B 100224e0     libvcruntime:winapi_downlevel.obj
 0002:00002508       ?errtable@@3QBUerrentry@?A0x31fdb9ec@@B 10022508     libucrt:errno.obj
 0002:00002850       ___acrt_initializers       10022850     libucrt:initialization.obj
 0002:00002d90       ?module_names@?A0x391cf84c@@3QBQB_WB 10022d90     libucrt:winapi_thunks.obj
 0002:00003244       ?candidate_modules@?1??try_get_AreFileApisANSI@@YAP6GHXZXZ@4QBW4module_id@?A0x391cf84c@@B 10023244     libucrt:winapi_thunks.obj
 0002:00003258       ?candidate_modules@?1??try_get_InitializeCriticalSectionEx@@YAP6GHPAU_RTL_CRITICAL_SECTION@@KK@ZXZ@4QBW4module_id@?A0x391cf84c@@B 10023258     libucrt:winapi_thunks.obj
 0002:00003260       ?candidate_modules@?1??try_get_LCMapStringEx@@YAP6GHPB_WK0HPA_WHPAU_nlsversioninfo@@PAXJ@ZXZ@4QBW4module_id@?A0x391cf84c@@B 10023260     libucrt:winapi_thunks.obj
 0002:00003278       ?candidate_modules@?1??try_get_LocaleNameToLCID@@YAP6GKPB_WK@ZXZ@4QBW4module_id@?A0x391cf84c@@B 10023278     libucrt:winapi_thunks.obj
 0002:00003294       ?candidate_modules@?1??try_get_AppPolicyGetProcessTerminationMethod@@YAP6GJPAXPAW4AppPolicyProcessTerminationMethod@@@ZXZ@4QBW4module_id@?A0x391cf84c@@B 10023294     libucrt:winapi_thunks.obj
 0002:000032c0       ?candidate_modules@?1??try_get_SetThreadStackGuarantee@@YAP6GHPAK@ZXZ@4QBW4module_id@?A0x391cf84c@@B 100232c0     libucrt:winapi_thunks.obj
 0002:000032e0       ?candidate_modules@?1??try_get_FlsAlloc@@YAP6GKP6GXPAX@Z@ZXZ@4QBW4module_id@?A0x391cf84c@@B 100232e0     libucrt:winapi_thunks.obj
 0002:000032e8       ?candidate_modules@?1??try_get_FlsFree@@YAP6GHK@ZXZ@4QBW4module_id@?A0x391cf84c@@B 100232e8     libucrt:winapi_thunks.obj
 0002:000032f0       ?candidate_modules@?1??try_get_FlsGetValue@@YAP6GPAXK@ZXZ@4QBW4module_id@?A0x391cf84c@@B 100232f0     libucrt:winapi_thunks.obj
 0002:000032f8       ?candidate_modules@?1??try_get_FlsSetValue@@YAP6GHKPAX@ZXZ@4QBW4module_id@?A0x391cf84c@@B 100232f8     libucrt:winapi_thunks.obj
 0002:00003300       ?strings@?1??fp_format_nan_or_infinity@@YAHW4__acrt_fp_class@@_NPADI1@Z@4QAY03QBDA 10023300     libucrt:cvt.obj
 0002:00003388       ?_mb_locale_names@@3QBQB_WB 10023388     libucrt:mbctype.obj
 0002:000039d0       ?LcidToLocaleNameTable@?A0x881e4c05@@3QBULcidToLocaleName@1@B 100239d0     libucrt:lcidtoname_downlevel.obj
 0002:00004af0       ?LocaleNameToIndexTable@?A0x881e4c05@@3QBULocaleNameIndex@1@B 10024af0     libucrt:lcidtoname_downlevel.obj
 0002:00006430       LOG_name                   10026430     libucrt:log10_impl.obj
 0002:00006440       _One                       10026440     libucrt:ceil_pentium4.obj
 0002:00006450       _Bns                       10026450     libucrt:ceil_pentium4.obj
 0002:00006460       _Zero                      10026460     libucrt:ceil_pentium4.obj
 0002:00006470       _S                         10026470     libucrt:ceil_pentium4.obj
 0002:00006480       _NegZero                   10026480     libucrt:ceil_pentium4.obj
 0002:00006490       emask                      10026490     libucrt:log10_pentium4.obj
 0002:000064a0       CC                         100264a0     libucrt:log10_pentium4.obj
 0002:000064b0       Magic                      100264b0     libucrt:log10_pentium4.obj
 0002:000064c0       hi_mask                    100264c0     libucrt:log10_pentium4.obj
 0002:000064d0       LOG10_2                    100264d0     libucrt:log10_pentium4.obj
 0002:000064e0       place_L                    100264e0     libucrt:log10_pentium4.obj
 0002:00006500       One                        10026500     libucrt:log10_pentium4.obj
 0002:00006510       Zero                       10026510     libucrt:log10_pentium4.obj
 0002:00006520       Two52                      10026520     libucrt:log10_pentium4.obj
 0002:00006530       Infs                       10026530     libucrt:log10_pentium4.obj
 0002:00006540       NaN                        10026540     libucrt:log10_pentium4.obj
 0002:00006550       coeff                      10026550     libucrt:log10_pentium4.obj
 0002:000065ae       _log2max                   100265ae     libucrt:87tran.obj
 0002:000065b8       _smallarg                  100265b8     libucrt:87tran.obj
 0002:000065c2       _half                      100265c2     libucrt:87tran.obj
 0002:0000660e       One                        1002660e     libucrt:87disp.obj
 0002:00006616       Three                      10026616     libucrt:87disp.obj
 0002:0000661e       XAMtoTagTab                1002661e     libucrt:87disp.obj
 0002:00006630       One                        10026630     libucrt:common.obj
 0002:00006644       DblMax                     10026644     libucrt:common.obj
 0002:0000664c       DblMin                     1002664c     libucrt:common.obj
 0002:00006654       IeeeAdjO                   10026654     libucrt:common.obj
 0002:0000665c       IeeeAdjU                   1002665c     libucrt:common.obj
 0002:00006664       _infinity                  10026664     libucrt:common.obj
 0002:0000666c       _zero                      1002666c     libucrt:common.obj
 0002:000066b8       _over                      100266b8     libucrt:fpctrl.obj
 0002:000066c4       _under                     100266c4     libucrt:fpctrl.obj
 0002:00006ef8       ?_names@?1??_get_fname@@9@4QBU<unnamed-type-_names>@?1??1@YAPADI@Z@B 10026ef8     libucrt:fpexcept.obj
 0002:000070a0       two32                      100270a0     LIBCMT:ftol2.obj
 0002:000070a4       two63                      100270a4     LIBCMT:ftol2.obj
 0002:000070a8       _NaN                       100270a8     LIBCMT:ftol2.obj
 0002:000077d8       __sehtable$?_AtlVerifyStackAvailable@_ATL_SAFE_ALLOCA_IMPL@ATL@@YA_NK@Z 100277d8     ToneIndicator.obj
 0002:000077f8       __sehtable$___scrt_is_nonwritable_in_current_image 100277f8     LIBCMT:utility.obj
 0002:00007814       __catchsym$??2@YAPAXIABUnothrow_t@std@@@Z$2 10027814     LIBCMT:new_scalar_nothrow.obj
 0002:00007824       __unwindtable$??2@YAPAXIABUnothrow_t@std@@@Z 10027824     LIBCMT:new_scalar_nothrow.obj
 0002:00007834       __tryblocktable$??2@YAPAXIABUnothrow_t@std@@@Z 10027834     LIBCMT:new_scalar_nothrow.obj
 0002:00007848       __ehfuncinfo$??2@YAPAXIABUnothrow_t@std@@@Z 10027848     LIBCMT:new_scalar_nothrow.obj
 0002:00007870       __sehtable$?dllmain_crt_process_attach@@YAHQAUHINSTANCE__@@QAX@Z 10027870     LIBCMT:dll_dllmain.obj
 0002:00007890       __sehtable$?dllmain_crt_process_detach@@YAH_N@Z 10027890     LIBCMT:dll_dllmain.obj
 0002:000078b8       __sehtable$?dllmain_dispatch@@YAHQAUHINSTANCE__@@KQAX@Z 100278b8     LIBCMT:dll_dllmain.obj
 0002:00007968       __sehtable$___DestructExceptionObject 10027968     libvcruntime:ehhelpers.obj
 0002:00007988       __sehtable$?FrameUnwindToState@__FrameHandler3@@SAXPAUEHRegistrationNode@@PAXPBU_s_FuncInfo@@H@Z 10027988     libvcruntime:frame.obj
 0002:000079b0       __sehtable$?CallCatchBlock@@YAPAXPAUEHExceptionRecord@@PAUEHRegistrationNode@@PAU_CONTEXT@@PBU_s_FuncInfo@@PAXHK@Z 100279b0     libvcruntime:frame.obj
 0002:000079d8       __catchsym$?CallUnexpected@@YAXPBU_s_ESTypeList@@@Z$2 100279d8     libvcruntime:frame.obj
 0002:000079e8       __unwindtable$?CallUnexpected@@YAXPBU_s_ESTypeList@@@Z 100279e8     libvcruntime:frame.obj
 0002:000079f8       __tryblocktable$?CallUnexpected@@YAXPBU_s_ESTypeList@@@Z 100279f8     libvcruntime:frame.obj
 0002:00007a0c       __ehfuncinfo$?CallUnexpected@@YAXPBU_s_ESTypeList@@@Z 10027a0c     libvcruntime:frame.obj
 0002:00007a30       __sehtable$??$BuildCatchObjectHelperInternal@V__FrameHandler3@@@@YAHPAUEHExceptionRecord@@PAXPBU_s_HandlerType@@PBU_s_CatchableType@@@Z 10027a30     libvcruntime:frame.obj
 0002:00007a50       __sehtable$??$BuildCatchObjectInternal@V__FrameHandler3@@@@YAXPAUEHExceptionRecord@@PAXPBU_s_HandlerType@@PBU_s_CatchableType@@@Z 10027a50     libvcruntime:frame.obj
 0002:00007aa4       __ehfuncinfo$?write_double_translated_ansi_nolock@@YA?AUwrite_result@?A0x17268360@@HQBDIAAV__crt_cached_ptd_host@@@Z 10027aa4     libucrt:write.obj
 0002:00007aa4       __ehfuncinfo$?try_cor_exit_process@@YAXI@Z 10027aa4     libucrt:exit.obj
 0002:00007ac8       __unwindtable$?common_exit@@YAXHW4_crt_exit_cleanup_mode@@W4_crt_exit_return_mode@@@Z 10027ac8     libucrt:exit.obj
 0002:00007ad0       __ehfuncinfo$?common_exit@@YAXHW4_crt_exit_cleanup_mode@@W4_crt_exit_return_mode@@@Z 10027ad0     libucrt:exit.obj
 0002:00007af8       __sehtable$??R<lambda_6e4b09c48022b2350581041d5f6b0c4c>@@QBE@XZ 10027af8     libucrt:exit.obj
 0002:00007b18       __sehtable$??$?RV<lambda_03b1d95aef87969028cfba75ccab2455>@@AAV<lambda_6e4b09c48022b2350581041d5f6b0c4c>@@V<lambda_22bdf7517842c4b3e53723af5aa32b9e>@@@?$__crt_seh_guarded_call@X@@QAEX$$QAV<lambda_03b1d95aef87969028cfba75ccab2455>@@AAV<lambda_6e4b09c48022b2350581041d5f6b0c4c>@@$$QAV<lambda_22bdf7517842c4b3e53723af5aa32b9e>@@@Z 10027b18     libucrt:exit.obj
 0002:00007b34       __unwindtable$___dcrt_uninitialize_environments_nolock 10027b34     libucrt:environment_initialization.obj
 0002:00007b44       __ehfuncinfo$___dcrt_uninitialize_environments_nolock 10027b44     libucrt:environment_initialization.obj
 0002:00007b68       __unwindtable$__execute_onexit_table 10027b68     libucrt:onexit.obj
 0002:00007b70       __ehfuncinfo$__execute_onexit_table 10027b70     libucrt:onexit.obj
 0002:00007b98       __sehtable$??$?RV<lambda_8e746cf0007f6ed984d6f78af1fec997>@@AAV<lambda_22ebabd17bc4fa466a2aca6d8deb888d>@@V<lambda_18ed0c0b38a6dc0daf1e7ac6d6adf05e>@@@?$__crt_seh_guarded_call@H@@QAEH$$QAV<lambda_8e746cf0007f6ed984d6f78af1fec997>@@AAV<lambda_22ebabd17bc4fa466a2aca6d8deb888d>@@$$QAV<lambda_18ed0c0b38a6dc0daf1e7ac6d6adf05e>@@@Z 10027b98     libucrt:onexit.obj
 0002:00007bb8       __sehtable$??$?RV<lambda_69a2805e680e0e292e8ba93315fe43a8>@@AAV<lambda_f03950bc5685219e0bcd2087efbe011e>@@V<lambda_03fcd07e894ec930e3f35da366ca99d6>@@@?$__crt_seh_guarded_call@H@@QAEH$$QAV<lambda_69a2805e680e0e292e8ba93315fe43a8>@@AAV<lambda_f03950bc5685219e0bcd2087efbe011e>@@$$QAV<lambda_03fcd07e894ec930e3f35da366ca99d6>@@@Z 10027bb8     libucrt:onexit.obj
 0002:00007bd8       __sehtable$__query_new_handler 10027bd8     libucrt:new_handler.obj
 0002:00007bf8       __sehtable$_terminate      10027bf8     libucrt:terminate.obj
 0002:00007c18       __sehtable$??$?RV<lambda_15ade71b0218206bbe3333a0c9b79046>@@AAV<lambda_da44e0f8b0f19ba52fefafb335991732>@@V<lambda_207f2d024fc103971653565357d6cd41>@@@?$__crt_seh_guarded_call@X@@QAEX$$QAV<lambda_15ade71b0218206bbe3333a0c9b79046>@@AAV<lambda_da44e0f8b0f19ba52fefafb335991732>@@$$QAV<lambda_207f2d024fc103971653565357d6cd41>@@@Z 10027c18     libucrt:per_thread_data.obj
 0002:00007c38       __sehtable$??$?RV<lambda_a7e850c220f1c8d1e6efeecdedd162c6>@@AAV<lambda_46720907175c18b6c9d2717bc0d2d362>@@V<lambda_9048902d66e8d99359bc9897bbb930a8>@@@?$__crt_seh_guarded_call@X@@QAEX$$QAV<lambda_a7e850c220f1c8d1e6efeecdedd162c6>@@AAV<lambda_46720907175c18b6c9d2717bc0d2d362>@@$$QAV<lambda_9048902d66e8d99359bc9897bbb930a8>@@@Z 10027c38     libucrt:per_thread_data.obj
 0002:00007c58       __sehtable$??$?RV<lambda_38edbb1296d33220d7e4dd0ed76b244a>@@AAV<lambda_5ce1d447e08cb34b2473517608e21441>@@V<lambda_fb385d3da700c9147fc39e65dd577a8c>@@@?$__crt_seh_guarded_call@X@@QAEX$$QAV<lambda_38edbb1296d33220d7e4dd0ed76b244a>@@AAV<lambda_5ce1d447e08cb34b2473517608e21441>@@$$QAV<lambda_fb385d3da700c9147fc39e65dd577a8c>@@@Z 10027c58     libucrt:per_thread_data.obj
 0002:00007c78       __sehtable$??$?RV<lambda_6affb1475c98b40b75cdec977db92e3c>@@AAV<lambda_b8d4b9c228a6ecc3f80208dbb4b4a104>@@V<lambda_608742c3c92a14382c1684fc64f96c88>@@@?$__crt_seh_guarded_call@X@@QAEX$$QAV<lambda_6affb1475c98b40b75cdec977db92e3c>@@AAV<lambda_b8d4b9c228a6ecc3f80208dbb4b4a104>@@$$QAV<lambda_608742c3c92a14382c1684fc64f96c88>@@@Z 10027c78     libucrt:per_thread_data.obj
 0002:00007c98       __sehtable$??$?RV<lambda_e5124f882df8998aaf41531e079ba474>@@AAV<lambda_3e16ef9562a7dcce91392c22ab16ea36>@@V<lambda_e25ca0880e6ef98be67edffd8c599615>@@@?$__crt_seh_guarded_call@X@@QAEX$$QAV<lambda_e5124f882df8998aaf41531e079ba474>@@AAV<lambda_3e16ef9562a7dcce91392c22ab16ea36>@@$$QAV<lambda_e25ca0880e6ef98be67edffd8c599615>@@@Z 10027c98     libucrt:wsetlocale.obj
 0002:00007cb8       __sehtable$___acrt_initialize_lowio 10027cb8     libucrt:ioinit.obj
 0002:00007cd8       __sehtable$?update_thread_multibyte_data_internal@@YAPAU__crt_multibyte_data@@QAU__acrt_ptd@@QAPAU1@@Z 10027cd8     libucrt:mbctype.obj
 0002:00007cf8       __sehtable$??$?RV<lambda_ceb1ee4838e85a9d631eb091e2fbe199>@@AAV<lambda_ae742caa10f662c28703da3d2ea5e57e>@@V<lambda_cd08b5d6af4937fe54fc07d0c9bf6b37>@@@?$__crt_seh_guarded_call@X@@QAEX$$QAV<lambda_ceb1ee4838e85a9d631eb091e2fbe199>@@AAV<lambda_ae742caa10f662c28703da3d2ea5e57e>@@$$QAV<lambda_cd08b5d6af4937fe54fc07d0c9bf6b37>@@@Z 10027cf8     libucrt:mbctype.obj
 0002:00007d18       __sehtable$_raise          10027d18     libucrt:signal.obj
 0002:00007d38       __sehtable$??$?RV<lambda_cbab9ec6f41b0180b23cc171c22676b0>@@AAV<lambda_44731a7d0e6d81c3e6aa82d741081786>@@V<lambda_4b292cb8dd18144e164572427af410ab>@@@?$__crt_seh_guarded_call@P6AXH@Z@@QAEP6AXH@Z$$QAV<lambda_cbab9ec6f41b0180b23cc171c22676b0>@@AAV<lambda_44731a7d0e6d81c3e6aa82d741081786>@@$$QAV<lambda_4b292cb8dd18144e164572427af410ab>@@@Z 10027d38     libucrt:signal.obj
 0002:00007d58       __sehtable$??$?RV<lambda_2866be3712abc81a800a822484c830d8>@@AAV<lambda_39ca0ed439415581b5b15c265174cece>@@V<lambda_2b24c74d71094a6cd0cb82e44167d71b>@@@?$__crt_seh_guarded_call@X@@QAEX$$QAV<lambda_2866be3712abc81a800a822484c830d8>@@AAV<lambda_39ca0ed439415581b5b15c265174cece>@@$$QAV<lambda_2b24c74d71094a6cd0cb82e44167d71b>@@@Z 10027d58     libucrt:fflush.obj
 0002:00007d78       __sehtable$??$?RV<lambda_2cc53f568c5a2bb6f192f930a45d44ea>@@AAV<lambda_ab61a845afdef5b7c387490eaf3616ee>@@V<lambda_c2ffc0b7726aa6be21d5f0026187e748>@@@?$__crt_seh_guarded_call@X@@QAEX$$QAV<lambda_2cc53f568c5a2bb6f192f930a45d44ea>@@AAV<lambda_ab61a845afdef5b7c387490eaf3616ee>@@$$QAV<lambda_c2ffc0b7726aa6be21d5f0026187e748>@@@Z 10027d78     libucrt:fflush.obj
 0002:00007d98       __sehtable$___acrt_update_thread_locale_data 10027d98     libucrt:locale_refcounting.obj
 0002:00007db8       __sehtable$__fcloseall     10027db8     libucrt:closeall.obj
 0002:00007dd8       __sehtable$___acrt_lowio_ensure_fh_exists 10027dd8     libucrt:osfinfo.obj
 0002:00007df8       __sehtable$??$?RV<lambda_9e9de3de5fa147e2223d7db92bc10aa6>@@AAV<lambda_38ce7e780aa69e748d6df282ebc68efe>@@V<lambda_8ca6da459f0f6780f1cff60fdc3d00e5>@@@?$__crt_seh_guarded_call@H@@QAEH$$QAV<lambda_9e9de3de5fa147e2223d7db92bc10aa6>@@AAV<lambda_38ce7e780aa69e748d6df282ebc68efe>@@$$QAV<lambda_8ca6da459f0f6780f1cff60fdc3d00e5>@@@Z 10027df8     libucrt:commit.obj
 0002:00007e18       __sehtable$__write_internal 10027e18     libucrt:write.obj
 0002:00007e38       __sehtable$?_fclose_internal@@YAHQAU_iobuf@@AAV__crt_cached_ptd_host@@@Z 10027e38     libucrt:fclose.obj
 0002:00007e58       __sehtable$??$?RV<lambda_d422a76eb4c3bf3ad751449ab71a6ea4>@@AAV<lambda_c9ba49e555ba839a7b07aa3fbecb7617>@@V<lambda_9476263c8ee91a25d21c55370bdb50de>@@@?$__crt_seh_guarded_call@H@@QAEH$$QAV<lambda_d422a76eb4c3bf3ad751449ab71a6ea4>@@AAV<lambda_c9ba49e555ba839a7b07aa3fbecb7617>@@$$QAV<lambda_9476263c8ee91a25d21c55370bdb50de>@@@Z 10027e58     libucrt:close.obj
 0002:00007e78       __sehtable$___set_fpsr_sse2 10027e78     libucrt:fpctrl.obj
 0002:00007e98       __sehtable$__IsNonwritableInCurrentImage 10027e98     LIBCMT:pesect.obj
 0002:00007ec0       .edata                     10027ec0     OPOSToneIndicator.exp
 0002:00007ee8       rgpv                       10027ee8     OPOSToneIndicator.exp
 0002:00007ef8       rgszName                   10027ef8     OPOSToneIndicator.exp
 0002:00007f08       rgwOrd                     10027f08     OPOSToneIndicator.exp
 0002:00007f10       szName                     10027f10     OPOSToneIndicator.exp
 0002:00007f26       $N00001                    10027f26     OPOSToneIndicator.exp
 0002:00007f36       $N00002                    10027f36     OPOSToneIndicator.exp
 0002:00007f48       $N00003                    10027f48     OPOSToneIndicator.exp
 0002:00007f5a       $N00004                    10027f5a     OPOSToneIndicator.exp
 0002:0000856a       .idata$6                   1002856a     kernel32:KERNEL32.dll
 0002:0000877e       .idata$6                   1002877e     user32:USER32.dll
 0002:000088b2       .idata$6                   100288b2     gdi32:GDI32.dll
 0002:00008958       .idata$6                   10028958     advapi32:ADVAPI32.dll
 0002:00008a74       .idata$6                   10028a74     ole32:ole32.dll
 0002:00008a7e       .idata$6                   10028a7e     oleaut32:OLEAUT32.dll
 0003:00000110       ?ObjectMap@@3PAU_ATL_OBJMAP_ENTRY30@ATL@@A 10029110     ToneIndicator.obj
 0003:000001e0       ?s_SOMethodNames@@3PAPADA  100291e0     ToneIndicatorImpl.obj
 0003:00000230       ?s_RequiredMethodsPerRelease@@3PAHA 10029230     ToneIndicatorImpl.obj
 0003:00000280       ?__vcrt_flsindex@@3KA      10029280     libvcruntime:per_thread_data.obj
 0003:000002a0       ?errno_no_memory@@3HA      100292a0     libucrt:errno.obj
 0003:000002a4       ?doserrno_no_memory@@3KA   100292a4     libucrt:errno.obj
 0003:000002b0       ?__acrt_flsindex@@3KA      100292b0     libucrt:per_thread_data.obj
 0003:00000648       __mbctypes                 10029648     libucrt:mbctype.obj
 0003:00000750       __mbcasemaps               10029750     libucrt:mbctype.obj
 0003:00000850       ?__rgctypeflag@@3PADA      10029850     libucrt:mbctype.obj
 0003:00000858       ?__rgcode_page_info@@3PAUcode_page_info@@A 10029858     libucrt:mbctype.obj
 0003:00000ab0       ?__dcrt_lowio_console_output_handle@@3PAXA 10029ab0     libucrt:initcon.obj
 0003:00000ab4       ?__DAZ_ENABLED@?1??__set_fpsr_sse2@@9@9 10029ab4     libucrt:fpctrl.obj
 0003:00000c48       ?is_initialized_as_dll@@3_NA 10029c48     LIBCMT:utility.obj
 0003:00000c49       ?module_local_atexit_table_initialized@@3_NA 10029c49     LIBCMT:utility.obj
 0003:00000c4c       ?module_local_atexit_table@@3U_onexit_table_t@@A 10029c4c     LIBCMT:utility.obj
 0003:00000c58       ?module_local_at_quick_exit_table@@3U_onexit_table_t@@A 10029c58     LIBCMT:utility.obj
 0003:00000c64       ?g_tss_cv@@3U_RTL_CONDITION_VARIABLE@@A 10029c64     LIBCMT:thread_safe_statics.obj
 0003:00000c68       ?g_tss_event@@3PAXA        10029c68     LIBCMT:thread_safe_statics.obj
 0003:00000c6c       ?g_tss_mutex@@3U_RTL_CRITICAL_SECTION@@A 10029c6c     LIBCMT:thread_safe_statics.obj
 0003:00000c84       ?g_sleep_condition_variable_cs@@3P6GHPAU_RTL_CONDITION_VARIABLE@@PAU_RTL_CRITICAL_SECTION@@K@ZA 10029c84     LIBCMT:thread_safe_statics.obj
 0003:00000c88       ?g_wake_all_condition_variable@@3P6GXPAU_RTL_CONDITION_VARIABLE@@@ZA 10029c88     LIBCMT:thread_safe_statics.obj
 0003:00000c90       _GS_ExceptionRecord        10029c90     LIBCMT:gs_report.obj
 0003:00000ce0       _GS_ContextRecord          10029ce0     LIBCMT:gs_report.obj
 0003:00000fb0       ?__proc_attached@@3HA      10029fb0     LIBCMT:dll_dllmain.obj
 0003:0000100c       ?AllocateData@@3P6GPAUAtlThunkData_t@@XZA 1002a00c     atls:atlthunk.obj
 0003:00001010       ?InitData@@3P6GXPAUAtlThunkData_t@@PAXI@ZA 1002a010     atls:atlthunk.obj
 0003:00001014       ?DataToCode@@3P6GP6GJPAUHWND__@@IIJ@ZPAUAtlThunkData_t@@@ZA 1002a014     atls:atlthunk.obj
 0003:00001018       ?FreeData@@3P6GXPAUAtlThunkData_t@@@ZA 1002a018     atls:atlthunk.obj
 0003:0000101c       ?Initialized@@3_NA         1002a01c     atls:atlthunk.obj
 0003:0000102c       ?__vcrt_startup_thread_ptd@@3U__vcrt_ptd@@A 1002a02c     libvcruntime:per_thread_data.obj
 0003:00001054       ___vcrt_lock_table         1002a054     libvcruntime:locks.obj
 0003:0000106c       ___vcrt_locks_initialized  1002a06c     libvcruntime:locks.obj
 0003:00001098       ?heap@@3V_HeapManager@@A   1002a098     libvcruntime:undname.obj
 0003:000010ac       ?module_handles@@3PAPAUHINSTANCE__@@A 1002a0ac     libvcruntime:winapi_downlevel.obj
 0003:000010b8       ?function_pointers@@3PAPAXA 1002a0b8     libvcruntime:winapi_downlevel.obj
 0003:000010cc       ?__acrt_invalid_parameter_handler@@3V?$dual_state_global@P6AXPB_W00II@Z@__crt_state_management@@A 1002a0cc     libucrt:invalid_parameter.obj
 0003:000010d0       ?c_termination_complete@@3JA 1002a0d0     libucrt:exit.obj
 0003:000010d4       ?thread_local_exit_callback_func@@3P6GXPAXK0@ZA 1002a0d4     libucrt:exit.obj
 0003:000010e0       ?program_name@?1???$common_configure_argv@D@@YAHW4_crt_argv_mode@@@Z@4PADA 1002a0e0     libucrt:argv_parsing.obj
 0003:00001210       ?__acrt_new_handler@@3V?$dual_state_global@P6AHI@Z@__crt_state_management@@A 1002a210     libucrt:new_handler.obj
 0003:00001220       ?module_handles@@3PAPAUHINSTANCE__@@A 1002a220     libucrt:winapi_thunks.obj
 0003:00001270       ?encoded_function_pointers@@3PAPAXA 1002a270     libucrt:winapi_thunks.obj
 0003:000012f8       ?internal_state@?1??_mbtowc_internal@@9@4U_Mbstatet@@A 1002a2f8     libucrt:mbtowc.obj
 0003:00001308       ?enable_percent_n@@3IA     1002a308     libucrt:printf_count_output.obj
 0003:00001520       ?__acrt_lock_table@@3PAU_RTL_CRITICAL_SECTION@@A 1002a520     libucrt:locks.obj
 0003:00001670       ?__acrt_locks_initialized@@3IA 1002a670     libucrt:locks.obj
 0003:00001680       ?fSystemSet@@3HA           1002a680     libucrt:mbctype.obj
 0003:00001684       ?initialized@?1??__acrt_initialize_multibyte@@9@4_NA 1002a684     libucrt:mbctype.obj
 0003:000016a4       ?ctrlc_action@@3V?$dual_state_global@P6AXH@Z@__crt_state_management@@A 1002a6a4     libucrt:signal.obj
 0003:000016a8       ?ctrlbreak_action@@3V?$dual_state_global@P6AXH@Z@__crt_state_management@@A 1002a6a8     libucrt:signal.obj
 0003:000016ac       ?abort_action@@3V?$dual_state_global@P6AXH@Z@__crt_state_management@@A 1002a6ac     libucrt:signal.obj
 0003:000016b0       ?term_action@@3V?$dual_state_global@P6AXH@Z@__crt_state_management@@A 1002a6b0     libucrt:signal.obj
 0003:000016b4       ?user_matherr@@3V?$dual_state_global@P6AHPAU_exception@@@Z@__crt_state_management@@A 1002a6b4     libucrt:matherr.obj
 0003:000016c0       ?__acrt_global_new_mode@@3V?$dual_state_global@J@__crt_state_management@@A 1002a6c0     libucrt:new_mode.obj
 0003:000016c4       ?internal_pst@?1??__mbrtoc32_utf8@__crt_mbstring@@YAIPA_UPBDIPAU_Mbstatet@@AAV__crt_cached_ptd_host@@@Z@4U3@A 1002a6c4     libucrt:mbrtoc32.obj
 0003:000016cc       ?__acrt_app_type@@3W4_crt_app_type@@A 1002a6cc     libucrt:report_runtime_error.obj
 0003:000016d4       __pmatherr_set             1002a6d4     libucrt:libm_error.obj
 0004:00000220       $R000000                   1002b220     ToneIndicator.res
 0004:00000bc8       $R0009A8                   1002bbc8     ToneIndicator.res
 0004:00000cb0       $R000A90                   1002bcb0     ToneIndicator.res
 0004:00000f18       $R000CF8                   1002bf18     ToneIndicator.res
 0004:00001498       $R001278                   1002c498     ToneIndicator.res
 0004:000043b8       $R004198                   1002f3b8     ToneIndicator.res
 0004:000043f8       $R0041D8                   1002f3f8     ToneIndicator.res
