 OPOSTotals

 Timestamp is 5d42a033 (Thu Aug  1 17:17:55 2019)

 Preferred load address is 10000000

 Start         Length     Name                   Class
 0001:00000000 00000080H .text$di                CODE
 0001:00000080 0001d613H .text$mn                CODE
 0001:0001d693 00000036H .text$x                 CODE
 0001:0001d6c9 00000042H .text$yd                CODE
 0002:00000000 000002fcH .idata$5                DATA
 0002:000002fc 00000004H .00cfg                  DATA
 0002:00000300 00000004H .CRT$XCA                DATA
 0002:00000304 00000004H .CRT$XCL                DATA
 0002:00000308 00000010H .CRT$XCU                DATA
 0002:00000318 00000004H .CRT$XCZ                DATA
 0002:0000031c 00000004H .CRT$XIA                DATA
 0002:00000320 00000010H .CRT$XIC                DATA
 0002:00000330 00000004H .CRT$XIZ                DATA
 0002:00000334 00000004H .CRT$XLA                DATA
 0002:00000338 00000004H .CRT$XLZ                DATA
 0002:0000033c 00000004H .CRT$XPA                DATA
 0002:00000340 00000008H .CRT$XPX                DATA
 0002:00000348 00000004H .CRT$XPXA               DATA
 0002:0000034c 00000004H .CRT$XPZ                DATA
 0002:00000350 00000004H .CRT$XTA                DATA
 0002:00000354 0000000cH .CRT$XTZ                DATA
 0002:00000358 00000000H .gfids$y                DATA
 0002:00000360 00006d5cH .rdata                  DATA
 0002:000070bc 00000018H .rdata$T                DATA
 0002:000070d4 0000017cH .rdata$r                DATA
 0002:00007250 0000001cH .rdata$sxdata           DATA
 0002:0000726c 000003dcH .rdata$zzzdbg           DATA
 0002:00007648 00000004H .rtc$IAA                DATA
 0002:0000764c 00000004H .rtc$IZZ                DATA
 0002:00007650 00000004H .rtc$TAA                DATA
 0002:00007654 00000004H .rtc$TZZ                DATA
 0002:00007658 00000004H .tls                    DATA
 0002:0000765c 00000004H .tls$                   DATA
 0002:00007660 00000008H .tls$ZZZ                DATA
 0002:00007668 00000604H .xdata$x                DATA
 0002:00007c6c 00000004H ATL$__a                 DATA
 0002:00007c70 00000010H ATL$__z                 DATA
 0002:00007c80 000000a8H .edata                  DATA
 0002:00007d28 00000078H .idata$2                DATA
 0002:00007da0 00000014H .idata$3                DATA
 0002:00007db4 000002fcH .idata$4                DATA
 0002:000080b0 00000bc8H .idata$6                DATA
 0003:00000000 00000ac0H .data                   DATA
 0003:00000ac0 00000098H .data$r                 DATA
 0003:00000b58 00000b80H .bss                    DATA
 0004:00000000 00000220H .rsrc$01                DATA
 0004:00000220 00004078H .rsrc$02                DATA

  Address         Publics by Value              Rva+Base       Lib:Object

 0000:00000000       ___guard_fids_count        00000000     <absolute>
 0000:00000000       ___guard_iat_count         00000000     <absolute>
 0000:00000000       ___hybrid_code_map_count   00000000     <absolute>
 0000:00000000       ___dynamic_value_reloc_table 00000000     <absolute>
 0000:00000000       ___guard_longjmp_count     00000000     <absolute>
 0000:00000000       __except_list              00000000     <absolute>
 0000:00000000       ___guard_fids_table        00000000     <absolute>
 0000:00000000       ___guard_longjmp_table     00000000     <absolute>
 0000:00000000       ___hybrid_auxiliary_iat    00000000     <absolute>
 0000:00000000       ___guard_iat_table         00000000     <absolute>
 0000:00000000       ___volatile_metadata       00000000     <absolute>
 0000:00000000       ___enclave_config          00000000     <absolute>
 0000:00000000       ___AbsoluteZero            00000000     <absolute>
 0000:00000000       ___hybrid_code_map         00000000     <absolute>
 0000:00000007       ___safe_se_handler_count   00000007     <absolute>
 0000:0000002c       __tls_array                0000002c     <absolute>
 0000:00000100       ___guard_flags             00000100     <absolute>
 0000:00000000       ___ImageBase               10000000     <linker-defined>
 0001:00000080       ?DupWide@_CW@@AAEXXZ       10001080 f   CWString.obj
 0001:0000009c       ?cw_dup@@YGXPBDAAHAAPA_W1@Z 1000109c f   CWString.obj
 0001:0000010b       ?cw_memcpy@@YGHPA_WPBDH@Z  1000110b f   CWString.obj
 0001:00000137       ?cw_strcpy@@YAHPA_WPBD@Z   10001137 f   CWString.obj
 0001:0000014a       ?cw_strlen@@YAHPBD@Z       1000114a f   CWString.obj
 0001:00000163       ??0CAtlComModule@ATL@@QAE@XZ 10001163 f i OposVariant.obj
 0001:000001a8       ??0CAtlWinModule@ATL@@QAE@XZ 100011a8 f i OposVariant.obj
 0001:000001df       ??0OposDispParms@@QAE@PAVOposVariant@@H@Z 100011df f   OposVariant.obj
 0001:00000250       ??1OposDispParms@@QAE@XZ   10001250 f   OposVariant.obj
 0001:0000025e       ??A?$CSimpleArray@GV?$CSimpleArrayEqualHelper@G@ATL@@@ATL@@QAEAAGH@Z 1000125e f i OposVariant.obj
 0001:00000283       ??_Estringdispid@CComTypeInfoHolder@ATL@@QAEPAXI@Z 10001283 f i OposVariant.obj
 0001:000002ef       ?AtlWinModuleInit@ATL@@YGJPAU_ATL_WIN_MODULE70@1@@Z 100012ef f i OposVariant.obj
 0001:00000315       ?AtlWinModuleTerm@ATL@@YGJPAU_ATL_WIN_MODULE70@1@PAUHINSTANCE__@@@Z 10001315 f i OposVariant.obj
 0001:00000378       ?ChangeBSTR@OposVariant@@QAEXPAPA_WAAJ@Z 10001378 f   OposVariant.obj
 0001:000003b9       ?ChangeLONG@OposVariant@@QAEXPAJAAJ@Z 100013b9 f   OposVariant.obj
 0001:000003fa       ?GetLONG@OposVariant@@QAEJXZ 100013fa f   OposVariant.obj
 0001:00000415       ?Init@CComCriticalSection@ATL@@QAEJXZ 10001415 f i OposVariant.obj
 0001:0000043d       ?RemoveAll@?$CSimpleArray@GV?$CSimpleArrayEqualHelper@G@ATL@@@ATL@@QAEXXZ 1000143d f i OposVariant.obj
 0001:0000043d       ?RemoveAll@?$CSimpleArray@PAUHINSTANCE__@@V?$CSimpleArrayEqualHelper@PAUHINSTANCE__@@@ATL@@@ATL@@QAEXXZ 1000143d f i atls:atlbase.obj
 0001:0000045a       ?SetBSTR@OposVariant@@QAEXPA_WAAJ@Z 1000145a f   OposVariant.obj
 0001:0000048e       ?SetBSTR_Copy@OposVariant@@QAEXPA_WAAJ@Z 1000148e f   OposVariant.obj
 0001:000004de       ?SetBSTR_InOutPtr@OposVariant@@QAE_NPAPA_WAAJ@Z 100014de f   OposVariant.obj
 0001:00000515       ?SetBSTR_OutPtr@OposVariant@@QAE_NPAPA_WAAJ@Z 10001515 f   OposVariant.obj
 0001:00000531       ?SetDispatch_Ptr@OposVariant@@QAEXPAUIDispatch@@AAJ@Z 10001531 f   OposVariant.obj
 0001:0000056c       ?SetLONG@OposVariant@@QAEXJ@Z 1000156c f   OposVariant.obj
 0001:0000058e       ?SetLONG_Ptr@OposVariant@@QAEXPAJAAJ@Z 1000158e f   OposVariant.obj
 0001:000005c1       ?SetString@OposVariant@@QAEXPB_WAAJ@Z 100015c1 f   OposVariant.obj
 0001:00000607       ?SetVARIANT_BOOL@OposVariant@@QAEXF@Z 10001607 f   OposVariant.obj
 0001:00000631       ?Term@CAtlComModule@ATL@@QAEXXZ 10001631 f i OposVariant.obj
 0001:0000067b       ?_AtlRaiseException@ATL@@YAXKK@Z 1000167b f i OposVariant.obj
 0001:00000690       ?AddRef@?$CComObjectCached@VCComClassFactory@ATL@@@ATL@@UAGKXZ 10001690 f i Totals.obj
 0001:000006b7       ?Release@?$CComObjectCached@VCComClassFactory@ATL@@@ATL@@UAGKXZ 100016b7 f i Totals.obj
 0001:000006ed       ?QueryInterface@?$CComObjectCached@VCComClassFactory@ATL@@@ATL@@UAGJABU_GUID@@PAPAX@Z 100016ed f i Totals.obj
 0001:00000707       ??_G?$CComObjectCached@VCComClassFactory@ATL@@@ATL@@UAEPAXI@Z 10001707 f i Totals.obj
 0001:00000707       ??_E?$CComObjectCached@VCComClassFactory@ATL@@@ATL@@UAEPAXI@Z 10001707 f i Totals.obj
 0001:00000729       ?AddRef@?$CComAggObject@VCOPOSTotals@@@ATL@@UAGKXZ 10001729 f i Totals.obj
 0001:0000073a       ?Release@?$CComAggObject@VCOPOSTotals@@@ATL@@UAGKXZ 1000173a f i Totals.obj
 0001:00000776       ?QueryInterface@?$CComAggObject@VCOPOSTotals@@@ATL@@UAGJABU_GUID@@PAPAX@Z 10001776 f i Totals.obj
 0001:000007c5       ?AddRef@?$CComContainedObject@VCOPOSTotals@@@ATL@@UAGKXZ 100017c5 f i Totals.obj
 0001:000007db       ?Release@?$CComContainedObject@VCOPOSTotals@@@ATL@@UAGKXZ 100017db f i Totals.obj
 0001:000007f1       ?QueryInterface@?$CComContainedObject@VCOPOSTotals@@@ATL@@UAGJABU_GUID@@PAPAX@Z 100017f1 f i Totals.obj
 0001:0000080c       ??_G?$CComAggObject@VCOPOSTotals@@@ATL@@UAEPAXI@Z 1000180c f i Totals.obj
 0001:0000080c       ??_E?$CComAggObject@VCOPOSTotals@@@ATL@@UAEPAXI@Z 1000180c f i Totals.obj
 0001:00000831       ?AddRef@?$CComObject@VCOPOSTotals@@@ATL@@UAGKXZ 10001831 f i Totals.obj
 0001:00000848       ?Release@?$CComObject@VCOPOSTotals@@@ATL@@UAGKXZ 10001848 f i Totals.obj
 0001:0000088a       ?QueryInterface@?$CComObject@VCOPOSTotals@@@ATL@@UAGJABU_GUID@@PAPAX@Z 1000188a f i Totals.obj
 0001:000008a4       ?Lock@CAtlModule@ATL@@UAEJXZ 100018a4 f i Totals.obj
 0001:000008ae       ?Unlock@CAtlModule@ATL@@UAEJXZ 100018ae f i Totals.obj
 0001:000008b8       ?GetLockCount@CAtlModule@ATL@@UAEJXZ 100018b8 f i Totals.obj
 0001:000008bc       ?GetGITPtr@CAtlModule@ATL@@UAEJPAPAUIGlobalInterfaceTable@@@Z 100018bc f i Totals.obj
 0001:00000908       ?AddCommonRGSReplacements@?$CAtlModuleT@VCComModule@ATL@@@ATL@@UAEJPAUIRegistrarBase@@@Z 10001908 f i Totals.obj
 0001:00000922       ?UpdateRegistryFromResourceD@CComModule@ATL@@UAGJIHPAU_ATL_REGMAP_ENTRY@2@@Z 10001922 f i Totals.obj
 0001:00000922       ?UpdateRegistryFromResourceD@CComModule@ATL@@UAGJPB_WHPAU_ATL_REGMAP_ENTRY@2@@Z 10001922 f i Totals.obj
 0001:0000092a       ?UpdateRegistryFromResource@CComModule@ATL@@UAGJPB_WHPAU_ATL_REGMAP_ENTRY@2@@Z 1000192a f i Totals.obj
 0001:00000933       ?UpdateRegistryFromResource@CComModule@ATL@@UAGJIHPAU_ATL_REGMAP_ENTRY@2@@Z 10001933 f i Totals.obj
 0001:0000093c       ??_GCComModule@ATL@@UAEPAXI@Z 1000193c f i Totals.obj
 0001:0000093c       ??_ECComModule@ATL@@UAEPAXI@Z 1000193c f i Totals.obj
 0001:00000964       ?OnDrawAdvanced@CComControlBase@ATL@@UAEJAAUATL_DRAWINFO@@@Z 10001964 f i Totals.obj
 0001:00000a53       ?Next@?$CComEnumImpl@UIEnumConnections@@$1?_GUID_b196b287_bab4_101a_b69c_00aa00341d07@@3U__s_GUID@@BUtagCONNECTDATA@@V?$_Copy@UtagCONNECTDATA@@@ATL@@@ATL@@UAGJKPAUtagCONNECTDATA@@PAK@Z 10001a53 f i Totals.obj
 0001:00000b2a       ?Skip@?$CComEnumImpl@UIEnumConnections@@$1?_GUID_b196b287_bab4_101a_b69c_00aa00341d07@@3U__s_GUID@@BUtagCONNECTDATA@@V?$_Copy@UtagCONNECTDATA@@@ATL@@@ATL@@UAGJK@Z 10001b2a f i Totals.obj
 0001:00000b57       ?Reset@?$CComEnumImpl@UIEnumConnectionPoints@@$1?_GUID_b196b285_bab4_101a_b69c_00aa00341d07@@3U__s_GUID@@BPAUIConnectionPoint@@V?$_CopyInterface@UIConnectionPoint@@@ATL@@@ATL@@UAGJXZ 10001b57 f i Totals.obj
 0001:00000b57       ?Reset@?$CComEnumImpl@UIEnumConnections@@$1?_GUID_b196b287_bab4_101a_b69c_00aa00341d07@@3U__s_GUID@@BUtagCONNECTDATA@@V?$_Copy@UtagCONNECTDATA@@@ATL@@@ATL@@UAGJXZ 10001b57 f i Totals.obj
 0001:00000b69       ?Clone@?$CComEnumImpl@UIEnumConnections@@$1?_GUID_b196b287_bab4_101a_b69c_00aa00341d07@@3U__s_GUID@@BUtagCONNECTDATA@@V?$_Copy@UtagCONNECTDATA@@@ATL@@@ATL@@UAGJPAPAUIEnumConnections@@@Z 10001b69 f i Totals.obj
 0001:00000c4a       ?AddRef@?$CComObject@V?$CComEnum@UIEnumConnectionPoints@@$1?_GUID_b196b285_bab4_101a_b69c_00aa00341d07@@3U__s_GUID@@BPAUIConnectionPoint@@V?$_CopyInterface@UIConnectionPoint@@@ATL@@VCComSingleThreadModel@6@@ATL@@@ATL@@UAGKXZ 10001c4a f i Totals.obj
 0001:00000c4a       ?AddRef@?$CComObject@V?$CComEnum@UIEnumConnections@@$1?_GUID_b196b287_bab4_101a_b69c_00aa00341d07@@3U__s_GUID@@BUtagCONNECTDATA@@V?$_Copy@UtagCONNECTDATA@@@ATL@@VCComSingleThreadModel@6@@ATL@@@ATL@@UAGKXZ 10001c4a f i Totals.obj
 0001:00000c5b       ?Release@?$CComObject@V?$CComEnum@UIEnumConnections@@$1?_GUID_b196b287_bab4_101a_b69c_00aa00341d07@@3U__s_GUID@@BUtagCONNECTDATA@@V?$_Copy@UtagCONNECTDATA@@@ATL@@VCComSingleThreadModel@6@@ATL@@@ATL@@UAGKXZ 10001c5b f i Totals.obj
 0001:00000c5b       ?Release@?$CComObject@V?$CComEnum@UIEnumConnectionPoints@@$1?_GUID_b196b285_bab4_101a_b69c_00aa00341d07@@3U__s_GUID@@BPAUIConnectionPoint@@V?$_CopyInterface@UIConnectionPoint@@@ATL@@VCComSingleThreadModel@6@@ATL@@@ATL@@UAGKXZ 10001c5b f i Totals.obj
 0001:00000c97       ?QueryInterface@?$CComObject@V?$CComEnum@UIEnumConnections@@$1?_GUID_b196b287_bab4_101a_b69c_00aa00341d07@@3U__s_GUID@@BUtagCONNECTDATA@@V?$_Copy@UtagCONNECTDATA@@@ATL@@VCComSingleThreadModel@6@@ATL@@@ATL@@UAGJABU_GUID@@PAPAX@Z 10001c97 f i Totals.obj
 0001:00000cb1       ??_G?$CComObject@V?$CComEnum@UIEnumConnections@@$1?_GUID_b196b287_bab4_101a_b69c_00aa00341d07@@3U__s_GUID@@BUtagCONNECTDATA@@V?$_Copy@UtagCONNECTDATA@@@ATL@@VCComSingleThreadModel@6@@ATL@@@ATL@@UAEPAXI@Z 10001cb1 f i Totals.obj
 0001:00000cb1       ??_E?$CComObject@V?$CComEnum@UIEnumConnections@@$1?_GUID_b196b287_bab4_101a_b69c_00aa00341d07@@3U__s_GUID@@BUtagCONNECTDATA@@V?$_Copy@UtagCONNECTDATA@@@ATL@@VCComSingleThreadModel@6@@ATL@@@ATL@@UAEPAXI@Z 10001cb1 f i Totals.obj
 0001:00000cd3       ?GetRect@?$IViewObjectExImpl@VCOPOSTotals@@@ATL@@UAGJKPAU_RECTL@@@Z 10001cd3 f i Totals.obj
 0001:00000cd3       ?QueryInterface@CRegObject@ATL@@UAGJABU_GUID@@PAPAX@Z 10001cd3 f i Totals.obj
 0001:00000cd3       ?SetMoniker@?$IOleObjectImpl@VCOPOSTotals@@@ATL@@UAGJKPAUIMoniker@@@Z 10001cd3 f i Totals.obj
 0001:00000cd3       ?GetDataHere@?$IDataObjectImpl@VCOPOSTotals@@@ATL@@UAGJPAUtagFORMATETC@@PAUtagSTGMEDIUM@@@Z 10001cd3 f i Totals.obj
 0001:00000cd3       ?EnumFormatEtc@?$IDataObjectImpl@VCOPOSTotals@@@ATL@@UAGJKPAPAUIEnumFORMATETC@@@Z 10001cd3 f i Totals.obj
 0001:00000cd3       ?GetClipboardData@?$IOleObjectImpl@VCOPOSTotals@@@ATL@@UAGJKPAPAUIDataObject@@@Z 10001cd3 f i Totals.obj
 0001:00000cd3       ?GetCanonicalFormatEtc@?$IDataObjectImpl@VCOPOSTotals@@@ATL@@UAGJPAUtagFORMATETC@@0@Z 10001cd3 f i Totals.obj
 0001:00000cdb       ?AddRef@CRegObject@ATL@@UAGKXZ 10001cdb f i Totals.obj
 0001:00000ce1       ?Update@?$IOleObjectImpl@VCOPOSTotals@@@ATL@@UAGJXZ 10001ce1 f i Totals.obj
 0001:00000ce1       ?IsUpToDate@?$IOleObjectImpl@VCOPOSTotals@@@ATL@@UAGJXZ 10001ce1 f i Totals.obj
 0001:00000ce1       ?Release@CRegObject@ATL@@UAGKXZ 10001ce1 f i Totals.obj
 0001:00000ce1       ?HandsOffStorage@?$IPersistStorageImpl@VCOPOSTotals@@@ATL@@UAGJXZ 10001ce1 f i Totals.obj
 0001:00000ce6       ?AddReplacement@CRegObject@ATL@@UAGJPB_W0@Z 10001ce6 f i Totals.obj
 0001:00000d1f       ?ClearReplacements@CRegObject@ATL@@UAGJXZ 10001d1f f i Totals.obj
 0001:00000d31       ??_ECRegObject@ATL@@UAEPAXI@Z 10001d31 f i Totals.obj
 0001:00000d31       ??_GCRegObject@ATL@@UAEPAXI@Z 10001d31 f i Totals.obj
 0001:00000d53       ??_E?$CComObject@VCOPOSTotals@@@ATL@@W3AEPAXI@Z 10001d53 f i Totals.obj
 0001:00000d5b       ??_E?$CComObject@VCOPOSTotals@@@ATL@@WEM@AEPAXI@Z 10001d5b f i Totals.obj
 0001:00000d63       ?QueryInterface@?$CComObject@VCOPOSTotals@@@ATL@@WHA@AGJABU_GUID@@PAPAX@Z 10001d63 f i Totals.obj
 0001:00000d6d       ?AddRef@?$CComObject@VCOPOSTotals@@@ATL@@WHA@AGKXZ 10001d6d f i Totals.obj
 0001:00000d77       ?Release@?$CComObject@VCOPOSTotals@@@ATL@@WHA@AGKXZ 10001d77 f i Totals.obj
 0001:00000d81       ?QueryInterface@?$CComObject@VCOPOSTotals@@@ATL@@WHE@AGJABU_GUID@@PAPAX@Z 10001d81 f i Totals.obj
 0001:00000d8b       ?AddRef@?$CComObject@VCOPOSTotals@@@ATL@@WHE@AGKXZ 10001d8b f i Totals.obj
 0001:00000d95       ?Release@?$CComObject@VCOPOSTotals@@@ATL@@WHE@AGKXZ 10001d95 f i Totals.obj
 0001:00000d9f       ?QueryInterface@?$CComObject@VCOPOSTotals@@@ATL@@WHI@AGJABU_GUID@@PAPAX@Z 10001d9f f i Totals.obj
 0001:00000da9       ?AddRef@?$CComObject@VCOPOSTotals@@@ATL@@WHI@AGKXZ 10001da9 f i Totals.obj
 0001:00000db3       ?Release@?$CComObject@VCOPOSTotals@@@ATL@@WHI@AGKXZ 10001db3 f i Totals.obj
 0001:00000dbd       ?QueryInterface@?$CComObject@VCOPOSTotals@@@ATL@@WHM@AGJABU_GUID@@PAPAX@Z 10001dbd f i Totals.obj
 0001:00000dc7       ?AddRef@?$CComObject@VCOPOSTotals@@@ATL@@WHM@AGKXZ 10001dc7 f i Totals.obj
 0001:00000dd1       ?Release@?$CComObject@VCOPOSTotals@@@ATL@@WHM@AGKXZ 10001dd1 f i Totals.obj
 0001:00000ddb       ?QueryInterface@?$CComObject@VCOPOSTotals@@@ATL@@WIA@AGJABU_GUID@@PAPAX@Z 10001ddb f i Totals.obj
 0001:00000de8       ?AddRef@?$CComObject@VCOPOSTotals@@@ATL@@WIA@AGKXZ 10001de8 f i Totals.obj
 0001:00000df5       ?Release@?$CComObject@VCOPOSTotals@@@ATL@@WIA@AGKXZ 10001df5 f i Totals.obj
 0001:00000e02       ?QueryInterface@?$CComObject@VCOPOSTotals@@@ATL@@WIE@AGJABU_GUID@@PAPAX@Z 10001e02 f i Totals.obj
 0001:00000e0f       ?AddRef@?$CComObject@VCOPOSTotals@@@ATL@@WIE@AGKXZ 10001e0f f i Totals.obj
 0001:00000e1c       ?Release@?$CComObject@VCOPOSTotals@@@ATL@@WIE@AGKXZ 10001e1c f i Totals.obj
 0001:00000e29       ?QueryInterface@?$CComObject@VCOPOSTotals@@@ATL@@WII@AGJABU_GUID@@PAPAX@Z 10001e29 f i Totals.obj
 0001:00000e36       ?AddRef@?$CComObject@VCOPOSTotals@@@ATL@@WII@AGKXZ 10001e36 f i Totals.obj
 0001:00000e43       ?Release@?$CComObject@VCOPOSTotals@@@ATL@@WII@AGKXZ 10001e43 f i Totals.obj
 0001:00000e50       ?QueryInterface@?$CComObject@VCOPOSTotals@@@ATL@@WIM@AGJABU_GUID@@PAPAX@Z 10001e50 f i Totals.obj
 0001:00000e5d       ?AddRef@?$CComObject@VCOPOSTotals@@@ATL@@WIM@AGKXZ 10001e5d f i Totals.obj
 0001:00000e6a       ?Release@?$CComObject@VCOPOSTotals@@@ATL@@WIM@AGKXZ 10001e6a f i Totals.obj
 0001:00000e77       ?QueryInterface@?$CComObject@VCOPOSTotals@@@ATL@@WJA@AGJABU_GUID@@PAPAX@Z 10001e77 f i Totals.obj
 0001:00000e84       ?AddRef@?$CComObject@VCOPOSTotals@@@ATL@@WJA@AGKXZ 10001e84 f i Totals.obj
 0001:00000e91       ?Release@?$CComObject@VCOPOSTotals@@@ATL@@WJA@AGKXZ 10001e91 f i Totals.obj
 0001:00000e9e       ?QueryInterface@?$CComObject@VCOPOSTotals@@@ATL@@WJE@AGJABU_GUID@@PAPAX@Z 10001e9e f i Totals.obj
 0001:00000eab       ?AddRef@?$CComObject@VCOPOSTotals@@@ATL@@WJE@AGKXZ 10001eab f i Totals.obj
 0001:00000eb8       ?Release@?$CComObject@VCOPOSTotals@@@ATL@@WJE@AGKXZ 10001eb8 f i Totals.obj
 0001:00000ec5       ?QueryInterface@?$CComObject@VCOPOSTotals@@@ATL@@WJI@AGJABU_GUID@@PAPAX@Z 10001ec5 f i Totals.obj
 0001:00000ed2       ?AddRef@?$CComObject@VCOPOSTotals@@@ATL@@WJI@AGKXZ 10001ed2 f i Totals.obj
 0001:00000edf       ?Release@?$CComObject@VCOPOSTotals@@@ATL@@WJI@AGKXZ 10001edf f i Totals.obj
 0001:00000eec       ?QueryInterface@?$CComObject@VCOPOSTotals@@@ATL@@WJM@AGJABU_GUID@@PAPAX@Z 10001eec f i Totals.obj
 0001:00000ef9       ?AddRef@?$CComObject@VCOPOSTotals@@@ATL@@WJM@AGKXZ 10001ef9 f i Totals.obj
 0001:00000f06       ?Release@?$CComObject@VCOPOSTotals@@@ATL@@WJM@AGKXZ 10001f06 f i Totals.obj
 0001:00000f13       ?QueryInterface@?$CComObject@VCOPOSTotals@@@ATL@@WKA@AGJABU_GUID@@PAPAX@Z 10001f13 f i Totals.obj
 0001:00000f20       ?AddRef@?$CComObject@VCOPOSTotals@@@ATL@@WKA@AGKXZ 10001f20 f i Totals.obj
 0001:00000f2d       ?Release@?$CComObject@VCOPOSTotals@@@ATL@@WKA@AGKXZ 10001f2d f i Totals.obj
 0001:00000f3a       ?AddRef@?$CComObject@VCOPOSTotals@@@ATL@@WKI@AGKXZ 10001f3a f i Totals.obj
 0001:00000f47       ?Release@?$CComObject@VCOPOSTotals@@@ATL@@WKI@AGKXZ 10001f47 f i Totals.obj
 0001:00000f54       ?AddRef@?$CComObject@VCOPOSTotals@@@ATL@@WLE@AGKXZ 10001f54 f i Totals.obj
 0001:00000f61       ?Release@?$CComObject@VCOPOSTotals@@@ATL@@WLE@AGKXZ 10001f61 f i Totals.obj
 0001:00000f6e       ??_E?$CComContainedObject@VCOPOSTotals@@@ATL@@W3AEPAXI@Z 10001f6e f i Totals.obj
 0001:00000f76       ??_E?$CComContainedObject@VCOPOSTotals@@@ATL@@WEM@AEPAXI@Z 10001f76 f i Totals.obj
 0001:00000f7e       ?QueryInterface@?$CComContainedObject@VCOPOSTotals@@@ATL@@WHA@AGJABU_GUID@@PAPAX@Z 10001f7e f i Totals.obj
 0001:00000f88       ?AddRef@?$CComContainedObject@VCOPOSTotals@@@ATL@@WHA@AGKXZ 10001f88 f i Totals.obj
 0001:00000f92       ?Release@?$CComContainedObject@VCOPOSTotals@@@ATL@@WHA@AGKXZ 10001f92 f i Totals.obj
 0001:00000f9c       ?QueryInterface@?$CComContainedObject@VCOPOSTotals@@@ATL@@WHE@AGJABU_GUID@@PAPAX@Z 10001f9c f i Totals.obj
 0001:00000fa6       ?AddRef@?$CComContainedObject@VCOPOSTotals@@@ATL@@WHE@AGKXZ 10001fa6 f i Totals.obj
 0001:00000fb0       ?Release@?$CComContainedObject@VCOPOSTotals@@@ATL@@WHE@AGKXZ 10001fb0 f i Totals.obj
 0001:00000fba       ?QueryInterface@?$CComContainedObject@VCOPOSTotals@@@ATL@@WHI@AGJABU_GUID@@PAPAX@Z 10001fba f i Totals.obj
 0001:00000fc4       ?AddRef@?$CComContainedObject@VCOPOSTotals@@@ATL@@WHI@AGKXZ 10001fc4 f i Totals.obj
 0001:00000fce       ?Release@?$CComContainedObject@VCOPOSTotals@@@ATL@@WHI@AGKXZ 10001fce f i Totals.obj
 0001:00000fd8       ?QueryInterface@?$CComContainedObject@VCOPOSTotals@@@ATL@@WHM@AGJABU_GUID@@PAPAX@Z 10001fd8 f i Totals.obj
 0001:00000fe2       ?AddRef@?$CComContainedObject@VCOPOSTotals@@@ATL@@WHM@AGKXZ 10001fe2 f i Totals.obj
 0001:00000fec       ?Release@?$CComContainedObject@VCOPOSTotals@@@ATL@@WHM@AGKXZ 10001fec f i Totals.obj
 0001:00000ff6       ?QueryInterface@?$CComContainedObject@VCOPOSTotals@@@ATL@@WIA@AGJABU_GUID@@PAPAX@Z 10001ff6 f i Totals.obj
 0001:00001003       ?AddRef@?$CComContainedObject@VCOPOSTotals@@@ATL@@WIA@AGKXZ 10002003 f i Totals.obj
 0001:00001010       ?Release@?$CComContainedObject@VCOPOSTotals@@@ATL@@WIA@AGKXZ 10002010 f i Totals.obj
 0001:0000101d       ?QueryInterface@?$CComContainedObject@VCOPOSTotals@@@ATL@@WIE@AGJABU_GUID@@PAPAX@Z 1000201d f i Totals.obj
 0001:0000102a       ?AddRef@?$CComContainedObject@VCOPOSTotals@@@ATL@@WIE@AGKXZ 1000202a f i Totals.obj
 0001:00001037       ?Release@?$CComContainedObject@VCOPOSTotals@@@ATL@@WIE@AGKXZ 10002037 f i Totals.obj
 0001:00001044       ?QueryInterface@?$CComContainedObject@VCOPOSTotals@@@ATL@@WII@AGJABU_GUID@@PAPAX@Z 10002044 f i Totals.obj
 0001:00001051       ?AddRef@?$CComContainedObject@VCOPOSTotals@@@ATL@@WII@AGKXZ 10002051 f i Totals.obj
 0001:0000105e       ?Release@?$CComContainedObject@VCOPOSTotals@@@ATL@@WII@AGKXZ 1000205e f i Totals.obj
 0001:0000106b       ?QueryInterface@?$CComContainedObject@VCOPOSTotals@@@ATL@@WIM@AGJABU_GUID@@PAPAX@Z 1000206b f i Totals.obj
 0001:00001078       ?AddRef@?$CComContainedObject@VCOPOSTotals@@@ATL@@WIM@AGKXZ 10002078 f i Totals.obj
 0001:00001085       ?Release@?$CComContainedObject@VCOPOSTotals@@@ATL@@WIM@AGKXZ 10002085 f i Totals.obj
 0001:00001092       ?QueryInterface@?$CComContainedObject@VCOPOSTotals@@@ATL@@WJA@AGJABU_GUID@@PAPAX@Z 10002092 f i Totals.obj
 0001:0000109f       ?AddRef@?$CComContainedObject@VCOPOSTotals@@@ATL@@WJA@AGKXZ 1000209f f i Totals.obj
 0001:000010ac       ?Release@?$CComContainedObject@VCOPOSTotals@@@ATL@@WJA@AGKXZ 100020ac f i Totals.obj
 0001:000010b9       ?QueryInterface@?$CComContainedObject@VCOPOSTotals@@@ATL@@WJE@AGJABU_GUID@@PAPAX@Z 100020b9 f i Totals.obj
 0001:000010c6       ?AddRef@?$CComContainedObject@VCOPOSTotals@@@ATL@@WJE@AGKXZ 100020c6 f i Totals.obj
 0001:000010d3       ?Release@?$CComContainedObject@VCOPOSTotals@@@ATL@@WJE@AGKXZ 100020d3 f i Totals.obj
 0001:000010e0       ?QueryInterface@?$CComContainedObject@VCOPOSTotals@@@ATL@@WJI@AGJABU_GUID@@PAPAX@Z 100020e0 f i Totals.obj
 0001:000010ed       ?AddRef@?$CComContainedObject@VCOPOSTotals@@@ATL@@WJI@AGKXZ 100020ed f i Totals.obj
 0001:000010fa       ?Release@?$CComContainedObject@VCOPOSTotals@@@ATL@@WJI@AGKXZ 100020fa f i Totals.obj
 0001:00001107       ?QueryInterface@?$CComContainedObject@VCOPOSTotals@@@ATL@@WJM@AGJABU_GUID@@PAPAX@Z 10002107 f i Totals.obj
 0001:00001114       ?AddRef@?$CComContainedObject@VCOPOSTotals@@@ATL@@WJM@AGKXZ 10002114 f i Totals.obj
 0001:00001121       ?Release@?$CComContainedObject@VCOPOSTotals@@@ATL@@WJM@AGKXZ 10002121 f i Totals.obj
 0001:0000112e       ?QueryInterface@?$CComContainedObject@VCOPOSTotals@@@ATL@@WKA@AGJABU_GUID@@PAPAX@Z 1000212e f i Totals.obj
 0001:0000113b       ?AddRef@?$CComContainedObject@VCOPOSTotals@@@ATL@@WKA@AGKXZ 1000213b f i Totals.obj
 0001:00001148       ?Release@?$CComContainedObject@VCOPOSTotals@@@ATL@@WKA@AGKXZ 10002148 f i Totals.obj
 0001:00001155       ?AddRef@?$CComContainedObject@VCOPOSTotals@@@ATL@@WKI@AGKXZ 10002155 f i Totals.obj
 0001:00001162       ?Release@?$CComContainedObject@VCOPOSTotals@@@ATL@@WKI@AGKXZ 10002162 f i Totals.obj
 0001:0000116f       ?AddRef@?$CComContainedObject@VCOPOSTotals@@@ATL@@WLE@AGKXZ 1000216f f i Totals.obj
 0001:0000117c       ?Release@?$CComContainedObject@VCOPOSTotals@@@ATL@@WLE@AGKXZ 1000217c f i Totals.obj
 0001:00001189       ?GetWindowProc@?$CWindowImplBaseT@VCWindow@ATL@@V?$CWinTraits@$0FGAAAAAA@$0A@@2@@ATL@@UAEP6GJPAUHWND__@@IIJ@ZXZ 10002189 f i Totals.obj
 0001:0000118f       ?StartWindowProc@?$CWindowImplBaseT@VCWindow@ATL@@V?$CWinTraits@$0FGAAAAAA@$0A@@2@@ATL@@SGJPAUHWND__@@IIJ@Z 1000218f f i Totals.obj
 0001:000011e3       ?ObjectMain@CComObjectRootBase@ATL@@SGX_N@Z 100021e3 f i Totals.obj
 0001:000011e3       ?OnFinalMessage@?$CWindowImplBaseT@VCWindow@ATL@@V?$CWinTraits@$0FGAAAAAA@$0A@@2@@ATL@@UAEXPAUHWND__@@@Z 100021e3 f i Totals.obj
 0001:000011e6       ?GetTypeInfoCount@?$IDispatchImpl@UIOPOSTotals@@$1?IID_IOPOSTotals@@3U_GUID@@B$1?LIBID_OposTotals_CCO@@3U3@B$00$0A@VCComTypeInfoHolder@ATL@@@ATL@@UAGJPAI@Z 100021e6 f i Totals.obj
 0001:00001203       ?GetTypeInfo@?$IDispatchImpl@UIOPOSTotals@@$1?IID_IOPOSTotals@@3U_GUID@@B$1?LIBID_OposTotals_CCO@@3U3@B$00$0A@VCComTypeInfoHolder@ATL@@@ATL@@UAGJIKPAPAUITypeInfo@@@Z 10002203 f i Totals.obj
 0001:00001227       ?GetIDsOfNames@?$IDispatchImpl@UIOPOSTotals@@$1?IID_IOPOSTotals@@3U_GUID@@B$1?LIBID_OposTotals_CCO@@3U3@B$00$0A@VCComTypeInfoHolder@ATL@@@ATL@@UAGJABU_GUID@@PAPA_WIKPAJ@Z 10002227 f i Totals.obj
 0001:00001247       ?Invoke@?$IDispatchImpl@UIOPOSTotals@@$1?IID_IOPOSTotals@@3U_GUID@@B$1?LIBID_OposTotals_CCO@@3U3@B$00$0A@VCComTypeInfoHolder@ATL@@@ATL@@UAGJJABU_GUID@@KGPAUtagDISPPARAMS@@PAUtagVARIANT@@PAUtagEXCEPINFO@@PAI@Z 10002247 f i Totals.obj
 0001:00001255       ?CreateControlWindow@?$CComControl@VCOPOSTotals@@V?$CWindowImpl@VCOPOSTotals@@VCWindow@ATL@@V?$CWinTraits@$0FGAAAAAA@$0A@@3@@ATL@@@ATL@@UAEPAUHWND__@@PAU3@AAUtagRECT@@@Z 10002255 f i Totals.obj
 0001:00001284       ?ControlQueryInterface@?$CComControl@VCOPOSTotals@@V?$CWindowImpl@VCOPOSTotals@@VCWindow@ATL@@V?$CWinTraits@$0FGAAAAAA@$0A@@3@@ATL@@@ATL@@UAEJABU_GUID@@PAPAX@Z 10002284 f i Totals.obj
 0001:0000129f       ?GetClassID@?$IPersistStorageImpl@VCOPOSTotals@@@ATL@@UAGJPAU_GUID@@@Z 1000229f f i Totals.obj
 0001:0000129f       ?GetUserClassID@?$IOleObjectImpl@VCOPOSTotals@@@ATL@@UAGJPAU_GUID@@@Z 1000229f f i Totals.obj
 0001:0000129f       ?GetClassID@?$IPersistStreamInitImpl@VCOPOSTotals@@@ATL@@UAGJPAU_GUID@@@Z 1000229f f i Totals.obj
 0001:000012c3       ?IsDirty@?$IPersistStreamInitImpl@VCOPOSTotals@@@ATL@@UAGJXZ 100022c3 f i Totals.obj
 0001:000012e2       ?Load@?$IPersistStreamInitImpl@VCOPOSTotals@@@ATL@@UAGJPAUIStream@@@Z 100022e2 f i Totals.obj
 0001:00001301       ?Save@?$IPersistStreamInitImpl@VCOPOSTotals@@@ATL@@UAGJPAUIStream@@H@Z 10002301 f i Totals.obj
 0001:00001323       ?GetSizeMax@?$IPersistStreamInitImpl@VCOPOSTotals@@@ATL@@UAGJPAT_ULARGE_INTEGER@@@Z 10002323 f i Totals.obj
 0001:000014d8       ?InitNew@?$IPersistStreamInitImpl@VCOPOSTotals@@@ATL@@UAGJXZ 100024d8 f i Totals.obj
 0001:000014f5       ?ContextSensitiveHelp@?$IOleInPlaceActiveObjectImpl@VCOPOSTotals@@@ATL@@UAGJH@Z 100024f5 f i Totals.obj
 0001:000014f5       ?QueryGetData@?$IDataObjectImpl@VCOPOSTotals@@@ATL@@UAGJPAUtagFORMATETC@@@Z 100024f5 f i Totals.obj
 0001:000014f5       ?SOOutputCompleteDummy@COPOSTotals@@MAGJJ@Z 100024f5 f i Totals.obj
 0001:000014f5       ?Unfreeze@?$IViewObjectExImpl@VCOPOSTotals@@@ATL@@UAGJK@Z 100024f5 f i Totals.obj
 0001:000014f5       ?SODataDummy@COPOSTotals@@MAGJJ@Z 100024f5 f i Totals.obj
 0001:000014f5       ?GetDropTarget@?$IOleInPlaceObjectWindowlessImpl@VCOPOSTotals@@@ATL@@UAGJPAPAUIDropTarget@@@Z 100024f5 f i Totals.obj
 0001:000014f5       ?OnMnemonic@?$IOleControlImpl@VCOPOSTotals@@@ATL@@UAGJPAUtagMSG@@@Z 100024f5 f i Totals.obj
 0001:000014f5       ?SetColorScheme@?$IOleObjectImpl@VCOPOSTotals@@@ATL@@UAGJPAUtagLOGPALETTE@@@Z 100024f5 f i Totals.obj
 0001:000014f5       ?ContextSensitiveHelp@?$IOleInPlaceObjectWindowlessImpl@VCOPOSTotals@@@ATL@@UAGJH@Z 100024f5 f i Totals.obj
 0001:000014f5       ?GetControlInfo@?$IOleControlImpl@VCOPOSTotals@@@ATL@@UAGJPAUtagCONTROLINFO@@@Z 100024f5 f i Totals.obj
 0001:000014fd       ?OnAmbientPropertyChange@?$IOleControlImpl@VCOPOSTotals@@@ATL@@UAGJJ@Z 100024fd f i Totals.obj
 0001:000014fd       ?OnFrameWindowActivate@?$IOleInPlaceActiveObjectImpl@VCOPOSTotals@@@ATL@@UAGJH@Z 100024fd f i Totals.obj
 0001:000014fd       ?EnableModeless@?$IOleInPlaceActiveObjectImpl@VCOPOSTotals@@@ATL@@UAGJH@Z 100024fd f i Totals.obj
 0001:000014fd       ?SaveCompleted@?$IPersistStorageImpl@VCOPOSTotals@@@ATL@@UAGJPAUIStorage@@@Z 100024fd f i Totals.obj
 0001:00001502       ?SetClientSite@?$IOleObjectImpl@VCOPOSTotals@@@ATL@@UAGJPAUIOleClientSite@@@Z 10002502 f i Totals.obj
 0001:0000151f       ?GetClientSite@?$IOleObjectImpl@VCOPOSTotals@@@ATL@@UAGJPAPAUIOleClientSite@@@Z 1000251f f i Totals.obj
 0001:0000153c       ?SetHostNames@?$IOleObjectImpl@VCOPOSTotals@@@ATL@@UAGJPB_W0@Z 1000253c f i Totals.obj
 0001:00001541       ?Close@?$IOleObjectImpl@VCOPOSTotals@@@ATL@@UAGJK@Z 10002541 f i Totals.obj
 0001:0000155e       ?InitFromData@?$IOleObjectImpl@VCOPOSTotals@@@ATL@@UAGJPAUIDataObject@@HK@Z 1000255e f i Totals.obj
 0001:0000155e       ?SetData@?$IDataObjectImpl@VCOPOSTotals@@@ATL@@UAGJPAUtagFORMATETC@@PAUtagSTGMEDIUM@@H@Z 1000255e f i Totals.obj
 0001:0000155e       ?GetMoniker@?$IOleObjectImpl@VCOPOSTotals@@@ATL@@UAGJKKPAPAUIMoniker@@@Z 1000255e f i Totals.obj
 0001:00001566       ?DoVerb@?$IOleObjectImpl@VCOPOSTotals@@@ATL@@UAGJJPAUtagMSG@@PAUIOleClientSite@@JPAUHWND__@@PBUtagRECT@@@Z 10002566 f i Totals.obj
 0001:0000167e       ?EnumVerbs@?$IOleObjectImpl@VCOPOSTotals@@@ATL@@UAGJPAPAUIEnumOLEVERB@@@Z 1000267e f i Totals.obj
 0001:000016a0       ?GetUserType@?$IOleObjectImpl@VCOPOSTotals@@@ATL@@UAGJKPAPA_W@Z 100026a0 f i Totals.obj
 0001:000016b8       ?SetExtent@?$IOleObjectImpl@VCOPOSTotals@@@ATL@@UAGJKPAUtagSIZE@@@Z 100026b8 f i Totals.obj
 0001:000016d8       ?GetExtent@?$IOleObjectImpl@VCOPOSTotals@@@ATL@@UAGJKPAUtagSIZE@@@Z 100026d8 f i Totals.obj
 0001:00001716       ?Advise@?$IOleObjectImpl@VCOPOSTotals@@@ATL@@UAGJPAUIAdviseSink@@PAK@Z 10002716 f i Totals.obj
 0001:00001736       ?Unadvise@?$IOleObjectImpl@VCOPOSTotals@@@ATL@@UAGJK@Z 10002736 f i Totals.obj
 0001:00001765       ?EnumAdvise@?$IOleObjectImpl@VCOPOSTotals@@@ATL@@UAGJPAPAUIEnumSTATDATA@@@Z 10002765 f i Totals.obj
 0001:000017a5       ?GetMiscStatus@?$IOleObjectImpl@VCOPOSTotals@@@ATL@@UAGJKPAK@Z 100027a5 f i Totals.obj
 0001:000017bd       ?GetWindow@?$IOleInPlaceActiveObjectImpl@VCOPOSTotals@@@ATL@@UAGJPAPAUHWND__@@@Z 100027bd f i Totals.obj
 0001:0000180a       ?TranslateAcceleratorW@?$IOleInPlaceActiveObjectImpl@VCOPOSTotals@@@ATL@@UAGJPAUtagMSG@@@Z 1000280a f i Totals.obj
 0001:000018a8       ?OnDocWindowActivate@?$IOleInPlaceActiveObjectImpl@VCOPOSTotals@@@ATL@@UAGJH@Z 100028a8 f i Totals.obj
 0001:000018ca       ?ResizeBorder@?$IOleInPlaceActiveObjectImpl@VCOPOSTotals@@@ATL@@UAGJPBUtagRECT@@PAUIOleInPlaceUIWindow@@H@Z 100028ca f i Totals.obj
 0001:000018cf       ?Draw@?$IViewObjectExImpl@VCOPOSTotals@@@ATL@@UAGJKJPAXPAUtagDVTARGETDEVICE@@PAUHDC__@@2PBU_RECTL@@3P6GHK@ZK@Z 100028cf f i Totals.obj
 0001:00001901       ?GetColorSet@?$IViewObjectExImpl@VCOPOSTotals@@@ATL@@UAGJKJPAXPAUtagDVTARGETDEVICE@@PAUHDC__@@PAPAUtagLOGPALETTE@@@Z 10002901 f i Totals.obj
 0001:00001909       ?Freeze@?$IViewObjectExImpl@VCOPOSTotals@@@ATL@@UAGJKJPAXPAK@Z 10002909 f i Totals.obj
 0001:00001909       ?SOErrorDummy@COPOSTotals@@MAGJJJJPAJ@Z 10002909 f i Totals.obj
 0001:00001911       ?SetAdvise@?$IViewObjectExImpl@VCOPOSTotals@@@ATL@@UAGJKKPAUIAdviseSink@@@Z 10002911 f i Totals.obj
 0001:00001930       ?GetAdvise@?$IViewObjectExImpl@VCOPOSTotals@@@ATL@@UAGJPAK0PAPAUIAdviseSink@@@Z 10002930 f i Totals.obj
 0001:00001965       ?GetExtent@?$IViewObjectExImpl@VCOPOSTotals@@@ATL@@UAGJKJPAUtagDVTARGETDEVICE@@PAUtagSIZE@@@Z 10002965 f i Totals.obj
 0001:00001996       ?GetViewStatus@?$IViewObjectExImpl@VCOPOSTotals@@@ATL@@UAGJPAK@Z 10002996 f i Totals.obj
 0001:000019b3       ?QueryHitPoint@?$IViewObjectExImpl@VCOPOSTotals@@@ATL@@UAGJKPBUtagRECT@@UtagPOINT@@JPAK@Z 100029b3 f i Totals.obj
 0001:000019f4       ?QueryHitRect@?$IViewObjectExImpl@VCOPOSTotals@@@ATL@@UAGJKPBUtagRECT@@0JPAK@Z 100029f4 f i Totals.obj
 0001:00001a4f       ?GetNaturalExtent@?$IViewObjectExImpl@VCOPOSTotals@@@ATL@@UAGJKJPAUtagDVTARGETDEVICE@@PAUHDC__@@PAUtagExtentInfo@@PAUtagSIZE@@@Z 10002a4f f i Totals.obj
 0001:00001a9a       ?GetWindow@?$IOleInPlaceObjectWindowlessImpl@VCOPOSTotals@@@ATL@@UAGJPAPAUHWND__@@@Z 10002a9a f i Totals.obj
 0001:00001ae7       ?InPlaceDeactivate@?$IOleInPlaceObjectWindowlessImpl@VCOPOSTotals@@@ATL@@UAGJXZ 10002ae7 f i Totals.obj
 0001:00001b01       ?UIDeactivate@?$IOleInPlaceObjectWindowlessImpl@VCOPOSTotals@@@ATL@@UAGJXZ 10002b01 f i Totals.obj
 0001:00001b1b       ?SetObjectRects@?$IOleInPlaceObjectWindowlessImpl@VCOPOSTotals@@@ATL@@UAGJPBUtagRECT@@0@Z 10002b1b f i Totals.obj
 0001:00001b3b       ?ReactivateAndUndo@?$IOleInPlaceObjectWindowlessImpl@VCOPOSTotals@@@ATL@@UAGJXZ 10002b3b f i Totals.obj
 0001:00001b43       ?OnWindowMessage@?$IOleInPlaceObjectWindowlessImpl@VCOPOSTotals@@@ATL@@UAGJIIJPAJ@Z 10002b43 f i Totals.obj
 0001:00001bb3       ?EnumConnectionPoints@?$IConnectionPointContainerImpl@VCOPOSTotals@@@ATL@@UAGJPAPAUIEnumConnectionPoints@@@Z 10002bb3 f i Totals.obj
 0001:00001d2d       ?FindConnectionPoint@?$IConnectionPointContainerImpl@VCOPOSTotals@@@ATL@@UAGJABU_GUID@@PAPAUIConnectionPoint@@@Z 10002d2d f i Totals.obj
 0001:00001dd0       ?IsDirty@?$IPersistStorageImpl@VCOPOSTotals@@@ATL@@UAGJXZ 10002dd0 f i Totals.obj
 0001:00001e04       ?InitNew@?$IPersistStorageImpl@VCOPOSTotals@@@ATL@@UAGJPAUIStorage@@@Z 10002e04 f i Totals.obj
 0001:00001e38       ?Load@?$IPersistStorageImpl@VCOPOSTotals@@@ATL@@UAGJPAUIStorage@@@Z 10002e38 f i Totals.obj
 0001:00001ea4       ?Save@?$IPersistStorageImpl@VCOPOSTotals@@@ATL@@UAGJPAUIStorage@@H@Z 10002ea4 f i Totals.obj
 0001:00001f17       ?GetPages@?$ISpecifyPropertyPagesImpl@VCOPOSTotals@@@ATL@@UAGJPAUtagCAUUID@@@Z 10002f17 f i Totals.obj
 0001:00001f2e       ?QuickActivate@?$IQuickActivateImpl@VCOPOSTotals@@@ATL@@UAGJPAUtagQACONTAINER@@PAUtagQACONTROL@@@Z 10002f2e f i Totals.obj
 0001:00001f51       ?SetContentExtent@?$IQuickActivateImpl@VCOPOSTotals@@@ATL@@UAGJPAUtagSIZE@@@Z 10002f51 f i Totals.obj
 0001:00001f7d       ?GetContentExtent@?$IQuickActivateImpl@VCOPOSTotals@@@ATL@@UAGJPAUtagSIZE@@@Z 10002f7d f i Totals.obj
 0001:00001f9d       ?GetData@?$IDataObjectImpl@VCOPOSTotals@@@ATL@@UAGJPAUtagFORMATETC@@PAUtagSTGMEDIUM@@@Z 10002f9d f i Totals.obj
 0001:00001fc0       ?DAdvise@?$IDataObjectImpl@VCOPOSTotals@@@ATL@@UAGJPAUtagFORMATETC@@KPAUIAdviseSink@@PAK@Z 10002fc0 f i Totals.obj
 0001:00002001       ?DUnadvise@?$IDataObjectImpl@VCOPOSTotals@@@ATL@@UAGJK@Z 10003001 f i Totals.obj
 0001:0000202f       ?EnumDAdvise@?$IDataObjectImpl@VCOPOSTotals@@@ATL@@UAGJPAPAUIEnumSTATDATA@@@Z 1000302f f i Totals.obj
 0001:0000206e       ?GetClassInfoW@?$IProvideClassInfo2Impl@$1?CLSID_OPOSTotals@@3U_GUID@@B$1?DIID__IOPOSTotalsEvents@@3U2@B$1?LIBID_OposTotals_CCO@@3U2@B$00$0A@VCComTypeInfoHolder@ATL@@@ATL@@UAGJPAPAUITypeInfo@@@Z 1000306e f i Totals.obj
 0001:00002084       ?GetGUID@?$IProvideClassInfo2Impl@$1?CLSID_OPOSTotals@@3U_GUID@@B$1?DIID__IOPOSTotalsEvents@@3U2@B$1?LIBID_OposTotals_CCO@@3U2@B$00$0A@VCComTypeInfoHolder@ATL@@@ATL@@UAGJKPAU_GUID@@@Z 10003084 f i Totals.obj
 0001:000020c2       ?FAccessAllowed@?$IObjectSafetyImpl@VCOPOSTotals@@$02@ATL@@MAEHXZ 100030c2 f i Totals.obj
 0001:000020c2       __get_startup_argv_mode    100030c2 f i LIBCMT:argv_mode.obj
 0001:000020c6       ?GetInterfaceSafetyOptions@?$IObjectSafetyImpl@VCOPOSTotals@@$02@ATL@@UAGJABU_GUID@@PAK1@Z 100030c6 f i Totals.obj
 0001:0000213a       ?SetInterfaceSafetyOptions@?$IObjectSafetyImpl@VCOPOSTotals@@$02@ATL@@UAGJABU_GUID@@KK@Z 1000313a f i Totals.obj
 0001:000021b4       ?_LocCPQueryInterface@?$IConnectionPointImpl@VCOPOSTotals@@$1?IID_IPropertyNotifySink@@3U_GUID@@BVCComDynamicUnkArray@ATL@@@ATL@@UAGJABU_GUID@@PAPAX@Z 100031b4 f i Totals.obj
 0001:000021b4       ?_LocCPQueryInterface@?$IConnectionPointImpl@VCOPOSTotals@@$1?DIID__IOPOSTotalsEvents@@3U_GUID@@BVCComDynamicUnkArray@ATL@@@ATL@@UAGJABU_GUID@@PAPAX@Z 100031b4 f i Totals.obj
 0001:00002201       ?GetConnectionInterface@?$IConnectionPointImpl@VCOPOSTotals@@$1?IID_IPropertyNotifySink@@3U_GUID@@BVCComDynamicUnkArray@ATL@@@ATL@@UAGJPAU_GUID@@@Z 10003201 f i Totals.obj
 0001:00002225       ?GetConnectionPointContainer@?$IConnectionPointImpl@VCOPOSTotals@@$1?IID_IPropertyNotifySink@@3U_GUID@@BVCComDynamicUnkArray@ATL@@@ATL@@UAGJPAPAUIConnectionPointContainer@@@Z 10003225 f i Totals.obj
 0001:00002248       ?Advise@?$IConnectionPointImpl@VCOPOSTotals@@$1?IID_IPropertyNotifySink@@3U_GUID@@BVCComDynamicUnkArray@ATL@@@ATL@@UAGJPAUIUnknown@@PAK@Z 10003248 f i Totals.obj
 0001:00002248       ?Advise@?$IConnectionPointImpl@VCOPOSTotals@@$1?DIID__IOPOSTotalsEvents@@3U_GUID@@BVCComDynamicUnkArray@ATL@@@ATL@@UAGJPAUIUnknown@@PAK@Z 10003248 f i Totals.obj
 0001:000022e9       ?Unadvise@?$IConnectionPointImpl@VCOPOSTotals@@$1?IID_IPropertyNotifySink@@3U_GUID@@BVCComDynamicUnkArray@ATL@@@ATL@@UAGJK@Z 100032e9 f i Totals.obj
 0001:000022e9       ?Unadvise@?$IConnectionPointImpl@VCOPOSTotals@@$1?DIID__IOPOSTotalsEvents@@3U_GUID@@BVCComDynamicUnkArray@ATL@@@ATL@@UAGJK@Z 100032e9 f i Totals.obj
 0001:00002329       ?EnumConnections@?$IConnectionPointImpl@VCOPOSTotals@@$1?DIID__IOPOSTotalsEvents@@3U_GUID@@BVCComDynamicUnkArray@ATL@@@ATL@@UAGJPAPAUIEnumConnections@@@Z 10003329 f i Totals.obj
 0001:00002329       ?EnumConnections@?$IConnectionPointImpl@VCOPOSTotals@@$1?IID_IPropertyNotifySink@@3U_GUID@@BVCComDynamicUnkArray@ATL@@@ATL@@UAGJPAPAUIEnumConnections@@@Z 10003329 f i Totals.obj
 0001:0000242f       ?GetCategoryMap@CComObjectRootBase@ATL@@SAPBU_ATL_CATMAP_ENTRY@2@XZ 1000342f f i Totals.obj
 0001:0000242f       ?GetObjectDescription@?$CComCoClass@VCOPOSTotals@@$1?CLSID_OPOSTotals@@3U_GUID@@B@ATL@@SGPB_WXZ 1000342f f i Totals.obj
 0001:00002432       ?GetConnectionInterface@?$IConnectionPointImpl@VCOPOSTotals@@$1?DIID__IOPOSTotalsEvents@@3U_GUID@@BVCComDynamicUnkArray@ATL@@@ATL@@UAGJPAU_GUID@@@Z 10003432 f i Totals.obj
 0001:00002456       ?GetConnectionPointContainer@?$IConnectionPointImpl@VCOPOSTotals@@$1?DIID__IOPOSTotalsEvents@@3U_GUID@@BVCComDynamicUnkArray@ATL@@@ATL@@UAGJPAPAUIConnectionPointContainer@@@Z 10003456 f i Totals.obj
 0001:00002479       ?UpdateRegistry@COPOSTotals@@SGJH@Z 10003479 f i Totals.obj
 0001:00002491       ?ProcessWindowMessage@COPOSTotals@@UAEHPAUHWND__@@IIJAAJK@Z 10003491 f i Totals.obj
 0001:000024da       ?SODirectIO@COPOSTotals@@MAGJJPAJPAPA_W@Z 100034da f i Totals.obj
 0001:00002523       ?SOStatusUpdate@COPOSTotals@@MAGJJ@Z 10003523 f i Totals.obj
 0001:0000255c       ?CreateInstance@?$CComCreator@V?$CComObjectCached@VCComClassFactory@ATL@@@ATL@@@ATL@@SGJPAXABU_GUID@@PAPAX@Z 1000355c f i Totals.obj
 0001:000025ef       ?CreateInstance@?$CComCreator2@V?$CComCreator@V?$CComObject@VCOPOSTotals@@@ATL@@@ATL@@V?$CComCreator@V?$CComAggObject@VCOPOSTotals@@@ATL@@@2@@ATL@@SGJPAXABU_GUID@@PAPAX@Z 100035ef f i Totals.obj
 0001:0000260f       ?Next@?$CComEnumImpl@UIEnumConnectionPoints@@$1?_GUID_b196b285_bab4_101a_b69c_00aa00341d07@@3U__s_GUID@@BPAUIConnectionPoint@@V?$_CopyInterface@UIConnectionPoint@@@ATL@@@ATL@@UAGJKPAPAUIConnectionPoint@@PAK@Z 1000360f f i Totals.obj
 0001:000026e6       ?Skip@?$CComEnumImpl@UIEnumConnectionPoints@@$1?_GUID_b196b285_bab4_101a_b69c_00aa00341d07@@3U__s_GUID@@BPAUIConnectionPoint@@V?$_CopyInterface@UIConnectionPoint@@@ATL@@@ATL@@UAGJK@Z 100036e6 f i Totals.obj
 0001:00002713       ?Clone@?$CComEnumImpl@UIEnumConnectionPoints@@$1?_GUID_b196b285_bab4_101a_b69c_00aa00341d07@@3U__s_GUID@@BPAUIConnectionPoint@@V?$_CopyInterface@UIConnectionPoint@@@ATL@@@ATL@@UAGJPAPAUIEnumConnectionPoints@@@Z 10003713 f i Totals.obj
 0001:000027f4       ?QueryInterface@?$CComObject@V?$CComEnum@UIEnumConnectionPoints@@$1?_GUID_b196b285_bab4_101a_b69c_00aa00341d07@@3U__s_GUID@@BPAUIConnectionPoint@@V?$_CopyInterface@UIConnectionPoint@@@ATL@@VCComSingleThreadModel@6@@ATL@@@ATL@@UAGJABU_GUID@@PAPAX@Z 100037f4 f i Totals.obj
 0001:0000280e       ??_E?$CComObject@V?$CComEnum@UIEnumConnectionPoints@@$1?_GUID_b196b285_bab4_101a_b69c_00aa00341d07@@3U__s_GUID@@BPAUIConnectionPoint@@V?$_CopyInterface@UIConnectionPoint@@@ATL@@VCComSingleThreadModel@6@@ATL@@@ATL@@UAEPAXI@Z 1000380e f i Totals.obj
 0001:0000280e       ??_G?$CComObject@V?$CComEnum@UIEnumConnectionPoints@@$1?_GUID_b196b285_bab4_101a_b69c_00aa00341d07@@3U__s_GUID@@BPAUIConnectionPoint@@V?$_CopyInterface@UIConnectionPoint@@@ATL@@VCComSingleThreadModel@6@@ATL@@@ATL@@UAEPAXI@Z 1000380e f i Totals.obj
 0001:00002830       ?CreateInstance@CComClassFactory@ATL@@UAGJPAUIUnknown@@ABU_GUID@@PAPAX@Z 10003830 f i Totals.obj
 0001:0000286e       ?LockServer@CComClassFactory@ATL@@UAGJH@Z 1000386e f i Totals.obj
 0001:0000288d       ??_ECComClassFactory@ATL@@UAEPAXI@Z 1000388d f i Totals.obj
 0001:0000288d       ??_GCComClassFactory@ATL@@UAEPAXI@Z 1000388d f i Totals.obj
 0001:000028b8       ??$?4UITypeInfo2@@@?$CComPtr@UITypeInfo@@@ATL@@QAEPAUITypeInfo@@ABV?$CComPtr@UITypeInfo2@@@1@@Z 100038b8 f i Totals.obj
 0001:000028e5       ??$AtlAdd@K@ATL@@YAJPAKKK@Z 100038e5 f i Totals.obj
 0001:00002908       ??$AtlAdd@_K@ATL@@YAJPA_K_K1@Z 10003908 f i Totals.obj
 0001:00002940       ??$AtlAddThrow@K@ATL@@YAKKK@Z 10003940 f i Totals.obj
 0001:00002966       ??$AtlModuleRegisterWndClassInfoT@VAtlModuleRegisterWndClassInfoParamW@ATL@@@ATL@@YAGPAU_ATL_BASE_MODULE70@0@PAU_ATL_WIN_MODULE70@0@PAU_ATL_WNDCLASSINFOW@0@PAP6GJPAUHWND__@@IIJ@ZVAtlModuleRegisterWndClassInfoParamW@0@@Z 10003966 f i Totals.obj
 0001:00002ab4       ??$AtlMultiply@H@ATL@@YAJPAHHH@Z 10003ab4 f i Totals.obj
 0001:00002aec       ??$AtlMultiply@I@ATL@@YAJPAIII@Z 10003aec f i Totals.obj
 0001:00002aec       ??$AtlMultiply@K@ATL@@YAJPAKKK@Z 10003aec f i Totals.obj
 0001:00002b0e       ??$AtlMultiplyThrow@I@ATL@@YAIII@Z 10003b0e f i Totals.obj
 0001:00002b34       ??0?$CComAggObject@VCOPOSTotals@@@ATL@@QAE@PAX@Z 10003b34 f i Totals.obj
 0001:00002b61       ??0?$CComContainedObject@VCOPOSTotals@@@ATL@@QAE@PAX@Z 10003b61 f i Totals.obj
 0001:00002c1a       ??0?$CComObject@V?$CComEnum@UIEnumConnectionPoints@@$1?_GUID_b196b285_bab4_101a_b69c_00aa00341d07@@3U__s_GUID@@BPAUIConnectionPoint@@V?$_CopyInterface@UIConnectionPoint@@@ATL@@VCComSingleThreadModel@6@@ATL@@@ATL@@QAE@PAX@Z 10003c1a f i Totals.obj
 0001:00002c48       ??0?$CComObject@V?$CComEnum@UIEnumConnections@@$1?_GUID_b196b287_bab4_101a_b69c_00aa00341d07@@3U__s_GUID@@BUtagCONNECTDATA@@V?$_Copy@UtagCONNECTDATA@@@ATL@@VCComSingleThreadModel@6@@ATL@@@ATL@@QAE@PAX@Z 10003c48 f i Totals.obj
 0001:00002c76       ??0?$CComObject@VCOPOSTotals@@@ATL@@QAE@PAX@Z 10003c76 f i Totals.obj
 0001:00002d2d       ??0?$CComQIPtr@UIOleControlSite@@$1?_GUID_b196b289_bab4_101a_b69c_00aa00341d07@@3U__s_GUID@@B@ATL@@QAE@PAUIUnknown@@@Z 10003d2d f i Totals.obj
 0001:00002d56       ??0CAtlModule@ATL@@QAE@XZ  10003d56 f i Totals.obj
 0001:00002d97       ??0CParseBuffer@CRegParser@ATL@@QAE@H@Z 10003d97 f i Totals.obj
 0001:00002dcd       ??0_ATL_MSG@ATL@@QAE@PAUHWND__@@IIJH@Z 10003dcd f i Totals.obj
 0001:00002e05       ??1?$CComAggObject@VCOPOSTotals@@@ATL@@UAE@XZ 10003e05 f i Totals.obj
 0001:00002e29       ??1?$CComEnumImpl@UIEnumConnectionPoints@@$1?_GUID_b196b285_bab4_101a_b69c_00aa00341d07@@3U__s_GUID@@BPAUIConnectionPoint@@V?$_CopyInterface@UIConnectionPoint@@@ATL@@@ATL@@UAE@XZ 10003e29 f i Totals.obj
 0001:00002e69       ??1?$CComEnumImpl@UIEnumConnections@@$1?_GUID_b196b287_bab4_101a_b69c_00aa00341d07@@3U__s_GUID@@BUtagCONNECTDATA@@V?$_Copy@UtagCONNECTDATA@@@ATL@@@ATL@@UAE@XZ 10003e69 f i Totals.obj
 0001:00002ea9       ??1?$CComObject@V?$CComEnum@UIEnumConnectionPoints@@$1?_GUID_b196b285_bab4_101a_b69c_00aa00341d07@@3U__s_GUID@@BPAUIConnectionPoint@@V?$_CopyInterface@UIConnectionPoint@@@ATL@@VCComSingleThreadModel@6@@ATL@@@ATL@@UAE@XZ 10003ea9 f i Totals.obj
 0001:00002ecc       ??1?$CComObject@V?$CComEnum@UIEnumConnections@@$1?_GUID_b196b287_bab4_101a_b69c_00aa00341d07@@3U__s_GUID@@BUtagCONNECTDATA@@V?$_Copy@UtagCONNECTDATA@@@ATL@@VCComSingleThreadModel@6@@ATL@@@ATL@@UAE@XZ 10003ecc f i Totals.obj
 0001:00002eef       ??1?$CComObject@VCOPOSTotals@@@ATL@@UAE@XZ 10003eef f i Totals.obj
 0001:00002fad       ??1?$CComObjectCached@VCComClassFactory@ATL@@@ATL@@UAE@XZ 10003fad f i Totals.obj
 0001:00002fc3       ??1?$CComObjectRootEx@VCComMultiThreadModel@ATL@@@ATL@@QAE@XZ 10003fc3 f i Totals.obj
 0001:00002fd8       ??1CRegObject@ATL@@UAE@XZ  10003fd8 f i Totals.obj
 0001:00002ff8       ??4?$CComPtr@UIUnknown@@@ATL@@QAEPAUIUnknown@@PAU2@@Z 10003ff8 f i Totals.obj
 0001:00002ff8       ??4?$CComPtr@UIAdviseSink@@@ATL@@QAEPAUIAdviseSink@@PAU2@@Z 10003ff8 f i Totals.obj
 0001:00002ff8       ??4?$CComPtr@UIOleClientSite@@@ATL@@QAEPAUIOleClientSite@@PAU2@@Z 10003ff8 f i Totals.obj
 0001:0000302c       ??4?$CComQIPtr@UIOleObject@@$1?_GUID_00000112_0000_0000_c000_000000000046@@3U__s_GUID@@B@ATL@@QAEPAUIOleObject@@PAUIUnknown@@@Z 1000402c f i Totals.obj
 0001:00003051       ??4?$CComQIPtr@UISpecifyPropertyPages@@$1?_GUID_b196b28b_bab4_101a_b69c_00aa00341d07@@3U__s_GUID@@B@ATL@@QAEPAUISpecifyPropertyPages@@PAUIUnknown@@@Z 10004051 f i Totals.obj
 0001:00003076       ??_G?$CComContainedObject@VCOPOSTotals@@@ATL@@UAEPAXI@Z 10004076 f i Totals.obj
 0001:00003076       ??_E?$CComContainedObject@VCOPOSTotals@@@ATL@@UAEPAXI@Z 10004076 f i Totals.obj
 0001:0000309b       ??_E?$CComObject@VCOPOSTotals@@@ATL@@UAEPAXI@Z 1000409b f i Totals.obj
 0001:0000309b       ??_G?$CComObject@VCOPOSTotals@@@ATL@@UAEPAXI@Z 1000409b f i Totals.obj
 0001:000030c0       ?Add@?$CSimpleArray@GV?$CSimpleArrayEqualHelper@G@ATL@@@ATL@@QAEHABG@Z 100040c0 f i Totals.obj
 0001:00003144       ?Add@?$CSimpleMap@PA_WPA_WVCExpansionVectorEqualHelper@ATL@@@ATL@@QAEHABQA_W0@Z 10004144 f i Totals.obj
 0001:00003199       ?Add@CComDynamicUnkArray@ATL@@QAEKPAUIUnknown@@@Z 10004199 f i Totals.obj
 0001:0000324f       ?Add@CExpansionVector@ATL@@QAEHPB_W0@Z 1000424f f i Totals.obj
 0001:00003353       ?AddString@CParseBuffer@CRegParser@ATL@@QAEHPB_W@Z 10004353 f i Totals.obj
 0001:00003388       ?AddValue@CRegParser@ATL@@IAEJAAVCRegKey@2@PB_WPA_W@Z 10004388 f i Totals.obj
 0001:000036a9       ?Allocate@?$CAtlSafeAllocBufferManager@VCCRTAllocator@ATL@@@_ATL_SAFE_ALLOCA_IMPL@ATL@@QAEPAXK@Z 100046a9 f i Totals.obj
 0001:000036d6       ?Allocate@?$CTempBuffer@E$0BAA@VCCRTAllocator@ATL@@@ATL@@QAEPAEI@Z 100046d6 f i Totals.obj
 0001:00003705       ?Allocate@?$CTempBuffer@_W$0BAA@VCCRTAllocator@ATL@@@ATL@@QAEPA_WI@Z 10004705 f i Totals.obj
 0001:00003734       ?Allocate@?$CTempBuffer@_W$0EAA@VCCRTAllocator@ATL@@@ATL@@QAEPA_WI@Z 10004734 f i Totals.obj
 0001:00003763       ?AllocateHeap@?$CTempBuffer@_W$0BAA@VCCRTAllocator@ATL@@@ATL@@AAEXI@Z 10004763 f i Totals.obj
 0001:00003763       ?AllocateHeap@?$CTempBuffer@_W$0EAA@VCCRTAllocator@ATL@@@ATL@@AAEXI@Z 10004763 f i Totals.obj
 0001:00003763       ?AllocateHeap@?$CTempBuffer@E$0BAA@VCCRTAllocator@ATL@@@ATL@@AAEXI@Z 10004763 f i Totals.obj
 0001:00003788       ?Append@CParseBuffer@CRegParser@ATL@@QAEHPB_WH@Z 10004788 f i Totals.obj
 0001:00003816       ?AtlCallTermFunc@ATL@@YGXPAU_ATL_MODULE70@1@@Z 10004816 f i Totals.obj
 0001:0000385a       ?AtlCoTaskMemCAlloc@ATL@@YAPAXKK@Z 1000485a f i Totals.obj
 0001:00003887       ?AtlCoTaskMemRecalloc@ATL@@YAPAXPAXKK@Z 10004887 f i Totals.obj
 0001:000038b7       ?AtlComModuleGetClassObject@ATL@@YGJPAU_ATL_COM_MODULE70@1@ABU_GUID@@1PAPAX@Z 100048b7 f i Totals.obj
 0001:000039aa       ?AtlComModuleRegisterServer@ATL@@YGJPAU_ATL_COM_MODULE70@1@HPBU_GUID@@@Z 100049aa f i Totals.obj
 0001:00003a32       ?AtlComModuleUnregisterServer@ATL@@YGJPAU_ATL_COM_MODULE70@1@HPBU_GUID@@@Z 10004a32 f i Totals.obj
 0001:00003aba       ?AtlComQIPtrAssign2@ATL@@YAXPAPAUIUnknown@@PAU2@ABU_GUID@@@Z 10004aba f i Totals.obj
 0001:00003ae9       ?AtlCreateTargetDC@ATL@@YGPAUHDC__@@PAU2@PAUtagDVTARGETDEVICE@@@Z 10004ae9 f i Totals.obj
 0001:00003b52       ?AtlCrtErrorCheck@ATL@@YAHH@Z 10004b52 f i Totals.obj
 0001:00003b8d       ?AtlHiMetricToPixel@ATL@@YGXPBUtagSIZE@@PAU2@@Z 10004b8d f i Totals.obj
 0001:00003c02       ?AtlHresultFromLastError@ATL@@YAJXZ 10004c02 f i Totals.obj
 0001:00003c19       ?AtlHresultFromWin32@ATL@@YAJK@Z 10004c19 f i Totals.obj
 0001:00003c2e       ?AtlIPersistStreamInit_Load@ATL@@YGJPAUIStream@@PBUATL_PROPMAP_ENTRY@1@PAXPAUIUnknown@@@Z 10004c2e f i Totals.obj
 0001:00003e0e       ?AtlIPersistStreamInit_Save@ATL@@YGJPAUIStream@@HPBUATL_PROPMAP_ENTRY@1@PAXPAUIUnknown@@@Z 10004e0e f i Totals.obj
 0001:00003fa6       ?AtlInternalOleLoadFromStream@ATL@@YAJPAUIStream@@ABU_GUID@@PAPAXTClassesAllowedInStream@1@K@Z 10004fa6 f i Totals.obj
 0001:000040cc       ?AtlInternalQueryInterface@ATL@@YGJPAXPBU_ATL_INTMAP_ENTRY@1@ABU_GUID@@PAPAX@Z 100050cc f i Totals.obj
 0001:0000416f       ?AtlLoadTypeLib@ATL@@YGJPAUHINSTANCE__@@PB_WPAPA_WPAPAUITypeLib@@@Z 1000516f f i Totals.obj
 0001:0000434d       ?AtlModuleAddTermFunc@ATL@@YGJPAU_ATL_MODULE70@1@P6GXK@ZK@Z 1000534d f i Totals.obj
 0001:000043aa       ?AtlRegisterClassCategoriesHelper@ATL@@YGJABU_GUID@@PBU_ATL_CATMAP_ENTRY@1@H@Z 100053aa f i Totals.obj
 0001:0000468a       ?AtlRegisterTypeLib@ATL@@YGJPAUHINSTANCE__@@PB_W@Z 1000568a f i Totals.obj
 0001:00004812       ?AtlThrowImpl@ATL@@YGXJ@Z  10005812 f i Totals.obj
 0001:00004830       ?AtlUnRegisterTypeLib@ATL@@YGJPAUHINSTANCE__@@PB_W@Z 10005830 f i Totals.obj
 0001:000048db       ?AtlWinModuleAddCreateWndData@ATL@@YGXPAU_ATL_WIN_MODULE70@1@PAU_AtlCreateWndData@1@PAX@Z 100058db f i Totals.obj
 0001:0000492f       ?AtlWinModuleExtractCreateWndData@ATL@@YGPAXPAU_ATL_WIN_MODULE70@1@@Z 1000592f f i Totals.obj
 0001:00004992       ?AtlWinModuleRegisterClassExW@ATL@@YGGPAU_ATL_WIN_MODULE70@1@PBUtagWNDCLASSEXW@@@Z 10005992 f i Totals.obj
 0001:000049d1       ?CanForceRemoveKey@CRegParser@ATL@@IAEHPB_W@Z 100059d1 f i Totals.obj
 0001:00004a00       ?ChToByte@CRegParser@ATL@@KAE_W@Z 10005a00 f i Totals.obj
 0001:00004a33       ?Cleanup@CComTypeInfoHolder@ATL@@SGXK@Z 10005a33 f i Totals.obj
 0001:00004a66       ?ClearReplacements@CExpansionVector@ATL@@QAEJXZ 10005a66 f i Totals.obj
 0001:00004aa3       ?Close@CRegKey@ATL@@QAEJXZ 10005aa3 f i Totals.obj
 0001:00004abd       ?CreateInstance@?$CComCreator@V?$CComAggObject@VCOPOSTotals@@@ATL@@@ATL@@SGJPAXABU_GUID@@PAPAX@Z 10005abd f i Totals.obj
 0001:00004b33       ?CreateInstance@?$CComCreator@V?$CComObject@VCOPOSTotals@@@ATL@@@ATL@@SGJPAXABU_GUID@@PAPAX@Z 10005b33 f i Totals.obj
 0001:00004bb4       ?CreateInstance@?$CComObject@V?$CComEnum@UIEnumConnectionPoints@@$1?_GUID_b196b285_bab4_101a_b69c_00aa00341d07@@3U__s_GUID@@BPAUIConnectionPoint@@V?$_CopyInterface@UIConnectionPoint@@@ATL@@VCComSingleThreadModel@6@@ATL@@@ATL@@SGJPAPAV12@@Z 10005bb4 f i Totals.obj
 0001:00004bfb       ?CreateInstance@?$CComObject@V?$CComEnum@UIEnumConnections@@$1?_GUID_b196b287_bab4_101a_b69c_00aa00341d07@@3U__s_GUID@@BUtagCONNECTDATA@@V?$_Copy@UtagCONNECTDATA@@@ATL@@VCComSingleThreadModel@6@@ATL@@@ATL@@SGJPAPAV12@@Z 10005bfb f i Totals.obj
 0001:00004c42       ?DefaultReflectionHandler@?$CWindowImplRoot@VCWindow@ATL@@@ATL@@SAHPAUHWND__@@IIJAAJ@Z 10005c42 f i Totals.obj
 0001:00004cb5       ?DeleteSubKey@CRegKey@ATL@@QAEJPB_W@Z 10005cb5 f i Totals.obj
 0001:00004d2e       ?DoEvent@COPOSTotals@@IAEXIIJ@Z 10005d2e f i Totals.obj
 0001:00004dae       ?DoVerbHide@?$IOleObjectImpl@VCOPOSTotals@@@ATL@@QAEJPBUtagRECT@@PAUHWND__@@@Z 10005dae f i Totals.obj
 0001:00004de4       ?DoVerbInPlaceActivate@?$IOleObjectImpl@VCOPOSTotals@@@ATL@@QAEJPBUtagRECT@@PAUHWND__@@@Z 10005de4 f i Totals.obj
 0001:00004e17       ?DoVerbPrimary@?$IOleObjectImpl@VCOPOSTotals@@@ATL@@QAEJPBUtagRECT@@PAUHWND__@@@Z 10005e17 f i Totals.obj
 0001:00004ea3       ?DoVerbProperties@CComControlBase@ATL@@QAEJPBUtagRECT@@PAUHWND__@@@Z 10005ea3 f i Totals.obj
 0001:00004fca       ?DoVerbShow@?$IOleObjectImpl@VCOPOSTotals@@@ATL@@QAEJPBUtagRECT@@PAUHWND__@@@Z 10005fca f i Totals.obj
 0001:00004fef       ?DoVerbUIActivate@?$IOleObjectImpl@VCOPOSTotals@@@ATL@@QAEJPBUtagRECT@@PAUHWND__@@@Z 10005fef f i Totals.obj
 0001:0000502c       ?DoesVerbActivate@CComControlBase@ATL@@QAEHJ@Z 1000602c f i Totals.obj
 0001:0000504d       ?DoesVerbUIActivate@CComControlBase@ATL@@QAEHJ@Z 1000604d f i Totals.obj
 0001:00005082       ?EndOfVar@CRegParser@ATL@@IAEHXZ 10006082 f i Totals.obj
 0001:000050a2       ?EscapeSingleQuote@CAtlModule@ATL@@SAXPA_WIPB_W@Z 100060a2 f i Totals.obj
 0001:000050f1       ?FindKey@?$CSimpleMap@PA_WPA_WVCExpansionVectorEqualHelper@ATL@@@ATL@@QBEHABQA_W@Z 100060f1 f i Totals.obj
 0001:00005128       ?FireTheEvent@?$CProxy_IOPOSEvents@VCOPOSTotals@@@@IAEXPAVOposVariant@@IAAJPB_WJ@Z 10006128 f i Totals.obj
 0001:000051ba       ?FireViewChange@CComControlBase@ATL@@QAEJXZ 100061ba f i Totals.obj
 0001:00005203       ?Fire_DirectIOEvent@?$CProxy_IOPOSEvents@VCOPOSTotals@@@@QAEXJPAJPAPA_W@Z 10006203 f i Totals.obj
 0001:000052e9       ?Fire_StatusUpdateEvent@?$CProxy_IOPOSEvents@VCOPOSTotals@@@@QAEXJ@Z 100062e9 f i Totals.obj
 0001:00005375       ?FreeHeap@?$CTempBuffer@_W$0EAA@VCCRTAllocator@ATL@@@ATL@@AAEXXZ 10006375 f i Totals.obj
 0001:00005375       ?FreeHeap@?$CTempBuffer@E$0BAA@VCCRTAllocator@ATL@@@ATL@@AAEXXZ 10006375 f i Totals.obj
 0001:00005375       ?FreeHeap@?$CTempBuffer@_W$0BAA@VCCRTAllocator@ATL@@@ATL@@AAEXXZ 10006375 f i Totals.obj
 0001:0000537e       ?GetAmbientLocaleID@CComControlBase@ATL@@QAEJAAK@Z 1000637e f i Totals.obj
 0001:000053da       ?GetAmbientUserMode@CComControlBase@ATL@@QAEJAAH@Z 100063da f i Totals.obj
 0001:0000544a       ?GetAt@CComDynamicUnkArray@ATL@@QAEPAUIUnknown@@H@Z 1000644a f i Totals.obj
 0001:00005466       ?GetClassObject@CComModule@ATL@@QAEJABU_GUID@@0PAPAX@Z 10006466 f i Totals.obj
 0001:00005508       ?GetConnMap@COPOSTotals@@SAPBU_ATL_CONNMAP_ENTRY@ATL@@PAH@Z 10006508 f i Totals.obj
 0001:00005578       ?GetCookie@CComDynamicUnkArray@ATL@@QAGKPAPAUIUnknown@@@Z 10006578 f i Totals.obj
 0001:000055b0       ?GetIDsOfNames@CComTypeInfoHolder@ATL@@QAEJABU_GUID@@PAPA_WIKPAJ@Z 100065b0 f i Totals.obj
 0001:000056be       ?GetKeyAt@?$CSimpleMap@PA_WPA_WVCExpansionVectorEqualHelper@ATL@@@ATL@@QBEAAPA_WH@Z 100066be f i Totals.obj
 0001:000056e3       ?GetPagesHelper@?$ISpecifyPropertyPagesImpl@VCOPOSTotals@@@ATL@@IAEJPAUtagCAUUID@@PBUATL_PROPMAP_ENTRY@2@@Z 100066e3 f i Totals.obj
 0001:0000580a       ?GetProperty@?$CComPtr@UIDispatch@@@ATL@@SAJPAUIDispatch@@JPAUtagVARIANT@@@Z 1000680a f i Totals.obj
 0001:00005859       ?GetSizeMax@CComVariant@ATL@@QBEJPAT_ULARGE_INTEGER@@@Z 10006859 f i Totals.obj
 0001:00005a13       ?GetStreamSize@CComBSTR@ATL@@SAKPA_W@Z 10006a13 f i Totals.obj
 0001:00005a2d       ?GetTI@CComTypeInfoHolder@ATL@@QAEJK@Z 10006a2d f i Totals.obj
 0001:00005c16       ?GetTI@CComTypeInfoHolder@ATL@@QAEJKPAPAUITypeInfo@@@Z 10006c16 f i Totals.obj
 0001:00005c58       ?GetUnknown@CComDynamicUnkArray@ATL@@QAGPAUIUnknown@@K@Z 10006c58 f i Totals.obj
 0001:00005c79       ?GetValueAt@?$CSimpleMap@PA_WPA_WVCExpansionVectorEqualHelper@ATL@@@ATL@@QBEAAPA_WH@Z 10006c79 f i Totals.obj
 0001:00005c9f       ?GetZoomInfo@CComControlBase@ATL@@QAEXAAUATL_DRAWINFO@@@Z 10006c9f f i Totals.obj
 0001:00005d32       ?HKeyFromString@CRegParser@ATL@@KAPAUHKEY__@@PA_W@Z 10006d32 f i Totals.obj
 0001:00005d60       ?HasSubKeys@CRegParser@ATL@@IAEHPAUHKEY__@@@Z 10006d60 f i Totals.obj
 0001:00005d95       ?IDataObject_GetData@CComControlBase@ATL@@QAEJPAUtagFORMATETC@@PAUtagSTGMEDIUM@@@Z 10006d95 f i Totals.obj
 0001:00005f3b       ?IOleInPlaceObject_InPlaceDeactivate@CComControlBase@ATL@@QAEJXZ 10006f3b f i Totals.obj
 0001:00005fc2       ?IOleInPlaceObject_SetObjectRects@CComControlBase@ATL@@QAEJPBUtagRECT@@0@Z 10006fc2 f i Totals.obj
 0001:0000608f       ?IOleInPlaceObject_UIDeactivate@CComControlBase@ATL@@QAEJXZ 1000708f f i Totals.obj
 0001:00006151       ?IOleObject_Advise@CComControlBase@ATL@@QAEJPAUIAdviseSink@@PAK@Z 10007151 f i Totals.obj
 0001:0000617b       ?IOleObject_Close@CComControlBase@ATL@@QAEJK@Z 1000717b f i Totals.obj
 0001:0000625f       ?IOleObject_GetClientSite@CComControlBase@ATL@@QAEJPAPAUIOleClientSite@@@Z 1000725f f i Totals.obj
 0001:00006288       ?IOleObject_SetClientSite@CComControlBase@ATL@@QAEJPAUIOleClientSite@@@Z 10007288 f i Totals.obj
 0001:000062c7       ?IOleObject_SetExtent@CComControlBase@ATL@@QAEJKPAUtagSIZE@@@Z 100072c7 f i Totals.obj
 0001:0000637b       ?IPSI_GetIPersistStreamInit@?$IPersistStorageImpl@VCOPOSTotals@@@ATL@@AAEPAUIPersistStreamInit@@XZ 1000737b f i Totals.obj
 0001:000063bd       ?IPersistStreamInit_Load@?$IPersistStreamInitImpl@VCOPOSTotals@@@ATL@@QAEJPAUIStream@@PBUATL_PROPMAP_ENTRY@2@@Z 100073bd f i Totals.obj
 0001:000063e9       ?IPersistStreamInit_Save@?$IPersistStreamInitImpl@VCOPOSTotals@@@ATL@@QAEJPAUIStream@@HPBUATL_PROPMAP_ENTRY@2@@Z 100073e9 f i Totals.obj
 0001:0000641e       ?IQuickActivate_QuickActivate@CComControlBase@ATL@@QAEJPAUtagQACONTAINER@@PAUtagQACONTROL@@@Z 1000741e f i Totals.obj
 0001:00006660       ?IViewObject_Draw@CComControlBase@ATL@@QAEJKJPAXPAUtagDVTARGETDEVICE@@PAUHDC__@@2PBU_RECTL@@3@Z 10007660 f i Totals.obj
 0001:00006708       ?InPlaceActivate@CComControlBase@ATL@@QAEJJPBUtagRECT@@@Z 10007708 f i Totals.obj
 0001:00006979       ?Init@?$CComEnumImpl@UIEnumConnectionPoints@@$1?_GUID_b196b285_bab4_101a_b69c_00aa00341d07@@3U__s_GUID@@BPAUIConnectionPoint@@V?$_CopyInterface@UIConnectionPoint@@@ATL@@@ATL@@QAEJPAPAUIConnectionPoint@@0PAUIUnknown@@W4CComEnumFlags@2@@Z 10007979 f i Totals.obj
 0001:00006a58       ?Init@?$CComEnumImpl@UIEnumConnections@@$1?_GUID_b196b287_bab4_101a_b69c_00aa00341d07@@3U__s_GUID@@BUtagCONNECTDATA@@V?$_Copy@UtagCONNECTDATA@@@ATL@@@ATL@@QAEJPAUtagCONNECTDATA@@0PAUIUnknown@@W4CComEnumFlags@2@@Z 10007a58 f i Totals.obj
 0001:00006b37       ?Init@CComModule@ATL@@QAEJPAU_ATL_OBJMAP_ENTRY30@2@PAUHINSTANCE__@@PBU_GUID@@@Z 10007b37 f i Totals.obj
 0001:00006b96       ?Init@CDynamicStdCallThunk2@ATL@@QAEHKPAX@Z 10007b96 f i Totals.obj
 0001:00006bc1       ?InlineIsEqualUnknown@ATL@@YGHABU_GUID@@@Z 10007bc1 f i Totals.obj
 0001:00006be9       ?InternalGetSite@CComControlBase@ATL@@QAEJABU_GUID@@PAPAX@Z 10007be9 f i Totals.obj
 0001:00006c17       ?InternalSetAtIndex@?$CSimpleMap@PA_WPA_WVCExpansionVectorEqualHelper@ATL@@@ATL@@QAEXHABQA_W0@Z 10007c17 f i Totals.obj
 0001:00006c41       ?Invoke@CComTypeInfoHolder@ATL@@QAEJPAUIDispatch@@JABU_GUID@@KGPAUtagDISPPARAMS@@PAUtagVARIANT@@PAUtagEXCEPINFO@@PAI@Z 10007c41 f i Totals.obj
 0001:00006c84       ?IsEqualObject@?$CComPtrBase@UIOleClientSite@@@ATL@@QAE_NPAUIUnknown@@@Z 10007c84 f i Totals.obj
 0001:00006c84       ?IsEqualObject@?$CComPtrBase@UITypeInfo@@@ATL@@QAE_NPAUIUnknown@@@Z 10007c84 f i Totals.obj
 0001:00006cf1       ?IsSpace@CRegParser@ATL@@IAEH_W@Z 10007cf1 f i Totals.obj
 0001:00006d1b       ?LoadNameCache@CComTypeInfoHolder@ATL@@QAEJPAUITypeInfo@@@Z 10007d1b f i Totals.obj
 0001:00006e69       ?Lookup@?$CSimpleMap@PA_WPA_WVCExpansionVectorEqualHelper@ATL@@@ATL@@QBEPA_WABQA_W@Z 10007e69 f i Totals.obj
 0001:00006e8f       ?NextToken@CRegParser@ATL@@IAEJPA_W@Z 10007e8f f i Totals.obj
 0001:00006fc7       ?OnKillFocus@CComControlBase@ATL@@QAEJIIJAAH@Z 10007fc7 f i Totals.obj
 0001:00007022       ?OnMouseActivate@CComControlBase@ATL@@QAEJIIJAAH@Z 10008022 f i Totals.obj
 0001:00007090       ?OnPaint@CComControlBase@ATL@@QAEJIIJAAH@Z 10008090 f i Totals.obj
 0001:00007142       ?OnSetFocus@CComControlBase@ATL@@QAEJIIJAAH@Z 10008142 f i Totals.obj
 0001:000071cb       ?Open@CRegKey@ATL@@QAEJPAUHKEY__@@PB_WK@Z 100081cb f i Totals.obj
 0001:00007220       ?PreProcessBuffer@CRegParser@ATL@@QAEJPA_WPAPA_W@Z 10008220 f i Totals.obj
 0001:0000748a       ?ProcessWindowMessage@?$CComControl@VCOPOSTotals@@V?$CWindowImpl@VCOPOSTotals@@VCWindow@ATL@@V?$CWinTraits@$0FGAAAAAA@$0A@@3@@ATL@@@ATL@@UAEHPAUHWND__@@IIJAAJK@Z 1000848a f i Totals.obj
 0001:00007529       ?PutProperty@?$CComPtr@UIDispatch@@@ATL@@SAJPAUIDispatch@@JPAUtagVARIANT@@@Z 10008529 f i Totals.obj
 0001:000075bb       ?ReadFromStream@CComBSTR@ATL@@QAEJPAUIStream@@@Z 100085bb f i Totals.obj
 0001:000076e9       ?ReadFromStream@CComVariant@ATL@@QAEJPAUIStream@@GTClassesAllowedInStream@2@K@Z 100086e9 f i Totals.obj
 0001:0000786f       ?RecurseDeleteKey@CRegKey@ATL@@QAEJPB_W@Z 1000886f f i Totals.obj
 0001:00007931       ?RegCreateKeyExW@CAtlTransactionManager@ATL@@QAEJPAUHKEY__@@PB_WKPA_WKKQAU_SECURITY_ATTRIBUTES@@PAPAU3@PAK@Z 10008931 f i Totals.obj
 0001:00007994       ?RegDeleteKeyW@CAtlTransactionManager@ATL@@QAEJPAUHKEY__@@PB_W@Z 10008994 f i Totals.obj
 0001:000079e6       ?RegOpenKeyExW@CAtlTransactionManager@ATL@@QAEJPAUHKEY__@@PB_WKKPAPAU3@@Z 100089e6 f i Totals.obj
 0001:00007a3d       ?Register@_ATL_WNDCLASSINFOW@ATL@@QAEGPAP6GJPAUHWND__@@IIJ@Z@Z 10008a3d f i Totals.obj
 0001:00007a5d       ?RegisterBuffer@CRegParser@ATL@@QAEJPA_WH@Z 10008a5d f i Totals.obj
 0001:00007b96       ?RegisterFromResource@CRegObject@ATL@@IAEJPB_W00H@Z 10008b96 f i Totals.obj
 0001:00007ccc       ?RegisterServer@?$CAtlModuleT@VCComModule@ATL@@@ATL@@QAEJHPBU_GUID@@@Z 10008ccc f i Totals.obj
 0001:00007cfa       ?RegisterServer@CComModule@ATL@@QAEJHPBU_GUID@@@Z 10008cfa f i Totals.obj
 0001:00007d70       ?RegisterSubkeys@CRegParser@ATL@@IAEJPA_WPAUHKEY__@@HH@Z 10008d70 f i Totals.obj
 0001:00008342       ?Remove@CComDynamicUnkArray@ATL@@QAEHK@Z 10009342 f i Totals.obj
 0001:0000836b       ?RemoveAll@?$CSimpleMap@PA_WPA_WVCExpansionVectorEqualHelper@ATL@@@ATL@@QAEXXZ 1000936b f i Totals.obj
 0001:00008397       ?ResourceRegisterSz@CRegObject@ATL@@QAGJPB_W00@Z 10009397 f i Totals.obj
 0001:000083c4       ?ResourceUnregisterSz@CRegObject@ATL@@QAGJPB_W00@Z 100093c4 f i Totals.obj
 0001:000083f1       ?SendOnDataChange@CComControlBase@ATL@@QAEJK@Z 100093f1 f i Totals.obj
 0001:0000843e       ?SetControlFocus@CComControlBase@ATL@@QAEHH@Z 1000943e f i Totals.obj
 0001:000084db       ?SetMultiStringValue@CRegKey@ATL@@QAEJPB_W0@Z 100094db f i Totals.obj
 0001:00008537       ?SetStringValue@CRegKey@ATL@@QAEJPB_W0K@Z 10009537 f i Totals.obj
 0001:00008580       ?SkipAssignment@CRegParser@ATL@@IAEJPA_W@Z 10009580 f i Totals.obj
 0001:000085e5       ?SkipWhiteSpace@CRegParser@ATL@@IAEXXZ 100095e5 f i Totals.obj
 0001:00008607       ?StrChrW@CRegParser@ATL@@KAPA_WPA_W_W@Z 10009607 f i Totals.obj
 0001:00008644       ?Term@CAtlModule@ATL@@QAEXXZ 10009644 f i Totals.obj
 0001:0000867d       ?Term@CComModule@ATL@@QAEXXZ 1000967d f i Totals.obj
 0001:000086d5       ?UnregisterServer@?$CAtlModuleT@VCComModule@ATL@@@ATL@@QAEJHPBU_GUID@@@Z 100096d5 f i Totals.obj
 0001:000086fb       ?UnregisterServer@CComModule@ATL@@QAEJHPBU_GUID@@@Z 100096fb f i Totals.obj
 0001:00008771       ?UpdateRegistryFromResource@CAtlModule@ATL@@QAGJIHPAU_ATL_REGMAP_ENTRY@2@@Z 10009771 f i Totals.obj
 0001:0000893c       ?UpdateRegistryFromResource@CAtlModule@ATL@@QAGJPB_WHPAU_ATL_REGMAP_ENTRY@2@@Z 1000993c f i Totals.obj
 0001:00008b0d       ?VTFromRegType@CRegParser@ATL@@KAHPB_WAAG@Z 10009b0d f i Totals.obj
 0001:00008b7a       ?WindowProc@?$CWindowImplBaseT@VCWindow@ATL@@V?$CWinTraits@$0FGAAAAAA@$0A@@2@@ATL@@SGJPAUHWND__@@IIJ@Z 10009b7a f i Totals.obj
 0001:00008c6c       ?WriteToStream@CComBSTR@ATL@@QAEJPAUIStream@@@Z 10009c6c f i Totals.obj
 0001:00008cc3       ?WriteToStream@CComVariant@ATL@@QAEJPAUIStream@@@Z 10009cc3 f i Totals.obj
 0001:00008e3d       ?WriteToStream@CComVariant@ATL@@QAEJPAUIStream@@G@Z 10009e3d f i Totals.obj
 0001:00008ea6       ?_AtlInitialConstruct@?$CComObjectRootEx@VCComMultiThreadModel@ATL@@@ATL@@QAEJXZ 10009ea6 f i Totals.obj
 0001:00008ebb       ?_AtlVerifyStackAvailable@_ATL_SAFE_ALLOCA_IMPL@ATL@@YA_NK@Z 10009ebb f i Totals.obj
 0001:00008f39       ?atlCreate@?$CWindowImpl@VCOPOSTotals@@VCWindow@ATL@@V?$CWinTraits@$0FGAAAAAA@$0A@@3@@ATL@@QAEPAUHWND__@@PAU3@V_U_RECT@2@PB_WKKV_U_MENUorID@2@PAX@Z 10009f39 f i Totals.obj
 0001:00008f7d       ?atlCreate@?$CWindowImplBaseT@VCWindow@ATL@@V?$CWinTraits@$0FGAAAAAA@$0A@@2@@ATL@@QAEPAUHWND__@@PAU3@V_U_RECT@2@PB_WKKV_U_MENUorID@2@GPAX@Z 10009f7d f i Totals.obj
 0001:00009019       ?atlCreate@CRegKey@ATL@@QAEJPAUHKEY__@@PB_WPA_WKKPAU_SECURITY_ATTRIBUTES@@PAK@Z 1000a019 f i Totals.obj
 0001:00009088       ?copy@?$_Copy@UtagCONNECTDATA@@@ATL@@SAJPAUtagCONNECTDATA@@PBU3@@Z 1000a088 f i Totals.obj
 0001:000090be       ?copy@?$_CopyInterface@UIConnectionPoint@@@ATL@@SAJPAPAUIConnectionPoint@@PBQAU3@@Z 1000a0be f i Totals.obj
 0001:000090ec       ?memcpy_s@Checked@ATL@@YAXPAXIPBXI@Z 1000a0ec f i Totals.obj
 0001:0000910b       ?ocscpy_s@@YA_NPA_WIPB_W@Z 1000a10b f i Totals.obj
 0001:0000913a       ?ocslen@@YAHPB_W@Z         1000a13a f i Totals.obj
 0001:0000915a       ?wcscpy_s@Checked@ATL@@YAXPA_WIPB_W@Z 1000a15a f i Totals.obj
 0001:00009176       _DllCanUnloadNow@0         1000a176 f   Totals.obj
 0001:00009182       _DllGetClassObject@12      1000a182 f   Totals.obj
 0001:00009190       _DllMain@12                1000a190 f   Totals.obj
 0001:000091d2       _DllRegisterServer@0       1000a1d2 f   Totals.obj
 0001:000091e1       _DllUnregisterServer@0     1000a1e1 f   Totals.obj
 0001:000091f0       _InlineIsEqualGUID         1000a1f0 f i Totals.obj
 0001:00009220       ___local_stdio_printf_options 1000a220 f i Totals.obj
 0001:00009226       __vswprintf_s_l            1000a226 f i Totals.obj
 0001:000092d3       _swprintf_s                1000a2d3 f i Totals.obj
 0001:000092ef       ??0?$CComControl@VCOPOSTotals@@V?$CWindowImpl@VCOPOSTotals@@VCWindow@ATL@@V?$CWinTraits@$0FGAAAAAA@$0A@@3@@ATL@@@ATL@@QAE@XZ 1000a2ef f i TotalsImpl.obj
 0001:00009316       ??0CComControlBase@ATL@@QAE@AAPAUHWND__@@@Z 1000a316 f i TotalsImpl.obj
 0001:00009360       ??0COPOSTotals@@QAE@XZ     1000a360 f   TotalsImpl.obj
 0001:000093af       ??1?$CComControl@VCOPOSTotals@@V?$CWindowImpl@VCOPOSTotals@@VCWindow@ATL@@V?$CWinTraits@$0FGAAAAAA@$0A@@3@@ATL@@@ATL@@UAE@XZ 1000a3af f i TotalsImpl.obj
 0001:000093c8       ??1?$IConnectionPointImpl@VCOPOSTotals@@$1?DIID__IOPOSTotalsEvents@@3U_GUID@@BVCComDynamicUnkArray@ATL@@@ATL@@QAE@XZ 1000a3c8 f i TotalsImpl.obj
 0001:000093c8       ??1?$IConnectionPointImpl@VCOPOSTotals@@$1?IID_IPropertyNotifySink@@3U_GUID@@BVCComDynamicUnkArray@ATL@@@ATL@@QAE@XZ 1000a3c8 f i TotalsImpl.obj
 0001:00009405       ??1CComControlBase@ATL@@UAE@XZ 1000a405 f i TotalsImpl.obj
 0001:00009468       ??1COPOSTotals@@UAE@XZ     1000a468 f   TotalsImpl.obj
 0001:000094b0       ??1OposVariantResult@@QAE@XZ 1000a4b0 f i TotalsImpl.obj
 0001:000094d1       ??1_CW@@QAE@XZ             1000a4d1 f i TotalsImpl.obj
 0001:000094ea       ?BeginTrans@COPOSTotals@@UAGJPAJ@Z 1000a4ea f   TotalsImpl.obj
 0001:00009505       ?CheckHealth@COPOSTotals@@UAGJJPAJ@Z 1000a505 f   TotalsImpl.obj
 0001:00009554       ?ClaimDevice@COPOSTotals@@UAGJJPAJ@Z 1000a554 f   TotalsImpl.obj
 0001:000095c2       ?ClaimFile@COPOSTotals@@UAGJJJPAJ@Z 1000a5c2 f   TotalsImpl.obj
 0001:00009636       ?Close@COPOSTotals@@UAGJPAJ@Z 1000a636 f   TotalsImpl.obj
 0001:000096a4       ?CommitTrans@COPOSTotals@@UAGJPAJ@Z 1000a6a4 f   TotalsImpl.obj
 0001:000096bf       ?CompareFirmwareVersion@COPOSTotals@@UAGJPA_WPAJ1@Z 1000a6bf f   TotalsImpl.obj
 0001:0000973f       ?Create@COPOSTotals@@UAGJPA_WPAJJF1@Z 1000a73f f   TotalsImpl.obj
 0001:000097f8       ?Delete@COPOSTotals@@UAGJPA_WPAJ@Z 1000a7f8 f   TotalsImpl.obj
 0001:0000984f       ?DirectIO@COPOSTotals@@UAGJJPAJPAPA_W0@Z 1000a84f f   TotalsImpl.obj
 0001:000098fd       ?DoInvoke@COPOSTotals@@IAEJJPAVOposVariant@@IHPAJ_N@Z 1000a8fd f   TotalsImpl.obj
 0001:000099bf       ?EventClose@COPOSTotals@@IAEXXZ 1000a9bf f i TotalsImpl.obj
 0001:000099f2       ?EventInit@COPOSTotals@@IAEJXZ 1000a9f2 f i TotalsImpl.obj
 0001:00009abe       ?EventUninit@COPOSTotals@@IAEXXZ 1000aabe f i TotalsImpl.obj
 0001:00009b10       ?EventWindowProc@COPOSTotals@@IAGJIIJ@Z 1000ab10 f i TotalsImpl.obj
 0001:00009b87       ?FinalConstruct@COPOSTotals@@QAEJXZ 1000ab87 f   TotalsImpl.obj
 0001:00009bc0       ?Find@COPOSTotals@@UAGJPA_WPAJ11@Z 1000abc0 f   TotalsImpl.obj
 0001:00009c78       ?FindByIndex@COPOSTotals@@UAGJJPAPA_WPAJ@Z 1000ac78 f   TotalsImpl.obj
 0001:00009cf4       ?FireEventCleanup@COPOSTotals@@IAEXXZ 1000acf4 f i TotalsImpl.obj
 0001:00009d0a       ?FireEventSetup@COPOSTotals@@IAE_NXZ 1000ad0a f i TotalsImpl.obj
 0001:00009d3e       ?FreezeEvents@COPOSTotals@@MAGJH@Z 1000ad3e f   TotalsImpl.obj
 0001:00009d8f       ?GetOposProp@COPOSTotals@@IAEJJPAFJ@Z 1000ad8f f   TotalsImpl.obj
 0001:00009db2       ?GetOposProp@COPOSTotals@@IAEJJPAJJ@Z 1000adb2 f   TotalsImpl.obj
 0001:00009e70       ?GetOposProp@COPOSTotals@@IAEJJPAPA_WJ@Z 1000ae70 f   TotalsImpl.obj
 0001:00009f3b       ?OnDraw@COPOSTotals@@MAEJAAUATL_DRAWINFO@@@Z 1000af3b f   TotalsImpl.obj
 0001:00009fdb       ?Open@COPOSTotals@@UAGJPA_WPAJ@Z 1000afdb f   TotalsImpl.obj
 0001:0000a772       ?Read@COPOSTotals@@UAGJJPAPA_WJJPAJ@Z 1000b772 f   TotalsImpl.obj
 0001:0000a821       ?RecalculateValidationData@COPOSTotals@@UAGJJPAJ@Z 1000b821 f   TotalsImpl.obj
 0001:0000a870       ?ReleaseDevice@COPOSTotals@@UAGJPAJ@Z 1000b870 f   TotalsImpl.obj
 0001:0000a8a7       ?ReleaseFile@COPOSTotals@@UAGJJPAJ@Z 1000b8a7 f   TotalsImpl.obj
 0001:0000a8f6       ?Rename@COPOSTotals@@UAGJJPA_WPAJ@Z 1000b8f6 f   TotalsImpl.obj
 0001:0000a972       ?ResetStatistics@COPOSTotals@@UAGJPA_WPAJ@Z 1000b972 f   TotalsImpl.obj
 0001:0000a9c9       ?RetrieveStatistics@COPOSTotals@@UAGJPAPA_WPAJ@Z 1000b9c9 f   TotalsImpl.obj
 0001:0000aa20       ?Rollback@COPOSTotals@@UAGJPAJ@Z 1000ba20 f   TotalsImpl.obj
 0001:0000aa3b       ?SOProcessID@COPOSTotals@@UAGJPAJ@Z 1000ba3b f   TotalsImpl.obj
 0001:0000aa4f       ?SetAll@COPOSTotals@@UAGJJJPAJ@Z 1000ba4f f   TotalsImpl.obj
 0001:0000aac3       ?SetCOFreezeEvents@COPOSTotals@@IAEXF@Z 1000bac3 f   TotalsImpl.obj
 0001:0000ab4e       ?SetOposProp@COPOSTotals@@IAEJJJJ@Z 1000bb4e f   TotalsImpl.obj
 0001:0000ac2c       ?UpdateFirmware@COPOSTotals@@UAGJPA_WPAJ@Z 1000bc2c f   TotalsImpl.obj
 0001:0000ac83       ?UpdateStatistics@COPOSTotals@@UAGJPA_WPAJ@Z 1000bc83 f   TotalsImpl.obj
 0001:0000acda       ?ValidateData@COPOSTotals@@UAGJJPAJ@Z 1000bcda f   TotalsImpl.obj
 0001:0000ad29       ?Write@COPOSTotals@@UAGJJPA_WJJPAJ@Z 1000bd29 f   TotalsImpl.obj
 0001:0000add8       ?get_BinaryConversion@COPOSTotals@@UAGJPAJ@Z 1000bdd8 f   TotalsImpl.obj
 0001:0000adee       ?get_CapCompareFirmwareVersion@COPOSTotals@@UAGJPAF@Z 1000bdee f   TotalsImpl.obj
 0001:0000ae07       ?get_CapErrorDetection@COPOSTotals@@UAGJPAF@Z 1000be07 f   TotalsImpl.obj
 0001:0000ae20       ?get_CapPowerReporting@COPOSTotals@@UAGJPAJ@Z 1000be20 f   TotalsImpl.obj
 0001:0000ae39       ?get_CapSingleFile@COPOSTotals@@UAGJPAF@Z 1000be39 f   TotalsImpl.obj
 0001:0000ae52       ?get_CapStatisticsReporting@COPOSTotals@@UAGJPAF@Z 1000be52 f   TotalsImpl.obj
 0001:0000ae6b       ?get_CapTransactions@COPOSTotals@@UAGJPAF@Z 1000be6b f   TotalsImpl.obj
 0001:0000ae84       ?get_CapUpdateFirmware@COPOSTotals@@UAGJPAF@Z 1000be84 f   TotalsImpl.obj
 0001:0000ae9d       ?get_CapUpdateStatistics@COPOSTotals@@UAGJPAF@Z 1000be9d f   TotalsImpl.obj
 0001:0000aeb6       ?get_CheckHealthText@COPOSTotals@@UAGJPAPA_W@Z 1000beb6 f   TotalsImpl.obj
 0001:0000aecf       ?get_Claimed@COPOSTotals@@UAGJPAF@Z 1000becf f   TotalsImpl.obj
 0001:0000aee5       ?get_ControlObjectDescription@COPOSTotals@@UAGJPAPA_W@Z 1000bee5 f   TotalsImpl.obj
 0001:0000af22       ?get_ControlObjectVersion@COPOSTotals@@UAGJPAJ@Z 1000bf22 f   TotalsImpl.obj
 0001:0000af35       ?get_DeviceDescription@COPOSTotals@@UAGJPAPA_W@Z 1000bf35 f   TotalsImpl.obj
 0001:0000af4e       ?get_DeviceEnabled@COPOSTotals@@UAGJPAF@Z 1000bf4e f   TotalsImpl.obj
 0001:0000af64       ?get_DeviceName@COPOSTotals@@UAGJPAPA_W@Z 1000bf64 f   TotalsImpl.obj
 0001:0000af7d       ?get_FreeData@COPOSTotals@@UAGJPAJ@Z 1000bf7d f   TotalsImpl.obj
 0001:0000af96       ?get_FreezeEvents@COPOSTotals@@UAGJPAF@Z 1000bf96 f   TotalsImpl.obj
 0001:0000afac       ?get_NumberOfFiles@COPOSTotals@@UAGJPAJ@Z 1000bfac f   TotalsImpl.obj
 0001:0000afc5       ?get_OpenResult@COPOSTotals@@UAGJPAJ@Z 1000bfc5 f   TotalsImpl.obj
 0001:0000afdc       ?get_PowerNotify@COPOSTotals@@UAGJPAJ@Z 1000bfdc f   TotalsImpl.obj
 0001:0000aff2       ?get_PowerState@COPOSTotals@@UAGJPAJ@Z 1000bff2 f   TotalsImpl.obj
 0001:0000b008       ?get_ResultCode@COPOSTotals@@UAGJPAJ@Z 1000c008 f   TotalsImpl.obj
 0001:0000b046       ?get_ResultCodeExtended@COPOSTotals@@UAGJPAJ@Z 1000c046 f   TotalsImpl.obj
 0001:0000b05c       ?get_ServiceObjectDescription@COPOSTotals@@UAGJPAPA_W@Z 1000c05c f   TotalsImpl.obj
 0001:0000b075       ?get_ServiceObjectVersion@COPOSTotals@@UAGJPAJ@Z 1000c075 f   TotalsImpl.obj
 0001:0000b08b       ?get_State@COPOSTotals@@UAGJPAJ@Z 1000c08b f   TotalsImpl.obj
 0001:0000b0b7       ?get_TotalsSize@COPOSTotals@@UAGJPAJ@Z 1000c0b7 f   TotalsImpl.obj
 0001:0000b0d0       ?get_TransactionInProgress@COPOSTotals@@UAGJPAF@Z 1000c0d0 f   TotalsImpl.obj
 0001:0000b0e9       ?put_BinaryConversion@COPOSTotals@@UAGJJ@Z 1000c0e9 f   TotalsImpl.obj
 0001:0000b0ff       ?put_DeviceEnabled@COPOSTotals@@UAGJF@Z 1000c0ff f   TotalsImpl.obj
 0001:0000b11c       ?put_FreezeEvents@COPOSTotals@@UAGJF@Z 1000c11c f   TotalsImpl.obj
 0001:0000b168       ?put_PowerNotify@COPOSTotals@@UAGJJ@Z 1000c168 f   TotalsImpl.obj
 0001:0000b17e       ?s_EventWindowProc@COPOSTotals@@KGJPAUHWND__@@IIJ@Z 1000c17e f i TotalsImpl.obj
 0001:0000b1d0       ??_U@YAPAXI@Z              1000c1d0 f   LIBCMT:new_array.obj
 0001:0000b1d9       ??3@YAXPAXI@Z              1000c1d9 f   LIBCMT:delete_scalar_size.obj
 0001:0000b1e7       ??_V@YAXPAX@Z              1000c1e7 f   LIBCMT:delete_array.obj
 0001:0000b1ec       ??_V@YAXPAXI@Z             1000c1ec f   LIBCMT:delete_array_size.obj
 0001:0000b23e       ___scrt_acquire_startup_lock 1000c23e f   LIBCMT:utility.obj
 0001:0000b270       ___scrt_dllmain_after_initialize_c 1000c270 f   LIBCMT:utility.obj
 0001:0000b29b       ___scrt_dllmain_before_initialize_c 1000c29b f   LIBCMT:utility.obj
 0001:0000b2a9       ___scrt_dllmain_crt_thread_attach 1000c2a9 f   LIBCMT:utility.obj
 0001:0000b2c8       ___scrt_dllmain_crt_thread_detach 1000c2c8 f   LIBCMT:utility.obj
 0001:0000b2d5       ___scrt_dllmain_exception_filter 1000c2d5 f   LIBCMT:utility.obj
 0001:0000b309       ___scrt_dllmain_uninitialize_c 1000c309 f   LIBCMT:utility.obj
 0001:0000b32c       ___scrt_dllmain_uninitialize_critical 1000c32c f   LIBCMT:utility.obj
 0001:0000b339       ___scrt_initialize_crt     1000c339 f   LIBCMT:utility.obj
 0001:0000b372       ___scrt_initialize_onexit_tables 1000c372 f   LIBCMT:utility.obj
 0001:0000b3f9       ___scrt_is_nonwritable_in_current_image 1000c3f9 f   LIBCMT:utility.obj
 0001:0000b48d       ___scrt_release_startup_lock 1000c48d f   LIBCMT:utility.obj
 0001:0000b4aa       ___scrt_uninitialize_crt   1000c4aa f   LIBCMT:utility.obj
 0001:0000b4d2       __onexit                   1000c4d2 f   LIBCMT:utility.obj
 0001:0000b4ff       _atexit                    1000c4ff f   LIBCMT:utility.obj
 0001:0000b514       ??3@YAXPAX@Z               1000c514 f   LIBCMT:delete_scalar.obj
 0001:0000b5de       __Init_thread_footer       1000c5de f   LIBCMT:thread_safe_statics.obj
 0001:0000b628       __Init_thread_header       1000c628 f   LIBCMT:thread_safe_statics.obj
 0001:0000b67a       __Init_thread_notify       1000c67a f   LIBCMT:thread_safe_statics.obj
 0001:0000b6b0       __Init_thread_wait         1000c6b0 f   LIBCMT:thread_safe_statics.obj
 0001:0000b6fe       ___raise_securityfailure   1000c6fe f   LIBCMT:gs_report.obj
 0001:0000b726       ___report_gsfailure        1000c726 f   LIBCMT:gs_report.obj
 0001:0000b81f       ___report_rangecheckfailure 1000c81f f   LIBCMT:gs_report.obj
 0001:0000b82b       ___report_securityfailure  1000c82b f   LIBCMT:gs_report.obj
 0001:0000b8f9       ??2@YAPAXIABUnothrow_t@std@@@Z 1000c8f9 f   LIBCMT:new_scalar_nothrow.obj
 0001:0000b949       ??_U@YAPAXIABUnothrow_t@std@@@Z 1000c949 f   LIBCMT:new_array_nothrow.obj
 0001:0000b952       @__security_check_cookie@4 1000c952 f   LIBCMT:secchk.obj
 0001:0000b970       __SEH_prolog4_GS           1000c970 f   LIBCMT:sehprolg4gs.obj
 0001:0000b9b9       __SEH_epilog4_GS           1000c9b9 f   LIBCMT:sehprolg4gs.obj
 0001:0000b9d0       __alloca_probe_16          1000c9d0 f   LIBCMT:alloca16.obj
 0001:0000b9e6       __alloca_probe_8           1000c9e6     LIBCMT:alloca16.obj
 0001:0000ba00       __chkstk                   1000ca00 f   LIBCMT:chkstk.obj
 0001:0000ba00       __alloca_probe             1000ca00 f   LIBCMT:chkstk.obj
 0001:0000bd48       __DllMainCRTStartup@12     1000cd48 f   LIBCMT:dll_dllmain.obj
 0001:0000bd6b       ??2@YAPAXI@Z               1000cd6b f   LIBCMT:new_scalar.obj
 0001:0000bd9b       ___isa_available_init      1000cd9b f   LIBCMT:cpu_disp.obj
 0001:0000bf32       ___scrt_is_ucrt_dll_in_use 1000cf32 f   LIBCMT:ucrt_detection.obj
 0001:0000bf3e       ___scrt_fastfail           1000cf3e f   LIBCMT:utility_desktop.obj
 0001:0000c058       __crt_debugger_hook        1000d058 f   LIBCMT:utility_desktop.obj
 0001:0000c060       __SEH_prolog4              1000d060 f   LIBCMT:sehprolg4.obj
 0001:0000c0a6       __SEH_epilog4              1000d0a6 f   LIBCMT:sehprolg4.obj
 0001:0000c0bb       @_guard_check_icall_nop@4  1000d0bb f i LIBCMT:guard_support.obj
 0001:0000c109       ___security_init_cookie    1000d109 f   LIBCMT:gs_support.obj
 0001:0000c154       ?__scrt_initialize_type_info@@YAXXZ 1000d154 f   LIBCMT:tncleanup.obj
 0001:0000c160       ?__scrt_uninitialize_type_info@@YAXXZ 1000d160 f   LIBCMT:tncleanup.obj
 0001:0000c16c       ___local_stdio_scanf_options 1000d16c f i LIBCMT:default_local_stdio_options.obj
 0001:0000c172       ___scrt_initialize_default_local_stdio_options 1000d172 f   LIBCMT:default_local_stdio_options.obj
 0001:0000c18f       ___scrt_get_dyn_tls_init_callback 1000d18f f   LIBCMT:dyn_tls_init.obj
 0001:0000c195       __RTC_Initialize           1000d195 f   LIBCMT:initsect.obj
 0001:0000c1c1       __RTC_Terminate            1000d1c1 f   LIBCMT:initsect.obj
 0001:0000c1ed       ??0bad_alloc@std@@QAE@ABV01@@Z 1000d1ed f i LIBCMT:throw_bad_alloc.obj
 0001:0000c208       ??0bad_alloc@std@@QAE@XZ   1000d208 f i LIBCMT:throw_bad_alloc.obj
 0001:0000c220       ??0bad_array_new_length@std@@QAE@ABV01@@Z 1000d220 f i LIBCMT:throw_bad_alloc.obj
 0001:0000c23b       ??0bad_array_new_length@std@@QAE@XZ 1000d23b f i LIBCMT:throw_bad_alloc.obj
 0001:0000c253       ??0exception@std@@QAE@ABV01@@Z 1000d253 f i LIBCMT:throw_bad_alloc.obj
 0001:0000c27f       ??1bad_array_new_length@std@@UAE@XZ 1000d27f f i LIBCMT:throw_bad_alloc.obj
 0001:0000c27f       ??1bad_exception@std@@UAE@XZ 1000d27f f i libvcruntime:frame.obj
 0001:0000c27f       ??1bad_alloc@std@@UAE@XZ   1000d27f f i LIBCMT:throw_bad_alloc.obj
 0001:0000c290       ??_Gexception@std@@UAEPAXI@Z 1000d290 f i LIBCMT:throw_bad_alloc.obj
 0001:0000c290       ??_Gbad_alloc@std@@UAEPAXI@Z 1000d290 f i LIBCMT:throw_bad_alloc.obj
 0001:0000c290       ??_Eexception@std@@UAEPAXI@Z 1000d290 f i LIBCMT:throw_bad_alloc.obj
 0001:0000c290       ??_Ebad_array_new_length@std@@UAEPAXI@Z 1000d290 f i LIBCMT:throw_bad_alloc.obj
 0001:0000c290       ??_Gbad_array_new_length@std@@UAEPAXI@Z 1000d290 f i LIBCMT:throw_bad_alloc.obj
 0001:0000c290       ??_Ebad_alloc@std@@UAEPAXI@Z 1000d290 f i LIBCMT:throw_bad_alloc.obj
 0001:0000c290       ??_Ebad_exception@std@@UAEPAXI@Z 1000d290 f i libvcruntime:frame.obj
 0001:0000c290       ??_Gbad_exception@std@@UAEPAXI@Z 1000d290 f i libvcruntime:frame.obj
 0001:0000c2bd       ?__scrt_throw_std_bad_alloc@@YAXXZ 1000d2bd f   LIBCMT:throw_bad_alloc.obj
 0001:0000c2da       ?__scrt_throw_std_bad_array_new_length@@YAXXZ 1000d2da f   LIBCMT:throw_bad_alloc.obj
 0001:0000c2f7       ?what@exception@std@@UBEPBDXZ 1000d2f7 f i LIBCMT:throw_bad_alloc.obj
 0001:0000c304       ??_Etype_info@@UAEPAXI@Z   1000d304 f i LIBCMT:std_type_info_static.obj
 0001:0000c304       ??_Gtype_info@@UAEPAXI@Z   1000d304 f i LIBCMT:std_type_info_static.obj
 0001:0000c327       ??0CAtlBaseModule@ATL@@QAE@XZ 1000d327 f   atls:atlbase.obj
 0001:0000c37a       ??0_ATL_BASE_MODULE70@ATL@@QAE@XZ 1000d37a f i atls:atlbase.obj
 0001:0000c39d       ??1CAtlBaseModule@ATL@@QAE@XZ 1000d39d f   atls:atlbase.obj
 0001:0000c48a       ?Init@_stdcallthunk@ATL@@QAEHKPAX@Z 1000d48a f i atls:atlthunk.obj
 0001:0000c4bf       ?__AllocStdCallThunk_cmn@@YAPAXXZ 1000d4bf f   atls:atlthunk.obj
 0001:0000c585       ?__FreeStdCallThunk_cmn@@YAXPAX@Z 1000d585 f   atls:atlthunk.obj
 0001:0000c620       _AtlThunk_AllocateData@0   1000d620 f   atls:atlthunk.obj
 0001:0000c685       _AtlThunk_DataToCode@4     1000d685 f   atls:atlthunk.obj
 0001:0000c6cc       _AtlThunk_FreeData@4       1000d6cc f   atls:atlthunk.obj
 0001:0000c722       _AtlThunk_InitData@12      1000d722 f   atls:atlthunk.obj
 0001:0000c771       __purecall                 1000d771 f   libvcruntime:purevirt.obj
 0001:0000c78c       _wcsstr                    1000d78c f   libvcruntime:wcsstr.obj
 0001:0000ca50       __except_handler4          1000da50 f   libvcruntime:chandler4.obj
 0001:0000cbae       _memcmp                    1000dbae f   libvcruntime:memcmp.obj
 0001:0000db60       _memcpy                    1000eb60 f   libvcruntime:memcpy.obj
 0001:0000e0e0       _memset                    1000f0e0 f   libvcruntime:memset.obj
 0001:0000e23a       ___vcrt_initialize         1000f23a f   libvcruntime:initialization.obj
 0001:0000e259       ___vcrt_thread_attach      1000f259 f   libvcruntime:initialization.obj
 0001:0000e264       ___vcrt_thread_detach      1000f264 f   libvcruntime:initialization.obj
 0001:0000e26f       ___vcrt_uninitialize       1000f26f f   libvcruntime:initialization.obj
 0001:0000e286       ___vcrt_uninitialize_critical 1000f286 f   libvcruntime:initialization.obj
 0001:0000e28e       ?GetRangeOfTrysToCheck@__FrameHandler3@@SA?AU?$pair@Viterator@TryBlockMap@__FrameHandler3@@V123@@std@@AAVTryBlockMap@1@HPAXPBU_s_FuncInfo@@H@Z 1000f28e f   libvcruntime:trnsctrl.obj
 0001:0000e2fe       ?_CallCatchBlock2@@YAPAXPAUEHRegistrationNode@@PBU_s_FuncInfo@@PAXHK@Z 1000f2fe f   libvcruntime:trnsctrl.obj
 0001:0000e35c       ?_CallSETranslator@@YAHPAUEHExceptionRecord@@PAUEHRegistrationNode@@PAX2PBU_s_FuncInfo@@H1@Z 1000f35c f   libvcruntime:trnsctrl.obj
 0001:0000e442       ?_JumpToContinuation@@YGXPAXPAUEHRegistrationNode@@@Z 1000f442 f   libvcruntime:trnsctrl.obj
 0001:0000e472       ?_UnwindNestedFrames@@YGXPAUEHRegistrationNode@@PAUEHExceptionRecord@@@Z 1000f472 f   libvcruntime:trnsctrl.obj
 0001:0000e4c5       __CatchGuardHandler        1000f4c5 f   libvcruntime:trnsctrl.obj
 0001:0000e4f6       __CreateFrameInfo          1000f4f6 f   libvcruntime:trnsctrl.obj
 0001:0000e51a       __FindAndUnlinkFrame       1000f51a f   libvcruntime:trnsctrl.obj
 0001:0000e562       __TranslatorGuardHandler   1000f562 f   libvcruntime:trnsctrl.obj
 0001:0000e5ff       ___CxxFrameHandler3        1000f5ff f   libvcruntime:trnsctrl.obj
 0001:0000e635       ___std_type_info_compare   1000f635 f   libvcruntime:std_type_info.obj
 0001:0000e671       ___std_type_info_destroy_list 1000f671 f   libvcruntime:std_type_info.obj
 0001:0000e694       ___std_exception_copy      1000f694 f   libvcruntime:std_exception.obj
 0001:0000e6f7       ___std_exception_destroy   1000f6f7 f   libvcruntime:std_exception.obj
 0001:0000e716       __CxxThrowException@8      1000f716 f   libvcruntime:throw.obj
 0001:0000e790       _memmove                   1000f790 f   libvcruntime:memmove.obj
 0001:0000ed10       __local_unwind4            1000fd10 f   libvcruntime:exsup4.obj
 0001:0000ede8       __seh_longjmp_unwind4@4    1000fde8 f   libvcruntime:exsup4.obj
 0001:0000ee10       @_EH4_CallFilterFunc@8     1000fe10 f   libvcruntime:exsup4.obj
 0001:0000ee28       @_EH4_TransferToHandler@8  1000fe28 f   libvcruntime:exsup4.obj
 0001:0000ee44       @_EH4_GlobalUnwind2@8      1000fe44 f   libvcruntime:exsup4.obj
 0001:0000ee60       @_EH4_LocalUnwind@16       1000fe60 f   libvcruntime:exsup4.obj
 0001:0000ee77       ___except_validate_context_record 1000fe77 f   libvcruntime:jbcxrval.obj
 0001:0000eea7       ___except_validate_jump_buffer 1000fea7 f   libvcruntime:jbcxrval.obj
 0001:0000eed4       ___vcrt_freefls@4          1000fed4 f   libvcruntime:per_thread_data.obj
 0001:0000eef0       ___vcrt_freeptd            1000fef0 f   libvcruntime:per_thread_data.obj
 0001:0000ef26       ___vcrt_getptd             1000ff26 f   libvcruntime:per_thread_data.obj
 0001:0000ef34       ___vcrt_getptd_noexit      1000ff34 f   libvcruntime:per_thread_data.obj
 0001:0000efc6       ___vcrt_initialize_ptd     1000ffc6 f   libvcruntime:per_thread_data.obj
 0001:0000eff9       ___vcrt_uninitialize_ptd   1000fff9 f   libvcruntime:per_thread_data.obj
 0001:0000f014       ___vcrt_initialize_locks   10010014 f   libvcruntime:locks.obj
 0001:0000f050       ___vcrt_uninitialize_locks 10010050 f   libvcruntime:locks.obj
 0001:0000f7ab       ??$TypeMatchHelper@V__FrameHandler3@@@@YAHPBU_s_HandlerType@@PBU_s_CatchableType@@PBU_s_ThrowInfo@@@Z 100107ab f i libvcruntime:frame.obj
 0001:0000f839       ??$__InternalCxxFrameHandler@V__FrameHandler3@@@@YA?AW4_EXCEPTION_DISPOSITION@@PAUEHExceptionRecord@@PAUEHRegistrationNode@@PAU_CONTEXT@@PAXPBU_s_FuncInfo@@H1E@Z 10010839 f i libvcruntime:frame.obj
 0001:0000f93b       ??0bad_exception@std@@QAE@ABV01@@Z 1001093b f i libvcruntime:frame.obj
 0001:0000f956       ??0bad_exception@std@@QAE@XZ 10010956 f i libvcruntime:frame.obj
 0001:0000f96e       ??8type_info@@QBE_NABV0@@Z 1001096e f i libvcruntime:frame.obj
 0001:0000fbd5       ?FrameUnwindToEmptyState@__FrameHandler3@@SAXPAUEHRegistrationNode@@PAXPBU_s_FuncInfo@@@Z 10010bd5 f   libvcruntime:frame.obj
 0001:0000fbed       ?FrameUnwindToState@__FrameHandler3@@SAXPAUEHRegistrationNode@@PAXPBU_s_FuncInfo@@H@Z 10010bed f   libvcruntime:frame.obj
 0001:0000fd6f       ?_CallMemberFunction1@@YGXQAX00@Z 10010d6f f i libvcruntime:frame.obj
 0001:0000fd7f       ?_CallMemberFunction2@@YGXQAX00H@Z 10010d7f f i libvcruntime:frame.obj
 0001:0000fd92       ?getESTypes@__FrameHandler3@@SAPBU_s_ESTypeList@@PBU_s_FuncInfo@@@Z 10010d92 f i libvcruntime:frame.obj
 0001:0000fda0       __CallSettingFrame@12      10010da0 f   libvcruntime:lowhelpr.obj
 0001:0000fdc7       __NLG_Return               10010dc7     libvcruntime:lowhelpr.obj
 0001:0000fdf0       __global_unwind2           10010df0 f   libvcruntime:exsup.obj
 0001:0000fe56       __local_unwind2            10010e56 f   libvcruntime:exsup.obj
 0001:0000feda       __abnormal_termination     10010eda f   libvcruntime:exsup.obj
 0001:0000ff00       __NLG_Notify1              10010f00 f   libvcruntime:exsup.obj
 0001:0000ff0c       __NLG_Notify               10010f0c f   libvcruntime:exsup.obj
 0001:0000ff23       __NLG_Dispatch2            10010f23     libvcruntime:exsup.obj
 0001:0000ff23       __NLG_Dispatch             10010f23     libvcruntime:exsup.obj
 0001:0000ff2b       __NLG_Call                 10010f2b f   libvcruntime:exsup.obj
 0001:0000ff2d       __NLG_Return2              10010f2d     libvcruntime:exsup.obj
 0001:00010023       ___vcrt_FlsAlloc           10011023 f   libvcruntime:winapi_downlevel.obj
 0001:0001005e       ___vcrt_FlsFree            1001105e f   libvcruntime:winapi_downlevel.obj
 0001:00010099       ___vcrt_FlsGetValue        10011099 f   libvcruntime:winapi_downlevel.obj
 0001:000100d4       ___vcrt_FlsSetValue        100110d4 f   libvcruntime:winapi_downlevel.obj
 0001:00010112       ___vcrt_InitializeCriticalSectionEx 10011112 f   libvcruntime:winapi_downlevel.obj
 0001:00010159       _unexpected                10011159 f   libvcruntime:unexpected.obj
 0001:00010176       ?GetCurrentState@__FrameHandler3@@SAHPAUEHRegistrationNode@@PAXPBU_s_FuncInfo@@@Z 10011176 f   libvcruntime:ehstate.obj
 0001:00010193       ?SetState@__FrameHandler3@@SAXPAUEHRegistrationNode@@PBU_s_FuncInfo@@H@Z 10011193 f   libvcruntime:ehstate.obj
 0001:000101a1       ___DestructExceptionObject 100111a1 f   libvcruntime:ehhelpers.obj
 0001:00010241       ?_CallMemberFunction0@@YGXQAX0@Z 10011241 f i libvcruntime:ehhelpers.obj
 0001:0001024e       __IsExceptionObjectToBeDestroyed 1001124e f   libvcruntime:ehhelpers.obj
 0001:00010274       ___AdjustPointer           10011274 f   libvcruntime:ehhelpers.obj
 0001:00010299       ___FrameUnwindFilter       10011299 f   libvcruntime:ehhelpers.obj
 0001:000102de       _free                      100112de f   libucrt:free.obj
 0001:000102f9       ___acrt_call_reportfault   100112f9 f   libucrt:invalid_parameter.obj
 0001:00010432       ___acrt_initialize_invalid_parameter_handler 10011432 f   libucrt:invalid_parameter.obj
 0001:00010441       __invalid_parameter        10011441 f   libucrt:invalid_parameter.obj
 0001:000104a5       __invalid_parameter_noinfo 100114a5 f   libucrt:invalid_parameter.obj
 0001:000104b5       __invoke_watson            100114b5 f   libucrt:invalid_parameter.obj
 0001:000104e9       ___acrt_errno_from_os_error 100114e9 f   libucrt:errno.obj
 0001:0001052c       ___acrt_errno_map_os_error 1001152c f   libucrt:errno.obj
 0001:0001054f       ___doserrno                1001154f f   libucrt:errno.obj
 0001:00010562       __errno                    10011562 f   libucrt:errno.obj
 0001:00010575       _calloc                    10011575 f   libucrt:calloc.obj
 0001:00010580       _malloc                    10011580 f   libucrt:malloc.obj
 0001:0001058b       __recalloc                 1001158b f   libucrt:recalloc.obj
 0001:00010596       __recalloc_base            10011596 f   libucrt:recalloc.obj
 0001:00010603       __resetstkoflw             10011603 f   libucrt:resetstk.obj
 0001:000106c8       _wcscat_s                  100116c8 f   libucrt:wcscat_s.obj
 0001:0001073d       _wcscpy_s                  1001173d f   libucrt:wcscpy_s.obj
 0001:0001086c       _wcsncpy_s                 1001186c f   libucrt:wcsncpy_s.obj
 0001:00010a78       ??$count@D@formatting_buffer@__crt_stdio_output@@QBEIXZ 10011a78 f i libucrt:output.obj
 0001:00010a90       ??$count@_W@formatting_buffer@__crt_stdio_output@@QBEIXZ 10011a90 f i libucrt:output.obj
 0001:00010aa9       ??$ensure_buffer_is_big_enough@D@formatting_buffer@__crt_stdio_output@@QAE_NI@Z 10011aa9 f i libucrt:output.obj
 0001:00010b26       ??$ensure_buffer_is_big_enough@_W@formatting_buffer@__crt_stdio_output@@QAE_NI@Z 10011b26 f i libucrt:output.obj
 0001:00010ba4       ??$is_wide_character_specifier@_W@__crt_stdio_output@@YA_N_K_WW4length_modifier@0@@Z 10011ba4 f i libucrt:output.obj
 0001:00010bf2       ??$scratch_data@D@formatting_buffer@__crt_stdio_output@@QAEPADXZ 10011bf2 f i libucrt:output.obj
 0001:00010c10       ??$type_case_integer_parse_into_buffer@I@?$output_processor@_WV?$string_output_adapter@_W@__crt_stdio_output@@V?$format_validation_base@_WV?$string_output_adapter@_W@__crt_stdio_output@@@2@@__crt_stdio_output@@AAEXII_N@Z 10011c10 f i libucrt:output.obj
 0001:00010c97       ??$type_case_integer_parse_into_buffer@_K@?$output_processor@_WV?$string_output_adapter@_W@__crt_stdio_output@@V?$format_validation_base@_WV?$string_output_adapter@_W@__crt_stdio_output@@@2@@__crt_stdio_output@@AAEX_KI_N@Z 10011c97 f i libucrt:output.obj
 0001:00010d39       ??$write_multiple_characters@V?$string_output_adapter@_W@__crt_stdio_output@@D@__crt_stdio_output@@YAXABV?$string_output_adapter@_W@0@DHQAH@Z 10011d39 f i libucrt:output.obj
 0001:00010d6a       ??0?$common_data@_W@__crt_stdio_output@@IAE@XZ 10011d6a f i libucrt:output.obj
 0001:00010db4       ??0?$output_adapter_data@_WV?$string_output_adapter@_W@__crt_stdio_output@@@__crt_stdio_output@@IAE@ABV?$string_output_adapter@_W@1@_KQB_WQAU__crt_locale_pointers@@QAD@Z 10011db4 f i libucrt:output.obj
 0001:00010df0       ??0_LocaleUpdate@@QAE@QAU__crt_locale_pointers@@@Z 10011df0 f i libucrt:output.obj
 0001:00010e73       ??1formatting_buffer@__crt_stdio_output@@QAE@XZ 10011e73 f i libucrt:output.obj
 0001:00010e8d       ??4?$__crt_unique_heap_ptr@DU__crt_internal_free_policy@@@@QAEAAV0@$$QAV0@@Z 10011e8d f i libucrt:output.obj
 0001:00010eb1       ?crop_zeroes@__crt_stdio_output@@YAXPADQAU__crt_locale_pointers@@@Z 10011eb1 f i libucrt:output.obj
 0001:00010f11       ?find_next_state@?$output_processor@_WV?$string_output_adapter@_W@__crt_stdio_output@@V?$format_validation_base@_WV?$string_output_adapter@_W@__crt_stdio_output@@@2@@__crt_stdio_output@@ABE?AW4state@2@_WW432@@Z 10011f11 f i libucrt:output.obj
 0001:00010f53       ?force_decimal_point@__crt_stdio_output@@YAXPADQAU__crt_locale_pointers@@@Z 10011f53 f i libucrt:output.obj
 0001:00010faf       ?parse_int_from_format_string@?$output_processor@_WV?$string_output_adapter@_W@__crt_stdio_output@@V?$format_validation_base@_WV?$string_output_adapter@_W@__crt_stdio_output@@@2@@__crt_stdio_output@@AAE_NQAH@Z 10011faf f i libucrt:output.obj
 0001:00011025       ?process@?$output_processor@_WV?$string_output_adapter@_W@__crt_stdio_output@@V?$format_validation_base@_WV?$string_output_adapter@_W@__crt_stdio_output@@@2@@__crt_stdio_output@@QAEHXZ 10012025 f i libucrt:output.obj
 0001:0001114d       ?state_case_flag@?$output_processor@_WV?$string_output_adapter@_W@__crt_stdio_output@@V?$format_validation_base@_WV?$string_output_adapter@_W@__crt_stdio_output@@@2@@__crt_stdio_output@@AAE_NXZ 1001214d f i libucrt:output.obj
 0001:0001118a       ?state_case_normal@?$output_processor@_WV?$string_output_adapter@_W@__crt_stdio_output@@V?$format_validation_base@_WV?$string_output_adapter@_W@__crt_stdio_output@@@2@@__crt_stdio_output@@AAE_NXZ 1001218a f i libucrt:output.obj
 0001:000111a9       ?state_case_normal_common@?$output_processor@_WV?$string_output_adapter@_W@__crt_stdio_output@@V?$format_validation_base@_WV?$string_output_adapter@_W@__crt_stdio_output@@@2@@__crt_stdio_output@@AAE_NXZ 100121a9 f i libucrt:output.obj
 0001:000111c4       ?state_case_precision@?$output_processor@_WV?$string_output_adapter@_W@__crt_stdio_output@@V?$format_validation_base@_WV?$string_output_adapter@_W@__crt_stdio_output@@@2@@__crt_stdio_output@@AAE_NXZ 100121c4 f i libucrt:output.obj
 0001:000111eb       ?state_case_size@?$output_processor@_WV?$string_output_adapter@_W@__crt_stdio_output@@V?$format_validation_base@_WV?$string_output_adapter@_W@__crt_stdio_output@@@2@@__crt_stdio_output@@AAE_NXZ 100121eb f i libucrt:output.obj
 0001:00011363       ?state_case_type@?$output_processor@_WV?$string_output_adapter@_W@__crt_stdio_output@@V?$format_validation_base@_WV?$string_output_adapter@_W@__crt_stdio_output@@@2@@__crt_stdio_output@@AAE_NXZ 10012363 f i libucrt:output.obj
 0001:000115c8       ?state_case_width@?$output_processor@_WV?$string_output_adapter@_W@__crt_stdio_output@@V?$format_validation_base@_WV?$string_output_adapter@_W@__crt_stdio_output@@@2@@__crt_stdio_output@@AAE_NXZ 100125c8 f i libucrt:output.obj
 0001:000115f4       ?to_integer_size@__crt_stdio_output@@YAIW4length_modifier@1@@Z 100125f4 f i libucrt:output.obj
 0001:00011648       ?type_case_Z@?$output_processor@_WV?$string_output_adapter@_W@__crt_stdio_output@@V?$format_validation_base@_WV?$string_output_adapter@_W@__crt_stdio_output@@@2@@__crt_stdio_output@@AAE_NXZ 10012648 f i libucrt:output.obj
 0001:000116a2       ?type_case_a@?$output_processor@_WV?$string_output_adapter@_W@__crt_stdio_output@@V?$format_validation_base@_WV?$string_output_adapter@_W@__crt_stdio_output@@@2@@__crt_stdio_output@@AAE_NXZ 100126a2 f i libucrt:output.obj
 0001:00011807       ?type_case_c_tchar@?$output_processor@_WV?$string_output_adapter@_W@__crt_stdio_output@@V?$format_validation_base@_WV?$string_output_adapter@_W@__crt_stdio_output@@@2@@__crt_stdio_output@@AAE_N_W@Z 10012807 f i libucrt:output.obj
 0001:0001189d       ?type_case_integer@?$output_processor@_WV?$string_output_adapter@_W@__crt_stdio_output@@V?$format_validation_base@_WV?$string_output_adapter@_W@__crt_stdio_output@@@2@@__crt_stdio_output@@AAE_NI_N@Z 1001289d f i libucrt:output.obj
 0001:000119f2       ?type_case_n@?$output_processor@_WV?$string_output_adapter@_W@__crt_stdio_output@@V?$format_validation_base@_WV?$string_output_adapter@_W@__crt_stdio_output@@@2@@__crt_stdio_output@@AAE_NXZ 100129f2 f i libucrt:output.obj
 0001:00011a66       ?type_case_o@?$output_processor@_WV?$string_output_adapter@_W@__crt_stdio_output@@V?$format_validation_base@_WV?$string_output_adapter@_W@__crt_stdio_output@@@2@@__crt_stdio_output@@AAE_NXZ 10012a66 f i libucrt:output.obj
 0001:00011a85       ?type_case_p@?$output_processor@_WV?$string_output_adapter@_W@__crt_stdio_output@@V?$format_validation_base@_WV?$string_output_adapter@_W@__crt_stdio_output@@@2@@__crt_stdio_output@@AAE_NXZ 10012a85 f i libucrt:output.obj
 0001:00011a9d       ?type_case_s@?$output_processor@_WV?$string_output_adapter@_W@__crt_stdio_output@@V?$format_validation_base@_WV?$string_output_adapter@_W@__crt_stdio_output@@@2@@__crt_stdio_output@@AAE_NXZ 10012a9d f i libucrt:output.obj
 0001:00011b10       ?type_case_s_compute_narrow_string_length@?$output_processor@_WV?$string_output_adapter@_W@__crt_stdio_output@@V?$format_validation_base@_WV?$string_output_adapter@_W@__crt_stdio_output@@@2@@__crt_stdio_output@@ABEHH_W@Z 10012b10 f i libucrt:output.obj
 0001:00011b57       ?validate@?$c_string_character_source@_W@__crt_strtox@@QBE_NXZ 10012b57 f i libucrt:atox.obj
 0001:00011b57       ?validate@?$string_output_adapter@_W@__crt_stdio_output@@QBE_NXZ 10012b57 f i libucrt:output.obj
 0001:00011b72       ?validate_and_update_state_at_end_of_format_string@?$format_validation_base@_WV?$string_output_adapter@_W@__crt_stdio_output@@@__crt_stdio_output@@IBE_NXZ 10012b72 f i libucrt:output.obj
 0001:00011b94       ?write_character@?$string_output_adapter@_W@__crt_stdio_output@@QBE_N_WQAH@Z 10012b94 f i libucrt:output.obj
 0001:00011bd9       ?write_stored_string_tchar@?$output_processor@_WV?$string_output_adapter@_W@__crt_stdio_output@@V?$format_validation_base@_WV?$string_output_adapter@_W@__crt_stdio_output@@@2@@__crt_stdio_output@@AAE_N_W@Z 10012bd9 f i libucrt:output.obj
 0001:00011c6c       ?write_string@?$string_output_adapter@_W@__crt_stdio_output@@QBEXQB_WHQAHAAV__crt_deferred_errno_cache@@@Z 10012c6c f i libucrt:output.obj
 0001:00011cdd       ___acrt_locale_get_ctype_array_value 10012cdd f i libucrt:output.obj
 0001:00011cff       ___stdio_common_vswprintf_s 10012cff f   libucrt:output.obj
 0001:00011d23       __seh_filter_dll           10012d23 f   libucrt:exception_filter.obj
 0001:00011d43       __seh_filter_exe           10012d43 f   libucrt:exception_filter.obj
 0001:00012111       ___acrt_initialize_thread_local_exit_callback 10013111 f   libucrt:exit.obj
 0001:00012120       __cexit                    10013120 f   libucrt:exit.obj
 0001:0001212f       __exit                     1001312f f   libucrt:exit.obj
 0001:00012145       __is_c_termination_complete 10013145 f   libucrt:exit.obj
 0001:000123f9       ___acrt_allocate_buffer_for_argv 100133f9 f   libucrt:argv_parsing.obj
 0001:00012448       __configure_narrow_argv    10013448 f   libucrt:argv_parsing.obj
 0001:000125a5       ??$uninitialize@A6AXAAPAPAD@Z@?$dual_state_global@PAPAD@__crt_state_management@@QAEXA6AXAAPAPAD@Z@Z 100135a5 f i libucrt:environment_initialization.obj
 0001:000125a5       ??$uninitialize@A6AXAAPAPA_W@Z@?$dual_state_global@PAPA_W@__crt_state_management@@QAEXA6AXAAPAPA_W@Z@Z 100135a5 f i libucrt:environment_initialization.obj
 0001:00012604       ___dcrt_uninitialize_environments_nolock 10013604 f   libucrt:environment_initialization.obj
 0001:0001263b       __initialize_narrow_environment 1001363b f   libucrt:environment_initialization.obj
 0001:000126f6       ??$__crt_fast_encode_pointer@P6AHXZ@@YAP6AHXZQ6AHXZ@Z 100136f6 f i libucrt:onexit.obj
 0001:000126f6       ??$__crt_fast_encode_pointer@PAP6AXXZ@@YAPAP6AXXZQAP6AXXZ@Z 100136f6 f i libucrt:onexit.obj
 0001:000126f6       ??$__crt_fast_encode_pointer@PAX@@YAPAXQAX@Z 100136f6 f i libucrt:initialization.obj
 0001:00012918       __crt_atexit               10013918 f   libucrt:onexit.obj
 0001:0001292e       __execute_onexit_table     1001392e f   libucrt:onexit.obj
 0001:0001295b       __initialize_onexit_table  1001395b f   libucrt:onexit.obj
 0001:00012984       __register_onexit_function 10013984 f   libucrt:onexit.obj
 0001:000129b7       ___acrt_uninitialize_command_line 100139b7 f   libucrt:argv_data.obj
 0001:00012ab5       ___acrt_initialize         10013ab5 f   libucrt:initialization.obj
 0001:00012ac7       ___acrt_thread_attach      10013ac7 f   libucrt:initialization.obj
 0001:00012ad2       ___acrt_thread_detach      10013ad2 f   libucrt:initialization.obj
 0001:00012ada       ___acrt_uninitialize       10013ada f   libucrt:initialization.obj
 0001:00012b0a       ___acrt_uninitialize_critical 10013b0a f   libucrt:initialization.obj
 0001:00012b1c       __initterm                 10013b1c f   libucrt:initterm.obj
 0001:00012b61       __initterm_e               10013b61 f   libucrt:initterm.obj
 0001:00012b8f       ___acrt_initialize_new_handler 10013b8f f   libucrt:new_handler.obj
 0001:00012b9e       __callnewh                 10013b9e f   libucrt:new_handler.obj
 0001:00012bcb       __query_new_handler        10013bcb f   libucrt:new_handler.obj
 0001:00012c27       _terminate                 10013c27 f   libucrt:terminate.obj
 0001:00012c63       _abort                     10013c63 f   libucrt:abort.obj
 0001:00012ca7       _strcpy_s                  10013ca7 f   libucrt:strcpy_s.obj
 0001:00012d01       ??$is_overflow_condition@K@__crt_strtox@@YA_NIK@Z 10013d01 f i libucrt:atox.obj
 0001:00012d32       ??$parse_integer@KV?$c_string_character_source@_W@__crt_strtox@@@__crt_strtox@@YAKQAU__crt_locale_pointers@@V?$c_string_character_source@_W@0@H_N@Z 10013d32 f i libucrt:atox.obj
 0001:0001333a       ?unget@?$c_string_character_source@_W@__crt_strtox@@QAEX_W@Z 1001433a f i libucrt:atox.obj
 0001:00013370       _strncmp                   10014370 f   libucrt:strncmp.obj
 0001:000133e8       _wcsncmp                   100143e8 f   libucrt:wcsncmp.obj
 0001:00013422       __free_base                10014422 f   libucrt:free_base.obj
 0001:0001379a       ___acrt_freeptd            1001479a f   libucrt:per_thread_data.obj
 0001:000137c6       ___acrt_getptd             100147c6 f   libucrt:per_thread_data.obj
 0001:00013883       ___acrt_getptd_head        10014883 f   libucrt:per_thread_data.obj
 0001:0001391d       ___acrt_getptd_noexit      1001491d f   libucrt:per_thread_data.obj
 0001:000139d2       ___acrt_initialize_ptd     100149d2 f   libucrt:per_thread_data.obj
 0001:000139fe       ___acrt_uninitialize_ptd   100149fe f   libucrt:per_thread_data.obj
 0001:00013a18       __calloc_base              10014a18 f   libucrt:calloc_base.obj
 0001:00013a75       __malloc_base              10014a75 f   libucrt:malloc_base.obj
 0001:00013ac3       __msize_base               10014ac3 f   libucrt:msize.obj
 0001:00013af6       __realloc_base             10014af6 f   libucrt:realloc_base.obj
 0001:00013cf7       ___acrt_AppPolicyGetProcessTerminationMethodInternal@4 10014cf7 f   libucrt:winapi_thunks.obj
 0001:00013d37       ___acrt_AreFileApisANSI@0  10014d37 f   libucrt:winapi_thunks.obj
 0001:00013d56       ___acrt_FlsAlloc@4         10014d56 f   libucrt:winapi_thunks.obj
 0001:00013d95       ___acrt_FlsFree@4          10014d95 f   libucrt:winapi_thunks.obj
 0001:00013dd4       ___acrt_FlsGetValue@4      10014dd4 f   libucrt:winapi_thunks.obj
 0001:00013e13       ___acrt_FlsSetValue@8      10014e13 f   libucrt:winapi_thunks.obj
 0001:00013e55       ___acrt_InitializeCriticalSectionEx@12 10014e55 f   libucrt:winapi_thunks.obj
 0001:00013ea0       ___acrt_LCMapStringEx@36   10014ea0 f   libucrt:winapi_thunks.obj
 0001:00013efd       ___acrt_LocaleNameToLCID@8 10014efd f   libucrt:winapi_thunks.obj
 0001:00013f2e       ___acrt_SetThreadStackGuarantee@4 10014f2e f   libucrt:winapi_thunks.obj
 0001:00013f69       ___acrt_initialize_winapi_thunks 10014f69 f   libucrt:winapi_thunks.obj
 0001:00013f94       ___acrt_uninitialize_winapi_thunks 10014f94 f   libucrt:winapi_thunks.obj
 0001:00013fca       ??$make_c_string_character_source@_WPAPA_W@__crt_strtox@@YA?AV?$c_string_character_source@_W@0@QB_WQAPA_W@Z 10014fca f i libucrt:strtox.obj
 0001:00013fe5       _wcstol                    10014fe5 f   libucrt:strtox.obj
 0001:0001400f       __mbtowc_l                 1001500f f   libucrt:mbtowc.obj
 0001:00014151       _mbtowc                    10015151 f   libucrt:mbtowc.obj
 0001:0001416b       _wcsnlen                   1001516b f   libucrt:strnlen.obj
 0001:0001431b       ___acrt_update_locale_info 1001531b f   libucrt:locale_update.obj
 0001:00014348       ___acrt_update_multibyte_info 10015348 f   libucrt:locale_update.obj
 0001:00014375       ?__acrt_fp_classify@@YA?AW4__acrt_fp_class@@ABN@Z 10015375 f i libucrt:cvt.obj
 0001:00014bc0       ___acrt_fp_format          10015bc0 f   libucrt:cvt.obj
 0001:00014cfb       __fileno                   10015cfb f   libucrt:fileno.obj
 0001:00014d22       ___acrt_initialize_stdio   10015d22 f   libucrt:_file.obj
 0001:00014dea       ___acrt_uninitialize_stdio 10015dea f   libucrt:_file.obj
 0001:00014e36       __lock_file                10015e36 f   libucrt:_file.obj
 0001:00014e4a       __unlock_file              10015e4a f   libucrt:_file.obj
 0001:00014e5e       __get_printf_count_output  10015e5e f   libucrt:printf_count_output.obj
 0001:00014ee1       ___acrt_set_locale_changed 10015ee1 f   libucrt:wsetlocale.obj
 0001:00014eec       ___acrt_uninitialize_locale 10015eec f   libucrt:wsetlocale.obj
 0001:0001507d       ___acrt_initialize_lowio   1001607d f   libucrt:ioinit.obj
 0001:000150dd       ___acrt_uninitialize_lowio 100160dd f   libucrt:ioinit.obj
 0001:00015109       ___acrt_initialize_locks   10016109 f   libucrt:locks.obj
 0001:0001514a       ___acrt_lock               1001614a f   libucrt:locks.obj
 0001:00015161       ___acrt_uninitialize_locks 10016161 f   libucrt:locks.obj
 0001:00015192       ___acrt_unlock             10016192 f   libucrt:locks.obj
 0001:000151a9       ___acrt_get_process_end_policy 100161a9 f   libucrt:win_policies.obj
 0001:00015373       ??$__acrt_mbs_to_wcs_cp@U__crt_win32_buffer_internal_dynamic_resizing@@@@YAHQBDAAV?$__crt_win32_buffer@_WU__crt_win32_buffer_internal_dynamic_resizing@@@@I@Z 10016373 f i libucrt:argv_wildcards.obj
 0001:00015887       ?__acrt_get_utf8_acp_compatibility_codepage@@YAIXZ 10016887 f i libucrt:argv_wildcards.obj
 0001:000158c6       ?_deallocate@?$__crt_win32_buffer@DU__crt_win32_buffer_internal_dynamic_resizing@@@@AAEXXZ 100168c6 f i libucrt:argv_wildcards.obj
 0001:000158c6       ?_deallocate@?$__crt_win32_buffer@_WU__crt_win32_buffer_internal_dynamic_resizing@@@@AAEXXZ 100168c6 f i libucrt:argv_wildcards.obj
 0001:000158e0       ?allocate@?$__crt_win32_buffer@DU__crt_win32_buffer_internal_dynamic_resizing@@@@QAEHI@Z 100168e0 f i libucrt:argv_wildcards.obj
 0001:0001591c       ?allocate@?$__crt_win32_buffer@_WU__crt_win32_buffer_internal_dynamic_resizing@@@@QAEHI@Z 1001691c f i libucrt:argv_wildcards.obj
 0001:0001595b       ?allocate@__crt_win32_buffer_internal_dynamic_resizing@@SAHQAPAXIABV__crt_win32_buffer_empty_debug_info@@@Z 1001695b f i libucrt:argv_wildcards.obj
 0001:00015a01       ___acrt_expand_narrow_argv_wildcards 10016a01 f   libucrt:argv_wildcards.obj
 0001:00015ad3       ?allocate@?$__crt_win32_buffer@DU__crt_win32_buffer_no_resizing@@@@QAEHI@Z 10016ad3 f i libucrt:getmodulefilenamea.obj
 0001:00015afa       ?set_to_nullptr@?$__crt_win32_buffer@DU__crt_win32_buffer_no_resizing@@@@QAEXXZ 10016afa f i libucrt:getmodulefilenamea.obj
 0001:00015b0e       ___acrt_GetModuleFileNameA 10016b0e f   libucrt:getmodulefilenamea.obj
 0001:000160cd       ___acrt_initialize_multibyte 100170cd f   libucrt:mbctype.obj
 0001:00016115       ___acrt_update_thread_multibyte_data 10017115 f   libucrt:mbctype.obj
 0001:00016128       __setmbcp_nolock           10017128 f   libucrt:mbctype.obj
 0001:000163f3       __ismbblead                100173f3 f   libucrt:ismbbyte.obj
 0001:0001640b       ___acrt_initialize_command_line 1001740b f   libucrt:argv_data.obj
 0001:00016424       ___acrt_MultiByteToWideChar 10017424 f   libucrt:multibytetowidechar.obj
 0001:000164a0       ___acrt_WideCharToMultiByte 100174a0 f   libucrt:widechartomultibyte.obj
 0001:00016584       ___dcrt_get_narrow_environment_from_os 10017584 f   libucrt:get_environment_from_os.obj
 0001:00016608       ___acrt_initialize_heap    10017608 f   libucrt:heap_handle.obj
 0001:00016619       ___acrt_uninitialize_heap  10017619 f   libucrt:heap_handle.obj
 0001:00016623       ___acrt_execute_initializers 10017623 f   libucrt:shared_initialization.obj
 0001:0001668b       ___acrt_execute_uninitializers 1001768b f   libucrt:shared_initialization.obj
 0001:0001678a       ___acrt_get_sigabrt_handler 1001778a f   libucrt:signal.obj
 0001:000167b1       ___acrt_initialize_signal_handlers 100177b1 f   libucrt:signal.obj
 0001:000167cf       ___fpecode                 100177cf f   libucrt:signal.obj
 0001:000167d8       _raise                     100177d8 f   libucrt:signal.obj
 0001:000169d3       ___acrt_has_user_matherr   100179d3 f   libucrt:matherr.obj
 0001:000169eb       ___acrt_initialize_user_matherr 100179eb f   libucrt:matherr.obj
 0001:000169fa       ___acrt_invoke_user_matherr 100179fa f   libucrt:matherr.obj
 0001:00016c09       ___acrt_stdio_flush_nolock 10017c09 f   libucrt:fflush.obj
 0001:00016c6e       __fflush_nolock            10017c6e f   libucrt:fflush.obj
 0001:00016cb6       __flushall                 10017cb6 f   libucrt:fflush.obj
 0001:00016cbf       ___pctype_func             10017cbf f   libucrt:ctype.obj
 0001:00016ce3       _iswctype                  10017ce3 f   libucrt:iswctype.obj
 0001:00016d4c       ___acrt_add_locale_ref     10017d4c f   libucrt:locale_refcounting.obj
 0001:00016dc9       ___acrt_free_locale        10017dc9 f   libucrt:locale_refcounting.obj
 0001:00016f11       ___acrt_locale_add_lc_time_reference 10017f11 f   libucrt:locale_refcounting.obj
 0001:00016f3a       ___acrt_locale_free_lc_time_if_unreferenced 10017f3a f   libucrt:locale_refcounting.obj
 0001:00016f6b       ___acrt_locale_release_lc_time_reference 10017f6b f   libucrt:locale_refcounting.obj
 0001:00016f94       ___acrt_release_locale_ref 10017f94 f   libucrt:locale_refcounting.obj
 0001:00017015       ___acrt_update_thread_locale_data 10018015 f   libucrt:locale_refcounting.obj
 0001:00017096       __updatetlocinfoEx_nolock  10018096 f   libucrt:locale_refcounting.obj
 0001:000170e6       __query_new_mode           100180e6 f   libucrt:new_mode.obj
 0001:0001713d       ___acrt_DownlevelLocaleNameToLCID 1001813d f   libucrt:lcidtoname_downlevel.obj
 0001:00017169       __isleadbyte_l             10018169 f i libucrt:_wctype.obj
 0001:000171cf       ?__mbrtowc_utf8@__crt_mbstring@@YAIPA_WPBDIPAU_Mbstatet@@@Z 100181cf f   libucrt:mbrtowc.obj
 0001:0001720f       ?__mbsrtowcs_utf8@__crt_mbstring@@YAIPA_WPAPBDIPAU_Mbstatet@@@Z 1001820f f   libucrt:mbrtowc.obj
 0001:0001730a       ?return_illegal_sequence@__crt_mbstring@@YAIPAU_Mbstatet@@@Z 1001830a f i libucrt:c32rtomb.obj
 0001:00017329       ___acrt_fp_strflt_to_string 10018329 f   libucrt:_fptostr.obj
 0001:000173f0       ?divide@__crt_strtox@@YA_KAAUbig_integer@1@ABU21@@Z 100183f0 f i libucrt:cfout.obj
 0001:00017888       ___acrt_fltout             10018888 f   libucrt:cfout.obj
 0001:00018bd2       __fcloseall                10019bd2 f   libucrt:closeall.obj
 0001:00018c7d       ___acrt_stdio_free_buffer_nolock 10019c7d f   libucrt:_freebuf.obj
 0001:00018cbd       __isatty                   10019cbd f   libucrt:isatty.obj
 0001:00018d13       ___acrt_locale_free_monetary 10019d13 f   libucrt:initmon.obj
 0001:00018e11       ___acrt_locale_free_numeric 10019e11 f   libucrt:initnum.obj
 0001:00018eb2       ___acrt_locale_free_time   10019eb2 f   libucrt:inittime.obj
 0001:00018f96       ___acrt_GetStringTypeA     10019f96 f   libucrt:getstringtypea.obj
 0001:00019099       __freea_crt                1001a099 f i libucrt:getstringtypea.obj
 0001:000190b9       ___acrt_lowio_create_handle_array 1001a0b9 f   libucrt:osfinfo.obj
 0001:00019134       ___acrt_lowio_destroy_handle_array 1001a134 f   libucrt:osfinfo.obj
 0001:00019169       ___acrt_lowio_ensure_fh_exists 1001a169 f   libucrt:osfinfo.obj
 0001:00019207       ___acrt_lowio_lock_fh      1001a207 f   libucrt:osfinfo.obj
 0001:0001922a       ___acrt_lowio_unlock_fh    1001a22a f   libucrt:osfinfo.obj
 0001:0001924d       __free_osfhnd              1001a24d f   libucrt:osfinfo.obj
 0001:000192de       __get_osfhandle            1001a2de f   libucrt:osfinfo.obj
 0001:00019390       _qsort                     1001a390 f   libucrt:qsort.obj
 0001:00019887       _strncpy_s                 1001a887 f   libucrt:strncpy_s.obj
 0001:000198a0       _strpbrk                   1001a8a0 f   libucrt:strpbrk.obj
 0001:000198e0       __mbsdec                   1001a8e0 f   libucrt:mbsdec.obj
 0001:000198f7       __mbsdec_l                 1001a8f7 f   libucrt:mbsdec.obj
 0001:00019b6e       ___acrt_LCMapStringA       1001ab6e f   libucrt:lcmapstringa.obj
 0001:00019c68       __commit                   1001ac68 f   libucrt:commit.obj
 0001:0001a45e       __write                    1001b45e f   libucrt:write.obj
 0001:0001a550       __write_nolock             1001b550 f   libucrt:write.obj
 0001:0001a732       ___acrt_GetStringTypeW     1001b732 f   libucrt:getstringtypew.obj
 0001:0001a74b       ___ascii_wcsnicmp          1001b74b f   libucrt:wcsnicmp.obj
 0001:0001a79a       ?__mbrtoc32_utf8@__crt_mbstring@@YAIPA_UPBDIPAU_Mbstatet@@@Z 1001b79a f   libucrt:mbrtoc32.obj
 0001:0001a941       _fegetenv                  1001b941 f   libucrt:fegetenv.obj
 0001:0001a95e       _fesetenv                  1001b95e f   libucrt:fesetenv.obj
 0001:0001a9a9       _feholdexcept              1001b9a9 f   libucrt:feholdexcept.obj
 0001:0001aa00       __CIlog10                  1001ba00 f   libucrt:log10_impl.obj
 0001:0001aa3b       __CIlog10_default          1001ba3b f   libucrt:log10_impl.obj
 0001:0001aa4f       __log10_default            1001ba4f     libucrt:log10_impl.obj
 0001:0001ab10       _ceil                      1001bb10 f   libucrt:ceil_pentium4.obj
 0001:0001ab50       __ceil_pentium4            1001bb50 f   libucrt:ceil_pentium4.obj
 0001:0001aca9       __lseeki64_nolock          1001bca9 f   libucrt:lseek.obj
 0001:0001acc4       __fclose_nolock            1001bcc4 f   libucrt:fclose.obj
 0001:0001ad3b       _fclose                    1001bd3b f   libucrt:fclose.obj
 0001:0001adbf       __query_app_type           1001bdbf f   libucrt:report_runtime_error.obj
 0001:0001adc5       ___strncnt                 1001bdc5 f   libucrt:strncnt.obj
 0001:0001ade1       __putwch_nolock            1001bde1 f   libucrt:putwch.obj
 0001:0001b120       ___acrt_fenv_get_control   1001c120 f   libucrt:_fenvutils.obj
 0001:0001b1a0       ___acrt_fenv_get_status    1001c1a0 f   libucrt:_fenvutils.obj
 0001:0001b258       ___acrt_fenv_set_control   1001c258 f   libucrt:_fenvutils.obj
 0001:0001b2c0       ___acrt_fenv_set_status    1001c2c0 f   libucrt:_fenvutils.obj
 0001:0001b3b7       __clearfp                  1001c3b7 f   libucrt:ieee87.obj
 0001:0001b495       ___acrt_initialize_sse2    1001c495 f   libucrt:mathfcns.obj
 0001:0001b4b0       __CIlog10_pentium4         1001c4b0 f   libucrt:log10_pentium4.obj
 0001:0001b4c8       __log10_pentium4           1001c4c8     libucrt:log10_pentium4.obj
 0001:0001b760       __fFEXP                    1001c760 f   libucrt:87tran.obj
 0001:0001b7b7       __rtinfpopse               1001c7b7     libucrt:87tran.obj
 0001:0001b7b9       __rtinfnpopse              1001c7b9     libucrt:87tran.obj
 0001:0001b7c9       __fFLN                     1001c7c9     libucrt:87tran.obj
 0001:0001b87e       __rtinfpop                 1001c87e     libucrt:87tran.obj
 0001:0001b880       __rtinfnpop                1001c880     libucrt:87tran.obj
 0001:0001b890       __rtforexpinf              1001c890 f   libucrt:87tran.obj
 0001:0001b89d       __ffexpm1                  1001c89d     libucrt:87tran.obj
 0001:0001b950       __trandisp1                1001c950 f   libucrt:87disp.obj
 0001:0001b9c5       __trandisp2                1001c9c5 f   libucrt:87disp.obj
 0001:0001ba5f       __rttospopde               1001ca5f     libucrt:87disp.obj
 0001:0001ba64       __rttospop                 1001ca64     libucrt:87disp.obj
 0001:0001ba70       __rtnospop                 1001ca70 f   libucrt:87disp.obj
 0001:0001ba80       __rttosnpop                1001ca80 f   libucrt:87disp.obj
 0001:0001ba81       __rtnospopde               1001ca81     libucrt:87disp.obj
 0001:0001ba88       __rtzeropop                1001ca88     libucrt:87disp.obj
 0001:0001ba8a       __rtzeronpop               1001ca8a     libucrt:87disp.obj
 0001:0001ba90       __rtzerospop               1001ca90 f   libucrt:87disp.obj
 0001:0001ba9d       __rtonepop                 1001ca9d     libucrt:87disp.obj
 0001:0001baa0       __rtonenpop                1001caa0 f   libucrt:87disp.obj
 0001:0001bab0       __tosnan1                  1001cab0 f   libucrt:87disp.obj
 0001:0001bae0       __nosnan2                  1001cae0 f   libucrt:87disp.obj
 0001:0001baf0       __tosnan2                  1001caf0 f   libucrt:87disp.obj
 0001:0001bb20       __nan2                     1001cb20 f   libucrt:87disp.obj
 0001:0001bb60       __rtindfpop                1001cb60 f   libucrt:87disp.obj
 0001:0001bb62       __rtindfnpop               1001cb62     libucrt:87disp.obj
 0001:0001bb73       __rttosnpopde              1001cb73     libucrt:87disp.obj
 0001:0001bb80       __rtatan2inf               1001cb80 f   libucrt:87disp.obj
 0001:0001bb9d       __rtchsifneg               1001cb9d     libucrt:87disp.obj
 0001:0001bbb0       __twoToTOS                 1001cbb0 f   libucrt:common.obj
 0001:0001bbc5       __load_CW                  1001cbc5 f   libucrt:common.obj
 0001:0001bbdc       __convertTOStoQNaN         1001cbdc f   libucrt:common.obj
 0001:0001bbf5       __fload_withFB             1001cbf5 f   libucrt:common.obj
 0001:0001bc38       __checkTOS_withFB          1001cc38 f   libucrt:common.obj
 0001:0001bc4e       __fast_exit                1001cc4e f   libucrt:common.obj
 0001:0001bc5b       __math_exit                1001cc5b f   libucrt:common.obj
 0001:0001bc85       __check_overflow_exit      1001cc85 f   libucrt:common.obj
 0001:0001bc99       __check_range_exit         1001cc99 f   libucrt:common.obj
 0001:0001bd40       __startTwoArgErrorHandling 1001cd40 f   libucrt:genexcep.obj
 0001:0001bd57       __startOneArgErrorHandling 1001cd57 f   libucrt:genexcep.obj
 0001:0001bd93       ___libm_error_support      1001cd93 f   libucrt:libm_error.obj
 0001:0001bf87       __ceil_default             1001cf87 f   libucrt:ceil.obj
 0001:0001c0c8       __close                    1001d0c8 f   libucrt:close.obj
 0001:0001c155       __close_nolock             1001d155 f   libucrt:close.obj
 0001:0001c1f1       ?__acrt_stdio_free_stream@@YAXV__crt_stdio_stream@@@Z 1001d1f1 f   libucrt:stream.obj
 0001:0001c230       ___ascii_strnicmp          1001d230 f   libucrt:_strnicm.obj
 0001:0001c2b0       ___dcrt_lowio_ensure_console_output_initialized 1001d2b0 f   libucrt:initcon.obj
 0001:0001c2cf       ___dcrt_terminate_console_output 1001d2cf f   libucrt:initcon.obj
 0001:0001c2e6       ___dcrt_write_console      1001d2e6 f   libucrt:initcon.obj
 0001:0001c33b       __clrfp                    1001d33b f   libucrt:fpctrl.obj
 0001:0001c34c       __ctrlfp                   1001d34c f   libucrt:fpctrl.obj
 0001:0001c376       __set_statfp               1001d376 f   libucrt:fpctrl.obj
 0001:0001c3cf       __statfp                   1001d3cf f   libucrt:fpctrl.obj
 0001:0001c3df       __d_inttype                1001d3df f   libucrt:powhlp.obj
 0001:0001c447       __powhlp                   1001d447 f   libucrt:powhlp.obj
 0001:0001c572       __87except                 1001d572 f   libucrt:87except.obj
 0001:0001c67c       __frnd                     1001d67c f   libucrt:frnd.obj
 0001:0001c690       __errcode                  1001d690 f   libucrt:fpexcept.obj
 0001:0001c6c4       __except1                  1001d6c4 f   libucrt:fpexcept.obj
 0001:0001c792       __handle_exc               1001d792 f   libucrt:fpexcept.obj
 0001:0001c97d       __raise_exc                1001d97d f   libucrt:fpexcept.obj
 0001:0001c9a0       __raise_exc_ex             1001d9a0 f   libucrt:fpexcept.obj
 0001:0001cc96       __set_errno_from_matherr   1001dc96 f   libucrt:fpexcept.obj
 0001:0001ccc5       __umatherr                 1001dcc5 f   libucrt:fpexcept.obj
 0001:0001cd65       __decomp                   1001dd65 f   libucrt:util.obj
 0001:0001ce37       __set_exp                  1001de37 f   libucrt:util.obj
 0001:0001ce64       __sptype                   1001de64 f   libucrt:util.obj
 0001:0001cec2       __fpclass                  1001dec2 f   libucrt:ieeemisc.obj
 0001:0001cf66       _IsProcessorFeaturePresent@4 1001df66 f   kernel32:KERNEL32.dll
 0001:0001cf70       __FindPESection            1001df70 f   LIBCMT:pesect.obj
 0001:0001cfc0       __IsNonwritableInCurrentImage 1001dfc0 f   LIBCMT:pesect.obj
 0001:0001d080       __ValidateImageBase        1001e080 f   LIBCMT:pesect.obj
 0001:0001d0b3       __EH_prolog3_catch         1001e0b3 f   LIBCMT:ehprolg3.obj
 0001:0001d0f0       __aulldvrm                 1001e0f0 f   LIBCMT:ulldvrm.obj
 0001:0001d190       __allmul                   1001e190 f   LIBCMT:llmul.obj
 0001:0001d1d0       __alldvrm                  1001e1d0 f   LIBCMT:lldvrm.obj
 0001:0001d2b0       __aullshr                  1001e2b0 f   LIBCMT:ullshr.obj
 0001:0001d2d0       __allshl                   1001e2d0 f   LIBCMT:llshl.obj
 0001:0001d2f0       __ftol2_sse                1001e2f0 f   LIBCMT:ftol2.obj
 0001:0001d2f9       __ftol2_pentium4           1001e2f9 f   LIBCMT:ftol2.obj
 0001:0001d30c       __ftol2_sse_excpt          1001e30c f   LIBCMT:ftol2.obj
 0001:0001d330       __ftol2                    1001e330 f   LIBCMT:ftol2.obj
 0001:0001d3b0       _strrchr                   1001e3b0 f   libvcruntime:strrchr.obj
 0001:0001d4f0       _strchr                    1001e4f0 f   libvcruntime:strchr.obj
 0001:0001d55e       ___from_strstr_to_strchr   1001e55e     libvcruntime:strchr.obj
 0001:0001d61b       __filter_x86_sse2_floating_point_exception_default 1001e61b f   LIBCMT:x86_exception_filter.obj
 0001:0001d61b       __filter_x86_sse2_floating_point_exception 1001e61b f   LIBCMT:x86_exception_filter.obj
 0002:00000000       __imp__RegQueryValueExW@24 1001f000     advapi32:ADVAPI32.dll
 0002:00000004       __imp__RegSetValueExW@24   1001f004     advapi32:ADVAPI32.dll
 0002:00000008       __imp__RegQueryInfoKeyW@48 1001f008     advapi32:ADVAPI32.dll
 0002:0000000c       __imp__RegOpenKeyExW@20    1001f00c     advapi32:ADVAPI32.dll
 0002:00000010       __imp__RegEnumKeyExW@32    1001f010     advapi32:ADVAPI32.dll
 0002:00000014       __imp__RegDeleteValueW@8   1001f014     advapi32:ADVAPI32.dll
 0002:00000018       __imp__RegDeleteKeyW@8     1001f018     advapi32:ADVAPI32.dll
 0002:0000001c       __imp__RegCreateKeyExW@36  1001f01c     advapi32:ADVAPI32.dll
 0002:00000020       __imp__RegCloseKey@4       1001f020     advapi32:ADVAPI32.dll
 0002:00000024       \177ADVAPI32_NULL_THUNK_DATA 1001f024     advapi32:ADVAPI32.dll
 0002:00000028       __imp__GetObjectW@12       1001f028     gdi32:GDI32.dll
 0002:0000002c       __imp__SelectObject@8      1001f02c     gdi32:GDI32.dll
 0002:00000030       __imp__DeleteObject@4      1001f030     gdi32:GDI32.dll
 0002:00000034       __imp__CreateCompatibleDC@4 1001f034     gdi32:GDI32.dll
 0002:00000038       __imp__BitBlt@36           1001f038     gdi32:GDI32.dll
 0002:0000003c       __imp__SetWindowOrgEx@16   1001f03c     gdi32:GDI32.dll
 0002:00000040       __imp__SetWindowExtEx@16   1001f040     gdi32:GDI32.dll
 0002:00000044       __imp__SetViewportOrgEx@16 1001f044     gdi32:GDI32.dll
 0002:00000048       __imp__LPtoDP@12           1001f048     gdi32:GDI32.dll
 0002:0000004c       __imp__SetMapMode@8        1001f04c     gdi32:GDI32.dll
 0002:00000050       __imp__SaveDC@4            1001f050     gdi32:GDI32.dll
 0002:00000054       __imp__RestoreDC@8         1001f054     gdi32:GDI32.dll
 0002:00000058       __imp__GetDeviceCaps@8     1001f058     gdi32:GDI32.dll
 0002:0000005c       __imp__DeleteMetaFile@4    1001f05c     gdi32:GDI32.dll
 0002:00000060       __imp__DeleteDC@4          1001f060     gdi32:GDI32.dll
 0002:00000064       __imp__CreateRectRgnIndirect@4 1001f064     gdi32:GDI32.dll
 0002:00000068       __imp__CreateMetaFileW@4   1001f068     gdi32:GDI32.dll
 0002:0000006c       __imp__CreateDCW@16        1001f06c     gdi32:GDI32.dll
 0002:00000070       __imp__CloseMetaFile@4     1001f070     gdi32:GDI32.dll
 0002:00000074       \177GDI32_NULL_THUNK_DATA  1001f074     gdi32:GDI32.dll
 0002:00000078       __imp__CloseHandle@4       1001f078     kernel32:KERNEL32.dll
 0002:0000007c       __imp__SetEvent@4          1001f07c     kernel32:KERNEL32.dll
 0002:00000080       __imp__CreateMutexW@12     1001f080     kernel32:KERNEL32.dll
 0002:00000084       __imp__CreateEventW@16     1001f084     kernel32:KERNEL32.dll
 0002:00000088       __imp__GetCurrentProcessId@0 1001f088     kernel32:KERNEL32.dll
 0002:0000008c       __imp__CreateFileW@28      1001f08c     kernel32:KERNEL32.dll
 0002:00000090       __imp__GetConsoleMode@8    1001f090     kernel32:KERNEL32.dll
 0002:00000094       __imp__GetConsoleCP@0      1001f094     kernel32:KERNEL32.dll
 0002:00000098       __imp__WriteFile@20        1001f098     kernel32:KERNEL32.dll
 0002:0000009c       __imp__FlushFileBuffers@4  1001f09c     kernel32:KERNEL32.dll
 0002:000000a0       __imp__SetStdHandle@8      1001f0a0     kernel32:KERNEL32.dll
 0002:000000a4       __imp__GetStringTypeW@16   1001f0a4     kernel32:KERNEL32.dll
 0002:000000a8       __imp__SetFilePointerEx@20 1001f0a8     kernel32:KERNEL32.dll
 0002:000000ac       __imp__FreeEnvironmentStringsW@4 1001f0ac     kernel32:KERNEL32.dll
 0002:000000b0       __imp__GetEnvironmentStringsW@0 1001f0b0     kernel32:KERNEL32.dll
 0002:000000b4       __imp__lstrcmpiW@8         1001f0b4     kernel32:KERNEL32.dll
 0002:000000b8       __imp__GetCommandLineA@0   1001f0b8     kernel32:KERNEL32.dll
 0002:000000bc       __imp__GetCPInfo@8         1001f0bc     kernel32:KERNEL32.dll
 0002:000000c0       __imp__GetOEMCP@0          1001f0c0     kernel32:KERNEL32.dll
 0002:000000c4       __imp__GetACP@0            1001f0c4     kernel32:KERNEL32.dll
 0002:000000c8       __imp__IsValidCodePage@4   1001f0c8     kernel32:KERNEL32.dll
 0002:000000cc       __imp__FindNextFileW@8     1001f0cc     kernel32:KERNEL32.dll
 0002:000000d0       __imp__FindFirstFileExW@24 1001f0d0     kernel32:KERNEL32.dll
 0002:000000d4       __imp__FindClose@4         1001f0d4     kernel32:KERNEL32.dll
 0002:000000d8       __imp__GetFileType@4       1001f0d8     kernel32:KERNEL32.dll
 0002:000000dc       __imp__GetStdHandle@4      1001f0dc     kernel32:KERNEL32.dll
 0002:000000e0       __imp__LCMapStringW@24     1001f0e0     kernel32:KERNEL32.dll
 0002:000000e4       __imp__HeapReAlloc@16      1001f0e4     kernel32:KERNEL32.dll
 0002:000000e8       __imp__HeapSize@12         1001f0e8     kernel32:KERNEL32.dll
 0002:000000ec       __imp__MulDiv@12           1001f0ec     kernel32:KERNEL32.dll
 0002:000000f0       __imp__GlobalLock@4        1001f0f0     kernel32:KERNEL32.dll
 0002:000000f4       __imp__GlobalUnlock@4      1001f0f4     kernel32:KERNEL32.dll
 0002:000000f8       __imp__GlobalAlloc@8       1001f0f8     kernel32:KERNEL32.dll
 0002:000000fc       __imp__FindResourceW@12    1001f0fc     kernel32:KERNEL32.dll
 0002:00000100       __imp__SizeofResource@8    1001f100     kernel32:KERNEL32.dll
 0002:00000104       __imp__LoadResource@8      1001f104     kernel32:KERNEL32.dll
 0002:00000108       __imp__LoadLibraryExW@12   1001f108     kernel32:KERNEL32.dll
 0002:0000010c       __imp__GetProcAddress@8    1001f10c     kernel32:KERNEL32.dll
 0002:00000110       __imp__GetModuleHandleW@4  1001f110     kernel32:KERNEL32.dll
 0002:00000114       __imp__GetModuleFileNameW@12 1001f114     kernel32:KERNEL32.dll
 0002:00000118       __imp__FreeLibrary@4       1001f118     kernel32:KERNEL32.dll
 0002:0000011c       __imp__DisableThreadLibraryCalls@4 1001f11c     kernel32:KERNEL32.dll
 0002:00000120       __imp__GetCurrentThreadId@0 1001f120     kernel32:KERNEL32.dll
 0002:00000124       __imp__Sleep@4             1001f124     kernel32:KERNEL32.dll
 0002:00000128       __imp__WaitForSingleObject@8 1001f128     kernel32:KERNEL32.dll
 0002:0000012c       __imp__ReleaseMutex@4      1001f12c     kernel32:KERNEL32.dll
 0002:00000130       __imp__ResetEvent@4        1001f130     kernel32:KERNEL32.dll
 0002:00000134       __imp__EnterCriticalSection@4 1001f134     kernel32:KERNEL32.dll
 0002:00000138       __imp__LeaveCriticalSection@4 1001f138     kernel32:KERNEL32.dll
 0002:0000013c       __imp__SetLastError@4      1001f13c     kernel32:KERNEL32.dll
 0002:00000140       __imp__EncodePointer@4     1001f140     kernel32:KERNEL32.dll
 0002:00000144       __imp__DeleteCriticalSection@4 1001f144     kernel32:KERNEL32.dll
 0002:00000148       __imp__InitializeCriticalSectionEx@12 1001f148     kernel32:KERNEL32.dll
 0002:0000014c       __imp__GetLastError@0      1001f14c     kernel32:KERNEL32.dll
 0002:00000150       __imp__RaiseException@16   1001f150     kernel32:KERNEL32.dll
 0002:00000154       __imp__DecodePointer@4     1001f154     kernel32:KERNEL32.dll
 0002:00000158       __imp__WideCharToMultiByte@32 1001f158     kernel32:KERNEL32.dll
 0002:0000015c       __imp__GetCommandLineW@0   1001f15c     kernel32:KERNEL32.dll
 0002:00000160       __imp__MultiByteToWideChar@24 1001f160     kernel32:KERNEL32.dll
 0002:00000164       __imp__WriteConsoleW@20    1001f164     kernel32:KERNEL32.dll
 0002:00000168       __imp__GetModuleHandleExW@12 1001f168     kernel32:KERNEL32.dll
 0002:0000016c       __imp__ExitProcess@4       1001f16c     kernel32:KERNEL32.dll
 0002:00000170       __imp__VirtualQuery@12     1001f170     kernel32:KERNEL32.dll
 0002:00000174       __imp__VirtualProtect@16   1001f174     kernel32:KERNEL32.dll
 0002:00000178       __imp__GetSystemInfo@4     1001f178     kernel32:KERNEL32.dll
 0002:0000017c       __imp__TlsFree@4           1001f17c     kernel32:KERNEL32.dll
 0002:00000180       __imp__TlsSetValue@8       1001f180     kernel32:KERNEL32.dll
 0002:00000184       __imp__TlsGetValue@4       1001f184     kernel32:KERNEL32.dll
 0002:00000188       __imp__TlsAlloc@0          1001f188     kernel32:KERNEL32.dll
 0002:0000018c       __imp__InterlockedFlushSList@4 1001f18c     kernel32:KERNEL32.dll
 0002:00000190       __imp__RtlUnwind@16        1001f190     kernel32:KERNEL32.dll
 0002:00000194       __imp__LoadLibraryExA@12   1001f194     kernel32:KERNEL32.dll
 0002:00000198       __imp__VirtualFree@12      1001f198     kernel32:KERNEL32.dll
 0002:0000019c       __imp__VirtualAlloc@16     1001f19c     kernel32:KERNEL32.dll
 0002:000001a0       __imp__FlushInstructionCache@12 1001f1a0     kernel32:KERNEL32.dll
 0002:000001a4       __imp__InterlockedPushEntrySList@8 1001f1a4     kernel32:KERNEL32.dll
 0002:000001a8       __imp__InterlockedPopEntrySList@4 1001f1a8     kernel32:KERNEL32.dll
 0002:000001ac       __imp__GetProcessHeap@0    1001f1ac     kernel32:KERNEL32.dll
 0002:000001b0       __imp__HeapFree@12         1001f1b0     kernel32:KERNEL32.dll
 0002:000001b4       __imp__HeapAlloc@12        1001f1b4     kernel32:KERNEL32.dll
 0002:000001b8       __imp__OutputDebugStringW@4 1001f1b8     kernel32:KERNEL32.dll
 0002:000001bc       __imp__InitializeSListHead@4 1001f1bc     kernel32:KERNEL32.dll
 0002:000001c0       __imp__GetSystemTimeAsFileTime@4 1001f1c0     kernel32:KERNEL32.dll
 0002:000001c4       __imp__QueryPerformanceCounter@4 1001f1c4     kernel32:KERNEL32.dll
 0002:000001c8       __imp__GetStartupInfoW@4   1001f1c8     kernel32:KERNEL32.dll
 0002:000001cc       __imp__IsDebuggerPresent@0 1001f1cc     kernel32:KERNEL32.dll
 0002:000001d0       __imp__IsProcessorFeaturePresent@4 1001f1d0     kernel32:KERNEL32.dll
 0002:000001d4       __imp__TerminateProcess@8  1001f1d4     kernel32:KERNEL32.dll
 0002:000001d8       __imp__GetCurrentProcess@0 1001f1d8     kernel32:KERNEL32.dll
 0002:000001dc       __imp__SetUnhandledExceptionFilter@4 1001f1dc     kernel32:KERNEL32.dll
 0002:000001e0       __imp__UnhandledExceptionFilter@4 1001f1e0     kernel32:KERNEL32.dll
 0002:000001e4       __imp__InitializeCriticalSectionAndSpinCount@8 1001f1e4     kernel32:KERNEL32.dll
 0002:000001e8       __imp__WaitForSingleObjectEx@12 1001f1e8     kernel32:KERNEL32.dll
 0002:000001ec       \177KERNEL32_NULL_THUNK_DATA 1001f1ec     kernel32:KERNEL32.dll
 0002:000001f0       __imp__OleCreatePropertyFrame@44 1001f1f0     oleaut32:OLEAUT32.dll
 0002:000001f4       __imp__UnRegisterTypeLib@20 1001f1f4     oleaut32:OLEAUT32.dll
 0002:000001f8       __imp__RegisterTypeLib@12  1001f1f8     oleaut32:OLEAUT32.dll
 0002:000001fc       __imp__LoadRegTypeLib@20   1001f1fc     oleaut32:OLEAUT32.dll
 0002:00000200       __imp__LoadTypeLib@8       1001f200     oleaut32:OLEAUT32.dll
 0002:00000204       __imp__VarUI4FromStr@16    1001f204     oleaut32:OLEAUT32.dll
 0002:00000208       __imp__VariantInit@4       1001f208     oleaut32:OLEAUT32.dll
 0002:0000020c       __imp__SysAllocStringByteLen@8 1001f20c     oleaut32:OLEAUT32.dll
 0002:00000210       __imp__SysStringByteLen@4  1001f210     oleaut32:OLEAUT32.dll
 0002:00000214       __imp__VariantChangeType@16 1001f214     oleaut32:OLEAUT32.dll
 0002:00000218       __imp__VariantClear@4      1001f218     oleaut32:OLEAUT32.dll
 0002:0000021c       __imp__SysStringLen@4      1001f21c     oleaut32:OLEAUT32.dll
 0002:00000220       __imp__SysFreeString@4     1001f220     oleaut32:OLEAUT32.dll
 0002:00000224       __imp__SysAllocStringLen@8 1001f224     oleaut32:OLEAUT32.dll
 0002:00000228       __imp__SysAllocString@4    1001f228     oleaut32:OLEAUT32.dll
 0002:0000022c       \177OLEAUT32_NULL_THUNK_DATA 1001f22c     oleaut32:OLEAUT32.dll
 0002:00000230       __imp__UnregisterClassW@8  1001f230     user32:USER32.dll
 0002:00000234       __imp__PostMessageW@16     1001f234     user32:USER32.dll
 0002:00000238       __imp__DefWindowProcW@16   1001f238     user32:USER32.dll
 0002:0000023c       __imp__CallWindowProcW@20  1001f23c     user32:USER32.dll
 0002:00000240       __imp__RegisterClassExW@4  1001f240     user32:USER32.dll
 0002:00000244       __imp__GetClassInfoExW@12  1001f244     user32:USER32.dll
 0002:00000248       __imp__CreateWindowExW@48  1001f248     user32:USER32.dll
 0002:0000024c       __imp__IsWindow@4          1001f24c     user32:USER32.dll
 0002:00000250       __imp__IsChild@8           1001f250     user32:USER32.dll
 0002:00000254       __imp__DestroyWindow@4     1001f254     user32:USER32.dll
 0002:00000258       __imp__ShowWindow@8        1001f258     user32:USER32.dll
 0002:0000025c       __imp__SetWindowPos@28     1001f25c     user32:USER32.dll
 0002:00000260       __imp__CharNextW@4         1001f260     user32:USER32.dll
 0002:00000264       __imp__SetFocus@4          1001f264     user32:USER32.dll
 0002:00000268       __imp__LoadBitmapW@8       1001f268     user32:USER32.dll
 0002:0000026c       __imp__RegisterClassW@4    1001f26c     user32:USER32.dll
 0002:00000270       __imp__PeekMessageW@20     1001f270     user32:USER32.dll
 0002:00000274       __imp__LoadCursorW@8       1001f274     user32:USER32.dll
 0002:00000278       __imp__GetParent@4         1001f278     user32:USER32.dll
 0002:0000027c       __imp__SetWindowLongW@12   1001f27c     user32:USER32.dll
 0002:00000280       __imp__GetWindowLongW@8    1001f280     user32:USER32.dll
 0002:00000284       __imp__PtInRect@12         1001f284     user32:USER32.dll
 0002:00000288       __imp__EqualRect@8         1001f288     user32:USER32.dll
 0002:0000028c       __imp__OffsetRect@12       1001f28c     user32:USER32.dll
 0002:00000290       __imp__UnionRect@12        1001f290     user32:USER32.dll
 0002:00000294       __imp__IntersectRect@12    1001f294     user32:USER32.dll
 0002:00000298       __imp__GetClientRect@8     1001f298     user32:USER32.dll
 0002:0000029c       __imp__InvalidateRect@12   1001f29c     user32:USER32.dll
 0002:000002a0       __imp__SetWindowRgn@12     1001f2a0     user32:USER32.dll
 0002:000002a4       __imp__EndPaint@8          1001f2a4     user32:USER32.dll
 0002:000002a8       __imp__BeginPaint@8        1001f2a8     user32:USER32.dll
 0002:000002ac       __imp__ReleaseDC@8         1001f2ac     user32:USER32.dll
 0002:000002b0       __imp__GetDC@4             1001f2b0     user32:USER32.dll
 0002:000002b4       __imp__GetKeyState@4       1001f2b4     user32:USER32.dll
 0002:000002b8       __imp__GetFocus@0          1001f2b8     user32:USER32.dll
 0002:000002bc       \177USER32_NULL_THUNK_DATA 1001f2bc     user32:USER32.dll
 0002:000002c0       __imp__StringFromGUID2@12  1001f2c0     ole32:ole32.dll
 0002:000002c4       __imp__CoTaskMemAlloc@4    1001f2c4     ole32:ole32.dll
 0002:000002c8       __imp__CoTaskMemRealloc@8  1001f2c8     ole32:ole32.dll
 0002:000002cc       __imp__CoTaskMemFree@4     1001f2cc     ole32:ole32.dll
 0002:000002d0       __imp__ReadClassStm@8      1001f2d0     ole32:ole32.dll
 0002:000002d4       __imp__WriteClassStm@8     1001f2d4     ole32:ole32.dll
 0002:000002d8       __imp__CreateDataAdviseHolder@4 1001f2d8     ole32:ole32.dll
 0002:000002dc       __imp__OleSaveToStream@8   1001f2dc     ole32:ole32.dll
 0002:000002e0       __imp__CreateOleAdviseHolder@4 1001f2e0     ole32:ole32.dll
 0002:000002e4       __imp__OleRegGetUserType@12 1001f2e4     ole32:ole32.dll
 0002:000002e8       __imp__OleRegGetMiscStatus@12 1001f2e8     ole32:ole32.dll
 0002:000002ec       __imp__OleRegEnumVerbs@8   1001f2ec     ole32:ole32.dll
 0002:000002f0       __imp__CLSIDFromProgID@8   1001f2f0     ole32:ole32.dll
 0002:000002f4       __imp__CoCreateInstance@20 1001f2f4     ole32:ole32.dll
 0002:000002f8       \177ole32_NULL_THUNK_DATA  1001f2f8     ole32:ole32.dll
 0002:000002fc       ___guard_check_icall_fptr  1001f2fc     LIBCMT:guard_support.obj
 0002:00000300       ___xc_a                    1001f300     LIBCMT:initializers.obj
 0002:00000318       ___xc_z                    1001f318     LIBCMT:initializers.obj
 0002:0000031c       ___xi_a                    1001f31c     LIBCMT:initializers.obj
 0002:00000324       ___acrt_stdio_initializer  1001f324     libucrt:stdio_initializer.obj
 0002:00000328       ___acrt_multibyte_initializer 1001f328     libucrt:multibyte_initializer.obj
 0002:0000032c       ___acrt_tran_sse2_initializer 1001f32c     libucrt:sse2_initializer.obj
 0002:00000330       ___xi_z                    1001f330     LIBCMT:initializers.obj
 0002:00000334       ___xl_a                    1001f334     LIBCMT:tlssup.obj
 0002:00000338       ___xl_z                    1001f338     LIBCMT:tlssup.obj
 0002:0000033c       ___xp_a                    1001f33c     LIBCMT:initializers.obj
 0002:00000340       ___acrt_locale_terminator  1001f340     libucrt:locale_initializer.obj
 0002:00000344       ___dcrt_console_output_terminator 1001f344     libucrt:console_output_initializer.obj
 0002:00000348       ___acrt_stdio_terminator   1001f348     libucrt:stdio_initializer.obj
 0002:0000034c       ___xp_z                    1001f34c     LIBCMT:initializers.obj
 0002:00000350       ___xt_a                    1001f350     LIBCMT:initializers.obj
 0002:00000354       ___xt_z                    1001f354     LIBCMT:initializers.obj
 0002:00000360       ??_C@_13HADIAKP@?$AAS@     1001f360     OposVariant.obj
 0002:00000364       ??_C@_13LHMFKAAD@?$AAM@    1001f364     OposVariant.obj
 0002:00000368       ??_C@_13MKMNOPIJ@?$AAD@    1001f368     OposVariant.obj
 0002:0000036c       ??_C@_13OPKGLAFF@?$AAB@    1001f36c     OposVariant.obj
 0002:00000370       ??_C@_17LLMMEOJD@?$AAV?$AAa?$AAl@ 1001f370     OposVariant.obj
 0002:00000378       ??_C@_1BI@JFAIJMHL@?$AAF?$AAo?$AAr?$AAc?$AAe?$AAR?$AAe?$AAm?$AAo?$AAv?$AAe@ 1001f378     OposVariant.obj
 0002:00000390       ??_C@_1BC@GCKHIPE@?$AAN?$AAo?$AAR?$AAe?$AAm?$AAo?$AAv?$AAe@ 1001f390     OposVariant.obj
 0002:000003a4       ??_C@_1O@JDLOHAN@?$AAD?$AAe?$AAl?$AAe?$AAt?$AAe@ 1001f3a4     OposVariant.obj
 0002:000003b4       ??_C@_11LOCGONAA@@         1001f3b4     OposVariant.obj
 0002:000003b8       __GUID_0000010e_0000_0000_c000_000000000046 1001f3b8     Totals.obj
 0002:000003c8       __GUID_b196b288_bab4_101a_b69c_00aa00341d07 1001f3c8     Totals.obj
 0002:000003d8       __GUID_00000113_0000_0000_c000_000000000046 1001f3d8     Totals.obj
 0002:000003e8       __GUID_1c2056cc_5ef4_101b_8bc8_00aa003e3b29 1001f3e8     Totals.obj
 0002:000003f8       ??_7?$CComObjectCached@VCComClassFactory@ATL@@@ATL@@6B@ 1001f3f8     Totals.obj
 0002:00000410       __GUID_00000112_0000_0000_c000_000000000046 1001f410     Totals.obj
 0002:00000420       ??_C@_1BK@BIGILECK@?$AAA?$AAd?$AAv?$AAa?$AAp?$AAi?$AA3?$AA2?$AA?4?$AAd?$AAl?$AAl@ 1001f420     Totals.obj
 0002:0000043c       __GUID_3af24292_0c96_11ce_a0cf_00aa00600ab8 1001f43c     Totals.obj
 0002:0000044c       ??_C@_0BI@MNCFCPFK@RegCreateKeyTransactedW@ 1001f44c     Totals.obj
 0002:00000464       __GUID_00000127_0000_0000_c000_000000000046 1001f464     Totals.obj
 0002:00000474       __GUID_0000010d_0000_0000_c000_000000000046 1001f474     Totals.obj
 0002:00000484       ??_C@_1M@PPPPCDEP@?$AAA?$AAP?$AAP?$AAI?$AAD@ 1001f484     Totals.obj
 0002:00000490       __GUID_b196b287_bab4_101a_b69c_00aa00341d07 1001f490     Totals.obj
 0002:000004a0       __GUID_b196b285_bab4_101a_b69c_00aa00341d07 1001f4a0     Totals.obj
 0002:000004b0       ??_7?$CComContainedObject@VCOPOSTotals@@@ATL@@6B?$IDispatchImpl@UIOPOSTotals@@$1?IID_IOPOSTotals@@3U_GUID@@B$1?LIBID_OposTotals_CCO@@3U3@B$00$0A@VCComTypeInfoHolder@ATL@@@1@@ 1001f4b0     Totals.obj
 0002:000005d0       ??_7?$CComContainedObject@VCOPOSTotals@@@ATL@@6BCComControlBase@1@@ 1001f5d0     Totals.obj
 0002:000005e4       ??_7?$CComContainedObject@VCOPOSTotals@@@ATL@@6B?$CWindowImpl@VCOPOSTotals@@VCWindow@ATL@@V?$CWinTraits@$0FGAAAAAA@$0A@@3@@1@@ 1001f5e4     Totals.obj
 0002:000005f4       ??_7?$CComContainedObject@VCOPOSTotals@@@ATL@@6B?$IPersistStreamInitImpl@VCOPOSTotals@@@1@@ 1001f5f4     Totals.obj
 0002:00000618       ??_7?$CComContainedObject@VCOPOSTotals@@@ATL@@6B?$IOleControlImpl@VCOPOSTotals@@@1@@ 1001f618     Totals.obj
 0002:00000634       ??_7?$CComContainedObject@VCOPOSTotals@@@ATL@@6B?$IOleObjectImpl@VCOPOSTotals@@@1@@ 1001f634     Totals.obj
 0002:00000694       ??_7?$CComContainedObject@VCOPOSTotals@@@ATL@@6B?$IOleInPlaceActiveObjectImpl@VCOPOSTotals@@@1@@ 1001f694     Totals.obj
 0002:000006bc       ??_7?$CComContainedObject@VCOPOSTotals@@@ATL@@6B?$IViewObjectExImpl@VCOPOSTotals@@@1@@ 1001f6bc     Totals.obj
 0002:000006f8       ??_7?$CComContainedObject@VCOPOSTotals@@@ATL@@6B?$IOleInPlaceObjectWindowlessImpl@VCOPOSTotals@@@1@@ 1001f6f8     Totals.obj
 0002:00000724       ??_7?$CComContainedObject@VCOPOSTotals@@@ATL@@6B?$IConnectionPointContainerImpl@VCOPOSTotals@@@1@@ 1001f724     Totals.obj
 0002:00000738       ??_7?$CComContainedObject@VCOPOSTotals@@@ATL@@6B?$IPersistStorageImpl@VCOPOSTotals@@@1@@ 1001f738     Totals.obj
 0002:00000760       ??_7?$CComContainedObject@VCOPOSTotals@@@ATL@@6B?$ISpecifyPropertyPagesImpl@VCOPOSTotals@@@1@@ 1001f760     Totals.obj
 0002:00000770       ??_7?$CComContainedObject@VCOPOSTotals@@@ATL@@6B?$IQuickActivateImpl@VCOPOSTotals@@@1@@ 1001f770     Totals.obj
 0002:00000788       ??_7?$CComContainedObject@VCOPOSTotals@@@ATL@@6B?$IDataObjectImpl@VCOPOSTotals@@@1@@ 1001f788     Totals.obj
 0002:000007b8       ??_7?$CComContainedObject@VCOPOSTotals@@@ATL@@6B?$IProvideClassInfo2Impl@$1?CLSID_OPOSTotals@@3U_GUID@@B$1?DIID__IOPOSTotalsEvents@@3U2@B$1?LIBID_OposTotals_CCO@@3U2@B$00$0A@VCComTypeInfoHolder@ATL@@@1@@ 1001f7b8     Totals.obj
 0002:000007cc       ??_7?$CComContainedObject@VCOPOSTotals@@@ATL@@6B?$IObjectSafetyImpl@VCOPOSTotals@@$02@1@@ 1001f7cc     Totals.obj
 0002:000007e4       ??_7?$CComContainedObject@VCOPOSTotals@@@ATL@@6B?$IPropertyNotifySinkCP@VCOPOSTotals@@VCComDynamicUnkArray@ATL@@@1@@ 1001f7e4     Totals.obj
 0002:00000804       ??_7?$CComContainedObject@VCOPOSTotals@@@ATL@@6B?$CProxy_IOPOSEvents@VCOPOSTotals@@@@@ 1001f804     Totals.obj
 0002:00000824       ??_7?$CComAggObject@VCOPOSTotals@@@ATL@@6B@ 1001f824     Totals.obj
 0002:00000834       ??_7?$CComObject@VCOPOSTotals@@@ATL@@6B?$IDispatchImpl@UIOPOSTotals@@$1?IID_IOPOSTotals@@3U_GUID@@B$1?LIBID_OposTotals_CCO@@3U3@B$00$0A@VCComTypeInfoHolder@ATL@@@1@@ 1001f834     Totals.obj
 0002:00000954       ??_7?$CComObject@VCOPOSTotals@@@ATL@@6BCComControlBase@1@@ 1001f954     Totals.obj
 0002:00000968       ??_7?$CComObject@VCOPOSTotals@@@ATL@@6B?$CWindowImpl@VCOPOSTotals@@VCWindow@ATL@@V?$CWinTraits@$0FGAAAAAA@$0A@@3@@1@@ 1001f968     Totals.obj
 0002:00000978       ??_7?$CComObject@VCOPOSTotals@@@ATL@@6B?$IPersistStreamInitImpl@VCOPOSTotals@@@1@@ 1001f978     Totals.obj
 0002:0000099c       ??_7?$CComObject@VCOPOSTotals@@@ATL@@6B?$IOleControlImpl@VCOPOSTotals@@@1@@ 1001f99c     Totals.obj
 0002:000009b8       ??_7?$CComObject@VCOPOSTotals@@@ATL@@6B?$IOleObjectImpl@VCOPOSTotals@@@1@@ 1001f9b8     Totals.obj
 0002:00000a18       ??_7?$CComObject@VCOPOSTotals@@@ATL@@6B?$IOleInPlaceActiveObjectImpl@VCOPOSTotals@@@1@@ 1001fa18     Totals.obj
 0002:00000a40       ??_7?$CComObject@VCOPOSTotals@@@ATL@@6B?$IViewObjectExImpl@VCOPOSTotals@@@1@@ 1001fa40     Totals.obj
 0002:00000a7c       ??_7?$CComObject@VCOPOSTotals@@@ATL@@6B?$IOleInPlaceObjectWindowlessImpl@VCOPOSTotals@@@1@@ 1001fa7c     Totals.obj
 0002:00000aa8       ??_7?$CComObject@VCOPOSTotals@@@ATL@@6B?$IConnectionPointContainerImpl@VCOPOSTotals@@@1@@ 1001faa8     Totals.obj
 0002:00000abc       ??_7?$CComObject@VCOPOSTotals@@@ATL@@6B?$IPersistStorageImpl@VCOPOSTotals@@@1@@ 1001fabc     Totals.obj
 0002:00000ae4       ??_7?$CComObject@VCOPOSTotals@@@ATL@@6B?$ISpecifyPropertyPagesImpl@VCOPOSTotals@@@1@@ 1001fae4     Totals.obj
 0002:00000af4       ??_7?$CComObject@VCOPOSTotals@@@ATL@@6B?$IQuickActivateImpl@VCOPOSTotals@@@1@@ 1001faf4     Totals.obj
 0002:00000b0c       ??_7?$CComObject@VCOPOSTotals@@@ATL@@6B?$IDataObjectImpl@VCOPOSTotals@@@1@@ 1001fb0c     Totals.obj
 0002:00000b3c       ??_7?$CComObject@VCOPOSTotals@@@ATL@@6B?$IProvideClassInfo2Impl@$1?CLSID_OPOSTotals@@3U_GUID@@B$1?DIID__IOPOSTotalsEvents@@3U2@B$1?LIBID_OposTotals_CCO@@3U2@B$00$0A@VCComTypeInfoHolder@ATL@@@1@@ 1001fb3c     Totals.obj
 0002:00000b50       ??_7?$CComObject@VCOPOSTotals@@@ATL@@6B?$IObjectSafetyImpl@VCOPOSTotals@@$02@1@@ 1001fb50     Totals.obj
 0002:00000b68       ??_7?$CComObject@VCOPOSTotals@@@ATL@@6B?$IPropertyNotifySinkCP@VCOPOSTotals@@VCComDynamicUnkArray@ATL@@@1@@ 1001fb68     Totals.obj
 0002:00000b88       ??_7?$CComObject@VCOPOSTotals@@@ATL@@6B?$CProxy_IOPOSEvents@VCOPOSTotals@@@@@ 1001fb88     Totals.obj
 0002:00000ba8       __GUID_a6bc3ac0_dbaa_11ce_9de3_00aa004bb851 1001fba8     Totals.obj
 0002:00000bb8       __GUID_0000010c_0000_0000_c000_000000000046 1001fbb8     Totals.obj
 0002:00000bc8       ??_C@_1O@GBFKGNEO@?$AAA?$AAT?$AAL?$AA?3?$AA?$CF?$AAp@ 1001fbc8     Totals.obj
 0002:00000bd8       __GUID_00000146_0000_0000_c000_000000000046 1001fbd8     Totals.obj
 0002:00000be8       ??_C@_1BA@PICGEGJB@?$AAD?$AAI?$AAS?$AAP?$AAL?$AAA?$AAY@ 1001fbe8     Totals.obj
 0002:00000bf8       __GUID_9bfbbc02_eff1_101a_84ed_00aa00341d07 1001fbf8     Totals.obj
 0002:00000c08       ??_7CComModule@ATL@@6B@    1001fc08     Totals.obj
 0002:00000c30       ?_entries@?1??_GetEntries@?$CComEnum@UIEnumConnectionPoints@@$1?_GUID_b196b285_bab4_101a_b69c_00aa00341d07@@3U__s_GUID@@BPAUIConnectionPoint@@V?$_CopyInterface@UIConnectionPoint@@@ATL@@VCComSingleThreadModel@6@@ATL@@SGPBU_ATL_INTMAP_ENTRY@3@XZ@4QBU43@B 1001fc30     Totals.obj
 0002:00000c48       __GUID_00000000_0000_0000_c000_000000000046 1001fc48     Totals.obj
 0002:00000c58       __GUID_00020400_0000_0000_c000_000000000046 1001fc58     Totals.obj
 0002:00000c68       __GUID_00020412_0000_0000_c000_000000000046 1001fc68     Totals.obj
 0002:00000c78       __GUID_00020401_0000_0000_c000_000000000046 1001fc78     Totals.obj
 0002:00000c88       ??_C@_1M@KANJNLFF@?$AAC?$AAL?$AAS?$AAI?$AAD@ 1001fc88     Totals.obj
 0002:00000c94       ??_C@_1M@EJNEECMJ@?$AAA?$AAp?$AAp?$AAI?$AAD@ 1001fc94     Totals.obj
 0002:00000ca0       ??_7?$CComObject@V?$CComEnum@UIEnumConnections@@$1?_GUID_b196b287_bab4_101a_b69c_00aa00341d07@@3U__s_GUID@@BUtagCONNECTDATA@@V?$_Copy@UtagCONNECTDATA@@@ATL@@VCComSingleThreadModel@6@@ATL@@@ATL@@6B@ 1001fca0     Totals.obj
 0002:00000cc0       __GUID_55980ba0_35aa_11cf_b671_00aa004cd6d8 1001fcc0     Totals.obj
 0002:00000cd0       __GUID_b196b28b_bab4_101a_b69c_00aa00341d07 1001fcd0     Totals.obj
 0002:00000ce0       ?rgszNeverDelete@CRegParser@ATL@@1QBQB_WB 1001fce0     Totals.obj
 0002:00000d10       ??_7CRegObject@ATL@@6B@    1001fd10     Totals.obj
 0002:00000d28       ?_entries@?1??_GetEntries@?$CComEnum@UIEnumConnections@@$1?_GUID_b196b287_bab4_101a_b69c_00aa00341d07@@3U__s_GUID@@BUtagCONNECTDATA@@V?$_Copy@UtagCONNECTDATA@@@ATL@@VCComSingleThreadModel@6@@ATL@@SGPBU_ATL_INTMAP_ENTRY@3@XZ@4QBU43@B 1001fd28     Totals.obj
 0002:00000d40       ??_C@_1CK@OEKPKBNA@?$AAC?$AAo?$AAm?$AAp?$AAo?$AAn?$AAe?$AAn?$AAt?$AA?5?$AAC?$AAa?$AAt?$AAe?$AAg@ 1001fd40     Totals.obj
 0002:00000d6c       ??_C@_1BC@NKMMNMGL@?$AAF?$AAi?$AAl?$AAe?$AAT?$AAy?$AAp?$AAe@ 1001fd6c     Totals.obj
 0002:00000d80       ??_C@_1BE@EKPAFMCP@?$AAI?$AAn?$AAt?$AAe?$AAr?$AAf?$AAa?$AAc?$AAe@ 1001fd80     Totals.obj
 0002:00000d94       ??_C@_1BC@MAICEHGI@?$AAH?$AAa?$AAr?$AAd?$AAw?$AAa?$AAr?$AAe@ 1001fd94     Totals.obj
 0002:00000da8       ??_C@_19HLLLM@?$AAM?$AAi?$AAm?$AAe@ 1001fda8     Totals.obj
 0002:00000db4       ??_C@_17OMAOINJK@?$AAS?$AAA?$AAM@ 1001fdb4     Totals.obj
 0002:00000dbc       ??_C@_1BC@IBECJAAI@?$AAS?$AAE?$AAC?$AAU?$AAR?$AAI?$AAT?$AAY@ 1001fdbc     Totals.obj
 0002:00000dd0       ??_C@_1O@GBFINDKL@?$AAS?$AAY?$AAS?$AAT?$AAE?$AAM@ 1001fdd0     Totals.obj
 0002:00000de0       ??_C@_1BC@EAHCMADO@?$AAS?$AAo?$AAf?$AAt?$AAw?$AAa?$AAr?$AAe@ 1001fde0     Totals.obj
 0002:00000df4       ??_C@_1BA@JIHHIEDE@?$AAT?$AAy?$AAp?$AAe?$AAL?$AAi?$AAb@ 1001fdf4     Totals.obj
 0002:00000e08       ?map@?1??HKeyFromString@CRegParser@ATL@@KAPAUHKEY__@@PA_W@Z@4QBUkeymap@?1??123@KAPAU4@0@Z@B 1001fe08     Totals.obj
 0002:00000e78       ??_C@_19NCHLBIN@?$AAH?$AAK?$AAC?$AAR@ 1001fe78     Totals.obj
 0002:00000e84       ??_C@_19JAPAIJDE@?$AAH?$AAK?$AAC?$AAU@ 1001fe84     Totals.obj
 0002:00000e90       ??_C@_19PEALEEJB@?$AAH?$AAK?$AAL?$AAM@ 1001fe90     Totals.obj
 0002:00000e9c       ??_C@_17PJOJPMPB@?$AAH?$AAK?$AAU@ 1001fe9c     Totals.obj
 0002:00000ea4       ??_C@_19PNBHMJPL@?$AAH?$AAK?$AAP?$AAD@ 1001fea4     Totals.obj
 0002:00000eb0       ??_C@_19GFFAIJHG@?$AAH?$AAK?$AAD?$AAD@ 1001feb0     Totals.obj
 0002:00000ebc       ??_C@_19OFICIBHH@?$AAH?$AAK?$AAC?$AAC@ 1001febc     Totals.obj
 0002:00000ec8       ??_C@_1CE@PACHPJFI@?$AAH?$AAK?$AAE?$AAY?$AA_?$AAC?$AAL?$AAA?$AAS?$AAS?$AAE?$AAS?$AA_?$AAR?$AAO@ 1001fec8     Totals.obj
 0002:00000eec       ??_C@_1CE@HLHNCBPM@?$AAH?$AAK?$AAE?$AAY?$AA_?$AAC?$AAU?$AAR?$AAR?$AAE?$AAN?$AAT?$AA_?$AAU?$AAS@ 1001feec     Totals.obj
 0002:00000f10       ??_C@_1CG@GFBEANJL@?$AAH?$AAK?$AAE?$AAY?$AA_?$AAL?$AAO?$AAC?$AAA?$AAL?$AA_?$AAM?$AAA?$AAC?$AAH@ 1001ff10     Totals.obj
 0002:00000f38       ??_C@_1BG@BGODANIO@?$AAH?$AAK?$AAE?$AAY?$AA_?$AAU?$AAS?$AAE?$AAR?$AAS@ 1001ff38     Totals.obj
 0002:00000f50       ??_C@_1CM@KHNNAOIC@?$AAH?$AAK?$AAE?$AAY?$AA_?$AAP?$AAE?$AAR?$AAF?$AAO?$AAR?$AAM?$AAA?$AAN?$AAC@ 1001ff50     Totals.obj
 0002:00000f7c       ??_C@_1BM@HAGMMHIA@?$AAH?$AAK?$AAE?$AAY?$AA_?$AAD?$AAY?$AAN?$AA_?$AAD?$AAA?$AAT?$AAA@ 1001ff7c     Totals.obj
 0002:00000f98       ??_C@_1CI@BBJOACGG@?$AAH?$AAK?$AAE?$AAY?$AA_?$AAC?$AAU?$AAR?$AAR?$AAE?$AAN?$AAT?$AA_?$AAC?$AAO@ 1001ff98     Totals.obj
 0002:00000fc0       __GUID_00000109_0000_0000_c000_000000000046 1001ffc0     Totals.obj
 0002:00000fd0       __GUID_7fd52380_4e07_101b_ae2d_08002b2ec713 1001ffd0     Totals.obj
 0002:00000fe0       ??_C@_1EA@NHKLICFA@?$AAH?$AAK?$AAC?$AAU?$AA?$AN?$AA?6?$AA?$HL?$AA?7?$AAS?$AAo?$AAf?$AAt?$AAw?$AAa?$AAr@ 1001ffe0     Totals.obj
 0002:00001020       ??_C@_1BE@LJOLIMEM@?$AA?$AN?$AA?6?$AA?7?$AA?$HN?$AA?$AN?$AA?6?$AA?$HN?$AA?$AN?$AA?6@ 10020020     Totals.obj
 0002:00001034       ??_C@_1O@MNLDABAF@?$AAM?$AAo?$AAd?$AAu?$AAl?$AAe@ 10020034     Totals.obj
 0002:00001044       ??_C@_1BG@JBACFMF@?$AAM?$AAo?$AAd?$AAu?$AAl?$AAe?$AA_?$AAR?$AAa?$AAw@ 10020044     Totals.obj
 0002:0000105c       ??_C@_1BC@KAILKFFG@?$AAR?$AAE?$AAG?$AAI?$AAS?$AAT?$AAR?$AAY@ 1002005c     Totals.obj
 0002:00001070       _IID_IOPOSTotals_1_5       10020070     Totals.obj
 0002:00001080       _IID_IOPOSTotals_1_8       10020080     Totals.obj
 0002:00001090       _IID_IOPOSTotals_1_9       10020090     Totals.obj
 0002:000010a0       _IID_IOPOSTotals           100200a0     Totals.obj
 0002:000010b0       _LIBID_OposTotals_CCO      100200b0     Totals.obj
 0002:000010c0       _DIID__IOPOSTotalsEvents   100200c0     Totals.obj
 0002:000010d0       _CLSID_OPOSTotals          100200d0     Totals.obj
 0002:000010e0       __GUID_00000114_0000_0000_c000_000000000046 100200e0     Totals.obj
 0002:000010f0       __GUID_b196b284_bab4_101a_b69c_00aa00341d07 100200f0     Totals.obj
 0002:00001100       ?_entries@?1??_GetEntries@COPOSTotals@@SGPBU_ATL_INTMAP_ENTRY@ATL@@XZ@4QBU34@B 10020100     Totals.obj
 0002:00001238       __GUID_cf51ed10_62fe_11cf_bf86_00a0c9034836 10020238     Totals.obj
 0002:00001248       __GUID_0000010a_0000_0000_c000_000000000046 10020248     Totals.obj
 0002:00001258       __GUID_b196b283_bab4_101a_b69c_00aa00341d07 10020258     Totals.obj
 0002:00001268       __GUID_cb5bdc81_93c1_11cf_8f20_00805f2cd064 10020268     Totals.obj
 0002:00001278       ?pPropMap@?1??GetPropertyMap@COPOSTotals@@SAPBUATL_PROPMAP_ENTRY@ATL@@XZ@4QBU34@B 10020278     Totals.obj
 0002:000012e4       ??_C@_17DGDADEHL@?$AA_?$AAc?$AAx@ 100202e4     Totals.obj
 0002:000012ec       ??_C@_17IOIMFDBO@?$AA_?$AAc?$AAy@ 100202ec     Totals.obj
 0002:000012f4       __GUID_922eada0_3424_11cf_b670_00aa004cd6d8 100202f4     Totals.obj
 0002:00001304       __GUID_9c2cad80_3424_11cf_b670_00aa004cd6d8 10020304     Totals.obj
 0002:00001314       __GUID_00000119_0000_0000_c000_000000000046 10020314     Totals.obj
 0002:00001324       __GUID_b196b289_bab4_101a_b69c_00aa00341d07 10020324     Totals.obj
 0002:00001334       __GUID_b196b286_bab4_101a_b69c_00aa00341d07 10020334     Totals.obj
 0002:00001344       ??_C@_1CE@PGFMOFKI@?$AAS?$AAt?$AAa?$AAt?$AAu?$AAs?$AAU?$AAp?$AAd?$AAa?$AAt?$AAe?$AAE?$AAv?$AAe@ 10020344     Totals.obj
 0002:00001368       ??_C@_1BM@CBGEBBBJ@?$AAD?$AAi?$AAr?$AAe?$AAc?$AAt?$AAI?$AAO?$AAE?$AAv?$AAe?$AAn?$AAt@ 10020368     Totals.obj
 0002:00001384       __GUID_00000117_0000_0000_c000_000000000046 10020384     Totals.obj
 0002:00001394       ??_C@_1BC@ENICKDH@?$AAC?$AAo?$AAn?$AAt?$AAe?$AAn?$AAt?$AAs@ 10020394     Totals.obj
 0002:000013a8       ??_7?$CComObject@V?$CComEnum@UIEnumConnectionPoints@@$1?_GUID_b196b285_bab4_101a_b69c_00aa00341d07@@3U__s_GUID@@BPAUIConnectionPoint@@V?$_CopyInterface@UIConnectionPoint@@@ATL@@VCComSingleThreadModel@6@@ATL@@@ATL@@6B@ 100203a8     Totals.obj
 0002:000013c8       ??_7CComClassFactory@ATL@@6B@ 100203c8     Totals.obj
 0002:000013e0       ?_entries@?1??_GetEntries@CComClassFactory@ATL@@SGPBU_ATL_INTMAP_ENTRY@3@XZ@4QBU43@B 100203e0     Totals.obj
 0002:000013f8       __GUID_00000001_0000_0000_c000_000000000046 100203f8     Totals.obj
 0002:00001408       ??_C@_0BG@EKFFMJIO@RegOpenKeyTransactedW@ 10020408     Totals.obj
 0002:00001420       ??_C@_0BI@HAKLOOGP@RegDeleteKeyTransactedW@ 10020420     Totals.obj
 0002:00001438       ??_C@_0BA@LILAPHGE@RegDeleteKeyExW@ 10020438     Totals.obj
 0002:00001448       ??_C@_19ILOCMLCJ@?$AA?4?$AAt?$AAl?$AAb@ 10020448     Totals.obj
 0002:00001454       __GUID_0002e012_0000_0000_c000_000000000046 10020454     Totals.obj
 0002:00001464       ??_C@_1O@FHBGLCIO@?$AAC?$AAL?$AAS?$AAI?$AAD?$AA?2@ 10020464     Totals.obj
 0002:00001474       ??_C@_1CK@IFBKBFAA@?$AA?2?$AAR?$AAe?$AAq?$AAu?$AAi?$AAr?$AAe?$AAd?$AA?5?$AAC?$AAa?$AAt?$AAe?$AAg@ 10020474     Totals.obj
 0002:000014a0       ??_C@_1DA@BIHALFED@?$AA?2?$AAI?$AAm?$AAp?$AAl?$AAe?$AAm?$AAe?$AAn?$AAt?$AAe?$AAd?$AA?5?$AAC?$AAa@ 100204a0     Totals.obj
 0002:000014d0       ??_C@_1BK@EDKOLFBJ@?$AAO?$AAL?$AAE?$AAA?$AAU?$AAT?$AA3?$AA2?$AA?4?$AAD?$AAL?$AAL@ 100204d0     Totals.obj
 0002:000014ec       ??_C@_0BJ@CNLFOMHB@UnRegisterTypeLibForUser@ 100204ec     Totals.obj
 0002:00001508       ??_C@_0BH@LBOMMKPJ@RegisterTypeLibForUser@ 10020508     Totals.obj
 0002:00001520       ??_C@_0P@MMNMMLGK@COFreezeEvents@ 10020520     TotalsImpl.obj
 0002:00001530       ??_C@_0BC@OGCGGIMP@GetPropertyNumber@ 10020530     TotalsImpl.obj
 0002:00001544       ??_C@_0BC@MDCNODNB@SetPropertyNumber@ 10020544     TotalsImpl.obj
 0002:00001558       ??_C@_0BC@CFCCMIMD@GetPropertyString@ 10020558     TotalsImpl.obj
 0002:0000156c       ??_C@_0BC@CJEDNN@SetPropertyString@ 1002056c     TotalsImpl.obj
 0002:00001580       ??_C@_0M@LNPKKKDA@OpenService@ 10020580     TotalsImpl.obj
 0002:0000158c       ??_C@_0M@PCMCHHMH@CheckHealth@ 1002058c     TotalsImpl.obj
 0002:00001598       ??_C@_0M@JGMIDNEK@ClaimDevice@ 10020598     TotalsImpl.obj
 0002:000015a4       ??_C@_0N@DDFIIBMP@CloseService@ 100205a4     TotalsImpl.obj
 0002:000015b4       ??_C@_08EEIHICPC@DirectIO@ 100205b4     TotalsImpl.obj
 0002:000015c0       ??_C@_0O@BCPMENMJ@ReleaseDevice@ 100205c0     TotalsImpl.obj
 0002:000015d0       ??_C@_0L@NAHBOEHL@BeginTrans@ 100205d0     TotalsImpl.obj
 0002:000015dc       ??_C@_09KNHAFEML@ClaimFile@ 100205dc     TotalsImpl.obj
 0002:000015e8       ??_C@_0M@IPIBDNMC@CommitTrans@ 100205e8     TotalsImpl.obj
 0002:000015f4       ??_C@_06MIKANEJK@Create@   100205f4     TotalsImpl.obj
 0002:000015fc       ??_C@_06JBKGCNBB@Delete@   100205fc     TotalsImpl.obj
 0002:00001604       ??_C@_04OLJIFFAL@Find@     10020604     TotalsImpl.obj
 0002:0000160c       ??_C@_0M@LPOPDPNH@FindByIndex@ 1002060c     TotalsImpl.obj
 0002:00001618       ??_C@_04DPHCJMMM@Read@     10020618     TotalsImpl.obj
 0002:00001620       ??_C@_0BK@IAKPCNCB@RecalculateValidationData@ 10020620     TotalsImpl.obj
 0002:0000163c       ??_C@_0M@PJOEKLNA@ReleaseFile@ 1002063c     TotalsImpl.obj
 0002:00001648       ??_C@_06HDPNNICN@Rename@   10020648     TotalsImpl.obj
 0002:00001650       ??_C@_08NDEJKKFI@Rollback@ 10020650     TotalsImpl.obj
 0002:0000165c       ??_C@_06IPOICCPK@SetAll@   1002065c     TotalsImpl.obj
 0002:00001664       ??_C@_0N@MBAILECK@ValidateData@ 10020664     TotalsImpl.obj
 0002:00001674       ??_C@_05NBPIDCFL@Write@    10020674     TotalsImpl.obj
 0002:0000167c       ??_C@_0BA@GFABKEEE@ResetStatistics@ 1002067c     TotalsImpl.obj
 0002:0000168c       ??_C@_0BD@DPALHJGC@RetrieveStatistics@ 1002068c     TotalsImpl.obj
 0002:000016a0       ??_C@_0BB@KOHIKNFC@UpdateStatistics@ 100206a0     TotalsImpl.obj
 0002:000016b4       ??_C@_0BH@PBKBNMGB@CompareFirmwareVersion@ 100206b4     TotalsImpl.obj
 0002:000016cc       ??_C@_0P@FBPDPIPA@UpdateFirmware@ 100206cc     TotalsImpl.obj
 0002:000016dc       ??_7?$CProxy_IOPOSEvents@VCOPOSTotals@@@@6B@ 100206dc     TotalsImpl.obj
 0002:000016fc       ??_C@_1BA@IFHENID@?$AA?$FL?$AAE?$AAr?$AAr?$AAo?$AAr?$AA?$FN@ 100206fc     TotalsImpl.obj
 0002:0000170c       ??_C@_0CN@CIBFDFMD@SOFTWARE?2OLEforRetail?2ServiceOP@ 1002070c     TotalsImpl.obj
 0002:0000173c       ??_C@_1M@IAIJHCCH@?$AAC?$AAl?$AAo?$AAs?$AAe@ 1002073c     TotalsImpl.obj
 0002:00001748       ??_C@_1M@PCPKGJAH@?$AAC?$AAl?$AAa?$AAi?$AAm@ 10020748     TotalsImpl.obj
 0002:00001754       ??_C@_1BA@NDFKIOCP@?$AAR?$AAe?$AAl?$AAe?$AAa?$AAs?$AAe@ 10020754     TotalsImpl.obj
 0002:00001764       ??_C@_0L@KIANCCNG@HardTotals@ 10020764     TotalsImpl.obj
 0002:00001770       ??_C@_1BM@IJMNMBPK@?$AAG?$AAe?$AAt?$AAO?$AAp?$AAe?$AAn?$AAR?$AAe?$AAs?$AAu?$AAl?$AAt@ 10020770     TotalsImpl.obj
 0002:0000178c       _IID_IPropertyNotifySink   1002078c     uuid:ocidl_i.obj
 0002:0000179c       _GUID_NULL                 1002079c     uuid:cguid_i.obj
 0002:000017ac       _CLSID_StdGlobalInterfaceTable 100207ac     uuid:cguid_i.obj
 0002:000017bc       _IID_IDispatch             100207bc     uuid:oaidl_i.obj
 0002:000017cc       _CLSID_StdComponentCategoriesMgr 100207cc     uuid:ieguids.obj
 0002:000017dc       _IID_IUnknown              100207dc     uuid:unknwn_i.obj
 0002:000017f0       ??_C@_1EC@JIJBPKFM@?$AAa?$AAp?$AAi?$AA?9?$AAm?$AAs?$AA?9?$AAw?$AAi?$AAn?$AA?9?$AAc?$AAo?$AAr?$AAe@ 100207f0     LIBCMT:thread_safe_statics.obj
 0002:00001834       ??_C@_1BK@MGMFAEKH@?$AAk?$AAe?$AAr?$AAn?$AAe?$AAl?$AA3?$AA2?$AA?4?$AAd?$AAl?$AAl@ 10020834     LIBCMT:thread_safe_statics.obj
 0002:00001850       ??_C@_0BJ@JEBJOJFJ@SleepConditionVariableCS@ 10020850     LIBCMT:thread_safe_statics.obj
 0002:0000186c       ??_C@_0BJ@PGPPEPCC@WakeAllConditionVariable@ 1002086c     LIBCMT:thread_safe_statics.obj
 0002:00001885       ?nothrow@std@@3Unothrow_t@1@B 10020885     LIBCMT:std_nothrow.obj
 0002:00001890       __pDefaultRawDllMain       10020890     LIBCMT:dll_dllmain.obj
 0002:00001890       __pRawDllMain              10020890     LIBCMT:dll_dllmain.obj
 0002:00001898       ??_7exception@std@@6B@     10020898     LIBCMT:throw_bad_alloc.obj
 0002:000018a0       ??_C@_0BC@EOODALEL@Unknown?5exception@ 100208a0     LIBCMT:throw_bad_alloc.obj
 0002:000018b8       ??_7bad_alloc@std@@6B@     100208b8     LIBCMT:throw_bad_alloc.obj
 0002:000018c0       ??_C@_0P@GHFPNOJB@bad?5allocation@ 100208c0     LIBCMT:throw_bad_alloc.obj
 0002:000018d4       ??_7bad_array_new_length@std@@6B@ 100208d4     LIBCMT:throw_bad_alloc.obj
 0002:000018dc       ??_C@_0BF@KINCDENJ@bad?5array?5new?5length@ 100208dc     LIBCMT:throw_bad_alloc.obj
 0002:000018f8       ??_7type_info@@6B@         100208f8     LIBCMT:std_type_info_static.obj
 0002:000018fc       _GUID_ATLVer110            100208fc     atls:atlbase.obj
 0002:00001910       ??_C@_1IC@ONKHOIDK@?$AAE?$AAR?$AAR?$AAO?$AAR?$AA?5?$AA?3?$AA?5?$AAU?$AAn?$AAa?$AAb?$AAl?$AAe?$AA?5@ 10020910     atls:atlbase.obj
 0002:00001994       ??_C@_0N@FJEPLCIH@atlthunk?4dll@ 10020994     atls:atlthunk.obj
 0002:000019a4       ??_C@_0BG@GAKFHCBM@AtlThunk_AllocateData@ 100209a4     atls:atlthunk.obj
 0002:000019bc       ??_C@_0BC@JKONFIAH@AtlThunk_InitData@ 100209bc     atls:atlthunk.obj
 0002:000019d0       ??_C@_0BE@IAOEELAK@AtlThunk_DataToCode@ 100209d0     atls:atlthunk.obj
 0002:000019e4       ??_C@_0BC@GBGKAIPI@AtlThunk_FreeData@ 100209e4     atls:atlthunk.obj
 0002:00001a1c       ??_7bad_exception@std@@6B@ 10020a1c     libvcruntime:frame.obj
 0002:00001a24       ??_C@_0O@DPKOEFFH@bad?5exception@ 10020a24     libvcruntime:frame.obj
 0002:00001bd8       ??_C@_08EHJDFFNH@__based?$CI@ 10020bd8     libvcruntime:undname.obj
 0002:00001be4       ??_C@_07KOLFKCDI@__cdecl@  10020be4     libvcruntime:undname.obj
 0002:00001bec       ??_C@_08GHMPAG@__pascal@   10020bec     libvcruntime:undname.obj
 0002:00001bf8       ??_C@_09IFJBGAPI@__stdcall@ 10020bf8     libvcruntime:undname.obj
 0002:00001c04       ??_C@_0L@NPHFGOKO@__thiscall@ 10020c04     libvcruntime:undname.obj
 0002:00001c10       ??_C@_0L@JMKHOMEK@__fastcall@ 10020c10     libvcruntime:undname.obj
 0002:00001c1c       ??_C@_0N@BCKKPABJ@__vectorcall@ 10020c1c     libvcruntime:undname.obj
 0002:00001c2c       ??_C@_09HIJEGCPM@__clrcall@ 10020c2c     libvcruntime:undname.obj
 0002:00001c38       ??_C@_06GHPCKEAG@__eabi@   10020c38     libvcruntime:undname.obj
 0002:00001c40       ??_C@_09IOPIDJLG@__swift_1@ 10020c40     libvcruntime:undname.obj
 0002:00001c4c       ??_C@_09KFNFGKHF@__swift_2@ 10020c4c     libvcruntime:undname.obj
 0002:00001c58       ??_C@_07JOMMBBKO@__ptr64@  10020c58     libvcruntime:undname.obj
 0002:00001c60       ??_C@_0L@PILCLIHE@__restrict@ 10020c60     libvcruntime:undname.obj
 0002:00001c6c       ??_C@_0M@GFIIJFMG@__unaligned@ 10020c6c     libvcruntime:undname.obj
 0002:00001c78       ??_C@_09DHDLOLLB@restrict?$CI@ 10020c78     libvcruntime:undname.obj
 0002:00001c82       ??_C@_00CNPNBAHC@@         10020c82     libvcruntime:undname.obj
 0002:00001c84       ??_C@_04NIHEBCM@?5new@     10020c84     libvcruntime:undname.obj
 0002:00001c8c       ??_C@_07FPCDHGMM@?5delete@ 10020c8c     libvcruntime:undname.obj
 0002:00001c94       ??_C@_01NEMOKFLO@?$DN@     10020c94     libvcruntime:undname.obj
 0002:00001c98       ??_C@_02GPIOPFAK@?$DO?$DO@ 10020c98     libvcruntime:undname.obj
 0002:00001c9c       ??_C@_02FODMEDOG@?$DM?$DM@ 10020c9c     libvcruntime:undname.obj
 0002:00001ca0       ??_C@_01DCLJPIOD@?$CB@     10020ca0     libvcruntime:undname.obj
 0002:00001ca4       ??_C@_02EGOFBIJA@?$DN?$DN@ 10020ca4     libvcruntime:undname.obj
 0002:00001ca8       ??_C@_02FDNJECIE@?$CB?$DN@ 10020ca8     libvcruntime:undname.obj
 0002:00001cac       ??_C@_02GPECMEKF@?$FL?$FN@ 10020cac     libvcruntime:undname.obj
 0002:00001cb0       ??_C@_08LHJFAFGD@operator@ 10020cb0     libvcruntime:undname.obj
 0002:00001cbc       ??_C@_02HBOOOICD@?9?$DO@   10020cbc     libvcruntime:undname.obj
 0002:00001cc0       ??_C@_01NBENCBCI@?$CK@     10020cc0     libvcruntime:undname.obj
 0002:00001cc4       ??_C@_02ECNGHCIF@?$CL?$CL@ 10020cc4     libvcruntime:undname.obj
 0002:00001cc8       ??_C@_02BAABKJLB@?9?9@     10020cc8     libvcruntime:undname.obj
 0002:00001ccc       ??_C@_01JOAMLHOP@?9@       10020ccc     libvcruntime:undname.obj
 0002:00001cd0       ??_C@_01MIFGBAGJ@?$CL@     10020cd0     libvcruntime:undname.obj
 0002:00001cd4       ??_C@_01HNPIGOCE@?$CG@     10020cd4     libvcruntime:undname.obj
 0002:00001cd8       ??_C@_03MNHNFDLC@?9?$DO?$CK@ 10020cd8     libvcruntime:undname.obj
 0002:00001cdc       ??_C@_01KMDKNFGN@?1@       10020cdc     libvcruntime:undname.obj
 0002:00001ce0       ??_C@_01FGNFDNOH@?$CF@     10020ce0     libvcruntime:undname.obj
 0002:00001ce4       ??_C@_01MNNFJEPP@?$DM@     10020ce4     libvcruntime:undname.obj
 0002:00001ce8       ??_C@_02EHCHHCKH@?$DM?$DN@ 10020ce8     libvcruntime:undname.obj
 0002:00001cec       ??_C@_01PPODPGHN@?$DO@     10020cec     libvcruntime:undname.obj
 0002:00001cf0       ??_C@_02EEKDKGMJ@?$DO?$DN@ 10020cf0     libvcruntime:undname.obj
 0002:00001cf4       ??_C@_01IHBHIGKO@?0@       10020cf4     libvcruntime:undname.obj
 0002:00001cf8       ??_C@_02HCKGKOFO@?$CI?$CJ@ 10020cf8     libvcruntime:undname.obj
 0002:00001cfc       ??_C@_01PJKLJHI@?$HO@      10020cfc     libvcruntime:undname.obj
 0002:00001d00       ??_C@_01JKBOJNNK@?$FO@     10020d00     libvcruntime:undname.obj
 0002:00001d04       ??_C@_01DNKMNLPK@?$HM@     10020d04     libvcruntime:undname.obj
 0002:00001d08       ??_C@_02PPKAJPJL@?$CG?$CG@ 10020d08     libvcruntime:undname.obj
 0002:00001d0c       ??_C@_02NONPIBCD@?$HM?$HM@ 10020d0c     libvcruntime:undname.obj
 0002:00001d10       ??_C@_02FPIMKNGF@?$CK?$DN@ 10020d10     libvcruntime:undname.obj
 0002:00001d14       ??_C@_02FOEOMHFC@?$CL?$DN@ 10020d14     libvcruntime:undname.obj
 0002:00001d18       ??_C@_02FKMDLLOA@?9?$DN@   10020d18     libvcruntime:undname.obj
 0002:00001d1c       ??_C@_02FJEHGPIO@?1?$DN@   10020d1c     libvcruntime:undname.obj
 0002:00001d20       ??_C@_02FENAOKFI@?$CF?$DN@ 10020d20     libvcruntime:undname.obj
 0002:00001d24       ??_C@_03IKFCCPFF@?$DO?$DO?$DN@ 10020d24     libvcruntime:undname.obj
 0002:00001d28       ??_C@_03CDNPDDLA@?$DM?$DM?$DN@ 10020d28     libvcruntime:undname.obj
 0002:00001d2c       ??_C@_02FGJGFEAB@?$CG?$DN@ 10020d2c     libvcruntime:undname.obj
 0002:00001d30       ??_C@_02DHLNPPGH@?$HM?$DN@ 10020d30     libvcruntime:undname.obj
 0002:00001d34       ??_C@_02MHEGNOJ@?$FO?$DN@  10020d34     libvcruntime:undname.obj
 0002:00001d38       ??_C@_09IFPLHPGF@?$GAvftable?8@ 10020d38     libvcruntime:undname.obj
 0002:00001d44       ??_C@_09BLBHBJP@?$GAvbtable?8@ 10020d44     libvcruntime:undname.obj
 0002:00001d50       ??_C@_07FEEIOKP@?$GAvcall?8@ 10020d50     libvcruntime:undname.obj
 0002:00001d58       ??_C@_08LLFFHHDJ@?$GAtypeof?8@ 10020d58     libvcruntime:undname.obj
 0002:00001d64       ??_C@_0BF@KDPPACIK@?$GAlocal?5static?5guard?8@ 10020d64     libvcruntime:undname.obj
 0002:00001d7c       ??_C@_08OBABFOLI@?$GAstring?8@ 10020d7c     libvcruntime:undname.obj
 0002:00001d88       ??_C@_0BD@JDLKDPAB@?$GAvbase?5destructor?8@ 10020d88     libvcruntime:undname.obj
 0002:00001d9c       ??_C@_0BN@DEGPLNFK@?$GAvector?5deleting?5destructor?8@ 10020d9c     libvcruntime:undname.obj
 0002:00001dbc       ??_C@_0BO@OBMKPJIG@?$GAdefault?5constructor?5closure?8@ 10020dbc     libvcruntime:undname.obj
 0002:00001ddc       ??_C@_0BN@IMDCHIKM@?$GAscalar?5deleting?5destructor?8@ 10020ddc     libvcruntime:undname.obj
 0002:00001dfc       ??_C@_0BO@PFGOCPJJ@?$GAvector?5constructor?5iterator?8@ 10020dfc     libvcruntime:undname.obj
 0002:00001e1c       ??_C@_0BN@LFPFMEDL@?$GAvector?5destructor?5iterator?8@ 10020e1c     libvcruntime:undname.obj
 0002:00001e3c       ??_C@_0CE@IKBNEHA@?$GAvector?5vbase?5constructor?5itera@ 10020e3c     libvcruntime:undname.obj
 0002:00001e60       ??_C@_0BL@NILFHHPC@?$GAvirtual?5displacement?5map?8@ 10020e60     libvcruntime:undname.obj
 0002:00001e7c       ??_C@_0CB@JONCMFFK@?$GAeh?5vector?5constructor?5iterator@ 10020e7c     libvcruntime:undname.obj
 0002:00001ea0       ??_C@_0CA@GCEOPDGL@?$GAeh?5vector?5destructor?5iterator?8@ 10020ea0     libvcruntime:undname.obj
 0002:00001ec0       ??_C@_0CH@OOJPLCPH@?$GAeh?5vector?5vbase?5constructor?5it@ 10020ec0     libvcruntime:undname.obj
 0002:00001ee8       ??_C@_0BL@LLKPOHJI@?$GAcopy?5constructor?5closure?8@ 10020ee8     libvcruntime:undname.obj
 0002:00001f04       ??_C@_0BA@KBCDOMBN@?$GAudt?5returning?8@ 10020f04     libvcruntime:undname.obj
 0002:00001f14       ??_C@_03KLGMFNMG@?$GAEH@   10020f14     libvcruntime:undname.obj
 0002:00001f18       ??_C@_05KHLCHHI@?$GARTTI@  10020f18     libvcruntime:undname.obj
 0002:00001f20       ??_C@_0BA@KKLDJDLB@?$GAlocal?5vftable?8@ 10020f20     libvcruntime:undname.obj
 0002:00001f30       ??_C@_0CE@IIHCMGGL@?$GAlocal?5vftable?5constructor?5clos@ 10020f30     libvcruntime:undname.obj
 0002:00001f54       ??_C@_06FHBGPFGH@?5new?$FL?$FN@ 10020f54     libvcruntime:undname.obj
 0002:00001f5c       ??_C@_09LBNFPBCA@?5delete?$FL?$FN@ 10020f5c     libvcruntime:undname.obj
 0002:00001f68       ??_C@_0P@HJKNJFNN@?$GAomni?5callsig?8@ 10020f68     libvcruntime:undname.obj
 0002:00001f78       ??_C@_0BL@CNOONJFP@?$GAplacement?5delete?5closure?8@ 10020f78     libvcruntime:undname.obj
 0002:00001f94       ??_C@_0BN@CKNJLHMB@?$GAplacement?5delete?$FL?$FN?5closure?8@ 10020f94     libvcruntime:undname.obj
 0002:00001fb4       ??_C@_0CG@CFDHKGGD@?$GAmanaged?5vector?5constructor?5ite@ 10020fb4     libvcruntime:undname.obj
 0002:00001fdc       ??_C@_0CF@IMGKMJNO@?$GAmanaged?5vector?5destructor?5iter@ 10020fdc     libvcruntime:undname.obj
 0002:00002004       ??_C@_0CG@HLDDJMAG@?$GAeh?5vector?5copy?5constructor?5ite@ 10021004     libvcruntime:undname.obj
 0002:0000202c       ??_C@_0CM@FCBBDIGB@?$GAeh?5vector?5vbase?5copy?5construct@ 1002102c     libvcruntime:undname.obj
 0002:00002058       ??_C@_0BL@CLIPGLGB@?$GAdynamic?5initializer?5for?5?8@ 10021058     libvcruntime:undname.obj
 0002:00002074       ??_C@_0CB@PDBIFEP@?$GAdynamic?5atexit?5destructor?5for?5@ 10021074     libvcruntime:undname.obj
 0002:00002098       ??_C@_0CD@CGAJBKEJ@?$GAvector?5copy?5constructor?5iterat@ 10021098     libvcruntime:undname.obj
 0002:000020bc       ??_C@_0CJ@GJELGAMM@?$GAvector?5vbase?5copy?5constructor?5@ 100210bc     libvcruntime:undname.obj
 0002:000020e8       ??_C@_0CL@FGIJHLCE@?$GAmanaged?5vector?5copy?5constructo@ 100210e8     libvcruntime:undname.obj
 0002:00002114       ??_C@_0BM@PMGGMLDN@?$GAlocal?5static?5thread?5guard?8@ 10021114     libvcruntime:undname.obj
 0002:00002130       ??_C@_0N@BDNMDMOL@operator?5?$CC?$CC?5@ 10021130     libvcruntime:undname.obj
 0002:00002140       ??_C@_0BC@GGEBGALA@operator?5co_await@ 10021140     libvcruntime:undname.obj
 0002:00002154       ??_C@_0M@GAAIMMOH@operator?$DM?$DN?$DO@ 10021154     libvcruntime:undname.obj
 0002:00002160       ??_C@_0BC@DAFEJGAK@?5Type?5Descriptor?8@ 10021160     libvcruntime:undname.obj
 0002:00002174       ??_C@_0BM@LDKODKLH@?5Base?5Class?5Descriptor?5at?5?$CI@ 10021174     libvcruntime:undname.obj
 0002:00002190       ??_C@_0BD@LGICGFMM@?5Base?5Class?5Array?8@ 10021190     libvcruntime:undname.obj
 0002:000021a4       ??_C@_0BN@MECKDCOJ@?5Class?5Hierarchy?5Descriptor?8@ 100211a4     libvcruntime:undname.obj
 0002:000021c4       ??_C@_0BK@CFCOFLF@?5Complete?5Object?5Locator?8@ 100211c4     libvcruntime:undname.obj
 0002:000021ec       ??_C@_1DM@KHCHBNEB@?$AAa?$AAp?$AAi?$AA?9?$AAm?$AAs?$AA?9?$AAw?$AAi?$AAn?$AA?9?$AAc?$AAo?$AAr?$AAe@ 100211ec     libvcruntime:winapi_downlevel.obj
 0002:00002228       ??_C@_1DK@LPPGFMPP@?$AAa?$AAp?$AAi?$AA?9?$AAm?$AAs?$AA?9?$AAw?$AAi?$AAn?$AA?9?$AAc?$AAo?$AAr?$AAe@ 10021228     libvcruntime:winapi_downlevel.obj
 0002:00002264       ??_C@_1BC@GDMECMAK@?$AAk?$AAe?$AAr?$AAn?$AAe?$AAl?$AA3?$AA2@ 10021264     libvcruntime:winapi_downlevel.obj
 0002:00002278       ??_C@_1BA@PFFKHIOG@?$AAa?$AAp?$AAi?$AA?9?$AAm?$AAs?$AA?9@ 10021278     libvcruntime:winapi_downlevel.obj
 0002:00002290       ??_C@_08KNHFBNJ@FlsAlloc@  10021290     libvcruntime:winapi_downlevel.obj
 0002:000022a4       ??_C@_07PEJMOBNF@FlsFree@  100212a4     libvcruntime:winapi_downlevel.obj
 0002:000022b4       ??_C@_0M@GDNOONDI@FlsGetValue@ 100212b4     libvcruntime:winapi_downlevel.obj
 0002:000022c8       ??_C@_0M@JCPCPOEF@FlsSetValue@ 100212c8     libvcruntime:winapi_downlevel.obj
 0002:000022dc       ??_C@_0BM@HCFOFFN@InitializeCriticalSectionEx@ 100212dc     libvcruntime:winapi_downlevel.obj
 0002:000022f8       __pDestructExceptionObject 100212f8     libvcruntime:ehhelpers.obj
 0002:00002468       _format_validation_lookup_table 10021468     libucrt:output.obj
 0002:000024c4       ??_C@_1O@CEDCILHN@?$AA?$CI?$AAn?$AAu?$AAl?$AAl?$AA?$CJ@ 100214c4     libucrt:output.obj
 0002:000024d4       ??_C@_06OJHGLDPL@?$CInull?$CJ@ 100214d4     libucrt:output.obj
 0002:000024e0       ___acrt_exception_action_table 100214e0     libucrt:exception_filter.obj
 0002:00002570       ___acrt_signal_action_table_count 10021570     libucrt:exception_filter.obj
 0002:00002574       ___acrt_signal_action_first_fpe_index 10021574     libucrt:exception_filter.obj
 0002:00002578       ___acrt_signal_action_fpe_count 10021578     libucrt:exception_filter.obj
 0002:0000257c       ??_C@_1BI@BGOHAHKC@?$AAm?$AAs?$AAc?$AAo?$AAr?$AAe?$AAe?$AA?4?$AAd?$AAl?$AAl@ 1002157c     libucrt:exit.obj
 0002:00002594       ??_C@_0P@MIGLKIOC@CorExitProcess@ 10021594     libucrt:exit.obj
 0002:00002678       ??_C@_1EA@JGEFHKEI@?$AAa?$AAp?$AAi?$AA?9?$AAm?$AAs?$AA?9?$AAw?$AAi?$AAn?$AA?9?$AAc?$AAo?$AAr?$AAe@ 10021678     libucrt:winapi_thunks.obj
 0002:000026b8       ??_C@_1DI@IJCEHOCB@?$AAa?$AAp?$AAi?$AA?9?$AAm?$AAs?$AA?9?$AAw?$AAi?$AAn?$AA?9?$AAc?$AAo?$AAr?$AAe@ 100216b8     libucrt:winapi_thunks.obj
 0002:000026f0       ??_C@_1EI@MPIAOHOC@?$AAa?$AAp?$AAi?$AA?9?$AAm?$AAs?$AA?9?$AAw?$AAi?$AAn?$AA?9?$AAc?$AAo?$AAr?$AAe@ 100216f0     libucrt:winapi_thunks.obj
 0002:00002738       ??_C@_1FK@FPHCKFIE@?$AAa?$AAp?$AAi?$AA?9?$AAm?$AAs?$AA?9?$AAw?$AAi?$AAn?$AA?9?$AAc?$AAo?$AAr?$AAe@ 10021738     libucrt:winapi_thunks.obj
 0002:00002798       ??_C@_1EM@DILCGIIO@?$AAa?$AAp?$AAi?$AA?9?$AAm?$AAs?$AA?9?$AAw?$AAi?$AAn?$AA?9?$AAc?$AAo?$AAr?$AAe@ 10021798     libucrt:winapi_thunks.obj
 0002:000027e4       ??_C@_1DM@LNCGDDPN@?$AAa?$AAp?$AAi?$AA?9?$AAm?$AAs?$AA?9?$AAw?$AAi?$AAn?$AA?9?$AAc?$AAo?$AAr?$AAe@ 100217e4     libucrt:winapi_thunks.obj
 0002:00002820       ??_C@_1DO@FPAPJEMD@?$AAa?$AAp?$AAi?$AA?9?$AAm?$AAs?$AA?9?$AAw?$AAi?$AAn?$AA?9?$AAc?$AAo?$AAr?$AAe@ 10021820     libucrt:winapi_thunks.obj
 0002:00002860       ??_C@_1DK@NDHNAHIO@?$AAa?$AAp?$AAi?$AA?9?$AAm?$AAs?$AA?9?$AAw?$AAi?$AAn?$AA?9?$AAc?$AAo?$AAr?$AAe@ 10021860     libucrt:winapi_thunks.obj
 0002:0000289c       ??_C@_1DM@KGHDGBCM@?$AAa?$AAp?$AAi?$AA?9?$AAm?$AAs?$AA?9?$AAw?$AAi?$AAn?$AA?9?$AAc?$AAo?$AAr?$AAe@ 1002189c     libucrt:winapi_thunks.obj
 0002:000028d8       ??_C@_1EO@IJIOEFOH@?$AAa?$AAp?$AAi?$AA?9?$AAm?$AAs?$AA?9?$AAw?$AAi?$AAn?$AA?9?$AAr?$AAt?$AAc?$AAo@ 100218d8     libucrt:winapi_thunks.obj
 0002:00002928       ??_C@_1FG@HHGEKANL@?$AAa?$AAp?$AAi?$AA?9?$AAm?$AAs?$AA?9?$AAw?$AAi?$AAn?$AA?9?$AAs?$AAe?$AAc?$AAu@ 10021928     libucrt:winapi_thunks.obj
 0002:00002980       ??_C@_1EG@DBIOJECG@?$AAe?$AAx?$AAt?$AA?9?$AAm?$AAs?$AA?9?$AAw?$AAi?$AAn?$AA?9?$AAn?$AAt?$AAu?$AAs@ 10021980     libucrt:winapi_thunks.obj
 0002:000029c8       ??_C@_1EO@FIHMJCLF@?$AAe?$AAx?$AAt?$AA?9?$AAm?$AAs?$AA?9?$AAw?$AAi?$AAn?$AA?9?$AAn?$AAt?$AAu?$AAs@ 100219c8     libucrt:winapi_thunks.obj
 0002:00002a18       ??_C@_1BC@DNHGCMLG@?$AAa?$AAd?$AAv?$AAa?$AAp?$AAi?$AA3?$AA2@ 10021a18     libucrt:winapi_thunks.obj
 0002:00002a2c       ??_C@_1M@OAIMIKLP@?$AAn?$AAt?$AAd?$AAl?$AAl@ 10021a2c     libucrt:winapi_thunks.obj
 0002:00002a38       ??_C@_1EG@DPGNFKGC@?$AAa?$AAp?$AAi?$AA?9?$AAm?$AAs?$AA?9?$AAw?$AAi?$AAn?$AA?9?$AAa?$AAp?$AAp?$AAm@ 10021a38     libucrt:winapi_thunks.obj
 0002:00002a80       ??_C@_1O@BCCLBEOE@?$AAu?$AAs?$AAe?$AAr?$AA3?$AA2@ 10021a80     libucrt:winapi_thunks.obj
 0002:00002a90       ??_C@_1BA@IAIFMGEF@?$AAe?$AAx?$AAt?$AA?9?$AAm?$AAs?$AA?9@ 10021a90     libucrt:winapi_thunks.obj
 0002:00002aa4       ??_C@_0BA@FHFNEAED@AreFileApisANSI@ 10021aa4     libucrt:winapi_thunks.obj
 0002:00002ae4       ??_C@_0O@KKBNKAPF@LCMapStringEx@ 10021ae4     libucrt:winapi_thunks.obj
 0002:00002afc       ??_C@_0BB@HBDEELFH@LocaleNameToLCID@ 10021afc     libucrt:winapi_thunks.obj
 0002:00002b14       ??_C@_0CF@OJOFEIGO@AppPolicyGetProcessTerminationM@ 10021b14     libucrt:winapi_thunks.obj
 0002:00002b44       ??_C@_0BI@BKLFFAPO@SetThreadStackGuarantee@ 10021b44     libucrt:winapi_thunks.obj
 0002:00002ba0       ??_C@_03OEIAHPBN@INF@      10021ba0     libucrt:cvt.obj
 0002:00002ba4       ??_C@_03OJHLLCGB@inf@      10021ba4     libucrt:cvt.obj
 0002:00002ba8       ??_C@_03LKNCIKJB@NAN@      10021ba8     libucrt:cvt.obj
 0002:00002bac       ??_C@_03LHCJEHON@nan@      10021bac     libucrt:cvt.obj
 0002:00002bb0       ??_C@_09OFJJIMPC@NAN?$CISNAN?$CJ@ 10021bb0     libucrt:cvt.obj
 0002:00002bbc       ??_C@_09IPFBKMDL@nan?$CIsnan?$CJ@ 10021bbc     libucrt:cvt.obj
 0002:00002bc8       ??_C@_08IKHNHAJ@NAN?$CIIND?$CJ@ 10021bc8     libucrt:cvt.obj
 0002:00002bd4       ??_C@_08OFCDMILK@nan?$CIind?$CJ@ 10021bd4     libucrt:cvt.obj
 0002:00002be0       ??_C@_05KLBDPFGC@e?$CL000@ 10021be0     libucrt:cvt.obj
 0002:00002be8       ___lc_time_c               10021be8     libucrt:nlsdata.obj
 0002:00002d4c       ??_C@_03KOEHGMDN@Sun@      10021d4c     libucrt:nlsdata.obj
 0002:00002d50       ??_C@_03PDAGKDH@Mon@       10021d50     libucrt:nlsdata.obj
 0002:00002d54       ??_C@_03NAGEINEP@Tue@      10021d54     libucrt:nlsdata.obj
 0002:00002d58       ??_C@_03MHOMLAJA@Wed@      10021d58     libucrt:nlsdata.obj
 0002:00002d5c       ??_C@_03IOFIKPDN@Thu@      10021d5c     libucrt:nlsdata.obj
 0002:00002d60       ??_C@_03IDIOELNC@Fri@      10021d60     libucrt:nlsdata.obj
 0002:00002d64       ??_C@_03FEFJNEK@Sat@       10021d64     libucrt:nlsdata.obj
 0002:00002d68       ??_C@_06OOPIFAJ@Sunday@    10021d68     libucrt:nlsdata.obj
 0002:00002d70       ??_C@_06JLEDEDGH@Monday@   10021d70     libucrt:nlsdata.obj
 0002:00002d78       ??_C@_07BAAGCFCM@Tuesday@  10021d78     libucrt:nlsdata.obj
 0002:00002d80       ??_C@_09DLIGFAKA@Wednesday@ 10021d80     libucrt:nlsdata.obj
 0002:00002d8c       ??_C@_08HACCIKIA@Thursday@ 10021d8c     libucrt:nlsdata.obj
 0002:00002d98       ??_C@_06JECMNKMI@Friday@   10021d98     libucrt:nlsdata.obj
 0002:00002da0       ??_C@_08INBOOONO@Saturday@ 10021da0     libucrt:nlsdata.obj
 0002:00002dac       ??_C@_03JIHJHPIE@Jan@      10021dac     libucrt:nlsdata.obj
 0002:00002db0       ??_C@_03HJBDCHOM@Feb@      10021db0     libucrt:nlsdata.obj
 0002:00002db4       ??_C@_03ODNJBKGA@Mar@      10021db4     libucrt:nlsdata.obj
 0002:00002db8       ??_C@_03LEOLGMJP@Apr@      10021db8     libucrt:nlsdata.obj
 0002:00002dbc       ??_C@_03CNMDKL@May@        10021dbc     libucrt:nlsdata.obj
 0002:00002dc0       ??_C@_03IDFGHECI@Jun@      10021dc0     libucrt:nlsdata.obj
 0002:00002dc4       ??_C@_03LBGABGKK@Jul@      10021dc4     libucrt:nlsdata.obj
 0002:00002dc8       ??_C@_03IFJFEIGA@Aug@      10021dc8     libucrt:nlsdata.obj
 0002:00002dcc       ??_C@_03GGCAPAJC@Sep@      10021dcc     libucrt:nlsdata.obj
 0002:00002dd0       ??_C@_03BMAOKBAD@Oct@      10021dd0     libucrt:nlsdata.obj
 0002:00002dd4       ??_C@_03JPJOFNIA@Nov@      10021dd4     libucrt:nlsdata.obj
 0002:00002dd8       ??_C@_03MKABNOCG@Dec@      10021dd8     libucrt:nlsdata.obj
 0002:00002ddc       ??_C@_07CGJPFGJA@January@  10021ddc     libucrt:nlsdata.obj
 0002:00002de4       ??_C@_08GNJGEPFN@February@ 10021de4     libucrt:nlsdata.obj
 0002:00002df0       ??_C@_05HPCKOFNC@March@    10021df0     libucrt:nlsdata.obj
 0002:00002df8       ??_C@_05DMJDNLEJ@April@    10021df8     libucrt:nlsdata.obj
 0002:00002e00       ??_C@_04CNLMGBGM@June@     10021e00     libucrt:nlsdata.obj
 0002:00002e08       ??_C@_04MIEPOIFP@July@     10021e08     libucrt:nlsdata.obj
 0002:00002e10       ??_C@_06LBBHFDDG@August@   10021e10     libucrt:nlsdata.obj
 0002:00002e18       ??_C@_09BHHEALKD@September@ 10021e18     libucrt:nlsdata.obj
 0002:00002e24       ??_C@_07JJNFCEND@October@  10021e24     libucrt:nlsdata.obj
 0002:00002e2c       ??_C@_08HCHEGEOA@November@ 10021e2c     libucrt:nlsdata.obj
 0002:00002e38       ??_C@_08EDHMEBNP@December@ 10021e38     libucrt:nlsdata.obj
 0002:00002e44       ??_C@_02DEDBPAFC@AM@       10021e44     libucrt:nlsdata.obj
 0002:00002e48       ??_C@_02CJNFDJBF@PM@       10021e48     libucrt:nlsdata.obj
 0002:00002e4c       ??_C@_08BPBNCDIB@MM?1dd?1yy@ 10021e4c     libucrt:nlsdata.obj
 0002:00002e58       ??_C@_0BE@CKGJFCPC@dddd?0?5MMMM?5dd?0?5yyyy@ 10021e58     libucrt:nlsdata.obj
 0002:00002e6c       ??_C@_08JCCMCCIL@HH?3mm?3ss@ 10021e6c     libucrt:nlsdata.obj
 0002:00002e78       ??_C@_17MBGCMIPB@?$AAS?$AAu?$AAn@ 10021e78     libucrt:nlsdata.obj
 0002:00002e80       ??_C@_17KBOMKBF@?$AAM?$AAo?$AAn@ 10021e80     libucrt:nlsdata.obj
 0002:00002e88       ??_C@_17BMKGEGOJ@?$AAT?$AAu?$AAe@ 10021e88     libucrt:nlsdata.obj
 0002:00002e90       ??_C@_17CJEDCEPE@?$AAW?$AAe?$AAd@ 10021e90     libucrt:nlsdata.obj
 0002:00002e98       ??_C@_17PDPHAADD@?$AAT?$AAh?$AAu@ 10021e98     libucrt:nlsdata.obj
 0002:00002ea0       ??_C@_17HFOLPPLP@?$AAF?$AAr?$AAi@ 10021ea0     libucrt:nlsdata.obj
 0002:00002ea8       ??_C@_17GGIBDPIH@?$AAS?$AAa?$AAt@ 10021ea8     libucrt:nlsdata.obj
 0002:00002eb0       ??_C@_1O@IHNHDHPB@?$AAS?$AAu?$AAn?$AAd?$AAa?$AAy@ 10021eb0     libucrt:nlsdata.obj
 0002:00002ec0       ??_C@_1O@MMNBFLIA@?$AAM?$AAo?$AAn?$AAd?$AAa?$AAy@ 10021ec0     libucrt:nlsdata.obj
 0002:00002ed0       ??_C@_1BA@ENFBFFEK@?$AAT?$AAu?$AAe?$AAs?$AAd?$AAa?$AAy@ 10021ed0     libucrt:nlsdata.obj
 0002:00002ee0       ??_C@_1BE@EBOGMDOH@?$AAW?$AAe?$AAd?$AAn?$AAe?$AAs?$AAd?$AAa?$AAy@ 10021ee0     libucrt:nlsdata.obj
 0002:00002ef4       ??_C@_1BC@HHMNLIHE@?$AAT?$AAh?$AAu?$AAr?$AAs?$AAd?$AAa?$AAy@ 10021ef4     libucrt:nlsdata.obj
 0002:00002f08       ??_C@_1O@PDICJHAG@?$AAF?$AAr?$AAi?$AAd?$AAa?$AAy@ 10021f08     libucrt:nlsdata.obj
 0002:00002f18       ??_C@_1BC@ENMNNPAJ@?$AAS?$AAa?$AAt?$AAu?$AAr?$AAd?$AAa?$AAy@ 10021f18     libucrt:nlsdata.obj
 0002:00002f2c       ??_C@_17DKNBKCHM@?$AAJ?$AAa?$AAn@ 10021f2c     libucrt:nlsdata.obj
 0002:00002f34       ??_C@_17LMDJEKJN@?$AAF?$AAe?$AAb@ 10021f34     libucrt:nlsdata.obj
 0002:00002f3c       ??_C@_17CKNLEDEC@?$AAM?$AAa?$AAr@ 10021f3c     libucrt:nlsdata.obj
 0002:00002f44       ??_C@_17LFPOIHDD@?$AAA?$AAp?$AAr@ 10021f44     libucrt:nlsdata.obj
 0002:00002f4c       ??_C@_17PNNKMEED@?$AAM?$AAa?$AAy@ 10021f4c     libucrt:nlsdata.obj
 0002:00002f54       ??_C@_17KCJGOCPB@?$AAJ?$AAu?$AAn@ 10021f54     libucrt:nlsdata.obj
 0002:00002f5c       ??_C@_17IJPCKHK@?$AAJ?$AAu?$AAl@ 10021f5c     libucrt:nlsdata.obj
 0002:00002f64       ??_C@_17ICPELBCN@?$AAA?$AAu?$AAg@ 10021f64     libucrt:nlsdata.obj
 0002:00002f6c       ??_C@_17HCHCOKMG@?$AAS?$AAe?$AAp@ 10021f6c     libucrt:nlsdata.obj
 0002:00002f74       ??_C@_17FNLKOI@?$AAO?$AAc?$AAt@ 10021f74     libucrt:nlsdata.obj
 0002:00002f7c       ??_C@_17BBDMLCIG@?$AAN?$AAo?$AAv@ 10021f7c     libucrt:nlsdata.obj
 0002:00002f84       ??_C@_17EGKACKIF@?$AAD?$AAe?$AAc@ 10021f84     libucrt:nlsdata.obj
 0002:00002f8c       ??_C@_1BA@EFMEIEBA@?$AAJ?$AAa?$AAn?$AAu?$AAa?$AAr?$AAy@ 10021f8c     libucrt:nlsdata.obj
 0002:00002f9c       ??_C@_1BC@JGDDFFAM@?$AAF?$AAe?$AAb?$AAr?$AAu?$AAa?$AAr?$AAy@ 10021f9c     libucrt:nlsdata.obj
 0002:00002fb0       ??_C@_1M@IKEENEDF@?$AAM?$AAa?$AAr?$AAc?$AAh@ 10021fb0     libucrt:nlsdata.obj
 0002:00002fbc       ??_C@_1M@GJNLMHFD@?$AAA?$AAp?$AAr?$AAi?$AAl@ 10021fbc     libucrt:nlsdata.obj
 0002:00002fc8       ??_C@_19EPFLPGAP@?$AAJ?$AAu?$AAn?$AAe@ 10021fc8     libucrt:nlsdata.obj
 0002:00002fd4       ??_C@_19BIFMLPCD@?$AAJ?$AAu?$AAl?$AAy@ 10021fd4     libucrt:nlsdata.obj
 0002:00002fe0       ??_C@_1O@PAHLKOAC@?$AAA?$AAu?$AAg?$AAu?$AAs?$AAt@ 10021fe0     libucrt:nlsdata.obj
 0002:00002ff0       ??_C@_1BE@DKAAMBJL@?$AAS?$AAe?$AAp?$AAt?$AAe?$AAm?$AAb?$AAe?$AAr@ 10021ff0     libucrt:nlsdata.obj
 0002:00003004       ??_C@_1BA@EPANDLNG@?$AAO?$AAc?$AAt?$AAo?$AAb?$AAe?$AAr@ 10022004     libucrt:nlsdata.obj
 0002:00003014       ??_C@_1BC@BGLIFPF@?$AAN?$AAo?$AAv?$AAe?$AAm?$AAb?$AAe?$AAr@ 10022014     libucrt:nlsdata.obj
 0002:00003028       ??_C@_1BC@FEMKIFH@?$AAD?$AAe?$AAc?$AAe?$AAm?$AAb?$AAe?$AAr@ 10022028     libucrt:nlsdata.obj
 0002:0000303c       ??_C@_15ODEHAHHF@?$AAA?$AAM@ 1002203c     libucrt:nlsdata.obj
 0002:00003044       ??_C@_15CLMNNGEL@?$AAP?$AAM@ 10022044     libucrt:nlsdata.obj
 0002:0000304c       ??_C@_1BC@IEBCMHCM@?$AAM?$AAM?$AA?1?$AAd?$AAd?$AA?1?$AAy?$AAy@ 1002204c     libucrt:nlsdata.obj
 0002:00003060       ??_C@_1CI@KNAKOEBC@?$AAd?$AAd?$AAd?$AAd?$AA?0?$AA?5?$AAM?$AAM?$AAM?$AAM?$AA?5?$AAd?$AAd?$AA?0?$AA?5@ 10022060     libucrt:nlsdata.obj
 0002:00003088       ??_C@_1BC@GDGBMEMK@?$AAH?$AAH?$AA?3?$AAm?$AAm?$AA?3?$AAs?$AAs@ 10022088     libucrt:nlsdata.obj
 0002:0000309c       ??_C@_1M@BMHNFIME@?$AAe?$AAn?$AA?9?$AAU?$AAS@ 1002209c     libucrt:nlsdata.obj
 0002:000030b8       ??_C@_1M@HPNHIDJI@?$AAj?$AAa?$AA?9?$AAJ?$AAP@ 100220b8     libucrt:mbctype.obj
 0002:000030c4       ??_C@_1M@BIBDDEMK@?$AAz?$AAh?$AA?9?$AAC?$AAN@ 100220c4     libucrt:mbctype.obj
 0002:000030d0       ??_C@_1M@JLOOOEGK@?$AAk?$AAo?$AA?9?$AAK?$AAR@ 100220d0     libucrt:mbctype.obj
 0002:000030dc       ??_C@_1M@CLNBBOPM@?$AAz?$AAh?$AA?9?$AAT?$AAW@ 100220dc     libucrt:mbctype.obj
 0002:000030e8       ___newctype                100220e8     libucrt:ctype.obj
 0002:000033e8       ___newclmap                100223e8     libucrt:ctype.obj
 0002:00003568       ___newcumap                10022568     libucrt:ctype.obj
 0002:000036e8       __wctype                   100226e8     libucrt:ctype.obj
 0002:00004010       ??_C@_15EMKDOKLE@?$AAa?$AAr@ 10023010     libucrt:lcidtoname_downlevel.obj
 0002:00004018       ??_C@_15KNPADPLH@?$AAb?$AAg@ 10023018     libucrt:lcidtoname_downlevel.obj
 0002:00004020       ??_C@_15EDMHLDMO@?$AAc?$AAa@ 10023020     libucrt:lcidtoname_downlevel.obj
 0002:00004028       ??_C@_1O@BPEAJADD@?$AAz?$AAh?$AA?9?$AAC?$AAH?$AAS@ 10023028     libucrt:lcidtoname_downlevel.obj
 0002:00004038       ??_C@_15LJNHCMNK@?$AAc?$AAs@ 10023038     libucrt:lcidtoname_downlevel.obj
 0002:00004040       ??_C@_15FOMCIDHG@?$AAd?$AAa@ 10023040     libucrt:lcidtoname_downlevel.obj
 0002:00004048       ??_C@_15NBKABECB@?$AAd?$AAe@ 10023048     libucrt:lcidtoname_downlevel.obj
 0002:00004050       ??_C@_15GHPEIIAO@?$AAe?$AAl@ 10023050     libucrt:lcidtoname_downlevel.obj
 0002:00004058       ??_C@_15MNPNEAIF@?$AAe?$AAn@ 10023058     libucrt:lcidtoname_downlevel.obj
 0002:00004060       ??_C@_15GPIOMPMH@?$AAe?$AAs@ 10023060     libucrt:lcidtoname_downlevel.obj
 0002:00004068       ??_C@_15NGLOAKJC@?$AAf?$AAi@ 10023068     libucrt:lcidtoname_downlevel.obj
 0002:00004070       ??_C@_15FBKGNKAM@?$AAf?$AAr@ 10023070     libucrt:lcidtoname_downlevel.obj
 0002:00004078       ??_C@_15KGGCNEFK@?$AAh?$AAe@ 10023078     libucrt:lcidtoname_downlevel.obj
 0002:00004080       ??_C@_15PGHLIDMF@?$AAh?$AAu@ 10023080     libucrt:lcidtoname_downlevel.obj
 0002:00004088       ??_C@_15BIEMAPLM@?$AAi?$AAs@ 10023088     libucrt:lcidtoname_downlevel.obj
 0002:00004090       ??_C@_15IFJLDHAF@?$AAi?$AAt@ 10023090     libucrt:lcidtoname_downlevel.obj
 0002:00004098       ??_C@_15GEMIOCAG@?$AAj?$AAa@ 10023098     libucrt:lcidtoname_downlevel.obj
 0002:000040a0       ??_C@_15EPELEGJA@?$AAk?$AAo@ 100230a0     libucrt:lcidtoname_downlevel.obj
 0002:000040a8       ??_C@_15NDDHIMN@?$AAn?$AAl@ 100230a8     libucrt:lcidtoname_downlevel.obj
 0002:000040b0       ??_C@_15BPIGNHCD@?$AAn?$AAo@ 100230b0     libucrt:lcidtoname_downlevel.obj
 0002:000040b8       ??_C@_15DEOPBLCG@?$AAp?$AAl@ 100230b8     libucrt:lcidtoname_downlevel.obj
 0002:000040c0       ??_C@_15KBECGEFG@?$AAp?$AAt@ 100230c0     libucrt:lcidtoname_downlevel.obj
 0002:000040c8       ??_C@_15GLJCBFMD@?$AAr?$AAo@ 100230c8     libucrt:lcidtoname_downlevel.obj
 0002:000040d0       ??_C@_15FEDGKCDI@?$AAr?$AAu@ 100230d0     libucrt:lcidtoname_downlevel.obj
 0002:000040d8       ??_C@_15GLKMLLHM@?$AAh?$AAr@ 100230d8     libucrt:lcidtoname_downlevel.obj
 0002:000040e0       ??_C@_15CPKMFBDB@?$AAs?$AAk@ 100230e0     libucrt:lcidtoname_downlevel.obj
 0002:000040e8       ??_C@_15BAAIOGMK@?$AAs?$AAq@ 100230e8     libucrt:lcidtoname_downlevel.obj
 0002:000040f0       ??_C@_15INNPNOHD@?$AAs?$AAv@ 100230f0     libucrt:lcidtoname_downlevel.obj
 0002:000040f8       ??_C@_15CABMMOGH@?$AAt?$AAh@ 100230f8     libucrt:lcidtoname_downlevel.obj
 0002:00004100       ??_C@_15BPLIHJJM@?$AAt?$AAr@ 10023100     libucrt:lcidtoname_downlevel.obj
 0002:00004108       ??_C@_15NEOEKKDJ@?$AAu?$AAr@ 10023108     libucrt:lcidtoname_downlevel.obj
 0002:00004110       ??_C@_15NFICGAJK@?$AAi?$AAd@ 10023110     libucrt:lcidtoname_downlevel.obj
 0002:00004118       ??_C@_15PJPFLCCM@?$AAu?$AAk@ 10023118     libucrt:lcidtoname_downlevel.obj
 0002:00004120       ??_C@_15HPJPHDM@?$AAb?$AAe@ 10023120     libucrt:lcidtoname_downlevel.obj
 0002:00004128       ??_C@_15LCHLGJII@?$AAs?$AAl@ 10023128     libucrt:lcidtoname_downlevel.obj
 0002:00004130       ??_C@_15PCFJPHHO@?$AAe?$AAt@ 10023130     libucrt:lcidtoname_downlevel.obj
 0002:00004138       ??_C@_15HPFPGODN@?$AAl?$AAv@ 10023138     libucrt:lcidtoname_downlevel.obj
 0002:00004140       ??_C@_15NFFGKGLG@?$AAl?$AAt@ 10023140     libucrt:lcidtoname_downlevel.obj
 0002:00004148       ??_C@_15BDAKCCHN@?$AAf?$AAa@ 10023148     libucrt:lcidtoname_downlevel.obj
 0002:00004150       ??_C@_15NFGIAIAJ@?$AAv?$AAi@ 10023150     libucrt:lcidtoname_downlevel.obj
 0002:00004158       ??_C@_15LMKNDMHN@?$AAh?$AAy@ 10023158     libucrt:lcidtoname_downlevel.obj
 0002:00004160       ??_C@_15IJBHMCFL@?$AAa?$AAz@ 10023160     libucrt:lcidtoname_downlevel.obj
 0002:00004168       ??_C@_15EKOFJABL@?$AAe?$AAu@ 10023168     libucrt:lcidtoname_downlevel.obj
 0002:00004170       ??_C@_15BGHADCNK@?$AAm?$AAk@ 10023170     libucrt:lcidtoname_downlevel.obj
 0002:00004178       ??_C@_15JDNICKHM@?$AAa?$AAf@ 10023178     libucrt:lcidtoname_downlevel.obj
 0002:00004180       ??_C@_15KPJEDBKD@?$AAk?$AAa@ 10023180     libucrt:lcidtoname_downlevel.obj
 0002:00004188       ??_C@_15PDNFFFEO@?$AAf?$AAo@ 10023188     libucrt:lcidtoname_downlevel.obj
 0002:00004190       ??_C@_15OMLEGLOC@?$AAh?$AAi@ 10023190     libucrt:lcidtoname_downlevel.obj
 0002:00004198       ??_C@_15IDNNENKK@?$AAm?$AAs@ 10023198     libucrt:lcidtoname_downlevel.obj
 0002:000041a0       ??_C@_15MACJNBMH@?$AAk?$AAk@ 100231a0     libucrt:lcidtoname_downlevel.obj
 0002:000041a8       ??_C@_15DKDJEOND@?$AAk?$AAy@ 100231a8     libucrt:lcidtoname_downlevel.obj
 0002:000041b0       ??_C@_15DFGDLJBG@?$AAs?$AAw@ 100231b0     libucrt:lcidtoname_downlevel.obj
 0002:000041b8       ??_C@_15BBFAICNG@?$AAu?$AAz@ 100231b8     libucrt:lcidtoname_downlevel.obj
 0002:000041c0       ??_C@_15DKNDCGEA@?$AAt?$AAt@ 100231c0     libucrt:lcidtoname_downlevel.obj
 0002:000041c8       ??_C@_15MGIFMDPL@?$AAp?$AAa@ 100231c8     libucrt:lcidtoname_downlevel.obj
 0002:000041d0       ??_C@_15HCNDBBA@?$AAg?$AAu@ 100231d0     libucrt:lcidtoname_downlevel.obj
 0002:000041d8       ??_C@_15FNBEIBON@?$AAt?$AAa@ 100231d8     libucrt:lcidtoname_downlevel.obj
 0002:000041e0       ??_C@_15NCHGBGLK@?$AAt?$AAe@ 100231e0     libucrt:lcidtoname_downlevel.obj
 0002:000041e8       ??_C@_15PHPHCBPF@?$AAk?$AAn@ 100231e8     libucrt:lcidtoname_downlevel.obj
 0002:000041f0       ??_C@_15DLGBCKMP@?$AAm?$AAr@ 100231f0     libucrt:lcidtoname_downlevel.obj
 0002:000041f8       ??_C@_15EABBLBFF@?$AAs?$AAa@ 100231f8     libucrt:lcidtoname_downlevel.obj
 0002:00004200       ??_C@_15CBKOMCOI@?$AAm?$AAn@ 10023200     libucrt:lcidtoname_downlevel.obj
 0002:00004208       ??_C@_15CKDMCJAF@?$AAg?$AAl@ 10023208     libucrt:lcidtoname_downlevel.obj
 0002:00004210       ??_C@_17CNJFBPG@?$AAk?$AAo?$AAk@ 10023210     libucrt:lcidtoname_downlevel.obj
 0002:00004218       ??_C@_17FFBJICPL@?$AAs?$AAy?$AAr@ 10023218     libucrt:lcidtoname_downlevel.obj
 0002:00004220       ??_C@_17KPNDCPAF@?$AAd?$AAi?$AAv@ 10023220     libucrt:lcidtoname_downlevel.obj
 0002:00004228       ??_C@_1M@OKAHONE@?$AAa?$AAr?$AA?9?$AAS?$AAA@ 10023228     libucrt:lcidtoname_downlevel.obj
 0002:00004234       ??_C@_1M@FFFIGIGK@?$AAb?$AAg?$AA?9?$AAB?$AAG@ 10023234     libucrt:lcidtoname_downlevel.obj
 0002:00004240       ??_C@_1M@BJNKEDC@?$AAc?$AAa?$AA?9?$AAE?$AAS@ 10023240     libucrt:lcidtoname_downlevel.obj
 0002:0000424c       ??_C@_1M@IJJHFJHA@?$AAc?$AAs?$AA?9?$AAC?$AAZ@ 1002324c     libucrt:lcidtoname_downlevel.obj
 0002:00004258       ??_C@_1M@CLPEOBGI@?$AAd?$AAa?$AA?9?$AAD?$AAK@ 10023258     libucrt:lcidtoname_downlevel.obj
 0002:00004264       ??_C@_1M@MCMADGCB@?$AAd?$AAe?$AA?9?$AAD?$AAE@ 10023264     libucrt:lcidtoname_downlevel.obj
 0002:00004270       ??_C@_1M@OOCKEMAM@?$AAe?$AAl?$AA?9?$AAG?$AAR@ 10023270     libucrt:lcidtoname_downlevel.obj
 0002:0000427c       ??_C@_1M@DDNJFGID@?$AAf?$AAi?$AA?9?$AAF?$AAI@ 1002327c     libucrt:lcidtoname_downlevel.obj
 0002:00004288       ??_C@_1M@GLIPPMAC@?$AAf?$AAr?$AA?9?$AAF?$AAR@ 10023288     libucrt:lcidtoname_downlevel.obj
 0002:00004294       ??_C@_1M@GFMCHPE@?$AAh?$AAe?$AA?9?$AAI?$AAL@ 10023294     libucrt:lcidtoname_downlevel.obj
 0002:000042a0       ??_C@_1M@MHLPGNKM@?$AAh?$AAu?$AA?9?$AAH?$AAU@ 100232a0     libucrt:lcidtoname_downlevel.obj
 0002:000042ac       ??_C@_1M@LPDDNNPN@?$AAi?$AAs?$AA?9?$AAI?$AAS@ 100232ac     libucrt:lcidtoname_downlevel.obj
 0002:000042b8       ??_C@_1M@MADIPODN@?$AAi?$AAt?$AA?9?$AAI?$AAT@ 100232b8     libucrt:lcidtoname_downlevel.obj
 0002:000042c4       ??_C@_1M@IHBJJGG@?$AAn?$AAl?$AA?9?$AAN?$AAL@ 100232c4     libucrt:lcidtoname_downlevel.obj
 0002:000042d0       ??_C@_1M@EANAGDL@?$AAn?$AAb?$AA?9?$AAN?$AAO@ 100232d0     libucrt:lcidtoname_downlevel.obj
 0002:000042dc       ??_C@_1M@NEIEMEGP@?$AAp?$AAl?$AA?9?$AAP?$AAL@ 100232dc     libucrt:lcidtoname_downlevel.obj
 0002:000042e8       ??_C@_1M@BOCFIGEP@?$AAp?$AAt?$AA?9?$AAB?$AAR@ 100232e8     libucrt:lcidtoname_downlevel.obj
 0002:000042f4       ??_C@_1M@IMPFOPBG@?$AAr?$AAo?$AA?9?$AAR?$AAO@ 100232f4     libucrt:lcidtoname_downlevel.obj
 0002:00004300       ??_C@_1M@IDNNEJMM@?$AAr?$AAu?$AA?9?$AAR?$AAU@ 10023300     libucrt:lcidtoname_downlevel.obj
 0002:0000430c       ??_C@_1M@LILEEOGM@?$AAh?$AAr?$AA?9?$AAH?$AAR@ 1002330c     libucrt:lcidtoname_downlevel.obj
 0002:00004318       ??_C@_1M@FKIFEHPB@?$AAs?$AAk?$AA?9?$AAS?$AAK@ 10023318     libucrt:lcidtoname_downlevel.obj
 0002:00004324       ??_C@_1M@LJMAMNPJ@?$AAs?$AAq?$AA?9?$AAA?$AAL@ 10023324     libucrt:lcidtoname_downlevel.obj
 0002:00004330       ??_C@_1M@GIAKDKJK@?$AAs?$AAv?$AA?9?$AAS?$AAE@ 10023330     libucrt:lcidtoname_downlevel.obj
 0002:0000433c       ??_C@_1M@MKJKIKCL@?$AAt?$AAh?$AA?9?$AAT?$AAH@ 1002333c     libucrt:lcidtoname_downlevel.obj
 0002:00004348       ??_C@_1M@MFLCCMPB@?$AAt?$AAr?$AA?9?$AAT?$AAR@ 10023348     libucrt:lcidtoname_downlevel.obj
 0002:00004354       ??_C@_1M@OIJHDKJN@?$AAu?$AAr?$AA?9?$AAP?$AAK@ 10023354     libucrt:lcidtoname_downlevel.obj
 0002:00004360       ??_C@_1M@LHIPCIEK@?$AAi?$AAd?$AA?9?$AAI?$AAD@ 10023360     libucrt:lcidtoname_downlevel.obj
 0002:0000436c       ??_C@_1M@MFMOBGI@?$AAu?$AAk?$AA?9?$AAU?$AAA@ 1002336c     libucrt:lcidtoname_downlevel.obj
 0002:00004378       ??_C@_1M@OBGLJIPL@?$AAb?$AAe?$AA?9?$AAB?$AAY@ 10023378     libucrt:lcidtoname_downlevel.obj
 0002:00004384       ??_C@_1M@BCFAJEAD@?$AAs?$AAl?$AA?9?$AAS?$AAI@ 10023384     libucrt:lcidtoname_downlevel.obj
 0002:00004390       ??_C@_1M@FKFFEDDN@?$AAe?$AAt?$AA?9?$AAE?$AAE@ 10023390     libucrt:lcidtoname_downlevel.obj
 0002:0000439c       ??_C@_1M@KGKKAACI@?$AAl?$AAv?$AA?9?$AAL?$AAV@ 1002339c     libucrt:lcidtoname_downlevel.obj
 0002:000043a8       ??_C@_1M@IFGBIJO@?$AAl?$AAt?$AA?9?$AAL?$AAT@ 100233a8     libucrt:lcidtoname_downlevel.obj
 0002:000043b4       ??_C@_1M@FGEAHEDM@?$AAf?$AAa?$AA?9?$AAI?$AAR@ 100233b4     libucrt:lcidtoname_downlevel.obj
 0002:000043c0       ??_C@_1M@KBMAIBFN@?$AAv?$AAi?$AA?9?$AAV?$AAN@ 100233c0     libucrt:lcidtoname_downlevel.obj
 0002:000043cc       ??_C@_1M@GPCBKDJK@?$AAh?$AAy?$AA?9?$AAA?$AAM@ 100233cc     libucrt:lcidtoname_downlevel.obj
 0002:000043d8       ??_C@_1BG@BECMDDJB@?$AAa?$AAz?$AA?9?$AAA?$AAZ?$AA?9?$AAL?$AAa?$AAt?$AAn@ 100233d8     libucrt:lcidtoname_downlevel.obj
 0002:000043f0       ??_C@_1M@MAOFCAEA@?$AAe?$AAu?$AA?9?$AAE?$AAS@ 100233f0     libucrt:lcidtoname_downlevel.obj
 0002:000043fc       ??_C@_1M@IGHABKPI@?$AAm?$AAk?$AA?9?$AAM?$AAK@ 100233fc     libucrt:lcidtoname_downlevel.obj
 0002:00004408       ??_C@_1M@IAIGNEJG@?$AAt?$AAn?$AA?9?$AAZ?$AAA@ 10023408     libucrt:lcidtoname_downlevel.obj
 0002:00004414       ??_C@_1M@IIJCOJFA@?$AAx?$AAh?$AA?9?$AAZ?$AAA@ 10023414     libucrt:lcidtoname_downlevel.obj
 0002:00004420       ??_C@_1M@LGPJHNJH@?$AAz?$AAu?$AA?9?$AAZ?$AAA@ 10023420     libucrt:lcidtoname_downlevel.obj
 0002:0000442c       ??_C@_1M@HOKAOIO@?$AAa?$AAf?$AA?9?$AAZ?$AAA@ 1002342c     libucrt:lcidtoname_downlevel.obj
 0002:00004438       ??_C@_1M@DPCLHLIE@?$AAk?$AAa?$AA?9?$AAG?$AAE@ 10023438     libucrt:lcidtoname_downlevel.obj
 0002:00004444       ??_C@_1M@BLKMHJBI@?$AAf?$AAo?$AA?9?$AAF?$AAO@ 10023444     libucrt:lcidtoname_downlevel.obj
 0002:00004450       ??_C@_1M@LGGJAPPB@?$AAh?$AAi?$AA?9?$AAI?$AAN@ 10023450     libucrt:lcidtoname_downlevel.obj
 0002:0000445c       ??_C@_1M@FIKPIHFE@?$AAm?$AAt?$AA?9?$AAM?$AAT@ 1002345c     libucrt:lcidtoname_downlevel.obj
 0002:00004468       ??_C@_1M@HEGGPBFA@?$AAs?$AAe?$AA?9?$AAN?$AAO@ 10023468     libucrt:lcidtoname_downlevel.obj
 0002:00004474       ??_C@_1M@EIBJEEPA@?$AAm?$AAs?$AA?9?$AAM?$AAY@ 10023474     libucrt:lcidtoname_downlevel.obj
 0002:00004480       ??_C@_1M@FHLBGMPP@?$AAk?$AAk?$AA?9?$AAK?$AAZ@ 10023480     libucrt:lcidtoname_downlevel.obj
 0002:0000448c       ??_C@_1M@NGJJLCGI@?$AAk?$AAy?$AA?9?$AAK?$AAG@ 1002348c     libucrt:lcidtoname_downlevel.obj
 0002:00004498       ??_C@_1M@GIENNBFC@?$AAs?$AAw?$AA?9?$AAK?$AAE@ 10023498     libucrt:lcidtoname_downlevel.obj
 0002:000044a4       ??_C@_1BG@NDGMJIMJ@?$AAu?$AAz?$AA?9?$AAU?$AAZ?$AA?9?$AAL?$AAa?$AAt?$AAn@ 100234a4     libucrt:lcidtoname_downlevel.obj
 0002:000044bc       ??_C@_1M@IDCCIHBC@?$AAt?$AAt?$AA?9?$AAR?$AAU@ 100234bc     libucrt:lcidtoname_downlevel.obj
 0002:000044c8       ??_C@_1M@LOICPMOJ@?$AAb?$AAn?$AA?9?$AAI?$AAN@ 100234c8     libucrt:lcidtoname_downlevel.obj
 0002:000044d4       ??_C@_1M@KPKKNEAH@?$AAp?$AAa?$AA?9?$AAI?$AAN@ 100234d4     libucrt:lcidtoname_downlevel.obj
 0002:000044e0       ??_C@_1M@PJGPPBOG@?$AAg?$AAu?$AA?9?$AAI?$AAN@ 100234e0     libucrt:lcidtoname_downlevel.obj
 0002:000044ec       ??_C@_1M@KMKMOPHI@?$AAt?$AAa?$AA?9?$AAI?$AAN@ 100234ec     libucrt:lcidtoname_downlevel.obj
 0002:000044f8       ??_C@_1M@KFEHEPAC@?$AAt?$AAe?$AA?9?$AAI?$AAN@ 100234f8     libucrt:lcidtoname_downlevel.obj
 0002:00004504       ??_C@_1M@CDCLMGHI@?$AAk?$AAn?$AA?9?$AAI?$AAN@ 10023504     libucrt:lcidtoname_downlevel.obj
 0002:00004510       ??_C@_1M@MIODLDKF@?$AAm?$AAl?$AA?9?$AAI?$AAN@ 10023510     libucrt:lcidtoname_downlevel.obj
 0002:0000451c       ??_C@_1M@PBIEACPO@?$AAm?$AAr?$AA?9?$AAI?$AAN@ 1002351c     libucrt:lcidtoname_downlevel.obj
 0002:00004528       ??_C@_1M@NIDEAGPH@?$AAs?$AAa?$AA?9?$AAI?$AAN@ 10023528     libucrt:lcidtoname_downlevel.obj
 0002:00004534       ??_C@_1M@FHIHCBIO@?$AAm?$AAn?$AA?9?$AAM?$AAN@ 10023534     libucrt:lcidtoname_downlevel.obj
 0002:00004540       ??_C@_1M@JAIJPENP@?$AAc?$AAy?$AA?9?$AAG?$AAB@ 10023540     libucrt:lcidtoname_downlevel.obj
 0002:0000454c       ??_C@_1M@PHGFBEPN@?$AAg?$AAl?$AA?9?$AAE?$AAS@ 1002354c     libucrt:lcidtoname_downlevel.obj
 0002:00004558       ??_C@_1O@KPIPDNCP@?$AAk?$AAo?$AAk?$AA?9?$AAI?$AAN@ 10023558     libucrt:lcidtoname_downlevel.obj
 0002:00004568       ??_C@_1O@KNHJLDJA@?$AAs?$AAy?$AAr?$AA?9?$AAS?$AAY@ 10023568     libucrt:lcidtoname_downlevel.obj
 0002:00004578       ??_C@_1O@MKEKBLAH@?$AAd?$AAi?$AAv?$AA?9?$AAM?$AAV@ 10023578     libucrt:lcidtoname_downlevel.obj
 0002:00004588       ??_C@_1O@OHDCKDDF@?$AAq?$AAu?$AAz?$AA?9?$AAB?$AAO@ 10023588     libucrt:lcidtoname_downlevel.obj
 0002:00004598       ??_C@_1M@LEPJNLFD@?$AAn?$AAs?$AA?9?$AAZ?$AAA@ 10023598     libucrt:lcidtoname_downlevel.obj
 0002:000045a4       ??_C@_1M@OMLEIIJB@?$AAm?$AAi?$AA?9?$AAN?$AAZ@ 100235a4     libucrt:lcidtoname_downlevel.obj
 0002:000045b0       ??_C@_1M@PMPEAILG@?$AAa?$AAr?$AA?9?$AAI?$AAQ@ 100235b0     libucrt:lcidtoname_downlevel.obj
 0002:000045bc       ??_C@_1M@CNKPNOEE@?$AAd?$AAe?$AA?9?$AAC?$AAH@ 100235bc     libucrt:lcidtoname_downlevel.obj
 0002:000045c8       ??_C@_1M@LKMGMLKO@?$AAe?$AAn?$AA?9?$AAG?$AAB@ 100235c8     libucrt:lcidtoname_downlevel.obj
 0002:000045d4       ??_C@_1M@PGKJFFGL@?$AAe?$AAs?$AA?9?$AAM?$AAX@ 100235d4     libucrt:lcidtoname_downlevel.obj
 0002:000045e0       ??_C@_1M@DNNANBDC@?$AAf?$AAr?$AA?9?$AAB?$AAE@ 100235e0     libucrt:lcidtoname_downlevel.obj
 0002:000045ec       ??_C@_1M@HLGMDFHM@?$AAi?$AAt?$AA?9?$AAC?$AAH@ 100235ec     libucrt:lcidtoname_downlevel.obj
 0002:000045f8       ??_C@_1M@CLLBGJH@?$AAn?$AAl?$AA?9?$AAB?$AAE@ 100235f8     libucrt:lcidtoname_downlevel.obj
 0002:00004604       ??_C@_1M@BODBOGLF@?$AAn?$AAn?$AA?9?$AAN?$AAO@ 10023604     libucrt:lcidtoname_downlevel.obj
 0002:00004610       ??_C@_1M@HFFAHKAD@?$AAp?$AAt?$AA?9?$AAP?$AAT@ 10023610     libucrt:lcidtoname_downlevel.obj
 0002:0000461c       ??_C@_1BG@LNOAKHIE@?$AAs?$AAr?$AA?9?$AAS?$AAP?$AA?9?$AAL?$AAa?$AAt?$AAn@ 1002361c     libucrt:lcidtoname_downlevel.obj
 0002:00004634       ??_C@_1M@HBMHBGAK@?$AAs?$AAv?$AA?9?$AAF?$AAI@ 10023634     libucrt:lcidtoname_downlevel.obj
 0002:00004640       ??_C@_1BG@DGCJGJBE@?$AAa?$AAz?$AA?9?$AAA?$AAZ?$AA?9?$AAC?$AAy?$AAr?$AAl@ 10023640     libucrt:lcidtoname_downlevel.obj
 0002:00004658       ??_C@_1M@KEJDAAHB@?$AAs?$AAe?$AA?9?$AAS?$AAE@ 10023658     libucrt:lcidtoname_downlevel.obj
 0002:00004664       ??_C@_1M@HEIBJJAD@?$AAm?$AAs?$AA?9?$AAB?$AAN@ 10023664     libucrt:lcidtoname_downlevel.obj
 0002:00004670       ??_C@_1BG@PBGJMCEM@?$AAu?$AAz?$AA?9?$AAU?$AAZ?$AA?9?$AAC?$AAy?$AAr?$AAl@ 10023670     libucrt:lcidtoname_downlevel.obj
 0002:00004688       ??_C@_1O@LAOBCMDF@?$AAq?$AAu?$AAz?$AA?9?$AAE?$AAC@ 10023688     libucrt:lcidtoname_downlevel.obj
 0002:00004698       ??_C@_1M@POEEMAIO@?$AAa?$AAr?$AA?9?$AAE?$AAG@ 10023698     libucrt:lcidtoname_downlevel.obj
 0002:000046a4       ??_C@_1M@EFAKDEDL@?$AAz?$AAh?$AA?9?$AAH?$AAK@ 100236a4     libucrt:lcidtoname_downlevel.obj
 0002:000046b0       ??_C@_1M@HKKIJHGI@?$AAd?$AAe?$AA?9?$AAA?$AAT@ 100236b0     libucrt:lcidtoname_downlevel.obj
 0002:000046bc       ??_C@_1M@KBFBEHJF@?$AAe?$AAn?$AA?9?$AAA?$AAU@ 100236bc     libucrt:lcidtoname_downlevel.obj
 0002:000046c8       ??_C@_1M@MNPLFAAH@?$AAe?$AAs?$AA?9?$AAE?$AAS@ 100236c8     libucrt:lcidtoname_downlevel.obj
 0002:000046d4       ??_C@_1M@HJOOJFMA@?$AAf?$AAr?$AA?9?$AAC?$AAA@ 100236d4     libucrt:lcidtoname_downlevel.obj
 0002:000046e0       ??_C@_1BG@JPOFPNAB@?$AAs?$AAr?$AA?9?$AAS?$AAP?$AA?9?$AAC?$AAy?$AAr?$AAl@ 100236e0     libucrt:lcidtoname_downlevel.obj
 0002:000046f8       ??_C@_1M@LNFOCMOB@?$AAs?$AAe?$AA?9?$AAF?$AAI@ 100236f8     libucrt:lcidtoname_downlevel.obj
 0002:00004704       ??_C@_1O@MGJBOAMB@?$AAq?$AAu?$AAz?$AA?9?$AAP?$AAE@ 10023704     libucrt:lcidtoname_downlevel.obj
 0002:00004714       ??_C@_1M@GJINLBOK@?$AAa?$AAr?$AA?9?$AAL?$AAY@ 10023714     libucrt:lcidtoname_downlevel.obj
 0002:00004720       ??_C@_1M@GGMNHJNL@?$AAz?$AAh?$AA?9?$AAS?$AAG@ 10023720     libucrt:lcidtoname_downlevel.obj
 0002:0000472c       ??_C@_1M@HOIKODND@?$AAd?$AAe?$AA?9?$AAL?$AAU@ 1002372c     libucrt:lcidtoname_downlevel.obj
 0002:00004738       ??_C@_1M@DDOCCGFG@?$AAe?$AAn?$AA?9?$AAC?$AAA@ 10023738     libucrt:lcidtoname_downlevel.obj
 0002:00004744       ??_C@_1M@BNOEMJLF@?$AAe?$AAs?$AA?9?$AAG?$AAT@ 10023744     libucrt:lcidtoname_downlevel.obj
 0002:00004750       ??_C@_1M@EOGNKEK@?$AAf?$AAr?$AA?9?$AAC?$AAH@ 10023750     libucrt:lcidtoname_downlevel.obj
 0002:0000475c       ??_C@_1M@FLIDJFHL@?$AAh?$AAr?$AA?9?$AAB?$AAA@ 1002375c     libucrt:lcidtoname_downlevel.obj
 0002:00004768       ??_C@_1O@FMCELNAJ@?$AAs?$AAm?$AAj?$AA?9?$AAN?$AAO@ 10023768     libucrt:lcidtoname_downlevel.obj
 0002:00004778       ??_C@_1M@JHGLJMGJ@?$AAa?$AAr?$AA?9?$AAD?$AAZ@ 10023778     libucrt:lcidtoname_downlevel.obj
 0002:00004784       ??_C@_1M@JKKFDCNP@?$AAz?$AAh?$AA?9?$AAM?$AAO@ 10023784     libucrt:lcidtoname_downlevel.obj
 0002:00004790       ??_C@_1M@GEEFALPE@?$AAd?$AAe?$AA?9?$AAL?$AAI@ 10023790     libucrt:lcidtoname_downlevel.obj
 0002:0000479c       ??_C@_1M@IGEOFBG@?$AAe?$AAn?$AA?9?$AAN?$AAZ@ 1002379c     libucrt:lcidtoname_downlevel.obj
 0002:000047a8       ??_C@_1M@KDBONEHP@?$AAe?$AAs?$AA?9?$AAC?$AAR@ 100237a8     libucrt:lcidtoname_downlevel.obj
 0002:000047b4       ??_C@_1M@FHMDOHNN@?$AAf?$AAr?$AA?9?$AAL?$AAU@ 100237b4     libucrt:lcidtoname_downlevel.obj
 0002:000047c0       ??_C@_1BG@NFKKMAFG@?$AAb?$AAs?$AA?9?$AAB?$AAA?$AA?9?$AAL?$AAa?$AAt?$AAn@ 100237c0     libucrt:lcidtoname_downlevel.obj
 0002:000047d8       ??_C@_1O@IMNBEMCI@?$AAs?$AAm?$AAj?$AA?9?$AAS?$AAE@ 100237d8     libucrt:lcidtoname_downlevel.obj
 0002:000047e8       ??_C@_1M@DHHMBNDP@?$AAa?$AAr?$AA?9?$AAM?$AAA@ 100237e8     libucrt:lcidtoname_downlevel.obj
 0002:000047f4       ??_C@_1M@BNBLJCGH@?$AAe?$AAn?$AA?9?$AAI?$AAE@ 100237f4     libucrt:lcidtoname_downlevel.obj
 0002:00004800       ??_C@_1M@GEPAFMDL@?$AAe?$AAs?$AA?9?$AAP?$AAA@ 10023800     libucrt:lcidtoname_downlevel.obj
 0002:0000480c       ??_C@_1M@OJONDMDL@?$AAf?$AAr?$AA?9?$AAM?$AAC@ 1002380c     libucrt:lcidtoname_downlevel.obj
 0002:00004818       ??_C@_1BG@OBCNFJB@?$AAs?$AAr?$AA?9?$AAB?$AAA?$AA?9?$AAL?$AAa?$AAt?$AAn@ 10023818     libucrt:lcidtoname_downlevel.obj
 0002:00004830       ??_C@_1O@KEMEEGPO@?$AAs?$AAm?$AAa?$AA?9?$AAN?$AAO@ 10023830     libucrt:lcidtoname_downlevel.obj
 0002:00004840       ??_C@_1M@ELMGFODK@?$AAa?$AAr?$AA?9?$AAT?$AAN@ 10023840     libucrt:lcidtoname_downlevel.obj
 0002:0000484c       ??_C@_1M@BHDLHFAF@?$AAe?$AAn?$AA?9?$AAZ?$AAA@ 1002384c     libucrt:lcidtoname_downlevel.obj
 0002:00004858       ??_C@_1M@BMGIGLIF@?$AAe?$AAs?$AA?9?$AAD?$AAO@ 10023858     libucrt:lcidtoname_downlevel.obj
 0002:00004864       ??_C@_1BG@CMBHIPBE@?$AAs?$AAr?$AA?9?$AAB?$AAA?$AA?9?$AAC?$AAy?$AAr?$AAl@ 10023864     libucrt:lcidtoname_downlevel.obj
 0002:0000487c       ??_C@_1O@HEDBLHNP@?$AAs?$AAm?$AAa?$AA?9?$AAS?$AAE@ 1002387c     libucrt:lcidtoname_downlevel.obj
 0002:0000488c       ??_C@_1M@DAGCADIM@?$AAa?$AAr?$AA?9?$AAO?$AAM@ 1002388c     libucrt:lcidtoname_downlevel.obj
 0002:00004898       ??_C@_1M@FODLMICG@?$AAe?$AAn?$AA?9?$AAJ?$AAM@ 10023898     libucrt:lcidtoname_downlevel.obj
 0002:000048a4       ??_C@_1M@DNMLCIHB@?$AAe?$AAs?$AA?9?$AAV?$AAE@ 100238a4     libucrt:lcidtoname_downlevel.obj
 0002:000048b0       ??_C@_1O@EOKHMKJK@?$AAs?$AAm?$AAs?$AA?9?$AAF?$AAI@ 100238b0     libucrt:lcidtoname_downlevel.obj
 0002:000048c0       ??_C@_1M@CAFJMKOF@?$AAa?$AAr?$AA?9?$AAY?$AAE@ 100238c0     libucrt:lcidtoname_downlevel.obj
 0002:000048cc       ??_C@_1M@CBFHIJLI@?$AAe?$AAn?$AA?9?$AAC?$AAB@ 100238cc     libucrt:lcidtoname_downlevel.obj
 0002:000048d8       ??_C@_1M@BGNFLDN@?$AAe?$AAs?$AA?9?$AAC?$AAO@ 100238d8     libucrt:lcidtoname_downlevel.obj
 0002:000048e4       ??_C@_1O@JMPHMAMC@?$AAs?$AAm?$AAn?$AA?9?$AAF?$AAI@ 100238e4     libucrt:lcidtoname_downlevel.obj
 0002:000048f4       ??_C@_1M@JLANABKE@?$AAa?$AAr?$AA?9?$AAS?$AAY@ 100238f4     libucrt:lcidtoname_downlevel.obj
 0002:00004900       ??_C@_1M@HPKGCFGN@?$AAe?$AAn?$AA?9?$AAB?$AAZ@ 10023900     libucrt:lcidtoname_downlevel.obj
 0002:0000490c       ??_C@_1M@OLJCMLGM@?$AAe?$AAs?$AA?9?$AAP?$AAE@ 1002390c     libucrt:lcidtoname_downlevel.obj
 0002:00004918       ??_C@_1M@MKKGFKLE@?$AAa?$AAr?$AA?9?$AAJ?$AAO@ 10023918     libucrt:lcidtoname_downlevel.obj
 0002:00004924       ??_C@_1M@EKPGLDNI@?$AAe?$AAn?$AA?9?$AAT?$AAT@ 10023924     libucrt:lcidtoname_downlevel.obj
 0002:00004930       ??_C@_1M@OONGHFHE@?$AAe?$AAs?$AA?9?$AAA?$AAR@ 10023930     libucrt:lcidtoname_downlevel.obj
 0002:0000493c       ??_C@_1M@OOJFGBHE@?$AAa?$AAr?$AA?9?$AAL?$AAB@ 1002393c     libucrt:lcidtoname_downlevel.obj
 0002:00004948       ??_C@_1M@GCEJHNEG@?$AAe?$AAn?$AA?9?$AAZ?$AAW@ 10023948     libucrt:lcidtoname_downlevel.obj
 0002:00004954       ??_C@_1M@JNOCAHJI@?$AAe?$AAs?$AA?9?$AAE?$AAC@ 10023954     libucrt:lcidtoname_downlevel.obj
 0002:00004960       ??_C@_1M@JEFHPGGB@?$AAa?$AAr?$AA?9?$AAK?$AAW@ 10023960     libucrt:lcidtoname_downlevel.obj
 0002:0000496c       ??_C@_1M@MLKIBJOJ@?$AAe?$AAn?$AA?9?$AAP?$AAH@ 1002396c     libucrt:lcidtoname_downlevel.obj
 0002:00004978       ??_C@_1M@BDNIPEND@?$AAe?$AAs?$AA?9?$AAC?$AAL@ 10023978     libucrt:lcidtoname_downlevel.obj
 0002:00004984       ??_C@_1M@MPNMEKBD@?$AAa?$AAr?$AA?9?$AAA?$AAE@ 10023984     libucrt:lcidtoname_downlevel.obj
 0002:00004990       ??_C@_1M@KBJALCPI@?$AAe?$AAs?$AA?9?$AAU?$AAY@ 10023990     libucrt:lcidtoname_downlevel.obj
 0002:0000499c       ??_C@_1M@LLCCOAGA@?$AAa?$AAr?$AA?9?$AAB?$AAH@ 1002399c     libucrt:lcidtoname_downlevel.obj
 0002:000049a8       ??_C@_1M@PBFNCDEL@?$AAe?$AAs?$AA?9?$AAP?$AAY@ 100239a8     libucrt:lcidtoname_downlevel.obj
 0002:000049b4       ??_C@_1M@EDGINPNP@?$AAa?$AAr?$AA?9?$AAQ?$AAA@ 100239b4     libucrt:lcidtoname_downlevel.obj
 0002:000049c0       ??_C@_1M@MKDBIIJI@?$AAe?$AAs?$AA?9?$AAB?$AAO@ 100239c0     libucrt:lcidtoname_downlevel.obj
 0002:000049cc       ??_C@_1M@CPKKEBLD@?$AAe?$AAs?$AA?9?$AAS?$AAV@ 100239cc     libucrt:lcidtoname_downlevel.obj
 0002:000049d8       ??_C@_1M@NDBGMMJL@?$AAe?$AAs?$AA?9?$AAH?$AAN@ 100239d8     libucrt:lcidtoname_downlevel.obj
 0002:000049e4       ??_C@_1M@JIJIBHDP@?$AAe?$AAs?$AA?9?$AAN?$AAI@ 100239e4     libucrt:lcidtoname_downlevel.obj
 0002:000049f0       ??_C@_1M@CGFMKEEK@?$AAe?$AAs?$AA?9?$AAP?$AAR@ 100239f0     libucrt:lcidtoname_downlevel.obj
 0002:000049fc       ??_C@_1O@ICJHKIIK@?$AAz?$AAh?$AA?9?$AAC?$AAH?$AAT@ 100239fc     libucrt:lcidtoname_downlevel.obj
 0002:00004a0c       ??_C@_15CLNEJCE@?$AAs?$AAr@ 10023a0c     libucrt:lcidtoname_downlevel.obj
 0002:00005138       ??_C@_1M@KAHEKEIG@?$AAa?$AAf?$AA?9?$AAz?$AAa@ 10024138     libucrt:lcidtoname_downlevel.obj
 0002:00005144       ??_C@_1M@GIECOABL@?$AAa?$AAr?$AA?9?$AAa?$AAe@ 10024144     libucrt:lcidtoname_downlevel.obj
 0002:00005150       ??_C@_1M@BMLMEKGI@?$AAa?$AAr?$AA?9?$AAb?$AAh@ 10024150     libucrt:lcidtoname_downlevel.obj
 0002:0000515c       ??_C@_1M@DAPFDGGB@?$AAa?$AAr?$AA?9?$AAd?$AAz@ 1002415c     libucrt:lcidtoname_downlevel.obj
 0002:00005168       ??_C@_1M@FJNKGKIG@?$AAa?$AAr?$AA?9?$AAe?$AAg@ 10024168     libucrt:lcidtoname_downlevel.obj
 0002:00005174       ??_C@_1M@FLGKKCLO@?$AAa?$AAr?$AA?9?$AAi?$AAq@ 10024174     libucrt:lcidtoname_downlevel.obj
 0002:00005180       ??_C@_1M@GNDIPALM@?$AAa?$AAr?$AA?9?$AAj?$AAo@ 10024180     libucrt:lcidtoname_downlevel.obj
 0002:0000518c       ??_C@_1M@DDMJFMGJ@?$AAa?$AAr?$AA?9?$AAk?$AAw@ 1002418c     libucrt:lcidtoname_downlevel.obj
 0002:00005198       ??_C@_1M@EJALMLHM@?$AAa?$AAr?$AA?9?$AAl?$AAb@ 10024198     libucrt:lcidtoname_downlevel.obj
 0002:000051a4       ??_C@_1M@MOBDBLOC@?$AAa?$AAr?$AA?9?$AAl?$AAy@ 100241a4     libucrt:lcidtoname_downlevel.obj
 0002:000051b0       ??_C@_1M@JAOCLHDH@?$AAa?$AAr?$AA?9?$AAm?$AAa@ 100241b0     libucrt:lcidtoname_downlevel.obj
 0002:000051bc       ??_C@_1M@JHPMKJIE@?$AAa?$AAr?$AA?9?$AAo?$AAm@ 100241bc     libucrt:lcidtoname_downlevel.obj
 0002:000051c8       ??_C@_1M@OEPGHFNH@?$AAa?$AAr?$AA?9?$AAq?$AAa@ 100241c8     libucrt:lcidtoname_downlevel.obj
 0002:000051d4       ??_C@_1M@KJDONENM@?$AAa?$AAr?$AA?9?$AAs?$AAa@ 100241d4     libucrt:lcidtoname_downlevel.obj
 0002:000051e0       ??_C@_1M@DMJDKLKM@?$AAa?$AAr?$AA?9?$AAs?$AAy@ 100241e0     libucrt:lcidtoname_downlevel.obj
 0002:000051ec       ??_C@_1M@OMFIPEDC@?$AAa?$AAr?$AA?9?$AAt?$AAn@ 100241ec     libucrt:lcidtoname_downlevel.obj
 0002:000051f8       ??_C@_1M@IHMHGAON@?$AAa?$AAr?$AA?9?$AAy?$AAe@ 100241f8     libucrt:lcidtoname_downlevel.obj
 0002:00005204       ??_C@_1BG@KDCPGJGB@?$AAa?$AAz?$AA?9?$AAa?$AAz?$AA?9?$AAc?$AAy?$AAr?$AAl@ 10024204     libucrt:lcidtoname_downlevel.obj
 0002:0000521c       ??_C@_1BG@IBCKDDOE@?$AAa?$AAz?$AA?9?$AAa?$AAz?$AA?9?$AAl?$AAa?$AAt?$AAn@ 1002421c     libucrt:lcidtoname_downlevel.obj
 0002:00005234       ??_C@_1M@EGPFDCPD@?$AAb?$AAe?$AA?9?$AAb?$AAy@ 10024234     libucrt:lcidtoname_downlevel.obj
 0002:00005240       ??_C@_1M@PCMGMCGC@?$AAb?$AAg?$AA?9?$AAb?$AAg@ 10024240     libucrt:lcidtoname_downlevel.obj
 0002:0000524c       ??_C@_1M@BJBMFGOB@?$AAb?$AAn?$AA?9?$AAi?$AAn@ 1002424c     libucrt:lcidtoname_downlevel.obj
 0002:00005258       ??_C@_1BG@EAKMMACD@?$AAb?$AAs?$AA?9?$AAb?$AAa?$AA?9?$AAl?$AAa?$AAt?$AAn@ 10024258     libucrt:lcidtoname_downlevel.obj
 0002:00005270       ??_C@_1M@KGADAODK@?$AAc?$AAa?$AA?9?$AAe?$AAs@ 10024270     libucrt:lcidtoname_downlevel.obj
 0002:0000527c       ??_C@_1M@COAJPDHI@?$AAc?$AAs?$AA?9?$AAc?$AAz@ 1002427c     libucrt:lcidtoname_downlevel.obj
 0002:00005288       ??_C@_1M@DHBHFONH@?$AAc?$AAy?$AA?9?$AAg?$AAb@ 10024288     libucrt:lcidtoname_downlevel.obj
 0002:00005294       ??_C@_1M@IMGKELGA@?$AAd?$AAa?$AA?9?$AAd?$AAk@ 10024294     libucrt:lcidtoname_downlevel.obj
 0002:000052a0       ??_C@_1M@NNDGDNGA@?$AAd?$AAe?$AA?9?$AAa?$AAt@ 100242a0     libucrt:lcidtoname_downlevel.obj
 0002:000052ac       ??_C@_1M@IKDBHEEM@?$AAd?$AAe?$AA?9?$AAc?$AAh@ 100242ac     libucrt:lcidtoname_downlevel.obj
 0002:000052b8       ??_C@_1M@GFFOJMCJ@?$AAd?$AAe?$AA?9?$AAd?$AAe@ 100242b8     libucrt:lcidtoname_downlevel.obj
 0002:000052c4       ??_C@_1M@MDNLKBPM@?$AAd?$AAe?$AA?9?$AAl?$AAi@ 100242c4     libucrt:lcidtoname_downlevel.obj
 0002:000052d0       ??_C@_1M@NJBEEJNL@?$AAd?$AAe?$AA?9?$AAl?$AAu@ 100242d0     libucrt:lcidtoname_downlevel.obj
 0002:000052dc       ??_C@_1O@GNNELBAP@?$AAd?$AAi?$AAv?$AA?9?$AAm?$AAv@ 100242dc     libucrt:lcidtoname_downlevel.obj
 0002:000052ec       ??_C@_1M@EJLEOGAE@?$AAe?$AAl?$AA?9?$AAg?$AAr@ 100242ec     libucrt:lcidtoname_downlevel.obj
 0002:000052f8       ??_C@_1M@GMPONJN@?$AAe?$AAn?$AA?9?$AAa?$AAu@ 100242f8     libucrt:lcidtoname_downlevel.obj
 0002:00005304       ??_C@_1M@NIDIIPGF@?$AAe?$AAn?$AA?9?$AAb?$AAz@ 10024304     libucrt:lcidtoname_downlevel.obj
 0002:00005310       ??_C@_1M@JEHMIMFO@?$AAe?$AAn?$AA?9?$AAc?$AAa@ 10024310     libucrt:lcidtoname_downlevel.obj
 0002:0000531c       ??_C@_1M@IGMJCDLA@?$AAe?$AAn?$AA?9?$AAc?$AAb@ 1002431c     libucrt:lcidtoname_downlevel.obj
 0002:00005328       ??_C@_1M@BNFIGBKG@?$AAe?$AAn?$AA?9?$AAg?$AAb@ 10024328     libucrt:lcidtoname_downlevel.obj
 0002:00005334       ??_C@_1M@LKIFDIGP@?$AAe?$AAn?$AA?9?$AAi?$AAe@ 10024334     libucrt:lcidtoname_downlevel.obj
 0002:00005340       ??_C@_1M@PJKFGCCO@?$AAe?$AAn?$AA?9?$AAj?$AAm@ 10024340     libucrt:lcidtoname_downlevel.obj
 0002:0000534c       ??_C@_1M@KPPKEPBO@?$AAe?$AAn?$AA?9?$AAn?$AAz@ 1002434c     libucrt:lcidtoname_downlevel.obj
 0002:00005358       ??_C@_1M@GMDGLDOB@?$AAe?$AAn?$AA?9?$AAp?$AAh@ 10024358     libucrt:lcidtoname_downlevel.obj
 0002:00005364       ??_C@_1M@ONGIBJNA@?$AAe?$AAn?$AA?9?$AAt?$AAt@ 10024364     libucrt:lcidtoname_downlevel.obj
 0002:00005370       ??_C@_1M@LLODPCMM@?$AAe?$AAn?$AA?9?$AAu?$AAs@ 10024370     libucrt:lcidtoname_downlevel.obj
 0002:0000537c       ??_C@_1M@LAKFNPAN@?$AAe?$AAn?$AA?9?$AAz?$AAa@ 1002437c     libucrt:lcidtoname_downlevel.obj
 0002:00005388       ??_C@_1M@MFNHNHEO@?$AAe?$AAn?$AA?9?$AAz?$AAw@ 10024388     libucrt:lcidtoname_downlevel.obj
 0002:00005394       ??_C@_1M@EJEINPHM@?$AAe?$AAs?$AA?9?$AAa?$AAr@ 10024394     libucrt:lcidtoname_downlevel.obj
 0002:000053a0       ??_C@_1M@GNKPCCJA@?$AAe?$AAs?$AA?9?$AAb?$AAo@ 100243a0     libucrt:lcidtoname_downlevel.obj
 0002:000053ac       ??_C@_1M@LEEGFONL@?$AAe?$AAs?$AA?9?$AAc?$AAl@ 100243ac     libucrt:lcidtoname_downlevel.obj
 0002:000053b8       ??_C@_1M@KGPDPBDF@?$AAe?$AAs?$AA?9?$AAc?$AAo@ 100243b8     libucrt:lcidtoname_downlevel.obj
 0002:000053c4       ??_C@_1M@EIAHOHH@?$AAe?$AAs?$AA?9?$AAc?$AAr@ 100243c4     libucrt:lcidtoname_downlevel.obj
 0002:000053d0       ??_C@_1M@LLPGMBIN@?$AAe?$AAs?$AA?9?$AAd?$AAo@ 100243d0     libucrt:lcidtoname_downlevel.obj
 0002:000053dc       ??_C@_1M@DKHMKNJA@?$AAe?$AAs?$AA?9?$AAe?$AAc@ 100243dc     libucrt:lcidtoname_downlevel.obj
 0002:000053e8       ??_C@_1M@GKGFPKAP@?$AAe?$AAs?$AA?9?$AAe?$AAs@ 100243e8     libucrt:lcidtoname_downlevel.obj
 0002:000053f4       ??_C@_1M@LKHKGDLN@?$AAe?$AAs?$AA?9?$AAg?$AAt@ 100243f4     libucrt:lcidtoname_downlevel.obj
 0002:00005400       ??_C@_1M@HEIIGGJD@?$AAe?$AAs?$AA?9?$AAh?$AAn@ 10024400     libucrt:lcidtoname_downlevel.obj
 0002:0000540c       ??_C@_1M@FBDHPPGD@?$AAe?$AAs?$AA?9?$AAm?$AAx@ 1002440c     libucrt:lcidtoname_downlevel.obj
 0002:00005418       ??_C@_1M@DPAGLNDH@?$AAe?$AAs?$AA?9?$AAn?$AAi@ 10024418     libucrt:lcidtoname_downlevel.obj
 0002:00005424       ??_C@_1M@MDGOPGDD@?$AAe?$AAs?$AA?9?$AAp?$AAa@ 10024424     libucrt:lcidtoname_downlevel.obj
 0002:00005430       ??_C@_1M@EMAMGBGE@?$AAe?$AAs?$AA?9?$AAp?$AAe@ 10024430     libucrt:lcidtoname_downlevel.obj
 0002:0000543c       ??_C@_1M@IBMCAOEC@?$AAe?$AAs?$AA?9?$AAp?$AAr@ 1002443c     libucrt:lcidtoname_downlevel.obj
 0002:00005448       ??_C@_1M@FGMDIJED@?$AAe?$AAs?$AA?9?$AAp?$AAy@ 10024448     libucrt:lcidtoname_downlevel.obj
 0002:00005454       ??_C@_1M@IIDEOLLL@?$AAe?$AAs?$AA?9?$AAs?$AAv@ 10024454     libucrt:lcidtoname_downlevel.obj
 0002:00005460       ??_C@_1M@GAOBIPA@?$AAe?$AAs?$AA?9?$AAu?$AAy@ 10024460     libucrt:lcidtoname_downlevel.obj
 0002:0000546c       ??_C@_1M@JKFFICHJ@?$AAe?$AAs?$AA?9?$AAv?$AAe@ 1002446c     libucrt:lcidtoname_downlevel.obj
 0002:00005478       ??_C@_1M@PNMLOJDF@?$AAe?$AAt?$AA?9?$AAe?$AAe@ 10024478     libucrt:lcidtoname_downlevel.obj
 0002:00005484       ??_C@_1M@GHHLIKEI@?$AAe?$AAu?$AA?9?$AAe?$AAs@ 10024484     libucrt:lcidtoname_downlevel.obj
 0002:00005490       ??_C@_1M@PBNONODE@?$AAf?$AAa?$AA?9?$AAi?$AAr@ 10024490     libucrt:lcidtoname_downlevel.obj
 0002:0000549c       ??_C@_1M@JEEHPMIL@?$AAf?$AAi?$AA?9?$AAf?$AAi@ 1002449c     libucrt:lcidtoname_downlevel.obj
 0002:000054a8       ??_C@_1M@LMDCNDBA@?$AAf?$AAo?$AA?9?$AAf?$AAo@ 100244a8     libucrt:lcidtoname_downlevel.obj
 0002:000054b4       ??_C@_1M@JKEOHLDK@?$AAf?$AAr?$AA?9?$AAb?$AAe@ 100244b4     libucrt:lcidtoname_downlevel.obj
 0002:000054c0       ??_C@_1M@NOHADPMI@?$AAf?$AAr?$AA?9?$AAc?$AAa@ 100244c0     libucrt:lcidtoname_downlevel.obj
 0002:000054cc       ??_C@_1M@KDHIHAEC@?$AAf?$AAr?$AA?9?$AAc?$AAh@ 100244cc     libucrt:lcidtoname_downlevel.obj
 0002:000054d8       ??_C@_1M@MMBBFGAK@?$AAf?$AAr?$AA?9?$AAf?$AAr@ 100244d8     libucrt:lcidtoname_downlevel.obj
 0002:000054e4       ??_C@_1M@PAFNENNF@?$AAf?$AAr?$AA?9?$AAl?$AAu@ 100244e4     libucrt:lcidtoname_downlevel.obj
 0002:000054f0       ??_C@_1M@EOHDJGDD@?$AAf?$AAr?$AA?9?$AAm?$AAc@ 100244f0     libucrt:lcidtoname_downlevel.obj
 0002:000054fc       ??_C@_1M@FAPLLOPF@?$AAg?$AAl?$AA?9?$AAe?$AAs@ 100244fc     libucrt:lcidtoname_downlevel.obj
 0002:00005508       ??_C@_1M@FOPBFLOO@?$AAg?$AAu?$AA?9?$AAi?$AAn@ 10024508     libucrt:lcidtoname_downlevel.obj
 0002:00005514       ??_C@_1M@KBMCINPM@?$AAh?$AAe?$AA?9?$AAi?$AAl@ 10024514     libucrt:lcidtoname_downlevel.obj
 0002:00005520       ??_C@_1M@BBPHKFPJ@?$AAh?$AAi?$AA?9?$AAi?$AAn@ 10024520     libucrt:lcidtoname_downlevel.obj
 0002:0000552c       ??_C@_1M@PMBNDPHD@?$AAh?$AAr?$AA?9?$AAb?$AAa@ 1002452c     libucrt:lcidtoname_downlevel.obj
 0002:00005538       ??_C@_1M@BPCKOEGE@?$AAh?$AAr?$AA?9?$AAh?$AAr@ 10024538     libucrt:lcidtoname_downlevel.obj
 0002:00005544       ??_C@_1M@GACBMHKE@?$AAh?$AAu?$AA?9?$AAh?$AAu@ 10024544     libucrt:lcidtoname_downlevel.obj
 0002:00005550       ??_C@_1M@MILPAJJC@?$AAh?$AAy?$AA?9?$AAa?$AAm@ 10024550     libucrt:lcidtoname_downlevel.obj
 0002:0000555c       ??_C@_1M@BABBICEC@?$AAi?$AAd?$AA?9?$AAi?$AAd@ 1002455c     libucrt:lcidtoname_downlevel.obj
 0002:00005568       ??_C@_1M@BIKNHHPF@?$AAi?$AAs?$AA?9?$AAi?$AAs@ 10024568     libucrt:lcidtoname_downlevel.obj
 0002:00005574       ??_C@_1M@NMPCJPHE@?$AAi?$AAt?$AA?9?$AAc?$AAh@ 10024574     libucrt:lcidtoname_downlevel.obj
 0002:00005580       ??_C@_1M@GHKGFEDF@?$AAi?$AAt?$AA?9?$AAi?$AAt@ 10024580     libucrt:lcidtoname_downlevel.obj
 0002:0000558c       ??_C@_1M@NIEJCJJA@?$AAj?$AAa?$AA?9?$AAj?$AAp@ 1002458c     libucrt:lcidtoname_downlevel.obj
 0002:00005598       ??_C@_1M@JILFNBIM@?$AAk?$AAa?$AA?9?$AAg?$AAe@ 10024598     libucrt:lcidtoname_downlevel.obj
 0002:000055a4       ??_C@_1M@PACPMGPH@?$AAk?$AAk?$AA?9?$AAk?$AAz@ 100245a4     libucrt:lcidtoname_downlevel.obj
 0002:000055b0       ??_C@_1M@IELFGMHA@?$AAk?$AAn?$AA?9?$AAi?$AAn@ 100245b0     libucrt:lcidtoname_downlevel.obj
 0002:000055bc       ??_C@_1O@IBBJHCH@?$AAk?$AAo?$AAk?$AA?9?$AAi?$AAn@ 100245bc     libucrt:lcidtoname_downlevel.obj
 0002:000055cc       ??_C@_1M@DMHAEOGC@?$AAk?$AAo?$AA?9?$AAk?$AAr@ 100245cc     libucrt:lcidtoname_downlevel.obj
 0002:000055d8       ??_C@_1M@HBAHBIGA@?$AAk?$AAy?$AA?9?$AAk?$AAg@ 100245d8     libucrt:lcidtoname_downlevel.obj
 0002:000055e4       ??_C@_1M@KPMILCJG@?$AAl?$AAt?$AA?9?$AAl?$AAt@ 100245e4     libucrt:lcidtoname_downlevel.obj
 0002:000055f0       ??_C@_1M@BDEKKCA@?$AAl?$AAv?$AA?9?$AAl?$AAv@ 100245f0     libucrt:lcidtoname_downlevel.obj
 0002:000055fc       ??_C@_1M@ELCKCCJJ@?$AAm?$AAi?$AA?9?$AAn?$AAz@ 100245fc     libucrt:lcidtoname_downlevel.obj
 0002:00005608       ??_C@_1M@CBOOLAPA@?$AAm?$AAk?$AA?9?$AAm?$AAk@ 10024608     libucrt:lcidtoname_downlevel.obj
 0002:00005614       ??_C@_1M@GPHNBJKN@?$AAm?$AAl?$AA?9?$AAi?$AAn@ 10024614     libucrt:lcidtoname_downlevel.obj
 0002:00005620       ??_C@_1M@PABJILIG@?$AAm?$AAn?$AA?9?$AAm?$AAn@ 10024620     libucrt:lcidtoname_downlevel.obj
 0002:0000562c       ??_C@_1M@FGBKKIPG@?$AAm?$AAr?$AA?9?$AAi?$AAn@ 1002462c     libucrt:lcidtoname_downlevel.obj
 0002:00005638       ??_C@_1M@NDBPDDAL@?$AAm?$AAs?$AA?9?$AAb?$AAn@ 10024638     libucrt:lcidtoname_downlevel.obj
 0002:00005644       ??_C@_1M@OPIHOOPI@?$AAm?$AAs?$AA?9?$AAm?$AAy@ 10024644     libucrt:lcidtoname_downlevel.obj
 0002:00005650       ??_C@_1M@PPDBCNFM@?$AAm?$AAt?$AA?9?$AAm?$AAt@ 10024650     libucrt:lcidtoname_downlevel.obj
 0002:0000565c       ??_C@_1M@KDJDKMDD@?$AAn?$AAb?$AA?9?$AAn?$AAo@ 1002465c     libucrt:lcidtoname_downlevel.obj
 0002:00005668       ??_C@_1M@KFCFLMJP@?$AAn?$AAl?$AA?9?$AAb?$AAe@ 10024668     libucrt:lcidtoname_downlevel.obj
 0002:00005674       ??_C@_1M@KPOPDDGO@?$AAn?$AAl?$AA?9?$AAn?$AAl@ 10024674     libucrt:lcidtoname_downlevel.obj
 0002:00005680       ??_C@_1M@LJKPEMLN@?$AAn?$AAn?$AA?9?$AAn?$AAo@ 10024680     libucrt:lcidtoname_downlevel.obj
 0002:0000568c       ??_C@_1M@BDGHHBFL@?$AAn?$AAs?$AA?9?$AAz?$AAa@ 1002468c     libucrt:lcidtoname_downlevel.obj
 0002:00005698       ??_C@_1M@IDEHOAP@?$AAp?$AAa?$AA?9?$AAi?$AAn@ 10024698     libucrt:lcidtoname_downlevel.obj
 0002:000056a4       ??_C@_1M@HDBKGOGH@?$AAp?$AAl?$AA?9?$AAp?$AAl@ 100246a4     libucrt:lcidtoname_downlevel.obj
 0002:000056b0       ??_C@_1M@LJLLCMEH@?$AAp?$AAt?$AA?9?$AAb?$AAr@ 100246b0     libucrt:lcidtoname_downlevel.obj
 0002:000056bc       ??_C@_1M@NCMONAAL@?$AAp?$AAt?$AA?9?$AAp?$AAt@ 100246bc     libucrt:lcidtoname_downlevel.obj
 0002:000056c8       ??_C@_1O@EAKMAJDN@?$AAq?$AAu?$AAz?$AA?9?$AAb?$AAo@ 100246c8     libucrt:lcidtoname_downlevel.obj
 0002:000056d8       ??_C@_1O@BHHPIGDN@?$AAq?$AAu?$AAz?$AA?9?$AAe?$AAc@ 100246d8     libucrt:lcidtoname_downlevel.obj
 0002:000056e8       ??_C@_1O@GBAPEKMJ@?$AAq?$AAu?$AAz?$AA?9?$AAp?$AAe@ 100246e8     libucrt:lcidtoname_downlevel.obj
 0002:000056f8       ??_C@_1M@CLGLEFBO@?$AAr?$AAo?$AA?9?$AAr?$AAo@ 100246f8     libucrt:lcidtoname_downlevel.obj
 0002:00005704       ??_C@_1M@CEEDODME@?$AAr?$AAu?$AA?9?$AAr?$AAu@ 10024704     libucrt:lcidtoname_downlevel.obj
 0002:00005710       ??_C@_1M@HPKKKMPP@?$AAs?$AAa?$AA?9?$AAi?$AAn@ 10024710     libucrt:lcidtoname_downlevel.obj
 0002:0000571c       ??_C@_1M@BKMAIGOJ@?$AAs?$AAe?$AA?9?$AAf?$AAi@ 1002471c     libucrt:lcidtoname_downlevel.obj
 0002:00005728       ??_C@_1M@NDPIFLFI@?$AAs?$AAe?$AA?9?$AAn?$AAo@ 10024728     libucrt:lcidtoname_downlevel.obj
 0002:00005734       ??_C@_1M@DANKKHJ@?$AAs?$AAe?$AA?9?$AAs?$AAe@ 10024734     libucrt:lcidtoname_downlevel.obj
 0002:00005740       ??_C@_1M@PNBLONPJ@?$AAs?$AAk?$AA?9?$AAs?$AAk@ 10024740     libucrt:lcidtoname_downlevel.obj
 0002:0000574c       ??_C@_1M@LFMODOAL@?$AAs?$AAl?$AA?9?$AAs?$AAi@ 1002474c     libucrt:lcidtoname_downlevel.obj
 0002:00005758       ??_C@_1O@DFKOMPG@?$AAs?$AAm?$AAa?$AA?9?$AAn?$AAo@ 10024758     libucrt:lcidtoname_downlevel.obj
 0002:00005768       ??_C@_1O@NDKPBNNH@?$AAs?$AAm?$AAa?$AA?9?$AAs?$AAe@ 10024768     libucrt:lcidtoname_downlevel.obj
 0002:00005778       ??_C@_1O@PLLKBHAB@?$AAs?$AAm?$AAj?$AA?9?$AAn?$AAo@ 10024778     libucrt:lcidtoname_downlevel.obj
 0002:00005788       ??_C@_1O@CLEPOGCA@?$AAs?$AAm?$AAj?$AA?9?$AAs?$AAe@ 10024788     libucrt:lcidtoname_downlevel.obj
 0002:00005798       ??_C@_1O@DLGJGKMK@?$AAs?$AAm?$AAn?$AA?9?$AAf?$AAi@ 10024798     libucrt:lcidtoname_downlevel.obj
 0002:000057a8       ??_C@_1O@OJDJGAJC@?$AAs?$AAm?$AAs?$AA?9?$AAf?$AAi@ 100247a8     libucrt:lcidtoname_downlevel.obj
 0002:000057b8       ??_C@_1M@BOFOGHPB@?$AAs?$AAq?$AA?9?$AAa?$AAl@ 100247b8     libucrt:lcidtoname_downlevel.obj
 0002:000057c4       ??_C@_1BG@LJBBIPGB@?$AAs?$AAr?$AA?9?$AAb?$AAa?$AA?9?$AAc?$AAy?$AAr?$AAl@ 100247c4     libucrt:lcidtoname_downlevel.obj
 0002:000057dc       ??_C@_1BG@JLBENFOE@?$AAs?$AAr?$AA?9?$AAb?$AAa?$AA?9?$AAl?$AAa?$AAt?$AAn@ 100247dc     libucrt:lcidtoname_downlevel.obj
 0002:000057f4       ??_C@_1BG@KODPNHE@?$AAs?$AAr?$AA?9?$AAs?$AAp?$AA?9?$AAc?$AAy?$AAr?$AAl@ 100247f4     libucrt:lcidtoname_downlevel.obj
 0002:0000580c       ??_C@_1BG@CIOGKHPB@?$AAs?$AAr?$AA?9?$AAs?$AAp?$AA?9?$AAl?$AAa?$AAt?$AAn@ 1002480c     libucrt:lcidtoname_downlevel.obj
 0002:00005824       ??_C@_1M@NGFJLMAC@?$AAs?$AAv?$AA?9?$AAf?$AAi@ 10024824     libucrt:lcidtoname_downlevel.obj
 0002:00005830       ??_C@_1M@MPJEJAJC@?$AAs?$AAv?$AA?9?$AAs?$AAe@ 10024830     libucrt:lcidtoname_downlevel.obj
 0002:0000583c       ??_C@_1M@MPNDHLFK@?$AAs?$AAw?$AA?9?$AAk?$AAe@ 1002483c     libucrt:lcidtoname_downlevel.obj
 0002:00005848       ??_C@_1O@KOHBJJI@?$AAs?$AAy?$AAr?$AA?9?$AAs?$AAy@ 10024848     libucrt:lcidtoname_downlevel.obj
 0002:00005858       ??_C@_1M@LDCEFHA@?$AAt?$AAa?$AA?9?$AAi?$AAn@ 10024858     libucrt:lcidtoname_downlevel.obj
 0002:00005864       ??_C@_1M@CNJOFAK@?$AAt?$AAe?$AA?9?$AAi?$AAn@ 10024864     libucrt:lcidtoname_downlevel.obj
 0002:00005870       ??_C@_1M@GNAECACD@?$AAt?$AAh?$AA?9?$AAt?$AAh@ 10024870     libucrt:lcidtoname_downlevel.obj
 0002:0000587c       ??_C@_1M@CHBIHOJO@?$AAt?$AAn?$AA?9?$AAz?$AAa@ 1002487c     libucrt:lcidtoname_downlevel.obj
 0002:00005888       ??_C@_1M@GCCMIGPJ@?$AAt?$AAr?$AA?9?$AAt?$AAr@ 10024888     libucrt:lcidtoname_downlevel.obj
 0002:00005894       ??_C@_1M@CELMCNBK@?$AAt?$AAt?$AA?9?$AAr?$AAu@ 10024894     libucrt:lcidtoname_downlevel.obj
 0002:000058a0       ??_C@_1M@KLMCELGA@?$AAu?$AAk?$AA?9?$AAu?$AAa@ 100248a0     libucrt:lcidtoname_downlevel.obj
 0002:000058ac       ??_C@_1M@EPAJJAJF@?$AAu?$AAr?$AA?9?$AAp?$AAk@ 100248ac     libucrt:lcidtoname_downlevel.obj
 0002:000058b8       ??_C@_1BG@GEGPMCDJ@?$AAu?$AAz?$AA?9?$AAu?$AAz?$AA?9?$AAc?$AAy?$AAr?$AAl@ 100248b8     libucrt:lcidtoname_downlevel.obj
 0002:000058d0       ??_C@_1BG@EGGKJILM@?$AAu?$AAz?$AA?9?$AAu?$AAz?$AA?9?$AAl?$AAa?$AAt?$AAn@ 100248d0     libucrt:lcidtoname_downlevel.obj
 0002:000058e8       ??_C@_1M@GFOCLFF@?$AAv?$AAi?$AA?9?$AAv?$AAn@ 100248e8     libucrt:lcidtoname_downlevel.obj
 0002:000058f4       ??_C@_1M@CPAMEDFI@?$AAx?$AAh?$AA?9?$AAz?$AAa@ 100248f4     libucrt:lcidtoname_downlevel.obj
 0002:00005900       ??_C@_1O@EBKIFIGN@?$AAz?$AAh?$AA?9?$AAc?$AAh?$AAs@ 10024900     libucrt:lcidtoname_downlevel.obj
 0002:00005910       ??_C@_1O@NMHPGANE@?$AAz?$AAh?$AA?9?$AAc?$AAh?$AAt@ 10024910     libucrt:lcidtoname_downlevel.obj
 0002:00005920       ??_C@_1M@LPINJOMC@?$AAz?$AAh?$AA?9?$AAc?$AAn@ 10024920     libucrt:lcidtoname_downlevel.obj
 0002:0000592c       ??_C@_1M@OCJEJODD@?$AAz?$AAh?$AA?9?$AAh?$AAk@ 1002492c     libucrt:lcidtoname_downlevel.obj
 0002:00005938       ??_C@_1M@DNDLJINH@?$AAz?$AAh?$AA?9?$AAm?$AAo@ 10024938     libucrt:lcidtoname_downlevel.obj
 0002:00005944       ??_C@_1M@MBFDNDND@?$AAz?$AAh?$AA?9?$AAs?$AAg@ 10024944     libucrt:lcidtoname_downlevel.obj
 0002:00005950       ??_C@_1M@IMEPLEPE@?$AAz?$AAh?$AA?9?$AAt?$AAw@ 10024950     libucrt:lcidtoname_downlevel.obj
 0002:0000595c       ??_C@_1M@BBGHNHJP@?$AAz?$AAu?$AA?9?$AAz?$AAa@ 1002495c     libucrt:lcidtoname_downlevel.obj
 0002:00005968       ?large_power_data@?1??multiply_by_power_of_ten@__crt_strtox@@YA_NAAUbig_integer@2@I@Z@4QBIB 10024968     libucrt:cfout.obj
 0002:00006308       ?small_powers_of_ten@?1??multiply_by_power_of_ten@__crt_strtox@@YA_NAAUbig_integer@2@I@Z@4QBIB 10025308     libucrt:cfout.obj
 0002:0000632c       ??_C@_01GBGANLPD@0@        1002532c     libucrt:cfout.obj
 0002:00006330       ??_C@_05DNEBIAHO@1?$CDINF@ 10025330     libucrt:cfout.obj
 0002:00006338       ??_C@_06IMKFLFPG@1?$CDQNAN@ 10025338     libucrt:cfout.obj
 0002:00006340       ??_C@_06PGGFOGJG@1?$CDSNAN@ 10025340     libucrt:cfout.obj
 0002:00006348       ??_C@_05PHHOCPM@1?$CDIND@  10025348     libucrt:cfout.obj
 0002:000064b0       __infinity                 100254b0     libucrt:87tran.obj
 0002:000064ba       __minfinity                100254ba     libucrt:87tran.obj
 0002:000064c4       __logemax                  100254c4     libucrt:87tran.obj
 0002:000064ea       __OP_EXPjmptab             100254ea     libucrt:87tran.obj
 0002:00006510       __indefinite               10025510     libucrt:87disp.obj
 0002:0000651a       __piby2                    1002551a     libucrt:87disp.obj
 0002:00006524       __piby4                    10025524     libucrt:87disp.obj
 0002:00006558       __DEFAULT_CW_in_mem        10025558     libucrt:common.obj
 0002:0000655a       __pi_by_2_to_61            1002555a     libucrt:common.obj
 0002:00006594       ??_C@_03MGHMBJCF@log@      10025594     libucrt:libm_error.obj
 0002:00006598       ??_C@_05HGHHAHAP@log10@    10025598     libucrt:libm_error.obj
 0002:000065a0       ??_C@_03KHJOGHMM@exp@      100255a0     libucrt:libm_error.obj
 0002:000065a4       ??_C@_03JGHBODFD@pow@      100255a4     libucrt:libm_error.obj
 0002:000065a8       ??_C@_04FIHNOPOL@asin@     100255a8     libucrt:libm_error.obj
 0002:000065b0       ??_C@_04PDIFKINK@acos@     100255b0     libucrt:libm_error.obj
 0002:000065b8       ??_C@_04EIAKFFMI@sqrt@     100255b8     libucrt:libm_error.obj
 0002:000065c0       __real@3ff0000000000000    100255c0     libucrt:libm_error.obj
 0002:000065c8       ??_C@_1BA@BALFACEM@?$AAC?$AAO?$AAN?$AAO?$AAU?$AAT?$AA$@ 100255c8     libucrt:initcon.obj
 0002:000065f0       ___acrt_log10_table_t      100255f0     libucrt:log10_tables.obj
 0002:00006a00       ___acrt_log10_table_cb     10025a00     libucrt:log10_tables.obj
 0002:00006e10       __real@3fe0000000000000    10025e10     libucrt:powhlp.obj
 0002:00006f00       ??_C@_04COOMCNPB@sinh@     10025f00     libucrt:fpexcept.obj
 0002:00006f08       ??_C@_04HPJJNFIM@cosh@     10025f08     libucrt:fpexcept.obj
 0002:00006f10       ??_C@_04FJHINJAO@tanh@     10025f10     libucrt:fpexcept.obj
 0002:00006f18       ??_C@_04MLLJIGOK@atan@     10025f18     libucrt:fpexcept.obj
 0002:00006f20       ??_C@_05KNGEOGJB@atan2@    10025f20     libucrt:fpexcept.obj
 0002:00006f28       ??_C@_03BLEJJJBH@sin@      10025f28     libucrt:fpexcept.obj
 0002:00006f2c       ??_C@_03LALBNOCG@cos@      10025f2c     libucrt:fpexcept.obj
 0002:00006f30       ??_C@_03IIINPABG@tan@      10025f30     libucrt:fpexcept.obj
 0002:00006f34       ??_C@_04GFPJNGEK@ceil@     10025f34     libucrt:fpexcept.obj
 0002:00006f3c       ??_C@_05PBJFFIGL@floor@    10025f3c     libucrt:fpexcept.obj
 0002:00006f44       ??_C@_04ODHECPBC@fabs@     10025f44     libucrt:fpexcept.obj
 0002:00006f4c       ??_C@_04EHEDPDJG@modf@     10025f4c     libucrt:fpexcept.obj
 0002:00006f54       ??_C@_05CEJMAHNP@ldexp@    10025f54     libucrt:fpexcept.obj
 0002:00006f5c       ??_C@_05KBKMEMPO@_cabs@    10025f5c     libucrt:fpexcept.obj
 0002:00006f64       ??_C@_06MEIMCGCF@_hypot@   10025f64     libucrt:fpexcept.obj
 0002:00006f6c       ??_C@_04KEPJIHGP@fmod@     10025f6c     libucrt:fpexcept.obj
 0002:00006f74       ??_C@_05GKKHEGJL@frexp@    10025f74     libucrt:fpexcept.obj
 0002:00006f7c       ??_C@_03MJLDFKDL@_y0@      10025f7c     libucrt:fpexcept.obj
 0002:00006f80       ??_C@_03NAKIGLHK@_y1@      10025f80     libucrt:fpexcept.obj
 0002:00006f84       ??_C@_03ONILCKOB@_yn@      10025f84     libucrt:fpexcept.obj
 0002:00006f88       ??_C@_05JGDBENOH@_logb@    10025f88     libucrt:fpexcept.obj
 0002:00006f90       ??_C@_0L@KDOEJCKC@_nextafter@ 10025f90     libucrt:fpexcept.obj
 0002:00006fa0       __d_inf                    10025fa0     libucrt:util.obj
 0002:00006fa8       __d_max                    10025fa8     libucrt:util.obj
 0002:00006fb0       __d_mzero                  10025fb0     libucrt:util.obj
 0002:00007018       __load_config_used         10026018     LIBCMT:loadcfg.obj
 0002:000070bc       __tls_used                 100260bc     LIBCMT:tlssup.obj
 0002:000070d4       ??_R4exception@std@@6B@    100260d4     LIBCMT:throw_bad_alloc.obj
 0002:000070e8       ??_R3exception@std@@8      100260e8     LIBCMT:throw_bad_alloc.obj
 0002:000070f8       ??_R2exception@std@@8      100260f8     LIBCMT:throw_bad_alloc.obj
 0002:00007100       ??_R1A@?0A@EA@exception@std@@8 10026100     LIBCMT:throw_bad_alloc.obj
 0002:0000711c       ??_R4bad_alloc@std@@6B@    1002611c     LIBCMT:throw_bad_alloc.obj
 0002:00007130       ??_R3bad_alloc@std@@8      10026130     LIBCMT:throw_bad_alloc.obj
 0002:00007140       ??_R2bad_alloc@std@@8      10026140     LIBCMT:throw_bad_alloc.obj
 0002:0000714c       ??_R1A@?0A@EA@bad_alloc@std@@8 1002614c     LIBCMT:throw_bad_alloc.obj
 0002:00007168       ??_R4bad_array_new_length@std@@6B@ 10026168     LIBCMT:throw_bad_alloc.obj
 0002:0000717c       ??_R3bad_array_new_length@std@@8 1002617c     LIBCMT:throw_bad_alloc.obj
 0002:0000718c       ??_R2bad_array_new_length@std@@8 1002618c     LIBCMT:throw_bad_alloc.obj
 0002:0000719c       ??_R1A@?0A@EA@bad_array_new_length@std@@8 1002619c     LIBCMT:throw_bad_alloc.obj
 0002:000071b8       ??_R4type_info@@6B@        100261b8     LIBCMT:std_type_info_static.obj
 0002:000071cc       ??_R3type_info@@8          100261cc     LIBCMT:std_type_info_static.obj
 0002:000071dc       ??_R2type_info@@8          100261dc     LIBCMT:std_type_info_static.obj
 0002:000071e4       ??_R1A@?0A@EA@type_info@@8 100261e4     LIBCMT:std_type_info_static.obj
 0002:00007200       ??_R4bad_exception@std@@6B@ 10026200     libvcruntime:frame.obj
 0002:00007214       ??_R3bad_exception@std@@8  10026214     libvcruntime:frame.obj
 0002:00007224       ??_R2bad_exception@std@@8  10026224     libvcruntime:frame.obj
 0002:00007230       ??_R1A@?0A@EA@bad_exception@std@@8 10026230     libvcruntime:frame.obj
 0002:00007250       ___safe_se_handler_table   10026250     <linker-defined>
 0002:00007648       ___rtc_iaa                 10026648     LIBCMT:initsect.obj
 0002:0000764c       ___rtc_izz                 1002664c     LIBCMT:initsect.obj
 0002:00007650       ___rtc_taa                 10026650     LIBCMT:initsect.obj
 0002:00007654       ___rtc_tzz                 10026654     LIBCMT:initsect.obj
 0002:00007658       __tls_start                10026658     LIBCMT:tlssup.obj
 0002:0000765c       __Init_thread_epoch        1002665c     LIBCMT:thread_safe_statics.obj
 0002:00007660       __tls_end                  10026660     LIBCMT:tlssup.obj
 0002:0000775c       __TI2?AVbad_alloc@std@@    1002675c     LIBCMT:throw_bad_alloc.obj
 0002:0000776c       __CTA2?AVbad_alloc@std@@   1002676c     LIBCMT:throw_bad_alloc.obj
 0002:00007778       __CT??_R0?AVbad_alloc@std@@@8??0bad_alloc@std@@QAE@ABV01@@Z12 10026778     LIBCMT:throw_bad_alloc.obj
 0002:00007794       __CT??_R0?AVexception@std@@@8??0exception@std@@QAE@ABV01@@Z12 10026794     LIBCMT:throw_bad_alloc.obj
 0002:000077b0       __TI3?AVbad_array_new_length@std@@ 100267b0     LIBCMT:throw_bad_alloc.obj
 0002:000077c0       __CTA3?AVbad_array_new_length@std@@ 100267c0     LIBCMT:throw_bad_alloc.obj
 0002:000077d0       __CT??_R0?AVbad_array_new_length@std@@@8??0bad_array_new_length@std@@QAE@ABV01@@Z12 100267d0     LIBCMT:throw_bad_alloc.obj
 0002:000078d4       __TI2?AVbad_exception@std@@ 100268d4     libvcruntime:frame.obj
 0002:000078e4       __CTA2?AVbad_exception@std@@ 100268e4     libvcruntime:frame.obj
 0002:000078f0       __CT??_R0?AVbad_exception@std@@@8??0bad_exception@std@@QAE@ABV01@@Z12 100268f0     libvcruntime:frame.obj
 0002:00007c6c       ___pobjMapEntryFirst       10026c6c     OposVariant.obj
 0002:00007c70       ___pobjMapEntryLast        10026c70     OposVariant.obj
 0002:00007d28       __IMPORT_DESCRIPTOR_KERNEL32 10026d28     kernel32:KERNEL32.dll
 0002:00007d3c       __IMPORT_DESCRIPTOR_USER32 10026d3c     user32:USER32.dll
 0002:00007d50       __IMPORT_DESCRIPTOR_GDI32  10026d50     gdi32:GDI32.dll
 0002:00007d64       __IMPORT_DESCRIPTOR_ADVAPI32 10026d64     advapi32:ADVAPI32.dll
 0002:00007d78       __IMPORT_DESCRIPTOR_ole32  10026d78     ole32:ole32.dll
 0002:00007d8c       __IMPORT_DESCRIPTOR_OLEAUT32 10026d8c     oleaut32:OLEAUT32.dll
 0002:00007da0       __NULL_IMPORT_DESCRIPTOR   10026da0     kernel32:KERNEL32.dll
 0003:00000000       ?s_Claim@?7??GetIDsOfNames@CComTypeInfoHolder@ATL@@QAEJABU_GUID@@PAPA_WIKPAJ@Z@4PA_WA 10028000     Totals.obj
 0003:00000018       ?s_Release@?7??GetIDsOfNames@CComTypeInfoHolder@ATL@@QAEJABU_GUID@@PAPA_WIKPAJ@Z@4PA_WA 10028018     Totals.obj
 0003:00000038       ?wc@?1??GetWndClassInfo@?$CWindowImpl@VCOPOSTotals@@VCWindow@ATL@@V?$CWinTraits@$0FGAAAAAA@$0A@@3@@ATL@@SAAAU_ATL_WNDCLASSINFOW@3@XZ@4U43@A 10028038     Totals.obj
 0003:000000c4       ?rcDefault@CWindow@ATL@@2UtagRECT@@A 100280c4     Totals.obj
 0003:000000d4       ?_tih@?$IDispatchImpl@UIOPOSTotals@@$1?IID_IOPOSTotals@@3U_GUID@@B$1?LIBID_OposTotals_CCO@@3U3@B$00$0A@VCComTypeInfoHolder@ATL@@@ATL@@1VCComTypeInfoHolder@2@A 100280d4     Totals.obj
 0003:000000f0       ?_tih@?$IProvideClassInfo2Impl@$1?CLSID_OPOSTotals@@3U_GUID@@B$1?DIID__IOPOSTotalsEvents@@3U2@B$1?LIBID_OposTotals_CCO@@3U2@B$00$0A@VCComTypeInfoHolder@ATL@@@ATL@@1VCComTypeInfoHolder@2@A 100280f0     Totals.obj
 0003:0000010c       ?vszContents@?6??Save@?$IPersistStorageImpl@VCOPOSTotals@@@ATL@@UAGJPAUIStorage@@H@Z@4PB_WB 1002810c     Totals.obj
 0003:00000158       ?g_WindowName@@3PA_WA      10028158     TotalsImpl.obj
 0003:00000174       ?g_ControlDescription@@3PADA 10028174     TotalsImpl.obj
 0003:000001a8       ?g_ControlVersion@@3JA     100281a8     TotalsImpl.obj
 0003:00000258       ___scrt_native_dllmain_reason 10028258     LIBCMT:utility.obj
 0003:0000025c       __Init_global_epoch        1002825c     LIBCMT:thread_safe_statics.obj
 0003:00000260       ___security_cookie_complement 10028260     LIBCMT:gs_cookie.obj
 0003:00000264       ___security_cookie         10028264     LIBCMT:gs_cookie.obj
 0003:00000268       ___isa_enabled             10028268     LIBCMT:cpu_disp.obj
 0003:00000280       __NLG_Destination          10028280     libvcruntime:exsup.obj
 0003:00000298       ___abort_behavior          10028298     libucrt:abort.obj
 0003:000002a8       __iob                      100282a8     libucrt:_file.obj
 0003:00000350       ___acrt_initial_locale_data 10028350     libucrt:nlsdata.obj
 0003:00000408       ___acrt_initial_locale_pointers 10028408     libucrt:nlsdata.obj
 0003:00000410       ___acrt_wide_c_locale_string 10028410     libucrt:nlsdata.obj
 0003:00000418       ___acrt_initial_multibyte_data 10028418     libucrt:mbctype.obj
 0003:00000938       __pwctype                  10028938     libucrt:ctype.obj
 0003:0000093c       ___globallocalestatus      1002893c     libucrt:glstatus.obj
 0003:00000940       ___acrt_lconv_c            10028940     libucrt:localeconv.obj
 0003:00000990       ___acrt_lconv_static_decimal 10028990     libucrt:localeconv.obj
 0003:00000994       ___acrt_lconv_static_W_decimal 10028994     libucrt:localeconv.obj
 0003:000009a0       __lookuptrailbytes         100289a0     libucrt:read.obj
 0003:00000ab0       __fltused                  10028ab0     LIBCMT:fltused.obj
 0003:00000ac0       ??_R0?AVbad_alloc@std@@@8  10028ac0     LIBCMT:throw_bad_alloc.obj
 0003:00000adc       ??_R0?AVexception@std@@@8  10028adc     LIBCMT:throw_bad_alloc.obj
 0003:00000af8       ??_R0?AVbad_array_new_length@std@@@8 10028af8     LIBCMT:throw_bad_alloc.obj
 0003:00000b20       ??_R0?AVtype_info@@@8      10028b20     LIBCMT:std_type_info_static.obj
 0003:00000b38       ??_R0?AVbad_exception@std@@@8 10028b38     libvcruntime:frame.obj
 0003:00000b58       ?_pPerfRegFunc@ATL@@3P6AJPAUHINSTANCE__@@@ZA 10028b58     OposVariant.obj
 0003:00000b5c       ?_pPerfUnRegFunc@ATL@@3P6AJXZA 10028b5c     OposVariant.obj
 0003:00000b60       ?_AtlRegisterPerUser@ATL@@3_NA 10028b60     OposVariant.obj
 0003:00000b64       ?_pAtlModule@ATL@@3PAVCAtlModule@1@A 10028b64     OposVariant.obj
 0003:00000b68       ?_pModule@ATL@@3PAVCComModule@1@A 10028b68     OposVariant.obj
 0003:00000b6c       ?m_bInitFailed@CAtlBaseModule@ATL@@2_NA 10028b6c     OposVariant.obj
 0003:00000b70       ?_AtlComModule@ATL@@3VCAtlComModule@1@A 10028b70     OposVariant.obj
 0003:00000b98       ?_AtlWinModule@ATL@@3VCAtlWinModule@1@A 10028b98     OposVariant.obj
 0003:00000bc4       ?m_libid@CAtlModule@ATL@@2U_GUID@@A 10028bc4     Totals.obj
 0003:00000bd8       ?_OptionsStorage@?1??__local_stdio_printf_options@@9@4_KA 10028bd8     Totals.obj
 0003:00000be0       ?_entries@?1??GetConnMap@COPOSTotals@@SAPBU_ATL_CONNMAP_ENTRY@ATL@@PAH@Z@4QBU34@B 10028be0     Totals.obj
 0003:00000bec       ?$TSS0@?1??GetConnMap@COPOSTotals@@SAPBU_ATL_CONNMAP_ENTRY@ATL@@PAH@Z@4HA 10028bec     Totals.obj
 0003:00000bf0       ?pfnRegDeleteKeyEx@?1??DeleteSubKey@CRegKey@ATL@@QAEJPB_W@Z@4P6GJPAUHKEY__@@0KK@ZA 10028bf0     Totals.obj
 0003:00000bf4       ?bInitialized@?1??DeleteSubKey@CRegKey@ATL@@QAEJPB_W@Z@4_NA 10028bf4     Totals.obj
 0003:00000bf8       ?_Module@@3VCComModule@ATL@@A 10028bf8     Totals.obj
 0003:00000c28       ?pConnMap@?$IConnectionPointContainerImpl@VCOPOSTotals@@@ATL@@0PBU_ATL_CONNMAP_ENTRY@2@B 10028c28     Totals.obj
 0003:00000c2c       ?s_nInstances@COPOSTotals@@1HA 10028c2c     TotalsImpl.obj
 0003:00000c30       ___scrt_current_native_startup_state 10028c30     LIBCMT:utility.obj
 0003:00000c34       ___scrt_native_startup_lock 10028c34     LIBCMT:utility.obj
 0003:00000f9c       __tls_index                10028f9c     LIBCMT:tlssup.obj
 0003:00000fa4       ___isa_available           10028fa4     LIBCMT:cpu_disp.obj
 0003:00000fa8       ___favor                   10028fa8     LIBCMT:cpu_disp.obj
 0003:00000fac       ___scrt_debugger_hook_flag 10028fac     LIBCMT:utility_desktop.obj
 0003:00000fb0       ?__type_info_root_node@@3U__type_info_node@@A 10028fb0     LIBCMT:tncleanup.obj
 0003:00000fb8       ?_OptionsStorage@?1??__local_stdio_scanf_options@@9@4_KA 10028fb8     LIBCMT:default_local_stdio_options.obj
 0003:00000fc0       ?_AtlBaseModule@ATL@@3VCAtlBaseModule@1@A 10028fc0     atls:atlbase.obj
 0003:00000ff8       ?__AtlThunkPool@@3PAT_SLIST_HEADER@@A 10028ff8     atls:atlthunk.obj
 0003:00001010       ___@@_PchSym_@00@UztvmgUPdlipUDUhUrmgvinvwrzgvUexgllohUzgohOmzgrevkilqPBACIAJCBDBUlyqiUcIGUhgwzucOlyq@4B2008FD98C1DD4 10029010     atls:stdafx.obj
 0003:00001014       ___pPurecall               10029014     libvcruntime:purevirt_data.obj
 0003:0000105c       ?pArgList@UnDecorator@@0PAVReplicator@@A 1002905c     libvcruntime:undname.obj
 0003:00001060       ?pZNameList@UnDecorator@@0PAVReplicator@@A 10029060     libvcruntime:undname.obj
 0003:00001064       ?pTemplateArgList@UnDecorator@@0PAVReplicator@@A 10029064     libvcruntime:undname.obj
 0003:00001068       ?gName@UnDecorator@@0PBDB  10029068     libvcruntime:undname.obj
 0003:0000106c       ?name@UnDecorator@@0PBDB   1002906c     libvcruntime:undname.obj
 0003:00001070       ?disableFlags@UnDecorator@@0KA 10029070     libvcruntime:undname.obj
 0003:00001074       ?fExplicitTemplateParams@UnDecorator@@0_NA 10029074     libvcruntime:undname.obj
 0003:00001075       ?fGetTemplateArgumentList@UnDecorator@@0_NA 10029075     libvcruntime:undname.obj
 0003:00001078       ?m_pGetParameter@UnDecorator@@0P6APADJ@ZA 10029078     libvcruntime:undname.obj
 0003:0000107c       ?m_CHPENameOffset@UnDecorator@@0KA 1002907c     libvcruntime:undname.obj
 0003:00001080       ?m_recursionLevel@UnDecorator@@0KA 10029080     libvcruntime:undname.obj
 0003:000010b8       ?__WinRTOutOfMemoryExceptionCallback@@3P6GPAXXZA 100290b8     libvcruntime:ehhelpers.obj
 0003:000010c8       ?c_exit_complete@?1???R<lambda_6e4b09c48022b2350581041d5f6b0c4c>@@QBE@XZ@4_NA 100290c8     libucrt:exit.obj
 0003:000011d8       __environ_table            100291d8     libucrt:environment_initialization.obj
 0003:000011dc       __wenviron_table           100291dc     libucrt:environment_initialization.obj
 0003:000011e0       ___dcrt_initial_wide_environment 100291e0     libucrt:environment_initialization.obj
 0003:000011e4       ___dcrt_initial_narrow_environment 100291e4     libucrt:environment_initialization.obj
 0003:000011e8       ___acrt_atexit_table       100291e8     libucrt:onexit.obj
 0003:000011f4       ___acrt_at_quick_exit_table 100291f4     libucrt:onexit.obj
 0003:000012e8       __nstream                  100292e8     libucrt:_file.obj
 0003:000012ec       ___piob                    100292ec     libucrt:_file.obj
 0003:000012f4       ___acrt_stdout_buffer      100292f4     libucrt:_sftbuf.obj
 0003:000012f8       ___acrt_stderr_buffer      100292f8     libucrt:_sftbuf.obj
 0003:000012fc       ___acrt_locale_changed_data 100292fc     libucrt:wsetlocale.obj
 0003:00001300       ___acrt_current_locale_data 10029300     libucrt:nlsdata.obj
 0003:00001308       ___pioinfo                 10029308     libucrt:ioinit.obj
 0003:00001508       __nhandle                  10029508     libucrt:ioinit.obj
 0003:00001664       __mbctype                  10029664     libucrt:mbctype.obj
 0003:00001668       __mbcasemap                10029668     libucrt:mbctype.obj
 0003:0000166c       ___acrt_current_multibyte_data 1002966c     libucrt:mbctype.obj
 0003:00001678       __pgmptr                   10029678     libucrt:argv_data.obj
 0003:0000167c       ___argc                    1002967c     libucrt:argv_data.obj
 0003:00001680       ___argv                    10029680     libucrt:argv_data.obj
 0003:00001684       ___wargv                   10029684     libucrt:argv_data.obj
 0003:00001688       __acmdln                   10029688     libucrt:argv_data.obj
 0003:0000168c       __wcmdln                   1002968c     libucrt:argv_data.obj
 0003:00001690       ___acrt_heap               10029690     libucrt:heap_handle.obj
 0003:000016ac       ___acrt_lconv_static_null  100296ac     libucrt:localeconv.obj
 0003:000016b0       ___acrt_lconv_static_W_null 100296b0     libucrt:localeconv.obj
 0003:000016c0       ___fastflag                100296c0     libucrt:fp_flags.obj
 0003:000016c8       ___dyn_tls_init_callback   100296c8     <common>
 0003:000016cc       ___scrt_ucrt_dll_is_in_use 100296cc     <common>
 0003:000016d0       __pmatherr                 100296d0     <common>
 0003:000016d4       ___use_sse2_mathfcns       100296d4     <common>

 entry point at        0001:0000bd48

 Static symbols

 0000:fffcf000       .debug$S                   10000000     kernel32:KERNEL32.dll
 0000:fffcf000       .debug$S                   10000000     ole32:ole32.dll
 0000:fffcf000       .debug$S                   10000000     ole32:ole32.dll
 0000:fffcf000       .debug$S                   10000000     ole32:ole32.dll
 0000:fffcf000       .debug$S                   10000000     ole32:ole32.dll
 0000:fffcf000       .debug$S                   10000000     ole32:ole32.dll
 0000:fffcf000       .debug$S                   10000000     oleaut32:OLEAUT32.dll
 0000:fffcf000       .debug$S                   10000000     oleaut32:OLEAUT32.dll
 0000:fffcf000       .debug$S                   10000000     oleaut32:OLEAUT32.dll
 0000:fffcf000       .debug$S                   10000000     oleaut32:OLEAUT32.dll
 0000:fffcf000       .debug$S                   10000000     oleaut32:OLEAUT32.dll
 0000:fffcf000       .debug$S                   10000000     oleaut32:OLEAUT32.dll
 0000:fffcf000       .debug$S                   10000000     oleaut32:OLEAUT32.dll
 0000:fffcf000       .debug$S                   10000000     oleaut32:OLEAUT32.dll
 0000:fffcf000       .debug$S                   10000000     oleaut32:OLEAUT32.dll
 0000:fffcf000       .debug$S                   10000000     OPOSTotals.exp
 0000:fffcf000       .debug$S                   10000000     oleaut32:OLEAUT32.dll
 0000:fffcf000       .debug$S                   10000000     oleaut32:OLEAUT32.dll
 0000:fffcf000       .debug$S                   10000000     oleaut32:OLEAUT32.dll
 0000:fffcf000       .debug$S                   10000000     oleaut32:OLEAUT32.dll
 0000:fffcf000       .debug$S                   10000000     oleaut32:OLEAUT32.dll
 0000:fffcf000       .debug$S                   10000000     oleaut32:OLEAUT32.dll
 0000:fffcf000       .debug$S                   10000000     oleaut32:OLEAUT32.dll
 0000:fffcf000       .debug$S                   10000000     kernel32:KERNEL32.dll
 0000:fffcf000       .debug$S                   10000000     kernel32:KERNEL32.dll
 0000:fffcf000       .debug$S                   10000000     kernel32:KERNEL32.dll
 0000:fffcf000       .debug$S                   10000000     kernel32:KERNEL32.dll
 0000:fffcf000       .debug$S                   10000000     kernel32:KERNEL32.dll
 0000:fffcf000       .debug$S                   10000000     kernel32:KERNEL32.dll
 0000:fffcf000       .debug$S                   10000000     kernel32:KERNEL32.dll
 0000:fffcf000       .debug$S                   10000000     kernel32:KERNEL32.dll
 0000:fffcf000       .debug$S                   10000000     kernel32:KERNEL32.dll
 0000:fffcf000       .debug$S                   10000000     kernel32:KERNEL32.dll
 0000:fffcf000       .debug$S                   10000000     kernel32:KERNEL32.dll
 0000:fffcf000       .debug$S                   10000000     kernel32:KERNEL32.dll
 0000:fffcf000       .debug$S                   10000000     kernel32:KERNEL32.dll
 0000:fffcf000       .debug$S                   10000000     kernel32:KERNEL32.dll
 0000:fffcf000       .debug$S                   10000000     kernel32:KERNEL32.dll
 0000:fffcf000       .debug$S                   10000000     kernel32:KERNEL32.dll
 0000:fffcf000       .debug$S                   10000000     kernel32:KERNEL32.dll
 0000:fffcf000       .debug$S                   10000000     kernel32:KERNEL32.dll
 0000:fffcf000       .debug$S                   10000000     kernel32:KERNEL32.dll
 0000:fffcf000       .debug$S                   10000000     kernel32:KERNEL32.dll
 0000:fffcf000       .debug$S                   10000000     kernel32:KERNEL32.dll
 0000:fffcf000       .debug$S                   10000000     kernel32:KERNEL32.dll
 0000:fffcf000       .debug$S                   10000000     kernel32:KERNEL32.dll
 0000:fffcf000       .debug$S                   10000000     kernel32:KERNEL32.dll
 0000:fffcf000       .debug$S                   10000000     kernel32:KERNEL32.dll
 0000:fffcf000       .debug$S                   10000000     kernel32:KERNEL32.dll
 0000:fffcf000       .debug$S                   10000000     kernel32:KERNEL32.dll
 0000:fffcf000       .debug$S                   10000000     kernel32:KERNEL32.dll
 0000:fffcf000       .debug$S                   10000000     kernel32:KERNEL32.dll
 0000:fffcf000       .debug$S                   10000000     kernel32:KERNEL32.dll
 0000:fffcf000       .debug$S                   10000000     kernel32:KERNEL32.dll
 0000:fffcf000       .debug$S                   10000000     kernel32:KERNEL32.dll
 0000:fffcf000       .debug$S                   10000000     kernel32:KERNEL32.dll
 0000:fffcf000       .debug$S                   10000000     kernel32:KERNEL32.dll
 0000:fffcf000       .debug$S                   10000000     kernel32:KERNEL32.dll
 0000:fffcf000       .debug$S                   10000000     kernel32:KERNEL32.dll
 0000:fffcf000       .debug$S                   10000000     kernel32:KERNEL32.dll
 0000:fffcf000       .debug$S                   10000000     kernel32:KERNEL32.dll
 0000:fffcf000       .debug$S                   10000000     kernel32:KERNEL32.dll
 0000:fffcf000       .debug$S                   10000000     kernel32:KERNEL32.dll
 0000:fffcf000       .debug$S                   10000000     kernel32:KERNEL32.dll
 0000:fffcf000       .debug$S                   10000000     kernel32:KERNEL32.dll
 0000:fffcf000       .debug$S                   10000000     kernel32:KERNEL32.dll
 0000:fffcf000       .debug$S                   10000000     kernel32:KERNEL32.dll
 0000:fffcf000       .debug$S                   10000000     kernel32:KERNEL32.dll
 0000:fffcf000       .debug$S                   10000000     kernel32:KERNEL32.dll
 0000:fffcf000       .debug$S                   10000000     kernel32:KERNEL32.dll
 0000:fffcf000       .debug$S                   10000000     kernel32:KERNEL32.dll
 0000:fffcf000       .debug$S                   10000000     kernel32:KERNEL32.dll
 0000:fffcf000       .debug$S                   10000000     kernel32:KERNEL32.dll
 0000:fffcf000       .debug$S                   10000000     user32:USER32.dll
 0000:fffcf000       .debug$S                   10000000     kernel32:KERNEL32.dll
 0000:fffcf000       .debug$S                   10000000     kernel32:KERNEL32.dll
 0000:fffcf000       .debug$S                   10000000     kernel32:KERNEL32.dll
 0000:fffcf000       .debug$S                   10000000     kernel32:KERNEL32.dll
 0000:fffcf000       .debug$S                   10000000     kernel32:KERNEL32.dll
 0000:fffcf000       .debug$S                   10000000     kernel32:KERNEL32.dll
 0000:fffcf000       .debug$S                   10000000     kernel32:KERNEL32.dll
 0000:fffcf000       .debug$S                   10000000     kernel32:KERNEL32.dll
 0000:fffcf000       .debug$S                   10000000     kernel32:KERNEL32.dll
 0000:fffcf000       .debug$S                   10000000     kernel32:KERNEL32.dll
 0000:fffcf000       .debug$S                   10000000     kernel32:KERNEL32.dll
 0000:fffcf000       .debug$S                   10000000     kernel32:KERNEL32.dll
 0000:fffcf000       .debug$S                   10000000     kernel32:KERNEL32.dll
 0000:fffcf000       .debug$S                   10000000     kernel32:KERNEL32.dll
 0000:fffcf000       .debug$S                   10000000     kernel32:KERNEL32.dll
 0000:fffcf000       .debug$S                   10000000     kernel32:KERNEL32.dll
 0000:fffcf000       .debug$S                   10000000     kernel32:KERNEL32.dll
 0000:fffcf000       .debug$S                   10000000     kernel32:KERNEL32.dll
 0000:fffcf000       .debug$S                   10000000     kernel32:KERNEL32.dll
 0000:fffcf000       .debug$S                   10000000     kernel32:KERNEL32.dll
 0000:fffcf000       .debug$S                   10000000     kernel32:KERNEL32.dll
 0000:fffcf000       .debug$S                   10000000     kernel32:KERNEL32.dll
 0000:fffcf000       .debug$S                   10000000     kernel32:KERNEL32.dll
 0000:fffcf000       .debug$S                   10000000     kernel32:KERNEL32.dll
 0000:fffcf000       .debug$S                   10000000     kernel32:KERNEL32.dll
 0000:fffcf000       .debug$S                   10000000     kernel32:KERNEL32.dll
 0000:fffcf000       .debug$S                   10000000     kernel32:KERNEL32.dll
 0000:fffcf000       .debug$S                   10000000     kernel32:KERNEL32.dll
 0000:fffcf000       .debug$S                   10000000     kernel32:KERNEL32.dll
 0000:fffcf000       .debug$S                   10000000     kernel32:KERNEL32.dll
 0000:fffcf000       .debug$S                   10000000     kernel32:KERNEL32.dll
 0000:fffcf000       .debug$S                   10000000     kernel32:KERNEL32.dll
 0000:fffcf000       .debug$S                   10000000     kernel32:KERNEL32.dll
 0000:fffcf000       .debug$S                   10000000     kernel32:KERNEL32.dll
 0000:fffcf000       .debug$S                   10000000     kernel32:KERNEL32.dll
 0000:fffcf000       .debug$S                   10000000     kernel32:KERNEL32.dll
 0000:fffcf000       .debug$S                   10000000     kernel32:KERNEL32.dll
 0000:fffcf000       .debug$S                   10000000     kernel32:KERNEL32.dll
 0000:fffcf000       .debug$S                   10000000     kernel32:KERNEL32.dll
 0000:fffcf000       .debug$S                   10000000     kernel32:KERNEL32.dll
 0000:fffcf000       .debug$S                   10000000     kernel32:KERNEL32.dll
 0000:fffcf000       .debug$S                   10000000     kernel32:KERNEL32.dll
 0000:fffcf000       .debug$S                   10000000     kernel32:KERNEL32.dll
 0000:fffcf000       .debug$S                   10000000     kernel32:KERNEL32.dll
 0000:fffcf000       .debug$S                   10000000     kernel32:KERNEL32.dll
 0000:fffcf000       .debug$S                   10000000     kernel32:KERNEL32.dll
 0000:fffcf000       .debug$S                   10000000     kernel32:KERNEL32.dll
 0000:fffcf000       .debug$S                   10000000     kernel32:KERNEL32.dll
 0000:fffcf000       .debug$S                   10000000     kernel32:KERNEL32.dll
 0000:fffcf000       .debug$S                   10000000     kernel32:KERNEL32.dll
 0000:fffcf000       .debug$S                   10000000     kernel32:KERNEL32.dll
 0000:fffcf000       .debug$S                   10000000     kernel32:KERNEL32.dll
 0000:fffcf000       .debug$S                   10000000     kernel32:KERNEL32.dll
 0000:fffcf000       .debug$S                   10000000     kernel32:KERNEL32.dll
 0000:fffcf000       .debug$S                   10000000     kernel32:KERNEL32.dll
 0000:fffcf000       .debug$S                   10000000     user32:USER32.dll
 0000:fffcf000       .debug$S                   10000000     user32:USER32.dll
 0000:fffcf000       .debug$S                   10000000     user32:USER32.dll
 0000:fffcf000       .debug$S                   10000000     user32:USER32.dll
 0000:fffcf000       .debug$S                   10000000     user32:USER32.dll
 0000:fffcf000       .debug$S                   10000000     user32:USER32.dll
 0000:fffcf000       .debug$S                   10000000     user32:USER32.dll
 0000:fffcf000       .debug$S                   10000000     user32:USER32.dll
 0000:fffcf000       .debug$S                   10000000     user32:USER32.dll
 0000:fffcf000       .debug$S                   10000000     user32:USER32.dll
 0000:fffcf000       .debug$S                   10000000     user32:USER32.dll
 0000:fffcf000       .debug$S                   10000000     user32:USER32.dll
 0000:fffcf000       .debug$S                   10000000     user32:USER32.dll
 0000:fffcf000       .debug$S                   10000000     user32:USER32.dll
 0000:fffcf000       .debug$S                   10000000     user32:USER32.dll
 0000:fffcf000       .debug$S                   10000000     user32:USER32.dll
 0000:fffcf000       .debug$S                   10000000     user32:USER32.dll
 0000:fffcf000       .debug$S                   10000000     user32:USER32.dll
 0000:fffcf000       .debug$S                   10000000     user32:USER32.dll
 0000:fffcf000       .debug$S                   10000000     user32:USER32.dll
 0000:fffcf000       .debug$S                   10000000     user32:USER32.dll
 0000:fffcf000       .debug$S                   10000000     user32:USER32.dll
 0000:fffcf000       .debug$S                   10000000     user32:USER32.dll
 0000:fffcf000       .debug$S                   10000000     user32:USER32.dll
 0000:fffcf000       .debug$S                   10000000     user32:USER32.dll
 0000:fffcf000       .debug$S                   10000000     user32:USER32.dll
 0000:fffcf000       .debug$S                   10000000     user32:USER32.dll
 0000:fffcf000       .debug$S                   10000000     user32:USER32.dll
 0000:fffcf000       .debug$S                   10000000     user32:USER32.dll
 0000:fffcf000       .debug$S                   10000000     user32:USER32.dll
 0000:fffcf000       .debug$S                   10000000     user32:USER32.dll
 0000:fffcf000       .debug$S                   10000000     user32:USER32.dll
 0000:fffcf000       .debug$S                   10000000     user32:USER32.dll
 0000:fffcf000       .debug$S                   10000000     user32:USER32.dll
 0000:fffcf000       .debug$S                   10000000     gdi32:GDI32.dll
 0000:fffcf000       .debug$S                   10000000     gdi32:GDI32.dll
 0000:fffcf000       .debug$S                   10000000     gdi32:GDI32.dll
 0000:fffcf000       .debug$S                   10000000     gdi32:GDI32.dll
 0000:fffcf000       .debug$S                   10000000     gdi32:GDI32.dll
 0000:fffcf000       .debug$S                   10000000     gdi32:GDI32.dll
 0000:fffcf000       .debug$S                   10000000     gdi32:GDI32.dll
 0000:fffcf000       .debug$S                   10000000     gdi32:GDI32.dll
 0000:fffcf000       .debug$S                   10000000     gdi32:GDI32.dll
 0000:fffcf000       .debug$S                   10000000     gdi32:GDI32.dll
 0000:fffcf000       .debug$S                   10000000     gdi32:GDI32.dll
 0000:fffcf000       .debug$S                   10000000     gdi32:GDI32.dll
 0000:fffcf000       .debug$S                   10000000     gdi32:GDI32.dll
 0000:fffcf000       .debug$S                   10000000     gdi32:GDI32.dll
 0000:fffcf000       .debug$S                   10000000     gdi32:GDI32.dll
 0000:fffcf000       .debug$S                   10000000     gdi32:GDI32.dll
 0000:fffcf000       .debug$S                   10000000     gdi32:GDI32.dll
 0000:fffcf000       .debug$S                   10000000     gdi32:GDI32.dll
 0000:fffcf000       .debug$S                   10000000     gdi32:GDI32.dll
 0000:fffcf000       .debug$S                   10000000     advapi32:ADVAPI32.dll
 0000:fffcf000       .debug$S                   10000000     advapi32:ADVAPI32.dll
 0000:fffcf000       .debug$S                   10000000     advapi32:ADVAPI32.dll
 0000:fffcf000       .debug$S                   10000000     advapi32:ADVAPI32.dll
 0000:fffcf000       .debug$S                   10000000     advapi32:ADVAPI32.dll
 0000:fffcf000       .debug$S                   10000000     advapi32:ADVAPI32.dll
 0000:fffcf000       .debug$S                   10000000     advapi32:ADVAPI32.dll
 0000:fffcf000       .debug$S                   10000000     advapi32:ADVAPI32.dll
 0000:fffcf000       .debug$S                   10000000     advapi32:ADVAPI32.dll
 0000:fffcf000       .debug$S                   10000000     ole32:ole32.dll
 0000:fffcf000       .debug$S                   10000000     ole32:ole32.dll
 0000:fffcf000       .debug$S                   10000000     ole32:ole32.dll
 0000:fffcf000       .debug$S                   10000000     ole32:ole32.dll
 0000:fffcf000       .debug$S                   10000000     ole32:ole32.dll
 0000:fffcf000       .debug$S                   10000000     ole32:ole32.dll
 0000:fffcf000       .debug$S                   10000000     ole32:ole32.dll
 0000:fffcf000       .debug$S                   10000000     ole32:ole32.dll
 0000:fffcf000       .debug$S                   10000000     ole32:ole32.dll
 0001:00000000       ??__E_AtlComModule@ATL@@YAXXZ 10001000 f   OposVariant.obj
 0001:00000016       ??__E_AtlWinModule@ATL@@YAXXZ 10001016 f   OposVariant.obj
 0001:0000002c       ??__E?pConnMap@?$IConnectionPointContainerImpl@VCOPOSTotals@@@ATL@@0PBU_ATL_CONNMAP_ENTRY@2@B@@YAXXZ 1000102c f   Totals.obj
 0001:0000003a       ??__E_Module@@YAXXZ        1000103a f   Totals.obj
 0001:00000064       ??__E_AtlBaseModule@ATL@@YAXXZ 10001064 f   atls:atlbase.obj
 0001:0000165e       $LN36                      1000265e     Totals.obj
 0001:000059e5       $LN50                      100069e5     Totals.obj
 0001:000059fd       $LN49                      100069fd     Totals.obj
 0001:00007841       $LN37                      10008841     Totals.obj
 0001:00007859       $LN36                      10008859     Totals.obj
 0001:00008e0f       $LN82                      10009e0f     Totals.obj
 0001:00008e27       $LN81                      10009e27     Totals.obj
 0001:00009254       _memcpy_s                  1000a254 f   Totals.obj
 0001:0000b1fa       ?find_pe_section@@YAPAU_IMAGE_SECTION_HEADER@@QAEI@Z 1000c1fa f   LIBCMT:utility.obj
 0001:0000b519       ?__scrt_initialize_thread_safe_statics@@YAHXZ 1000c519 f   LIBCMT:thread_safe_statics.obj
 0001:0000b540       ?__scrt_initialize_thread_safe_statics_platform_specific@@YAXXZ 1000c540 f   LIBCMT:thread_safe_statics.obj
 0001:0000b5c2       ?__scrt_uninitialize_thread_safe_statics@@YAXXZ 1000c5c2 f   LIBCMT:thread_safe_statics.obj
 0001:0000b931       __catch$??2@YAPAXIABUnothrow_t@std@@@Z$0 1000c931 f   LIBCMT:new_scalar_nothrow.obj
 0001:0000b970       $$000000                   1000c970     LIBCMT:sehprolg4gs.obj
 0001:0000b9d0       $$000000                   1000c9d0     LIBCMT:alloca16.obj
 0001:0000ba00       $$000000                   1000ca00     LIBCMT:chkstk.obj
 0001:0000ba2d       ?dllmain_crt_dispatch@@YGHQAUHINSTANCE__@@KQAX@Z 1000ca2d f   LIBCMT:dll_dllmain.obj
 0001:0000ba80       ?dllmain_crt_process_attach@@YAHQAUHINSTANCE__@@QAX@Z 1000ca80 f   LIBCMT:dll_dllmain.obj
 0001:0000bb87       ?dllmain_crt_process_detach@@YAH_N@Z 1000cb87 f   LIBCMT:dll_dllmain.obj
 0001:0000bc17       ?dllmain_dispatch@@YAHQAUHINSTANCE__@@KQAX@Z 1000cc17 f   LIBCMT:dll_dllmain.obj
 0001:0000bd1d       ?dllmain_raw@@YGHQAUHINSTANCE__@@KQAX@Z 1000cd1d f   LIBCMT:dll_dllmain.obj
 0001:0000c060       $$000000                   1000d060     LIBCMT:sehprolg4.obj
 0001:0000c0bc       ___get_entropy             1000d0bc f   LIBCMT:gs_support.obj
 0001:0000c3b3       ??$GetProcAddressAll@P6GP6GJPAUHWND__@@IIJ@ZPAUAtlThunkData_t@@@Z@@YAP6GP6GJPAUHWND__@@IIJ@ZPAUAtlThunkData_t@@@ZPAP6GP6GJ0IIJ@Z1@Z@Z 1000d3b3 f   atls:atlthunk.obj
 0001:0000c3b3       ??$GetProcAddressAll@P6GPAUAtlThunkData_t@@XZ@@YAP6GPAUAtlThunkData_t@@XZPAP6GPAU0@XZ@Z 1000d3b3 f   atls:atlthunk.obj
 0001:0000c3b3       ??$GetProcAddressAll@P6GXPAUAtlThunkData_t@@PAXI@Z@@YAP6GXPAUAtlThunkData_t@@PAXI@ZPAP6GX01I@Z@Z 1000d3b3 f   atls:atlthunk.obj
 0001:0000c3b3       ??$GetProcAddressAll@P6GXPAUAtlThunkData_t@@@Z@@YAP6GXPAUAtlThunkData_t@@@ZPAP6GX0@Z@Z 1000d3b3 f   atls:atlthunk.obj
 0001:0000c463       ?GetProcAddressSingle@@YA_NPAUHINSTANCE__@@PBDPAPAX@Z 1000d463 f   atls:atlthunk.obj
 0001:0000c5b5       ?__InitializeThunkPool@@YAHXZ 1000d5b5 f   atls:atlthunk.obj
 0001:0000ca10       _ValidateLocalCookies      1000da10 f   libvcruntime:chandler4.obj
 0001:0000dad2       $LN1241                    1000ead2     libvcruntime:memcmp.obj
 0001:0000db60       $$000000                   1000eb60     libvcruntime:memcpy.obj
 0001:0000ddc4       TrailingUpVec              1000edc4     libvcruntime:memcpy.obj
 0001:0000de70       TrailingDownVec            1000ee70     libvcruntime:memcpy.obj
 0001:0000e0e0       $$000000                   1000f0e0     libvcruntime:memset.obj
 0001:0000e790       $$000000                   1000f790     libvcruntime:memmove.obj
 0001:0000e9f4       TrailingUpVec              1000f9f4     libvcruntime:memmove.obj
 0001:0000eaa0       TrailingDownVec            1000faa0     libvcruntime:memmove.obj
 0001:0000ed10       $$000000                   1000fd10     libvcruntime:exsup4.obj
 0001:0000eda0       __unwind_handler4          1000fda0 f   libvcruntime:exsup4.obj
 0001:0000f07f       ??$BuildCatchObjectHelperInternal@V__FrameHandler3@@@@YAHPAUEHExceptionRecord@@PAXPBU_s_HandlerType@@PBU_s_CatchableType@@@Z 1001007f f   libvcruntime:frame.obj
 0001:0000f1bd       ??$BuildCatchObjectInternal@V__FrameHandler3@@@@YAXPAUEHExceptionRecord@@PAXPBU_s_HandlerType@@PBU_s_CatchableType@@@Z 100101bd f   libvcruntime:frame.obj
 0001:0000f256       ??$CatchIt@V__FrameHandler3@@@@YAXPAUEHExceptionRecord@@PAUEHRegistrationNode@@PAU_CONTEXT@@PAXPBU_s_FuncInfo@@PBU_s_HandlerType@@PBU_s_CatchableType@@PBU_s_TryBlockMapEntry@@H1EE@Z 10010256 f   libvcruntime:frame.obj
 0001:0000f2d6       ??$FindHandler@V__FrameHandler3@@@@YAXPAUEHExceptionRecord@@PAUEHRegistrationNode@@PAU_CONTEXT@@PAXPBU_s_FuncInfo@@EH1@Z 100102d6 f   libvcruntime:frame.obj
 0001:0000f675       ??$FindHandlerForForeignException@V__FrameHandler3@@@@YAXPAUEHExceptionRecord@@PAUEHRegistrationNode@@PAU_CONTEXT@@PAXPBU_s_FuncInfo@@HH1@Z 10010675 f   libvcruntime:frame.obj
 0001:0000f98d       ?CallCatchBlock@@YAPAXPAUEHExceptionRecord@@PAUEHRegistrationNode@@PAU_CONTEXT@@PBU_s_FuncInfo@@PAXHK@Z 1001098d f   libvcruntime:frame.obj
 0001:0000fb51       ?CallUnexpected@@YAXPBU_s_ESTypeList@@@Z 10010b51 f   libvcruntime:frame.obj
 0001:0000fb71       __catch$?CallUnexpected@@YAXPBU_s_ESTypeList@@@Z$0 10010b71 f   libvcruntime:frame.obj
 0001:0000fb8b       ?ExFilterRethrow@@YAHPAU_EXCEPTION_POINTERS@@@Z 10010b8b f   libvcruntime:frame.obj
 0001:0000fcd5       ?IsInExceptionSpec@@YAEPAUEHExceptionRecord@@PBU_s_ESTypeList@@@Z 10010cd5 f   libvcruntime:frame.obj
 0001:0000fda0       $$000000                   10010da0     libvcruntime:lowhelpr.obj
 0001:0000fdf0       $$000000                   10010df0     libvcruntime:exsup.obj
 0001:0000fe11       __unwind_handler           10010e11 f   libvcruntime:exsup.obj
 0001:0000ff2e       ?try_get_first_available_module@@YAPAUHINSTANCE__@@QBW4module_id@?A0x09dcfcb8@@0@Z 10010f2e f   libvcruntime:winapi_downlevel.obj
 0001:0000ffda       ?try_get_function@@YAPAXW4function_id@?A0x09dcfcb8@@QBDQBW4module_id@2@2@Z 10010fda f   libvcruntime:winapi_downlevel.obj
 0001:000107a1       ??$common_tcsncpy_s@_W@@YAHQA_WIQB_WI@Z 100117a1 f   libucrt:wcsncpy_s.obj
 0001:00010877       ??$common_vsprintf@Vformat_validation_base@__crt_stdio_output@@_W@@YAH_KQA_WIQB_WQAU__crt_locale_pointers@@QAD@Z 10011877 f   libucrt:output.obj
 0001:000109fe       ??$common_vsprintf_s@_W@@YAH_KQA_WIQB_WQAU__crt_locale_pointers@@QAD@Z 100119fe f   libucrt:output.obj
 0001:0001112d       $LN51                      1001212d     libucrt:output.obj
 0001:00011628       $LN20                      10012628     libucrt:output.obj
 0001:0001163c       $LN17                      1001263c     libucrt:output.obj
 0001:00011e9b       ??$?RV<lambda_03b1d95aef87969028cfba75ccab2455>@@AAV<lambda_6e4b09c48022b2350581041d5f6b0c4c>@@V<lambda_22bdf7517842c4b3e53723af5aa32b9e>@@@?$__crt_seh_guarded_call@X@@QAEX$$QAV<lambda_03b1d95aef87969028cfba75ccab2455>@@AAV<lambda_6e4b09c48022b2350581041d5f6b0c4c>@@$$QAV<lambda_22bdf7517842c4b3e53723af5aa32b9e>@@@Z 10012e9b f   libucrt:exit.obj
 0001:00011ee8       ??R<lambda_6e4b09c48022b2350581041d5f6b0c4c>@@QBE@XZ 10012ee8 f   libucrt:exit.obj
 0001:00011fc2       ?atexit_exception_filter@@YAHK@Z 10012fc2 f   libucrt:exit.obj
 0001:00011fd5       ?common_exit@@YAXHW4_crt_exit_cleanup_mode@@W4_crt_exit_return_mode@@@Z 10012fd5 f   libucrt:exit.obj
 0001:00012039       ?exit_or_terminate_process@@YAXI@Z 10013039 f   libucrt:exit.obj
 0001:0001207b       ?is_managed_app@@YA_NXZ    1001307b f   libucrt:exit.obj
 0001:000120be       ?try_cor_exit_process@@YAXI@Z 100130be f   libucrt:exit.obj
 0001:0001214c       ??$common_configure_argv@D@@YAHW4_crt_argv_mode@@@Z 1001314c f   libucrt:argv_parsing.obj
 0001:00012282       ??$parse_command_line@D@@YAXPADPAPAD0PAI2@Z 10013282 f   libucrt:argv_parsing.obj
 0001:00012453       ??$common_initialize_environment_nolock@D@@YAHXZ 10013453 f   libucrt:environment_initialization.obj
 0001:000124a6       ??$create_environment@D@@YAQAPADQAD@Z 100134a6 f   libucrt:environment_initialization.obj
 0001:00012576       ??$free_environment@_W@@YAXQAPA_W@Z 10013576 f   libucrt:environment_initialization.obj
 0001:00012576       ??$free_environment@D@@YAXQAPAD@Z 10013576 f   libucrt:environment_initialization.obj
 0001:000125ce       ??$uninitialize_environment_internal@D@@YAXAAPAPAD@Z 100135ce f   libucrt:environment_initialization.obj
 0001:000125e9       ??$uninitialize_environment_internal@_W@@YAXAAPAPA_W@Z 100135e9 f   libucrt:environment_initialization.obj
 0001:00012640       ??$?RV<lambda_69a2805e680e0e292e8ba93315fe43a8>@@AAV<lambda_f03950bc5685219e0bcd2087efbe011e>@@V<lambda_03fcd07e894ec930e3f35da366ca99d6>@@@?$__crt_seh_guarded_call@H@@QAEH$$QAV<lambda_69a2805e680e0e292e8ba93315fe43a8>@@AAV<lambda_f03950bc5685219e0bcd2087efbe011e>@@$$QAV<lambda_03fcd07e894ec930e3f35da366ca99d6>@@@Z 10013640 f   libucrt:onexit.obj
 0001:0001269b       ??$?RV<lambda_8e746cf0007f6ed984d6f78af1fec997>@@AAV<lambda_22ebabd17bc4fa466a2aca6d8deb888d>@@V<lambda_18ed0c0b38a6dc0daf1e7ac6d6adf05e>@@@?$__crt_seh_guarded_call@H@@QAEH$$QAV<lambda_8e746cf0007f6ed984d6f78af1fec997>@@AAV<lambda_22ebabd17bc4fa466a2aca6d8deb888d>@@$$QAV<lambda_18ed0c0b38a6dc0daf1e7ac6d6adf05e>@@@Z 1001369b f   libucrt:onexit.obj
 0001:00012715       ??R<lambda_22ebabd17bc4fa466a2aca6d8deb888d>@@QBEHXZ 10013715 f   libucrt:onexit.obj
 0001:0001283e       ??R<lambda_f03950bc5685219e0bcd2087efbe011e>@@QBEHXZ 1001383e f   libucrt:onexit.obj
 0001:000129b7       _report_memory_leaks       100139b7 f   libucrt:initialization.obj
 0001:000129b7       _uninitialize_c            100139b7 f   libucrt:initialization.obj
 0001:000129b7       _initialize_environment    100139b7 f   libucrt:initialization.obj
 0001:000129b7       _initialize_global_state_isolation 100139b7 f   libucrt:initialization.obj
 0001:000129b7       _uninitialize_global_state_isolation 100139b7 f   libucrt:initialization.obj
 0001:000129ba       _initialize_global_variables 100139ba f   libucrt:initialization.obj
 0001:000129c7       _initialize_c              100139c7 f   libucrt:initialization.obj
 0001:000129e1       _uninitialize_environment  100139e1 f   libucrt:initialization.obj
 0001:000129e9       _initialize_pointers       100139e9 f   libucrt:initialization.obj
 0001:00012a17       _uninitialize_vcruntime    10013a17 f   libucrt:initialization.obj
 0001:00012a20       _uninitialize_allocated_memory 10013a20 f   libucrt:initialization.obj
 0001:00012a37       _uninitialize_allocated_io_buffers 10013a37 f   libucrt:initialization.obj
 0001:00012a87       ??R<lambda_af42a3ee9806e9a7305d451646e05244>@@QBEXAAPAU__crt_multibyte_data@@@Z 10013a87 f   libucrt:initialization.obj
 0001:00013370       $$000000                   10014370     libucrt:strncmp.obj
 0001:0001345c       ??$?RV<lambda_15ade71b0218206bbe3333a0c9b79046>@@AAV<lambda_da44e0f8b0f19ba52fefafb335991732>@@V<lambda_207f2d024fc103971653565357d6cd41>@@@?$__crt_seh_guarded_call@X@@QAEX$$QAV<lambda_15ade71b0218206bbe3333a0c9b79046>@@AAV<lambda_da44e0f8b0f19ba52fefafb335991732>@@$$QAV<lambda_207f2d024fc103971653565357d6cd41>@@@Z 1001445c f   libucrt:per_thread_data.obj
 0001:000134ae       ??$?RV<lambda_38edbb1296d33220d7e4dd0ed76b244a>@@AAV<lambda_5ce1d447e08cb34b2473517608e21441>@@V<lambda_fb385d3da700c9147fc39e65dd577a8c>@@@?$__crt_seh_guarded_call@X@@QAEX$$QAV<lambda_38edbb1296d33220d7e4dd0ed76b244a>@@AAV<lambda_5ce1d447e08cb34b2473517608e21441>@@$$QAV<lambda_fb385d3da700c9147fc39e65dd577a8c>@@@Z 100144ae f   libucrt:per_thread_data.obj
 0001:00013519       ??$?RV<lambda_6affb1475c98b40b75cdec977db92e3c>@@AAV<lambda_b8d4b9c228a6ecc3f80208dbb4b4a104>@@V<lambda_608742c3c92a14382c1684fc64f96c88>@@@?$__crt_seh_guarded_call@X@@QAEX$$QAV<lambda_6affb1475c98b40b75cdec977db92e3c>@@AAV<lambda_b8d4b9c228a6ecc3f80208dbb4b4a104>@@$$QAV<lambda_608742c3c92a14382c1684fc64f96c88>@@@Z 10014519 f   libucrt:per_thread_data.obj
 0001:0001356e       ??$?RV<lambda_a7e850c220f1c8d1e6efeecdedd162c6>@@AAV<lambda_46720907175c18b6c9d2717bc0d2d362>@@V<lambda_9048902d66e8d99359bc9897bbb930a8>@@@?$__crt_seh_guarded_call@X@@QAEX$$QAV<lambda_a7e850c220f1c8d1e6efeecdedd162c6>@@AAV<lambda_46720907175c18b6c9d2717bc0d2d362>@@$$QAV<lambda_9048902d66e8d99359bc9897bbb930a8>@@@Z 1001456e f   libucrt:per_thread_data.obj
 0001:000135c8       ?construct_ptd@@YAXQAU__acrt_ptd@@QAPAU__crt_locale_data@@@Z 100145c8 f   libucrt:per_thread_data.obj
 0001:00013661       ?destroy_fls@@YGXPAX@Z     10014661 f   libucrt:per_thread_data.obj
 0001:00013682       ?destroy_ptd@@YAXQAU__acrt_ptd@@@Z 10014682 f   libucrt:per_thread_data.obj
 0001:0001374f       ?replace_current_thread_locale_nolock@@YAXQAU__acrt_ptd@@QAU__crt_locale_data@@@Z 1001474f f   libucrt:per_thread_data.obj
 0001:00013b5f       ?try_get_AreFileApisANSI@@YAP6GHXZXZ 10014b5f f   libucrt:winapi_thunks.obj
 0001:00013b79       ?try_get_LCMapStringEx@@YAP6GHPB_WK0HPA_WHPAU_nlsversioninfo@@PAXJ@ZXZ 10014b79 f   libucrt:winapi_thunks.obj
 0001:00013b93       ?try_get_LocaleNameToLCID@@YAP6GKPB_WK@ZXZ 10014b93 f   libucrt:winapi_thunks.obj
 0001:00013bad       ?try_get_first_available_module@@YAPAUHINSTANCE__@@QBW4module_id@?A0x391cf84c@@0@Z 10014bad f   libucrt:winapi_thunks.obj
 0001:00013c74       ?try_get_function@@YAPAXW4function_id@?A0x391cf84c@@QBDQBW4module_id@2@2@Z 10014c74 f   libucrt:winapi_thunks.obj
 0001:000143d7       ?fp_format_a@@YAHQBNPADIQADIH_NIQAU__crt_locale_pointers@@@Z 100153d7 f   libucrt:cvt.obj
 0001:000146f0       ?fp_format_e@@YAHQBNQADI1IH_NIQAU__crt_locale_pointers@@@Z 100156f0 f   libucrt:cvt.obj
 0001:00014792       ?fp_format_e_internal@@YAHQADIH_NIQAU_strflt@@1QAU__crt_locale_pointers@@@Z 10015792 f   libucrt:cvt.obj
 0001:000148da       ?fp_format_f@@YAHQBNQADI1IHQAU__crt_locale_pointers@@@Z 100158da f   libucrt:cvt.obj
 0001:00014965       ?fp_format_f_internal@@YAHQADIHQAU_strflt@@_NQAU__crt_locale_pointers@@@Z 10015965 f   libucrt:cvt.obj
 0001:00014a36       ?fp_format_g@@YAHQBNQADI1IH_NIQAU__crt_locale_pointers@@@Z 10015a36 f   libucrt:cvt.obj
 0001:00014af7       ?fp_format_nan_or_infinity@@YAHW4__acrt_fp_class@@_NPADI1@Z 10015af7 f   libucrt:cvt.obj
 0001:00014b8c       ?shift_bytes@@YAXQADI0H@Z  10015b8c f   libucrt:cvt.obj
 0001:00014e73       ??$?RV<lambda_e5124f882df8998aaf41531e079ba474>@@AAV<lambda_3e16ef9562a7dcce91392c22ab16ea36>@@V<lambda_e25ca0880e6ef98be67edffd8c599615>@@@?$__crt_seh_guarded_call@X@@QAEX$$QAV<lambda_e5124f882df8998aaf41531e079ba474>@@AAV<lambda_3e16ef9562a7dcce91392c22ab16ea36>@@$$QAV<lambda_e25ca0880e6ef98be67edffd8c599615>@@@Z 10015e73 f   libucrt:wsetlocale.obj
 0001:00014f13       ?initialize_inherited_file_handles_nolock@@YAXXZ 10015f13 f   libucrt:ioinit.obj
 0001:00014fc9       ?initialize_stdio_handles_nolock@@YAXXZ 10015fc9 f   libucrt:ioinit.obj
 0001:000151da       ?<lambda_invoker_cdecl>@<lambda_838c7f62c73c983481e27c09e84b0b5d>@@CAHPBX0@Z 100161da f   libucrt:argv_wildcards.obj
 0001:000151f2       ??$__acrt_convert_wcs_mbs_cp@D_WV<lambda_62f6974d9771e494a5ea317cc32e971c>@@U__crt_win32_buffer_internal_dynamic_resizing@@@@YAHQBDAAV?$__crt_win32_buffer@_WU__crt_win32_buffer_internal_dynamic_resizing@@@@ABV<lambda_62f6974d9771e494a5ea317cc32e971c>@@I@Z 100161f2 f   libucrt:argv_wildcards.obj
 0001:000152a4       ??$__acrt_convert_wcs_mbs_cp@_WDV<lambda_28bda7af82a03b66c1cb3803a755f95d>@@U__crt_win32_buffer_internal_dynamic_resizing@@@@YAHQB_WAAV?$__crt_win32_buffer@DU__crt_win32_buffer_internal_dynamic_resizing@@@@ABV<lambda_28bda7af82a03b66c1cb3803a755f95d>@@I@Z 100162a4 f   libucrt:argv_wildcards.obj
 0001:00015390       ??$common_expand_argv_wildcards@D@@YAHQAPADQAPAPAD@Z 10016390 f   libucrt:argv_wildcards.obj
 0001:0001557f       ??$copy_and_add_argument_to_buffer@D@@YAHQBD0IAAV?$argument_list@D@?A0x5f5c8891@@@Z 1001657f f   libucrt:argv_wildcards.obj
 0001:00015630       ??$expand_argument_wildcards@D@@YAHQAD0AAV?$argument_list@D@?A0x5f5c8891@@@Z 10016630 f   libucrt:argv_wildcards.obj
 0001:0001597a       ?expand_if_necessary@?$argument_list@D@?A0x5f5c8891@@AAEHXZ 1001697a f   libucrt:argv_wildcards.obj
 0001:00015a0c       ??$__acrt_convert_wcs_mbs_cp@_WDV<lambda_0fec1a7b3f42a53036604e18c2d5e07e>@@U__crt_win32_buffer_no_resizing@@@@YAHQB_WAAV?$__crt_win32_buffer@DU__crt_win32_buffer_no_resizing@@@@ABV<lambda_0fec1a7b3f42a53036604e18c2d5e07e>@@I@Z 10016a0c f   libucrt:getmodulefilenamea.obj
 0001:00015baf       ??$?RV<lambda_ceb1ee4838e85a9d631eb091e2fbe199>@@AAV<lambda_ae742caa10f662c28703da3d2ea5e57e>@@V<lambda_cd08b5d6af4937fe54fc07d0c9bf6b37>@@@?$__crt_seh_guarded_call@X@@QAEX$$QAV<lambda_ceb1ee4838e85a9d631eb091e2fbe199>@@AAV<lambda_ae742caa10f662c28703da3d2ea5e57e>@@$$QAV<lambda_cd08b5d6af4937fe54fc07d0c9bf6b37>@@@Z 10016baf f   libucrt:mbctype.obj
 0001:00015bfc       ??R<lambda_ae742caa10f662c28703da3d2ea5e57e>@@QBEXXZ 10016bfc f   libucrt:mbctype.obj
 0001:00015c7f       ?CPtoLocaleName@@YAPB_WH@Z 10016c7f f   libucrt:mbctype.obj
 0001:00015cbd       ?getSystemCP@@YAHH@Z       10016cbd f   libucrt:mbctype.obj
 0001:00015d2e       ?setSBCS@@YAXPAU__crt_multibyte_data@@@Z 10016d2e f   libucrt:mbctype.obj
 0001:00015d93       ?setSBUpLow@@YAXPAU__crt_multibyte_data@@@Z 10016d93 f   libucrt:mbctype.obj
 0001:00015f14       ?setmbcp_internal@@YAHH_NQAU__acrt_ptd@@QAPAU__crt_multibyte_data@@@Z 10016f14 f   libucrt:mbctype.obj
 0001:0001602d       ?update_thread_multibyte_data_internal@@YAPAU__crt_multibyte_data@@QAU__acrt_ptd@@QAPAU1@@Z 1001702d f   libucrt:mbctype.obj
 0001:0001631b       _memcpy_s                  1001731b f   libucrt:cfout.obj
 0001:0001631b       _memcpy_s                  1001731b f   libucrt:mbctype.obj
 0001:0001639c       ?x_ismbbtype_l@@YAHPAU__crt_locale_pointers@@IHH@Z 1001739c f   libucrt:ismbbyte.obj
 0001:0001654d       ?find_end_of_double_null_terminated_sequence@@YAPB_WQB_W@Z 1001754d f   libucrt:get_environment_from_os.obj
 0001:000166bc       ??$?RV<lambda_cbab9ec6f41b0180b23cc171c22676b0>@@AAV<lambda_44731a7d0e6d81c3e6aa82d741081786>@@V<lambda_4b292cb8dd18144e164572427af410ab>@@@?$__crt_seh_guarded_call@P6AXH@Z@@QAEP6AXH@Z$$QAV<lambda_cbab9ec6f41b0180b23cc171c22676b0>@@AAV<lambda_44731a7d0e6d81c3e6aa82d741081786>@@$$QAV<lambda_4b292cb8dd18144e164572427af410ab>@@@Z 100176bc f   libucrt:signal.obj
 0001:00016720       ?get_global_action_nolock@@YAPAP6AXH@ZH@Z 10017720 f   libucrt:signal.obj
 0001:00016762       ?siglookup@@YAPAU__crt_signal_action_t@@HQAU1@@Z 10017762 f   libucrt:signal.obj
 0001:00016a2c       ??$?RV<lambda_2866be3712abc81a800a822484c830d8>@@AAV<lambda_39ca0ed439415581b5b15c265174cece>@@V<lambda_2b24c74d71094a6cd0cb82e44167d71b>@@@?$__crt_seh_guarded_call@X@@QAEX$$QAV<lambda_2866be3712abc81a800a822484c830d8>@@AAV<lambda_39ca0ed439415581b5b15c265174cece>@@$$QAV<lambda_2b24c74d71094a6cd0cb82e44167d71b>@@@Z 10017a2c f   libucrt:fflush.obj
 0001:00016ab8       ??$?RV<lambda_2cc53f568c5a2bb6f192f930a45d44ea>@@AAV<lambda_ab61a845afdef5b7c387490eaf3616ee>@@V<lambda_c2ffc0b7726aa6be21d5f0026187e748>@@@?$__crt_seh_guarded_call@X@@QAEX$$QAV<lambda_2cc53f568c5a2bb6f192f930a45d44ea>@@AAV<lambda_ab61a845afdef5b7c387490eaf3616ee>@@$$QAV<lambda_c2ffc0b7726aa6be21d5f0026187e748>@@@Z 10017ab8 f   libucrt:fflush.obj
 0001:00016b64       ?common_flush_all@@YAH_N@Z 10017b64 f   libucrt:fflush.obj
 0001:00016bb1       ?common_flush_all_should_try_to_flush_stream@@YA_NV__crt_stdio_stream@@QAH@Z 10017bb1 f   libucrt:fflush.obj
 0001:00016be4       ?is_stream_flushable_or_commitable@@YA_NJ@Z 10017be4 f   libucrt:fflush.obj
 0001:000170ed       ?GetTableIndexFromLocaleName@@YAHPB_W@Z 100180ed f   libucrt:lcidtoname_downlevel.obj
 0001:000171a3       ??R<lambda_3d301b9e52f5099be73030e1f0bf487e>@@QBEIPBD@Z 100181a3 f   libucrt:mbrtowc.obj
 0001:00018e7a       ?free_crt_array_internal@@YAXQAPBXI@Z 10019e7a f   libucrt:inittime.obj
 0001:00019350       ?swap@@YAXPAD0I@Z          1001a350 f   libucrt:qsort.obj
 0001:000197d4       ??$common_tcsncpy_s@D@@YAHQADIQBDI@Z 1001a7d4 f   libucrt:strncpy_s.obj
 0001:000198a0       $$000000                   1001a8a0     libucrt:strpbrk.obj
 0001:00019984       ?__acrt_LCMapStringA_stat@@YAHPAU__crt_locale_pointers@@PB_WKPBDHPADHHH@Z 1001a984 f   libucrt:lcmapstringa.obj
 0001:00019bb7       ?initialize_multibyte@@YAHXZ 1001abb7 f   libucrt:multibyte_initializer.obj
 0001:00019bc6       ??$?RV<lambda_9e9de3de5fa147e2223d7db92bc10aa6>@@AAV<lambda_38ce7e780aa69e748d6df282ebc68efe>@@V<lambda_8ca6da459f0f6780f1cff60fdc3d00e5>@@@?$__crt_seh_guarded_call@H@@QAEH$$QAV<lambda_9e9de3de5fa147e2223d7db92bc10aa6>@@AAV<lambda_38ce7e780aa69e748d6df282ebc68efe>@@$$QAV<lambda_8ca6da459f0f6780f1cff60fdc3d00e5>@@@Z 1001abc6 f   libucrt:commit.obj
 0001:00019ce5       ?write_double_translated_ansi_nolock@@YA?AUwrite_result@?A0x17268360@@HQBDI@Z 1001ace5 f   libucrt:write.obj
 0001:0001a08f       ?write_double_translated_unicode_nolock@@YA?AUwrite_result@?A0x17268360@@QBDI@Z 1001b08f f   libucrt:write.obj
 0001:0001a0f7       ?write_requires_double_translation_nolock@@YA_NH@Z 1001b0f7 f   libucrt:write.obj
 0001:0001a168       ?write_text_ansi_nolock@@YA?AUwrite_result@?A0x17268360@@HQBDI@Z 1001b168 f   libucrt:write.obj
 0001:0001a243       ?write_text_utf16le_nolock@@YA?AUwrite_result@?A0x17268360@@HQBDI@Z 1001b243 f   libucrt:write.obj
 0001:0001a32c       ?write_text_utf8_nolock@@YA?AUwrite_result@?A0x17268360@@HQBDI@Z 1001b32c f   libucrt:write.obj
 0001:0001aa00       $$000000                   1001ba00     libucrt:log10_impl.obj
 0001:0001ab10       $$000000                   1001bb10     libucrt:ceil_pentium4.obj
 0001:0001ac2d       ??$common_lseek_nolock@_J@@YA_JH_JH@Z 1001bc2d f   libucrt:lseek.obj
 0001:0001ae13       ?to_abstract_control@@YA?AW4__acrt_fenv_abstract_control@@W4__acrt_fenv_machine_sse_control@@@Z 1001be13 f   libucrt:_fenvutils.obj
 0001:0001aecf       ?to_abstract_control@@YA?AW4__acrt_fenv_abstract_control@@W4__acrt_fenv_machine_x87_control@@@Z 1001becf f   libucrt:_fenvutils.obj
 0001:0001af88       ?to_machine_sse_control@@YA?AW4__acrt_fenv_machine_sse_control@@W4__acrt_fenv_abstract_control@@@Z 1001bf88 f   libucrt:_fenvutils.obj
 0001:0001b055       ?to_machine_x87_control@@YA?AW4__acrt_fenv_machine_x87_control@@W4__acrt_fenv_abstract_control@@@Z 1001c055 f   libucrt:_fenvutils.obj
 0001:0001b4b0       $$000000                   1001c4b0     libucrt:log10_pentium4.obj
 0001:0001b740       $$000000                   1001c740     libucrt:87tran.obj
 0001:0001b950       $$000000                   1001c950     libucrt:87disp.obj
 0001:0001bbb0       $$000000                   1001cbb0     libucrt:common.obj
 0001:0001bd40       $$000000                   1001cd40     libucrt:genexcep.obj
 0001:0001c03c       ??$?RV<lambda_218ce3db14220d0be481dae8ef3383b6>@@AAV<lambda_628dfdc04ba53c8bfc02c9951375f3f5>@@V<lambda_57dc472bd5c9d5f3b2cbca59b8a843ae>@@@?$__crt_seh_guarded_call@H@@QAEH$$QAV<lambda_218ce3db14220d0be481dae8ef3383b6>@@AAV<lambda_628dfdc04ba53c8bfc02c9951375f3f5>@@$$QAV<lambda_57dc472bd5c9d5f3b2cbca59b8a843ae>@@@Z 1001d03c f   libucrt:close.obj
 0001:0001c230       $$000000                   1001d230     libucrt:_strnicm.obj
 0001:0001c291       ?__dcrt_lowio_initialize_console_output@@YAXXZ 1001d291 f   libucrt:initcon.obj
 0001:0001d0f0       $$000000                   1001e0f0     LIBCMT:ulldvrm.obj
 0001:0001d190       $$000000                   1001e190     LIBCMT:llmul.obj
 0001:0001d1d0       $$000000                   1001e1d0     LIBCMT:lldvrm.obj
 0001:0001d2b0       $$000000                   1001e2b0     LIBCMT:ullshr.obj
 0001:0001d2d0       $$000000                   1001e2d0     LIBCMT:llshl.obj
 0001:0001d2f0       $$000000                   1001e2f0     LIBCMT:ftol2.obj
 0001:0001d3b0       $$000000                   1001e3b0     libvcruntime:strrchr.obj
 0001:0001d4f0       $$000000                   1001e4f0     libvcruntime:strchr.obj
 0001:0001d693       __ehhandler$??2@YAPAXIABUnothrow_t@std@@@Z 1001e693 f   LIBCMT:new_scalar_nothrow.obj
 0001:0001d6ae       __ehhandler$?CallUnexpected@@YAXPBU_s_ESTypeList@@@Z 1001e6ae f   libvcruntime:frame.obj
 0001:0001d6c9       ??__F_AtlComModule@ATL@@YAXXZ 1001e6c9 f   OposVariant.obj
 0001:0001d6d3       ??__F_AtlWinModule@ATL@@YAXXZ 1001e6d3 f   OposVariant.obj
 0001:0001d6ed       ??__F_Module@@YAXXZ        1001e6ed f   Totals.obj
 0001:0001d701       ??__F_AtlBaseModule@ATL@@YAXXZ 1001e701 f   atls:atlbase.obj
 0002:00000304       ?_AtlBaseModule$initializer$@ATL@@3P6AXXZA 1001f304     atls:atlbase.obj
 0002:00000308       ?_AtlComModule$initializer$@ATL@@3P6AXXZA 1001f308     OposVariant.obj
 0002:0000030c       ?_AtlWinModule$initializer$@ATL@@3P6AXXZA 1001f30c     OposVariant.obj
 0002:00000310       ?_Module$initializer$@@3P6AXXZA 1001f310     Totals.obj
 0002:00000314       ??pConnMap$initializer$@?$IConnectionPointContainerImpl@VCOPOSTotals@@@ATL@@0P6AXXZA@@3P6AXXZA 1001f314     Totals.obj
 0002:00000320       ?__scrt_initialize_tss_var@@3P6AHXZA 1001f320     LIBCMT:thread_safe_statics.obj
 0002:00001888       _GS_ExceptionPointers      10020888     LIBCMT:gs_report.obj
 0002:000019f8       ?ExceptionTemplate@?1??_CxxThrowException@@9@8@4UEHExceptionRecord@@B 100209f8     libvcruntime:throw.obj
 0002:00001a38       ?tokenTable@@3QBQBDB       10020a38     libvcruntime:undname.obj
 0002:00001a78       ?nameTable@@3QBQBDB        10020a78     libvcruntime:undname.obj
 0002:00001bc4       ?rttiTable@@3QBQBDB        10020bc4     libvcruntime:undname.obj
 0002:000021e0       ?module_names@?A0x09dcfcb8@@3QBQB_WB 100211e0     libvcruntime:winapi_downlevel.obj
 0002:00002288       ?candidate_modules@?1??try_get_FlsAlloc@@YAP6GKP6GXPAX@Z@ZXZ@4QBW4module_id@?A0x09dcfcb8@@B 10021288     libvcruntime:winapi_downlevel.obj
 0002:0000229c       ?candidate_modules@?1??try_get_FlsFree@@YAP6GHK@ZXZ@4QBW4module_id@?A0x09dcfcb8@@B 1002129c     libvcruntime:winapi_downlevel.obj
 0002:000022ac       ?candidate_modules@?1??try_get_FlsGetValue@@YAP6GPAXK@ZXZ@4QBW4module_id@?A0x09dcfcb8@@B 100212ac     libvcruntime:winapi_downlevel.obj
 0002:000022c0       ?candidate_modules@?1??try_get_FlsSetValue@@YAP6GHKPAX@ZXZ@4QBW4module_id@?A0x09dcfcb8@@B 100212c0     libvcruntime:winapi_downlevel.obj
 0002:000022d4       ?candidate_modules@?1??try_get_InitializeCriticalSectionEx@@YAP6GHPAU_RTL_CRITICAL_SECTION@@KK@ZXZ@4QBW4module_id@?A0x09dcfcb8@@B 100212d4     libvcruntime:winapi_downlevel.obj
 0002:00002300       ?errtable@@3QBUerrentry@?A0x31fdb9ec@@B 10021300     libucrt:errno.obj
 0002:000025a8       ___acrt_initializers       100215a8     libucrt:initialization.obj
 0002:00002628       ?module_names@?A0x391cf84c@@3QBQB_WB 10021628     libucrt:winapi_thunks.obj
 0002:00002aa0       ?candidate_modules@?1??try_get_AreFileApisANSI@@YAP6GHXZXZ@4QBW4module_id@?A0x391cf84c@@B 10021aa0     libucrt:winapi_thunks.obj
 0002:00002ab4       ?candidate_modules@?1??try_get_FlsAlloc@@YAP6GKP6GXPAX@Z@ZXZ@4QBW4module_id@?A0x391cf84c@@B 10021ab4     libucrt:winapi_thunks.obj
 0002:00002abc       ?candidate_modules@?1??try_get_FlsFree@@YAP6GHK@ZXZ@4QBW4module_id@?A0x391cf84c@@B 10021abc     libucrt:winapi_thunks.obj
 0002:00002ac4       ?candidate_modules@?1??try_get_FlsGetValue@@YAP6GPAXK@ZXZ@4QBW4module_id@?A0x391cf84c@@B 10021ac4     libucrt:winapi_thunks.obj
 0002:00002acc       ?candidate_modules@?1??try_get_FlsSetValue@@YAP6GHKPAX@ZXZ@4QBW4module_id@?A0x391cf84c@@B 10021acc     libucrt:winapi_thunks.obj
 0002:00002ad4       ?candidate_modules@?1??try_get_InitializeCriticalSectionEx@@YAP6GHPAU_RTL_CRITICAL_SECTION@@KK@ZXZ@4QBW4module_id@?A0x391cf84c@@B 10021ad4     libucrt:winapi_thunks.obj
 0002:00002adc       ?candidate_modules@?1??try_get_LCMapStringEx@@YAP6GHPB_WK0HPA_WHPAU_nlsversioninfo@@PAXJ@ZXZ@4QBW4module_id@?A0x391cf84c@@B 10021adc     libucrt:winapi_thunks.obj
 0002:00002af4       ?candidate_modules@?1??try_get_LocaleNameToLCID@@YAP6GKPB_WK@ZXZ@4QBW4module_id@?A0x391cf84c@@B 10021af4     libucrt:winapi_thunks.obj
 0002:00002b10       ?candidate_modules@?1??try_get_AppPolicyGetProcessTerminationMethod@@YAP6GJPAXPAW4AppPolicyProcessTerminationMethod@@@ZXZ@4QBW4module_id@?A0x391cf84c@@B 10021b10     libucrt:winapi_thunks.obj
 0002:00002b3c       ?candidate_modules@?1??try_get_SetThreadStackGuarantee@@YAP6GHPAK@ZXZ@4QBW4module_id@?A0x391cf84c@@B 10021b3c     libucrt:winapi_thunks.obj
 0002:00002b60       ?strings@?1??fp_format_nan_or_infinity@@YAHW4__acrt_fp_class@@_NPADI1@Z@4QAY03QBDA 10021b60     libucrt:cvt.obj
 0002:000030a8       ?_mb_locale_names@@3QBQB_WB 100220a8     libucrt:mbctype.obj
 0002:000038f0       ?LcidToLocaleNameTable@?A0x881e4c05@@3QBULcidToLocaleName@1@B 100228f0     libucrt:lcidtoname_downlevel.obj
 0002:00004a18       ?LocaleNameToIndexTable@?A0x881e4c05@@3QBULocaleNameIndex@1@B 10023a18     libucrt:lcidtoname_downlevel.obj
 0002:00006270       ?large_power_indices@?1??multiply_by_power_of_ten@__crt_strtox@@YA_NAAUbig_integer@2@I@Z@4QBUunpack_index@?1??12@YA_N0I@Z@B 10025270     libucrt:cfout.obj
 0002:00006350       LOG_name                   10025350     libucrt:log10_impl.obj
 0002:00006360       _One                       10025360     libucrt:ceil_pentium4.obj
 0002:00006370       _Bns                       10025370     libucrt:ceil_pentium4.obj
 0002:00006380       _Zero                      10025380     libucrt:ceil_pentium4.obj
 0002:00006390       _S                         10025390     libucrt:ceil_pentium4.obj
 0002:000063a0       _NegZero                   100253a0     libucrt:ceil_pentium4.obj
 0002:000063b0       emask                      100253b0     libucrt:log10_pentium4.obj
 0002:000063c0       CC                         100253c0     libucrt:log10_pentium4.obj
 0002:000063d0       Magic                      100253d0     libucrt:log10_pentium4.obj
 0002:000063e0       hi_mask                    100253e0     libucrt:log10_pentium4.obj
 0002:000063f0       LOG10_2                    100253f0     libucrt:log10_pentium4.obj
 0002:00006400       place_L                    10025400     libucrt:log10_pentium4.obj
 0002:00006420       One                        10025420     libucrt:log10_pentium4.obj
 0002:00006430       Zero                       10025430     libucrt:log10_pentium4.obj
 0002:00006440       Two52                      10025440     libucrt:log10_pentium4.obj
 0002:00006450       Infs                       10025450     libucrt:log10_pentium4.obj
 0002:00006460       NaN                        10025460     libucrt:log10_pentium4.obj
 0002:00006470       coeff                      10025470     libucrt:log10_pentium4.obj
 0002:000064ce       _log2max                   100254ce     libucrt:87tran.obj
 0002:000064d8       _smallarg                  100254d8     libucrt:87tran.obj
 0002:000064e2       _half                      100254e2     libucrt:87tran.obj
 0002:0000652e       One                        1002552e     libucrt:87disp.obj
 0002:00006536       Three                      10025536     libucrt:87disp.obj
 0002:0000653e       XAMtoTagTab                1002553e     libucrt:87disp.obj
 0002:00006550       One                        10025550     libucrt:common.obj
 0002:00006564       DblMax                     10025564     libucrt:common.obj
 0002:0000656c       DblMin                     1002556c     libucrt:common.obj
 0002:00006574       IeeeAdjO                   10025574     libucrt:common.obj
 0002:0000657c       IeeeAdjU                   1002557c     libucrt:common.obj
 0002:00006584       _infinity                  10025584     libucrt:common.obj
 0002:0000658c       _zero                      1002558c     libucrt:common.obj
 0002:000065d8       _over                      100255d8     libucrt:fpctrl.obj
 0002:000065e4       _under                     100255e4     libucrt:fpctrl.obj
 0002:00006e18       ?_names@?1??_get_fname@@9@9 10025e18     libucrt:fpexcept.obj
 0002:00007668       __sehtable$?_AtlVerifyStackAvailable@_ATL_SAFE_ALLOCA_IMPL@ATL@@YA_NK@Z 10026668     Totals.obj
 0002:00007688       __sehtable$___scrt_is_nonwritable_in_current_image 10026688     LIBCMT:utility.obj
 0002:000076a4       __catchsym$??2@YAPAXIABUnothrow_t@std@@@Z$2 100266a4     LIBCMT:new_scalar_nothrow.obj
 0002:000076b4       __unwindtable$??2@YAPAXIABUnothrow_t@std@@@Z 100266b4     LIBCMT:new_scalar_nothrow.obj
 0002:000076c4       __tryblocktable$??2@YAPAXIABUnothrow_t@std@@@Z 100266c4     LIBCMT:new_scalar_nothrow.obj
 0002:000076d8       __ehfuncinfo$??2@YAPAXIABUnothrow_t@std@@@Z 100266d8     LIBCMT:new_scalar_nothrow.obj
 0002:00007700       __sehtable$?dllmain_crt_process_attach@@YAHQAUHINSTANCE__@@QAX@Z 10026700     LIBCMT:dll_dllmain.obj
 0002:00007720       __sehtable$?dllmain_crt_process_detach@@YAH_N@Z 10026720     LIBCMT:dll_dllmain.obj
 0002:00007740       __sehtable$?dllmain_dispatch@@YAHQAUHINSTANCE__@@KQAX@Z 10026740     LIBCMT:dll_dllmain.obj
 0002:000077f0       __sehtable$?FrameUnwindToState@__FrameHandler3@@SAXPAUEHRegistrationNode@@PAXPBU_s_FuncInfo@@H@Z 100267f0     libvcruntime:frame.obj
 0002:00007818       __sehtable$?CallCatchBlock@@YAPAXPAUEHExceptionRecord@@PAUEHRegistrationNode@@PAU_CONTEXT@@PBU_s_FuncInfo@@PAXHK@Z 10026818     libvcruntime:frame.obj
 0002:00007840       __catchsym$?CallUnexpected@@YAXPBU_s_ESTypeList@@@Z$2 10026840     libvcruntime:frame.obj
 0002:00007850       __unwindtable$?CallUnexpected@@YAXPBU_s_ESTypeList@@@Z 10026850     libvcruntime:frame.obj
 0002:00007860       __tryblocktable$?CallUnexpected@@YAXPBU_s_ESTypeList@@@Z 10026860     libvcruntime:frame.obj
 0002:00007874       __ehfuncinfo$?CallUnexpected@@YAXPBU_s_ESTypeList@@@Z 10026874     libvcruntime:frame.obj
 0002:00007898       __sehtable$??$BuildCatchObjectHelperInternal@V__FrameHandler3@@@@YAHPAUEHExceptionRecord@@PAXPBU_s_HandlerType@@PBU_s_CatchableType@@@Z 10026898     libvcruntime:frame.obj
 0002:000078b8       __sehtable$??$BuildCatchObjectInternal@V__FrameHandler3@@@@YAXPAUEHExceptionRecord@@PAXPBU_s_HandlerType@@PBU_s_CatchableType@@@Z 100268b8     libvcruntime:frame.obj
 0002:00007910       __sehtable$___DestructExceptionObject 10026910     libvcruntime:ehhelpers.obj
 0002:00007930       __sehtable$??R<lambda_6e4b09c48022b2350581041d5f6b0c4c>@@QBE@XZ 10026930     libucrt:exit.obj
 0002:00007950       __sehtable$??$?RV<lambda_03b1d95aef87969028cfba75ccab2455>@@AAV<lambda_6e4b09c48022b2350581041d5f6b0c4c>@@V<lambda_22bdf7517842c4b3e53723af5aa32b9e>@@@?$__crt_seh_guarded_call@X@@QAEX$$QAV<lambda_03b1d95aef87969028cfba75ccab2455>@@AAV<lambda_6e4b09c48022b2350581041d5f6b0c4c>@@$$QAV<lambda_22bdf7517842c4b3e53723af5aa32b9e>@@@Z 10026950     libucrt:exit.obj
 0002:00007970       __sehtable$??$?RV<lambda_8e746cf0007f6ed984d6f78af1fec997>@@AAV<lambda_22ebabd17bc4fa466a2aca6d8deb888d>@@V<lambda_18ed0c0b38a6dc0daf1e7ac6d6adf05e>@@@?$__crt_seh_guarded_call@H@@QAEH$$QAV<lambda_8e746cf0007f6ed984d6f78af1fec997>@@AAV<lambda_22ebabd17bc4fa466a2aca6d8deb888d>@@$$QAV<lambda_18ed0c0b38a6dc0daf1e7ac6d6adf05e>@@@Z 10026970     libucrt:onexit.obj
 0002:00007990       __sehtable$??$?RV<lambda_69a2805e680e0e292e8ba93315fe43a8>@@AAV<lambda_f03950bc5685219e0bcd2087efbe011e>@@V<lambda_03fcd07e894ec930e3f35da366ca99d6>@@@?$__crt_seh_guarded_call@H@@QAEH$$QAV<lambda_69a2805e680e0e292e8ba93315fe43a8>@@AAV<lambda_f03950bc5685219e0bcd2087efbe011e>@@$$QAV<lambda_03fcd07e894ec930e3f35da366ca99d6>@@@Z 10026990     libucrt:onexit.obj
 0002:000079b0       __sehtable$__query_new_handler 100269b0     libucrt:new_handler.obj
 0002:000079d0       __sehtable$_terminate      100269d0     libucrt:terminate.obj
 0002:000079f0       __sehtable$??$?RV<lambda_15ade71b0218206bbe3333a0c9b79046>@@AAV<lambda_da44e0f8b0f19ba52fefafb335991732>@@V<lambda_207f2d024fc103971653565357d6cd41>@@@?$__crt_seh_guarded_call@X@@QAEX$$QAV<lambda_15ade71b0218206bbe3333a0c9b79046>@@AAV<lambda_da44e0f8b0f19ba52fefafb335991732>@@$$QAV<lambda_207f2d024fc103971653565357d6cd41>@@@Z 100269f0     libucrt:per_thread_data.obj
 0002:00007a10       __sehtable$??$?RV<lambda_a7e850c220f1c8d1e6efeecdedd162c6>@@AAV<lambda_46720907175c18b6c9d2717bc0d2d362>@@V<lambda_9048902d66e8d99359bc9897bbb930a8>@@@?$__crt_seh_guarded_call@X@@QAEX$$QAV<lambda_a7e850c220f1c8d1e6efeecdedd162c6>@@AAV<lambda_46720907175c18b6c9d2717bc0d2d362>@@$$QAV<lambda_9048902d66e8d99359bc9897bbb930a8>@@@Z 10026a10     libucrt:per_thread_data.obj
 0002:00007a30       __sehtable$??$?RV<lambda_38edbb1296d33220d7e4dd0ed76b244a>@@AAV<lambda_5ce1d447e08cb34b2473517608e21441>@@V<lambda_fb385d3da700c9147fc39e65dd577a8c>@@@?$__crt_seh_guarded_call@X@@QAEX$$QAV<lambda_38edbb1296d33220d7e4dd0ed76b244a>@@AAV<lambda_5ce1d447e08cb34b2473517608e21441>@@$$QAV<lambda_fb385d3da700c9147fc39e65dd577a8c>@@@Z 10026a30     libucrt:per_thread_data.obj
 0002:00007a50       __sehtable$??$?RV<lambda_6affb1475c98b40b75cdec977db92e3c>@@AAV<lambda_b8d4b9c228a6ecc3f80208dbb4b4a104>@@V<lambda_608742c3c92a14382c1684fc64f96c88>@@@?$__crt_seh_guarded_call@X@@QAEX$$QAV<lambda_6affb1475c98b40b75cdec977db92e3c>@@AAV<lambda_b8d4b9c228a6ecc3f80208dbb4b4a104>@@$$QAV<lambda_608742c3c92a14382c1684fc64f96c88>@@@Z 10026a50     libucrt:per_thread_data.obj
 0002:00007a70       __sehtable$??$?RV<lambda_e5124f882df8998aaf41531e079ba474>@@AAV<lambda_3e16ef9562a7dcce91392c22ab16ea36>@@V<lambda_e25ca0880e6ef98be67edffd8c599615>@@@?$__crt_seh_guarded_call@X@@QAEX$$QAV<lambda_e5124f882df8998aaf41531e079ba474>@@AAV<lambda_3e16ef9562a7dcce91392c22ab16ea36>@@$$QAV<lambda_e25ca0880e6ef98be67edffd8c599615>@@@Z 10026a70     libucrt:wsetlocale.obj
 0002:00007a90       __sehtable$___acrt_initialize_lowio 10026a90     libucrt:ioinit.obj
 0002:00007ab0       __sehtable$?update_thread_multibyte_data_internal@@YAPAU__crt_multibyte_data@@QAU__acrt_ptd@@QAPAU1@@Z 10026ab0     libucrt:mbctype.obj
 0002:00007ad0       __sehtable$??$?RV<lambda_ceb1ee4838e85a9d631eb091e2fbe199>@@AAV<lambda_ae742caa10f662c28703da3d2ea5e57e>@@V<lambda_cd08b5d6af4937fe54fc07d0c9bf6b37>@@@?$__crt_seh_guarded_call@X@@QAEX$$QAV<lambda_ceb1ee4838e85a9d631eb091e2fbe199>@@AAV<lambda_ae742caa10f662c28703da3d2ea5e57e>@@$$QAV<lambda_cd08b5d6af4937fe54fc07d0c9bf6b37>@@@Z 10026ad0     libucrt:mbctype.obj
 0002:00007af0       __sehtable$_raise          10026af0     libucrt:signal.obj
 0002:00007b10       __sehtable$??$?RV<lambda_cbab9ec6f41b0180b23cc171c22676b0>@@AAV<lambda_44731a7d0e6d81c3e6aa82d741081786>@@V<lambda_4b292cb8dd18144e164572427af410ab>@@@?$__crt_seh_guarded_call@P6AXH@Z@@QAEP6AXH@Z$$QAV<lambda_cbab9ec6f41b0180b23cc171c22676b0>@@AAV<lambda_44731a7d0e6d81c3e6aa82d741081786>@@$$QAV<lambda_4b292cb8dd18144e164572427af410ab>@@@Z 10026b10     libucrt:signal.obj
 0002:00007b30       __sehtable$??$?RV<lambda_2866be3712abc81a800a822484c830d8>@@AAV<lambda_39ca0ed439415581b5b15c265174cece>@@V<lambda_2b24c74d71094a6cd0cb82e44167d71b>@@@?$__crt_seh_guarded_call@X@@QAEX$$QAV<lambda_2866be3712abc81a800a822484c830d8>@@AAV<lambda_39ca0ed439415581b5b15c265174cece>@@$$QAV<lambda_2b24c74d71094a6cd0cb82e44167d71b>@@@Z 10026b30     libucrt:fflush.obj
 0002:00007b50       __sehtable$??$?RV<lambda_2cc53f568c5a2bb6f192f930a45d44ea>@@AAV<lambda_ab61a845afdef5b7c387490eaf3616ee>@@V<lambda_c2ffc0b7726aa6be21d5f0026187e748>@@@?$__crt_seh_guarded_call@X@@QAEX$$QAV<lambda_2cc53f568c5a2bb6f192f930a45d44ea>@@AAV<lambda_ab61a845afdef5b7c387490eaf3616ee>@@$$QAV<lambda_c2ffc0b7726aa6be21d5f0026187e748>@@@Z 10026b50     libucrt:fflush.obj
 0002:00007b70       __sehtable$___acrt_update_thread_locale_data 10026b70     libucrt:locale_refcounting.obj
 0002:00007b90       __sehtable$__fcloseall     10026b90     libucrt:closeall.obj
 0002:00007bb0       __sehtable$___acrt_lowio_ensure_fh_exists 10026bb0     libucrt:osfinfo.obj
 0002:00007bd0       __sehtable$??$?RV<lambda_9e9de3de5fa147e2223d7db92bc10aa6>@@AAV<lambda_38ce7e780aa69e748d6df282ebc68efe>@@V<lambda_8ca6da459f0f6780f1cff60fdc3d00e5>@@@?$__crt_seh_guarded_call@H@@QAEH$$QAV<lambda_9e9de3de5fa147e2223d7db92bc10aa6>@@AAV<lambda_38ce7e780aa69e748d6df282ebc68efe>@@$$QAV<lambda_8ca6da459f0f6780f1cff60fdc3d00e5>@@@Z 10026bd0     libucrt:commit.obj
 0002:00007bf0       __sehtable$__write         10026bf0     libucrt:write.obj
 0002:00007c10       __sehtable$_fclose         10026c10     libucrt:fclose.obj
 0002:00007c30       __sehtable$??$?RV<lambda_218ce3db14220d0be481dae8ef3383b6>@@AAV<lambda_628dfdc04ba53c8bfc02c9951375f3f5>@@V<lambda_57dc472bd5c9d5f3b2cbca59b8a843ae>@@@?$__crt_seh_guarded_call@H@@QAEH$$QAV<lambda_218ce3db14220d0be481dae8ef3383b6>@@AAV<lambda_628dfdc04ba53c8bfc02c9951375f3f5>@@$$QAV<lambda_57dc472bd5c9d5f3b2cbca59b8a843ae>@@@Z 10026c30     libucrt:close.obj
 0002:00007c50       __sehtable$__IsNonwritableInCurrentImage 10026c50     LIBCMT:pesect.obj
 0002:00007c80       .edata                     10026c80     OPOSTotals.exp
 0002:00007ca8       rgpv                       10026ca8     OPOSTotals.exp
 0002:00007cb8       rgszName                   10026cb8     OPOSTotals.exp
 0002:00007cc8       rgwOrd                     10026cc8     OPOSTotals.exp
 0002:00007cd0       szName                     10026cd0     OPOSTotals.exp
 0002:00007cdf       $N00001                    10026cdf     OPOSTotals.exp
 0002:00007cef       $N00002                    10026cef     OPOSTotals.exp
 0002:00007d01       $N00003                    10026d01     OPOSTotals.exp
 0002:00007d13       $N00004                    10026d13     OPOSTotals.exp
 0002:00008322       .idata$6                   10027322     kernel32:KERNEL32.dll
 0002:00008536       .idata$6                   10027536     user32:USER32.dll
 0002:0000866a       .idata$6                   1002766a     gdi32:GDI32.dll
 0002:00008710       .idata$6                   10027710     advapi32:ADVAPI32.dll
 0002:0000882c       .idata$6                   1002782c     ole32:ole32.dll
 0002:00008836       .idata$6                   10027836     oleaut32:OLEAUT32.dll
 0003:00000110       ?ObjectMap@@3PAU_ATL_OBJMAP_ENTRY30@ATL@@A 10028110     Totals.obj
 0003:000001b0       ?s_SOMethodNames@@3PAPADA  100281b0     TotalsImpl.obj
 0003:00000230       ?s_RequiredMethodsPerRelease@@3PAHA 10028230     TotalsImpl.obj
 0003:00000270       ?__vcrt_flsindex@@3KA      10028270     libvcruntime:per_thread_data.obj
 0003:00000290       ?errno_no_memory@@3HA      10028290     libucrt:errno.obj
 0003:00000294       ?doserrno_no_memory@@3KA   10028294     libucrt:errno.obj
 0003:000002a0       ?__acrt_flsindex@@3KA      100282a0     libucrt:per_thread_data.obj
 0003:00000638       __mbctypes                 10028638     libucrt:mbctype.obj
 0003:00000740       __mbcasemaps               10028740     libucrt:mbctype.obj
 0003:00000840       ?__rgctypeflag@@3PADA      10028840     libucrt:mbctype.obj
 0003:00000848       ?__rgcode_page_info@@3PAUcode_page_info@@A 10028848     libucrt:mbctype.obj
 0003:00000aa0       ?__dcrt_lowio_console_output_handle@@3PAXA 10028aa0     libucrt:initcon.obj
 0003:00000c38       ?is_initialized_as_dll@@3_NA 10028c38     LIBCMT:utility.obj
 0003:00000c39       ?module_local_atexit_table_initialized@@3_NA 10028c39     LIBCMT:utility.obj
 0003:00000c3c       ?module_local_atexit_table@@3U_onexit_table_t@@A 10028c3c     LIBCMT:utility.obj
 0003:00000c48       ?module_local_at_quick_exit_table@@3U_onexit_table_t@@A 10028c48     LIBCMT:utility.obj
 0003:00000c54       ?g_tss_cv@@3U_RTL_CONDITION_VARIABLE@@A 10028c54     LIBCMT:thread_safe_statics.obj
 0003:00000c58       ?g_tss_event@@3PAXA        10028c58     LIBCMT:thread_safe_statics.obj
 0003:00000c5c       ?g_tss_mutex@@3U_RTL_CRITICAL_SECTION@@A 10028c5c     LIBCMT:thread_safe_statics.obj
 0003:00000c74       ?g_sleep_condition_variable_cs@@3P6GHPAU_RTL_CONDITION_VARIABLE@@PAU_RTL_CRITICAL_SECTION@@K@ZA 10028c74     LIBCMT:thread_safe_statics.obj
 0003:00000c78       ?g_wake_all_condition_variable@@3P6GXPAU_RTL_CONDITION_VARIABLE@@@ZA 10028c78     LIBCMT:thread_safe_statics.obj
 0003:00000c80       _GS_ExceptionRecord        10028c80     LIBCMT:gs_report.obj
 0003:00000cd0       _GS_ContextRecord          10028cd0     LIBCMT:gs_report.obj
 0003:00000fa0       ?__proc_attached@@3HA      10028fa0     LIBCMT:dll_dllmain.obj
 0003:00000ffc       ?AllocateData@@3P6GPAUAtlThunkData_t@@XZA 10028ffc     atls:atlthunk.obj
 0003:00001000       ?InitData@@3P6GXPAUAtlThunkData_t@@PAXI@ZA 10029000     atls:atlthunk.obj
 0003:00001004       ?DataToCode@@3P6GP6GJPAUHWND__@@IIJ@ZPAUAtlThunkData_t@@@ZA 10029004     atls:atlthunk.obj
 0003:00001008       ?FreeData@@3P6GXPAUAtlThunkData_t@@@ZA 10029008     atls:atlthunk.obj
 0003:0000100c       ?Initialized@@3_NA         1002900c     atls:atlthunk.obj
 0003:00001018       ?__vcrt_startup_thread_ptd@@3U__vcrt_ptd@@A 10029018     libvcruntime:per_thread_data.obj
 0003:00001040       ___vcrt_lock_table         10029040     libvcruntime:locks.obj
 0003:00001058       ___vcrt_locks_initialized  10029058     libvcruntime:locks.obj
 0003:00001084       ?heap@@3V_HeapManager@@A   10029084     libvcruntime:undname.obj
 0003:00001098       ?module_handles@@3PAPAUHINSTANCE__@@A 10029098     libvcruntime:winapi_downlevel.obj
 0003:000010a4       ?function_pointers@@3PAPAXA 100290a4     libvcruntime:winapi_downlevel.obj
 0003:000010bc       ?__acrt_invalid_parameter_handler@@3V?$dual_state_global@P6AXPB_W00II@Z@__crt_state_management@@A 100290bc     libucrt:invalid_parameter.obj
 0003:000010c0       ?c_termination_complete@@3JA 100290c0     libucrt:exit.obj
 0003:000010c4       ?thread_local_exit_callback_func@@3P6GXPAXK0@ZA 100290c4     libucrt:exit.obj
 0003:000010d0       ?program_name@?1???$common_configure_argv@D@@YAHW4_crt_argv_mode@@@Z@4PADA 100290d0     libucrt:argv_parsing.obj
 0003:00001200       ?__acrt_new_handler@@3V?$dual_state_global@P6AHI@Z@__crt_state_management@@A 10029200     libucrt:new_handler.obj
 0003:00001208       ?module_handles@@3PAPAUHINSTANCE__@@A 10029208     libucrt:winapi_thunks.obj
 0003:00001258       ?encoded_function_pointers@@3PAPAXA 10029258     libucrt:winapi_thunks.obj
 0003:000012e0       ?internal_state@?1??_mbtowc_l@@9@4U_Mbstatet@@A 100292e0     libucrt:mbtowc.obj
 0003:000012f0       ?enable_percent_n@@3IA     100292f0     libucrt:printf_count_output.obj
 0003:00001510       ?__acrt_lock_table@@3PAU_RTL_CRITICAL_SECTION@@A 10029510     libucrt:locks.obj
 0003:00001660       ?__acrt_locks_initialized@@3IA 10029660     libucrt:locks.obj
 0003:00001670       ?fSystemSet@@3HA           10029670     libucrt:mbctype.obj
 0003:00001674       ?initialized@?1??__acrt_initialize_multibyte@@9@4_NA 10029674     libucrt:mbctype.obj
 0003:00001694       ?ctrlc_action@@3V?$dual_state_global@P6AXH@Z@__crt_state_management@@A 10029694     libucrt:signal.obj
 0003:00001698       ?ctrlbreak_action@@3V?$dual_state_global@P6AXH@Z@__crt_state_management@@A 10029698     libucrt:signal.obj
 0003:0000169c       ?abort_action@@3V?$dual_state_global@P6AXH@Z@__crt_state_management@@A 1002969c     libucrt:signal.obj
 0003:000016a0       ?term_action@@3V?$dual_state_global@P6AXH@Z@__crt_state_management@@A 100296a0     libucrt:signal.obj
 0003:000016a4       ?user_matherr@@3V?$dual_state_global@P6AHPAU_exception@@@Z@__crt_state_management@@A 100296a4     libucrt:matherr.obj
 0003:000016a8       ?__acrt_global_new_mode@@3V?$dual_state_global@J@__crt_state_management@@A 100296a8     libucrt:new_mode.obj
 0003:000016b4       ?internal_pst@?1??__mbrtoc32_utf8@__crt_mbstring@@YAIPA_UPBDIPAU_Mbstatet@@@Z@4U3@A 100296b4     libucrt:mbrtoc32.obj
 0003:000016bc       ?__acrt_app_type@@3W4_crt_app_type@@A 100296bc     libucrt:report_runtime_error.obj
 0003:000016c4       __pmatherr_set             100296c4     libucrt:libm_error.obj
 0004:00000220       $R000000                   1002a220     Totals.res
 0004:00000b78       $R000958                   1002ab78     Totals.res
 0004:00000c60       $R000A40                   1002ac60     Totals.res
 0004:00000ec8       $R000CA8                   1002aec8     Totals.res
 0004:000013d0       $R0011B0                   1002b3d0     Totals.res
 0004:000040e8       $R003EC8                   1002e0e8     Totals.res
 0004:00004118       $R003EF8                   1002e118     Totals.res
