; Listing generated by Microsoft (R) Optimizing Compiler Version 19.28.29336.0 

	TITLE	C:\Develop\OPOS-CCO\zSoundPlayer\SoundPlayerImpl.cpp
	.686P
	.XMM
	include listing.inc
	.model	flat

INCLUDELIB LIBCMT
INCLUDELIB OLDNAMES

PUBLIC	?m_bInitFailed@CAtlBaseModule@ATL@@2_NA		; ATL::CAtlBaseModule::m_bInitFailed
PUBLIC	?WM_ATLGETHOST@ATL@@3IA				; ATL::WM_ATLGETHOST
PUBLIC	?WM_ATLGETCONTROL@ATL@@3IA			; ATL::WM_ATLGETCONTROL
PUBLIC	?g_WindowName@@3PA_WA				; g_WindowName
PUBLIC	?g_ControlDescription@@3PADA			; g_ControlDescription
PUBLIC	_LIBID_ATLLib
PUBLIC	___pobjMapEntryFirst
PUBLIC	___pobjMapEntryLast
PUBLIC	?_pPerfRegFunc@ATL@@3P6AJPAUHINSTANCE__@@@ZA	; ATL::_pPerfRegFunc
PUBLIC	?_pPerfUnRegFunc@ATL@@3P6AJXZA			; ATL::_pPerfUnRegFunc
PUBLIC	?_AtlRegisterPerUser@ATL@@3_NA			; ATL::_AtlRegisterPerUser
PUBLIC	?s_nInstances@COPOSSoundPlayer@@1HA		; COPOSSoundPlayer::s_nInstances
PUBLIC	?_pAtlModule@ATL@@3PAVCAtlModule@1@A		; ATL::_pAtlModule
PUBLIC	??_C@_1CA@ONGMEOAB@?$AAa?$AAt?$AAl?$AAT?$AAr?$AAa?$AAc?$AAe?$AAG?$AAe?$AAn?$AAe?$AAr?$AAa?$AAl@ ; `string'
PUBLIC	?_pModule@ATL@@3PAVCComModule@1@A		; ATL::_pModule
PUBLIC	??_C@_1BI@MAFGHOEE@?$AAa?$AAt?$AAl?$AAT?$AAr?$AAa?$AAc?$AAe?$AAC?$AAO?$AAM@ ; `string'
PUBLIC	?_entries@?1??GetConnMap@COPOSSoundPlayer@@SAPBU_ATL_CONNMAP_ENTRY@ATL@@PAH@Z@4QBU34@B ; `COPOSSoundPlayer::GetConnMap'::`2'::_entries
PUBLIC	?$TSS0@?1??GetConnMap@COPOSSoundPlayer@@SAPBU_ATL_CONNMAP_ENTRY@ATL@@PAH@Z@4HA ; `COPOSSoundPlayer::GetConnMap'::`2'::$TSS0
PUBLIC	??_C@_1BG@FPLJJEMF@?$AAa?$AAt?$AAl?$AAT?$AAr?$AAa?$AAc?$AAe?$AAQ?$AAI@ ; `string'
PUBLIC	??_C@_1CE@NIAEAIDK@?$AAa?$AAt?$AAl?$AAT?$AAr?$AAa?$AAc?$AAe?$AAR?$AAe?$AAg?$AAi?$AAs?$AAt?$AAr@ ; `string'
PUBLIC	??_C@_1CC@BNHGJFNK@?$AAa?$AAt?$AAl?$AAT?$AAr?$AAa?$AAc?$AAe?$AAR?$AAe?$AAf?$AAc?$AAo?$AAu?$AAn@ ; `string'
PUBLIC	??_C@_1CE@NAJDPMNB@?$AAa?$AAt?$AAl?$AAT?$AAr?$AAa?$AAc?$AAe?$AAW?$AAi?$AAn?$AAd?$AAo?$AAw?$AAi@ ; `string'
PUBLIC	??_C@_1CC@IMNJGBED@?$AAa?$AAt?$AAl?$AAT?$AAr?$AAa?$AAc?$AAe?$AAC?$AAo?$AAn?$AAt?$AAr?$AAo?$AAl@ ; `string'
PUBLIC	??_C@_1CA@OMOMONMN@?$AAa?$AAt?$AAl?$AAT?$AAr?$AAa?$AAc?$AAe?$AAH?$AAo?$AAs?$AAt?$AAi?$AAn?$AAg@ ; `string'
PUBLIC	??_C@_1CC@JNJJDOOH@?$AAa?$AAt?$AAl?$AAT?$AAr?$AAa?$AAc?$AAe?$AAD?$AAB?$AAC?$AAl?$AAi?$AAe?$AAn@ ; `string'
PUBLIC	??_C@_1CG@MNMMIOOI@?$AAa?$AAt?$AAl?$AAT?$AAr?$AAa?$AAc?$AAe?$AAD?$AAB?$AAP?$AAr?$AAo?$AAv?$AAi@ ; `string'
PUBLIC	?_pAtlAutoThreadModule@ATL@@3PAUIAtlAutoThreadModule@1@A ; ATL::_pAtlAutoThreadModule
PUBLIC	??_C@_1BO@EFPHNHHN@?$AAa?$AAt?$AAl?$AAT?$AAr?$AAa?$AAc?$AAe?$AAS?$AAn?$AAa?$AAp?$AAi?$AAn@ ; `string'
PUBLIC	??_C@_1CA@DMHPIODO@?$AAa?$AAt?$AAl?$AAT?$AAr?$AAa?$AAc?$AAe?$AAN?$AAo?$AAt?$AAI?$AAm?$AAp?$AAl@ ; `string'
PUBLIC	??_C@_1CG@KFEEMCDH@?$AAa?$AAt?$AAl?$AAT?$AAr?$AAa?$AAc?$AAe?$AAA?$AAl?$AAl?$AAo?$AAc?$AAa?$AAt@ ; `string'
PUBLIC	?g_ControlVersion@@3JA				; g_ControlVersion
PUBLIC	??_C@_0P@MMNMMLGK@COFreezeEvents@		; `string'
PUBLIC	??_C@_0BC@OGCGGIMP@GetPropertyNumber@		; `string'
PUBLIC	??_C@_0BC@MDCNODNB@SetPropertyNumber@		; `string'
PUBLIC	??_C@_0BC@CFCCMIMD@GetPropertyString@		; `string'
PUBLIC	??_C@_0BC@CJEDNN@SetPropertyString@		; `string'
PUBLIC	??_C@_0M@LNPKKKDA@OpenService@			; `string'
PUBLIC	??_C@_0M@PCMCHHMH@CheckHealth@			; `string'
PUBLIC	??_C@_0M@JGMIDNEK@ClaimDevice@			; `string'
PUBLIC	??_C@_0M@JMBCPNGJ@ClearOutput@			; `string'
PUBLIC	??_C@_0N@DDFIIBMP@CloseService@			; `string'
PUBLIC	??_C@_08EEIHICPC@DirectIO@			; `string'
PUBLIC	??_C@_0O@BCPMENMJ@ReleaseDevice@		; `string'
PUBLIC	??_C@_0BA@GFABKEEE@ResetStatistics@		; `string'
PUBLIC	??_C@_0BD@DPALHJGC@RetrieveStatistics@		; `string'
PUBLIC	??_C@_0BB@KOHIKNFC@UpdateStatistics@		; `string'
PUBLIC	??_C@_0BH@PBKBNMGB@CompareFirmwareVersion@	; `string'
PUBLIC	??_C@_0P@FBPDPIPA@UpdateFirmware@		; `string'
PUBLIC	??_C@_09PEMGNEEO@PlaySound@			; `string'
PUBLIC	??_C@_09IIPLNIMF@StopSound@			; `string'
PUBLIC	??_C@_1CE@IMMADNAP@?$AAa?$AAt?$AAl?$AAT?$AAr?$AAa?$AAc?$AAe?$AAE?$AAx?$AAc?$AAe?$AAp?$AAt?$AAi@ ; `string'
PUBLIC	??_C@_1BK@NCJHOFCL@?$AAa?$AAt?$AAl?$AAT?$AAr?$AAa?$AAc?$AAe?$AAT?$AAi?$AAm?$AAe@ ; `string'
PUBLIC	??_C@_1BM@GIKLHLFD@?$AAa?$AAt?$AAl?$AAT?$AAr?$AAa?$AAc?$AAe?$AAC?$AAa?$AAc?$AAh?$AAe@ ; `string'
PUBLIC	??_C@_1CA@PBPHANCD@?$AAa?$AAt?$AAl?$AAT?$AAr?$AAa?$AAc?$AAe?$AAS?$AAt?$AAe?$AAn?$AAc?$AAi?$AAl@ ; `string'
PUBLIC	??_C@_1BO@GMLILNDJ@?$AAa?$AAt?$AAl?$AAT?$AAr?$AAa?$AAc?$AAe?$AAS?$AAt?$AAr?$AAi?$AAn?$AAg@ ; `string'
PUBLIC	??_C@_1BI@OKDLCIEM@?$AAa?$AAt?$AAl?$AAT?$AAr?$AAa?$AAc?$AAe?$AAM?$AAa?$AAp@ ; `string'
PUBLIC	??_C@_1BK@DMHCKHHD@?$AAa?$AAt?$AAl?$AAT?$AAr?$AAa?$AAc?$AAe?$AAU?$AAt?$AAi?$AAl@ ; `string'
PUBLIC	??_C@_1CC@DMMBNCFG@?$AAa?$AAt?$AAl?$AAT?$AAr?$AAa?$AAc?$AAe?$AAS?$AAe?$AAc?$AAu?$AAr?$AAi?$AAt@ ; `string'
PUBLIC	??_C@_1BK@OPAPOCAL@?$AAa?$AAt?$AAl?$AAT?$AAr?$AAa?$AAc?$AAe?$AAS?$AAy?$AAn?$AAc@ ; `string'
PUBLIC	??_C@_1BM@FHAEDBFK@?$AAa?$AAt?$AAl?$AAT?$AAr?$AAa?$AAc?$AAe?$AAI?$AAS?$AAA?$AAP?$AAI@ ; `string'
PUBLIC	?chDirSep@ATL@@3_WB				; ATL::chDirSep
PUBLIC	?chRightBracket@ATL@@3_WB			; ATL::chRightBracket
PUBLIC	?chLeftBracket@ATL@@3_WB			; ATL::chLeftBracket
PUBLIC	?chQuote@ATL@@3_WB				; ATL::chQuote
PUBLIC	?chEquals@ATL@@3_WB				; ATL::chEquals
PUBLIC	?szStringVal@ATL@@3QB_WB			; ATL::szStringVal
PUBLIC	??_C@_13HADIAKP@?$AAS@				; `string'
PUBLIC	?multiszStringVal@ATL@@3QB_WB			; ATL::multiszStringVal
PUBLIC	??_C@_13LHMFKAAD@?$AAM@				; `string'
PUBLIC	?szDwordVal@ATL@@3QB_WB				; ATL::szDwordVal
PUBLIC	??_C@_13MKMNOPIJ@?$AAD@				; `string'
PUBLIC	?szBinaryVal@ATL@@3QB_WB			; ATL::szBinaryVal
PUBLIC	??_C@_13OPKGLAFF@?$AAB@				; `string'
PUBLIC	?szValToken@ATL@@3QB_WB				; ATL::szValToken
PUBLIC	??_C@_17LLMMEOJD@?$AAV?$AAa?$AAl@		; `string'
PUBLIC	?szForceRemove@ATL@@3QB_WB			; ATL::szForceRemove
PUBLIC	??_C@_1BI@JFAIJMHL@?$AAF?$AAo?$AAr?$AAc?$AAe?$AAR?$AAe?$AAm?$AAo?$AAv?$AAe@ ; `string'
PUBLIC	?szNoRemove@ATL@@3QB_WB				; ATL::szNoRemove
PUBLIC	??_C@_1BC@GCKHIPE@?$AAN?$AAo?$AAR?$AAe?$AAm?$AAo?$AAv?$AAe@ ; `string'
PUBLIC	?szDelete@ATL@@3QB_WB				; ATL::szDelete
PUBLIC	??_C@_1O@JDLOHAN@?$AAD?$AAe?$AAl?$AAe?$AAt?$AAe@ ; `string'
PUBLIC	_CLSID_Registrar
PUBLIC	_IID_IRegistrar
PUBLIC	_IID_IDocHostUIHandlerDispatch
PUBLIC	_IID_IAxWinHostWindow
PUBLIC	_IID_IAxWinHostWindowLic
PUBLIC	_IID_IAxWinAmbientDispatch
PUBLIC	_IID_IAxWinAmbientDispatchEx
PUBLIC	_IID_IInternalConnection
EXTRN	?_AtlBaseModule@ATL@@3VCAtlBaseModule@1@A:BYTE	; ATL::_AtlBaseModule
EXTRN	__Init_thread_epoch:DWORD
EXTRN	___ImageBase:BYTE
;	COMDAT ?m_bInitFailed@CAtlBaseModule@ATL@@2_NA
_BSS	SEGMENT
?m_bInitFailed@CAtlBaseModule@ATL@@2_NA DB 01H DUP (?)	; ATL::CAtlBaseModule::m_bInitFailed
_BSS	ENDS
;	COMDAT ?WM_ATLGETHOST@ATL@@3IA
_BSS	SEGMENT
?WM_ATLGETHOST@ATL@@3IA DD 01H DUP (?)			; ATL::WM_ATLGETHOST
_BSS	ENDS
;	COMDAT ?WM_ATLGETCONTROL@ATL@@3IA
_BSS	SEGMENT
?WM_ATLGETCONTROL@ATL@@3IA DD 01H DUP (?)		; ATL::WM_ATLGETCONTROL
_BSS	ENDS
;	COMDAT ?_pPerfRegFunc@ATL@@3P6AJPAUHINSTANCE__@@@ZA
_BSS	SEGMENT
?_pPerfRegFunc@ATL@@3P6AJPAUHINSTANCE__@@@ZA DD 01H DUP (?) ; ATL::_pPerfRegFunc
_BSS	ENDS
;	COMDAT ?_pPerfUnRegFunc@ATL@@3P6AJXZA
_BSS	SEGMENT
?_pPerfUnRegFunc@ATL@@3P6AJXZA DD 01H DUP (?)		; ATL::_pPerfUnRegFunc
_BSS	ENDS
;	COMDAT ?_AtlRegisterPerUser@ATL@@3_NA
_BSS	SEGMENT
?_AtlRegisterPerUser@ATL@@3_NA DB 01H DUP (?)		; ATL::_AtlRegisterPerUser
_BSS	ENDS
_BSS	SEGMENT
?s_nInstances@COPOSSoundPlayer@@1HA DD 01H DUP (?)	; COPOSSoundPlayer::s_nInstances
_BSS	ENDS
;	COMDAT ?_pAtlModule@ATL@@3PAVCAtlModule@1@A
_BSS	SEGMENT
?_pAtlModule@ATL@@3PAVCAtlModule@1@A DD 01H DUP (?)	; ATL::_pAtlModule
_BSS	ENDS
;	COMDAT ?_pModule@ATL@@3PAVCComModule@1@A
_BSS	SEGMENT
?_pModule@ATL@@3PAVCComModule@1@A DD 01H DUP (?)	; ATL::_pModule
_BSS	ENDS
;	COMDAT ?_entries@?1??GetConnMap@COPOSSoundPlayer@@SAPBU_ATL_CONNMAP_ENTRY@ATL@@PAH@Z@4QBU34@B
_BSS	SEGMENT
?_entries@?1??GetConnMap@COPOSSoundPlayer@@SAPBU_ATL_CONNMAP_ENTRY@ATL@@PAH@Z@4QBU34@B DD 03H DUP (?) ; `COPOSSoundPlayer::GetConnMap'::`2'::_entries
_BSS	ENDS
;	COMDAT ?$TSS0@?1??GetConnMap@COPOSSoundPlayer@@SAPBU_ATL_CONNMAP_ENTRY@ATL@@PAH@Z@4HA
_BSS	SEGMENT
?$TSS0@?1??GetConnMap@COPOSSoundPlayer@@SAPBU_ATL_CONNMAP_ENTRY@ATL@@PAH@Z@4HA DD 01H DUP (?) ; `COPOSSoundPlayer::GetConnMap'::`2'::$TSS0
_BSS	ENDS
;	COMDAT ?_pAtlAutoThreadModule@ATL@@3PAUIAtlAutoThreadModule@1@A
_BSS	SEGMENT
?_pAtlAutoThreadModule@ATL@@3PAUIAtlAutoThreadModule@1@A DD 01H DUP (?) ; ATL::_pAtlAutoThreadModule
_BSS	ENDS
;	COMDAT _IID_IInternalConnection
CONST	SEGMENT
_IID_IInternalConnection DD 072ad0770H
	DW	06a9fH
	DW	011d1H
	DB	0bcH
	DB	0ecH
	DB	00H
	DB	060H
	DB	08H
	DB	08fH
	DB	044H
	DB	04eH
CONST	ENDS
;	COMDAT _IID_IAxWinAmbientDispatchEx
CONST	SEGMENT
_IID_IAxWinAmbientDispatchEx DD 0b2d0778bH
	DW	0ac99H
	DW	04c58H
	DB	0a5H
	DB	0c8H
	DB	0e7H
	DB	072H
	DB	04eH
	DB	053H
	DB	016H
	DB	0b5H
CONST	ENDS
;	COMDAT _IID_IAxWinAmbientDispatch
CONST	SEGMENT
_IID_IAxWinAmbientDispatch DD 0b6ea2051H
	DW	048aH
	DW	011d1H
	DB	082H
	DB	0b9H
	DB	00H
	DB	0c0H
	DB	04fH
	DB	0b9H
	DB	094H
	DB	02eH
CONST	ENDS
;	COMDAT _IID_IAxWinHostWindowLic
CONST	SEGMENT
_IID_IAxWinHostWindowLic DD 03935bda8H
	DW	04ed9H
	DW	0495cH
	DB	086H
	DB	050H
	DB	0e0H
	DB	01fH
	DB	0c1H
	DB	0e3H
	DB	08aH
	DB	04bH
CONST	ENDS
;	COMDAT _IID_IAxWinHostWindow
CONST	SEGMENT
_IID_IAxWinHostWindow DD 0b6ea2050H
	DW	048aH
	DW	011d1H
	DB	082H
	DB	0b9H
	DB	00H
	DB	0c0H
	DB	04fH
	DB	0b9H
	DB	094H
	DB	02eH
CONST	ENDS
;	COMDAT _IID_IDocHostUIHandlerDispatch
CONST	SEGMENT
_IID_IDocHostUIHandlerDispatch DD 0425b5af0H
	DW	065f1H
	DW	011d1H
	DB	096H
	DB	011H
	DB	00H
	DB	00H
	DB	0f8H
	DB	01eH
	DB	0dH
	DB	0dH
CONST	ENDS
;	COMDAT _IID_IRegistrar
CONST	SEGMENT
_IID_IRegistrar DD 044ec053bH
	DW	0400fH
	DW	011d0H
	DB	09dH
	DB	0cdH
	DB	00H
	DB	0a0H
	DB	0c9H
	DB	03H
	DB	091H
	DB	0d3H
CONST	ENDS
;	COMDAT _CLSID_Registrar
CONST	SEGMENT
_CLSID_Registrar DD 044ec053aH
	DW	0400fH
	DW	011d0H
	DB	09dH
	DB	0cdH
	DB	00H
	DB	0a0H
	DB	0c9H
	DB	03H
	DB	091H
	DB	0d3H
CONST	ENDS
;	COMDAT ??_C@_1O@JDLOHAN@?$AAD?$AAe?$AAl?$AAe?$AAt?$AAe@
CONST	SEGMENT
??_C@_1O@JDLOHAN@?$AAD?$AAe?$AAl?$AAe?$AAt?$AAe@ DB 'D', 00H, 'e', 00H, 'l'
	DB	00H, 'e', 00H, 't', 00H, 'e', 00H, 00H, 00H	; `string'
CONST	ENDS
;	COMDAT ?szDelete@ATL@@3QB_WB
CONST	SEGMENT
?szDelete@ATL@@3QB_WB DD FLAT:??_C@_1O@JDLOHAN@?$AAD?$AAe?$AAl?$AAe?$AAt?$AAe@ ; ATL::szDelete
CONST	ENDS
;	COMDAT ??_C@_1BC@GCKHIPE@?$AAN?$AAo?$AAR?$AAe?$AAm?$AAo?$AAv?$AAe@
CONST	SEGMENT
??_C@_1BC@GCKHIPE@?$AAN?$AAo?$AAR?$AAe?$AAm?$AAo?$AAv?$AAe@ DB 'N', 00H, 'o'
	DB	00H, 'R', 00H, 'e', 00H, 'm', 00H, 'o', 00H, 'v', 00H, 'e', 00H
	DB	00H, 00H					; `string'
CONST	ENDS
;	COMDAT ?szNoRemove@ATL@@3QB_WB
CONST	SEGMENT
?szNoRemove@ATL@@3QB_WB DD FLAT:??_C@_1BC@GCKHIPE@?$AAN?$AAo?$AAR?$AAe?$AAm?$AAo?$AAv?$AAe@ ; ATL::szNoRemove
CONST	ENDS
;	COMDAT ??_C@_1BI@JFAIJMHL@?$AAF?$AAo?$AAr?$AAc?$AAe?$AAR?$AAe?$AAm?$AAo?$AAv?$AAe@
CONST	SEGMENT
??_C@_1BI@JFAIJMHL@?$AAF?$AAo?$AAr?$AAc?$AAe?$AAR?$AAe?$AAm?$AAo?$AAv?$AAe@ DB 'F'
	DB	00H, 'o', 00H, 'r', 00H, 'c', 00H, 'e', 00H, 'R', 00H, 'e', 00H
	DB	'm', 00H, 'o', 00H, 'v', 00H, 'e', 00H, 00H, 00H ; `string'
CONST	ENDS
;	COMDAT ?szForceRemove@ATL@@3QB_WB
CONST	SEGMENT
?szForceRemove@ATL@@3QB_WB DD FLAT:??_C@_1BI@JFAIJMHL@?$AAF?$AAo?$AAr?$AAc?$AAe?$AAR?$AAe?$AAm?$AAo?$AAv?$AAe@ ; ATL::szForceRemove
CONST	ENDS
;	COMDAT ??_C@_17LLMMEOJD@?$AAV?$AAa?$AAl@
CONST	SEGMENT
??_C@_17LLMMEOJD@?$AAV?$AAa?$AAl@ DB 'V', 00H, 'a', 00H, 'l', 00H, 00H, 00H ; `string'
CONST	ENDS
;	COMDAT ?szValToken@ATL@@3QB_WB
CONST	SEGMENT
?szValToken@ATL@@3QB_WB DD FLAT:??_C@_17LLMMEOJD@?$AAV?$AAa?$AAl@ ; ATL::szValToken
CONST	ENDS
;	COMDAT ??_C@_13OPKGLAFF@?$AAB@
CONST	SEGMENT
??_C@_13OPKGLAFF@?$AAB@ DB 'B', 00H, 00H, 00H		; `string'
CONST	ENDS
;	COMDAT ?szBinaryVal@ATL@@3QB_WB
CONST	SEGMENT
?szBinaryVal@ATL@@3QB_WB DD FLAT:??_C@_13OPKGLAFF@?$AAB@ ; ATL::szBinaryVal
CONST	ENDS
;	COMDAT ??_C@_13MKMNOPIJ@?$AAD@
CONST	SEGMENT
??_C@_13MKMNOPIJ@?$AAD@ DB 'D', 00H, 00H, 00H		; `string'
CONST	ENDS
;	COMDAT ?szDwordVal@ATL@@3QB_WB
CONST	SEGMENT
?szDwordVal@ATL@@3QB_WB DD FLAT:??_C@_13MKMNOPIJ@?$AAD@	; ATL::szDwordVal
CONST	ENDS
;	COMDAT ??_C@_13LHMFKAAD@?$AAM@
CONST	SEGMENT
??_C@_13LHMFKAAD@?$AAM@ DB 'M', 00H, 00H, 00H		; `string'
CONST	ENDS
;	COMDAT ?multiszStringVal@ATL@@3QB_WB
CONST	SEGMENT
?multiszStringVal@ATL@@3QB_WB DD FLAT:??_C@_13LHMFKAAD@?$AAM@ ; ATL::multiszStringVal
CONST	ENDS
;	COMDAT ??_C@_13HADIAKP@?$AAS@
CONST	SEGMENT
??_C@_13HADIAKP@?$AAS@ DB 'S', 00H, 00H, 00H		; `string'
CONST	ENDS
;	COMDAT ?szStringVal@ATL@@3QB_WB
CONST	SEGMENT
?szStringVal@ATL@@3QB_WB DD FLAT:??_C@_13HADIAKP@?$AAS@	; ATL::szStringVal
CONST	ENDS
;	COMDAT ?chEquals@ATL@@3_WB
CONST	SEGMENT
?chEquals@ATL@@3_WB DW 03dH				; ATL::chEquals
CONST	ENDS
;	COMDAT ?chQuote@ATL@@3_WB
CONST	SEGMENT
?chQuote@ATL@@3_WB DW 027H				; ATL::chQuote
CONST	ENDS
;	COMDAT ?chLeftBracket@ATL@@3_WB
CONST	SEGMENT
?chLeftBracket@ATL@@3_WB DW 07bH			; ATL::chLeftBracket
CONST	ENDS
;	COMDAT ?chRightBracket@ATL@@3_WB
CONST	SEGMENT
?chRightBracket@ATL@@3_WB DW 07dH			; ATL::chRightBracket
CONST	ENDS
;	COMDAT ?chDirSep@ATL@@3_WB
CONST	SEGMENT
?chDirSep@ATL@@3_WB DW 05cH				; ATL::chDirSep
CONST	ENDS
;	COMDAT ??_C@_1BM@FHAEDBFK@?$AAa?$AAt?$AAl?$AAT?$AAr?$AAa?$AAc?$AAe?$AAI?$AAS?$AAA?$AAP?$AAI@
CONST	SEGMENT
??_C@_1BM@FHAEDBFK@?$AAa?$AAt?$AAl?$AAT?$AAr?$AAa?$AAc?$AAe?$AAI?$AAS?$AAA?$AAP?$AAI@ DB 'a'
	DB	00H, 't', 00H, 'l', 00H, 'T', 00H, 'r', 00H, 'a', 00H, 'c', 00H
	DB	'e', 00H, 'I', 00H, 'S', 00H, 'A', 00H, 'P', 00H, 'I', 00H, 00H
	DB	00H						; `string'
CONST	ENDS
;	COMDAT ??_C@_1BK@OPAPOCAL@?$AAa?$AAt?$AAl?$AAT?$AAr?$AAa?$AAc?$AAe?$AAS?$AAy?$AAn?$AAc@
CONST	SEGMENT
??_C@_1BK@OPAPOCAL@?$AAa?$AAt?$AAl?$AAT?$AAr?$AAa?$AAc?$AAe?$AAS?$AAy?$AAn?$AAc@ DB 'a'
	DB	00H, 't', 00H, 'l', 00H, 'T', 00H, 'r', 00H, 'a', 00H, 'c', 00H
	DB	'e', 00H, 'S', 00H, 'y', 00H, 'n', 00H, 'c', 00H, 00H, 00H ; `string'
CONST	ENDS
;	COMDAT ??_C@_1CC@DMMBNCFG@?$AAa?$AAt?$AAl?$AAT?$AAr?$AAa?$AAc?$AAe?$AAS?$AAe?$AAc?$AAu?$AAr?$AAi?$AAt@
CONST	SEGMENT
??_C@_1CC@DMMBNCFG@?$AAa?$AAt?$AAl?$AAT?$AAr?$AAa?$AAc?$AAe?$AAS?$AAe?$AAc?$AAu?$AAr?$AAi?$AAt@ DB 'a'
	DB	00H, 't', 00H, 'l', 00H, 'T', 00H, 'r', 00H, 'a', 00H, 'c', 00H
	DB	'e', 00H, 'S', 00H, 'e', 00H, 'c', 00H, 'u', 00H, 'r', 00H, 'i'
	DB	00H, 't', 00H, 'y', 00H, 00H, 00H		; `string'
CONST	ENDS
;	COMDAT ??_C@_1BK@DMHCKHHD@?$AAa?$AAt?$AAl?$AAT?$AAr?$AAa?$AAc?$AAe?$AAU?$AAt?$AAi?$AAl@
CONST	SEGMENT
??_C@_1BK@DMHCKHHD@?$AAa?$AAt?$AAl?$AAT?$AAr?$AAa?$AAc?$AAe?$AAU?$AAt?$AAi?$AAl@ DB 'a'
	DB	00H, 't', 00H, 'l', 00H, 'T', 00H, 'r', 00H, 'a', 00H, 'c', 00H
	DB	'e', 00H, 'U', 00H, 't', 00H, 'i', 00H, 'l', 00H, 00H, 00H ; `string'
CONST	ENDS
;	COMDAT ??_C@_1BI@OKDLCIEM@?$AAa?$AAt?$AAl?$AAT?$AAr?$AAa?$AAc?$AAe?$AAM?$AAa?$AAp@
CONST	SEGMENT
??_C@_1BI@OKDLCIEM@?$AAa?$AAt?$AAl?$AAT?$AAr?$AAa?$AAc?$AAe?$AAM?$AAa?$AAp@ DB 'a'
	DB	00H, 't', 00H, 'l', 00H, 'T', 00H, 'r', 00H, 'a', 00H, 'c', 00H
	DB	'e', 00H, 'M', 00H, 'a', 00H, 'p', 00H, 00H, 00H ; `string'
CONST	ENDS
;	COMDAT ??_C@_1BO@GMLILNDJ@?$AAa?$AAt?$AAl?$AAT?$AAr?$AAa?$AAc?$AAe?$AAS?$AAt?$AAr?$AAi?$AAn?$AAg@
CONST	SEGMENT
??_C@_1BO@GMLILNDJ@?$AAa?$AAt?$AAl?$AAT?$AAr?$AAa?$AAc?$AAe?$AAS?$AAt?$AAr?$AAi?$AAn?$AAg@ DB 'a'
	DB	00H, 't', 00H, 'l', 00H, 'T', 00H, 'r', 00H, 'a', 00H, 'c', 00H
	DB	'e', 00H, 'S', 00H, 't', 00H, 'r', 00H, 'i', 00H, 'n', 00H, 'g'
	DB	00H, 00H, 00H				; `string'
CONST	ENDS
;	COMDAT ??_C@_1CA@PBPHANCD@?$AAa?$AAt?$AAl?$AAT?$AAr?$AAa?$AAc?$AAe?$AAS?$AAt?$AAe?$AAn?$AAc?$AAi?$AAl@
CONST	SEGMENT
??_C@_1CA@PBPHANCD@?$AAa?$AAt?$AAl?$AAT?$AAr?$AAa?$AAc?$AAe?$AAS?$AAt?$AAe?$AAn?$AAc?$AAi?$AAl@ DB 'a'
	DB	00H, 't', 00H, 'l', 00H, 'T', 00H, 'r', 00H, 'a', 00H, 'c', 00H
	DB	'e', 00H, 'S', 00H, 't', 00H, 'e', 00H, 'n', 00H, 'c', 00H, 'i'
	DB	00H, 'l', 00H, 00H, 00H			; `string'
CONST	ENDS
;	COMDAT ??_C@_1BM@GIKLHLFD@?$AAa?$AAt?$AAl?$AAT?$AAr?$AAa?$AAc?$AAe?$AAC?$AAa?$AAc?$AAh?$AAe@
CONST	SEGMENT
??_C@_1BM@GIKLHLFD@?$AAa?$AAt?$AAl?$AAT?$AAr?$AAa?$AAc?$AAe?$AAC?$AAa?$AAc?$AAh?$AAe@ DB 'a'
	DB	00H, 't', 00H, 'l', 00H, 'T', 00H, 'r', 00H, 'a', 00H, 'c', 00H
	DB	'e', 00H, 'C', 00H, 'a', 00H, 'c', 00H, 'h', 00H, 'e', 00H, 00H
	DB	00H						; `string'
CONST	ENDS
;	COMDAT ??_C@_1BK@NCJHOFCL@?$AAa?$AAt?$AAl?$AAT?$AAr?$AAa?$AAc?$AAe?$AAT?$AAi?$AAm?$AAe@
CONST	SEGMENT
??_C@_1BK@NCJHOFCL@?$AAa?$AAt?$AAl?$AAT?$AAr?$AAa?$AAc?$AAe?$AAT?$AAi?$AAm?$AAe@ DB 'a'
	DB	00H, 't', 00H, 'l', 00H, 'T', 00H, 'r', 00H, 'a', 00H, 'c', 00H
	DB	'e', 00H, 'T', 00H, 'i', 00H, 'm', 00H, 'e', 00H, 00H, 00H ; `string'
CONST	ENDS
;	COMDAT ??_C@_1CE@IMMADNAP@?$AAa?$AAt?$AAl?$AAT?$AAr?$AAa?$AAc?$AAe?$AAE?$AAx?$AAc?$AAe?$AAp?$AAt?$AAi@
CONST	SEGMENT
??_C@_1CE@IMMADNAP@?$AAa?$AAt?$AAl?$AAT?$AAr?$AAa?$AAc?$AAe?$AAE?$AAx?$AAc?$AAe?$AAp?$AAt?$AAi@ DB 'a'
	DB	00H, 't', 00H, 'l', 00H, 'T', 00H, 'r', 00H, 'a', 00H, 'c', 00H
	DB	'e', 00H, 'E', 00H, 'x', 00H, 'c', 00H, 'e', 00H, 'p', 00H, 't'
	DB	00H, 'i', 00H, 'o', 00H, 'n', 00H, 00H, 00H	; `string'
CONST	ENDS
;	COMDAT ??_C@_09IIPLNIMF@StopSound@
CONST	SEGMENT
??_C@_09IIPLNIMF@StopSound@ DB 'StopSound', 00H		; `string'
CONST	ENDS
;	COMDAT ??_C@_09PEMGNEEO@PlaySound@
CONST	SEGMENT
??_C@_09PEMGNEEO@PlaySound@ DB 'PlaySound', 00H		; `string'
CONST	ENDS
;	COMDAT ??_C@_0P@FBPDPIPA@UpdateFirmware@
CONST	SEGMENT
??_C@_0P@FBPDPIPA@UpdateFirmware@ DB 'UpdateFirmware', 00H ; `string'
CONST	ENDS
;	COMDAT ??_C@_0BH@PBKBNMGB@CompareFirmwareVersion@
CONST	SEGMENT
??_C@_0BH@PBKBNMGB@CompareFirmwareVersion@ DB 'CompareFirmwareVersion', 00H ; `string'
CONST	ENDS
;	COMDAT ??_C@_0BB@KOHIKNFC@UpdateStatistics@
CONST	SEGMENT
??_C@_0BB@KOHIKNFC@UpdateStatistics@ DB 'UpdateStatistics', 00H ; `string'
CONST	ENDS
;	COMDAT ??_C@_0BD@DPALHJGC@RetrieveStatistics@
CONST	SEGMENT
??_C@_0BD@DPALHJGC@RetrieveStatistics@ DB 'RetrieveStatistics', 00H ; `string'
CONST	ENDS
;	COMDAT ??_C@_0BA@GFABKEEE@ResetStatistics@
CONST	SEGMENT
??_C@_0BA@GFABKEEE@ResetStatistics@ DB 'ResetStatistics', 00H ; `string'
CONST	ENDS
;	COMDAT ??_C@_0O@BCPMENMJ@ReleaseDevice@
CONST	SEGMENT
??_C@_0O@BCPMENMJ@ReleaseDevice@ DB 'ReleaseDevice', 00H ; `string'
CONST	ENDS
;	COMDAT ??_C@_08EEIHICPC@DirectIO@
CONST	SEGMENT
??_C@_08EEIHICPC@DirectIO@ DB 'DirectIO', 00H		; `string'
CONST	ENDS
;	COMDAT ??_C@_0N@DDFIIBMP@CloseService@
CONST	SEGMENT
??_C@_0N@DDFIIBMP@CloseService@ DB 'CloseService', 00H	; `string'
CONST	ENDS
;	COMDAT ??_C@_0M@JMBCPNGJ@ClearOutput@
CONST	SEGMENT
??_C@_0M@JMBCPNGJ@ClearOutput@ DB 'ClearOutput', 00H	; `string'
CONST	ENDS
;	COMDAT ??_C@_0M@JGMIDNEK@ClaimDevice@
CONST	SEGMENT
??_C@_0M@JGMIDNEK@ClaimDevice@ DB 'ClaimDevice', 00H	; `string'
CONST	ENDS
;	COMDAT ??_C@_0M@PCMCHHMH@CheckHealth@
CONST	SEGMENT
??_C@_0M@PCMCHHMH@CheckHealth@ DB 'CheckHealth', 00H	; `string'
CONST	ENDS
;	COMDAT ??_C@_0M@LNPKKKDA@OpenService@
CONST	SEGMENT
??_C@_0M@LNPKKKDA@OpenService@ DB 'OpenService', 00H	; `string'
CONST	ENDS
;	COMDAT ??_C@_0BC@CJEDNN@SetPropertyString@
CONST	SEGMENT
??_C@_0BC@CJEDNN@SetPropertyString@ DB 'SetPropertyString', 00H ; `string'
CONST	ENDS
;	COMDAT ??_C@_0BC@CFCCMIMD@GetPropertyString@
CONST	SEGMENT
??_C@_0BC@CFCCMIMD@GetPropertyString@ DB 'GetPropertyString', 00H ; `string'
CONST	ENDS
;	COMDAT ??_C@_0BC@MDCNODNB@SetPropertyNumber@
CONST	SEGMENT
??_C@_0BC@MDCNODNB@SetPropertyNumber@ DB 'SetPropertyNumber', 00H ; `string'
CONST	ENDS
;	COMDAT ??_C@_0BC@OGCGGIMP@GetPropertyNumber@
CONST	SEGMENT
??_C@_0BC@OGCGGIMP@GetPropertyNumber@ DB 'GetPropertyNumber', 00H ; `string'
CONST	ENDS
;	COMDAT ??_C@_0P@MMNMMLGK@COFreezeEvents@
CONST	SEGMENT
??_C@_0P@MMNMMLGK@COFreezeEvents@ DB 'COFreezeEvents', 00H ; `string'
CONST	ENDS
;	COMDAT ??_C@_1CG@KFEEMCDH@?$AAa?$AAt?$AAl?$AAT?$AAr?$AAa?$AAc?$AAe?$AAA?$AAl?$AAl?$AAo?$AAc?$AAa?$AAt@
CONST	SEGMENT
??_C@_1CG@KFEEMCDH@?$AAa?$AAt?$AAl?$AAT?$AAr?$AAa?$AAc?$AAe?$AAA?$AAl?$AAl?$AAo?$AAc?$AAa?$AAt@ DB 'a'
	DB	00H, 't', 00H, 'l', 00H, 'T', 00H, 'r', 00H, 'a', 00H, 'c', 00H
	DB	'e', 00H, 'A', 00H, 'l', 00H, 'l', 00H, 'o', 00H, 'c', 00H, 'a'
	DB	00H, 't', 00H, 'i', 00H, 'o', 00H, 'n', 00H, 00H, 00H ; `string'
CONST	ENDS
;	COMDAT ??_C@_1CA@DMHPIODO@?$AAa?$AAt?$AAl?$AAT?$AAr?$AAa?$AAc?$AAe?$AAN?$AAo?$AAt?$AAI?$AAm?$AAp?$AAl@
CONST	SEGMENT
??_C@_1CA@DMHPIODO@?$AAa?$AAt?$AAl?$AAT?$AAr?$AAa?$AAc?$AAe?$AAN?$AAo?$AAt?$AAI?$AAm?$AAp?$AAl@ DB 'a'
	DB	00H, 't', 00H, 'l', 00H, 'T', 00H, 'r', 00H, 'a', 00H, 'c', 00H
	DB	'e', 00H, 'N', 00H, 'o', 00H, 't', 00H, 'I', 00H, 'm', 00H, 'p'
	DB	00H, 'l', 00H, 00H, 00H			; `string'
CONST	ENDS
;	COMDAT ??_C@_1BO@EFPHNHHN@?$AAa?$AAt?$AAl?$AAT?$AAr?$AAa?$AAc?$AAe?$AAS?$AAn?$AAa?$AAp?$AAi?$AAn@
CONST	SEGMENT
??_C@_1BO@EFPHNHHN@?$AAa?$AAt?$AAl?$AAT?$AAr?$AAa?$AAc?$AAe?$AAS?$AAn?$AAa?$AAp?$AAi?$AAn@ DB 'a'
	DB	00H, 't', 00H, 'l', 00H, 'T', 00H, 'r', 00H, 'a', 00H, 'c', 00H
	DB	'e', 00H, 'S', 00H, 'n', 00H, 'a', 00H, 'p', 00H, 'i', 00H, 'n'
	DB	00H, 00H, 00H				; `string'
CONST	ENDS
;	COMDAT ??_C@_1CG@MNMMIOOI@?$AAa?$AAt?$AAl?$AAT?$AAr?$AAa?$AAc?$AAe?$AAD?$AAB?$AAP?$AAr?$AAo?$AAv?$AAi@
CONST	SEGMENT
??_C@_1CG@MNMMIOOI@?$AAa?$AAt?$AAl?$AAT?$AAr?$AAa?$AAc?$AAe?$AAD?$AAB?$AAP?$AAr?$AAo?$AAv?$AAi@ DB 'a'
	DB	00H, 't', 00H, 'l', 00H, 'T', 00H, 'r', 00H, 'a', 00H, 'c', 00H
	DB	'e', 00H, 'D', 00H, 'B', 00H, 'P', 00H, 'r', 00H, 'o', 00H, 'v'
	DB	00H, 'i', 00H, 'd', 00H, 'e', 00H, 'r', 00H, 00H, 00H ; `string'
CONST	ENDS
;	COMDAT ??_C@_1CC@JNJJDOOH@?$AAa?$AAt?$AAl?$AAT?$AAr?$AAa?$AAc?$AAe?$AAD?$AAB?$AAC?$AAl?$AAi?$AAe?$AAn@
CONST	SEGMENT
??_C@_1CC@JNJJDOOH@?$AAa?$AAt?$AAl?$AAT?$AAr?$AAa?$AAc?$AAe?$AAD?$AAB?$AAC?$AAl?$AAi?$AAe?$AAn@ DB 'a'
	DB	00H, 't', 00H, 'l', 00H, 'T', 00H, 'r', 00H, 'a', 00H, 'c', 00H
	DB	'e', 00H, 'D', 00H, 'B', 00H, 'C', 00H, 'l', 00H, 'i', 00H, 'e'
	DB	00H, 'n', 00H, 't', 00H, 00H, 00H		; `string'
CONST	ENDS
;	COMDAT ??_C@_1CA@OMOMONMN@?$AAa?$AAt?$AAl?$AAT?$AAr?$AAa?$AAc?$AAe?$AAH?$AAo?$AAs?$AAt?$AAi?$AAn?$AAg@
CONST	SEGMENT
??_C@_1CA@OMOMONMN@?$AAa?$AAt?$AAl?$AAT?$AAr?$AAa?$AAc?$AAe?$AAH?$AAo?$AAs?$AAt?$AAi?$AAn?$AAg@ DB 'a'
	DB	00H, 't', 00H, 'l', 00H, 'T', 00H, 'r', 00H, 'a', 00H, 'c', 00H
	DB	'e', 00H, 'H', 00H, 'o', 00H, 's', 00H, 't', 00H, 'i', 00H, 'n'
	DB	00H, 'g', 00H, 00H, 00H			; `string'
CONST	ENDS
;	COMDAT ??_C@_1CC@IMNJGBED@?$AAa?$AAt?$AAl?$AAT?$AAr?$AAa?$AAc?$AAe?$AAC?$AAo?$AAn?$AAt?$AAr?$AAo?$AAl@
CONST	SEGMENT
??_C@_1CC@IMNJGBED@?$AAa?$AAt?$AAl?$AAT?$AAr?$AAa?$AAc?$AAe?$AAC?$AAo?$AAn?$AAt?$AAr?$AAo?$AAl@ DB 'a'
	DB	00H, 't', 00H, 'l', 00H, 'T', 00H, 'r', 00H, 'a', 00H, 'c', 00H
	DB	'e', 00H, 'C', 00H, 'o', 00H, 'n', 00H, 't', 00H, 'r', 00H, 'o'
	DB	00H, 'l', 00H, 's', 00H, 00H, 00H		; `string'
CONST	ENDS
;	COMDAT ??_C@_1CE@NAJDPMNB@?$AAa?$AAt?$AAl?$AAT?$AAr?$AAa?$AAc?$AAe?$AAW?$AAi?$AAn?$AAd?$AAo?$AAw?$AAi@
CONST	SEGMENT
??_C@_1CE@NAJDPMNB@?$AAa?$AAt?$AAl?$AAT?$AAr?$AAa?$AAc?$AAe?$AAW?$AAi?$AAn?$AAd?$AAo?$AAw?$AAi@ DB 'a'
	DB	00H, 't', 00H, 'l', 00H, 'T', 00H, 'r', 00H, 'a', 00H, 'c', 00H
	DB	'e', 00H, 'W', 00H, 'i', 00H, 'n', 00H, 'd', 00H, 'o', 00H, 'w'
	DB	00H, 'i', 00H, 'n', 00H, 'g', 00H, 00H, 00H	; `string'
CONST	ENDS
;	COMDAT ??_C@_1CC@BNHGJFNK@?$AAa?$AAt?$AAl?$AAT?$AAr?$AAa?$AAc?$AAe?$AAR?$AAe?$AAf?$AAc?$AAo?$AAu?$AAn@
CONST	SEGMENT
??_C@_1CC@BNHGJFNK@?$AAa?$AAt?$AAl?$AAT?$AAr?$AAa?$AAc?$AAe?$AAR?$AAe?$AAf?$AAc?$AAo?$AAu?$AAn@ DB 'a'
	DB	00H, 't', 00H, 'l', 00H, 'T', 00H, 'r', 00H, 'a', 00H, 'c', 00H
	DB	'e', 00H, 'R', 00H, 'e', 00H, 'f', 00H, 'c', 00H, 'o', 00H, 'u'
	DB	00H, 'n', 00H, 't', 00H, 00H, 00H		; `string'
CONST	ENDS
;	COMDAT ??_C@_1CE@NIAEAIDK@?$AAa?$AAt?$AAl?$AAT?$AAr?$AAa?$AAc?$AAe?$AAR?$AAe?$AAg?$AAi?$AAs?$AAt?$AAr@
CONST	SEGMENT
??_C@_1CE@NIAEAIDK@?$AAa?$AAt?$AAl?$AAT?$AAr?$AAa?$AAc?$AAe?$AAR?$AAe?$AAg?$AAi?$AAs?$AAt?$AAr@ DB 'a'
	DB	00H, 't', 00H, 'l', 00H, 'T', 00H, 'r', 00H, 'a', 00H, 'c', 00H
	DB	'e', 00H, 'R', 00H, 'e', 00H, 'g', 00H, 'i', 00H, 's', 00H, 't'
	DB	00H, 'r', 00H, 'a', 00H, 'r', 00H, 00H, 00H	; `string'
CONST	ENDS
;	COMDAT ??_C@_1BG@FPLJJEMF@?$AAa?$AAt?$AAl?$AAT?$AAr?$AAa?$AAc?$AAe?$AAQ?$AAI@
CONST	SEGMENT
??_C@_1BG@FPLJJEMF@?$AAa?$AAt?$AAl?$AAT?$AAr?$AAa?$AAc?$AAe?$AAQ?$AAI@ DB 'a'
	DB	00H, 't', 00H, 'l', 00H, 'T', 00H, 'r', 00H, 'a', 00H, 'c', 00H
	DB	'e', 00H, 'Q', 00H, 'I', 00H, 00H, 00H	; `string'
CONST	ENDS
;	COMDAT ??_C@_1BI@MAFGHOEE@?$AAa?$AAt?$AAl?$AAT?$AAr?$AAa?$AAc?$AAe?$AAC?$AAO?$AAM@
CONST	SEGMENT
??_C@_1BI@MAFGHOEE@?$AAa?$AAt?$AAl?$AAT?$AAr?$AAa?$AAc?$AAe?$AAC?$AAO?$AAM@ DB 'a'
	DB	00H, 't', 00H, 'l', 00H, 'T', 00H, 'r', 00H, 'a', 00H, 'c', 00H
	DB	'e', 00H, 'C', 00H, 'O', 00H, 'M', 00H, 00H, 00H ; `string'
CONST	ENDS
;	COMDAT ??_C@_1CA@ONGMEOAB@?$AAa?$AAt?$AAl?$AAT?$AAr?$AAa?$AAc?$AAe?$AAG?$AAe?$AAn?$AAe?$AAr?$AAa?$AAl@
CONST	SEGMENT
??_C@_1CA@ONGMEOAB@?$AAa?$AAt?$AAl?$AAT?$AAr?$AAa?$AAc?$AAe?$AAG?$AAe?$AAn?$AAe?$AAr?$AAa?$AAl@ DB 'a'
	DB	00H, 't', 00H, 'l', 00H, 'T', 00H, 'r', 00H, 'a', 00H, 'c', 00H
	DB	'e', 00H, 'G', 00H, 'e', 00H, 'n', 00H, 'e', 00H, 'r', 00H, 'a'
	DB	00H, 'l', 00H, 00H, 00H			; `string'
CONST	ENDS
;	COMDAT ___pobjMapEntryLast
ATL$__z	SEGMENT
___pobjMapEntryLast DD 00H
ATL$__z	ENDS
;	COMDAT ___pobjMapEntryFirst
ATL$__a	SEGMENT
___pobjMapEntryFirst DD 00H
ATL$__a	ENDS
;	COMDAT _LIBID_ATLLib
CONST	SEGMENT
_LIBID_ATLLib DD 044ec0535H
	DW	0400fH
	DW	011d0H
	DB	09dH
	DB	0cdH
	DB	00H
	DB	0a0H
	DB	0c9H
	DB	03H
	DB	091H
	DB	0d3H
CONST	ENDS
_DATA	SEGMENT
?g_WindowName@@3PA_WA DB 'H', 00H, 'W', 00H, '_', 00H, 'O', 00H, 'P', 00H
	DB	'O', 00H, 'S', 00H, 'S', 00H, 'o', 00H, 'u', 00H, 'n', 00H, 'd'
	DB	00H, 'P', 00H, 'l', 00H, 'a', 00H, 'y', 00H, 'e', 00H, 'r', 00H
	DB	00H, 00H					; g_WindowName
	ORG $+2
?g_ControlDescription@@3PADA DB 'OPOS SoundPlayer Control 1.16.000 [Publi'
	DB	'c, by KF]', 00H				; g_ControlDescription
	ORG $+2
?g_ControlVersion@@3JA DD 0f80c0H			; g_ControlVersion
_DATA	ENDS
PUBLIC	??_H@YGXPAXIIP6EPAX0@Z@Z			; `vector constructor iterator'
PUBLIC	??_I@YGXPAXIIP6EX0@Z@Z				; `vector destructor iterator'
PUBLIC	_InlineIsEqualGUID
PUBLIC	?AtlThrowImpl@ATL@@YGXJ@Z			; ATL::AtlThrowImpl
PUBLIC	??$AtlMultiply@H@ATL@@YAJPAHHH@Z		; ATL::AtlMultiply<int>
PUBLIC	?_AtlRaiseException@ATL@@YAXKK@Z		; ATL::_AtlRaiseException
PUBLIC	?_AtlInitializeCriticalSectionEx@ATL@@YAHPAU_RTL_CRITICAL_SECTION@@KK@Z ; ATL::_AtlInitializeCriticalSectionEx
PUBLIC	?Init@CComCriticalSection@ATL@@QAEJXZ		; ATL::CComCriticalSection::Init
PUBLIC	??4?$CComPtr@UIUnknown@@@ATL@@QAEPAUIUnknown@@PAU2@@Z ; ATL::CComPtr<IUnknown>::operator=
PUBLIC	?RemoveAll@?$CSimpleArray@GV?$CSimpleArrayEqualHelper@G@ATL@@@ATL@@QAEXXZ ; ATL::CSimpleArray<unsigned short,ATL::CSimpleArrayEqualHelper<unsigned short> >::RemoveAll
PUBLIC	??A?$CSimpleArray@GV?$CSimpleArrayEqualHelper@G@ATL@@@ATL@@QAEAAGH@Z ; ATL::CSimpleArray<unsigned short,ATL::CSimpleArrayEqualHelper<unsigned short> >::operator[]
PUBLIC	?AtlInternalQueryInterface@ATL@@YGJPAXPBU_ATL_INTMAP_ENTRY@1@ABU_GUID@@PAPAX@Z ; ATL::AtlInternalQueryInterface
PUBLIC	?AtlWinModuleInit@ATL@@YGJPAU_ATL_WIN_MODULE70@1@@Z ; ATL::AtlWinModuleInit
PUBLIC	?AtlWinModuleTerm@ATL@@YGJPAU_ATL_WIN_MODULE70@1@PAUHINSTANCE__@@@Z ; ATL::AtlWinModuleTerm
PUBLIC	?InlineIsEqualUnknown@ATL@@YGHABU_GUID@@@Z	; ATL::InlineIsEqualUnknown
PUBLIC	??0CAtlComModule@ATL@@QAE@XZ			; ATL::CAtlComModule::CAtlComModule
PUBLIC	?Term@CAtlComModule@ATL@@QAEXXZ			; ATL::CAtlComModule::Term
PUBLIC	??0CAtlWinModule@ATL@@QAE@XZ			; ATL::CAtlWinModule::CAtlWinModule
PUBLIC	??1stringdispid@CComTypeInfoHolder@ATL@@QAE@XZ	; ATL::CComTypeInfoHolder::stringdispid::~stringdispid
PUBLIC	??_Estringdispid@CComTypeInfoHolder@ATL@@QAEPAXI@Z ; ATL::CComTypeInfoHolder::stringdispid::`vector deleting destructor'
PUBLIC	?copy@?$_Copy@UtagCONNECTDATA@@@ATL@@SAJPAUtagCONNECTDATA@@PBU3@@Z ; ATL::_Copy<tagCONNECTDATA>::copy
PUBLIC	?Add@CComDynamicUnkArray@ATL@@QAEKPAUIUnknown@@@Z ; ATL::CComDynamicUnkArray::Add
PUBLIC	?Remove@CComDynamicUnkArray@ATL@@QAEHK@Z	; ATL::CComDynamicUnkArray::Remove
PUBLIC	?GetCookie@CComDynamicUnkArray@ATL@@QAGKPAPAUIUnknown@@@Z ; ATL::CComDynamicUnkArray::GetCookie
PUBLIC	?GetUnknown@CComDynamicUnkArray@ATL@@QAGPAUIUnknown@@K@Z ; ATL::CComDynamicUnkArray::GetUnknown
PUBLIC	?GetAt@CComDynamicUnkArray@ATL@@QAEPAUIUnknown@@H@Z ; ATL::CComDynamicUnkArray::GetAt
PUBLIC	??1?$CWindowImplRoot@VCWindow@ATL@@@ATL@@UAE@XZ	; ATL::CWindowImplRoot<ATL::CWindow>::~CWindowImplRoot<ATL::CWindow>
PUBLIC	??0CComControlBase@ATL@@QAE@AAPAUHWND__@@@Z	; ATL::CComControlBase::CComControlBase
PUBLIC	??1CComControlBase@ATL@@UAE@XZ			; ATL::CComControlBase::~CComControlBase
PUBLIC	??0OposVariant@@QAE@XZ				; OposVariant::OposVariant
PUBLIC	??1OposVariant@@QAE@XZ				; OposVariant::~OposVariant
PUBLIC	??0?$CComControl@VCOPOSSoundPlayer@@V?$CWindowImpl@VCOPOSSoundPlayer@@VCWindow@ATL@@V?$CWinTraits@$0FGAAAAAA@$0A@@3@@ATL@@@ATL@@QAE@XZ ; ATL::CComControl<COPOSSoundPlayer,ATL::CWindowImpl<COPOSSoundPlayer,ATL::CWindow,ATL::CWinTraits<1442840576,0> > >::CComControl<COPOSSoundPlayer,ATL::CWindowImpl<COPOSSoundPlayer,ATL::CWindow,ATL::CWinTraits<1442840576,0> > >
PUBLIC	??1?$CComControl@VCOPOSSoundPlayer@@V?$CWindowImpl@VCOPOSSoundPlayer@@VCWindow@ATL@@V?$CWinTraits@$0FGAAAAAA@$0A@@3@@ATL@@@ATL@@UAE@XZ ; ATL::CComControl<COPOSSoundPlayer,ATL::CWindowImpl<COPOSSoundPlayer,ATL::CWindow,ATL::CWinTraits<1442840576,0> > >::~CComControl<COPOSSoundPlayer,ATL::CWindowImpl<COPOSSoundPlayer,ATL::CWindow,ATL::CWinTraits<1442840576,0> > >
PUBLIC	??1?$IConnectionPointImpl@VCOPOSSoundPlayer@@$1?IID_IPropertyNotifySink@@3U_GUID@@BVCComDynamicUnkArray@ATL@@@ATL@@QAE@XZ ; ATL::IConnectionPointImpl<COPOSSoundPlayer,&IID_IPropertyNotifySink,ATL::CComDynamicUnkArray>::~IConnectionPointImpl<COPOSSoundPlayer,&IID_IPropertyNotifySink,ATL::CComDynamicUnkArray>
PUBLIC	??1?$IConnectionPointImpl@VCOPOSSoundPlayer@@$1?DIID__IOPOSSoundPlayerEvents@@3U_GUID@@BVCComDynamicUnkArray@ATL@@@ATL@@QAE@XZ ; ATL::IConnectionPointImpl<COPOSSoundPlayer,&DIID__IOPOSSoundPlayerEvents,ATL::CComDynamicUnkArray>::~IConnectionPointImpl<COPOSSoundPlayer,&DIID__IOPOSSoundPlayerEvents,ATL::CComDynamicUnkArray>
PUBLIC	?_LocCPQueryInterface@?$IConnectionPointImpl@VCOPOSSoundPlayer@@$1?DIID__IOPOSSoundPlayerEvents@@3U_GUID@@BVCComDynamicUnkArray@ATL@@@ATL@@UAGJABU_GUID@@PAPAX@Z ; ATL::IConnectionPointImpl<COPOSSoundPlayer,&DIID__IOPOSSoundPlayerEvents,ATL::CComDynamicUnkArray>::_LocCPQueryInterface
PUBLIC	?GetConnectionInterface@?$IConnectionPointImpl@VCOPOSSoundPlayer@@$1?DIID__IOPOSSoundPlayerEvents@@3U_GUID@@BVCComDynamicUnkArray@ATL@@@ATL@@UAGJPAU_GUID@@@Z ; ATL::IConnectionPointImpl<COPOSSoundPlayer,&DIID__IOPOSSoundPlayerEvents,ATL::CComDynamicUnkArray>::GetConnectionInterface
PUBLIC	?GetConnectionPointContainer@?$IConnectionPointImpl@VCOPOSSoundPlayer@@$1?DIID__IOPOSSoundPlayerEvents@@3U_GUID@@BVCComDynamicUnkArray@ATL@@@ATL@@UAGJPAPAUIConnectionPointContainer@@@Z ; ATL::IConnectionPointImpl<COPOSSoundPlayer,&DIID__IOPOSSoundPlayerEvents,ATL::CComDynamicUnkArray>::GetConnectionPointContainer
PUBLIC	?Advise@?$IConnectionPointImpl@VCOPOSSoundPlayer@@$1?DIID__IOPOSSoundPlayerEvents@@3U_GUID@@BVCComDynamicUnkArray@ATL@@@ATL@@UAGJPAUIUnknown@@PAK@Z ; ATL::IConnectionPointImpl<COPOSSoundPlayer,&DIID__IOPOSSoundPlayerEvents,ATL::CComDynamicUnkArray>::Advise
PUBLIC	?Unadvise@?$IConnectionPointImpl@VCOPOSSoundPlayer@@$1?DIID__IOPOSSoundPlayerEvents@@3U_GUID@@BVCComDynamicUnkArray@ATL@@@ATL@@UAGJK@Z ; ATL::IConnectionPointImpl<COPOSSoundPlayer,&DIID__IOPOSSoundPlayerEvents,ATL::CComDynamicUnkArray>::Unadvise
PUBLIC	?EnumConnections@?$IConnectionPointImpl@VCOPOSSoundPlayer@@$1?DIID__IOPOSSoundPlayerEvents@@3U_GUID@@BVCComDynamicUnkArray@ATL@@@ATL@@UAGJPAPAUIEnumConnections@@@Z ; ATL::IConnectionPointImpl<COPOSSoundPlayer,&DIID__IOPOSSoundPlayerEvents,ATL::CComDynamicUnkArray>::EnumConnections
PUBLIC	?Fire_DirectIOEvent@?$CProxy_IOPOSEvents@VCOPOSSoundPlayer@@@@QAEXJPAJPAPA_W@Z ; CProxy_IOPOSEvents<COPOSSoundPlayer>::Fire_DirectIOEvent
PUBLIC	?Fire_ErrorEvent@?$CProxy_IOPOSEvents@VCOPOSSoundPlayer@@@@QAEXJJJPAJ@Z ; CProxy_IOPOSEvents<COPOSSoundPlayer>::Fire_ErrorEvent
PUBLIC	?Fire_OutputCompleteEvent@?$CProxy_IOPOSEvents@VCOPOSSoundPlayer@@@@QAEXJ@Z ; CProxy_IOPOSEvents<COPOSSoundPlayer>::Fire_OutputCompleteEvent
PUBLIC	?Fire_StatusUpdateEvent@?$CProxy_IOPOSEvents@VCOPOSSoundPlayer@@@@QAEXJ@Z ; CProxy_IOPOSEvents<COPOSSoundPlayer>::Fire_StatusUpdateEvent
PUBLIC	??0?$CProxy_IOPOSEvents@VCOPOSSoundPlayer@@@@QAE@XZ ; CProxy_IOPOSEvents<COPOSSoundPlayer>::CProxy_IOPOSEvents<COPOSSoundPlayer>
PUBLIC	?FireTheEvent@?$CProxy_IOPOSEvents@VCOPOSSoundPlayer@@@@IAEXPAVOposVariant@@IAAJPB_WJ@Z ; CProxy_IOPOSEvents<COPOSSoundPlayer>::FireTheEvent
PUBLIC	??0COPOSSoundPlayer@@QAE@XZ			; COPOSSoundPlayer::COPOSSoundPlayer
PUBLIC	?FinalConstruct@COPOSSoundPlayer@@QAEJXZ	; COPOSSoundPlayer::FinalConstruct
PUBLIC	??1COPOSSoundPlayer@@UAE@XZ			; COPOSSoundPlayer::~COPOSSoundPlayer
PUBLIC	?GetOposProp@COPOSSoundPlayer@@IAEJJPAJJ@Z	; COPOSSoundPlayer::GetOposProp
PUBLIC	?SetOposProp@COPOSSoundPlayer@@IAEJJJJ@Z	; COPOSSoundPlayer::SetOposProp
PUBLIC	?GetOposProp@COPOSSoundPlayer@@IAEJJPAFJ@Z	; COPOSSoundPlayer::GetOposProp
PUBLIC	?SetOposProp@COPOSSoundPlayer@@IAEJJFJ@Z	; COPOSSoundPlayer::SetOposProp
PUBLIC	?GetOposProp@COPOSSoundPlayer@@IAEJJPAPA_WJ@Z	; COPOSSoundPlayer::GetOposProp
PUBLIC	?SetOposProp@COPOSSoundPlayer@@IAEJJPA_WJ@Z	; COPOSSoundPlayer::SetOposProp
PUBLIC	?DoInvoke@COPOSSoundPlayer@@IAEJJPAVOposVariant@@IHPAJ_N@Z ; COPOSSoundPlayer::DoInvoke
PUBLIC	?SetCOFreezeEvents@COPOSSoundPlayer@@IAEXF@Z	; COPOSSoundPlayer::SetCOFreezeEvents
PUBLIC	?FreezeEvents@COPOSSoundPlayer@@MAGJH@Z		; COPOSSoundPlayer::FreezeEvents
PUBLIC	?OnDraw@COPOSSoundPlayer@@MAEJAAUATL_DRAWINFO@@@Z ; COPOSSoundPlayer::OnDraw
PUBLIC	?GetConnMap@COPOSSoundPlayer@@SAPBU_ATL_CONNMAP_ENTRY@ATL@@PAH@Z ; COPOSSoundPlayer::GetConnMap
PUBLIC	?EventInit@COPOSSoundPlayer@@IAEJXZ		; COPOSSoundPlayer::EventInit
PUBLIC	?EventClose@COPOSSoundPlayer@@IAEXXZ		; COPOSSoundPlayer::EventClose
PUBLIC	?EventUninit@COPOSSoundPlayer@@IAEXXZ		; COPOSSoundPlayer::EventUninit
PUBLIC	?s_EventWindowProc@COPOSSoundPlayer@@KGJPAUHWND__@@IIJ@Z ; COPOSSoundPlayer::s_EventWindowProc
PUBLIC	?EventWindowProc@COPOSSoundPlayer@@IAGJIIJ@Z	; COPOSSoundPlayer::EventWindowProc
PUBLIC	?FireEventSetup@COPOSSoundPlayer@@IAE_NXZ	; COPOSSoundPlayer::FireEventSetup
PUBLIC	?FireEventCleanup@COPOSSoundPlayer@@IAEXXZ	; COPOSSoundPlayer::FireEventCleanup
PUBLIC	?SOProcessID@COPOSSoundPlayer@@UAGJPAJ@Z	; COPOSSoundPlayer::SOProcessID
PUBLIC	?get_OpenResult@COPOSSoundPlayer@@UAGJPAJ@Z	; COPOSSoundPlayer::get_OpenResult
PUBLIC	?get_BinaryConversion@COPOSSoundPlayer@@UAGJPAJ@Z ; COPOSSoundPlayer::get_BinaryConversion
PUBLIC	?put_BinaryConversion@COPOSSoundPlayer@@UAGJJ@Z	; COPOSSoundPlayer::put_BinaryConversion
PUBLIC	?get_CapPowerReporting@COPOSSoundPlayer@@UAGJPAJ@Z ; COPOSSoundPlayer::get_CapPowerReporting
PUBLIC	?get_CheckHealthText@COPOSSoundPlayer@@UAGJPAPA_W@Z ; COPOSSoundPlayer::get_CheckHealthText
PUBLIC	?get_Claimed@COPOSSoundPlayer@@UAGJPAF@Z	; COPOSSoundPlayer::get_Claimed
PUBLIC	?get_DeviceEnabled@COPOSSoundPlayer@@UAGJPAF@Z	; COPOSSoundPlayer::get_DeviceEnabled
PUBLIC	?put_DeviceEnabled@COPOSSoundPlayer@@UAGJF@Z	; COPOSSoundPlayer::put_DeviceEnabled
PUBLIC	?get_FreezeEvents@COPOSSoundPlayer@@UAGJPAF@Z	; COPOSSoundPlayer::get_FreezeEvents
PUBLIC	?put_FreezeEvents@COPOSSoundPlayer@@UAGJF@Z	; COPOSSoundPlayer::put_FreezeEvents
PUBLIC	?get_OutputID@COPOSSoundPlayer@@UAGJPAJ@Z	; COPOSSoundPlayer::get_OutputID
PUBLIC	?get_PowerNotify@COPOSSoundPlayer@@UAGJPAJ@Z	; COPOSSoundPlayer::get_PowerNotify
PUBLIC	?put_PowerNotify@COPOSSoundPlayer@@UAGJJ@Z	; COPOSSoundPlayer::put_PowerNotify
PUBLIC	?get_PowerState@COPOSSoundPlayer@@UAGJPAJ@Z	; COPOSSoundPlayer::get_PowerState
PUBLIC	?get_ResultCode@COPOSSoundPlayer@@UAGJPAJ@Z	; COPOSSoundPlayer::get_ResultCode
PUBLIC	?get_ResultCodeExtended@COPOSSoundPlayer@@UAGJPAJ@Z ; COPOSSoundPlayer::get_ResultCodeExtended
PUBLIC	?get_State@COPOSSoundPlayer@@UAGJPAJ@Z		; COPOSSoundPlayer::get_State
PUBLIC	?get_ControlObjectDescription@COPOSSoundPlayer@@UAGJPAPA_W@Z ; COPOSSoundPlayer::get_ControlObjectDescription
PUBLIC	?get_ControlObjectVersion@COPOSSoundPlayer@@UAGJPAJ@Z ; COPOSSoundPlayer::get_ControlObjectVersion
PUBLIC	?get_ServiceObjectDescription@COPOSSoundPlayer@@UAGJPAPA_W@Z ; COPOSSoundPlayer::get_ServiceObjectDescription
PUBLIC	?get_ServiceObjectVersion@COPOSSoundPlayer@@UAGJPAJ@Z ; COPOSSoundPlayer::get_ServiceObjectVersion
PUBLIC	?get_DeviceDescription@COPOSSoundPlayer@@UAGJPAPA_W@Z ; COPOSSoundPlayer::get_DeviceDescription
PUBLIC	?get_DeviceName@COPOSSoundPlayer@@UAGJPAPA_W@Z	; COPOSSoundPlayer::get_DeviceName
PUBLIC	?get_CapStatisticsReporting@COPOSSoundPlayer@@UAGJPAF@Z ; COPOSSoundPlayer::get_CapStatisticsReporting
PUBLIC	?get_CapUpdateStatistics@COPOSSoundPlayer@@UAGJPAF@Z ; COPOSSoundPlayer::get_CapUpdateStatistics
PUBLIC	?get_CapCompareFirmwareVersion@COPOSSoundPlayer@@UAGJPAF@Z ; COPOSSoundPlayer::get_CapCompareFirmwareVersion
PUBLIC	?get_CapUpdateFirmware@COPOSSoundPlayer@@UAGJPAF@Z ; COPOSSoundPlayer::get_CapUpdateFirmware
PUBLIC	?CheckHealth@COPOSSoundPlayer@@UAGJJPAJ@Z	; COPOSSoundPlayer::CheckHealth
PUBLIC	?ClaimDevice@COPOSSoundPlayer@@UAGJJPAJ@Z	; COPOSSoundPlayer::ClaimDevice
PUBLIC	?ClearOutput@COPOSSoundPlayer@@UAGJPAJ@Z	; COPOSSoundPlayer::ClearOutput
PUBLIC	?Close@COPOSSoundPlayer@@UAGJPAJ@Z		; COPOSSoundPlayer::Close
PUBLIC	?DirectIO@COPOSSoundPlayer@@UAGJJPAJPAPA_W0@Z	; COPOSSoundPlayer::DirectIO
PUBLIC	?Open@COPOSSoundPlayer@@UAGJPA_WPAJ@Z		; COPOSSoundPlayer::Open
PUBLIC	?ReleaseDevice@COPOSSoundPlayer@@UAGJPAJ@Z	; COPOSSoundPlayer::ReleaseDevice
PUBLIC	?ResetStatistics@COPOSSoundPlayer@@UAGJPA_WPAJ@Z ; COPOSSoundPlayer::ResetStatistics
PUBLIC	?RetrieveStatistics@COPOSSoundPlayer@@UAGJPAPA_WPAJ@Z ; COPOSSoundPlayer::RetrieveStatistics
PUBLIC	?UpdateStatistics@COPOSSoundPlayer@@UAGJPA_WPAJ@Z ; COPOSSoundPlayer::UpdateStatistics
PUBLIC	?CompareFirmwareVersion@COPOSSoundPlayer@@UAGJPA_WPAJ1@Z ; COPOSSoundPlayer::CompareFirmwareVersion
PUBLIC	?UpdateFirmware@COPOSSoundPlayer@@UAGJPA_WPAJ@Z	; COPOSSoundPlayer::UpdateFirmware
PUBLIC	?get_CapAssociatedHardTotalsDevice@COPOSSoundPlayer@@UAGJPAPA_W@Z ; COPOSSoundPlayer::get_CapAssociatedHardTotalsDevice
PUBLIC	?get_CapMultiPlay@COPOSSoundPlayer@@UAGJPAF@Z	; COPOSSoundPlayer::get_CapMultiPlay
PUBLIC	?get_CapSoundTypeList@COPOSSoundPlayer@@UAGJPAPA_W@Z ; COPOSSoundPlayer::get_CapSoundTypeList
PUBLIC	?get_CapStorage@COPOSSoundPlayer@@UAGJPAJ@Z	; COPOSSoundPlayer::get_CapStorage
PUBLIC	?get_CapVolume@COPOSSoundPlayer@@UAGJPAF@Z	; COPOSSoundPlayer::get_CapVolume
PUBLIC	?get_DeviceSoundList@COPOSSoundPlayer@@UAGJPAPA_W@Z ; COPOSSoundPlayer::get_DeviceSoundList
PUBLIC	?get_OutputIDList@COPOSSoundPlayer@@UAGJPAPA_W@Z ; COPOSSoundPlayer::get_OutputIDList
PUBLIC	?get_Storage@COPOSSoundPlayer@@UAGJPAJ@Z	; COPOSSoundPlayer::get_Storage
PUBLIC	?put_Storage@COPOSSoundPlayer@@UAGJJ@Z		; COPOSSoundPlayer::put_Storage
PUBLIC	?get_Volume@COPOSSoundPlayer@@UAGJPAJ@Z		; COPOSSoundPlayer::get_Volume
PUBLIC	?put_Volume@COPOSSoundPlayer@@UAGJJ@Z		; COPOSSoundPlayer::put_Volume
PUBLIC	?PlaySoundW@COPOSSoundPlayer@@UAGJPA_WFPAJ@Z	; COPOSSoundPlayer::PlaySoundW
PUBLIC	?StopSound@COPOSSoundPlayer@@UAGJJPAJ@Z		; COPOSSoundPlayer::StopSound
PUBLIC	??1?$CComEnumImpl@UIEnumConnections@@$1?_GUID_b196b287_bab4_101a_b69c_00aa00341d07@@3U__s_GUID@@BUtagCONNECTDATA@@V?$_Copy@UtagCONNECTDATA@@@ATL@@@ATL@@UAE@XZ ; ATL::CComEnumImpl<IEnumConnections,&_GUID_b196b287_bab4_101a_b69c_00aa00341d07,tagCONNECTDATA,ATL::_Copy<tagCONNECTDATA> >::~CComEnumImpl<IEnumConnections,&_GUID_b196b287_bab4_101a_b69c_00aa00341d07,tagCONNECTDATA,ATL::_Copy<tagCONNECTDATA> >
PUBLIC	?Next@?$CComEnumImpl@UIEnumConnections@@$1?_GUID_b196b287_bab4_101a_b69c_00aa00341d07@@3U__s_GUID@@BUtagCONNECTDATA@@V?$_Copy@UtagCONNECTDATA@@@ATL@@@ATL@@UAGJKPAUtagCONNECTDATA@@PAK@Z ; ATL::CComEnumImpl<IEnumConnections,&_GUID_b196b287_bab4_101a_b69c_00aa00341d07,tagCONNECTDATA,ATL::_Copy<tagCONNECTDATA> >::Next
PUBLIC	?Skip@?$CComEnumImpl@UIEnumConnections@@$1?_GUID_b196b287_bab4_101a_b69c_00aa00341d07@@3U__s_GUID@@BUtagCONNECTDATA@@V?$_Copy@UtagCONNECTDATA@@@ATL@@@ATL@@UAGJK@Z ; ATL::CComEnumImpl<IEnumConnections,&_GUID_b196b287_bab4_101a_b69c_00aa00341d07,tagCONNECTDATA,ATL::_Copy<tagCONNECTDATA> >::Skip
PUBLIC	?Reset@?$CComEnumImpl@UIEnumConnections@@$1?_GUID_b196b287_bab4_101a_b69c_00aa00341d07@@3U__s_GUID@@BUtagCONNECTDATA@@V?$_Copy@UtagCONNECTDATA@@@ATL@@@ATL@@UAGJXZ ; ATL::CComEnumImpl<IEnumConnections,&_GUID_b196b287_bab4_101a_b69c_00aa00341d07,tagCONNECTDATA,ATL::_Copy<tagCONNECTDATA> >::Reset
PUBLIC	?Clone@?$CComEnumImpl@UIEnumConnections@@$1?_GUID_b196b287_bab4_101a_b69c_00aa00341d07@@3U__s_GUID@@BUtagCONNECTDATA@@V?$_Copy@UtagCONNECTDATA@@@ATL@@@ATL@@UAGJPAPAUIEnumConnections@@@Z ; ATL::CComEnumImpl<IEnumConnections,&_GUID_b196b287_bab4_101a_b69c_00aa00341d07,tagCONNECTDATA,ATL::_Copy<tagCONNECTDATA> >::Clone
PUBLIC	?Init@?$CComEnumImpl@UIEnumConnections@@$1?_GUID_b196b287_bab4_101a_b69c_00aa00341d07@@3U__s_GUID@@BUtagCONNECTDATA@@V?$_Copy@UtagCONNECTDATA@@@ATL@@@ATL@@QAEJPAUtagCONNECTDATA@@0PAUIUnknown@@W4CComEnumFlags@2@@Z ; ATL::CComEnumImpl<IEnumConnections,&_GUID_b196b287_bab4_101a_b69c_00aa00341d07,tagCONNECTDATA,ATL::_Copy<tagCONNECTDATA> >::Init
PUBLIC	??0?$CComObject@V?$CComEnum@UIEnumConnections@@$1?_GUID_b196b287_bab4_101a_b69c_00aa00341d07@@3U__s_GUID@@BUtagCONNECTDATA@@V?$_Copy@UtagCONNECTDATA@@@ATL@@VCComSingleThreadModel@6@@ATL@@@ATL@@QAE@PAX@Z ; ATL::CComObject<ATL::CComEnum<IEnumConnections,&_GUID_b196b287_bab4_101a_b69c_00aa00341d07,tagCONNECTDATA,ATL::_Copy<tagCONNECTDATA>,ATL::CComSingleThreadModel> >::CComObject<ATL::CComEnum<IEnumConnections,&_GUID_b196b287_bab4_101a_b69c_00aa00341d07,tagCONNECTDATA,ATL::_Copy<tagCONNECTDATA>,ATL::CComSingleThreadModel> >
PUBLIC	??1?$CComObject@V?$CComEnum@UIEnumConnections@@$1?_GUID_b196b287_bab4_101a_b69c_00aa00341d07@@3U__s_GUID@@BUtagCONNECTDATA@@V?$_Copy@UtagCONNECTDATA@@@ATL@@VCComSingleThreadModel@6@@ATL@@@ATL@@UAE@XZ ; ATL::CComObject<ATL::CComEnum<IEnumConnections,&_GUID_b196b287_bab4_101a_b69c_00aa00341d07,tagCONNECTDATA,ATL::_Copy<tagCONNECTDATA>,ATL::CComSingleThreadModel> >::~CComObject<ATL::CComEnum<IEnumConnections,&_GUID_b196b287_bab4_101a_b69c_00aa00341d07,tagCONNECTDATA,ATL::_Copy<tagCONNECTDATA>,ATL::CComSingleThreadModel> >
PUBLIC	?AddRef@?$CComObject@V?$CComEnum@UIEnumConnections@@$1?_GUID_b196b287_bab4_101a_b69c_00aa00341d07@@3U__s_GUID@@BUtagCONNECTDATA@@V?$_Copy@UtagCONNECTDATA@@@ATL@@VCComSingleThreadModel@6@@ATL@@@ATL@@UAGKXZ ; ATL::CComObject<ATL::CComEnum<IEnumConnections,&_GUID_b196b287_bab4_101a_b69c_00aa00341d07,tagCONNECTDATA,ATL::_Copy<tagCONNECTDATA>,ATL::CComSingleThreadModel> >::AddRef
PUBLIC	?Release@?$CComObject@V?$CComEnum@UIEnumConnections@@$1?_GUID_b196b287_bab4_101a_b69c_00aa00341d07@@3U__s_GUID@@BUtagCONNECTDATA@@V?$_Copy@UtagCONNECTDATA@@@ATL@@VCComSingleThreadModel@6@@ATL@@@ATL@@UAGKXZ ; ATL::CComObject<ATL::CComEnum<IEnumConnections,&_GUID_b196b287_bab4_101a_b69c_00aa00341d07,tagCONNECTDATA,ATL::_Copy<tagCONNECTDATA>,ATL::CComSingleThreadModel> >::Release
PUBLIC	?QueryInterface@?$CComObject@V?$CComEnum@UIEnumConnections@@$1?_GUID_b196b287_bab4_101a_b69c_00aa00341d07@@3U__s_GUID@@BUtagCONNECTDATA@@V?$_Copy@UtagCONNECTDATA@@@ATL@@VCComSingleThreadModel@6@@ATL@@@ATL@@UAGJABU_GUID@@PAPAX@Z ; ATL::CComObject<ATL::CComEnum<IEnumConnections,&_GUID_b196b287_bab4_101a_b69c_00aa00341d07,tagCONNECTDATA,ATL::_Copy<tagCONNECTDATA>,ATL::CComSingleThreadModel> >::QueryInterface
PUBLIC	?CreateInstance@?$CComObject@V?$CComEnum@UIEnumConnections@@$1?_GUID_b196b287_bab4_101a_b69c_00aa00341d07@@3U__s_GUID@@BUtagCONNECTDATA@@V?$_Copy@UtagCONNECTDATA@@@ATL@@VCComSingleThreadModel@6@@ATL@@@ATL@@SGJPAPAV12@@Z ; ATL::CComObject<ATL::CComEnum<IEnumConnections,&_GUID_b196b287_bab4_101a_b69c_00aa00341d07,tagCONNECTDATA,ATL::_Copy<tagCONNECTDATA>,ATL::CComSingleThreadModel> >::CreateInstance
PUBLIC	??_G?$CComObject@V?$CComEnum@UIEnumConnections@@$1?_GUID_b196b287_bab4_101a_b69c_00aa00341d07@@3U__s_GUID@@BUtagCONNECTDATA@@V?$_Copy@UtagCONNECTDATA@@@ATL@@VCComSingleThreadModel@6@@ATL@@@ATL@@UAEPAXI@Z ; ATL::CComObject<ATL::CComEnum<IEnumConnections,&_GUID_b196b287_bab4_101a_b69c_00aa00341d07,tagCONNECTDATA,ATL::_Copy<tagCONNECTDATA>,ATL::CComSingleThreadModel> >::`scalar deleting destructor'
PUBLIC	?atlTraceGeneral@ATL@@3V?$CTraceCategoryEx@$00$0A@@1@A ; ATL::atlTraceGeneral
PUBLIC	?atlTraceCOM@ATL@@3V?$CTraceCategoryEx@$01$0A@@1@A ; ATL::atlTraceCOM
PUBLIC	?atlTraceQI@ATL@@3V?$CTraceCategoryEx@$03$0A@@1@A ; ATL::atlTraceQI
PUBLIC	?atlTraceRegistrar@ATL@@3V?$CTraceCategoryEx@$07$0A@@1@A ; ATL::atlTraceRegistrar
PUBLIC	?atlTraceRefcount@ATL@@3V?$CTraceCategoryEx@$0BA@$0A@@1@A ; ATL::atlTraceRefcount
PUBLIC	?atlTraceWindowing@ATL@@3V?$CTraceCategoryEx@$0CA@$0A@@1@A ; ATL::atlTraceWindowing
PUBLIC	?atlTraceControls@ATL@@3V?$CTraceCategoryEx@$0EA@$0A@@1@A ; ATL::atlTraceControls
PUBLIC	?atlTraceHosting@ATL@@3V?$CTraceCategoryEx@$0IA@$0A@@1@A ; ATL::atlTraceHosting
PUBLIC	?atlTraceDBClient@ATL@@3V?$CTraceCategoryEx@$0BAA@$0A@@1@A ; ATL::atlTraceDBClient
PUBLIC	?atlTraceDBProvider@ATL@@3V?$CTraceCategoryEx@$0CAA@$0A@@1@A ; ATL::atlTraceDBProvider
PUBLIC	?atlTraceSnapin@ATL@@3V?$CTraceCategoryEx@$0EAA@$0A@@1@A ; ATL::atlTraceSnapin
PUBLIC	?atlTraceNotImpl@ATL@@3V?$CTraceCategoryEx@$0IAA@$0A@@1@A ; ATL::atlTraceNotImpl
PUBLIC	?atlTraceAllocation@ATL@@3V?$CTraceCategoryEx@$0BAAA@$0A@@1@A ; ATL::atlTraceAllocation
PUBLIC	?atlTraceException@ATL@@3V?$CTraceCategoryEx@$0CAAA@$0A@@1@A ; ATL::atlTraceException
PUBLIC	?atlTraceTime@ATL@@3V?$CTraceCategoryEx@$0EAAA@$0A@@1@A ; ATL::atlTraceTime
PUBLIC	?atlTraceCache@ATL@@3V?$CTraceCategoryEx@$0IAAA@$0A@@1@A ; ATL::atlTraceCache
PUBLIC	?atlTraceStencil@ATL@@3V?$CTraceCategoryEx@$0BAAAA@$0A@@1@A ; ATL::atlTraceStencil
PUBLIC	?atlTraceString@ATL@@3V?$CTraceCategoryEx@$0CAAAA@$0A@@1@A ; ATL::atlTraceString
PUBLIC	?atlTraceMap@ATL@@3V?$CTraceCategoryEx@$0EAAAA@$0A@@1@A ; ATL::atlTraceMap
PUBLIC	?atlTraceUtil@ATL@@3V?$CTraceCategoryEx@$0IAAAA@$0A@@1@A ; ATL::atlTraceUtil
PUBLIC	?atlTraceSecurity@ATL@@3V?$CTraceCategoryEx@$0BAAAAA@$0A@@1@A ; ATL::atlTraceSecurity
PUBLIC	?atlTraceSync@ATL@@3V?$CTraceCategoryEx@$0CAAAAA@$0A@@1@A ; ATL::atlTraceSync
PUBLIC	?atlTraceISAPI@ATL@@3V?$CTraceCategoryEx@$0EAAAAA@$0A@@1@A ; ATL::atlTraceISAPI
PUBLIC	?_AtlComModule@ATL@@3VCAtlComModule@1@A		; ATL::_AtlComModule
PUBLIC	?_AtlWinModule@ATL@@3VCAtlWinModule@1@A		; ATL::_AtlWinModule
PUBLIC	__GUID_b196b284_bab4_101a_b69c_00aa00341d07
PUBLIC	__GUID_b196b287_bab4_101a_b69c_00aa00341d07
PUBLIC	?pConnMap@?$IConnectionPointContainerImpl@VCOPOSSoundPlayer@@@ATL@@0PBU_ATL_CONNMAP_ENTRY@2@B ; ATL::IConnectionPointContainerImpl<COPOSSoundPlayer>::pConnMap
PUBLIC	??_7?$CProxy_IOPOSEvents@VCOPOSSoundPlayer@@@@6B@ ; CProxy_IOPOSEvents<COPOSSoundPlayer>::`vftable'
PUBLIC	??_C@_1BA@IFHENID@?$AA?$FL?$AAE?$AAr?$AAr?$AAo?$AAr?$AA?$FN@ ; `string'
PUBLIC	??_C@_0CO@MENBAAH@SOFTWARE?2OLEforRetail?2ServiceOP@ ; `string'
PUBLIC	??_C@_1M@IAIJHCCH@?$AAC?$AAl?$AAo?$AAs?$AAe@	; `string'
PUBLIC	??_C@_1M@PCPKGJAH@?$AAC?$AAl?$AAa?$AAi?$AAm@	; `string'
PUBLIC	??_C@_1BA@NDFKIOCP@?$AAR?$AAe?$AAl?$AAe?$AAa?$AAs?$AAe@ ; `string'
PUBLIC	??_C@_0M@GBBAOMPL@SoundPlayer@			; `string'
PUBLIC	??_C@_1BM@IJMNMBPK@?$AAG?$AAe?$AAt?$AAO?$AAp?$AAe?$AAn?$AAR?$AAe?$AAs?$AAu?$AAl?$AAt@ ; `string'
PUBLIC	??_C@_1CE@PGFMOFKI@?$AAS?$AAt?$AAa?$AAt?$AAu?$AAs?$AAU?$AAp?$AAd?$AAa?$AAt?$AAe?$AAE?$AAv?$AAe@ ; `string'
PUBLIC	??_C@_1CI@HLBJDONE@?$AAO?$AAu?$AAt?$AAp?$AAu?$AAt?$AAC?$AAo?$AAm?$AAp?$AAl?$AAe?$AAt?$AAe?$AAE@ ; `string'
PUBLIC	??_C@_1BG@LODEBHDD@?$AAE?$AAr?$AAr?$AAo?$AAr?$AAE?$AAv?$AAe?$AAn?$AAt@ ; `string'
PUBLIC	??_C@_1BM@CBGEBBBJ@?$AAD?$AAi?$AAr?$AAe?$AAc?$AAt?$AAI?$AAO?$AAE?$AAv?$AAe?$AAn?$AAt@ ; `string'
PUBLIC	__GUID_b196b286_bab4_101a_b69c_00aa00341d07
PUBLIC	??_7?$CComObject@V?$CComEnum@UIEnumConnections@@$1?_GUID_b196b287_bab4_101a_b69c_00aa00341d07@@3U__s_GUID@@BUtagCONNECTDATA@@V?$_Copy@UtagCONNECTDATA@@@ATL@@VCComSingleThreadModel@6@@ATL@@@ATL@@6B@ ; ATL::CComObject<ATL::CComEnum<IEnumConnections,&_GUID_b196b287_bab4_101a_b69c_00aa00341d07,tagCONNECTDATA,ATL::_Copy<tagCONNECTDATA>,ATL::CComSingleThreadModel> >::`vftable'
PUBLIC	?_entries@?1??_GetEntries@?$CComEnum@UIEnumConnections@@$1?_GUID_b196b287_bab4_101a_b69c_00aa00341d07@@3U__s_GUID@@BUtagCONNECTDATA@@V?$_Copy@UtagCONNECTDATA@@@ATL@@VCComSingleThreadModel@6@@ATL@@SGPBU_ATL_INTMAP_ENTRY@3@XZ@4QBU43@B ; `ATL::CComEnum<IEnumConnections,&_GUID_b196b287_bab4_101a_b69c_00aa00341d07,tagCONNECTDATA,ATL::_Copy<tagCONNECTDATA>,ATL::CComSingleThreadModel>::_GetEntries'::`2'::_entries
EXTRN	__purecall:PROC
EXTRN	??3@YAXPAXI@Z:PROC				; operator delete
EXTRN	??_V@YAXPAX@Z:PROC				; operator delete[]
EXTRN	??_V@YAXPAXI@Z:PROC				; operator delete[]
EXTRN	_atexit:PROC
EXTRN	__Init_thread_header:PROC
EXTRN	__Init_thread_footer:PROC
EXTRN	_calloc:PROC
EXTRN	_free:PROC
EXTRN	__recalloc:PROC
EXTRN	??2@YAPAXIABUnothrow_t@std@@@Z:PROC		; operator new
EXTRN	??_U@YAPAXIABUnothrow_t@std@@@Z:PROC		; operator new[]
EXTRN	__imp__DecodePointer@4:PROC
EXTRN	__imp__CloseHandle@4:PROC
EXTRN	__imp__RaiseException@16:PROC
EXTRN	__imp__GetLastError@0:PROC
EXTRN	__imp__InitializeCriticalSectionEx@12:PROC
EXTRN	__imp__DeleteCriticalSection@4:PROC
EXTRN	__imp__SetEvent@4:PROC
EXTRN	__imp__CreateMutexW@12:PROC
EXTRN	__imp__CreateEventW@16:PROC
EXTRN	__imp__GetCurrentProcessId@0:PROC
EXTRN	__imp__GetCurrentThreadId@0:PROC
EXTRN	__imp__BitBlt@36:PROC
EXTRN	__imp__CreateCompatibleDC@4:PROC
EXTRN	__imp__DeleteObject@4:PROC
EXTRN	__imp__SelectObject@8:PROC
EXTRN	__imp__GetObjectW@12:PROC
EXTRN	__imp__PeekMessageW@20:PROC
EXTRN	__imp__DefWindowProcW@16:PROC
EXTRN	__imp__RegisterClassW@4:PROC
EXTRN	__imp__UnregisterClassW@8:PROC
EXTRN	__imp__CreateWindowExW@48:PROC
EXTRN	__imp__DestroyWindow@4:PROC
EXTRN	__imp__GetWindowLongW@8:PROC
EXTRN	__imp__SetWindowLongW@12:PROC
EXTRN	__imp__LoadBitmapW@8:PROC
EXTRN	__imp__RegCloseKey@4:PROC
EXTRN	__imp__RegOpenKeyExW@20:PROC
EXTRN	__imp__RegQueryValueExW@24:PROC
EXTRN	__imp__CoCreateInstance@20:PROC
EXTRN	__imp__CLSIDFromProgID@8:PROC
EXTRN	__imp__SysAllocString@4:PROC
EXTRN	__imp__SysFreeString@4:PROC
EXTRN	__imp__SysStringLen@4:PROC
EXTRN	__imp__VariantClear@4:PROC
EXTRN	_AtlThunk_FreeData@4:PROC
EXTRN	?SetVARIANT_BOOL@OposVariant@@QAEXF@Z:PROC	; OposVariant::SetVARIANT_BOOL
EXTRN	?GetLONG@OposVariant@@QAEJXZ:PROC		; OposVariant::GetLONG
EXTRN	?ChangeLONG@OposVariant@@QAEXPAJAAJ@Z:PROC	; OposVariant::ChangeLONG
EXTRN	?SetLONG@OposVariant@@QAEXJ@Z:PROC		; OposVariant::SetLONG
EXTRN	?SetLONG_Ptr@OposVariant@@QAEXPAJAAJ@Z:PROC	; OposVariant::SetLONG_Ptr
EXTRN	?ChangeBSTR@OposVariant@@QAEXPAPA_WAAJ@Z:PROC	; OposVariant::ChangeBSTR
EXTRN	?SetBSTR@OposVariant@@QAEXPA_WAAJ@Z:PROC	; OposVariant::SetBSTR
EXTRN	?SetBSTR_InOutPtr@OposVariant@@QAE_NPAPA_WAAJ@Z:PROC ; OposVariant::SetBSTR_InOutPtr
EXTRN	?SetString@OposVariant@@QAEXPB_WAAJ@Z:PROC	; OposVariant::SetString
EXTRN	?SetDispatch_Ptr@OposVariant@@QAEXPAUIDispatch@@AAJ@Z:PROC ; OposVariant::SetDispatch_Ptr
EXTRN	??0OposDispParms@@QAE@PAVOposVariant@@H@Z:PROC	; OposDispParms::OposDispParms
EXTRN	??1OposDispParms@@QAE@XZ:PROC			; OposDispParms::~OposDispParms
EXTRN	?cw_strcpy@@YAHPA_WPBD@Z:PROC			; cw_strcpy
EXTRN	?DupWide@_CW@@AAEXXZ:PROC			; _CW::DupWide
EXTRN	??_E?$CComObject@V?$CComEnum@UIEnumConnections@@$1?_GUID_b196b287_bab4_101a_b69c_00aa00341d07@@3U__s_GUID@@BUtagCONNECTDATA@@V?$_Copy@UtagCONNECTDATA@@@ATL@@VCComSingleThreadModel@6@@ATL@@@ATL@@UAEPAXI@Z:PROC ; ATL::CComObject<ATL::CComEnum<IEnumConnections,&_GUID_b196b287_bab4_101a_b69c_00aa00341d07,tagCONNECTDATA,ATL::_Copy<tagCONNECTDATA>,ATL::CComSingleThreadModel> >::`vector deleting destructor'
EXTRN	@__security_check_cookie@4:PROC
EXTRN	_memset:PROC
EXTRN	?nothrow@std@@3Unothrow_t@1@B:BYTE		; std::nothrow
EXTRN	_IID_IUnknown:BYTE
EXTRN	_GUID_NULL:BYTE
EXTRN	_IID_IDispatch:BYTE
EXTRN	_DIID__IOPOSSoundPlayerEvents:BYTE
EXTRN	___security_cookie:DWORD
EXTRN	__tls_array:DWORD
EXTRN	__tls_index:DWORD
;	COMDAT ?atlTraceGeneral@ATL@@3V?$CTraceCategoryEx@$00$0A@@1@A
_BSS	SEGMENT
?atlTraceGeneral@ATL@@3V?$CTraceCategoryEx@$00$0A@@1@A DD 01H DUP (?) ; ATL::atlTraceGeneral
_BSS	ENDS
;	COMDAT ?atlTraceCOM@ATL@@3V?$CTraceCategoryEx@$01$0A@@1@A
_BSS	SEGMENT
?atlTraceCOM@ATL@@3V?$CTraceCategoryEx@$01$0A@@1@A DD 01H DUP (?) ; ATL::atlTraceCOM
_BSS	ENDS
;	COMDAT ?atlTraceQI@ATL@@3V?$CTraceCategoryEx@$03$0A@@1@A
_BSS	SEGMENT
?atlTraceQI@ATL@@3V?$CTraceCategoryEx@$03$0A@@1@A DD 01H DUP (?) ; ATL::atlTraceQI
_BSS	ENDS
;	COMDAT ?atlTraceRegistrar@ATL@@3V?$CTraceCategoryEx@$07$0A@@1@A
_BSS	SEGMENT
?atlTraceRegistrar@ATL@@3V?$CTraceCategoryEx@$07$0A@@1@A DD 01H DUP (?) ; ATL::atlTraceRegistrar
_BSS	ENDS
;	COMDAT ?atlTraceRefcount@ATL@@3V?$CTraceCategoryEx@$0BA@$0A@@1@A
_BSS	SEGMENT
?atlTraceRefcount@ATL@@3V?$CTraceCategoryEx@$0BA@$0A@@1@A DD 01H DUP (?) ; ATL::atlTraceRefcount
_BSS	ENDS
;	COMDAT ?atlTraceWindowing@ATL@@3V?$CTraceCategoryEx@$0CA@$0A@@1@A
_BSS	SEGMENT
?atlTraceWindowing@ATL@@3V?$CTraceCategoryEx@$0CA@$0A@@1@A DD 01H DUP (?) ; ATL::atlTraceWindowing
_BSS	ENDS
;	COMDAT ?atlTraceControls@ATL@@3V?$CTraceCategoryEx@$0EA@$0A@@1@A
_BSS	SEGMENT
?atlTraceControls@ATL@@3V?$CTraceCategoryEx@$0EA@$0A@@1@A DD 01H DUP (?) ; ATL::atlTraceControls
_BSS	ENDS
;	COMDAT ?atlTraceHosting@ATL@@3V?$CTraceCategoryEx@$0IA@$0A@@1@A
_BSS	SEGMENT
?atlTraceHosting@ATL@@3V?$CTraceCategoryEx@$0IA@$0A@@1@A DD 01H DUP (?) ; ATL::atlTraceHosting
_BSS	ENDS
;	COMDAT ?atlTraceDBClient@ATL@@3V?$CTraceCategoryEx@$0BAA@$0A@@1@A
_BSS	SEGMENT
?atlTraceDBClient@ATL@@3V?$CTraceCategoryEx@$0BAA@$0A@@1@A DD 01H DUP (?) ; ATL::atlTraceDBClient
_BSS	ENDS
;	COMDAT ?atlTraceDBProvider@ATL@@3V?$CTraceCategoryEx@$0CAA@$0A@@1@A
_BSS	SEGMENT
?atlTraceDBProvider@ATL@@3V?$CTraceCategoryEx@$0CAA@$0A@@1@A DD 01H DUP (?) ; ATL::atlTraceDBProvider
_BSS	ENDS
;	COMDAT ?atlTraceSnapin@ATL@@3V?$CTraceCategoryEx@$0EAA@$0A@@1@A
_BSS	SEGMENT
?atlTraceSnapin@ATL@@3V?$CTraceCategoryEx@$0EAA@$0A@@1@A DD 01H DUP (?) ; ATL::atlTraceSnapin
_BSS	ENDS
;	COMDAT ?atlTraceNotImpl@ATL@@3V?$CTraceCategoryEx@$0IAA@$0A@@1@A
_BSS	SEGMENT
?atlTraceNotImpl@ATL@@3V?$CTraceCategoryEx@$0IAA@$0A@@1@A DD 01H DUP (?) ; ATL::atlTraceNotImpl
_BSS	ENDS
;	COMDAT ?atlTraceAllocation@ATL@@3V?$CTraceCategoryEx@$0BAAA@$0A@@1@A
_BSS	SEGMENT
?atlTraceAllocation@ATL@@3V?$CTraceCategoryEx@$0BAAA@$0A@@1@A DD 01H DUP (?) ; ATL::atlTraceAllocation
_BSS	ENDS
;	COMDAT ?atlTraceException@ATL@@3V?$CTraceCategoryEx@$0CAAA@$0A@@1@A
_BSS	SEGMENT
?atlTraceException@ATL@@3V?$CTraceCategoryEx@$0CAAA@$0A@@1@A DD 01H DUP (?) ; ATL::atlTraceException
_BSS	ENDS
;	COMDAT ?atlTraceTime@ATL@@3V?$CTraceCategoryEx@$0EAAA@$0A@@1@A
_BSS	SEGMENT
?atlTraceTime@ATL@@3V?$CTraceCategoryEx@$0EAAA@$0A@@1@A DD 01H DUP (?) ; ATL::atlTraceTime
_BSS	ENDS
;	COMDAT ?atlTraceCache@ATL@@3V?$CTraceCategoryEx@$0IAAA@$0A@@1@A
_BSS	SEGMENT
?atlTraceCache@ATL@@3V?$CTraceCategoryEx@$0IAAA@$0A@@1@A DD 01H DUP (?) ; ATL::atlTraceCache
_BSS	ENDS
;	COMDAT ?atlTraceStencil@ATL@@3V?$CTraceCategoryEx@$0BAAAA@$0A@@1@A
_BSS	SEGMENT
?atlTraceStencil@ATL@@3V?$CTraceCategoryEx@$0BAAAA@$0A@@1@A DD 01H DUP (?) ; ATL::atlTraceStencil
_BSS	ENDS
;	COMDAT ?atlTraceString@ATL@@3V?$CTraceCategoryEx@$0CAAAA@$0A@@1@A
_BSS	SEGMENT
?atlTraceString@ATL@@3V?$CTraceCategoryEx@$0CAAAA@$0A@@1@A DD 01H DUP (?) ; ATL::atlTraceString
_BSS	ENDS
;	COMDAT ?atlTraceMap@ATL@@3V?$CTraceCategoryEx@$0EAAAA@$0A@@1@A
_BSS	SEGMENT
?atlTraceMap@ATL@@3V?$CTraceCategoryEx@$0EAAAA@$0A@@1@A DD 01H DUP (?) ; ATL::atlTraceMap
_BSS	ENDS
;	COMDAT ?atlTraceUtil@ATL@@3V?$CTraceCategoryEx@$0IAAAA@$0A@@1@A
_BSS	SEGMENT
?atlTraceUtil@ATL@@3V?$CTraceCategoryEx@$0IAAAA@$0A@@1@A DD 01H DUP (?) ; ATL::atlTraceUtil
_BSS	ENDS
;	COMDAT ?atlTraceSecurity@ATL@@3V?$CTraceCategoryEx@$0BAAAAA@$0A@@1@A
_BSS	SEGMENT
?atlTraceSecurity@ATL@@3V?$CTraceCategoryEx@$0BAAAAA@$0A@@1@A DD 01H DUP (?) ; ATL::atlTraceSecurity
_BSS	ENDS
;	COMDAT ?atlTraceSync@ATL@@3V?$CTraceCategoryEx@$0CAAAAA@$0A@@1@A
_BSS	SEGMENT
?atlTraceSync@ATL@@3V?$CTraceCategoryEx@$0CAAAAA@$0A@@1@A DD 01H DUP (?) ; ATL::atlTraceSync
_BSS	ENDS
;	COMDAT ?atlTraceISAPI@ATL@@3V?$CTraceCategoryEx@$0EAAAAA@$0A@@1@A
_BSS	SEGMENT
?atlTraceISAPI@ATL@@3V?$CTraceCategoryEx@$0EAAAAA@$0A@@1@A DD 01H DUP (?) ; ATL::atlTraceISAPI
_BSS	ENDS
;	COMDAT ?_AtlComModule@ATL@@3VCAtlComModule@1@A
_BSS	SEGMENT
?_AtlComModule@ATL@@3VCAtlComModule@1@A DB 028H DUP (?)	; ATL::_AtlComModule
_BSS	ENDS
;	COMDAT ?_AtlWinModule@ATL@@3VCAtlWinModule@1@A
_BSS	SEGMENT
?_AtlWinModule@ATL@@3VCAtlWinModule@1@A DB 02cH DUP (?)	; ATL::_AtlWinModule
_BSS	ENDS
;	COMDAT ?pConnMap@?$IConnectionPointContainerImpl@VCOPOSSoundPlayer@@@ATL@@0PBU_ATL_CONNMAP_ENTRY@2@B
_BSS	SEGMENT
?pConnMap@?$IConnectionPointContainerImpl@VCOPOSSoundPlayer@@@ATL@@0PBU_ATL_CONNMAP_ENTRY@2@B DD 01H DUP (?) ; ATL::IConnectionPointContainerImpl<COPOSSoundPlayer>::pConnMap
_BSS	ENDS
;	COMDAT CRT$XCU
CRT$XCU	SEGMENT
?_AtlComModule$initializer$@ATL@@3P6AXXZA DD FLAT:??__E_AtlComModule@ATL@@YAXXZ ; ATL::_AtlComModule$initializer$
CRT$XCU	ENDS
;	COMDAT ?_entries@?1??_GetEntries@?$CComEnum@UIEnumConnections@@$1?_GUID_b196b287_bab4_101a_b69c_00aa00341d07@@3U__s_GUID@@BUtagCONNECTDATA@@V?$_Copy@UtagCONNECTDATA@@@ATL@@VCComSingleThreadModel@6@@ATL@@SGPBU_ATL_INTMAP_ENTRY@3@XZ@4QBU43@B
CONST	SEGMENT
?_entries@?1??_GetEntries@?$CComEnum@UIEnumConnections@@$1?_GUID_b196b287_bab4_101a_b69c_00aa00341d07@@3U__s_GUID@@BUtagCONNECTDATA@@V?$_Copy@UtagCONNECTDATA@@@ATL@@VCComSingleThreadModel@6@@ATL@@SGPBU_ATL_INTMAP_ENTRY@3@XZ@4QBU43@B DD FLAT:__GUID_b196b287_bab4_101a_b69c_00aa00341d07 ; `ATL::CComEnum<IEnumConnections,&_GUID_b196b287_bab4_101a_b69c_00aa00341d07,tagCONNECTDATA,ATL::_Copy<tagCONNECTDATA>,ATL::CComSingleThreadModel>::_GetEntries'::`2'::_entries
	DD	00H
	DD	01H
	DD	00H
	DD	00H
	DD	00H
CONST	ENDS
;	COMDAT ??_7?$CComObject@V?$CComEnum@UIEnumConnections@@$1?_GUID_b196b287_bab4_101a_b69c_00aa00341d07@@3U__s_GUID@@BUtagCONNECTDATA@@V?$_Copy@UtagCONNECTDATA@@@ATL@@VCComSingleThreadModel@6@@ATL@@@ATL@@6B@
CONST	SEGMENT
??_7?$CComObject@V?$CComEnum@UIEnumConnections@@$1?_GUID_b196b287_bab4_101a_b69c_00aa00341d07@@3U__s_GUID@@BUtagCONNECTDATA@@V?$_Copy@UtagCONNECTDATA@@@ATL@@VCComSingleThreadModel@6@@ATL@@@ATL@@6B@ DD FLAT:?QueryInterface@?$CComObject@V?$CComEnum@UIEnumConnections@@$1?_GUID_b196b287_bab4_101a_b69c_00aa00341d07@@3U__s_GUID@@BUtagCONNECTDATA@@V?$_Copy@UtagCONNECTDATA@@@ATL@@VCComSingleThreadModel@6@@ATL@@@ATL@@UAGJABU_GUID@@PAPAX@Z ; ATL::CComObject<ATL::CComEnum<IEnumConnections,&_GUID_b196b287_bab4_101a_b69c_00aa00341d07,tagCONNECTDATA,ATL::_Copy<tagCONNECTDATA>,ATL::CComSingleThreadModel> >::`vftable'
	DD	FLAT:?AddRef@?$CComObject@V?$CComEnum@UIEnumConnections@@$1?_GUID_b196b287_bab4_101a_b69c_00aa00341d07@@3U__s_GUID@@BUtagCONNECTDATA@@V?$_Copy@UtagCONNECTDATA@@@ATL@@VCComSingleThreadModel@6@@ATL@@@ATL@@UAGKXZ
	DD	FLAT:?Release@?$CComObject@V?$CComEnum@UIEnumConnections@@$1?_GUID_b196b287_bab4_101a_b69c_00aa00341d07@@3U__s_GUID@@BUtagCONNECTDATA@@V?$_Copy@UtagCONNECTDATA@@@ATL@@VCComSingleThreadModel@6@@ATL@@@ATL@@UAGKXZ
	DD	FLAT:?Next@?$CComEnumImpl@UIEnumConnections@@$1?_GUID_b196b287_bab4_101a_b69c_00aa00341d07@@3U__s_GUID@@BUtagCONNECTDATA@@V?$_Copy@UtagCONNECTDATA@@@ATL@@@ATL@@UAGJKPAUtagCONNECTDATA@@PAK@Z
	DD	FLAT:?Skip@?$CComEnumImpl@UIEnumConnections@@$1?_GUID_b196b287_bab4_101a_b69c_00aa00341d07@@3U__s_GUID@@BUtagCONNECTDATA@@V?$_Copy@UtagCONNECTDATA@@@ATL@@@ATL@@UAGJK@Z
	DD	FLAT:?Reset@?$CComEnumImpl@UIEnumConnections@@$1?_GUID_b196b287_bab4_101a_b69c_00aa00341d07@@3U__s_GUID@@BUtagCONNECTDATA@@V?$_Copy@UtagCONNECTDATA@@@ATL@@@ATL@@UAGJXZ
	DD	FLAT:?Clone@?$CComEnumImpl@UIEnumConnections@@$1?_GUID_b196b287_bab4_101a_b69c_00aa00341d07@@3U__s_GUID@@BUtagCONNECTDATA@@V?$_Copy@UtagCONNECTDATA@@@ATL@@@ATL@@UAGJPAPAUIEnumConnections@@@Z
	DD	FLAT:??_E?$CComObject@V?$CComEnum@UIEnumConnections@@$1?_GUID_b196b287_bab4_101a_b69c_00aa00341d07@@3U__s_GUID@@BUtagCONNECTDATA@@V?$_Copy@UtagCONNECTDATA@@@ATL@@VCComSingleThreadModel@6@@ATL@@@ATL@@UAEPAXI@Z
CONST	ENDS
;	COMDAT __GUID_b196b286_bab4_101a_b69c_00aa00341d07
CONST	SEGMENT
__GUID_b196b286_bab4_101a_b69c_00aa00341d07 DD 0b196b286H
	DW	0bab4H
	DW	0101aH
	DB	0b6H
	DB	09cH
	DB	00H
	DB	0aaH
	DB	00H
	DB	034H
	DB	01dH
	DB	07H
CONST	ENDS
;	COMDAT ??_C@_1BM@CBGEBBBJ@?$AAD?$AAi?$AAr?$AAe?$AAc?$AAt?$AAI?$AAO?$AAE?$AAv?$AAe?$AAn?$AAt@
CONST	SEGMENT
??_C@_1BM@CBGEBBBJ@?$AAD?$AAi?$AAr?$AAe?$AAc?$AAt?$AAI?$AAO?$AAE?$AAv?$AAe?$AAn?$AAt@ DB 'D'
	DB	00H, 'i', 00H, 'r', 00H, 'e', 00H, 'c', 00H, 't', 00H, 'I', 00H
	DB	'O', 00H, 'E', 00H, 'v', 00H, 'e', 00H, 'n', 00H, 't', 00H, 00H
	DB	00H						; `string'
CONST	ENDS
;	COMDAT ??_C@_1BG@LODEBHDD@?$AAE?$AAr?$AAr?$AAo?$AAr?$AAE?$AAv?$AAe?$AAn?$AAt@
CONST	SEGMENT
??_C@_1BG@LODEBHDD@?$AAE?$AAr?$AAr?$AAo?$AAr?$AAE?$AAv?$AAe?$AAn?$AAt@ DB 'E'
	DB	00H, 'r', 00H, 'r', 00H, 'o', 00H, 'r', 00H, 'E', 00H, 'v', 00H
	DB	'e', 00H, 'n', 00H, 't', 00H, 00H, 00H	; `string'
CONST	ENDS
;	COMDAT ??_C@_1CI@HLBJDONE@?$AAO?$AAu?$AAt?$AAp?$AAu?$AAt?$AAC?$AAo?$AAm?$AAp?$AAl?$AAe?$AAt?$AAe?$AAE@
CONST	SEGMENT
??_C@_1CI@HLBJDONE@?$AAO?$AAu?$AAt?$AAp?$AAu?$AAt?$AAC?$AAo?$AAm?$AAp?$AAl?$AAe?$AAt?$AAe?$AAE@ DB 'O'
	DB	00H, 'u', 00H, 't', 00H, 'p', 00H, 'u', 00H, 't', 00H, 'C', 00H
	DB	'o', 00H, 'm', 00H, 'p', 00H, 'l', 00H, 'e', 00H, 't', 00H, 'e'
	DB	00H, 'E', 00H, 'v', 00H, 'e', 00H, 'n', 00H, 't', 00H, 00H, 00H ; `string'
CONST	ENDS
;	COMDAT ??_C@_1CE@PGFMOFKI@?$AAS?$AAt?$AAa?$AAt?$AAu?$AAs?$AAU?$AAp?$AAd?$AAa?$AAt?$AAe?$AAE?$AAv?$AAe@
CONST	SEGMENT
??_C@_1CE@PGFMOFKI@?$AAS?$AAt?$AAa?$AAt?$AAu?$AAs?$AAU?$AAp?$AAd?$AAa?$AAt?$AAe?$AAE?$AAv?$AAe@ DB 'S'
	DB	00H, 't', 00H, 'a', 00H, 't', 00H, 'u', 00H, 's', 00H, 'U', 00H
	DB	'p', 00H, 'd', 00H, 'a', 00H, 't', 00H, 'e', 00H, 'E', 00H, 'v'
	DB	00H, 'e', 00H, 'n', 00H, 't', 00H, 00H, 00H	; `string'
CONST	ENDS
;	COMDAT ??_C@_1BM@IJMNMBPK@?$AAG?$AAe?$AAt?$AAO?$AAp?$AAe?$AAn?$AAR?$AAe?$AAs?$AAu?$AAl?$AAt@
CONST	SEGMENT
??_C@_1BM@IJMNMBPK@?$AAG?$AAe?$AAt?$AAO?$AAp?$AAe?$AAn?$AAR?$AAe?$AAs?$AAu?$AAl?$AAt@ DB 'G'
	DB	00H, 'e', 00H, 't', 00H, 'O', 00H, 'p', 00H, 'e', 00H, 'n', 00H
	DB	'R', 00H, 'e', 00H, 's', 00H, 'u', 00H, 'l', 00H, 't', 00H, 00H
	DB	00H						; `string'
CONST	ENDS
;	COMDAT ??_C@_0M@GBBAOMPL@SoundPlayer@
CONST	SEGMENT
??_C@_0M@GBBAOMPL@SoundPlayer@ DB 'SoundPlayer', 00H	; `string'
CONST	ENDS
;	COMDAT ??_C@_1BA@NDFKIOCP@?$AAR?$AAe?$AAl?$AAe?$AAa?$AAs?$AAe@
CONST	SEGMENT
??_C@_1BA@NDFKIOCP@?$AAR?$AAe?$AAl?$AAe?$AAa?$AAs?$AAe@ DB 'R', 00H, 'e', 00H
	DB	'l', 00H, 'e', 00H, 'a', 00H, 's', 00H, 'e', 00H, 00H, 00H ; `string'
CONST	ENDS
;	COMDAT ??_C@_1M@PCPKGJAH@?$AAC?$AAl?$AAa?$AAi?$AAm@
CONST	SEGMENT
??_C@_1M@PCPKGJAH@?$AAC?$AAl?$AAa?$AAi?$AAm@ DB 'C', 00H, 'l', 00H, 'a', 00H
	DB	'i', 00H, 'm', 00H, 00H, 00H			; `string'
CONST	ENDS
;	COMDAT ??_C@_1M@IAIJHCCH@?$AAC?$AAl?$AAo?$AAs?$AAe@
CONST	SEGMENT
??_C@_1M@IAIJHCCH@?$AAC?$AAl?$AAo?$AAs?$AAe@ DB 'C', 00H, 'l', 00H, 'o', 00H
	DB	's', 00H, 'e', 00H, 00H, 00H			; `string'
CONST	ENDS
;	COMDAT ??_C@_0CO@MENBAAH@SOFTWARE?2OLEforRetail?2ServiceOP@
CONST	SEGMENT
??_C@_0CO@MENBAAH@SOFTWARE?2OLEforRetail?2ServiceOP@ DB 'SOFTWARE\OLEforR'
	DB	'etail\ServiceOPOS\SoundPlayer', 00H		; `string'
CONST	ENDS
;	COMDAT ??_C@_1BA@IFHENID@?$AA?$FL?$AAE?$AAr?$AAr?$AAo?$AAr?$AA?$FN@
CONST	SEGMENT
??_C@_1BA@IFHENID@?$AA?$FL?$AAE?$AAr?$AAr?$AAo?$AAr?$AA?$FN@ DB '[', 00H, 'E'
	DB	00H, 'r', 00H, 'r', 00H, 'o', 00H, 'r', 00H, ']', 00H, 00H, 00H ; `string'
CONST	ENDS
_DATA	SEGMENT
?s_SOMethodNames@@3PAPADA DD FLAT:??_C@_0P@MMNMMLGK@COFreezeEvents@ ; s_SOMethodNames
	DD	FLAT:??_C@_0BC@OGCGGIMP@GetPropertyNumber@
	DD	FLAT:??_C@_0BC@MDCNODNB@SetPropertyNumber@
	DD	FLAT:??_C@_0BC@CFCCMIMD@GetPropertyString@
	DD	FLAT:??_C@_0BC@CJEDNN@SetPropertyString@
	DD	FLAT:??_C@_0M@LNPKKKDA@OpenService@
	DD	FLAT:??_C@_0M@PCMCHHMH@CheckHealth@
	DD	FLAT:??_C@_0M@JGMIDNEK@ClaimDevice@
	DD	FLAT:??_C@_0M@JMBCPNGJ@ClearOutput@
	DD	FLAT:??_C@_0N@DDFIIBMP@CloseService@
	DD	FLAT:??_C@_08EEIHICPC@DirectIO@
	DD	FLAT:??_C@_0O@BCPMENMJ@ReleaseDevice@
	DD	FLAT:??_C@_0BA@GFABKEEE@ResetStatistics@
	DD	FLAT:??_C@_0BD@DPALHJGC@RetrieveStatistics@
	DD	FLAT:??_C@_0BB@KOHIKNFC@UpdateStatistics@
	DD	FLAT:??_C@_0BH@PBKBNMGB@CompareFirmwareVersion@
	DD	FLAT:??_C@_0P@FBPDPIPA@UpdateFirmware@
	DD	FLAT:??_C@_09PEMGNEEO@PlaySound@
	DD	FLAT:??_C@_09IIPLNIMF@StopSound@
	DD	00H
?s_RequiredMethodsPerRelease@@3PAHA DD 013H		; s_RequiredMethodsPerRelease
_DATA	ENDS
;	COMDAT ??_7?$CProxy_IOPOSEvents@VCOPOSSoundPlayer@@@@6B@
CONST	SEGMENT
??_7?$CProxy_IOPOSEvents@VCOPOSSoundPlayer@@@@6B@ DD FLAT:?_LocCPQueryInterface@?$IConnectionPointImpl@VCOPOSSoundPlayer@@$1?DIID__IOPOSSoundPlayerEvents@@3U_GUID@@BVCComDynamicUnkArray@ATL@@@ATL@@UAGJABU_GUID@@PAPAX@Z ; CProxy_IOPOSEvents<COPOSSoundPlayer>::`vftable'
	DD	FLAT:__purecall
	DD	FLAT:__purecall
	DD	FLAT:?GetConnectionInterface@?$IConnectionPointImpl@VCOPOSSoundPlayer@@$1?DIID__IOPOSSoundPlayerEvents@@3U_GUID@@BVCComDynamicUnkArray@ATL@@@ATL@@UAGJPAU_GUID@@@Z
	DD	FLAT:?GetConnectionPointContainer@?$IConnectionPointImpl@VCOPOSSoundPlayer@@$1?DIID__IOPOSSoundPlayerEvents@@3U_GUID@@BVCComDynamicUnkArray@ATL@@@ATL@@UAGJPAPAUIConnectionPointContainer@@@Z
	DD	FLAT:?Advise@?$IConnectionPointImpl@VCOPOSSoundPlayer@@$1?DIID__IOPOSSoundPlayerEvents@@3U_GUID@@BVCComDynamicUnkArray@ATL@@@ATL@@UAGJPAUIUnknown@@PAK@Z
	DD	FLAT:?Unadvise@?$IConnectionPointImpl@VCOPOSSoundPlayer@@$1?DIID__IOPOSSoundPlayerEvents@@3U_GUID@@BVCComDynamicUnkArray@ATL@@@ATL@@UAGJK@Z
	DD	FLAT:?EnumConnections@?$IConnectionPointImpl@VCOPOSSoundPlayer@@$1?DIID__IOPOSSoundPlayerEvents@@3U_GUID@@BVCComDynamicUnkArray@ATL@@@ATL@@UAGJPAPAUIEnumConnections@@@Z
CONST	ENDS
;	COMDAT __GUID_b196b287_bab4_101a_b69c_00aa00341d07
CONST	SEGMENT
__GUID_b196b287_bab4_101a_b69c_00aa00341d07 DD 0b196b287H
	DW	0bab4H
	DW	0101aH
	DB	0b6H
	DB	09cH
	DB	00H
	DB	0aaH
	DB	00H
	DB	034H
	DB	01dH
	DB	07H
CONST	ENDS
;	COMDAT __GUID_b196b284_bab4_101a_b69c_00aa00341d07
CONST	SEGMENT
__GUID_b196b284_bab4_101a_b69c_00aa00341d07 DD 0b196b284H
	DW	0bab4H
	DW	0101aH
	DB	0b6H
	DB	09cH
	DB	00H
	DB	0aaH
	DB	00H
	DB	034H
	DB	01dH
	DB	07H
CONST	ENDS
;	COMDAT CRT$XCU
CRT$XCU	SEGMENT
?_AtlWinModule$initializer$@ATL@@3P6AXXZA DD FLAT:??__E_AtlWinModule@ATL@@YAXXZ ; ATL::_AtlWinModule$initializer$
CRT$XCU	ENDS
;	COMDAT CRT$XCU
CRT$XCU	SEGMENT
??pConnMap$initializer$@?$IConnectionPointContainerImpl@VCOPOSSoundPlayer@@@ATL@@0P6AXXZA@@3P6AXXZA DD FLAT:??__E?pConnMap@?$IConnectionPointContainerImpl@VCOPOSSoundPlayer@@@ATL@@0PBU_ATL_CONNMAP_ENTRY@2@B@@YAXXZ ; ??pConnMap$initializer$@?$IConnectionPointContainerImpl@VCOPOSSoundPlayer@@@ATL@@0P6AXXZA@@3P6AXXZA
CRT$XCU	ENDS
; Function compile flags: /Ogsp
;	COMDAT ??_G?$CComObject@V?$CComEnum@UIEnumConnections@@$1?_GUID_b196b287_bab4_101a_b69c_00aa00341d07@@3U__s_GUID@@BUtagCONNECTDATA@@V?$_Copy@UtagCONNECTDATA@@@ATL@@VCComSingleThreadModel@6@@ATL@@@ATL@@UAEPAXI@Z
_TEXT	SEGMENT
___flags$ = 8						; size = 4
??_G?$CComObject@V?$CComEnum@UIEnumConnections@@$1?_GUID_b196b287_bab4_101a_b69c_00aa00341d07@@3U__s_GUID@@BUtagCONNECTDATA@@V?$_Copy@UtagCONNECTDATA@@@ATL@@VCComSingleThreadModel@6@@ATL@@@ATL@@UAEPAXI@Z PROC ; ATL::CComObject<ATL::CComEnum<IEnumConnections,&_GUID_b196b287_bab4_101a_b69c_00aa00341d07,tagCONNECTDATA,ATL::_Copy<tagCONNECTDATA>,ATL::CComSingleThreadModel> >::`scalar deleting destructor', COMDAT
; _this$ = ecx
  00000	55		 push	 ebp
  00001	8b ec		 mov	 ebp, esp
  00003	56		 push	 esi
  00004	8b f1		 mov	 esi, ecx
  00006	e8 00 00 00 00	 call	 ??1?$CComObject@V?$CComEnum@UIEnumConnections@@$1?_GUID_b196b287_bab4_101a_b69c_00aa00341d07@@3U__s_GUID@@BUtagCONNECTDATA@@V?$_Copy@UtagCONNECTDATA@@@ATL@@VCComSingleThreadModel@6@@ATL@@@ATL@@UAE@XZ ; ATL::CComObject<ATL::CComEnum<IEnumConnections,&_GUID_b196b287_bab4_101a_b69c_00aa00341d07,tagCONNECTDATA,ATL::_Copy<tagCONNECTDATA>,ATL::CComSingleThreadModel> >::~CComObject<ATL::CComEnum<IEnumConnections,&_GUID_b196b287_bab4_101a_b69c_00aa00341d07,tagCONNECTDATA,ATL::_Copy<tagCONNECTDATA>,ATL::CComSingleThreadModel> >
  0000b	f6 45 08 01	 test	 BYTE PTR ___flags$[ebp], 1
  0000f	74 0a		 je	 SHORT $LN2@scalar
  00011	6a 1c		 push	 28			; 0000001cH
  00013	56		 push	 esi
  00014	e8 00 00 00 00	 call	 ??3@YAXPAXI@Z		; operator delete
  00019	59		 pop	 ecx
  0001a	59		 pop	 ecx
$LN2@scalar:
  0001b	8b c6		 mov	 eax, esi
  0001d	5e		 pop	 esi
  0001e	5d		 pop	 ebp
  0001f	c2 04 00	 ret	 4
??_G?$CComObject@V?$CComEnum@UIEnumConnections@@$1?_GUID_b196b287_bab4_101a_b69c_00aa00341d07@@3U__s_GUID@@BUtagCONNECTDATA@@V?$_Copy@UtagCONNECTDATA@@@ATL@@VCComSingleThreadModel@6@@ATL@@@ATL@@UAEPAXI@Z ENDP ; ATL::CComObject<ATL::CComEnum<IEnumConnections,&_GUID_b196b287_bab4_101a_b69c_00aa00341d07,tagCONNECTDATA,ATL::_Copy<tagCONNECTDATA>,ATL::CComSingleThreadModel> >::`scalar deleting destructor'
_TEXT	ENDS
; Function compile flags: /Ogsp
; File C:\Develop\OPOS-CCO\Common\ATL\atlcom.h
;	COMDAT ?CreateInstance@?$CComObject@V?$CComEnum@UIEnumConnections@@$1?_GUID_b196b287_bab4_101a_b69c_00aa00341d07@@3U__s_GUID@@BUtagCONNECTDATA@@V?$_Copy@UtagCONNECTDATA@@@ATL@@VCComSingleThreadModel@6@@ATL@@@ATL@@SGJPAPAV12@@Z
_TEXT	SEGMENT
_pp$ = 8						; size = 4
?CreateInstance@?$CComObject@V?$CComEnum@UIEnumConnections@@$1?_GUID_b196b287_bab4_101a_b69c_00aa00341d07@@3U__s_GUID@@BUtagCONNECTDATA@@V?$_Copy@UtagCONNECTDATA@@@ATL@@VCComSingleThreadModel@6@@ATL@@@ATL@@SGJPAPAV12@@Z PROC ; ATL::CComObject<ATL::CComEnum<IEnumConnections,&_GUID_b196b287_bab4_101a_b69c_00aa00341d07,tagCONNECTDATA,ATL::_Copy<tagCONNECTDATA>,ATL::CComSingleThreadModel> >::CreateInstance, COMDAT

; 2963 : {

  00000	55		 push	 ebp
  00001	8b ec		 mov	 ebp, esp
  00003	56		 push	 esi

; 2964 : 	ATLASSERT(pp != NULL);
; 2965 : 	if (pp == NULL)

  00004	8b 75 08	 mov	 esi, DWORD PTR _pp$[ebp]
  00007	85 f6		 test	 esi, esi
  00009	75 07		 jne	 SHORT $LN2@CreateInst

; 2966 : 		return E_POINTER;

  0000b	b8 03 40 00 80	 mov	 eax, -2147467261	; 80004003H
  00010	eb 33		 jmp	 SHORT $LN1@CreateInst
$LN2@CreateInst:

; 2967 : 	*pp = NULL;

  00012	83 26 00	 and	 DWORD PTR [esi], 0
  00015	57		 push	 edi

; 2968 : 
; 2969 : 	HRESULT hRes = E_OUTOFMEMORY;
; 2970 : 	CComObject<Base>* p = NULL;
; 2971 : 	ATLTRY(p = _ATL_NEW CComObject<Base>())

  00016	68 00 00 00 00	 push	 OFFSET ?nothrow@std@@3Unothrow_t@1@B ; std::nothrow
  0001b	6a 1c		 push	 28			; 0000001cH
  0001d	bf 0e 00 07 80	 mov	 edi, -2147024882	; 8007000eH
  00022	e8 00 00 00 00	 call	 ??2@YAPAXIABUnothrow_t@std@@@Z ; operator new
  00027	59		 pop	 ecx
  00028	59		 pop	 ecx
  00029	85 c0		 test	 eax, eax
  0002b	74 11		 je	 SHORT $LN8@CreateInst
  0002d	6a 00		 push	 0
  0002f	8b c8		 mov	 ecx, eax
  00031	e8 00 00 00 00	 call	 ??0?$CComObject@V?$CComEnum@UIEnumConnections@@$1?_GUID_b196b287_bab4_101a_b69c_00aa00341d07@@3U__s_GUID@@BUtagCONNECTDATA@@V?$_Copy@UtagCONNECTDATA@@@ATL@@VCComSingleThreadModel@6@@ATL@@@ATL@@QAE@PAX@Z ; ATL::CComObject<ATL::CComEnum<IEnumConnections,&_GUID_b196b287_bab4_101a_b69c_00aa00341d07,tagCONNECTDATA,ATL::_Copy<tagCONNECTDATA>,ATL::CComSingleThreadModel> >::CComObject<ATL::CComEnum<IEnumConnections,&_GUID_b196b287_bab4_101a_b69c_00aa00341d07,tagCONNECTDATA,ATL::_Copy<tagCONNECTDATA>,ATL::CComSingleThreadModel> >

; 2972 : 	if (p != NULL)

  00036	85 c0		 test	 eax, eax
  00038	74 06		 je	 SHORT $LN6@CreateInst

; 2973 : 	{
; 2974 : 		p->SetVoid(NULL);
; 2975 : 		p->InternalFinalConstructAddRef();
; 2976 : 		hRes = p->_AtlInitialConstruct();
; 2977 : 		if (SUCCEEDED(hRes))
; 2978 : 			hRes = p->FinalConstruct();
; 2979 : 		if (SUCCEEDED(hRes))
; 2980 : 			hRes = p->_AtlFinalConstruct();
; 2981 : 		p->InternalFinalConstructRelease();
; 2982 : 		if (hRes != S_OK)

  0003a	33 ff		 xor	 edi, edi
  0003c	eb 02		 jmp	 SHORT $LN6@CreateInst
$LN8@CreateInst:

; 2968 : 
; 2969 : 	HRESULT hRes = E_OUTOFMEMORY;
; 2970 : 	CComObject<Base>* p = NULL;
; 2971 : 	ATLTRY(p = _ATL_NEW CComObject<Base>())

  0003e	33 c0		 xor	 eax, eax
$LN6@CreateInst:

; 2983 : 		{
; 2984 : 			delete p;
; 2985 : 			p = NULL;
; 2986 : 		}
; 2987 : 	}
; 2988 : 	*pp = p;

  00040	89 06		 mov	 DWORD PTR [esi], eax

; 2989 : 	return hRes;

  00042	8b c7		 mov	 eax, edi
  00044	5f		 pop	 edi
$LN1@CreateInst:
  00045	5e		 pop	 esi

; 2990 : }

  00046	5d		 pop	 ebp
  00047	c2 04 00	 ret	 4
?CreateInstance@?$CComObject@V?$CComEnum@UIEnumConnections@@$1?_GUID_b196b287_bab4_101a_b69c_00aa00341d07@@3U__s_GUID@@BUtagCONNECTDATA@@V?$_Copy@UtagCONNECTDATA@@@ATL@@VCComSingleThreadModel@6@@ATL@@@ATL@@SGJPAPAV12@@Z ENDP ; ATL::CComObject<ATL::CComEnum<IEnumConnections,&_GUID_b196b287_bab4_101a_b69c_00aa00341d07,tagCONNECTDATA,ATL::_Copy<tagCONNECTDATA>,ATL::CComSingleThreadModel> >::CreateInstance
_TEXT	ENDS
; Function compile flags: /Ogsp
; File C:\Develop\OPOS-CCO\Common\ATL\atlcom.h
;	COMDAT ?QueryInterface@?$CComObject@V?$CComEnum@UIEnumConnections@@$1?_GUID_b196b287_bab4_101a_b69c_00aa00341d07@@3U__s_GUID@@BUtagCONNECTDATA@@V?$_Copy@UtagCONNECTDATA@@@ATL@@VCComSingleThreadModel@6@@ATL@@@ATL@@UAGJABU_GUID@@PAPAX@Z
_TEXT	SEGMENT
_this$ = 8						; size = 4
_iid$ = 12						; size = 4
_ppvObject$ = 16					; size = 4
?QueryInterface@?$CComObject@V?$CComEnum@UIEnumConnections@@$1?_GUID_b196b287_bab4_101a_b69c_00aa00341d07@@3U__s_GUID@@BUtagCONNECTDATA@@V?$_Copy@UtagCONNECTDATA@@@ATL@@VCComSingleThreadModel@6@@ATL@@@ATL@@UAGJABU_GUID@@PAPAX@Z PROC ; ATL::CComObject<ATL::CComEnum<IEnumConnections,&_GUID_b196b287_bab4_101a_b69c_00aa00341d07,tagCONNECTDATA,ATL::_Copy<tagCONNECTDATA>,ATL::CComSingleThreadModel> >::QueryInterface, COMDAT

; 2947 : 	{

  00000	55		 push	 ebp
  00001	8b ec		 mov	 ebp, esp

; 2487 : 		HRESULT hRes = AtlInternalQueryInterface(pThis, pEntries, iid, ppvObject);

  00003	ff 75 10	 push	 DWORD PTR _ppvObject$[ebp]
  00006	ff 75 0c	 push	 DWORD PTR _iid$[ebp]
  00009	68 00 00 00 00	 push	 OFFSET ?_entries@?1??_GetEntries@?$CComEnum@UIEnumConnections@@$1?_GUID_b196b287_bab4_101a_b69c_00aa00341d07@@3U__s_GUID@@BUtagCONNECTDATA@@V?$_Copy@UtagCONNECTDATA@@@ATL@@VCComSingleThreadModel@6@@ATL@@SGPBU_ATL_INTMAP_ENTRY@3@XZ@4QBU43@B ; `ATL::CComEnum<IEnumConnections,&_GUID_b196b287_bab4_101a_b69c_00aa00341d07,tagCONNECTDATA,ATL::_Copy<tagCONNECTDATA>,ATL::CComSingleThreadModel>::_GetEntries'::`2'::_entries
  0000e	ff 75 08	 push	 DWORD PTR _this$[ebp]
  00011	e8 00 00 00 00	 call	 ?AtlInternalQueryInterface@ATL@@YGJPAXPBU_ATL_INTMAP_ENTRY@1@ABU_GUID@@PAPAX@Z ; ATL::AtlInternalQueryInterface

; 2948 : 		return this->_InternalQueryInterface(iid, ppvObject);
; 2949 : 	}

  00016	5d		 pop	 ebp
  00017	c2 0c 00	 ret	 12			; 0000000cH
?QueryInterface@?$CComObject@V?$CComEnum@UIEnumConnections@@$1?_GUID_b196b287_bab4_101a_b69c_00aa00341d07@@3U__s_GUID@@BUtagCONNECTDATA@@V?$_Copy@UtagCONNECTDATA@@@ATL@@VCComSingleThreadModel@6@@ATL@@@ATL@@UAGJABU_GUID@@PAPAX@Z ENDP ; ATL::CComObject<ATL::CComEnum<IEnumConnections,&_GUID_b196b287_bab4_101a_b69c_00aa00341d07,tagCONNECTDATA,ATL::_Copy<tagCONNECTDATA>,ATL::CComSingleThreadModel> >::QueryInterface
_TEXT	ENDS
; Function compile flags: /Ogsp
; File C:\Develop\OPOS-CCO\Common\ATL\atlcom.h
; File C:\Program Files (x86)\Microsoft Visual Studio\2019\Community\VC\Tools\MSVC\14.28.29333\atlmfc\include\atlbase.h
; File C:\Develop\OPOS-CCO\Common\ATL\atlcom.h
;	COMDAT ?Release@?$CComObject@V?$CComEnum@UIEnumConnections@@$1?_GUID_b196b287_bab4_101a_b69c_00aa00341d07@@3U__s_GUID@@BUtagCONNECTDATA@@V?$_Copy@UtagCONNECTDATA@@@ATL@@VCComSingleThreadModel@6@@ATL@@@ATL@@UAGKXZ
_TEXT	SEGMENT
_this$ = 8						; size = 4
?Release@?$CComObject@V?$CComEnum@UIEnumConnections@@$1?_GUID_b196b287_bab4_101a_b69c_00aa00341d07@@3U__s_GUID@@BUtagCONNECTDATA@@V?$_Copy@UtagCONNECTDATA@@@ATL@@VCComSingleThreadModel@6@@ATL@@@ATL@@UAGKXZ PROC ; ATL::CComObject<ATL::CComEnum<IEnumConnections,&_GUID_b196b287_bab4_101a_b69c_00aa00341d07,tagCONNECTDATA,ATL::_Copy<tagCONNECTDATA>,ATL::CComSingleThreadModel> >::Release, COMDAT

; 2933 : 	{

  00000	55		 push	 ebp
  00001	8b ec		 mov	 ebp, esp
  00003	56		 push	 esi

; 2934 : 		ULONG l = this->InternalRelease();

  00004	8b 75 08	 mov	 esi, DWORD PTR _this$[ebp]
  00007	57		 push	 edi
; File C:\Program Files (x86)\Microsoft Visual Studio\2019\Community\VC\Tools\MSVC\14.28.29333\atlmfc\include\atlbase.h

; 444  : 		return --(*p);

  00008	83 6e 18 01	 sub	 DWORD PTR [esi+24], 1
  0000c	8b 7e 18	 mov	 edi, DWORD PTR [esi+24]
; File C:\Develop\OPOS-CCO\Common\ATL\atlcom.h

; 2935 : 		if (l == 0)

  0000f	75 23		 jne	 SHORT $LN2@Release

; 2891 : 		_pAtlModule->Lock();

  00011	8b 0d 00 00 00
	00		 mov	 ecx, DWORD PTR ?_pAtlModule@ATL@@3PAVCAtlModule@1@A ; ATL::_pAtlModule
  00017	8b 01		 mov	 eax, DWORD PTR [ecx]
  00019	ff 50 04	 call	 DWORD PTR [eax+4]

; 2936 : 		{
; 2937 : 			// Lock the module to avoid DLL unload when destruction of member variables take a long time
; 2938 : 			ModuleLockHelper lock;
; 2939 : 			delete this;

  0001c	85 f6		 test	 esi, esi
  0001e	74 09		 je	 SHORT $LN4@Release
  00020	8b 16		 mov	 edx, DWORD PTR [esi]
  00022	8b ce		 mov	 ecx, esi
  00024	6a 01		 push	 1
  00026	ff 52 1c	 call	 DWORD PTR [edx+28]
$LN4@Release:

; 2898 : 		_pAtlModule->Unlock();

  00029	8b 0d 00 00 00
	00		 mov	 ecx, DWORD PTR ?_pAtlModule@ATL@@3PAVCAtlModule@1@A ; ATL::_pAtlModule
  0002f	8b 11		 mov	 edx, DWORD PTR [ecx]
  00031	ff 52 08	 call	 DWORD PTR [edx+8]
$LN2@Release:

; 2940 : 		}
; 2941 : 		return l;

  00034	8b c7		 mov	 eax, edi
  00036	5f		 pop	 edi
  00037	5e		 pop	 esi

; 2942 : 	}

  00038	5d		 pop	 ebp
  00039	c2 04 00	 ret	 4
?Release@?$CComObject@V?$CComEnum@UIEnumConnections@@$1?_GUID_b196b287_bab4_101a_b69c_00aa00341d07@@3U__s_GUID@@BUtagCONNECTDATA@@V?$_Copy@UtagCONNECTDATA@@@ATL@@VCComSingleThreadModel@6@@ATL@@@ATL@@UAGKXZ ENDP ; ATL::CComObject<ATL::CComEnum<IEnumConnections,&_GUID_b196b287_bab4_101a_b69c_00aa00341d07,tagCONNECTDATA,ATL::_Copy<tagCONNECTDATA>,ATL::CComSingleThreadModel> >::Release
_TEXT	ENDS
; Function compile flags: /Ogsp
; File C:\Develop\OPOS-CCO\Common\ATL\atlcom.h
; File C:\Program Files (x86)\Microsoft Visual Studio\2019\Community\VC\Tools\MSVC\14.28.29333\atlmfc\include\atlbase.h
; File C:\Develop\OPOS-CCO\Common\ATL\atlcom.h
;	COMDAT ?AddRef@?$CComObject@V?$CComEnum@UIEnumConnections@@$1?_GUID_b196b287_bab4_101a_b69c_00aa00341d07@@3U__s_GUID@@BUtagCONNECTDATA@@V?$_Copy@UtagCONNECTDATA@@@ATL@@VCComSingleThreadModel@6@@ATL@@@ATL@@UAGKXZ
_TEXT	SEGMENT
_this$ = 8						; size = 4
?AddRef@?$CComObject@V?$CComEnum@UIEnumConnections@@$1?_GUID_b196b287_bab4_101a_b69c_00aa00341d07@@3U__s_GUID@@BUtagCONNECTDATA@@V?$_Copy@UtagCONNECTDATA@@@ATL@@VCComSingleThreadModel@6@@ATL@@@ATL@@UAGKXZ PROC ; ATL::CComObject<ATL::CComEnum<IEnumConnections,&_GUID_b196b287_bab4_101a_b69c_00aa00341d07,tagCONNECTDATA,ATL::_Copy<tagCONNECTDATA>,ATL::CComSingleThreadModel> >::AddRef, COMDAT

; 2929 : 	{

  00000	55		 push	 ebp
  00001	8b ec		 mov	 ebp, esp

; 2930 : 		return this->InternalAddRef();

  00003	8b 4d 08	 mov	 ecx, DWORD PTR _this$[ebp]
; File C:\Program Files (x86)\Microsoft Visual Studio\2019\Community\VC\Tools\MSVC\14.28.29333\atlmfc\include\atlbase.h

; 440  : 		return ++(*p);

  00006	8b 41 18	 mov	 eax, DWORD PTR [ecx+24]
  00009	40		 inc	 eax
  0000a	89 41 18	 mov	 DWORD PTR [ecx+24], eax
; File C:\Develop\OPOS-CCO\Common\ATL\atlcom.h

; 2931 : 	}

  0000d	5d		 pop	 ebp
  0000e	c2 04 00	 ret	 4
?AddRef@?$CComObject@V?$CComEnum@UIEnumConnections@@$1?_GUID_b196b287_bab4_101a_b69c_00aa00341d07@@3U__s_GUID@@BUtagCONNECTDATA@@V?$_Copy@UtagCONNECTDATA@@@ATL@@VCComSingleThreadModel@6@@ATL@@@ATL@@UAGKXZ ENDP ; ATL::CComObject<ATL::CComEnum<IEnumConnections,&_GUID_b196b287_bab4_101a_b69c_00aa00341d07,tagCONNECTDATA,ATL::_Copy<tagCONNECTDATA>,ATL::CComSingleThreadModel> >::AddRef
_TEXT	ENDS
; Function compile flags: /Ogsp
; File C:\Develop\OPOS-CCO\Common\ATL\atlcom.h
;	COMDAT ??1?$CComObject@V?$CComEnum@UIEnumConnections@@$1?_GUID_b196b287_bab4_101a_b69c_00aa00341d07@@3U__s_GUID@@BUtagCONNECTDATA@@V?$_Copy@UtagCONNECTDATA@@@ATL@@VCComSingleThreadModel@6@@ATL@@@ATL@@UAE@XZ
_TEXT	SEGMENT
??1?$CComObject@V?$CComEnum@UIEnumConnections@@$1?_GUID_b196b287_bab4_101a_b69c_00aa00341d07@@3U__s_GUID@@BUtagCONNECTDATA@@V?$_Copy@UtagCONNECTDATA@@@ATL@@VCComSingleThreadModel@6@@ATL@@@ATL@@UAE@XZ PROC ; ATL::CComObject<ATL::CComEnum<IEnumConnections,&_GUID_b196b287_bab4_101a_b69c_00aa00341d07,tagCONNECTDATA,ATL::_Copy<tagCONNECTDATA>,ATL::CComSingleThreadModel> >::~CComObject<ATL::CComEnum<IEnumConnections,&_GUID_b196b287_bab4_101a_b69c_00aa00341d07,tagCONNECTDATA,ATL::_Copy<tagCONNECTDATA>,ATL::CComSingleThreadModel> >, COMDAT
; _this$ = ecx

; 2918 : 	{

  00000	56		 push	 esi
  00001	8b f1		 mov	 esi, ecx
  00003	c7 06 00 00 00
	00		 mov	 DWORD PTR [esi], OFFSET ??_7?$CComObject@V?$CComEnum@UIEnumConnections@@$1?_GUID_b196b287_bab4_101a_b69c_00aa00341d07@@3U__s_GUID@@BUtagCONNECTDATA@@V?$_Copy@UtagCONNECTDATA@@@ATL@@VCComSingleThreadModel@6@@ATL@@@ATL@@6B@

; 2919 : 		this->m_dwRef = -(LONG_MAX/2);

  00009	c7 46 18 01 00
	00 c0		 mov	 DWORD PTR [esi+24], -1073741823 ; c0000001H

; 2920 : 		this->FinalRelease();
; 2921 : #if defined(_ATL_DEBUG_INTERFACES) && !defined(_ATL_STATIC_LIB_IMPL)
; 2922 : 		_AtlDebugInterfacesModule.DeleteNonAddRefThunk(_GetRawUnknown());
; 2923 : #endif
; 2924 : 		_pAtlModule->Unlock();

  00010	8b 0d 00 00 00
	00		 mov	 ecx, DWORD PTR ?_pAtlModule@ATL@@3PAVCAtlModule@1@A ; ATL::_pAtlModule
  00016	8b 01		 mov	 eax, DWORD PTR [ecx]
  00018	ff 50 08	 call	 DWORD PTR [eax+8]
  0001b	8b ce		 mov	 ecx, esi
  0001d	5e		 pop	 esi
  0001e	e9 00 00 00 00	 jmp	 ??1?$CComEnumImpl@UIEnumConnections@@$1?_GUID_b196b287_bab4_101a_b69c_00aa00341d07@@3U__s_GUID@@BUtagCONNECTDATA@@V?$_Copy@UtagCONNECTDATA@@@ATL@@@ATL@@UAE@XZ ; ATL::CComEnumImpl<IEnumConnections,&_GUID_b196b287_bab4_101a_b69c_00aa00341d07,tagCONNECTDATA,ATL::_Copy<tagCONNECTDATA> >::~CComEnumImpl<IEnumConnections,&_GUID_b196b287_bab4_101a_b69c_00aa00341d07,tagCONNECTDATA,ATL::_Copy<tagCONNECTDATA> >
??1?$CComObject@V?$CComEnum@UIEnumConnections@@$1?_GUID_b196b287_bab4_101a_b69c_00aa00341d07@@3U__s_GUID@@BUtagCONNECTDATA@@V?$_Copy@UtagCONNECTDATA@@@ATL@@VCComSingleThreadModel@6@@ATL@@@ATL@@UAE@XZ ENDP ; ATL::CComObject<ATL::CComEnum<IEnumConnections,&_GUID_b196b287_bab4_101a_b69c_00aa00341d07,tagCONNECTDATA,ATL::_Copy<tagCONNECTDATA>,ATL::CComSingleThreadModel> >::~CComObject<ATL::CComEnum<IEnumConnections,&_GUID_b196b287_bab4_101a_b69c_00aa00341d07,tagCONNECTDATA,ATL::_Copy<tagCONNECTDATA>,ATL::CComSingleThreadModel> >
_TEXT	ENDS
; Function compile flags: /Ogsp
; File C:\Develop\OPOS-CCO\Common\ATL\atlcom.h
; File C:\Program Files (x86)\Microsoft Visual Studio\2019\Community\VC\Tools\MSVC\14.28.29333\atlmfc\include\atlcomcli.h
; File C:\Develop\OPOS-CCO\Common\ATL\atlcom.h
; File C:\Program Files (x86)\Microsoft Visual Studio\2019\Community\VC\Tools\MSVC\14.28.29333\atlmfc\include\atlcomcli.h
; File C:\Develop\OPOS-CCO\Common\ATL\atlcom.h
;	COMDAT ??0?$CComObject@V?$CComEnum@UIEnumConnections@@$1?_GUID_b196b287_bab4_101a_b69c_00aa00341d07@@3U__s_GUID@@BUtagCONNECTDATA@@V?$_Copy@UtagCONNECTDATA@@@ATL@@VCComSingleThreadModel@6@@ATL@@@ATL@@QAE@PAX@Z
_TEXT	SEGMENT
___formal$ = 8						; size = 4
??0?$CComObject@V?$CComEnum@UIEnumConnections@@$1?_GUID_b196b287_bab4_101a_b69c_00aa00341d07@@3U__s_GUID@@BUtagCONNECTDATA@@V?$_Copy@UtagCONNECTDATA@@@ATL@@VCComSingleThreadModel@6@@ATL@@@ATL@@QAE@PAX@Z PROC ; ATL::CComObject<ATL::CComEnum<IEnumConnections,&_GUID_b196b287_bab4_101a_b69c_00aa00341d07,tagCONNECTDATA,ATL::_Copy<tagCONNECTDATA>,ATL::CComSingleThreadModel> >::CComObject<ATL::CComEnum<IEnumConnections,&_GUID_b196b287_bab4_101a_b69c_00aa00341d07,tagCONNECTDATA,ATL::_Copy<tagCONNECTDATA>,ATL::CComSingleThreadModel> >, COMDAT
; _this$ = ecx
; File C:\Program Files (x86)\Microsoft Visual Studio\2019\Community\VC\Tools\MSVC\14.28.29333\atlmfc\include\atlcomcli.h

; 165  :         p = NULL;

  00000	33 c0		 xor	 eax, eax
; File C:\Develop\OPOS-CCO\Common\ATL\atlcom.h

; 2911 : 	CComObject(_In_opt_ void* = NULL)

  00002	56		 push	 esi
  00003	8b f1		 mov	 esi, ecx
; File C:\Program Files (x86)\Microsoft Visual Studio\2019\Community\VC\Tools\MSVC\14.28.29333\atlmfc\include\atlcomcli.h

; 165  :         p = NULL;

  00005	89 46 04	 mov	 DWORD PTR [esi+4], eax
; File C:\Develop\OPOS-CCO\Common\ATL\atlcom.h

; 5501 : 		m_begin = m_end = m_iter = NULL;

  00008	89 46 10	 mov	 DWORD PTR [esi+16], eax
  0000b	89 46 0c	 mov	 DWORD PTR [esi+12], eax
  0000e	89 46 08	 mov	 DWORD PTR [esi+8], eax

; 5502 : 		m_dwFlags = 0;

  00011	89 46 14	 mov	 DWORD PTR [esi+20], eax

; 2430 : 		m_dwRef = 0L;

  00014	89 46 18	 mov	 DWORD PTR [esi+24], eax

; 2912 : 	{

  00017	c7 06 00 00 00
	00		 mov	 DWORD PTR [esi], OFFSET ??_7?$CComObject@V?$CComEnum@UIEnumConnections@@$1?_GUID_b196b287_bab4_101a_b69c_00aa00341d07@@3U__s_GUID@@BUtagCONNECTDATA@@V?$_Copy@UtagCONNECTDATA@@@ATL@@VCComSingleThreadModel@6@@ATL@@@ATL@@6B@

; 2913 : 		_pAtlModule->Lock();

  0001d	8b 0d 00 00 00
	00		 mov	 ecx, DWORD PTR ?_pAtlModule@ATL@@3PAVCAtlModule@1@A ; ATL::_pAtlModule
  00023	8b 01		 mov	 eax, DWORD PTR [ecx]
  00025	ff 50 04	 call	 DWORD PTR [eax+4]

; 2914 : 	}

  00028	8b c6		 mov	 eax, esi
  0002a	5e		 pop	 esi
  0002b	c2 04 00	 ret	 4
??0?$CComObject@V?$CComEnum@UIEnumConnections@@$1?_GUID_b196b287_bab4_101a_b69c_00aa00341d07@@3U__s_GUID@@BUtagCONNECTDATA@@V?$_Copy@UtagCONNECTDATA@@@ATL@@VCComSingleThreadModel@6@@ATL@@@ATL@@QAE@PAX@Z ENDP ; ATL::CComObject<ATL::CComEnum<IEnumConnections,&_GUID_b196b287_bab4_101a_b69c_00aa00341d07,tagCONNECTDATA,ATL::_Copy<tagCONNECTDATA>,ATL::CComSingleThreadModel> >::CComObject<ATL::CComEnum<IEnumConnections,&_GUID_b196b287_bab4_101a_b69c_00aa00341d07,tagCONNECTDATA,ATL::_Copy<tagCONNECTDATA>,ATL::CComSingleThreadModel> >
_TEXT	ENDS
; Function compile flags: /Ogsp
; File C:\Develop\OPOS-CCO\Common\ATL\atlcom.h
;	COMDAT ?Init@?$CComEnumImpl@UIEnumConnections@@$1?_GUID_b196b287_bab4_101a_b69c_00aa00341d07@@3U__s_GUID@@BUtagCONNECTDATA@@V?$_Copy@UtagCONNECTDATA@@@ATL@@@ATL@@QAEJPAUtagCONNECTDATA@@0PAUIUnknown@@W4CComEnumFlags@2@@Z
_TEXT	SEGMENT
_hr$1$ = 8						; size = 4
_begin$ = 8						; size = 4
_end$ = 12						; size = 4
_pUnk$ = 16						; size = 4
tv427 = 20						; size = 4
_flags$ = 20						; size = 4
?Init@?$CComEnumImpl@UIEnumConnections@@$1?_GUID_b196b287_bab4_101a_b69c_00aa00341d07@@3U__s_GUID@@BUtagCONNECTDATA@@V?$_Copy@UtagCONNECTDATA@@@ATL@@@ATL@@QAEJPAUtagCONNECTDATA@@0PAUIUnknown@@W4CComEnumFlags@2@@Z PROC ; ATL::CComEnumImpl<IEnumConnections,&_GUID_b196b287_bab4_101a_b69c_00aa00341d07,tagCONNECTDATA,ATL::_Copy<tagCONNECTDATA> >::Init, COMDAT
; _this$ = ecx

; 5627 : {

  00000	55		 push	 ebp
  00001	8b ec		 mov	 ebp, esp
  00003	53		 push	 ebx

; 5628 : 	if (flags == AtlFlagCopy)

  00004	8b 5d 14	 mov	 ebx, DWORD PTR _flags$[ebp]
  00007	56		 push	 esi
  00008	8b f1		 mov	 esi, ecx
  0000a	57		 push	 edi
  0000b	83 fb 03	 cmp	 ebx, 3
  0000e	0f 85 a2 00 00
	00		 jne	 $LN10@Init

; 5629 : 	{
; 5630 : 		ATLASSUME(m_begin == NULL); //Init called twice?
; 5631 : 		ATLTRY(m_begin = _ATL_NEW T[end-begin])

  00014	8b 45 0c	 mov	 eax, DWORD PTR _end$[ebp]
  00017	33 c9		 xor	 ecx, ecx
  00019	8b 7d 08	 mov	 edi, DWORD PTR _begin$[ebp]
  0001c	2b c7		 sub	 eax, edi
  0001e	68 00 00 00 00	 push	 OFFSET ?nothrow@std@@3Unothrow_t@1@B ; std::nothrow
  00023	c1 f8 03	 sar	 eax, 3
  00026	6a 08		 push	 8
  00028	5a		 pop	 edx
  00029	89 45 14	 mov	 DWORD PTR tv427[ebp], eax
  0002c	f7 e2		 mul	 edx
  0002e	0f 90 c1	 seto	 cl
  00031	f7 d9		 neg	 ecx
  00033	0b c8		 or	 ecx, eax
  00035	51		 push	 ecx
  00036	e8 00 00 00 00	 call	 ??_U@YAPAXIABUnothrow_t@std@@@Z ; operator new[]
  0003b	89 46 08	 mov	 DWORD PTR [esi+8], eax

; 5632 : 		m_iter = m_begin;

  0003e	89 46 10	 mov	 DWORD PTR [esi+16], eax
  00041	59		 pop	 ecx
  00042	59		 pop	 ecx

; 5633 : 		if (m_begin == NULL)

  00043	85 c0		 test	 eax, eax
  00045	75 0a		 jne	 SHORT $LN12@Init

; 5634 : 			return E_OUTOFMEMORY;

  00047	b8 0e 00 07 80	 mov	 eax, -2147024882	; 8007000eH
  0004c	e9 87 00 00 00	 jmp	 $LN1@Init
$LN12@Init:

; 5635 : 		for (T* i=begin; i != end; i++)

  00051	3b 7d 0c	 cmp	 edi, DWORD PTR _end$[ebp]
  00054	74 22		 je	 SHORT $LN27@Init
$LL7@Init:

; 5636 : 		{
; 5637 : 			Copy::init(m_iter);
; 5638 : 			HRESULT hr = Copy::copy(m_iter, i);

  00056	57		 push	 edi
  00057	50		 push	 eax
  00058	e8 00 00 00 00	 call	 ?copy@?$_Copy@UtagCONNECTDATA@@@ATL@@SAJPAUtagCONNECTDATA@@PBU3@@Z ; ATL::_Copy<tagCONNECTDATA>::copy
  0005d	89 45 08	 mov	 DWORD PTR _hr$1$[ebp], eax
  00060	59		 pop	 ecx
  00061	59		 pop	 ecx

; 5639 : 			if (FAILED(hr))

  00062	85 c0		 test	 eax, eax
  00064	78 1a		 js	 SHORT $LN20@Init

; 5647 : 			}
; 5648 : 			m_iter++;

  00066	83 46 10 08	 add	 DWORD PTR [esi+16], 8
  0006a	83 c7 08	 add	 edi, 8
  0006d	8b 46 10	 mov	 eax, DWORD PTR [esi+16]
  00070	3b 7d 0c	 cmp	 edi, DWORD PTR _end$[ebp]
  00073	75 e1		 jne	 SHORT $LL7@Init

; 5639 : 			if (FAILED(hr))

  00075	8b 46 08	 mov	 eax, DWORD PTR [esi+8]
$LN27@Init:

; 5649 : 		}
; 5650 : 		m_end = m_begin + (end-begin);

  00078	8b 4d 14	 mov	 ecx, DWORD PTR tv427[ebp]
  0007b	8d 04 c8	 lea	 eax, DWORD PTR [eax+ecx*8]

; 5651 : 	}

  0007e	eb 3f		 jmp	 SHORT $LN11@Init
$LN20@Init:

; 5640 : 			{
; 5641 : 				T* p = m_begin;

  00080	8b 7e 08	 mov	 edi, DWORD PTR [esi+8]

; 5642 : 				while (p < m_iter)

  00083	3b 7e 10	 cmp	 edi, DWORD PTR [esi+16]
  00086	73 17		 jae	 SHORT $LN9@Init
$LL8@Init:

; 5436 : 		if (p->pUnk)

  00088	8b 0f		 mov	 ecx, DWORD PTR [edi]
  0008a	85 c9		 test	 ecx, ecx
  0008c	74 06		 je	 SHORT $LN16@Init

; 5437 : 		{
; 5438 : 			p->pUnk->Release();

  0008e	8b 01		 mov	 eax, DWORD PTR [ecx]
  00090	51		 push	 ecx
  00091	ff 50 08	 call	 DWORD PTR [eax+8]
$LN16@Init:

; 5643 : 					Copy::destroy(p++);

  00094	83 c7 08	 add	 edi, 8
  00097	3b 7e 10	 cmp	 edi, DWORD PTR [esi+16]
  0009a	72 ec		 jb	 SHORT $LL8@Init
  0009c	8b 7e 08	 mov	 edi, DWORD PTR [esi+8]
$LN9@Init:

; 5644 : 				delete [] m_begin;

  0009f	57		 push	 edi
  000a0	e8 00 00 00 00	 call	 ??_V@YAXPAX@Z		; operator delete[]

; 5645 : 				m_begin = m_end = m_iter = NULL;

  000a5	33 c0		 xor	 eax, eax
  000a7	89 46 10	 mov	 DWORD PTR [esi+16], eax
  000aa	89 46 0c	 mov	 DWORD PTR [esi+12], eax
  000ad	89 46 08	 mov	 DWORD PTR [esi+8], eax

; 5646 : 				return hr;

  000b0	8b 45 08	 mov	 eax, DWORD PTR _hr$1$[ebp]
  000b3	59		 pop	 ecx
  000b4	eb 22		 jmp	 SHORT $LN1@Init
$LN10@Init:

; 5652 : 	else
; 5653 : 	{
; 5654 : 		m_begin = begin;

  000b6	8b 45 08	 mov	 eax, DWORD PTR _begin$[ebp]
  000b9	89 46 08	 mov	 DWORD PTR [esi+8], eax

; 5655 : 		m_end = end;

  000bc	8b 45 0c	 mov	 eax, DWORD PTR _end$[ebp]
$LN11@Init:

; 5656 : 	}
; 5657 : 	m_spUnk = pUnk;

  000bf	ff 75 10	 push	 DWORD PTR _pUnk$[ebp]
  000c2	8d 4e 04	 lea	 ecx, DWORD PTR [esi+4]
  000c5	89 46 0c	 mov	 DWORD PTR [esi+12], eax
  000c8	e8 00 00 00 00	 call	 ??4?$CComPtr@UIUnknown@@@ATL@@QAEPAUIUnknown@@PAU2@@Z ; ATL::CComPtr<IUnknown>::operator=

; 5658 : 	m_iter = m_begin;

  000cd	8b 46 08	 mov	 eax, DWORD PTR [esi+8]
  000d0	89 46 10	 mov	 DWORD PTR [esi+16], eax

; 5659 : 	m_dwFlags = flags;
; 5660 : 	return S_OK;

  000d3	33 c0		 xor	 eax, eax
  000d5	89 5e 14	 mov	 DWORD PTR [esi+20], ebx
$LN1@Init:

; 5661 : }

  000d8	5f		 pop	 edi
  000d9	5e		 pop	 esi
  000da	5b		 pop	 ebx
  000db	5d		 pop	 ebp
  000dc	c2 10 00	 ret	 16			; 00000010H
?Init@?$CComEnumImpl@UIEnumConnections@@$1?_GUID_b196b287_bab4_101a_b69c_00aa00341d07@@3U__s_GUID@@BUtagCONNECTDATA@@V?$_Copy@UtagCONNECTDATA@@@ATL@@@ATL@@QAEJPAUtagCONNECTDATA@@0PAUIUnknown@@W4CComEnumFlags@2@@Z ENDP ; ATL::CComEnumImpl<IEnumConnections,&_GUID_b196b287_bab4_101a_b69c_00aa00341d07,tagCONNECTDATA,ATL::_Copy<tagCONNECTDATA> >::Init
_TEXT	ENDS
; Function compile flags: /Ogsp
; File C:\Develop\OPOS-CCO\Common\ATL\atlcom.h
; File C:\Program Files (x86)\Microsoft Visual Studio\2019\Community\VC\Tools\MSVC\14.28.29333\atlmfc\include\atlcomcli.h
; File C:\Develop\OPOS-CCO\Common\ATL\atlcom.h
; File C:\Program Files (x86)\Microsoft Visual Studio\2019\Community\VC\Tools\MSVC\14.28.29333\atlmfc\include\atlcomcli.h
; File C:\Develop\OPOS-CCO\Common\ATL\atlcom.h
; File C:\Program Files (x86)\Microsoft Visual Studio\2019\Community\VC\Tools\MSVC\14.28.29333\atlmfc\include\atlcomcli.h
; File C:\Develop\OPOS-CCO\Common\ATL\atlcom.h
; File C:\Program Files (x86)\Microsoft Visual Studio\2019\Community\VC\Tools\MSVC\14.28.29333\atlmfc\include\atlcomcli.h
; File C:\Develop\OPOS-CCO\Common\ATL\atlcom.h
;	COMDAT ?Clone@?$CComEnumImpl@UIEnumConnections@@$1?_GUID_b196b287_bab4_101a_b69c_00aa00341d07@@3U__s_GUID@@BUtagCONNECTDATA@@V?$_Copy@UtagCONNECTDATA@@@ATL@@@ATL@@UAGJPAPAUIEnumConnections@@@Z
_TEXT	SEGMENT
$T1 = -8						; size = 4
_p$2 = -8						; size = 4
$T3 = -4						; size = 4
$T4 = 8							; size = 4
$T5 = 8							; size = 4
_this$ = 8						; size = 4
_ppEnum$ = 12						; size = 4
?Clone@?$CComEnumImpl@UIEnumConnections@@$1?_GUID_b196b287_bab4_101a_b69c_00aa00341d07@@3U__s_GUID@@BUtagCONNECTDATA@@V?$_Copy@UtagCONNECTDATA@@@ATL@@@ATL@@UAGJPAPAUIEnumConnections@@@Z PROC ; ATL::CComEnumImpl<IEnumConnections,&_GUID_b196b287_bab4_101a_b69c_00aa00341d07,tagCONNECTDATA,ATL::_Copy<tagCONNECTDATA> >::Clone, COMDAT

; 5596 : {

  00000	55		 push	 ebp
  00001	8b ec		 mov	 ebp, esp
  00003	51		 push	 ecx
  00004	51		 push	 ecx
  00005	83 65 f8 00	 and	 DWORD PTR $T1[ebp], 0

; 5597 : 	typedef CComObject<CComEnum<Base, piid, T, Copy> > _class;
; 5598 : 	HRESULT hRes = E_POINTER;
; 5599 : 	if (ppEnum != NULL)

  00009	8b 45 0c	 mov	 eax, DWORD PTR _ppEnum$[ebp]
  0000c	53		 push	 ebx
  0000d	bb 03 40 00 80	 mov	 ebx, -2147467261	; 80004003H
  00012	85 c0		 test	 eax, eax
  00014	0f 84 c0 00 00
	00		 je	 $LN9@Clone

; 5600 : 	{
; 5601 : 		*ppEnum = NULL;

  0001a	83 20 00	 and	 DWORD PTR [eax], 0

; 5602 : 		_class* p;
; 5603 : 		hRes = _class::CreateInstance(&p);

  0001d	8d 45 f8	 lea	 eax, DWORD PTR _p$2[ebp]
  00020	50		 push	 eax
  00021	e8 00 00 00 00	 call	 ?CreateInstance@?$CComObject@V?$CComEnum@UIEnumConnections@@$1?_GUID_b196b287_bab4_101a_b69c_00aa00341d07@@3U__s_GUID@@BUtagCONNECTDATA@@V?$_Copy@UtagCONNECTDATA@@@ATL@@VCComSingleThreadModel@6@@ATL@@@ATL@@SGJPAPAV12@@Z ; ATL::CComObject<ATL::CComEnum<IEnumConnections,&_GUID_b196b287_bab4_101a_b69c_00aa00341d07,tagCONNECTDATA,ATL::_Copy<tagCONNECTDATA>,ATL::CComSingleThreadModel> >::CreateInstance
  00026	8b d8		 mov	 ebx, eax

; 5604 : 		if (SUCCEEDED(hRes))

  00028	85 db		 test	 ebx, ebx
  0002a	0f 88 aa 00 00
	00		 js	 $LN9@Clone

; 5607 : 			hRes = p->Init(m_begin, m_end, (m_dwFlags & BitOwn) ? this : m_spUnk);

  00030	8b 5d 08	 mov	 ebx, DWORD PTR _this$[ebp]
  00033	56		 push	 esi
  00034	57		 push	 edi
  00035	f6 43 14 02	 test	 BYTE PTR [ebx+20], 2
  00039	74 12		 je	 SHORT $LN7@Clone
; File C:\Program Files (x86)\Microsoft Visual Studio\2019\Community\VC\Tools\MSVC\14.28.29333\atlmfc\include\atlcomcli.h

; 171  :             p->AddRef();

  0003b	8b 03		 mov	 eax, DWORD PTR [ebx]
  0003d	8b fb		 mov	 edi, ebx
  0003f	53		 push	 ebx
  00040	ff 50 04	 call	 DWORD PTR [eax+4]
; File C:\Develop\OPOS-CCO\Common\ATL\atlcom.h

; 5607 : 			hRes = p->Init(m_begin, m_end, (m_dwFlags & BitOwn) ? this : m_spUnk);

  00043	8b 75 08	 mov	 esi, DWORD PTR $T4[ebp]
  00046	33 c9		 xor	 ecx, ecx
  00048	8b c3		 mov	 eax, ebx
  0004a	41		 inc	 ecx
  0004b	eb 17		 jmp	 SHORT $LN40@Clone
$LN7@Clone:
; File C:\Program Files (x86)\Microsoft Visual Studio\2019\Community\VC\Tools\MSVC\14.28.29333\atlmfc\include\atlcomcli.h

; 169  :         p = lp;

  0004d	8b 43 04	 mov	 eax, DWORD PTR [ebx+4]
  00050	8b f0		 mov	 esi, eax
  00052	85 c0		 test	 eax, eax

; 170  :         if (p != NULL)

  00054	74 08		 je	 SHORT $LN21@Clone

; 171  :             p->AddRef();

  00056	8b 06		 mov	 eax, DWORD PTR [esi]
  00058	56		 push	 esi
  00059	ff 50 04	 call	 DWORD PTR [eax+4]
  0005c	8b c6		 mov	 eax, esi
$LN21@Clone:
; File C:\Develop\OPOS-CCO\Common\ATL\atlcom.h

; 5607 : 			hRes = p->Init(m_begin, m_end, (m_dwFlags & BitOwn) ? this : m_spUnk);

  0005e	8b 7d 08	 mov	 edi, DWORD PTR $T5[ebp]
  00061	6a 02		 push	 2
  00063	59		 pop	 ecx
$LN40@Clone:
  00064	6a 00		 push	 0
  00066	50		 push	 eax
  00067	ff 73 0c	 push	 DWORD PTR [ebx+12]
  0006a	89 4d fc	 mov	 DWORD PTR $T3[ebp], ecx
  0006d	ff 73 08	 push	 DWORD PTR [ebx+8]
  00070	8b 4d f8	 mov	 ecx, DWORD PTR _p$2[ebp]
  00073	e8 00 00 00 00	 call	 ?Init@?$CComEnumImpl@UIEnumConnections@@$1?_GUID_b196b287_bab4_101a_b69c_00aa00341d07@@3U__s_GUID@@BUtagCONNECTDATA@@V?$_Copy@UtagCONNECTDATA@@@ATL@@@ATL@@QAEJPAUtagCONNECTDATA@@0PAUIUnknown@@W4CComEnumFlags@2@@Z ; ATL::CComEnumImpl<IEnumConnections,&_GUID_b196b287_bab4_101a_b69c_00aa00341d07,tagCONNECTDATA,ATL::_Copy<tagCONNECTDATA> >::Init
  00078	8b d8		 mov	 ebx, eax
  0007a	8b 45 fc	 mov	 eax, DWORD PTR $T3[ebp]
  0007d	a8 02		 test	 al, 2
  0007f	74 13		 je	 SHORT $LN26@Clone
  00081	83 e0 fd	 and	 eax, -3			; fffffffdH
  00084	89 45 fc	 mov	 DWORD PTR $T3[ebp], eax
; File C:\Program Files (x86)\Microsoft Visual Studio\2019\Community\VC\Tools\MSVC\14.28.29333\atlmfc\include\atlcomcli.h

; 183  :         if (p)

  00087	85 f6		 test	 esi, esi
  00089	74 09		 je	 SHORT $LN26@Clone

; 184  :             p->Release();

  0008b	8b 06		 mov	 eax, DWORD PTR [esi]
  0008d	56		 push	 esi
  0008e	ff 50 08	 call	 DWORD PTR [eax+8]
  00091	8b 45 fc	 mov	 eax, DWORD PTR $T3[ebp]
$LN26@Clone:
; File C:\Develop\OPOS-CCO\Common\ATL\atlcom.h

; 5607 : 			hRes = p->Init(m_begin, m_end, (m_dwFlags & BitOwn) ? this : m_spUnk);

  00094	a8 01		 test	 al, 1
  00096	74 0a		 je	 SHORT $LN31@Clone
; File C:\Program Files (x86)\Microsoft Visual Studio\2019\Community\VC\Tools\MSVC\14.28.29333\atlmfc\include\atlcomcli.h

; 183  :         if (p)

  00098	85 ff		 test	 edi, edi
  0009a	74 06		 je	 SHORT $LN31@Clone

; 184  :             p->Release();

  0009c	8b 07		 mov	 eax, DWORD PTR [edi]
  0009e	57		 push	 edi
  0009f	ff 50 08	 call	 DWORD PTR [eax+8]
$LN31@Clone:
; File C:\Develop\OPOS-CCO\Common\ATL\atlcom.h

; 5608 : 			if (SUCCEEDED(hRes))

  000a2	8b 75 f8	 mov	 esi, DWORD PTR _p$2[ebp]
  000a5	85 db		 test	 ebx, ebx
  000a7	78 22		 js	 SHORT $LN37@Clone

; 2487 : 		HRESULT hRes = AtlInternalQueryInterface(pThis, pEntries, iid, ppvObject);

  000a9	ff 75 0c	 push	 DWORD PTR _ppEnum$[ebp]

; 5609 : 			{
; 5610 : 				p->m_iter = m_iter;

  000ac	8b 45 08	 mov	 eax, DWORD PTR _this$[ebp]

; 2487 : 		HRESULT hRes = AtlInternalQueryInterface(pThis, pEntries, iid, ppvObject);

  000af	68 00 00 00 00	 push	 OFFSET __GUID_b196b287_bab4_101a_b69c_00aa00341d07
  000b4	68 00 00 00 00	 push	 OFFSET ?_entries@?1??_GetEntries@?$CComEnum@UIEnumConnections@@$1?_GUID_b196b287_bab4_101a_b69c_00aa00341d07@@3U__s_GUID@@BUtagCONNECTDATA@@V?$_Copy@UtagCONNECTDATA@@@ATL@@VCComSingleThreadModel@6@@ATL@@SGPBU_ATL_INTMAP_ENTRY@3@XZ@4QBU43@B ; `ATL::CComEnum<IEnumConnections,&_GUID_b196b287_bab4_101a_b69c_00aa00341d07,tagCONNECTDATA,ATL::_Copy<tagCONNECTDATA>,ATL::CComSingleThreadModel>::_GetEntries'::`2'::_entries
  000b9	56		 push	 esi

; 5609 : 			{
; 5610 : 				p->m_iter = m_iter;

  000ba	8b 40 10	 mov	 eax, DWORD PTR [eax+16]
  000bd	89 46 10	 mov	 DWORD PTR [esi+16], eax

; 2487 : 		HRESULT hRes = AtlInternalQueryInterface(pThis, pEntries, iid, ppvObject);

  000c0	e8 00 00 00 00	 call	 ?AtlInternalQueryInterface@ATL@@YGJPAXPBU_ATL_INTMAP_ENTRY@1@ABU_GUID@@PAPAX@Z ; ATL::AtlInternalQueryInterface

; 5611 : 				hRes = p->_InternalQueryInterface(*piid, (void**)ppEnum);

  000c5	8b d8		 mov	 ebx, eax

; 5612 : 			}
; 5613 : 			if (FAILED(hRes))

  000c7	85 db		 test	 ebx, ebx
  000c9	79 0d		 jns	 SHORT $LN39@Clone
$LN37@Clone:

; 5614 : 				delete p;

  000cb	85 f6		 test	 esi, esi
  000cd	74 09		 je	 SHORT $LN39@Clone
  000cf	8b 06		 mov	 eax, DWORD PTR [esi]
  000d1	8b ce		 mov	 ecx, esi
  000d3	6a 01		 push	 1
  000d5	ff 50 1c	 call	 DWORD PTR [eax+28]
$LN39@Clone:
  000d8	5f		 pop	 edi
  000d9	5e		 pop	 esi
$LN9@Clone:

; 5615 : 		}
; 5616 : 	}
; 5617 : 
; 5618 : 	return hRes;

  000da	8b c3		 mov	 eax, ebx
  000dc	5b		 pop	 ebx

; 5619 : }

  000dd	c9		 leave
  000de	c2 08 00	 ret	 8
?Clone@?$CComEnumImpl@UIEnumConnections@@$1?_GUID_b196b287_bab4_101a_b69c_00aa00341d07@@3U__s_GUID@@BUtagCONNECTDATA@@V?$_Copy@UtagCONNECTDATA@@@ATL@@@ATL@@UAGJPAPAUIEnumConnections@@@Z ENDP ; ATL::CComEnumImpl<IEnumConnections,&_GUID_b196b287_bab4_101a_b69c_00aa00341d07,tagCONNECTDATA,ATL::_Copy<tagCONNECTDATA> >::Clone
_TEXT	ENDS
; Function compile flags: /Ogsp
; File C:\Develop\OPOS-CCO\Common\ATL\atlcom.h
;	COMDAT ?Reset@?$CComEnumImpl@UIEnumConnections@@$1?_GUID_b196b287_bab4_101a_b69c_00aa00341d07@@3U__s_GUID@@BUtagCONNECTDATA@@V?$_Copy@UtagCONNECTDATA@@@ATL@@@ATL@@UAGJXZ
_TEXT	SEGMENT
_this$ = 8						; size = 4
?Reset@?$CComEnumImpl@UIEnumConnections@@$1?_GUID_b196b287_bab4_101a_b69c_00aa00341d07@@3U__s_GUID@@BUtagCONNECTDATA@@V?$_Copy@UtagCONNECTDATA@@@ATL@@@ATL@@UAGJXZ PROC ; ATL::CComEnumImpl<IEnumConnections,&_GUID_b196b287_bab4_101a_b69c_00aa00341d07,tagCONNECTDATA,ATL::_Copy<tagCONNECTDATA> >::Reset, COMDAT

; 5512 : 	{

  00000	55		 push	 ebp
  00001	8b ec		 mov	 ebp, esp

; 5513 : 		m_iter = m_begin;

  00003	8b 4d 08	 mov	 ecx, DWORD PTR _this$[ebp]
  00006	8b 41 08	 mov	 eax, DWORD PTR [ecx+8]
  00009	89 41 10	 mov	 DWORD PTR [ecx+16], eax

; 5514 : 		return S_OK;

  0000c	33 c0		 xor	 eax, eax

; 5515 : 	}

  0000e	5d		 pop	 ebp
  0000f	c2 04 00	 ret	 4
?Reset@?$CComEnumImpl@UIEnumConnections@@$1?_GUID_b196b287_bab4_101a_b69c_00aa00341d07@@3U__s_GUID@@BUtagCONNECTDATA@@V?$_Copy@UtagCONNECTDATA@@@ATL@@@ATL@@UAGJXZ ENDP ; ATL::CComEnumImpl<IEnumConnections,&_GUID_b196b287_bab4_101a_b69c_00aa00341d07,tagCONNECTDATA,ATL::_Copy<tagCONNECTDATA> >::Reset
_TEXT	ENDS
; Function compile flags: /Ogsp
; File C:\Develop\OPOS-CCO\Common\ATL\atlcom.h
;	COMDAT ?Skip@?$CComEnumImpl@UIEnumConnections@@$1?_GUID_b196b287_bab4_101a_b69c_00aa00341d07@@3U__s_GUID@@BUtagCONNECTDATA@@V?$_Copy@UtagCONNECTDATA@@@ATL@@@ATL@@UAGJK@Z
_TEXT	SEGMENT
_this$ = 8						; size = 4
_celt$ = 12						; size = 4
?Skip@?$CComEnumImpl@UIEnumConnections@@$1?_GUID_b196b287_bab4_101a_b69c_00aa00341d07@@3U__s_GUID@@BUtagCONNECTDATA@@V?$_Copy@UtagCONNECTDATA@@@ATL@@@ATL@@UAGJK@Z PROC ; ATL::CComEnumImpl<IEnumConnections,&_GUID_b196b287_bab4_101a_b69c_00aa00341d07,tagCONNECTDATA,ATL::_Copy<tagCONNECTDATA> >::Skip, COMDAT

; 5586 : {

  00000	55		 push	 ebp
  00001	8b ec		 mov	 ebp, esp

; 5587 : 	ULONG nRem = ULONG(m_end - m_iter);
; 5588 : 	ULONG nSkip = (celt > nRem) ? nRem : celt;

  00003	8b 4d 0c	 mov	 ecx, DWORD PTR _celt$[ebp]
  00006	56		 push	 esi
  00007	8b 75 08	 mov	 esi, DWORD PTR _this$[ebp]
  0000a	8b 56 10	 mov	 edx, DWORD PTR [esi+16]
  0000d	8b 46 0c	 mov	 eax, DWORD PTR [esi+12]
  00010	2b c2		 sub	 eax, edx
  00012	c1 f8 03	 sar	 eax, 3
  00015	3b c8		 cmp	 ecx, eax
  00017	0f 47 c8	 cmova	 ecx, eax

; 5589 : 	m_iter += nSkip;

  0001a	8d 04 ca	 lea	 eax, DWORD PTR [edx+ecx*8]
  0001d	89 46 10	 mov	 DWORD PTR [esi+16], eax

; 5590 : 	return (celt == nSkip) ? S_OK : S_FALSE;

  00020	33 c0		 xor	 eax, eax
  00022	39 4d 0c	 cmp	 DWORD PTR _celt$[ebp], ecx
  00025	5e		 pop	 esi
  00026	0f 95 c0	 setne	 al

; 5591 : }

  00029	5d		 pop	 ebp
  0002a	c2 08 00	 ret	 8
?Skip@?$CComEnumImpl@UIEnumConnections@@$1?_GUID_b196b287_bab4_101a_b69c_00aa00341d07@@3U__s_GUID@@BUtagCONNECTDATA@@V?$_Copy@UtagCONNECTDATA@@@ATL@@@ATL@@UAGJK@Z ENDP ; ATL::CComEnumImpl<IEnumConnections,&_GUID_b196b287_bab4_101a_b69c_00aa00341d07,tagCONNECTDATA,ATL::_Copy<tagCONNECTDATA> >::Skip
_TEXT	ENDS
; Function compile flags: /Ogsp
; File C:\Develop\OPOS-CCO\Common\ATL\atlcom.h
;	COMDAT ?Next@?$CComEnumImpl@UIEnumConnections@@$1?_GUID_b196b287_bab4_101a_b69c_00aa00341d07@@3U__s_GUID@@BUtagCONNECTDATA@@V?$_Copy@UtagCONNECTDATA@@@ATL@@@ATL@@UAGJKPAUtagCONNECTDATA@@PAK@Z
_TEXT	SEGMENT
_this$ = 8						; size = 4
_hr$1$ = 12						; size = 4
_celt$ = 12						; size = 4
tv294 = 16						; size = 4
_rgelt$ = 16						; size = 4
_pelt$1$ = 20						; size = 4
_pceltFetched$ = 20					; size = 4
?Next@?$CComEnumImpl@UIEnumConnections@@$1?_GUID_b196b287_bab4_101a_b69c_00aa00341d07@@3U__s_GUID@@BUtagCONNECTDATA@@V?$_Copy@UtagCONNECTDATA@@@ATL@@@ATL@@UAGJKPAUtagCONNECTDATA@@PAK@Z PROC ; ATL::CComEnumImpl<IEnumConnections,&_GUID_b196b287_bab4_101a_b69c_00aa00341d07,tagCONNECTDATA,ATL::_Copy<tagCONNECTDATA> >::Next, COMDAT

; 5552 : {

  00000	55		 push	 ebp
  00001	8b ec		 mov	 ebp, esp
  00003	53		 push	 ebx
  00004	56		 push	 esi
  00005	57		 push	 edi

; 5553 : 	if (pceltFetched != NULL)

  00006	8b 7d 14	 mov	 edi, DWORD PTR _pceltFetched$[ebp]
  00009	85 ff		 test	 edi, edi
  0000b	74 03		 je	 SHORT $LN6@Next

; 5554 : 		*pceltFetched = 0;

  0000d	83 27 00	 and	 DWORD PTR [edi], 0
$LN6@Next:

; 5555 : 	if (rgelt == NULL || (celt > 1 && pceltFetched == NULL))

  00010	8b 5d 10	 mov	 ebx, DWORD PTR _rgelt$[ebp]
  00013	85 db		 test	 ebx, ebx
  00015	0f 84 b0 00 00
	00		 je	 $LN8@Next
  0001b	8b 4d 0c	 mov	 ecx, DWORD PTR _celt$[ebp]
  0001e	83 f9 01	 cmp	 ecx, 1
  00021	76 08		 jbe	 SHORT $LN7@Next
  00023	85 ff		 test	 edi, edi
  00025	0f 84 a0 00 00
	00		 je	 $LN8@Next
$LN7@Next:

; 5557 : 	if (m_begin == NULL || m_end == NULL || m_iter == NULL)

  0002b	8b 45 08	 mov	 eax, DWORD PTR _this$[ebp]
  0002e	83 78 08 00	 cmp	 DWORD PTR [eax+8], 0
  00032	0f 84 8c 00 00
	00		 je	 $LN10@Next
  00038	8b 70 0c	 mov	 esi, DWORD PTR [eax+12]
  0003b	85 f6		 test	 esi, esi
  0003d	0f 84 81 00 00
	00		 je	 $LN10@Next
  00043	83 78 10 00	 cmp	 DWORD PTR [eax+16], 0
  00047	74 7b		 je	 SHORT $LN10@Next

; 5559 : 	ULONG nRem = (ULONG)(m_end - m_iter);

  00049	2b 70 10	 sub	 esi, DWORD PTR [eax+16]
  0004c	c1 fe 03	 sar	 esi, 3

; 5560 : 	HRESULT hRes = S_OK;
; 5561 : 	if (nRem < celt)
; 5562 : 		hRes = S_FALSE;
; 5563 : 	ULONG nMin = celt < nRem ? celt : nRem ;

  0004f	3b f1		 cmp	 esi, ecx
  00051	1b d2		 sbb	 edx, edx
  00053	f7 da		 neg	 edx
  00055	3b ce		 cmp	 ecx, esi
  00057	89 55 10	 mov	 DWORD PTR tv294[ebp], edx
  0005a	0f 42 f1	 cmovb	 esi, ecx

; 5564 : 	if (pceltFetched != NULL)

  0005d	85 ff		 test	 edi, edi
  0005f	74 02		 je	 SHORT $LN12@Next

; 5565 : 		*pceltFetched = nMin;

  00061	89 37		 mov	 DWORD PTR [edi], esi
$LN12@Next:

; 5566 : 	T* pelt = rgelt;

  00063	8b cb		 mov	 ecx, ebx
  00065	89 4d 14	 mov	 DWORD PTR _pelt$1$[ebp], ecx

; 5567 : 	while(nMin--)

  00068	85 f6		 test	 esi, esi
  0006a	74 2e		 je	 SHORT $LN21@Next
  0006c	8b 40 10	 mov	 eax, DWORD PTR [eax+16]
$LL2@Next:

; 5568 : 	{
; 5569 : 		HRESULT hr = Copy::copy(pelt, m_iter);

  0006f	50		 push	 eax
  00070	51		 push	 ecx
  00071	4e		 dec	 esi
  00072	e8 00 00 00 00	 call	 ?copy@?$_Copy@UtagCONNECTDATA@@@ATL@@SAJPAUtagCONNECTDATA@@PBU3@@Z ; ATL::_Copy<tagCONNECTDATA>::copy
  00077	89 45 0c	 mov	 DWORD PTR _hr$1$[ebp], eax
  0007a	59		 pop	 ecx
  0007b	59		 pop	 ecx

; 5570 : 		if (FAILED(hr))

  0007c	85 c0		 test	 eax, eax
  0007e	78 1e		 js	 SHORT $LN20@Next

; 5577 : 		}
; 5578 : 		pelt++;
; 5579 : 		m_iter++;

  00080	8b 45 08	 mov	 eax, DWORD PTR _this$[ebp]
  00083	8b 4d 14	 mov	 ecx, DWORD PTR _pelt$1$[ebp]
  00086	83 c1 08	 add	 ecx, 8
  00089	89 4d 14	 mov	 DWORD PTR _pelt$1$[ebp], ecx
  0008c	83 40 10 08	 add	 DWORD PTR [eax+16], 8
  00090	8b 40 10	 mov	 eax, DWORD PTR [eax+16]
  00093	85 f6		 test	 esi, esi
  00095	75 d8		 jne	 SHORT $LL2@Next

; 5570 : 		if (FAILED(hr))

  00097	8b 55 10	 mov	 edx, DWORD PTR tv294[ebp]
$LN21@Next:

; 5580 : 	}
; 5581 : 	return hRes;

  0009a	8b c2		 mov	 eax, edx
  0009c	eb 32		 jmp	 SHORT $LN1@Next
$LN20@Next:

; 5571 : 		{
; 5572 : 			while (rgelt < pelt)

  0009e	8b 75 14	 mov	 esi, DWORD PTR _pelt$1$[ebp]
  000a1	3b de		 cmp	 ebx, esi
  000a3	73 16		 jae	 SHORT $LN5@Next
$LL4@Next:

; 5436 : 		if (p->pUnk)

  000a5	8b 0b		 mov	 ecx, DWORD PTR [ebx]
  000a7	85 c9		 test	 ecx, ecx
  000a9	74 06		 je	 SHORT $LN17@Next

; 5437 : 		{
; 5438 : 			p->pUnk->Release();

  000ab	8b 01		 mov	 eax, DWORD PTR [ecx]
  000ad	51		 push	 ecx
  000ae	ff 50 08	 call	 DWORD PTR [eax+8]
$LN17@Next:

; 5573 : 				Copy::destroy(rgelt++);

  000b1	83 c3 08	 add	 ebx, 8
  000b4	3b de		 cmp	 ebx, esi
  000b6	72 ed		 jb	 SHORT $LL4@Next
  000b8	8b 45 0c	 mov	 eax, DWORD PTR _hr$1$[ebp]
$LN5@Next:

; 5574 : 			if (pceltFetched != NULL)

  000bb	85 ff		 test	 edi, edi
  000bd	74 11		 je	 SHORT $LN1@Next

; 5575 : 				*pceltFetched = 0;

  000bf	83 27 00	 and	 DWORD PTR [edi], 0

; 5576 : 			return hr;

  000c2	eb 0c		 jmp	 SHORT $LN1@Next
$LN10@Next:

; 5558 : 		return E_FAIL;

  000c4	b8 05 40 00 80	 mov	 eax, -2147467259	; 80004005H
  000c9	eb 05		 jmp	 SHORT $LN1@Next
$LN8@Next:

; 5556 : 		return E_POINTER;

  000cb	b8 03 40 00 80	 mov	 eax, -2147467261	; 80004003H
$LN1@Next:
  000d0	5f		 pop	 edi

; 5582 : }

  000d1	5e		 pop	 esi
  000d2	5b		 pop	 ebx
  000d3	5d		 pop	 ebp
  000d4	c2 10 00	 ret	 16			; 00000010H
?Next@?$CComEnumImpl@UIEnumConnections@@$1?_GUID_b196b287_bab4_101a_b69c_00aa00341d07@@3U__s_GUID@@BUtagCONNECTDATA@@V?$_Copy@UtagCONNECTDATA@@@ATL@@@ATL@@UAGJKPAUtagCONNECTDATA@@PAK@Z ENDP ; ATL::CComEnumImpl<IEnumConnections,&_GUID_b196b287_bab4_101a_b69c_00aa00341d07,tagCONNECTDATA,ATL::_Copy<tagCONNECTDATA> >::Next
_TEXT	ENDS
; Function compile flags: /Ogsp
; File C:\Develop\OPOS-CCO\Common\ATL\atlcom.h
; File C:\Program Files (x86)\Microsoft Visual Studio\2019\Community\VC\Tools\MSVC\14.28.29333\atlmfc\include\atlcomcli.h
; File C:\Develop\OPOS-CCO\Common\ATL\atlcom.h
;	COMDAT ??1?$CComEnumImpl@UIEnumConnections@@$1?_GUID_b196b287_bab4_101a_b69c_00aa00341d07@@3U__s_GUID@@BUtagCONNECTDATA@@V?$_Copy@UtagCONNECTDATA@@@ATL@@@ATL@@UAE@XZ
_TEXT	SEGMENT
??1?$CComEnumImpl@UIEnumConnections@@$1?_GUID_b196b287_bab4_101a_b69c_00aa00341d07@@3U__s_GUID@@BUtagCONNECTDATA@@V?$_Copy@UtagCONNECTDATA@@@ATL@@@ATL@@UAE@XZ PROC ; ATL::CComEnumImpl<IEnumConnections,&_GUID_b196b287_bab4_101a_b69c_00aa00341d07,tagCONNECTDATA,ATL::_Copy<tagCONNECTDATA> >::~CComEnumImpl<IEnumConnections,&_GUID_b196b287_bab4_101a_b69c_00aa00341d07,tagCONNECTDATA,ATL::_Copy<tagCONNECTDATA> >, COMDAT
; _this$ = ecx

; 5538 : {

  00000	57		 push	 edi
  00001	8b f9		 mov	 edi, ecx

; 5539 : 	if (m_dwFlags & BitOwn)

  00003	f6 47 14 02	 test	 BYTE PTR [edi+20], 2
  00007	74 28		 je	 SHORT $LN5@CComEnumIm

; 5540 : 	{
; 5541 : 		for (T* p = m_begin; p != m_end; p++)

  00009	56		 push	 esi
  0000a	8b 77 08	 mov	 esi, DWORD PTR [edi+8]
  0000d	3b 77 0c	 cmp	 esi, DWORD PTR [edi+12]
  00010	74 17		 je	 SHORT $LN3@CComEnumIm
$LL4@CComEnumIm:

; 5436 : 		if (p->pUnk)

  00012	8b 0e		 mov	 ecx, DWORD PTR [esi]
  00014	85 c9		 test	 ecx, ecx
  00016	74 06		 je	 SHORT $LN2@CComEnumIm

; 5437 : 		{
; 5438 : 			p->pUnk->Release();

  00018	8b 01		 mov	 eax, DWORD PTR [ecx]
  0001a	51		 push	 ecx
  0001b	ff 50 08	 call	 DWORD PTR [eax+8]
$LN2@CComEnumIm:

; 5540 : 	{
; 5541 : 		for (T* p = m_begin; p != m_end; p++)

  0001e	83 c6 08	 add	 esi, 8
  00021	3b 77 0c	 cmp	 esi, DWORD PTR [edi+12]
  00024	75 ec		 jne	 SHORT $LL4@CComEnumIm
  00026	8b 77 08	 mov	 esi, DWORD PTR [edi+8]
$LN3@CComEnumIm:

; 5542 : 			Copy::destroy(p);
; 5543 : 		delete [] m_begin;

  00029	56		 push	 esi
  0002a	e8 00 00 00 00	 call	 ??_V@YAXPAX@Z		; operator delete[]
  0002f	59		 pop	 ecx
  00030	5e		 pop	 esi
$LN5@CComEnumIm:
; File C:\Program Files (x86)\Microsoft Visual Studio\2019\Community\VC\Tools\MSVC\14.28.29333\atlmfc\include\atlcomcli.h

; 183  :         if (p)

  00031	8b 4f 04	 mov	 ecx, DWORD PTR [edi+4]
  00034	5f		 pop	 edi
  00035	85 c9		 test	 ecx, ecx
  00037	74 06		 je	 SHORT $LN13@CComEnumIm

; 184  :             p->Release();

  00039	8b 01		 mov	 eax, DWORD PTR [ecx]
  0003b	51		 push	 ecx
  0003c	ff 50 08	 call	 DWORD PTR [eax+8]
$LN13@CComEnumIm:
; File C:\Develop\OPOS-CCO\Common\ATL\atlcom.h

; 5545 : }

  0003f	c3		 ret	 0
??1?$CComEnumImpl@UIEnumConnections@@$1?_GUID_b196b287_bab4_101a_b69c_00aa00341d07@@3U__s_GUID@@BUtagCONNECTDATA@@V?$_Copy@UtagCONNECTDATA@@@ATL@@@ATL@@UAE@XZ ENDP ; ATL::CComEnumImpl<IEnumConnections,&_GUID_b196b287_bab4_101a_b69c_00aa00341d07,tagCONNECTDATA,ATL::_Copy<tagCONNECTDATA> >::~CComEnumImpl<IEnumConnections,&_GUID_b196b287_bab4_101a_b69c_00aa00341d07,tagCONNECTDATA,ATL::_Copy<tagCONNECTDATA> >
_TEXT	ENDS
; Function compile flags: /Ogsp
; File C:\Develop\OPOS-CCO\Common\ATL\atlcom.h
;	COMDAT ??__E?pConnMap@?$IConnectionPointContainerImpl@VCOPOSSoundPlayer@@@ATL@@0PBU_ATL_CONNMAP_ENTRY@2@B@@YAXXZ
text$di	SEGMENT
??__E?pConnMap@?$IConnectionPointContainerImpl@VCOPOSSoundPlayer@@@ATL@@0PBU_ATL_CONNMAP_ENTRY@2@B@@YAXXZ PROC ; `dynamic initializer for 'ATL::IConnectionPointContainerImpl<COPOSSoundPlayer>::pConnMap'', COMDAT

; 6573 : __declspec(selectany) const ATL::_ATL_CONNMAP_ENTRY* IConnectionPointContainerImpl<T>::pConnMap = T::GetConnMap(NULL);

  00000	6a 00		 push	 0
  00002	e8 00 00 00 00	 call	 ?GetConnMap@COPOSSoundPlayer@@SAPBU_ATL_CONNMAP_ENTRY@ATL@@PAH@Z ; COPOSSoundPlayer::GetConnMap
  00007	59		 pop	 ecx
  00008	a3 00 00 00 00	 mov	 DWORD PTR ?pConnMap@?$IConnectionPointContainerImpl@VCOPOSSoundPlayer@@@ATL@@0PBU_ATL_CONNMAP_ENTRY@2@B, eax ; ATL::IConnectionPointContainerImpl<COPOSSoundPlayer>::pConnMap
  0000d	c3		 ret	 0
??__E?pConnMap@?$IConnectionPointContainerImpl@VCOPOSSoundPlayer@@@ATL@@0PBU_ATL_CONNMAP_ENTRY@2@B@@YAXXZ ENDP ; `dynamic initializer for 'ATL::IConnectionPointContainerImpl<COPOSSoundPlayer>::pConnMap''
text$di	ENDS
; Function compile flags: /Ogsp
; File C:\Develop\OPOS-CCO\zSoundPlayer\SoundPlayerImpl.cpp
; File C:\Develop\OPOS-CCO\Common\OposVariant.h
; File C:\Develop\OPOS-CCO\zSoundPlayer\SoundPlayerImpl.cpp
; File C:\Develop\OPOS-CCO\Common\OposVariant.h
; File C:\Develop\OPOS-CCO\zSoundPlayer\SoundPlayerImpl.cpp
; File C:\Develop\OPOS-CCO\Common\OposVariant.h
; File C:\Develop\OPOS-CCO\zSoundPlayer\SoundPlayerImpl.cpp
; File C:\Develop\OPOS-CCO\Common\OposVariant.h
; File C:\Develop\OPOS-CCO\zSoundPlayer\SoundPlayerImpl.cpp
;	COMDAT ?StopSound@COPOSSoundPlayer@@UAGJJPAJ@Z
_TEXT	SEGMENT
_Var$ = -24						; size = 24
_this$ = 8						; size = 4
_OutputID$ = 12						; size = 4
_pRC$ = 16						; size = 4
?StopSound@COPOSSoundPlayer@@UAGJJPAJ@Z PROC		; COPOSSoundPlayer::StopSound, COMDAT

; 1279 : {

  00000	55		 push	 ebp
  00001	8b ec		 mov	 ebp, esp
  00003	83 ec 18	 sub	 esp, 24			; 00000018H
  00006	56		 push	 esi

; 1281 :     Var.SetLONG( OutputID );

  00007	ff 75 0c	 push	 DWORD PTR _OutputID$[ebp]
; File C:\Develop\OPOS-CCO\Common\OposVariant.h

; 77   :     OposVariant() { vt = VT_EMPTY; _bNeedClear = false; }

  0000a	33 c0		 xor	 eax, eax
; File C:\Develop\OPOS-CCO\zSoundPlayer\SoundPlayerImpl.cpp

; 1281 :     Var.SetLONG( OutputID );

  0000c	8d 4d e8	 lea	 ecx, DWORD PTR _Var$[ebp]
; File C:\Develop\OPOS-CCO\Common\OposVariant.h

; 77   :     OposVariant() { vt = VT_EMPTY; _bNeedClear = false; }

  0000f	66 89 45 e8	 mov	 WORD PTR _Var$[ebp], ax
  00013	88 45 f8	 mov	 BYTE PTR _Var$[ebp+16], al
; File C:\Develop\OPOS-CCO\zSoundPlayer\SoundPlayerImpl.cpp

; 1281 :     Var.SetLONG( OutputID );

  00016	e8 00 00 00 00	 call	 ?SetLONG@OposVariant@@QAEXJ@Z ; OposVariant::SetLONG

; 1282 :     return DoInvoke( DEBUGPARAM("StopSound") S_OK, &Var, 1, nDIStopSound, pRC );

  0001b	8b 4d 08	 mov	 ecx, DWORD PTR _this$[ebp]
  0001e	8d 45 e8	 lea	 eax, DWORD PTR _Var$[ebp]
  00021	6a 01		 push	 1
  00023	ff 75 10	 push	 DWORD PTR _pRC$[ebp]
  00026	6a 12		 push	 18			; 00000012H
  00028	6a 01		 push	 1
  0002a	50		 push	 eax
  0002b	6a 00		 push	 0
  0002d	e8 00 00 00 00	 call	 ?DoInvoke@COPOSSoundPlayer@@IAEJJPAVOposVariant@@IHPAJ_N@Z ; COPOSSoundPlayer::DoInvoke
; File C:\Develop\OPOS-CCO\Common\OposVariant.h

; 78   :     ~OposVariant() { if (_bNeedClear) Clear(); }

  00032	80 7d f8 00	 cmp	 BYTE PTR _Var$[ebp+16], 0
; File C:\Develop\OPOS-CCO\zSoundPlayer\SoundPlayerImpl.cpp

; 1282 :     return DoInvoke( DEBUGPARAM("StopSound") S_OK, &Var, 1, nDIStopSound, pRC );

  00036	8b f0		 mov	 esi, eax
; File C:\Develop\OPOS-CCO\Common\OposVariant.h

; 78   :     ~OposVariant() { if (_bNeedClear) Clear(); }

  00038	74 0e		 je	 SHORT $LN6@StopSound

; 79   :     HRESULT Clear() { _bNeedClear = false; return VariantClear(this); }

  0003a	8d 45 e8	 lea	 eax, DWORD PTR _Var$[ebp]
  0003d	c6 45 f8 00	 mov	 BYTE PTR _Var$[ebp+16], 0
  00041	50		 push	 eax
  00042	ff 15 00 00 00
	00		 call	 DWORD PTR __imp__VariantClear@4
$LN6@StopSound:
; File C:\Develop\OPOS-CCO\zSoundPlayer\SoundPlayerImpl.cpp

; 1282 :     return DoInvoke( DEBUGPARAM("StopSound") S_OK, &Var, 1, nDIStopSound, pRC );

  00048	8b c6		 mov	 eax, esi
  0004a	5e		 pop	 esi

; 1283 : }

  0004b	c9		 leave
  0004c	c2 0c 00	 ret	 12			; 0000000cH
?StopSound@COPOSSoundPlayer@@UAGJJPAJ@Z ENDP		; COPOSSoundPlayer::StopSound
_TEXT	ENDS
; Function compile flags: /Ogsp
; File C:\Develop\OPOS-CCO\zSoundPlayer\SoundPlayerImpl.cpp
; File C:\Develop\OPOS-CCO\Common\OposVariant.h
; File C:\Develop\OPOS-CCO\zSoundPlayer\SoundPlayerImpl.cpp
; File C:\Develop\OPOS-CCO\Common\OposVariant.h
; File C:\Develop\OPOS-CCO\zSoundPlayer\SoundPlayerImpl.cpp
;	COMDAT ?PlaySoundW@COPOSSoundPlayer@@UAGJPA_WFPAJ@Z
_TEXT	SEGMENT
_Vars$ = -52						; size = 48
_hRC$ = -4						; size = 4
_this$ = 8						; size = 4
_FileName$ = 12						; size = 4
_Loop$ = 16						; size = 2
_pRC$ = 20						; size = 4
?PlaySoundW@COPOSSoundPlayer@@UAGJPA_WFPAJ@Z PROC	; COPOSSoundPlayer::PlaySoundW, COMDAT

; 1266 : {

  00000	55		 push	 ebp
  00001	8b ec		 mov	 ebp, esp
  00003	83 ec 34	 sub	 esp, 52			; 00000034H

; 1267 :     OposVariant Vars[2];

  00006	8d 45 cc	 lea	 eax, DWORD PTR _Vars$[ebp]
  00009	53		 push	 ebx
  0000a	56		 push	 esi
  0000b	57		 push	 edi
  0000c	6a 02		 push	 2
  0000e	5e		 pop	 esi
  0000f	8b ce		 mov	 ecx, esi
$LL4@PlaySoundW:
; File C:\Develop\OPOS-CCO\Common\OposVariant.h

; 77   :     OposVariant() { vt = VT_EMPTY; _bNeedClear = false; }

  00011	33 d2		 xor	 edx, edx
  00013	66 89 10	 mov	 WORD PTR [eax], dx
  00016	8d 40 18	 lea	 eax, DWORD PTR [eax+24]
  00019	88 50 f8	 mov	 BYTE PTR [eax-8], dl
  0001c	83 e9 01	 sub	 ecx, 1
  0001f	75 f0		 jne	 SHORT $LL4@PlaySoundW
; File C:\Develop\OPOS-CCO\zSoundPlayer\SoundPlayerImpl.cpp

; 1268 :     HRESULT hRC = S_OK;

  00021	21 55 fc	 and	 DWORD PTR _hRC$[ebp], edx

; 1269 :     Vars[1].SetBSTR( FileName, hRC );

  00024	8d 45 fc	 lea	 eax, DWORD PTR _hRC$[ebp]
  00027	50		 push	 eax
  00028	ff 75 0c	 push	 DWORD PTR _FileName$[ebp]
  0002b	8d 4d e4	 lea	 ecx, DWORD PTR _Vars$[ebp+24]
  0002e	e8 00 00 00 00	 call	 ?SetBSTR@OposVariant@@QAEXPA_WAAJ@Z ; OposVariant::SetBSTR

; 1270 :     Vars[0].SetVARIANT_BOOL( Loop );

  00033	ff 75 10	 push	 DWORD PTR _Loop$[ebp]
  00036	8d 4d cc	 lea	 ecx, DWORD PTR _Vars$[ebp]
  00039	e8 00 00 00 00	 call	 ?SetVARIANT_BOOL@OposVariant@@QAEXF@Z ; OposVariant::SetVARIANT_BOOL

; 1271 :     return DoInvoke( DEBUGPARAM("PlaySound") hRC, Vars, 2, nDIPlaySound, pRC );

  0003e	8b 4d 08	 mov	 ecx, DWORD PTR _this$[ebp]
  00041	8d 45 cc	 lea	 eax, DWORD PTR _Vars$[ebp]
  00044	6a 01		 push	 1
  00046	ff 75 14	 push	 DWORD PTR _pRC$[ebp]
  00049	6a 11		 push	 17			; 00000011H
  0004b	56		 push	 esi
  0004c	50		 push	 eax
  0004d	ff 75 fc	 push	 DWORD PTR _hRC$[ebp]
  00050	e8 00 00 00 00	 call	 ?DoInvoke@COPOSSoundPlayer@@IAEJJPAVOposVariant@@IHPAJ_N@Z ; COPOSSoundPlayer::DoInvoke
  00055	8b d8		 mov	 ebx, eax
  00057	8d 7d fc	 lea	 edi, DWORD PTR _Vars$[ebp+48]
$LL23@PlaySoundW:
  0005a	83 ef 18	 sub	 edi, 24			; 00000018H
  0005d	4e		 dec	 esi
; File C:\Develop\OPOS-CCO\Common\OposVariant.h

; 78   :     ~OposVariant() { if (_bNeedClear) Clear(); }

  0005e	80 7f 10 00	 cmp	 BYTE PTR [edi+16], 0
  00062	74 0b		 je	 SHORT $LN14@PlaySoundW

; 79   :     HRESULT Clear() { _bNeedClear = false; return VariantClear(this); }

  00064	57		 push	 edi
  00065	c6 47 10 00	 mov	 BYTE PTR [edi+16], 0
  00069	ff 15 00 00 00
	00		 call	 DWORD PTR __imp__VariantClear@4
$LN14@PlaySoundW:
  0006f	85 f6		 test	 esi, esi
  00071	75 e7		 jne	 SHORT $LL23@PlaySoundW
; File C:\Develop\OPOS-CCO\zSoundPlayer\SoundPlayerImpl.cpp

; 1271 :     return DoInvoke( DEBUGPARAM("PlaySound") hRC, Vars, 2, nDIPlaySound, pRC );

  00073	5f		 pop	 edi
  00074	5e		 pop	 esi
  00075	8b c3		 mov	 eax, ebx
  00077	5b		 pop	 ebx

; 1272 : }

  00078	c9		 leave
  00079	c2 10 00	 ret	 16			; 00000010H
?PlaySoundW@COPOSSoundPlayer@@UAGJPA_WFPAJ@Z ENDP	; COPOSSoundPlayer::PlaySoundW
_TEXT	ENDS
; Function compile flags: /Ogsp
; File C:\Develop\OPOS-CCO\zSoundPlayer\SoundPlayerImpl.cpp
;	COMDAT ?put_Volume@COPOSSoundPlayer@@UAGJJ@Z
_TEXT	SEGMENT
_this$ = 8						; size = 4
_Volume$ = 12						; size = 4
?put_Volume@COPOSSoundPlayer@@UAGJJ@Z PROC		; COPOSSoundPlayer::put_Volume, COMDAT

; 1626 : {

  00000	55		 push	 ebp
  00001	8b ec		 mov	 ebp, esp

; 1627 :     return SetOposProp( DEBUGPARAM("Volume") PIDXSply_Volume, Volume, 16 /*MinorVersion*/ );

  00003	8b 4d 08	 mov	 ecx, DWORD PTR _this$[ebp]
  00006	6a 10		 push	 16			; 00000010H
  00008	ff 75 0c	 push	 DWORD PTR _Volume$[ebp]
  0000b	68 2a a0 00 00	 push	 41002			; 0000a02aH
  00010	e8 00 00 00 00	 call	 ?SetOposProp@COPOSSoundPlayer@@IAEJJJJ@Z ; COPOSSoundPlayer::SetOposProp

; 1628 : }

  00015	5d		 pop	 ebp
  00016	c2 08 00	 ret	 8
?put_Volume@COPOSSoundPlayer@@UAGJJ@Z ENDP		; COPOSSoundPlayer::put_Volume
_TEXT	ENDS
; Function compile flags: /Ogsp
; File C:\Develop\OPOS-CCO\zSoundPlayer\SoundPlayerImpl.cpp
;	COMDAT ?get_Volume@COPOSSoundPlayer@@UAGJPAJ@Z
_TEXT	SEGMENT
_this$ = 8						; size = 4
_pVolume$ = 12						; size = 4
?get_Volume@COPOSSoundPlayer@@UAGJPAJ@Z PROC		; COPOSSoundPlayer::get_Volume, COMDAT

; 1619 : {

  00000	55		 push	 ebp
  00001	8b ec		 mov	 ebp, esp

; 1620 :     return GetOposProp( DEBUGPARAM("Volume") PIDXSply_Volume, pVolume, 16 /*MinorVersion*/ );

  00003	8b 4d 08	 mov	 ecx, DWORD PTR _this$[ebp]
  00006	6a 10		 push	 16			; 00000010H
  00008	ff 75 0c	 push	 DWORD PTR _pVolume$[ebp]
  0000b	68 2a a0 00 00	 push	 41002			; 0000a02aH
  00010	e8 00 00 00 00	 call	 ?GetOposProp@COPOSSoundPlayer@@IAEJJPAJJ@Z ; COPOSSoundPlayer::GetOposProp

; 1621 : }

  00015	5d		 pop	 ebp
  00016	c2 08 00	 ret	 8
?get_Volume@COPOSSoundPlayer@@UAGJPAJ@Z ENDP		; COPOSSoundPlayer::get_Volume
_TEXT	ENDS
; Function compile flags: /Ogsp
; File C:\Develop\OPOS-CCO\zSoundPlayer\SoundPlayerImpl.cpp
;	COMDAT ?put_Storage@COPOSSoundPlayer@@UAGJJ@Z
_TEXT	SEGMENT
_this$ = 8						; size = 4
_Storage$ = 12						; size = 4
?put_Storage@COPOSSoundPlayer@@UAGJJ@Z PROC		; COPOSSoundPlayer::put_Storage, COMDAT

; 1612 : {

  00000	55		 push	 ebp
  00001	8b ec		 mov	 ebp, esp

; 1613 :     return SetOposProp( DEBUGPARAM("Storage") PIDXSply_Storage, Storage, 16 /*MinorVersion*/ );

  00003	8b 4d 08	 mov	 ecx, DWORD PTR _this$[ebp]
  00006	6a 10		 push	 16			; 00000010H
  00008	ff 75 0c	 push	 DWORD PTR _Storage$[ebp]
  0000b	68 29 a0 00 00	 push	 41001			; 0000a029H
  00010	e8 00 00 00 00	 call	 ?SetOposProp@COPOSSoundPlayer@@IAEJJJJ@Z ; COPOSSoundPlayer::SetOposProp

; 1614 : }

  00015	5d		 pop	 ebp
  00016	c2 08 00	 ret	 8
?put_Storage@COPOSSoundPlayer@@UAGJJ@Z ENDP		; COPOSSoundPlayer::put_Storage
_TEXT	ENDS
; Function compile flags: /Ogsp
; File C:\Develop\OPOS-CCO\zSoundPlayer\SoundPlayerImpl.cpp
;	COMDAT ?get_Storage@COPOSSoundPlayer@@UAGJPAJ@Z
_TEXT	SEGMENT
_this$ = 8						; size = 4
_pStorage$ = 12						; size = 4
?get_Storage@COPOSSoundPlayer@@UAGJPAJ@Z PROC		; COPOSSoundPlayer::get_Storage, COMDAT

; 1605 : {

  00000	55		 push	 ebp
  00001	8b ec		 mov	 ebp, esp

; 1606 :     return GetOposProp( DEBUGPARAM("Storage") PIDXSply_Storage, pStorage, 16 /*MinorVersion*/ );

  00003	8b 4d 08	 mov	 ecx, DWORD PTR _this$[ebp]
  00006	6a 10		 push	 16			; 00000010H
  00008	ff 75 0c	 push	 DWORD PTR _pStorage$[ebp]
  0000b	68 29 a0 00 00	 push	 41001			; 0000a029H
  00010	e8 00 00 00 00	 call	 ?GetOposProp@COPOSSoundPlayer@@IAEJJPAJJ@Z ; COPOSSoundPlayer::GetOposProp

; 1607 : }

  00015	5d		 pop	 ebp
  00016	c2 08 00	 ret	 8
?get_Storage@COPOSSoundPlayer@@UAGJPAJ@Z ENDP		; COPOSSoundPlayer::get_Storage
_TEXT	ENDS
; Function compile flags: /Ogsp
; File C:\Develop\OPOS-CCO\zSoundPlayer\SoundPlayerImpl.cpp
;	COMDAT ?get_OutputIDList@COPOSSoundPlayer@@UAGJPAPA_W@Z
_TEXT	SEGMENT
_this$ = 8						; size = 4
_pOutputIDList$ = 12					; size = 4
?get_OutputIDList@COPOSSoundPlayer@@UAGJPAPA_W@Z PROC	; COPOSSoundPlayer::get_OutputIDList, COMDAT

; 1598 : {

  00000	55		 push	 ebp
  00001	8b ec		 mov	 ebp, esp

; 1599 :     return GetOposProp( DEBUGPARAM("OutputIDList") PIDXSply_OutputIDList, pOutputIDList, 16 /*MinorVersion*/ );

  00003	8b 4d 08	 mov	 ecx, DWORD PTR _this$[ebp]
  00006	6a 10		 push	 16			; 00000010H
  00008	ff 75 0c	 push	 DWORD PTR _pOutputIDList$[ebp]
  0000b	68 6a e2 0f 00	 push	 1041002			; 000fe26aH
  00010	e8 00 00 00 00	 call	 ?GetOposProp@COPOSSoundPlayer@@IAEJJPAPA_WJ@Z ; COPOSSoundPlayer::GetOposProp

; 1600 : }

  00015	5d		 pop	 ebp
  00016	c2 08 00	 ret	 8
?get_OutputIDList@COPOSSoundPlayer@@UAGJPAPA_W@Z ENDP	; COPOSSoundPlayer::get_OutputIDList
_TEXT	ENDS
; Function compile flags: /Ogsp
; File C:\Develop\OPOS-CCO\zSoundPlayer\SoundPlayerImpl.cpp
;	COMDAT ?get_DeviceSoundList@COPOSSoundPlayer@@UAGJPAPA_W@Z
_TEXT	SEGMENT
_this$ = 8						; size = 4
_pDeviceSoundList$ = 12					; size = 4
?get_DeviceSoundList@COPOSSoundPlayer@@UAGJPAPA_W@Z PROC ; COPOSSoundPlayer::get_DeviceSoundList, COMDAT

; 1591 : {

  00000	55		 push	 ebp
  00001	8b ec		 mov	 ebp, esp

; 1592 :     return GetOposProp( DEBUGPARAM("DeviceSoundList") PIDXSply_DeviceSoundList, pDeviceSoundList, 16 /*MinorVersion*/ );

  00003	8b 4d 08	 mov	 ecx, DWORD PTR _this$[ebp]
  00006	6a 10		 push	 16			; 00000010H
  00008	ff 75 0c	 push	 DWORD PTR _pDeviceSoundList$[ebp]
  0000b	68 69 e2 0f 00	 push	 1041001			; 000fe269H
  00010	e8 00 00 00 00	 call	 ?GetOposProp@COPOSSoundPlayer@@IAEJJPAPA_WJ@Z ; COPOSSoundPlayer::GetOposProp

; 1593 : }

  00015	5d		 pop	 ebp
  00016	c2 08 00	 ret	 8
?get_DeviceSoundList@COPOSSoundPlayer@@UAGJPAPA_W@Z ENDP ; COPOSSoundPlayer::get_DeviceSoundList
_TEXT	ENDS
; Function compile flags: /Ogsp
; File C:\Develop\OPOS-CCO\zSoundPlayer\SoundPlayerImpl.cpp
;	COMDAT ?get_CapVolume@COPOSSoundPlayer@@UAGJPAF@Z
_TEXT	SEGMENT
_this$ = 8						; size = 4
_pCapVolume$ = 12					; size = 4
?get_CapVolume@COPOSSoundPlayer@@UAGJPAF@Z PROC		; COPOSSoundPlayer::get_CapVolume, COMDAT

; 1584 : {

  00000	55		 push	 ebp
  00001	8b ec		 mov	 ebp, esp

; 1585 :     return GetOposProp( DEBUGPARAM("CapVolume") PIDXSply_CapVolume, pCapVolume, 16 /*MinorVersion*/ );

  00003	8b 4d 08	 mov	 ecx, DWORD PTR _this$[ebp]
  00006	6a 10		 push	 16			; 00000010H
  00008	ff 75 0c	 push	 DWORD PTR _pCapVolume$[ebp]
  0000b	68 1f a2 00 00	 push	 41503			; 0000a21fH
  00010	e8 00 00 00 00	 call	 ?GetOposProp@COPOSSoundPlayer@@IAEJJPAFJ@Z ; COPOSSoundPlayer::GetOposProp

; 1586 : }

  00015	5d		 pop	 ebp
  00016	c2 08 00	 ret	 8
?get_CapVolume@COPOSSoundPlayer@@UAGJPAF@Z ENDP		; COPOSSoundPlayer::get_CapVolume
_TEXT	ENDS
; Function compile flags: /Ogsp
; File C:\Develop\OPOS-CCO\zSoundPlayer\SoundPlayerImpl.cpp
;	COMDAT ?get_CapStorage@COPOSSoundPlayer@@UAGJPAJ@Z
_TEXT	SEGMENT
_this$ = 8						; size = 4
_pCapStorage$ = 12					; size = 4
?get_CapStorage@COPOSSoundPlayer@@UAGJPAJ@Z PROC	; COPOSSoundPlayer::get_CapStorage, COMDAT

; 1577 : {

  00000	55		 push	 ebp
  00001	8b ec		 mov	 ebp, esp

; 1578 :     return GetOposProp( DEBUGPARAM("CapStorage") PIDXSply_CapStorage, pCapStorage, 16 /*MinorVersion*/ );

  00003	8b 4d 08	 mov	 ecx, DWORD PTR _this$[ebp]
  00006	6a 10		 push	 16			; 00000010H
  00008	ff 75 0c	 push	 DWORD PTR _pCapStorage$[ebp]
  0000b	68 1e a2 00 00	 push	 41502			; 0000a21eH
  00010	e8 00 00 00 00	 call	 ?GetOposProp@COPOSSoundPlayer@@IAEJJPAJJ@Z ; COPOSSoundPlayer::GetOposProp

; 1579 : }

  00015	5d		 pop	 ebp
  00016	c2 08 00	 ret	 8
?get_CapStorage@COPOSSoundPlayer@@UAGJPAJ@Z ENDP	; COPOSSoundPlayer::get_CapStorage
_TEXT	ENDS
; Function compile flags: /Ogsp
; File C:\Develop\OPOS-CCO\zSoundPlayer\SoundPlayerImpl.cpp
;	COMDAT ?get_CapSoundTypeList@COPOSSoundPlayer@@UAGJPAPA_W@Z
_TEXT	SEGMENT
_this$ = 8						; size = 4
_pCapSoundTypeList$ = 12				; size = 4
?get_CapSoundTypeList@COPOSSoundPlayer@@UAGJPAPA_W@Z PROC ; COPOSSoundPlayer::get_CapSoundTypeList, COMDAT

; 1570 : {

  00000	55		 push	 ebp
  00001	8b ec		 mov	 ebp, esp

; 1571 :     return GetOposProp( DEBUGPARAM("CapSoundTypeList") PIDXSply_CapSoundTypeList, pCapSoundTypeList, 16 /*MinorVersion*/ );

  00003	8b 4d 08	 mov	 ecx, DWORD PTR _this$[ebp]
  00006	6a 10		 push	 16			; 00000010H
  00008	ff 75 0c	 push	 DWORD PTR _pCapSoundTypeList$[ebp]
  0000b	68 5e e4 0f 00	 push	 1041502			; 000fe45eH
  00010	e8 00 00 00 00	 call	 ?GetOposProp@COPOSSoundPlayer@@IAEJJPAPA_WJ@Z ; COPOSSoundPlayer::GetOposProp

; 1572 : }

  00015	5d		 pop	 ebp
  00016	c2 08 00	 ret	 8
?get_CapSoundTypeList@COPOSSoundPlayer@@UAGJPAPA_W@Z ENDP ; COPOSSoundPlayer::get_CapSoundTypeList
_TEXT	ENDS
; Function compile flags: /Ogsp
; File C:\Develop\OPOS-CCO\zSoundPlayer\SoundPlayerImpl.cpp
;	COMDAT ?get_CapMultiPlay@COPOSSoundPlayer@@UAGJPAF@Z
_TEXT	SEGMENT
_this$ = 8						; size = 4
_pCapMultiPlay$ = 12					; size = 4
?get_CapMultiPlay@COPOSSoundPlayer@@UAGJPAF@Z PROC	; COPOSSoundPlayer::get_CapMultiPlay, COMDAT

; 1563 : {

  00000	55		 push	 ebp
  00001	8b ec		 mov	 ebp, esp

; 1564 :     return GetOposProp( DEBUGPARAM("CapMultiPlay") PIDXSply_CapMultiPlay, pCapMultiPlay, 16 /*MinorVersion*/ );

  00003	8b 4d 08	 mov	 ecx, DWORD PTR _this$[ebp]
  00006	6a 10		 push	 16			; 00000010H
  00008	ff 75 0c	 push	 DWORD PTR _pCapMultiPlay$[ebp]
  0000b	68 1d a2 00 00	 push	 41501			; 0000a21dH
  00010	e8 00 00 00 00	 call	 ?GetOposProp@COPOSSoundPlayer@@IAEJJPAFJ@Z ; COPOSSoundPlayer::GetOposProp

; 1565 : }

  00015	5d		 pop	 ebp
  00016	c2 08 00	 ret	 8
?get_CapMultiPlay@COPOSSoundPlayer@@UAGJPAF@Z ENDP	; COPOSSoundPlayer::get_CapMultiPlay
_TEXT	ENDS
; Function compile flags: /Ogsp
; File C:\Develop\OPOS-CCO\zSoundPlayer\SoundPlayerImpl.cpp
;	COMDAT ?get_CapAssociatedHardTotalsDevice@COPOSSoundPlayer@@UAGJPAPA_W@Z
_TEXT	SEGMENT
_this$ = 8						; size = 4
_pCapAssociatedHardTotalsDevice$ = 12			; size = 4
?get_CapAssociatedHardTotalsDevice@COPOSSoundPlayer@@UAGJPAPA_W@Z PROC ; COPOSSoundPlayer::get_CapAssociatedHardTotalsDevice, COMDAT

; 1556 : {

  00000	55		 push	 ebp
  00001	8b ec		 mov	 ebp, esp

; 1557 :     return GetOposProp( DEBUGPARAM("CapAssociatedHardTotalsDevice") PIDXSply_CapAssociatedHardTotalsDevice, pCapAssociatedHardTotalsDevice, 16 /*MinorVersion*/ );

  00003	8b 4d 08	 mov	 ecx, DWORD PTR _this$[ebp]
  00006	6a 10		 push	 16			; 00000010H
  00008	ff 75 0c	 push	 DWORD PTR _pCapAssociatedHardTotalsDevice$[ebp]
  0000b	68 5d e4 0f 00	 push	 1041501			; 000fe45dH
  00010	e8 00 00 00 00	 call	 ?GetOposProp@COPOSSoundPlayer@@IAEJJPAPA_WJ@Z ; COPOSSoundPlayer::GetOposProp

; 1558 : }

  00015	5d		 pop	 ebp
  00016	c2 08 00	 ret	 8
?get_CapAssociatedHardTotalsDevice@COPOSSoundPlayer@@UAGJPAPA_W@Z ENDP ; COPOSSoundPlayer::get_CapAssociatedHardTotalsDevice
_TEXT	ENDS
; Function compile flags: /Ogsp
; File C:\Develop\OPOS-CCO\zSoundPlayer\SoundPlayerImpl.cpp
; File C:\Develop\OPOS-CCO\Common\OposVariant.h
; File C:\Develop\OPOS-CCO\zSoundPlayer\SoundPlayerImpl.cpp
; File C:\Develop\OPOS-CCO\Common\OposVariant.h
; File C:\Develop\OPOS-CCO\zSoundPlayer\SoundPlayerImpl.cpp
; File C:\Develop\OPOS-CCO\Common\OposVariant.h
; File C:\Develop\OPOS-CCO\zSoundPlayer\SoundPlayerImpl.cpp
; File C:\Develop\OPOS-CCO\Common\OposVariant.h
; File C:\Develop\OPOS-CCO\zSoundPlayer\SoundPlayerImpl.cpp
;	COMDAT ?UpdateFirmware@COPOSSoundPlayer@@UAGJPA_WPAJ@Z
_TEXT	SEGMENT
_Var$ = -28						; size = 24
_hRC$ = -4						; size = 4
_this$ = 8						; size = 4
_FirmwareFileName$ = 12					; size = 4
_pRC$ = 16						; size = 4
?UpdateFirmware@COPOSSoundPlayer@@UAGJPA_WPAJ@Z PROC	; COPOSSoundPlayer::UpdateFirmware, COMDAT

; 1253 : {

  00000	55		 push	 ebp
  00001	8b ec		 mov	 ebp, esp
  00003	83 ec 1c	 sub	 esp, 28			; 0000001cH
; File C:\Develop\OPOS-CCO\Common\OposVariant.h

; 77   :     OposVariant() { vt = VT_EMPTY; _bNeedClear = false; }

  00006	33 c0		 xor	 eax, eax
; File C:\Develop\OPOS-CCO\zSoundPlayer\SoundPlayerImpl.cpp

; 1256 :     Var.SetBSTR( FirmwareFileName, hRC );

  00008	8d 4d e4	 lea	 ecx, DWORD PTR _Var$[ebp]
  0000b	21 45 fc	 and	 DWORD PTR _hRC$[ebp], eax
  0000e	56		 push	 esi
; File C:\Develop\OPOS-CCO\Common\OposVariant.h

; 77   :     OposVariant() { vt = VT_EMPTY; _bNeedClear = false; }

  0000f	66 89 45 e4	 mov	 WORD PTR _Var$[ebp], ax
  00013	88 45 f4	 mov	 BYTE PTR _Var$[ebp+16], al
; File C:\Develop\OPOS-CCO\zSoundPlayer\SoundPlayerImpl.cpp

; 1256 :     Var.SetBSTR( FirmwareFileName, hRC );

  00016	8d 45 fc	 lea	 eax, DWORD PTR _hRC$[ebp]
  00019	50		 push	 eax
  0001a	ff 75 0c	 push	 DWORD PTR _FirmwareFileName$[ebp]
  0001d	e8 00 00 00 00	 call	 ?SetBSTR@OposVariant@@QAEXPA_WAAJ@Z ; OposVariant::SetBSTR

; 1257 :     return DoInvoke( DEBUGPARAM("UpdateFirmware") hRC, &Var, 1, nDIUpdateFirmware, pRC );

  00022	8b 4d 08	 mov	 ecx, DWORD PTR _this$[ebp]
  00025	8d 45 e4	 lea	 eax, DWORD PTR _Var$[ebp]
  00028	6a 01		 push	 1
  0002a	ff 75 10	 push	 DWORD PTR _pRC$[ebp]
  0002d	6a 10		 push	 16			; 00000010H
  0002f	6a 01		 push	 1
  00031	50		 push	 eax
  00032	ff 75 fc	 push	 DWORD PTR _hRC$[ebp]
  00035	e8 00 00 00 00	 call	 ?DoInvoke@COPOSSoundPlayer@@IAEJJPAVOposVariant@@IHPAJ_N@Z ; COPOSSoundPlayer::DoInvoke
; File C:\Develop\OPOS-CCO\Common\OposVariant.h

; 78   :     ~OposVariant() { if (_bNeedClear) Clear(); }

  0003a	80 7d f4 00	 cmp	 BYTE PTR _Var$[ebp+16], 0
; File C:\Develop\OPOS-CCO\zSoundPlayer\SoundPlayerImpl.cpp

; 1257 :     return DoInvoke( DEBUGPARAM("UpdateFirmware") hRC, &Var, 1, nDIUpdateFirmware, pRC );

  0003e	8b f0		 mov	 esi, eax
; File C:\Develop\OPOS-CCO\Common\OposVariant.h

; 78   :     ~OposVariant() { if (_bNeedClear) Clear(); }

  00040	74 0e		 je	 SHORT $LN6@UpdateFirm

; 79   :     HRESULT Clear() { _bNeedClear = false; return VariantClear(this); }

  00042	8d 45 e4	 lea	 eax, DWORD PTR _Var$[ebp]
  00045	c6 45 f4 00	 mov	 BYTE PTR _Var$[ebp+16], 0
  00049	50		 push	 eax
  0004a	ff 15 00 00 00
	00		 call	 DWORD PTR __imp__VariantClear@4
$LN6@UpdateFirm:
; File C:\Develop\OPOS-CCO\zSoundPlayer\SoundPlayerImpl.cpp

; 1257 :     return DoInvoke( DEBUGPARAM("UpdateFirmware") hRC, &Var, 1, nDIUpdateFirmware, pRC );

  00050	8b c6		 mov	 eax, esi
  00052	5e		 pop	 esi

; 1258 : }

  00053	c9		 leave
  00054	c2 0c 00	 ret	 12			; 0000000cH
?UpdateFirmware@COPOSSoundPlayer@@UAGJPA_WPAJ@Z ENDP	; COPOSSoundPlayer::UpdateFirmware
_TEXT	ENDS
; Function compile flags: /Ogsp
; File C:\Develop\OPOS-CCO\zSoundPlayer\SoundPlayerImpl.cpp
; File C:\Develop\OPOS-CCO\Common\OposVariant.h
; File C:\Develop\OPOS-CCO\zSoundPlayer\SoundPlayerImpl.cpp
; File C:\Develop\OPOS-CCO\Common\OposVariant.h
; File C:\Develop\OPOS-CCO\zSoundPlayer\SoundPlayerImpl.cpp
;	COMDAT ?CompareFirmwareVersion@COPOSSoundPlayer@@UAGJPA_WPAJ1@Z
_TEXT	SEGMENT
_Vars$ = -52						; size = 48
_hRC$ = -4						; size = 4
_this$ = 8						; size = 4
_FirmwareFileName$ = 12					; size = 4
_pResult$ = 16						; size = 4
_pRC$ = 20						; size = 4
?CompareFirmwareVersion@COPOSSoundPlayer@@UAGJPA_WPAJ1@Z PROC ; COPOSSoundPlayer::CompareFirmwareVersion, COMDAT

; 1240 : {

  00000	55		 push	 ebp
  00001	8b ec		 mov	 ebp, esp
  00003	83 ec 34	 sub	 esp, 52			; 00000034H

; 1241 :     OposVariant Vars[2];

  00006	8d 45 cc	 lea	 eax, DWORD PTR _Vars$[ebp]
  00009	53		 push	 ebx
  0000a	56		 push	 esi
  0000b	57		 push	 edi
  0000c	6a 02		 push	 2
  0000e	5e		 pop	 esi
  0000f	8b ce		 mov	 ecx, esi
$LL4@CompareFir:
; File C:\Develop\OPOS-CCO\Common\OposVariant.h

; 77   :     OposVariant() { vt = VT_EMPTY; _bNeedClear = false; }

  00011	33 d2		 xor	 edx, edx
  00013	66 89 10	 mov	 WORD PTR [eax], dx
  00016	8d 40 18	 lea	 eax, DWORD PTR [eax+24]
  00019	88 50 f8	 mov	 BYTE PTR [eax-8], dl
  0001c	83 e9 01	 sub	 ecx, 1
  0001f	75 f0		 jne	 SHORT $LL4@CompareFir
; File C:\Develop\OPOS-CCO\zSoundPlayer\SoundPlayerImpl.cpp

; 1242 :     HRESULT hRC = S_OK;

  00021	21 55 fc	 and	 DWORD PTR _hRC$[ebp], edx

; 1243 :     Vars[1].SetBSTR( FirmwareFileName, hRC );

  00024	8d 45 fc	 lea	 eax, DWORD PTR _hRC$[ebp]
  00027	50		 push	 eax
  00028	ff 75 0c	 push	 DWORD PTR _FirmwareFileName$[ebp]
  0002b	8d 4d e4	 lea	 ecx, DWORD PTR _Vars$[ebp+24]
  0002e	e8 00 00 00 00	 call	 ?SetBSTR@OposVariant@@QAEXPA_WAAJ@Z ; OposVariant::SetBSTR

; 1244 :     Vars[0].SetLONG_Ptr( pResult, hRC );

  00033	8d 45 fc	 lea	 eax, DWORD PTR _hRC$[ebp]
  00036	50		 push	 eax
  00037	ff 75 10	 push	 DWORD PTR _pResult$[ebp]
  0003a	8d 4d cc	 lea	 ecx, DWORD PTR _Vars$[ebp]
  0003d	e8 00 00 00 00	 call	 ?SetLONG_Ptr@OposVariant@@QAEXPAJAAJ@Z ; OposVariant::SetLONG_Ptr

; 1245 :     return DoInvoke( DEBUGPARAM("CompareFirmwareVersion") hRC, Vars, 2, nDICompareFirmwareVersion, pRC );

  00042	8b 4d 08	 mov	 ecx, DWORD PTR _this$[ebp]
  00045	8d 45 cc	 lea	 eax, DWORD PTR _Vars$[ebp]
  00048	6a 01		 push	 1
  0004a	ff 75 14	 push	 DWORD PTR _pRC$[ebp]
  0004d	6a 0f		 push	 15			; 0000000fH
  0004f	56		 push	 esi
  00050	50		 push	 eax
  00051	ff 75 fc	 push	 DWORD PTR _hRC$[ebp]
  00054	e8 00 00 00 00	 call	 ?DoInvoke@COPOSSoundPlayer@@IAEJJPAVOposVariant@@IHPAJ_N@Z ; COPOSSoundPlayer::DoInvoke
  00059	8b d8		 mov	 ebx, eax
  0005b	8d 7d fc	 lea	 edi, DWORD PTR _Vars$[ebp+48]
$LL23@CompareFir:
  0005e	83 ef 18	 sub	 edi, 24			; 00000018H
  00061	4e		 dec	 esi
; File C:\Develop\OPOS-CCO\Common\OposVariant.h

; 78   :     ~OposVariant() { if (_bNeedClear) Clear(); }

  00062	80 7f 10 00	 cmp	 BYTE PTR [edi+16], 0
  00066	74 0b		 je	 SHORT $LN14@CompareFir

; 79   :     HRESULT Clear() { _bNeedClear = false; return VariantClear(this); }

  00068	57		 push	 edi
  00069	c6 47 10 00	 mov	 BYTE PTR [edi+16], 0
  0006d	ff 15 00 00 00
	00		 call	 DWORD PTR __imp__VariantClear@4
$LN14@CompareFir:
  00073	85 f6		 test	 esi, esi
  00075	75 e7		 jne	 SHORT $LL23@CompareFir
; File C:\Develop\OPOS-CCO\zSoundPlayer\SoundPlayerImpl.cpp

; 1245 :     return DoInvoke( DEBUGPARAM("CompareFirmwareVersion") hRC, Vars, 2, nDICompareFirmwareVersion, pRC );

  00077	5f		 pop	 edi
  00078	5e		 pop	 esi
  00079	8b c3		 mov	 eax, ebx
  0007b	5b		 pop	 ebx

; 1246 : }

  0007c	c9		 leave
  0007d	c2 10 00	 ret	 16			; 00000010H
?CompareFirmwareVersion@COPOSSoundPlayer@@UAGJPA_WPAJ1@Z ENDP ; COPOSSoundPlayer::CompareFirmwareVersion
_TEXT	ENDS
; Function compile flags: /Ogsp
; File C:\Develop\OPOS-CCO\zSoundPlayer\SoundPlayerImpl.cpp
; File C:\Develop\OPOS-CCO\Common\OposVariant.h
; File C:\Develop\OPOS-CCO\zSoundPlayer\SoundPlayerImpl.cpp
; File C:\Develop\OPOS-CCO\Common\OposVariant.h
; File C:\Develop\OPOS-CCO\zSoundPlayer\SoundPlayerImpl.cpp
; File C:\Develop\OPOS-CCO\Common\OposVariant.h
; File C:\Develop\OPOS-CCO\zSoundPlayer\SoundPlayerImpl.cpp
; File C:\Develop\OPOS-CCO\Common\OposVariant.h
; File C:\Develop\OPOS-CCO\zSoundPlayer\SoundPlayerImpl.cpp
;	COMDAT ?UpdateStatistics@COPOSSoundPlayer@@UAGJPA_WPAJ@Z
_TEXT	SEGMENT
_Var$ = -28						; size = 24
_hRC$ = -4						; size = 4
_this$ = 8						; size = 4
_StatisticsBuffer$ = 12					; size = 4
_pRC$ = 16						; size = 4
?UpdateStatistics@COPOSSoundPlayer@@UAGJPA_WPAJ@Z PROC	; COPOSSoundPlayer::UpdateStatistics, COMDAT

; 1227 : {

  00000	55		 push	 ebp
  00001	8b ec		 mov	 ebp, esp
  00003	83 ec 1c	 sub	 esp, 28			; 0000001cH
; File C:\Develop\OPOS-CCO\Common\OposVariant.h

; 77   :     OposVariant() { vt = VT_EMPTY; _bNeedClear = false; }

  00006	33 c0		 xor	 eax, eax
; File C:\Develop\OPOS-CCO\zSoundPlayer\SoundPlayerImpl.cpp

; 1230 :     Var.SetBSTR( StatisticsBuffer, hRC );

  00008	8d 4d e4	 lea	 ecx, DWORD PTR _Var$[ebp]
  0000b	21 45 fc	 and	 DWORD PTR _hRC$[ebp], eax
  0000e	56		 push	 esi
; File C:\Develop\OPOS-CCO\Common\OposVariant.h

; 77   :     OposVariant() { vt = VT_EMPTY; _bNeedClear = false; }

  0000f	66 89 45 e4	 mov	 WORD PTR _Var$[ebp], ax
  00013	88 45 f4	 mov	 BYTE PTR _Var$[ebp+16], al
; File C:\Develop\OPOS-CCO\zSoundPlayer\SoundPlayerImpl.cpp

; 1230 :     Var.SetBSTR( StatisticsBuffer, hRC );

  00016	8d 45 fc	 lea	 eax, DWORD PTR _hRC$[ebp]
  00019	50		 push	 eax
  0001a	ff 75 0c	 push	 DWORD PTR _StatisticsBuffer$[ebp]
  0001d	e8 00 00 00 00	 call	 ?SetBSTR@OposVariant@@QAEXPA_WAAJ@Z ; OposVariant::SetBSTR

; 1231 :     return DoInvoke( DEBUGPARAM("UpdateStatistics") hRC, &Var, 1, nDIUpdateStatistics, pRC );

  00022	8b 4d 08	 mov	 ecx, DWORD PTR _this$[ebp]
  00025	8d 45 e4	 lea	 eax, DWORD PTR _Var$[ebp]
  00028	6a 01		 push	 1
  0002a	ff 75 10	 push	 DWORD PTR _pRC$[ebp]
  0002d	6a 0e		 push	 14			; 0000000eH
  0002f	6a 01		 push	 1
  00031	50		 push	 eax
  00032	ff 75 fc	 push	 DWORD PTR _hRC$[ebp]
  00035	e8 00 00 00 00	 call	 ?DoInvoke@COPOSSoundPlayer@@IAEJJPAVOposVariant@@IHPAJ_N@Z ; COPOSSoundPlayer::DoInvoke
; File C:\Develop\OPOS-CCO\Common\OposVariant.h

; 78   :     ~OposVariant() { if (_bNeedClear) Clear(); }

  0003a	80 7d f4 00	 cmp	 BYTE PTR _Var$[ebp+16], 0
; File C:\Develop\OPOS-CCO\zSoundPlayer\SoundPlayerImpl.cpp

; 1231 :     return DoInvoke( DEBUGPARAM("UpdateStatistics") hRC, &Var, 1, nDIUpdateStatistics, pRC );

  0003e	8b f0		 mov	 esi, eax
; File C:\Develop\OPOS-CCO\Common\OposVariant.h

; 78   :     ~OposVariant() { if (_bNeedClear) Clear(); }

  00040	74 0e		 je	 SHORT $LN6@UpdateStat

; 79   :     HRESULT Clear() { _bNeedClear = false; return VariantClear(this); }

  00042	8d 45 e4	 lea	 eax, DWORD PTR _Var$[ebp]
  00045	c6 45 f4 00	 mov	 BYTE PTR _Var$[ebp+16], 0
  00049	50		 push	 eax
  0004a	ff 15 00 00 00
	00		 call	 DWORD PTR __imp__VariantClear@4
$LN6@UpdateStat:
; File C:\Develop\OPOS-CCO\zSoundPlayer\SoundPlayerImpl.cpp

; 1231 :     return DoInvoke( DEBUGPARAM("UpdateStatistics") hRC, &Var, 1, nDIUpdateStatistics, pRC );

  00050	8b c6		 mov	 eax, esi
  00052	5e		 pop	 esi

; 1232 : }

  00053	c9		 leave
  00054	c2 0c 00	 ret	 12			; 0000000cH
?UpdateStatistics@COPOSSoundPlayer@@UAGJPA_WPAJ@Z ENDP	; COPOSSoundPlayer::UpdateStatistics
_TEXT	ENDS
; Function compile flags: /Ogsp
; File C:\Develop\OPOS-CCO\zSoundPlayer\SoundPlayerImpl.cpp
; File C:\Develop\OPOS-CCO\Common\OposVariant.h
; File C:\Develop\OPOS-CCO\zSoundPlayer\SoundPlayerImpl.cpp
; File C:\Develop\OPOS-CCO\Common\OposVariant.h
; File C:\Develop\OPOS-CCO\zSoundPlayer\SoundPlayerImpl.cpp
; File C:\Develop\OPOS-CCO\Common\OposVariant.h
; File C:\Develop\OPOS-CCO\zSoundPlayer\SoundPlayerImpl.cpp
; File C:\Develop\OPOS-CCO\Common\OposVariant.h
; File C:\Develop\OPOS-CCO\zSoundPlayer\SoundPlayerImpl.cpp
;	COMDAT ?RetrieveStatistics@COPOSSoundPlayer@@UAGJPAPA_WPAJ@Z
_TEXT	SEGMENT
_Var$ = -28						; size = 24
_hRC$ = -4						; size = 4
_this$ = 8						; size = 4
_pStatisticsBuffer$ = 12				; size = 4
_pRC$ = 16						; size = 4
?RetrieveStatistics@COPOSSoundPlayer@@UAGJPAPA_WPAJ@Z PROC ; COPOSSoundPlayer::RetrieveStatistics, COMDAT

; 1215 : {

  00000	55		 push	 ebp
  00001	8b ec		 mov	 ebp, esp
  00003	83 ec 1c	 sub	 esp, 28			; 0000001cH
; File C:\Develop\OPOS-CCO\Common\OposVariant.h

; 77   :     OposVariant() { vt = VT_EMPTY; _bNeedClear = false; }

  00006	33 c0		 xor	 eax, eax
; File C:\Develop\OPOS-CCO\zSoundPlayer\SoundPlayerImpl.cpp

; 1218 :     Var.SetBSTR_InOutPtr( pStatisticsBuffer, hRC );

  00008	8d 4d e4	 lea	 ecx, DWORD PTR _Var$[ebp]
  0000b	21 45 fc	 and	 DWORD PTR _hRC$[ebp], eax
  0000e	56		 push	 esi
; File C:\Develop\OPOS-CCO\Common\OposVariant.h

; 77   :     OposVariant() { vt = VT_EMPTY; _bNeedClear = false; }

  0000f	66 89 45 e4	 mov	 WORD PTR _Var$[ebp], ax
  00013	88 45 f4	 mov	 BYTE PTR _Var$[ebp+16], al
; File C:\Develop\OPOS-CCO\zSoundPlayer\SoundPlayerImpl.cpp

; 1218 :     Var.SetBSTR_InOutPtr( pStatisticsBuffer, hRC );

  00016	8d 45 fc	 lea	 eax, DWORD PTR _hRC$[ebp]
  00019	50		 push	 eax
  0001a	ff 75 0c	 push	 DWORD PTR _pStatisticsBuffer$[ebp]
  0001d	e8 00 00 00 00	 call	 ?SetBSTR_InOutPtr@OposVariant@@QAE_NPAPA_WAAJ@Z ; OposVariant::SetBSTR_InOutPtr

; 1219 :     return DoInvoke( DEBUGPARAM("RetrieveStatistics") hRC, &Var, 1, nDIRetrieveStatistics, pRC );

  00022	8b 4d 08	 mov	 ecx, DWORD PTR _this$[ebp]
  00025	8d 45 e4	 lea	 eax, DWORD PTR _Var$[ebp]
  00028	6a 01		 push	 1
  0002a	ff 75 10	 push	 DWORD PTR _pRC$[ebp]
  0002d	6a 0d		 push	 13			; 0000000dH
  0002f	6a 01		 push	 1
  00031	50		 push	 eax
  00032	ff 75 fc	 push	 DWORD PTR _hRC$[ebp]
  00035	e8 00 00 00 00	 call	 ?DoInvoke@COPOSSoundPlayer@@IAEJJPAVOposVariant@@IHPAJ_N@Z ; COPOSSoundPlayer::DoInvoke
; File C:\Develop\OPOS-CCO\Common\OposVariant.h

; 78   :     ~OposVariant() { if (_bNeedClear) Clear(); }

  0003a	80 7d f4 00	 cmp	 BYTE PTR _Var$[ebp+16], 0
; File C:\Develop\OPOS-CCO\zSoundPlayer\SoundPlayerImpl.cpp

; 1219 :     return DoInvoke( DEBUGPARAM("RetrieveStatistics") hRC, &Var, 1, nDIRetrieveStatistics, pRC );

  0003e	8b f0		 mov	 esi, eax
; File C:\Develop\OPOS-CCO\Common\OposVariant.h

; 78   :     ~OposVariant() { if (_bNeedClear) Clear(); }

  00040	74 0e		 je	 SHORT $LN6@RetrieveSt

; 79   :     HRESULT Clear() { _bNeedClear = false; return VariantClear(this); }

  00042	8d 45 e4	 lea	 eax, DWORD PTR _Var$[ebp]
  00045	c6 45 f4 00	 mov	 BYTE PTR _Var$[ebp+16], 0
  00049	50		 push	 eax
  0004a	ff 15 00 00 00
	00		 call	 DWORD PTR __imp__VariantClear@4
$LN6@RetrieveSt:
; File C:\Develop\OPOS-CCO\zSoundPlayer\SoundPlayerImpl.cpp

; 1219 :     return DoInvoke( DEBUGPARAM("RetrieveStatistics") hRC, &Var, 1, nDIRetrieveStatistics, pRC );

  00050	8b c6		 mov	 eax, esi
  00052	5e		 pop	 esi

; 1220 : }

  00053	c9		 leave
  00054	c2 0c 00	 ret	 12			; 0000000cH
?RetrieveStatistics@COPOSSoundPlayer@@UAGJPAPA_WPAJ@Z ENDP ; COPOSSoundPlayer::RetrieveStatistics
_TEXT	ENDS
; Function compile flags: /Ogsp
; File C:\Develop\OPOS-CCO\zSoundPlayer\SoundPlayerImpl.cpp
; File C:\Develop\OPOS-CCO\Common\OposVariant.h
; File C:\Develop\OPOS-CCO\zSoundPlayer\SoundPlayerImpl.cpp
; File C:\Develop\OPOS-CCO\Common\OposVariant.h
; File C:\Develop\OPOS-CCO\zSoundPlayer\SoundPlayerImpl.cpp
; File C:\Develop\OPOS-CCO\Common\OposVariant.h
; File C:\Develop\OPOS-CCO\zSoundPlayer\SoundPlayerImpl.cpp
; File C:\Develop\OPOS-CCO\Common\OposVariant.h
; File C:\Develop\OPOS-CCO\zSoundPlayer\SoundPlayerImpl.cpp
;	COMDAT ?ResetStatistics@COPOSSoundPlayer@@UAGJPA_WPAJ@Z
_TEXT	SEGMENT
_Var$ = -28						; size = 24
_hRC$ = -4						; size = 4
_this$ = 8						; size = 4
_StatisticsBuffer$ = 12					; size = 4
_pRC$ = 16						; size = 4
?ResetStatistics@COPOSSoundPlayer@@UAGJPA_WPAJ@Z PROC	; COPOSSoundPlayer::ResetStatistics, COMDAT

; 1203 : {

  00000	55		 push	 ebp
  00001	8b ec		 mov	 ebp, esp
  00003	83 ec 1c	 sub	 esp, 28			; 0000001cH
; File C:\Develop\OPOS-CCO\Common\OposVariant.h

; 77   :     OposVariant() { vt = VT_EMPTY; _bNeedClear = false; }

  00006	33 c0		 xor	 eax, eax
; File C:\Develop\OPOS-CCO\zSoundPlayer\SoundPlayerImpl.cpp

; 1206 :     Var.SetBSTR( StatisticsBuffer, hRC );

  00008	8d 4d e4	 lea	 ecx, DWORD PTR _Var$[ebp]
  0000b	21 45 fc	 and	 DWORD PTR _hRC$[ebp], eax
  0000e	56		 push	 esi
; File C:\Develop\OPOS-CCO\Common\OposVariant.h

; 77   :     OposVariant() { vt = VT_EMPTY; _bNeedClear = false; }

  0000f	66 89 45 e4	 mov	 WORD PTR _Var$[ebp], ax
  00013	88 45 f4	 mov	 BYTE PTR _Var$[ebp+16], al
; File C:\Develop\OPOS-CCO\zSoundPlayer\SoundPlayerImpl.cpp

; 1206 :     Var.SetBSTR( StatisticsBuffer, hRC );

  00016	8d 45 fc	 lea	 eax, DWORD PTR _hRC$[ebp]
  00019	50		 push	 eax
  0001a	ff 75 0c	 push	 DWORD PTR _StatisticsBuffer$[ebp]
  0001d	e8 00 00 00 00	 call	 ?SetBSTR@OposVariant@@QAEXPA_WAAJ@Z ; OposVariant::SetBSTR

; 1207 :     return DoInvoke( DEBUGPARAM("ResetStatistics") hRC, &Var, 1, nDIResetStatistics, pRC );

  00022	8b 4d 08	 mov	 ecx, DWORD PTR _this$[ebp]
  00025	8d 45 e4	 lea	 eax, DWORD PTR _Var$[ebp]
  00028	6a 01		 push	 1
  0002a	ff 75 10	 push	 DWORD PTR _pRC$[ebp]
  0002d	6a 0c		 push	 12			; 0000000cH
  0002f	6a 01		 push	 1
  00031	50		 push	 eax
  00032	ff 75 fc	 push	 DWORD PTR _hRC$[ebp]
  00035	e8 00 00 00 00	 call	 ?DoInvoke@COPOSSoundPlayer@@IAEJJPAVOposVariant@@IHPAJ_N@Z ; COPOSSoundPlayer::DoInvoke
; File C:\Develop\OPOS-CCO\Common\OposVariant.h

; 78   :     ~OposVariant() { if (_bNeedClear) Clear(); }

  0003a	80 7d f4 00	 cmp	 BYTE PTR _Var$[ebp+16], 0
; File C:\Develop\OPOS-CCO\zSoundPlayer\SoundPlayerImpl.cpp

; 1207 :     return DoInvoke( DEBUGPARAM("ResetStatistics") hRC, &Var, 1, nDIResetStatistics, pRC );

  0003e	8b f0		 mov	 esi, eax
; File C:\Develop\OPOS-CCO\Common\OposVariant.h

; 78   :     ~OposVariant() { if (_bNeedClear) Clear(); }

  00040	74 0e		 je	 SHORT $LN6@ResetStati

; 79   :     HRESULT Clear() { _bNeedClear = false; return VariantClear(this); }

  00042	8d 45 e4	 lea	 eax, DWORD PTR _Var$[ebp]
  00045	c6 45 f4 00	 mov	 BYTE PTR _Var$[ebp+16], 0
  00049	50		 push	 eax
  0004a	ff 15 00 00 00
	00		 call	 DWORD PTR __imp__VariantClear@4
$LN6@ResetStati:
; File C:\Develop\OPOS-CCO\zSoundPlayer\SoundPlayerImpl.cpp

; 1207 :     return DoInvoke( DEBUGPARAM("ResetStatistics") hRC, &Var, 1, nDIResetStatistics, pRC );

  00050	8b c6		 mov	 eax, esi
  00052	5e		 pop	 esi

; 1208 : }

  00053	c9		 leave
  00054	c2 0c 00	 ret	 12			; 0000000cH
?ResetStatistics@COPOSSoundPlayer@@UAGJPA_WPAJ@Z ENDP	; COPOSSoundPlayer::ResetStatistics
_TEXT	ENDS
; Function compile flags: /Ogsp
; File C:\Develop\OPOS-CCO\zSoundPlayer\SoundPlayerImpl.cpp
; File C:\Develop\OPOS-CCO\zSoundPlayer\SoundPlayerImpl.h
; File C:\Develop\OPOS-CCO\zSoundPlayer\SoundPlayerImpl.cpp
; File C:\Develop\OPOS-CCO\zSoundPlayer\SoundPlayerEvent.h
; File C:\Develop\OPOS-CCO\zSoundPlayer\SoundPlayerImpl.cpp
;	COMDAT ?ReleaseDevice@COPOSSoundPlayer@@UAGJPAJ@Z
_TEXT	SEGMENT
_this$ = 8						; size = 4
_pRC$ = 12						; size = 4
?ReleaseDevice@COPOSSoundPlayer@@UAGJPAJ@Z PROC		; COPOSSoundPlayer::ReleaseDevice, COMDAT

; 1128 : {

  00000	55		 push	 ebp
  00001	8b ec		 mov	 ebp, esp
  00003	56		 push	 esi
; File C:\Develop\OPOS-CCO\zSoundPlayer\SoundPlayerImpl.h

; 156  :         { return _nCOResultCode = nRC; }

  00004	8b 75 08	 mov	 esi, DWORD PTR _this$[ebp]
  00007	83 8e f0 00 00
	00 ff		 or	 DWORD PTR [esi+240], -1
; File C:\Develop\OPOS-CCO\zSoundPlayer\SoundPlayerImpl.cpp

; 1132 :     if ( ! _bOpened )

  0000e	80 be e0 00 00
	00 00		 cmp	 BYTE PTR [esi+224], 0
  00015	75 0d		 jne	 SHORT $LN2@ReleaseDev

; 1133 :     {
; 1134 :         *pRC = OPOS_E_CLOSED;

  00017	8b 45 0c	 mov	 eax, DWORD PTR _pRC$[ebp]
  0001a	c7 00 65 00 00
	00		 mov	 DWORD PTR [eax], 101	; 00000065H

; 1135 :         DOTRACEV( ( _T("*ReleaseDevice [Function] -- Closed") ) );
; 1136 :         return S_OK;

  00020	33 c0		 xor	 eax, eax
  00022	eb 26		 jmp	 SHORT $LN1@ReleaseDev
$LN2@ReleaseDev:
  00024	53		 push	 ebx
; File C:\Develop\OPOS-CCO\zSoundPlayer\SoundPlayerEvent.h

; 230  :         ::SetEvent( _Event_FiringDoneEvent );

  00025	ff b6 58 01 00
	00		 push	 DWORD PTR [esi+344]
  0002b	33 db		 xor	 ebx, ebx
  0002d	88 9e 55 01 00
	00		 mov	 BYTE PTR [esi+341], bl
  00033	ff 15 00 00 00
	00		 call	 DWORD PTR __imp__SetEvent@4
; File C:\Develop\OPOS-CCO\zSoundPlayer\SoundPlayerImpl.cpp

; 1143 :     return DoInvoke( DEBUGPARAM("ReleaseDevice") S_OK, NULL, 0, nDIReleaseDevice, pRC, false );

  00039	53		 push	 ebx
  0003a	ff 75 0c	 push	 DWORD PTR _pRC$[ebp]
  0003d	8b ce		 mov	 ecx, esi
  0003f	6a 0b		 push	 11			; 0000000bH
  00041	53		 push	 ebx
  00042	53		 push	 ebx
  00043	53		 push	 ebx
  00044	e8 00 00 00 00	 call	 ?DoInvoke@COPOSSoundPlayer@@IAEJJPAVOposVariant@@IHPAJ_N@Z ; COPOSSoundPlayer::DoInvoke
  00049	5b		 pop	 ebx
$LN1@ReleaseDev:
  0004a	5e		 pop	 esi

; 1144 : }

  0004b	5d		 pop	 ebp
  0004c	c2 08 00	 ret	 8
?ReleaseDevice@COPOSSoundPlayer@@UAGJPAJ@Z ENDP		; COPOSSoundPlayer::ReleaseDevice
_TEXT	ENDS
; Function compile flags: /Ogsp
; File C:\Develop\OPOS-CCO\zSoundPlayer\SoundPlayerImpl.cpp
; File C:\Develop\OPOS-CCO\zSoundPlayer\SoundPlayerImpl.h
; File C:\Develop\OPOS-CCO\zSoundPlayer\SoundPlayerImpl.cpp
; File C:\Develop\OPOS-CCO\zSoundPlayer\SoundPlayerImpl.h
; File C:\Develop\OPOS-CCO\zSoundPlayer\SoundPlayerImpl.cpp
; File C:\Develop\OPOS-CCO\Common\CWString.h
; File C:\Develop\OPOS-CCO\zSoundPlayer\SoundPlayerImpl.cpp
; File C:\Develop\OPOS-CCO\Common\CWString.h
; File C:\Develop\OPOS-CCO\zSoundPlayer\SoundPlayerImpl.cpp
; File C:\Develop\OPOS-CCO\Common\CWString.h
; File C:\Develop\OPOS-CCO\zSoundPlayer\SoundPlayerImpl.cpp
; File C:\Develop\OPOS-CCO\zSoundPlayer\SoundPlayerImpl.h
; File C:\Develop\OPOS-CCO\zSoundPlayer\SoundPlayerImpl.cpp
; File C:\Develop\OPOS-CCO\Common\CWString.h
; File C:\Develop\OPOS-CCO\zSoundPlayer\SoundPlayerImpl.cpp
; File C:\Develop\OPOS-CCO\Common\CWString.h
; File C:\Develop\OPOS-CCO\zSoundPlayer\SoundPlayerImpl.cpp
; File C:\Develop\OPOS-CCO\Common\CWString.h
; File C:\Develop\OPOS-CCO\zSoundPlayer\SoundPlayerImpl.cpp
; File C:\Develop\OPOS-CCO\Common\CWString.h
; File C:\Develop\OPOS-CCO\zSoundPlayer\SoundPlayerImpl.cpp
; File C:\Develop\OPOS-CCO\Common\CWString.h
; File C:\Develop\OPOS-CCO\zSoundPlayer\SoundPlayerImpl.cpp
; File C:\Develop\OPOS-CCO\Common\CWString.h
; File C:\Develop\OPOS-CCO\zSoundPlayer\SoundPlayerImpl.cpp
; File C:\Develop\OPOS-CCO\Common\CWString.h
; File C:\Develop\OPOS-CCO\zSoundPlayer\SoundPlayerImpl.cpp
; File C:\Develop\OPOS-CCO\Common\OposVariant.h
; File C:\Develop\OPOS-CCO\Common\CWString.h
; File C:\Develop\OPOS-CCO\zSoundPlayer\SoundPlayerImpl.cpp
; File C:\Develop\OPOS-CCO\Common\CWString.h
; File C:\Develop\OPOS-CCO\zSoundPlayer\SoundPlayerImpl.cpp
; File C:\Develop\OPOS-CCO\Common\CWString.h
; File C:\Develop\OPOS-CCO\zSoundPlayer\SoundPlayerImpl.cpp
; File C:\Develop\OPOS-CCO\Common\OposVariant.h
; File C:\Develop\OPOS-CCO\zSoundPlayer\SoundPlayerImpl.cpp
; File C:\Develop\OPOS-CCO\zSoundPlayer\SoundPlayerEvent.h
; File C:\Develop\OPOS-CCO\zSoundPlayer\SoundPlayerImpl.cpp
; File C:\Develop\OPOS-CCO\zSoundPlayer\SoundPlayerEvent.h
; File C:\Develop\OPOS-CCO\zSoundPlayer\SoundPlayerImpl.cpp
; File C:\Develop\OPOS-CCO\zSoundPlayer\SoundPlayerImpl.h
; File C:\Develop\OPOS-CCO\zSoundPlayer\SoundPlayerImpl.cpp
; File C:\Develop\OPOS-CCO\Common\OposVariant.h
; File C:\Develop\OPOS-CCO\zSoundPlayer\SoundPlayerImpl.cpp
; File C:\Develop\OPOS-CCO\zSoundPlayer\SoundPlayerImpl.h
; File C:\Develop\OPOS-CCO\zSoundPlayer\SoundPlayerImpl.cpp
; File C:\Develop\OPOS-CCO\Common\OposVariant.h
; File C:\Develop\OPOS-CCO\zSoundPlayer\SoundPlayerImpl.cpp
; File C:\Develop\OPOS-CCO\Common\OposVariant.h
; File C:\Develop\OPOS-CCO\zSoundPlayer\SoundPlayerImpl.cpp
; File C:\Develop\OPOS-CCO\Common\OposVariant.h
; File C:\Develop\OPOS-CCO\zSoundPlayer\SoundPlayerImpl.cpp
; File C:\Develop\OPOS-CCO\Common\OposVariant.h
; File C:\Develop\OPOS-CCO\zSoundPlayer\SoundPlayerImpl.cpp
; File C:\Develop\OPOS-CCO\Common\OposVariant.h
; File C:\Develop\OPOS-CCO\zSoundPlayer\SoundPlayerImpl.cpp
;	COMDAT ?Open@COPOSSoundPlayer@@UAGJPA_WPAJ@Z
_TEXT	SEGMENT
_VarResult$1 = -1720					; size = 24
_nSOVersion$ = -1696					; size = 4
_pUnknown$ = -1692					; size = 4
_hServiceKey$ = -1688					; size = 4
tv1290 = -1684						; size = 4
_pDispatch$ = -1680					; size = 4
_dwType$ = -1676					; size = 4
_dwSize$ = -1672					; size = 4
_hBaseKey$ = -1668					; size = 4
_pMN$2 = -1664						; size = 4
_pMN$3 = -1664						; size = 4
_pRC$GSCopy$1$ = -1660					; size = 4
_hRCTmp$4 = -1660					; size = 4
tv1257 = -1656						; size = 4
tv1223 = -1656						; size = 4
$T5 = -1656						; size = 4
_DispID$6 = -1656					; size = 4
$T7 = -1652						; size = 20
$T8 = -1652						; size = 20
_MN$9 = -1652						; size = 20
$T10 = -1652						; size = 20
$T11 = -1652						; size = 20
_Disp$12 = -1648					; size = 16
_hRC$ = -1632						; size = 4
_SOClassID$ = -1628					; size = 16
_Vars$ = -1612						; size = 72
_szBaseKey$ = -1540					; size = 512
_sSOProgID$ = -1028					; size = 512
_szPhysicalDeviceName$ = -516				; size = 512
__$ArrayPad$ = -4					; size = 4
_this$ = 8						; size = 4
_DeviceName$ = 12					; size = 4
_pRC$ = 16						; size = 4
?Open@COPOSSoundPlayer@@UAGJPA_WPAJ@Z PROC		; COPOSSoundPlayer::Open, COMDAT

; 680  : {

  00000	55		 push	 ebp
  00001	8b ec		 mov	 ebp, esp
  00003	81 ec b8 06 00
	00		 sub	 esp, 1720		; 000006b8H
  00009	a1 00 00 00 00	 mov	 eax, DWORD PTR ___security_cookie
  0000e	33 c5		 xor	 eax, ebp
  00010	89 45 fc	 mov	 DWORD PTR __$ArrayPad$[ebp], eax
  00013	8b 45 10	 mov	 eax, DWORD PTR _pRC$[ebp]
  00016	56		 push	 esi
  00017	8b 75 0c	 mov	 esi, DWORD PTR _DeviceName$[ebp]
  0001a	57		 push	 edi
  0001b	8b 7d 08	 mov	 edi, DWORD PTR _this$[ebp]
  0001e	89 85 84 f9 ff
	ff		 mov	 DWORD PTR _pRC$GSCopy$1$[ebp], eax

; 681  :     HRESULT hRC;
; 682  :     LONG nError;
; 683  : 
; 684  :     DOTRACE( ( _T("*Open [Function]: DeviceName <%ls>"), DeviceName ) );
; 685  : 
; 686  :     // If already open, return error.
; 687  :     if ( _bOpened )

  00024	80 bf e0 00 00
	00 00		 cmp	 BYTE PTR [edi+224], 0
  0002b	74 1c		 je	 SHORT $LN4@Open
; File C:\Develop\OPOS-CCO\zSoundPlayer\SoundPlayerImpl.h

; 156  :         { return _nCOResultCode = nRC; }

  0002d	6a 6a		 push	 106			; 0000006aH
  0002f	59		 pop	 ecx
  00030	89 8f f0 00 00
	00		 mov	 DWORD PTR [edi+240], ecx
; File C:\Develop\OPOS-CCO\zSoundPlayer\SoundPlayerImpl.cpp

; 689  :         *pRC = SetRC( OPOS_E_ILLEGAL );

  00036	89 08		 mov	 DWORD PTR [eax], ecx

; 690  :         _nOpenResult = OPOS_OR_ALREADYOPEN;
; 691  :         DOTRACE( ( _T("-  Failed: CCO already open (%d/%d)"), *pRC, _nOpenResult ) );
; 692  :         return S_OK;

  00038	33 c0		 xor	 eax, eax
  0003a	c7 87 e4 00 00
	00 2d 01 00 00	 mov	 DWORD PTR [edi+228], 301 ; 0000012dH
  00044	e9 e9 07 00 00	 jmp	 $LN1@Open
$LN4@Open:
  00049	53		 push	 ebx
; File C:\Develop\OPOS-CCO\zSoundPlayer\SoundPlayerImpl.h

; 156  :         { return _nCOResultCode = nRC; }

  0004a	6a 6d		 push	 109			; 0000006dH
  0004c	59		 pop	 ecx
  0004d	89 8f f0 00 00
	00		 mov	 DWORD PTR [edi+240], ecx
; File C:\Develop\OPOS-CCO\zSoundPlayer\SoundPlayerImpl.cpp

; 696  :     *pRC = SetRC( OPOS_E_NOEXIST );

  00053	89 08		 mov	 DWORD PTR [eax], ecx

; 697  :     _nOpenResult = OPOS_OR_REGBADNAME;
; 698  : 
; 699  :     // Check the DeviceName length...
; 700  :     UINT nDeviceNameLen = ::SysStringLen( DeviceName );

  00055	56		 push	 esi
  00056	c7 87 e4 00 00
	00 2e 01 00 00	 mov	 DWORD PTR [edi+228], 302 ; 0000012eH
  00060	ff 15 00 00 00
	00		 call	 DWORD PTR __imp__SysStringLen@4

; 701  : 
; 702  :     //  - Ensure that the DeviceName is not an empty string.
; 703  :     if ( nDeviceNameLen == 0 )

  00066	85 c0		 test	 eax, eax
  00068	0f 84 c1 07 00
	00		 je	 $LN12@Open

; 704  :     {
; 705  :         DOTRACE( ( _T("-  Failed: Empty device name (%d/%d)"), *pRC, _nOpenResult ) );
; 706  :         return S_OK;
; 707  :     }
; 708  : 
; 709  :     //  - Ensure that the DeviceName is not unreasonably long.
; 710  :     //     Otherwise it may overrun this line below: wcscpy( szPhysicalDeviceName, DeviceName )
; 711  :     if ( nDeviceNameLen >= MAX_REGBUFFER_SIZE )

  0006e	3d 00 01 00 00	 cmp	 eax, 256		; 00000100H
  00073	0f 83 b6 07 00
	00		 jae	 $LN12@Open

; 712  :     {
; 713  :         DOTRACE( ( _T("-  Failed: Device name too big (%d/%d)"), *pRC, _nOpenResult ) );
; 714  :         return S_OK;
; 715  :     }
; 716  : 
; 717  :     // Form and open the base key.
; 718  :     TCHAR szBaseKey[ MAX_REGBUFFER_SIZE ];
; 719  :     HKEY hBaseKey;
; 720  :     cw_strcpy( szBaseKey, OPOS_ROOTKEY "\\" OPOS_CLASSKEY_SPLY );

  00079	8d 85 fc f9 ff
	ff		 lea	 eax, DWORD PTR _szBaseKey$[ebp]
  0007f	68 00 00 00 00	 push	 OFFSET ??_C@_0CO@MENBAAH@SOFTWARE?2OLEforRetail?2ServiceOP@
  00084	50		 push	 eax
  00085	e8 00 00 00 00	 call	 ?cw_strcpy@@YAHPA_WPBD@Z ; cw_strcpy
  0008a	59		 pop	 ecx
  0008b	59		 pop	 ecx

; 721  :     nError = RegOpenKeyEx(

  0008c	8d 85 7c f9 ff
	ff		 lea	 eax, DWORD PTR _hBaseKey$[ebp]
  00092	33 db		 xor	 ebx, ebx
  00094	50		 push	 eax
  00095	68 19 00 02 00	 push	 131097			; 00020019H
  0009a	53		 push	 ebx
  0009b	8d 85 fc f9 ff
	ff		 lea	 eax, DWORD PTR _szBaseKey$[ebp]
  000a1	50		 push	 eax
  000a2	68 02 00 00 80	 push	 -2147483646		; 80000002H
  000a7	ff 15 00 00 00
	00		 call	 DWORD PTR __imp__RegOpenKeyExW@20

; 722  :             HKEY_LOCAL_MACHINE,         // Handle to open key
; 723  :             szBaseKey,                  // Address of name of subkey to open
; 724  :             0,                          // Reserved
; 725  :             KEY_READ,                   // Security access mask
; 726  :             &hBaseKey );                // Address of handle to open key
; 727  :     if ( ERROR_SUCCESS != nError )

  000ad	85 c0		 test	 eax, eax
  000af	0f 85 7a 07 00
	00		 jne	 $LN12@Open
; File C:\Develop\OPOS-CCO\Common\CWString.h

; 196  :       : m_pChar((char*)-1),       m_nDupFlag(0),

  000b5	83 8d 8c f9 ff
	ff ff		 or	 DWORD PTR $T11[ebp], -1

; 197  :         m_pWide((wchar_t*)pWide), m_nCharsWide(-1)      {}

  000bc	8b c6		 mov	 eax, esi
  000be	83 8d 98 f9 ff
	ff ff		 or	 DWORD PTR $T11[ebp+12], -1
; File C:\Develop\OPOS-CCO\zSoundPlayer\SoundPlayerImpl.cpp

; 741  :     DWORD dwSize = sizeof( szPhysicalDeviceName );

  000c5	c7 85 78 f9 ff
	ff 00 02 00 00	 mov	 DWORD PTR _dwSize$[ebp], 512 ; 00000200H
; File C:\Develop\OPOS-CCO\Common\CWString.h

; 197  :         m_pWide((wchar_t*)pWide), m_nCharsWide(-1)      {}

  000cf	89 85 90 f9 ff
	ff		 mov	 DWORD PTR $T11[ebp+4], eax
  000d5	88 9d 9c f9 ff
	ff		 mov	 BYTE PTR $T11[ebp+16], bl
  000db	83 fe ff	 cmp	 esi, -1

; 214  :             if (m_pWide == (wchar_t*)-1) DupWide();

  000de	75 11		 jne	 SHORT $LN56@Open
  000e0	8d 8d 8c f9 ff
	ff		 lea	 ecx, DWORD PTR $T11[ebp]
  000e6	e8 00 00 00 00	 call	 ?DupWide@_CW@@AAEXXZ	; _CW::DupWide
  000eb	8b 85 90 f9 ff
	ff		 mov	 eax, DWORD PTR $T11[ebp+4]
$LN56@Open:
; File C:\Develop\OPOS-CCO\zSoundPlayer\SoundPlayerImpl.cpp

; 749  :             &dwSize ) ||                // Address of data buffer size

  000f1	8d 8d 78 f9 ff
	ff		 lea	 ecx, DWORD PTR _dwSize$[ebp]
  000f7	51		 push	 ecx
  000f8	8d 8d fc fd ff
	ff		 lea	 ecx, DWORD PTR _szPhysicalDeviceName$[ebp]
  000fe	51		 push	 ecx
  000ff	8d 8d 74 f9 ff
	ff		 lea	 ecx, DWORD PTR _dwType$[ebp]
  00105	51		 push	 ecx
  00106	53		 push	 ebx
  00107	50		 push	 eax
  00108	ff b5 7c f9 ff
	ff		 push	 DWORD PTR _hBaseKey$[ebp]
  0010e	ff 15 00 00 00
	00		 call	 DWORD PTR __imp__RegQueryValueExW@24
  00114	85 c0		 test	 eax, eax
  00116	75 09		 jne	 SHORT $LN41@Open
  00118	83 bd 74 f9 ff
	ff 01		 cmp	 DWORD PTR _dwType$[ebp], 1
  0011f	74 02		 je	 SHORT $LN42@Open
$LN41@Open:
  00121	b3 01		 mov	 bl, 1
$LN42@Open:
; File C:\Develop\OPOS-CCO\Common\CWString.h

; 227  :         {   if (m_nDupFlag == 'c')      delete [] m_pChar;

  00123	8a 85 9c f9 ff
	ff		 mov	 al, BYTE PTR $T11[ebp+16]
  00129	3c 63		 cmp	 al, 99			; 00000063H
  0012b	75 08		 jne	 SHORT $LN59@Open
  0012d	ff b5 8c f9 ff
	ff		 push	 DWORD PTR $T11[ebp]
  00133	eb 0a		 jmp	 SHORT $LN224@Open
$LN59@Open:

; 228  :             else if (m_nDupFlag == 'w') delete [] m_pWide;

  00135	3c 77		 cmp	 al, 119			; 00000077H
  00137	75 0c		 jne	 SHORT $LN61@Open
  00139	ff b5 90 f9 ff
	ff		 push	 DWORD PTR $T11[ebp+4]
$LN224@Open:
; File C:\Develop\OPOS-CCO\zSoundPlayer\SoundPlayerImpl.cpp

; 749  :             &dwSize ) ||                // Address of data buffer size

  0013f	e8 00 00 00 00	 call	 ??_V@YAXPAX@Z		; operator delete[]
  00144	59		 pop	 ecx
$LN61@Open:
  00145	84 db		 test	 bl, bl
  00147	74 19		 je	 SHORT $LN8@Open

; 750  :          dwType != REG_SZ
; 751  :        )
; 752  :     {
; 753  :         wcscpy( szPhysicalDeviceName, DeviceName );

  00149	8d 8d fc fd ff
	ff		 lea	 ecx, DWORD PTR _szPhysicalDeviceName$[ebp]
  0014f	2b ce		 sub	 ecx, esi
$LL43@Open:
  00151	0f b7 06	 movzx	 eax, WORD PTR [esi]
  00154	66 89 04 31	 mov	 WORD PTR [ecx+esi], ax
  00158	8d 76 02	 lea	 esi, DWORD PTR [esi+2]
  0015b	66 85 c0	 test	 ax, ax
  0015e	75 f1		 jne	 SHORT $LL43@Open

; 754  :         DOTRACE( ( _T("    DeviceName is not a LogicalName; treating as PhysicalName") ) );
; 755  :     }

  00160	eb 06		 jmp	 SHORT $LN9@Open
$LN8@Open:

; 756  :     else
; 757  :     {
; 758  :         NULTERMINATE(szPhysicalDeviceName);

  00162	33 c0		 xor	 eax, eax
  00164	66 89 45 fa	 mov	 WORD PTR _szPhysicalDeviceName$[ebp+510], ax
$LN9@Open:

; 759  :         DOTRACE( ( _T("    DeviceName is a LogicalName; converted to PhysicalName <%s>"), szPhysicalDeviceName ) );
; 760  :     }
; 761  : 
; 762  :     // Open the physical registry entry. Close the base key.
; 763  :     //   If fails, then return error.
; 764  :     HKEY hServiceKey;
; 765  :     LONG nRegStat = RegOpenKeyEx(

  00168	8d 85 68 f9 ff
	ff		 lea	 eax, DWORD PTR _hServiceKey$[ebp]
  0016e	50		 push	 eax
  0016f	68 19 00 02 00	 push	 131097			; 00020019H
  00174	6a 00		 push	 0
  00176	8d 85 fc fd ff
	ff		 lea	 eax, DWORD PTR _szPhysicalDeviceName$[ebp]
  0017c	50		 push	 eax
  0017d	ff b5 7c f9 ff
	ff		 push	 DWORD PTR _hBaseKey$[ebp]
  00183	ff 15 00 00 00
	00		 call	 DWORD PTR __imp__RegOpenKeyExW@20

; 766  :             hBaseKey,                   // handle to open key
; 767  :             szPhysicalDeviceName,       // address of name of subkey to open
; 768  :             0,                          // reserved
; 769  :             KEY_READ,                   // security access mask
; 770  :             &hServiceKey );             // address of handle to open key
; 771  :     RegCloseKey( hBaseKey );

  00189	ff b5 7c f9 ff
	ff		 push	 DWORD PTR _hBaseKey$[ebp]
  0018f	8b f0		 mov	 esi, eax
  00191	ff 15 00 00 00
	00		 call	 DWORD PTR __imp__RegCloseKey@4

; 772  :     if ( ERROR_SUCCESS != nRegStat )

  00197	85 f6		 test	 esi, esi
  00199	0f 85 90 06 00
	00		 jne	 $LN12@Open

; 781  :     *pRC = SetRC( OPOS_E_NOSERVICE );

  0019f	8b 8d 84 f9 ff
	ff		 mov	 ecx, DWORD PTR _pRC$GSCopy$1$[ebp]

; 782  :     _nOpenResult = OPOS_OR_REGPROGID;

  001a5	8d 9f e4 00 00
	00		 lea	 ebx, DWORD PTR [edi+228]
; File C:\Develop\OPOS-CCO\zSoundPlayer\SoundPlayerImpl.h

; 156  :         { return _nCOResultCode = nRC; }

  001ab	6a 68		 push	 104			; 00000068H
  001ad	58		 pop	 eax
  001ae	89 87 f0 00 00
	00		 mov	 DWORD PTR [edi+240], eax
; File C:\Develop\OPOS-CCO\zSoundPlayer\SoundPlayerImpl.cpp

; 781  :     *pRC = SetRC( OPOS_E_NOSERVICE );

  001b4	89 01		 mov	 DWORD PTR [ecx], eax

; 783  : 
; 784  :     // Now get the Service Object's ProgID, which is the default value's data for the device's key.
; 785  :     //   If fails, then return error.
; 786  :     TCHAR sSOProgID[ MAX_REGBUFFER_SIZE ];
; 787  :     dwSize = sizeof( sSOProgID );
; 788  :     nRegStat = RegQueryValueEx(

  001b6	8d 85 78 f9 ff
	ff		 lea	 eax, DWORD PTR _dwSize$[ebp]
  001bc	50		 push	 eax
  001bd	8d 85 fc fb ff
	ff		 lea	 eax, DWORD PTR _sSOProgID$[ebp]
  001c3	89 9d 6c f9 ff
	ff		 mov	 DWORD PTR tv1290[ebp], ebx
  001c9	50		 push	 eax
  001ca	8d 85 74 f9 ff
	ff		 lea	 eax, DWORD PTR _dwType$[ebp]
  001d0	c7 03 2f 01 00
	00		 mov	 DWORD PTR [ebx], 303	; 0000012fH
  001d6	50		 push	 eax
  001d7	56		 push	 esi
  001d8	56		 push	 esi
  001d9	ff b5 68 f9 ff
	ff		 push	 DWORD PTR _hServiceKey$[ebp]
  001df	c7 85 78 f9 ff
	ff 00 02 00 00	 mov	 DWORD PTR _dwSize$[ebp], 512 ; 00000200H
  001e9	ff 15 00 00 00
	00		 call	 DWORD PTR __imp__RegQueryValueExW@24

; 789  :             hServiceKey,                // Handle to key to query
; 790  :             0,                          // Address of name of value to query
; 791  :             0,                          // Reserved
; 792  :             &dwType,                    // Address of buffer for value type
; 793  :             (LPBYTE) sSOProgID,         // Address of data buffer
; 794  :             &dwSize );                  // Address of data buffer size
; 795  :     RegCloseKey( hServiceKey );

  001ef	ff b5 68 f9 ff
	ff		 push	 DWORD PTR _hServiceKey$[ebp]
  001f5	8b f0		 mov	 esi, eax
  001f7	ff 15 00 00 00
	00		 call	 DWORD PTR __imp__RegCloseKey@4

; 796  :     if ( ERROR_SUCCESS != nRegStat || dwType != REG_SZ )

  001fd	85 f6		 test	 esi, esi
  001ff	0f 85 2a 06 00
	00		 jne	 $LN12@Open
  00205	83 bd 74 f9 ff
	ff 01		 cmp	 DWORD PTR _dwType$[ebp], 1
  0020c	0f 85 1d 06 00
	00		 jne	 $LN12@Open
; File C:\Develop\OPOS-CCO\Common\CWString.h

; 196  :       : m_pChar((char*)-1),       m_nDupFlag(0),

  00212	83 8d 8c f9 ff
	ff ff		 or	 DWORD PTR $T10[ebp], -1
; File C:\Develop\OPOS-CCO\zSoundPlayer\SoundPlayerImpl.cpp

; 802  :     NULTERMINATE(sSOProgID);

  00219	33 c0		 xor	 eax, eax
; File C:\Develop\OPOS-CCO\Common\CWString.h

; 197  :         m_pWide((wchar_t*)pWide), m_nCharsWide(-1)      {}

  0021b	83 8d 98 f9 ff
	ff ff		 or	 DWORD PTR $T10[ebp+12], -1
; File C:\Develop\OPOS-CCO\zSoundPlayer\SoundPlayerImpl.cpp

; 802  :     NULTERMINATE(sSOProgID);

  00222	66 89 85 fa fd
	ff ff		 mov	 WORD PTR _sSOProgID$[ebp+510], ax
; File C:\Develop\OPOS-CCO\Common\CWString.h

; 197  :         m_pWide((wchar_t*)pWide), m_nCharsWide(-1)      {}

  00229	8d 85 fc fb ff
	ff		 lea	 eax, DWORD PTR _sSOProgID$[ebp]
  0022f	8b c8		 mov	 ecx, eax
  00231	89 85 90 f9 ff
	ff		 mov	 DWORD PTR $T10[ebp+4], eax
  00237	c6 85 9c f9 ff
	ff 00		 mov	 BYTE PTR $T10[ebp+16], 0
  0023e	83 f9 ff	 cmp	 ecx, -1

; 214  :             if (m_pWide == (wchar_t*)-1) DupWide();

  00241	75 11		 jne	 SHORT $LN68@Open
  00243	8d 8d 8c f9 ff
	ff		 lea	 ecx, DWORD PTR $T10[ebp]
  00249	e8 00 00 00 00	 call	 ?DupWide@_CW@@AAEXXZ	; _CW::DupWide
  0024e	8b 85 90 f9 ff
	ff		 mov	 eax, DWORD PTR $T10[ebp+4]
$LN68@Open:
; File C:\Develop\OPOS-CCO\zSoundPlayer\SoundPlayerImpl.cpp

; 807  :     hRC = CLSIDFromProgID(

  00254	8d 8d a4 f9 ff
	ff		 lea	 ecx, DWORD PTR _SOClassID$[ebp]
  0025a	51		 push	 ecx
  0025b	50		 push	 eax
  0025c	ff 15 00 00 00
	00		 call	 DWORD PTR __imp__CLSIDFromProgID@8
  00262	89 85 a0 f9 ff
	ff		 mov	 DWORD PTR _hRC$[ebp], eax
; File C:\Develop\OPOS-CCO\Common\CWString.h

; 227  :         {   if (m_nDupFlag == 'c')      delete [] m_pChar;

  00268	8a 85 9c f9 ff
	ff		 mov	 al, BYTE PTR $T10[ebp+16]
  0026e	3c 63		 cmp	 al, 99			; 00000063H
  00270	75 08		 jne	 SHORT $LN71@Open
  00272	ff b5 8c f9 ff
	ff		 push	 DWORD PTR $T10[ebp]
  00278	eb 0a		 jmp	 SHORT $LN225@Open
$LN71@Open:

; 228  :             else if (m_nDupFlag == 'w') delete [] m_pWide;

  0027a	3c 77		 cmp	 al, 119			; 00000077H
  0027c	75 0c		 jne	 SHORT $LN73@Open
  0027e	ff b5 90 f9 ff
	ff		 push	 DWORD PTR $T10[ebp+4]
$LN225@Open:
; File C:\Develop\OPOS-CCO\zSoundPlayer\SoundPlayerImpl.cpp

; 810  :     if ( S_OK != hRC )

  00284	e8 00 00 00 00	 call	 ??_V@YAXPAX@Z		; operator delete[]
  00289	59		 pop	 ecx
$LN73@Open:
  0028a	83 bd a0 f9 ff
	ff 00		 cmp	 DWORD PTR _hRC$[ebp], 0
  00291	0f 85 98 05 00
	00		 jne	 $LN12@Open

; 811  :     {
; 812  :         DOTRACE( ( _T("-  Failed: Cannot convert ProgID to ClassID (%d/%d)"), *pRC, _nOpenResult ) );
; 813  :         DOTRACEERR( _T("    CLSIDFromProgID error 0x%X\n    %s"), hRC );
; 814  :         return S_OK;
; 815  :     }
; 816  :     DOTRACE( ( _T("    ProgID mapped to ClassID") ) );
; 817  : 
; 818  :     // Make the connection to the Service Object.
; 819  :     //   We create an instance, get the IDispatch pointer, then release the IUnknown pointer.
; 820  :     IUnknown* pUnknown;
; 821  :     hRC = CoCreateInstance(

  00297	8d 85 64 f9 ff
	ff		 lea	 eax, DWORD PTR _pUnknown$[ebp]
  0029d	50		 push	 eax
  0029e	68 00 00 00 00	 push	 OFFSET _IID_IUnknown
  002a3	6a 17		 push	 23			; 00000017H
  002a5	6a 00		 push	 0
  002a7	8d 85 a4 f9 ff
	ff		 lea	 eax, DWORD PTR _SOClassID$[ebp]
  002ad	50		 push	 eax
  002ae	ff 15 00 00 00
	00		 call	 DWORD PTR __imp__CoCreateInstance@20
  002b4	89 85 a0 f9 ff
	ff		 mov	 DWORD PTR _hRC$[ebp], eax

; 822  :             SOClassID,                  // Class identifier (CLSID) of the object
; 823  :             0,                          // Pointer to whether object is or isn't part of an aggregate
; 824  :             CLSCTX_ALL,                 // Context for running executable code
; 825  :             IID_IUnknown,               // Reference to the identifier of the interface
; 826  :             (void**) &pUnknown);        // Address of output variable that receives the interface pointer requested in riid
; 827  :     if ( S_OK != hRC )

  002ba	85 c0		 test	 eax, eax
  002bc	0f 85 67 05 00
	00		 jne	 $LN220@Open

; 828  :     {
; 829  :         _nOpenResult = OPOS_OR_CREATE;
; 830  :         DOTRACE( ( _T("-  Failed: Cannot create Service Object (%d/%d)"), *pRC, _nOpenResult ) );
; 831  :         DOTRACEERR( _T("    CoCreateInstance error 0x%X\n    %s"), hRC );
; 832  :         return S_OK;
; 833  :     }
; 834  :     DOTRACE( ( _T("    Created Service Object") ) );
; 835  : 
; 836  :     hRC = pUnknown->QueryInterface(

  002c2	8b 85 64 f9 ff
	ff		 mov	 eax, DWORD PTR _pUnknown$[ebp]
  002c8	8d b7 f4 00 00
	00		 lea	 esi, DWORD PTR [edi+244]
  002ce	56		 push	 esi
  002cf	68 00 00 00 00	 push	 OFFSET _IID_IDispatch
  002d4	50		 push	 eax
  002d5	8b 08		 mov	 ecx, DWORD PTR [eax]
  002d7	89 b5 88 f9 ff
	ff		 mov	 DWORD PTR tv1257[ebp], esi
  002dd	ff 11		 call	 DWORD PTR [ecx]
  002df	89 85 a0 f9 ff
	ff		 mov	 DWORD PTR _hRC$[ebp], eax

; 837  :             IID_IDispatch,              // Identifier of the requested interface
; 838  :             (void**) &_pService );      // Address of output variable that receives the interface pointer requested in iid
; 839  :     pUnknown->Release();                // Done with original pointer.

  002e5	8b 85 64 f9 ff
	ff		 mov	 eax, DWORD PTR _pUnknown$[ebp]
  002eb	50		 push	 eax
  002ec	8b 08		 mov	 ecx, DWORD PTR [eax]
  002ee	ff 51 08	 call	 DWORD PTR [ecx+8]

; 840  :     if ( S_OK != hRC )

  002f1	83 bd a0 f9 ff
	ff 00		 cmp	 DWORD PTR _hRC$[ebp], 0
  002f8	0f 85 2b 05 00
	00		 jne	 $LN220@Open

; 843  :         DOTRACE( ( _T("-  Failed: Cannot get Service Object's Dispatch pointer (%d/%d)"), *pRC, _nOpenResult ) );
; 844  :         DOTRACEERR( _T("    QueryInterface error 0x%X\n    %s"), hRC );
; 845  :         return S_OK;
; 846  :     }
; 847  :     DOTRACE( ( _T("    Acquired Service Object's dispatch pointer") ) );
; 848  : 
; 849  :     // Get the dispatch IDs for the methods supported by the Service Object.
; 850  :     //   Stop when we can't get one or when all are acquired.
; 851  :     int nMethodCount = 0;

  002fe	33 db		 xor	 ebx, ebx

; 852  :     while ( s_SOMethodNames[nMethodCount] != 0 )

  00300	39 1d 00 00 00
	00		 cmp	 DWORD PTR ?s_SOMethodNames@@3PAPADA, ebx
  00306	0f 84 08 01 00
	00		 je	 $LN221@Open
$LL2@Open:
; File C:\Develop\OPOS-CCO\Common\CWString.h

; 182  :         : m_pChar((char*)pChar), m_nChars(-1),

  0030c	8b 04 9d 00 00
	00 00		 mov	 eax, DWORD PTR ?s_SOMethodNames@@3PAPADA[ebx*4]

; 214  :             if (m_pWide == (wchar_t*)-1) DupWide();

  00313	8d 8d 8c f9 ff
	ff		 lea	 ecx, DWORD PTR _MN$9[ebp]

; 183  :           m_pWide((wchar_t*)-1), m_nDupFlag(0)          {}

  00319	83 8d 90 f9 ff
	ff ff		 or	 DWORD PTR _MN$9[ebp+4], -1
  00320	83 8d 94 f9 ff
	ff ff		 or	 DWORD PTR _MN$9[ebp+8], -1
  00327	89 85 8c f9 ff
	ff		 mov	 DWORD PTR _MN$9[ebp], eax
  0032d	c6 85 9c f9 ff
	ff 00		 mov	 BYTE PTR _MN$9[ebp+16], 0

; 214  :             if (m_pWide == (wchar_t*)-1) DupWide();

  00334	e8 00 00 00 00	 call	 ?DupWide@_CW@@AAEXXZ	; _CW::DupWide
; File C:\Develop\OPOS-CCO\zSoundPlayer\SoundPlayerImpl.cpp

; 856  :         if ( S_OK !=

  00339	8b 0e		 mov	 ecx, DWORD PTR [esi]
  0033b	8d 97 04 01 00
	00		 lea	 edx, DWORD PTR [edi+260]
  00341	8b 85 90 f9 ff
	ff		 mov	 eax, DWORD PTR _MN$9[ebp+4]
  00347	8d 14 9a	 lea	 edx, DWORD PTR [edx+ebx*4]
  0034a	52		 push	 edx
  0034b	68 00 08 00 00	 push	 2048			; 00000800H
  00350	6a 01		 push	 1
  00352	8d 95 80 f9 ff
	ff		 lea	 edx, DWORD PTR _pMN$3[ebp]
  00358	89 85 80 f9 ff
	ff		 mov	 DWORD PTR _pMN$3[ebp], eax
  0035e	8b 01		 mov	 eax, DWORD PTR [ecx]
  00360	52		 push	 edx
  00361	68 00 00 00 00	 push	 OFFSET _GUID_NULL
  00366	51		 push	 ecx
  00367	ff 50 14	 call	 DWORD PTR [eax+20]
  0036a	85 c0		 test	 eax, eax
  0036c	74 51		 je	 SHORT $LN211@Open

; 857  :              _pService->GetIDsOfNames(
; 858  :                 IID_NULL, &pMN, 1, LOCALE_SYSTEM_DEFAULT, &_DispIDs[nMethodCount] )
; 859  :            )
; 860  :         {
; 861  :             // If failed, do special cases:
; 862  :             //  - If we failed the newer CloseService, then try Close before failing.
; 863  :             if ( nMethodCount == nDICloseService )

  0036e	83 fb 09	 cmp	 ebx, 9
  00371	75 07		 jne	 SHORT $LN17@Open

; 864  :                 pMN = L"Close";

  00373	b8 00 00 00 00	 mov	 eax, OFFSET ??_C@_1M@IAIJHCCH@?$AAC?$AAl?$AAo?$AAs?$AAe@
  00378	eb 16		 jmp	 SHORT $LN22@Open
$LN17@Open:

; 865  :             //  - If we failed the newer COM-friendly name ClaimDevice or ReleaseDevice,
; 866  :             //    then try the original name Claim or Release before failing.
; 867  :             else if ( nMethodCount == nDIClaimDevice )

  0037a	83 fb 07	 cmp	 ebx, 7
  0037d	75 07		 jne	 SHORT $LN19@Open

; 868  :                 pMN = L"Claim";

  0037f	b8 00 00 00 00	 mov	 eax, OFFSET ??_C@_1M@PCPKGJAH@?$AAC?$AAl?$AAa?$AAi?$AAm@
  00384	eb 0a		 jmp	 SHORT $LN22@Open
$LN19@Open:

; 869  :             else if ( nMethodCount == nDIReleaseDevice )

  00386	83 fb 0b	 cmp	 ebx, 11			; 0000000bH
  00389	75 67		 jne	 SHORT $LN193@Open

; 870  :                 pMN = L"Release";

  0038b	b8 00 00 00 00	 mov	 eax, OFFSET ??_C@_1BA@NDFKIOCP@?$AAR?$AAe?$AAl?$AAe?$AAa?$AAs?$AAe@
$LN22@Open:

; 871  :             else                        // If not special case,
; 872  :                 break;                  //   stop.
; 873  :             if ( S_OK !=

  00390	8d 97 04 01 00
	00		 lea	 edx, DWORD PTR [edi+260]
  00396	89 85 80 f9 ff
	ff		 mov	 DWORD PTR _pMN$3[ebp], eax
  0039c	8b 06		 mov	 eax, DWORD PTR [esi]
  0039e	8d 14 9a	 lea	 edx, DWORD PTR [edx+ebx*4]
  003a1	52		 push	 edx
  003a2	68 00 08 00 00	 push	 2048			; 00000800H
  003a7	6a 01		 push	 1
  003a9	8b 08		 mov	 ecx, DWORD PTR [eax]
  003ab	8d 95 80 f9 ff
	ff		 lea	 edx, DWORD PTR _pMN$3[ebp]
  003b1	52		 push	 edx
  003b2	68 00 00 00 00	 push	 OFFSET _GUID_NULL
  003b7	50		 push	 eax
  003b8	ff 51 14	 call	 DWORD PTR [ecx+20]
  003bb	85 c0		 test	 eax, eax
  003bd	75 33		 jne	 SHORT $LN193@Open
$LN211@Open:
; File C:\Develop\OPOS-CCO\Common\CWString.h

; 227  :         {   if (m_nDupFlag == 'c')      delete [] m_pChar;

  003bf	8a 85 9c f9 ff
	ff		 mov	 al, BYTE PTR _MN$9[ebp+16]
; File C:\Develop\OPOS-CCO\zSoundPlayer\SoundPlayerImpl.cpp

; 879  :         nMethodCount++;

  003c5	43		 inc	 ebx
; File C:\Develop\OPOS-CCO\Common\CWString.h

; 227  :         {   if (m_nDupFlag == 'c')      delete [] m_pChar;

  003c6	3c 63		 cmp	 al, 99			; 00000063H
  003c8	75 08		 jne	 SHORT $LN101@Open
  003ca	ff b5 8c f9 ff
	ff		 push	 DWORD PTR _MN$9[ebp]
  003d0	eb 0a		 jmp	 SHORT $LN226@Open
$LN101@Open:

; 228  :             else if (m_nDupFlag == 'w') delete [] m_pWide;

  003d2	3c 77		 cmp	 al, 119			; 00000077H
  003d4	75 0c		 jne	 SHORT $LN103@Open
  003d6	ff b5 90 f9 ff
	ff		 push	 DWORD PTR _MN$9[ebp+4]
$LN226@Open:
; File C:\Develop\OPOS-CCO\zSoundPlayer\SoundPlayerImpl.cpp

; 852  :     while ( s_SOMethodNames[nMethodCount] != 0 )

  003dc	e8 00 00 00 00	 call	 ??_V@YAXPAX@Z		; operator delete[]
  003e1	59		 pop	 ecx
$LN103@Open:
  003e2	83 3c 9d 00 00
	00 00 00	 cmp	 DWORD PTR ?s_SOMethodNames@@3PAPADA[ebx*4], 0
  003ea	0f 85 1c ff ff
	ff		 jne	 $LL2@Open
  003f0	eb 22		 jmp	 SHORT $LN221@Open
$LN193@Open:

; 880  :     }
; 881  : 
; 882  :     // When debug mode, repeat above trying to get all methods, for later tracing.
; 883  :     #ifdef _DEBUG
; 884  :     int nAllMethods = nMethodCount;
; 885  :     while ( s_SOMethodNames[nAllMethods] != 0 )
; 886  :     {
; 887  :         _CWNCC MN( s_SOMethodNames[nAllMethods] );  // Init for conversion.
; 888  :         OLECHAR* pMN = MN;                          // Assign pointer, converting to wide if needed.
; 889  :         if ( S_OK !=
; 890  :              _pService->GetIDsOfNames(
; 891  :                 IID_NULL, &pMN, 1, LOCALE_SYSTEM_DEFAULT, &_DispIDs[nAllMethods] )
; 892  :            )
; 893  :         {
; 894  :             pMN = 0;
; 895  :             // If failed, do special cases:
; 896  :             //  - If we failed the newer CloseService, then try Close before failing.
; 897  :             if ( nAllMethods == nDICloseService )
; 898  :                 pMN = L"Close";
; 899  :             //  - If we failed the newer COM-friendly name ClaimDevice or ReleaseDevice,
; 900  :             //    then try the original name Claim or Release before failing.
; 901  :             else if ( nAllMethods == nDIClaimDevice )
; 902  :                 pMN = L"Claim";
; 903  :             else if ( nAllMethods == nDIReleaseDevice )
; 904  :                 pMN = L"Release";
; 905  :             else                                // If not special case,
; 906  :                 _DispIDs[nAllMethods] = -123;   //   mark.
; 907  :             if ( pMN != 0 && S_OK !=
; 908  :                  _pService->GetIDsOfNames(
; 909  :                     IID_NULL, &pMN, 1, LOCALE_SYSTEM_DEFAULT, &_DispIDs[nAllMethods] )
; 910  :                )
; 911  :                 _DispIDs[nAllMethods] = -123;   // If special case but still not found, mark.
; 912  :         }
; 913  :         nAllMethods++;
; 914  :     }
; 915  :     #endif
; 916  : 
; 917  :     // The SO must at least support all of the initial release's methods,
; 918  :     //   or we won't continue.
; 919  :     if ( nMethodCount < s_RequiredMethodsPerRelease[0] )

  003f2	8a 85 9c f9 ff
	ff		 mov	 al, BYTE PTR _MN$9[ebp+16]
  003f8	3c 63		 cmp	 al, 99			; 00000063H
  003fa	75 08		 jne	 SHORT $LN87@Open
  003fc	ff b5 8c f9 ff
	ff		 push	 DWORD PTR _MN$9[ebp]
  00402	eb 0a		 jmp	 SHORT $LN227@Open
$LN87@Open:
  00404	3c 77		 cmp	 al, 119			; 00000077H
  00406	75 0c		 jne	 SHORT $LN221@Open
  00408	ff b5 90 f9 ff
	ff		 push	 DWORD PTR _MN$9[ebp+4]
$LN227@Open:
  0040e	e8 00 00 00 00	 call	 ??_V@YAXPAX@Z		; operator delete[]
  00413	59		 pop	 ecx
$LN221@Open:
  00414	3b 1d 00 00 00
	00		 cmp	 ebx, DWORD PTR ?s_RequiredMethodsPerRelease@@3PAHA
  0041a	7d 19		 jge	 SHORT $LN24@Open

; 920  :     {
; 921  :         _nOpenResult = OPOS_OR_BADIF;

  0041c	8b 8d 6c f9 ff
	ff		 mov	 ecx, DWORD PTR tv1290[ebp]

; 922  :         _pService->Release();

  00422	8b 06		 mov	 eax, DWORD PTR [esi]
  00424	50		 push	 eax
  00425	c7 01 31 01 00
	00		 mov	 DWORD PTR [ecx], 305	; 00000131H
  0042b	8b 08		 mov	 ecx, DWORD PTR [eax]
  0042d	ff 51 08	 call	 DWORD PTR [ecx+8]

; 923  :         DOTRACE( ( _T("-  Failed: Doesn't support all of initial release's methods (%d/%d)"), *pRC, _nOpenResult ) );
; 924  :         DOTRACEMETHODS( _DispIDs, s_RequiredMethodsPerRelease[0] );
; 925  :         return S_OK;

  00430	e9 fa 03 00 00	 jmp	 $LN12@Open
$LN24@Open:

; 926  :     }
; 927  : 
; 928  :     // Get our own dispatch pointer.
; 929  :     //   Immediately release it -- saves releasing later,
; 930  :     //   since it is just another reference to us.
; 931  :     IDispatch* pDispatch = 0;
; 932  :     CMVERIFY( S_OK == QueryInterface( IID_IDispatch, (void**) &pDispatch ) );

  00435	8b 07		 mov	 eax, DWORD PTR [edi]
  00437	8d 8d 70 f9 ff
	ff		 lea	 ecx, DWORD PTR _pDispatch$[ebp]
  0043d	83 a5 70 f9 ff
	ff 00		 and	 DWORD PTR _pDispatch$[ebp], 0
  00444	51		 push	 ecx
  00445	68 00 00 00 00	 push	 OFFSET _IID_IDispatch
  0044a	57		 push	 edi
  0044b	ff 10		 call	 DWORD PTR [eax]

; 933  :     if ( pDispatch != 0 )

  0044d	8b 8d 70 f9 ff
	ff		 mov	 ecx, DWORD PTR _pDispatch$[ebp]
  00453	85 c9		 test	 ecx, ecx
  00455	74 06		 je	 SHORT $LN25@Open

; 934  :         pDispatch->Release();

  00457	8b 01		 mov	 eax, DWORD PTR [ecx]
  00459	51		 push	 ecx
  0045a	ff 50 08	 call	 DWORD PTR [eax+8]
$LN25@Open:

; 935  : 
; 936  :     // Now call the Service Object's OpenService method.
; 937  :     OposVariant Vars[3];

  0045d	6a 03		 push	 3
  0045f	5e		 pop	 esi
  00460	8d 85 b4 f9 ff
	ff		 lea	 eax, DWORD PTR _Vars$[ebp]
  00466	8b ce		 mov	 ecx, esi
$LL106@Open:
; File C:\Develop\OPOS-CCO\Common\OposVariant.h

; 77   :     OposVariant() { vt = VT_EMPTY; _bNeedClear = false; }

  00468	33 d2		 xor	 edx, edx
  0046a	66 89 10	 mov	 WORD PTR [eax], dx
  0046d	8d 40 18	 lea	 eax, DWORD PTR [eax+24]
  00470	88 50 f8	 mov	 BYTE PTR [eax-8], dl
  00473	83 e9 01	 sub	 ecx, 1
  00476	75 f0		 jne	 SHORT $LL106@Open
; File C:\Develop\OPOS-CCO\Common\CWString.h

; 183  :           m_pWide((wchar_t*)-1), m_nDupFlag(0)          {}

  00478	83 8d 90 f9 ff
	ff ff		 or	 DWORD PTR $T8[ebp+4], -1

; 214  :             if (m_pWide == (wchar_t*)-1) DupWide();

  0047f	8d 8d 8c f9 ff
	ff		 lea	 ecx, DWORD PTR $T8[ebp]

; 182  :         : m_pChar((char*)pChar), m_nChars(-1),

  00485	83 8d 94 f9 ff
	ff ff		 or	 DWORD PTR $T8[ebp+8], -1
  0048c	c7 85 8c f9 ff
	ff 00 00 00 00	 mov	 DWORD PTR $T8[ebp], OFFSET ??_C@_0M@GBBAOMPL@SoundPlayer@

; 183  :           m_pWide((wchar_t*)-1), m_nDupFlag(0)          {}

  00496	88 95 9c f9 ff
	ff		 mov	 BYTE PTR $T8[ebp+16], dl

; 214  :             if (m_pWide == (wchar_t*)-1) DupWide();

  0049c	e8 00 00 00 00	 call	 ?DupWide@_CW@@AAEXXZ	; _CW::DupWide
; File C:\Develop\OPOS-CCO\zSoundPlayer\SoundPlayerImpl.cpp

; 938  :     Vars[2].SetString( _CW(OPOS_CLASSKEY_SPLY), hRC );

  004a1	8d 85 a0 f9 ff
	ff		 lea	 eax, DWORD PTR _hRC$[ebp]
  004a7	50		 push	 eax
  004a8	ff b5 90 f9 ff
	ff		 push	 DWORD PTR $T8[ebp+4]
  004ae	8d 8d e4 f9 ff
	ff		 lea	 ecx, DWORD PTR _Vars$[ebp+48]
  004b4	e8 00 00 00 00	 call	 ?SetString@OposVariant@@QAEXPB_WAAJ@Z ; OposVariant::SetString
; File C:\Develop\OPOS-CCO\Common\CWString.h

; 227  :         {   if (m_nDupFlag == 'c')      delete [] m_pChar;

  004b9	8a 85 9c f9 ff
	ff		 mov	 al, BYTE PTR $T8[ebp+16]
  004bf	3c 63		 cmp	 al, 99			; 00000063H
  004c1	75 08		 jne	 SHORT $LN117@Open
  004c3	ff b5 8c f9 ff
	ff		 push	 DWORD PTR $T8[ebp]
  004c9	eb 0a		 jmp	 SHORT $LN228@Open
$LN117@Open:

; 228  :             else if (m_nDupFlag == 'w') delete [] m_pWide;

  004cb	3c 77		 cmp	 al, 119			; 00000077H
  004cd	75 0c		 jne	 SHORT $LN119@Open
  004cf	ff b5 90 f9 ff
	ff		 push	 DWORD PTR $T8[ebp+4]
$LN228@Open:

; 196  :       : m_pChar((char*)-1),       m_nDupFlag(0),

  004d5	e8 00 00 00 00	 call	 ??_V@YAXPAX@Z		; operator delete[]
  004da	59		 pop	 ecx
$LN119@Open:
  004db	83 8d 8c f9 ff
	ff ff		 or	 DWORD PTR $T7[ebp], -1

; 197  :         m_pWide((wchar_t*)pWide), m_nCharsWide(-1)      {}

  004e2	8d 85 fc fd ff
	ff		 lea	 eax, DWORD PTR _szPhysicalDeviceName$[ebp]
  004e8	83 8d 98 f9 ff
	ff ff		 or	 DWORD PTR $T7[ebp+12], -1
  004ef	8b c8		 mov	 ecx, eax
  004f1	89 85 90 f9 ff
	ff		 mov	 DWORD PTR $T7[ebp+4], eax
  004f7	c6 85 9c f9 ff
	ff 00		 mov	 BYTE PTR $T7[ebp+16], 0
  004fe	83 f9 ff	 cmp	 ecx, -1

; 214  :             if (m_pWide == (wchar_t*)-1) DupWide();

  00501	75 11		 jne	 SHORT $LN124@Open
  00503	8d 8d 8c f9 ff
	ff		 lea	 ecx, DWORD PTR $T7[ebp]
  00509	e8 00 00 00 00	 call	 ?DupWide@_CW@@AAEXXZ	; _CW::DupWide
  0050e	8b 85 90 f9 ff
	ff		 mov	 eax, DWORD PTR $T7[ebp+4]
$LN124@Open:
; File C:\Develop\OPOS-CCO\zSoundPlayer\SoundPlayerImpl.cpp

; 939  :     Vars[1].SetString( _CW(szPhysicalDeviceName), hRC );

  00514	8d 8d a0 f9 ff
	ff		 lea	 ecx, DWORD PTR _hRC$[ebp]
  0051a	51		 push	 ecx
  0051b	50		 push	 eax
  0051c	8d 8d cc f9 ff
	ff		 lea	 ecx, DWORD PTR _Vars$[ebp+24]
  00522	e8 00 00 00 00	 call	 ?SetString@OposVariant@@QAEXPB_WAAJ@Z ; OposVariant::SetString
; File C:\Develop\OPOS-CCO\Common\CWString.h

; 227  :         {   if (m_nDupFlag == 'c')      delete [] m_pChar;

  00527	8a 85 9c f9 ff
	ff		 mov	 al, BYTE PTR $T7[ebp+16]
  0052d	3c 63		 cmp	 al, 99			; 00000063H
  0052f	75 08		 jne	 SHORT $LN127@Open
  00531	ff b5 8c f9 ff
	ff		 push	 DWORD PTR $T7[ebp]
  00537	eb 0a		 jmp	 SHORT $LN229@Open
$LN127@Open:

; 228  :             else if (m_nDupFlag == 'w') delete [] m_pWide;

  00539	3c 77		 cmp	 al, 119			; 00000077H
  0053b	75 0c		 jne	 SHORT $LN129@Open
  0053d	ff b5 90 f9 ff
	ff		 push	 DWORD PTR $T7[ebp+4]
$LN229@Open:
; File C:\Develop\OPOS-CCO\zSoundPlayer\SoundPlayerImpl.cpp

; 940  :     Vars[0].SetDispatch_Ptr( pDispatch, hRC );

  00543	e8 00 00 00 00	 call	 ??_V@YAXPAX@Z		; operator delete[]
  00548	59		 pop	 ecx
$LN129@Open:
  00549	8d 85 a0 f9 ff
	ff		 lea	 eax, DWORD PTR _hRC$[ebp]
  0054f	50		 push	 eax
  00550	ff b5 70 f9 ff
	ff		 push	 DWORD PTR _pDispatch$[ebp]
  00556	8d 8d b4 f9 ff
	ff		 lea	 ecx, DWORD PTR _Vars$[ebp]
  0055c	e8 00 00 00 00	 call	 ?SetDispatch_Ptr@OposVariant@@QAEXPAUIDispatch@@AAJ@Z ; OposVariant::SetDispatch_Ptr

; 941  :     if ( FAILED(hRC) )

  00561	83 bd a0 f9 ff
	ff 00		 cmp	 DWORD PTR _hRC$[ebp], 0
  00568	7d 3a		 jge	 SHORT $LN26@Open

; 942  :     {
; 943  :         _pService->Release();

  0056a	8b bd 88 f9 ff
	ff		 mov	 edi, DWORD PTR tv1257[ebp]
  00570	8b 07		 mov	 eax, DWORD PTR [edi]
  00572	50		 push	 eax
  00573	8b 08		 mov	 ecx, DWORD PTR [eax]
  00575	ff 51 08	 call	 DWORD PTR [ecx+8]

; 945  :         return hRC;

  00578	8b 9d a0 f9 ff
	ff		 mov	 ebx, DWORD PTR _hRC$[ebp]
  0057e	8d bd fc f9 ff
	ff		 lea	 edi, DWORD PTR _Vars$[ebp+72]
$LL200@Open:
  00584	83 ef 18	 sub	 edi, 24			; 00000018H
  00587	4e		 dec	 esi
; File C:\Develop\OPOS-CCO\Common\OposVariant.h

; 78   :     ~OposVariant() { if (_bNeedClear) Clear(); }

  00588	80 7f 10 00	 cmp	 BYTE PTR [edi+16], 0
  0058c	74 0b		 je	 SHORT $LN136@Open

; 79   :     HRESULT Clear() { _bNeedClear = false; return VariantClear(this); }

  0058e	57		 push	 edi
  0058f	c6 47 10 00	 mov	 BYTE PTR [edi+16], 0
  00593	ff 15 00 00 00
	00		 call	 DWORD PTR __imp__VariantClear@4
$LN136@Open:
  00599	85 f6		 test	 esi, esi
  0059b	75 e7		 jne	 SHORT $LL200@Open
; File C:\Develop\OPOS-CCO\zSoundPlayer\SoundPlayerImpl.cpp

; 945  :         return hRC;

  0059d	8b c3		 mov	 eax, ebx
  0059f	e9 8d 02 00 00	 jmp	 $LN223@Open
$LN26@Open:

; 946  :     }
; 947  :     hRC = DoInvoke( DEBUGPARAM("Open-OpenService") S_OK, Vars, 3, nDIOpenService, pRC, false );

  005a4	6a 00		 push	 0
  005a6	ff b5 84 f9 ff
	ff		 push	 DWORD PTR _pRC$GSCopy$1$[ebp]
  005ac	8d 85 b4 f9 ff
	ff		 lea	 eax, DWORD PTR _Vars$[ebp]
  005b2	8b cf		 mov	 ecx, edi
  005b4	6a 05		 push	 5
  005b6	56		 push	 esi
  005b7	50		 push	 eax
  005b8	6a 00		 push	 0
  005ba	e8 00 00 00 00	 call	 ?DoInvoke@COPOSSoundPlayer@@IAEJJPAVOposVariant@@IHPAJ_N@Z ; COPOSSoundPlayer::DoInvoke
  005bf	89 85 a0 f9 ff
	ff		 mov	 DWORD PTR _hRC$[ebp], eax

; 948  : 
; 949  :     // If the OpenService fails, then set result code and return.
; 950  :     if ( hRC != S_OK || *pRC != OPOS_SUCCESS )

  005c5	85 c0		 test	 eax, eax
  005c7	0f 85 3b 01 00
	00		 jne	 $LN28@Open
  005cd	8b 8d 84 f9 ff
	ff		 mov	 ecx, DWORD PTR _pRC$GSCopy$1$[ebp]
  005d3	33 d2		 xor	 edx, edx
  005d5	39 11		 cmp	 DWORD PTR [ecx], edx
  005d7	0f 85 2b 01 00
	00		 jne	 $LN28@Open

; 1012 :     GetOposProp( DEBUGPARAM("Open-ServiceObjectVersion") PIDX_ServiceObjectVersion, &nSOVersion, 0 );

  005dd	52		 push	 edx
  005de	8d 85 60 f9 ff
	ff		 lea	 eax, DWORD PTR _nSOVersion$[ebp]
; File C:\Develop\OPOS-CCO\zSoundPlayer\SoundPlayerEvent.h

; 191  :         _Event_bEventsLegal = true;

  005e4	66 c7 87 55 01
	00 00 01 00	 mov	 WORD PTR [edi+341], 1
; File C:\Develop\OPOS-CCO\zSoundPlayer\SoundPlayerImpl.cpp

; 1012 :     GetOposProp( DEBUGPARAM("Open-ServiceObjectVersion") PIDX_ServiceObjectVersion, &nSOVersion, 0 );

  005ed	50		 push	 eax
  005ee	6a 08		 push	 8
  005f0	8b cf		 mov	 ecx, edi
; File C:\Develop\OPOS-CCO\zSoundPlayer\SoundPlayerEvent.h

; 193  :         _bFreezeState = false;

  005f2	88 97 fc 00 00
	00		 mov	 BYTE PTR [edi+252], dl

; 194  :         _Event_bOpen = true;

  005f8	c6 87 54 01 00
	00 01		 mov	 BYTE PTR [edi+340], 1
; File C:\Develop\OPOS-CCO\zSoundPlayer\SoundPlayerImpl.cpp

; 992  :     _bOpened = true;

  005ff	c6 87 e0 00 00
	00 01		 mov	 BYTE PTR [edi+224], 1

; 1012 :     GetOposProp( DEBUGPARAM("Open-ServiceObjectVersion") PIDX_ServiceObjectVersion, &nSOVersion, 0 );

  00606	e8 00 00 00 00	 call	 ?GetOposProp@COPOSSoundPlayer@@IAEJJPAJJ@Z ; COPOSSoundPlayer::GetOposProp

; 1013 :     _nSOMajor = nSOVersion / 1000000;

  0060b	8b 85 60 f9 ff
	ff		 mov	 eax, DWORD PTR _nSOVersion$[ebp]
  00611	b9 40 42 0f 00	 mov	 ecx, 1000000		; 000f4240H
  00616	99		 cdq
  00617	f7 f9		 idiv	 ecx

; 1014 :     _nSOMinor = ( nSOVersion / 1000 ) % 1000;

  00619	c7 85 88 f9 ff
	ff e8 03 00 00	 mov	 DWORD PTR tv1223[ebp], 1000 ; 000003e8H
  00623	8b c8		 mov	 ecx, eax
  00625	8b 85 60 f9 ff
	ff		 mov	 eax, DWORD PTR _nSOVersion$[ebp]
  0062b	99		 cdq
  0062c	f7 bd 88 f9 ff
	ff		 idiv	 DWORD PTR tv1223[ebp]
  00632	89 8f e8 00 00
	00		 mov	 DWORD PTR [edi+232], ecx
  00638	99		 cdq
  00639	f7 bd 88 f9 ff
	ff		 idiv	 DWORD PTR tv1223[ebp]
  0063f	89 97 ec 00 00
	00		 mov	 DWORD PTR [edi+236], edx

; 1015 : 
; 1016 :     //  - If major version is not 1, then bad SO.
; 1017 :     if ( _nSOMajor != 1 )

  00645	83 f9 01	 cmp	 ecx, 1
  00648	74 07		 je	 SHORT $LN32@Open

; 1018 :     {
; 1019 :         _nOpenResult = OPOS_OR_BADVERSION;

  0064a	b8 33 01 00 00	 mov	 eax, 307		; 00000133H

; 1020 :         bBadSO = true;
; 1021 :         DOTRACE( ( _T("-  Failed: Service Object's major version is not 1 (%d/%d)"), OPOS_E_NOSERVICE, _nOpenResult ) );
; 1022 :     }

  0064f	eb 25		 jmp	 SHORT $LN37@Open
$LN32@Open:

; 1023 : 
; 1024 :     //  - If SO doesn't support enough methods, then bad SO.
; 1025 :     else
; 1026 :     {
; 1027 :         long nReqMethodIndex = sizeof(s_RequiredMethodsPerRelease)/sizeof(int) - 1;
; 1028 :         // Shouldn't have SO with release below control's first release, but check anyway.
; 1029 :         if ( _nSOMinor < MinorReleaseInitial )

  00651	33 c9		 xor	 ecx, ecx
  00653	83 fa 10	 cmp	 edx, 16			; 00000010H
  00656	7c 08		 jl	 SHORT $LN36@Open

; 1030 :             nReqMethodIndex = 0;
; 1031 :         // If SO release is below that supported by this control, use its release's methods.
; 1032 :         else if ( nReqMethodIndex > _nSOMinor - MinorReleaseInitial )

  00658	8d 42 f0	 lea	 eax, DWORD PTR [edx-16]
  0065b	85 c0		 test	 eax, eax
  0065d	0f 48 c8	 cmovs	 ecx, eax
$LN36@Open:

; 1033 :             nReqMethodIndex = _nSOMinor - MinorReleaseInitial;
; 1034 :         // Set the maximum method index.
; 1035 :         _nMaxMethod = s_RequiredMethodsPerRelease[ nReqMethodIndex ];

  00660	8b 04 8d 00 00
	00 00		 mov	 eax, DWORD PTR ?s_RequiredMethodsPerRelease@@3PAHA[ecx*4]
  00667	89 87 00 01 00
	00		 mov	 DWORD PTR [edi+256], eax

; 1036 :         // Ensure that the SO supports the methods that it claims to support.
; 1037 :         if ( nMethodCount < _nMaxMethod )

  0066d	3b d8		 cmp	 ebx, eax
  0066f	7d 4a		 jge	 SHORT $LN38@Open

; 1038 :         {
; 1039 :             _nOpenResult = OPOS_OR_BADIF;

  00671	b8 31 01 00 00	 mov	 eax, 305		; 00000131H
$LN37@Open:

; 1040 :             bBadSO = true;
; 1041 :             DOTRACE( ( _T("-  Failed: Doesn't support all of its release's methods (%d/%d)"), OPOS_E_NOSERVICE, _nOpenResult ) );
; 1042 :             DOTRACEMETHODS( _DispIDs, _nMaxMethod );
; 1043 :         }
; 1044 :     }
; 1045 : 
; 1046 :     // If bad SO, then fail the open.
; 1047 :     if ( bBadSO )
; 1048 :     {
; 1049 :         Close( pRC );

  00676	89 87 e4 00 00
	00		 mov	 DWORD PTR [edi+228], eax
  0067c	8b 07		 mov	 eax, DWORD PTR [edi]
  0067e	8b 9d 84 f9 ff
	ff		 mov	 ebx, DWORD PTR _pRC$GSCopy$1$[ebp]
  00684	53		 push	 ebx
  00685	57		 push	 edi
  00686	ff 90 ac 00 00
	00		 call	 DWORD PTR [eax+172]
; File C:\Develop\OPOS-CCO\zSoundPlayer\SoundPlayerImpl.h

; 156  :         { return _nCOResultCode = nRC; }

  0068c	6a 68		 push	 104			; 00000068H
  0068e	58		 pop	 eax
  0068f	89 87 f0 00 00
	00		 mov	 DWORD PTR [edi+240], eax
  00695	8d bd fc f9 ff
	ff		 lea	 edi, DWORD PTR _Vars$[ebp+72]
; File C:\Develop\OPOS-CCO\zSoundPlayer\SoundPlayerImpl.cpp

; 1050 :         *pRC = SetRC( OPOS_E_NOSERVICE );

  0069b	89 03		 mov	 DWORD PTR [ebx], eax
$LL201@Open:
  0069d	83 ef 18	 sub	 edi, 24			; 00000018H
  006a0	4e		 dec	 esi
; File C:\Develop\OPOS-CCO\Common\OposVariant.h

; 78   :     ~OposVariant() { if (_bNeedClear) Clear(); }

  006a1	80 7f 10 00	 cmp	 BYTE PTR [edi+16], 0
  006a5	74 0b		 je	 SHORT $LN171@Open

; 79   :     HRESULT Clear() { _bNeedClear = false; return VariantClear(this); }

  006a7	57		 push	 edi
  006a8	c6 47 10 00	 mov	 BYTE PTR [edi+16], 0
  006ac	ff 15 00 00 00
	00		 call	 DWORD PTR __imp__VariantClear@4
$LN171@Open:
  006b2	85 f6		 test	 esi, esi
  006b4	75 e7		 jne	 SHORT $LL201@Open
  006b6	e9 74 01 00 00	 jmp	 $LN12@Open
$LN38@Open:
; File C:\Develop\OPOS-CCO\zSoundPlayer\SoundPlayerImpl.cpp

; 1056 :     if ( _nCOFreezeEventCount )

  006bb	83 bf f8 00 00
	00 00		 cmp	 DWORD PTR [edi+248], 0
  006c2	74 09		 je	 SHORT $LN39@Open

; 1057 :         SetCOFreezeEvents( TRUE );

  006c4	6a 01		 push	 1
  006c6	8b cf		 mov	 ecx, edi
  006c8	e8 00 00 00 00	 call	 ?SetCOFreezeEvents@COPOSSoundPlayer@@IAEXF@Z ; COPOSSoundPlayer::SetCOFreezeEvents
$LN39@Open:

; 1061 :     *pRC = OPOS_SUCCESS;

  006cd	8b 85 84 f9 ff
	ff		 mov	 eax, DWORD PTR _pRC$GSCopy$1$[ebp]
; File C:\Develop\OPOS-CCO\zSoundPlayer\SoundPlayerImpl.h

; 156  :         { return _nCOResultCode = nRC; }

  006d3	83 8f f0 00 00
	00 ff		 or	 DWORD PTR [edi+240], -1
; File C:\Develop\OPOS-CCO\zSoundPlayer\SoundPlayerImpl.cpp

; 1061 :     *pRC = OPOS_SUCCESS;

  006da	83 20 00	 and	 DWORD PTR [eax], 0

; 1062 :     _nOpenResult = OPOS_SUCCESS;

  006dd	83 a7 e4 00 00
	00 00		 and	 DWORD PTR [edi+228], 0
  006e4	8d bd fc f9 ff
	ff		 lea	 edi, DWORD PTR _Vars$[ebp+72]
$LL202@Open:
  006ea	83 ef 18	 sub	 edi, 24			; 00000018H
  006ed	4e		 dec	 esi
; File C:\Develop\OPOS-CCO\Common\OposVariant.h

; 78   :     ~OposVariant() { if (_bNeedClear) Clear(); }

  006ee	80 7f 10 00	 cmp	 BYTE PTR [edi+16], 0
  006f2	74 0b		 je	 SHORT $LN182@Open

; 79   :     HRESULT Clear() { _bNeedClear = false; return VariantClear(this); }

  006f4	57		 push	 edi
  006f5	c6 47 10 00	 mov	 BYTE PTR [edi+16], 0
  006f9	ff 15 00 00 00
	00		 call	 DWORD PTR __imp__VariantClear@4
$LN182@Open:
  006ff	85 f6		 test	 esi, esi
  00701	75 e7		 jne	 SHORT $LL202@Open
  00703	e9 27 01 00 00	 jmp	 $LN12@Open
$LN28@Open:
; File C:\Develop\OPOS-CCO\zSoundPlayer\SoundPlayerImpl.cpp

; 953  :         _nOpenResult = OPOS_OR_FAILEDOPEN;

  00708	8b 8d 6c f9 ff
	ff		 mov	 ecx, DWORD PTR tv1290[ebp]

; 954  :         // If not a COM error, and the SO supports the GetOpenResult method,
; 955  :         //   then call it to get the open result code.
; 956  :         if ( hRC == S_OK )

  0070e	8b 1d 00 00 00
	00		 mov	 ebx, DWORD PTR __imp__VariantClear@4
  00714	8b bd 88 f9 ff
	ff		 mov	 edi, DWORD PTR tv1257[ebp]
  0071a	c7 01 32 01 00
	00		 mov	 DWORD PTR [ecx], 306	; 00000132H
  00720	85 c0		 test	 eax, eax
  00722	0f 85 ca 00 00
	00		 jne	 $LN149@Open

; 957  :         {
; 958  :             // Try to get DispID of the method.
; 959  :             OLECHAR* pMN = L"GetOpenResult";
; 960  :             DISPID DispID;
; 961  :             if ( S_OK ==

  00728	8b 07		 mov	 eax, DWORD PTR [edi]
  0072a	8d 95 88 f9 ff
	ff		 lea	 edx, DWORD PTR _DispID$6[ebp]
  00730	52		 push	 edx
  00731	68 00 08 00 00	 push	 2048			; 00000800H
  00736	6a 01		 push	 1
  00738	8d 95 80 f9 ff
	ff		 lea	 edx, DWORD PTR _pMN$2[ebp]
  0073e	c7 85 80 f9 ff
	ff 00 00 00 00	 mov	 DWORD PTR _pMN$2[ebp], OFFSET ??_C@_1BM@IJMNMBPK@?$AAG?$AAe?$AAt?$AAO?$AAp?$AAe?$AAn?$AAR?$AAe?$AAs?$AAu?$AAl?$AAt@
  00748	8b 08		 mov	 ecx, DWORD PTR [eax]
  0074a	52		 push	 edx
  0074b	68 00 00 00 00	 push	 OFFSET _GUID_NULL
  00750	50		 push	 eax
  00751	ff 51 14	 call	 DWORD PTR [ecx+20]
  00754	85 c0		 test	 eax, eax
  00756	0f 85 96 00 00
	00		 jne	 $LN149@Open
; File C:\Develop\OPOS-CCO\Common\OposVariant.h

; 77   :     OposVariant() { vt = VT_EMPTY; _bNeedClear = false; }

  0075c	33 d2		 xor	 edx, edx
  0075e	66 89 85 48 f9
	ff ff		 mov	 WORD PTR _VarResult$1[ebp], ax
; File C:\Develop\OPOS-CCO\zSoundPlayer\SoundPlayerImpl.cpp

; 969  :                 if ( S_OK == _pService->Invoke(

  00765	8b 07		 mov	 eax, DWORD PTR [edi]
  00767	52		 push	 edx
  00768	52		 push	 edx
; File C:\Develop\OPOS-CCO\Common\OposVariant.h

; 77   :     OposVariant() { vt = VT_EMPTY; _bNeedClear = false; }

  00769	88 95 58 f9 ff
	ff		 mov	 BYTE PTR _VarResult$1[ebp+16], dl
; File C:\Develop\OPOS-CCO\zSoundPlayer\SoundPlayerImpl.cpp

; 968  :                 DISPPARAMS Disp = { NULL, NULL, 0, 0 };

  0076f	89 95 90 f9 ff
	ff		 mov	 DWORD PTR _Disp$12[ebp], edx
  00775	89 95 94 f9 ff
	ff		 mov	 DWORD PTR _Disp$12[ebp+4], edx
  0077b	89 95 98 f9 ff
	ff		 mov	 DWORD PTR _Disp$12[ebp+8], edx
  00781	89 95 9c f9 ff
	ff		 mov	 DWORD PTR _Disp$12[ebp+12], edx

; 969  :                 if ( S_OK == _pService->Invoke(

  00787	8d 95 48 f9 ff
	ff		 lea	 edx, DWORD PTR _VarResult$1[ebp]
  0078d	8b 08		 mov	 ecx, DWORD PTR [eax]
  0078f	52		 push	 edx
  00790	8d 95 90 f9 ff
	ff		 lea	 edx, DWORD PTR _Disp$12[ebp]
  00796	52		 push	 edx
  00797	6a 01		 push	 1
  00799	68 00 04 00 00	 push	 1024			; 00000400H
  0079e	68 00 00 00 00	 push	 OFFSET _GUID_NULL
  007a3	ff b5 88 f9 ff
	ff		 push	 DWORD PTR _DispID$6[ebp]
  007a9	50		 push	 eax
  007aa	ff 51 18	 call	 DWORD PTR [ecx+24]
  007ad	85 c0		 test	 eax, eax
  007af	75 18		 jne	 SHORT $LN31@Open

; 970  :                         DispID, IID_NULL, LOCALE_USER_DEFAULT,
; 971  :                         DISPATCH_METHOD, &Disp, &VarResult, NULL, NULL )
; 972  :                    )
; 973  :                 {
; 974  :                     // If method succeeds, convert (if needed) to long and set open result code.
; 975  :                     HRESULT hRCTmp;
; 976  :                     VarResult.ChangeLONG( &_nOpenResult, hRCTmp );

  007b1	8d 85 84 f9 ff
	ff		 lea	 eax, DWORD PTR _hRCTmp$4[ebp]
  007b7	50		 push	 eax
  007b8	ff b5 6c f9 ff
	ff		 push	 DWORD PTR tv1290[ebp]
  007be	8d 8d 48 f9 ff
	ff		 lea	 ecx, DWORD PTR _VarResult$1[ebp]
  007c4	e8 00 00 00 00	 call	 ?ChangeLONG@OposVariant@@QAEXPAJAAJ@Z ; OposVariant::ChangeLONG
$LN31@Open:
; File C:\Develop\OPOS-CCO\Common\OposVariant.h

; 79   :     HRESULT Clear() { _bNeedClear = false; return VariantClear(this); }

  007c9	8d 85 48 f9 ff
	ff		 lea	 eax, DWORD PTR _VarResult$1[ebp]
  007cf	c6 85 58 f9 ff
	ff 00		 mov	 BYTE PTR _VarResult$1[ebp+16], 0
  007d6	50		 push	 eax
  007d7	ff d3		 call	 ebx

; 78   :     ~OposVariant() { if (_bNeedClear) Clear(); }

  007d9	80 bd 58 f9 ff
	ff 00		 cmp	 BYTE PTR _VarResult$1[ebp+16], 0
  007e0	74 10		 je	 SHORT $LN149@Open

; 79   :     HRESULT Clear() { _bNeedClear = false; return VariantClear(this); }

  007e2	8d 85 48 f9 ff
	ff		 lea	 eax, DWORD PTR _VarResult$1[ebp]
  007e8	c6 85 58 f9 ff
	ff 00		 mov	 BYTE PTR _VarResult$1[ebp+16], 0
  007ef	50		 push	 eax
  007f0	ff d3		 call	 ebx
$LN149@Open:
; File C:\Develop\OPOS-CCO\zSoundPlayer\SoundPlayerImpl.cpp

; 981  :         _pService->Release();

  007f2	8b 07		 mov	 eax, DWORD PTR [edi]
  007f4	50		 push	 eax
  007f5	8b 08		 mov	 ecx, DWORD PTR [eax]
  007f7	ff 51 08	 call	 DWORD PTR [ecx+8]

; 984  :         return hRC;

  007fa	8b 85 a0 f9 ff
	ff		 mov	 eax, DWORD PTR _hRC$[ebp]
  00800	8d bd fc f9 ff
	ff		 lea	 edi, DWORD PTR _Vars$[ebp+72]
  00806	89 85 88 f9 ff
	ff		 mov	 DWORD PTR $T5[ebp], eax
$LL203@Open:
  0080c	83 ef 18	 sub	 edi, 24			; 00000018H
  0080f	4e		 dec	 esi
; File C:\Develop\OPOS-CCO\Common\OposVariant.h

; 78   :     ~OposVariant() { if (_bNeedClear) Clear(); }

  00810	80 7f 10 00	 cmp	 BYTE PTR [edi+16], 0
  00814	74 07		 je	 SHORT $LN158@Open

; 79   :     HRESULT Clear() { _bNeedClear = false; return VariantClear(this); }

  00816	57		 push	 edi
  00817	c6 47 10 00	 mov	 BYTE PTR [edi+16], 0
  0081b	ff d3		 call	 ebx
$LN158@Open:
  0081d	85 f6		 test	 esi, esi
  0081f	75 eb		 jne	 SHORT $LL203@Open
; File C:\Develop\OPOS-CCO\zSoundPlayer\SoundPlayerImpl.cpp

; 984  :         return hRC;

  00821	8b 85 88 f9 ff
	ff		 mov	 eax, DWORD PTR $T5[ebp]
  00827	eb 08		 jmp	 SHORT $LN223@Open
$LN220@Open:

; 841  :     {
; 842  :         _nOpenResult = OPOS_OR_CREATE;

  00829	c7 03 30 01 00
	00		 mov	 DWORD PTR [ebx], 304	; 00000130H
$LN12@Open:

; 797  :     {
; 798  :         DOTRACE( ( _T("-  Failed: Cannot get ProgID from registry (%d/%d)"), *pRC, _nOpenResult ) );
; 799  :         DOTRACEERR( _T("    RegOpenKeyEx error %d\n    %s"), nRegStat );
; 800  :         return S_OK;

  0082f	33 c0		 xor	 eax, eax
$LN223@Open:
  00831	5b		 pop	 ebx
$LN1@Open:

; 1063 :     DOTRACE( ( _T("-  Success (0/0)") ) );
; 1064 :     return S_OK;
; 1065 : }

  00832	8b 4d fc	 mov	 ecx, DWORD PTR __$ArrayPad$[ebp]
  00835	5f		 pop	 edi
  00836	33 cd		 xor	 ecx, ebp
  00838	5e		 pop	 esi
  00839	e8 00 00 00 00	 call	 @__security_check_cookie@4
  0083e	c9		 leave
  0083f	c2 0c 00	 ret	 12			; 0000000cH
?Open@COPOSSoundPlayer@@UAGJPA_WPAJ@Z ENDP		; COPOSSoundPlayer::Open
_TEXT	ENDS
; Function compile flags: /Ogsp
; File C:\Develop\OPOS-CCO\zSoundPlayer\SoundPlayerImpl.cpp
; File C:\Develop\OPOS-CCO\Common\OposVariant.h
; File C:\Develop\OPOS-CCO\zSoundPlayer\SoundPlayerImpl.cpp
; File C:\Develop\OPOS-CCO\Common\OposVariant.h
; File C:\Develop\OPOS-CCO\zSoundPlayer\SoundPlayerImpl.cpp
;	COMDAT ?DirectIO@COPOSSoundPlayer@@UAGJJPAJPAPA_W0@Z
_TEXT	SEGMENT
_pRC$GSCopy$1$ = -88					; size = 4
_pString$GSCopy$1$ = -84				; size = 4
_hRC$ = -80						; size = 4
_Vars$ = -76						; size = 72
__$ArrayPad$ = -4					; size = 4
_this$ = 8						; size = 4
_Command$ = 12						; size = 4
_pData$ = 16						; size = 4
_pString$ = 20						; size = 4
_pRC$ = 24						; size = 4
?DirectIO@COPOSSoundPlayer@@UAGJJPAJPAPA_W0@Z PROC	; COPOSSoundPlayer::DirectIO, COMDAT

; 1189 : {

  00000	55		 push	 ebp
  00001	8b ec		 mov	 ebp, esp
  00003	83 ec 58	 sub	 esp, 88			; 00000058H
  00006	a1 00 00 00 00	 mov	 eax, DWORD PTR ___security_cookie
  0000b	33 c5		 xor	 eax, ebp
  0000d	89 45 fc	 mov	 DWORD PTR __$ArrayPad$[ebp], eax
  00010	8b 45 14	 mov	 eax, DWORD PTR _pString$[ebp]
  00013	53		 push	 ebx
  00014	8b 5d 10	 mov	 ebx, DWORD PTR _pData$[ebp]
  00017	56		 push	 esi
  00018	8b 75 08	 mov	 esi, DWORD PTR _this$[ebp]
  0001b	57		 push	 edi
  0001c	89 45 ac	 mov	 DWORD PTR _pString$GSCopy$1$[ebp], eax
  0001f	8b 45 18	 mov	 eax, DWORD PTR _pRC$[ebp]
  00022	6a 03		 push	 3
  00024	5f		 pop	 edi
  00025	89 45 a8	 mov	 DWORD PTR _pRC$GSCopy$1$[ebp], eax
  00028	8b cf		 mov	 ecx, edi

; 1190 :     OposVariant Vars[3];

  0002a	8d 45 b4	 lea	 eax, DWORD PTR _Vars$[ebp]
$LL4@DirectIO:
; File C:\Develop\OPOS-CCO\Common\OposVariant.h

; 77   :     OposVariant() { vt = VT_EMPTY; _bNeedClear = false; }

  0002d	33 d2		 xor	 edx, edx
  0002f	66 89 10	 mov	 WORD PTR [eax], dx
  00032	8d 40 18	 lea	 eax, DWORD PTR [eax+24]
  00035	88 50 f8	 mov	 BYTE PTR [eax-8], dl
  00038	83 e9 01	 sub	 ecx, 1
  0003b	75 f0		 jne	 SHORT $LL4@DirectIO
; File C:\Develop\OPOS-CCO\zSoundPlayer\SoundPlayerImpl.cpp

; 1192 :     Vars[2].SetLONG( Command );

  0003d	ff 75 0c	 push	 DWORD PTR _Command$[ebp]
  00040	21 55 b0	 and	 DWORD PTR _hRC$[ebp], edx
  00043	8d 4d e4	 lea	 ecx, DWORD PTR _Vars$[ebp+48]
  00046	e8 00 00 00 00	 call	 ?SetLONG@OposVariant@@QAEXJ@Z ; OposVariant::SetLONG

; 1193 :     Vars[1].SetLONG_Ptr( pData, hRC );

  0004b	8d 45 b0	 lea	 eax, DWORD PTR _hRC$[ebp]
  0004e	50		 push	 eax
  0004f	53		 push	 ebx
  00050	8d 4d cc	 lea	 ecx, DWORD PTR _Vars$[ebp+24]
  00053	e8 00 00 00 00	 call	 ?SetLONG_Ptr@OposVariant@@QAEXPAJAAJ@Z ; OposVariant::SetLONG_Ptr

; 1194 :     Vars[0].SetBSTR_InOutPtr( pString, hRC );

  00058	8d 45 b0	 lea	 eax, DWORD PTR _hRC$[ebp]
  0005b	50		 push	 eax
  0005c	ff 75 ac	 push	 DWORD PTR _pString$GSCopy$1$[ebp]
  0005f	8d 4d b4	 lea	 ecx, DWORD PTR _Vars$[ebp]
  00062	e8 00 00 00 00	 call	 ?SetBSTR_InOutPtr@OposVariant@@QAE_NPAPA_WAAJ@Z ; OposVariant::SetBSTR_InOutPtr

; 1195 :     return DoInvoke( DEBUGPARAM("DirectIO") hRC, Vars, 3, nDIDirectIO, pRC );

  00067	6a 01		 push	 1
  00069	ff 75 a8	 push	 DWORD PTR _pRC$GSCopy$1$[ebp]
  0006c	8d 45 b4	 lea	 eax, DWORD PTR _Vars$[ebp]
  0006f	8b ce		 mov	 ecx, esi
  00071	6a 0a		 push	 10			; 0000000aH
  00073	57		 push	 edi
  00074	50		 push	 eax
  00075	ff 75 b0	 push	 DWORD PTR _hRC$[ebp]
  00078	e8 00 00 00 00	 call	 ?DoInvoke@COPOSSoundPlayer@@IAEJJPAVOposVariant@@IHPAJ_N@Z ; COPOSSoundPlayer::DoInvoke
  0007d	8b d8		 mov	 ebx, eax
  0007f	8d 75 fc	 lea	 esi, DWORD PTR _Vars$[ebp+72]
$LL23@DirectIO:
  00082	83 ee 18	 sub	 esi, 24			; 00000018H
  00085	4f		 dec	 edi
; File C:\Develop\OPOS-CCO\Common\OposVariant.h

; 78   :     ~OposVariant() { if (_bNeedClear) Clear(); }

  00086	80 7e 10 00	 cmp	 BYTE PTR [esi+16], 0
  0008a	74 0b		 je	 SHORT $LN14@DirectIO

; 79   :     HRESULT Clear() { _bNeedClear = false; return VariantClear(this); }

  0008c	56		 push	 esi
  0008d	c6 46 10 00	 mov	 BYTE PTR [esi+16], 0
  00091	ff 15 00 00 00
	00		 call	 DWORD PTR __imp__VariantClear@4
$LN14@DirectIO:
  00097	85 ff		 test	 edi, edi
  00099	75 e7		 jne	 SHORT $LL23@DirectIO
; File C:\Develop\OPOS-CCO\zSoundPlayer\SoundPlayerImpl.cpp

; 1196 : }

  0009b	8b 4d fc	 mov	 ecx, DWORD PTR __$ArrayPad$[ebp]
  0009e	8b c3		 mov	 eax, ebx
  000a0	5f		 pop	 edi
  000a1	5e		 pop	 esi
  000a2	33 cd		 xor	 ecx, ebp
  000a4	5b		 pop	 ebx
  000a5	e8 00 00 00 00	 call	 @__security_check_cookie@4
  000aa	c9		 leave
  000ab	c2 14 00	 ret	 20			; 00000014H
?DirectIO@COPOSSoundPlayer@@UAGJJPAJPAPA_W0@Z ENDP	; COPOSSoundPlayer::DirectIO
_TEXT	ENDS
; Function compile flags: /Ogsp
; File C:\Develop\OPOS-CCO\zSoundPlayer\SoundPlayerImpl.cpp
; File C:\Develop\OPOS-CCO\zSoundPlayer\SoundPlayerImpl.h
; File C:\Develop\OPOS-CCO\zSoundPlayer\SoundPlayerImpl.cpp
; File C:\Develop\OPOS-CCO\zSoundPlayer\SoundPlayerEvent.h
; File C:\Develop\OPOS-CCO\zSoundPlayer\SoundPlayerImpl.cpp
;	COMDAT ?Close@COPOSSoundPlayer@@UAGJPAJ@Z
_TEXT	SEGMENT
_this$ = 8						; size = 4
_pRC$ = 12						; size = 4
?Close@COPOSSoundPlayer@@UAGJPAJ@Z PROC			; COPOSSoundPlayer::Close, COMDAT

; 1070 : {

  00000	55		 push	 ebp
  00001	8b ec		 mov	 ebp, esp
  00003	57		 push	 edi
; File C:\Develop\OPOS-CCO\zSoundPlayer\SoundPlayerImpl.h

; 156  :         { return _nCOResultCode = nRC; }

  00004	8b 7d 08	 mov	 edi, DWORD PTR _this$[ebp]
  00007	83 8f f0 00 00
	00 ff		 or	 DWORD PTR [edi+240], -1
; File C:\Develop\OPOS-CCO\zSoundPlayer\SoundPlayerImpl.cpp

; 1074 :     if ( ! _bOpened )

  0000e	80 bf e0 00 00
	00 00		 cmp	 BYTE PTR [edi+224], 0
  00015	75 0d		 jne	 SHORT $LN2@Close

; 1075 :     {
; 1076 :         *pRC = OPOS_E_CLOSED;

  00017	8b 45 0c	 mov	 eax, DWORD PTR _pRC$[ebp]
  0001a	c7 00 65 00 00
	00		 mov	 DWORD PTR [eax], 101	; 00000065H

; 1077 :         DOTRACE( ( _T("*Close [Function]  RC=%d"), *pRC ) );
; 1078 :         return S_OK;

  00020	33 c0		 xor	 eax, eax
  00022	eb 45		 jmp	 SHORT $LN1@Close
$LN2@Close:
  00024	53		 push	 ebx
  00025	56		 push	 esi
; File C:\Develop\OPOS-CCO\zSoundPlayer\SoundPlayerEvent.h

; 230  :         ::SetEvent( _Event_FiringDoneEvent );

  00026	ff b7 58 01 00
	00		 push	 DWORD PTR [edi+344]
  0002c	33 db		 xor	 ebx, ebx
  0002e	88 9f 55 01 00
	00		 mov	 BYTE PTR [edi+341], bl
  00034	ff 15 00 00 00
	00		 call	 DWORD PTR __imp__SetEvent@4
; File C:\Develop\OPOS-CCO\zSoundPlayer\SoundPlayerImpl.cpp

; 1085 :     HRESULT hRC = DoInvoke( DEBUGPARAM("Close-CloseService") S_OK, NULL, 0, nDICloseService, pRC, false );

  0003a	53		 push	 ebx
  0003b	ff 75 0c	 push	 DWORD PTR _pRC$[ebp]
  0003e	8b cf		 mov	 ecx, edi
  00040	6a 09		 push	 9
  00042	53		 push	 ebx
  00043	53		 push	 ebx
  00044	53		 push	 ebx
  00045	e8 00 00 00 00	 call	 ?DoInvoke@COPOSSoundPlayer@@IAEJJPAVOposVariant@@IHPAJ_N@Z ; COPOSSoundPlayer::DoInvoke

; 1086 : 
; 1087 :     // Release the connection to the Service Object.
; 1088 :     _pService->Release();

  0004a	8b 8f f4 00 00
	00		 mov	 ecx, DWORD PTR [edi+244]
  00050	8b f0		 mov	 esi, eax
  00052	51		 push	 ecx
  00053	8b 11		 mov	 edx, DWORD PTR [ecx]
  00055	ff 52 08	 call	 DWORD PTR [edx+8]

; 1089 : 
; 1090 :     // Close down events.
; 1091 :     EventClose();

  00058	8b cf		 mov	 ecx, edi
  0005a	e8 00 00 00 00	 call	 ?EventClose@COPOSSoundPlayer@@IAEXXZ ; COPOSSoundPlayer::EventClose

; 1092 : 
; 1093 :     // We are now closed.
; 1094 :     _bOpened = false;
; 1095 : 
; 1096 :     DOTRACE( ( _T("*Close [Function]  RC=%d"), *pRC ) );
; 1097 :     return hRC;

  0005f	8b c6		 mov	 eax, esi
  00061	88 9f e0 00 00
	00		 mov	 BYTE PTR [edi+224], bl
  00067	5e		 pop	 esi
  00068	5b		 pop	 ebx
$LN1@Close:
  00069	5f		 pop	 edi

; 1098 : }

  0006a	5d		 pop	 ebp
  0006b	c2 08 00	 ret	 8
?Close@COPOSSoundPlayer@@UAGJPAJ@Z ENDP			; COPOSSoundPlayer::Close
_TEXT	ENDS
; Function compile flags: /Ogsp
; File C:\Develop\OPOS-CCO\zSoundPlayer\SoundPlayerImpl.cpp
;	COMDAT ?ClearOutput@COPOSSoundPlayer@@UAGJPAJ@Z
_TEXT	SEGMENT
_this$ = 8						; size = 4
_pRC$ = 12						; size = 4
?ClearOutput@COPOSSoundPlayer@@UAGJPAJ@Z PROC		; COPOSSoundPlayer::ClearOutput, COMDAT

; 1178 : {

  00000	55		 push	 ebp
  00001	8b ec		 mov	 ebp, esp

; 1179 :     return DoInvoke( DEBUGPARAM("ClearOutput") S_OK, NULL, 0, nDIClearOutput, pRC );

  00003	8b 4d 08	 mov	 ecx, DWORD PTR _this$[ebp]
  00006	33 c0		 xor	 eax, eax
  00008	6a 01		 push	 1
  0000a	ff 75 0c	 push	 DWORD PTR _pRC$[ebp]
  0000d	6a 08		 push	 8
  0000f	50		 push	 eax
  00010	50		 push	 eax
  00011	50		 push	 eax
  00012	e8 00 00 00 00	 call	 ?DoInvoke@COPOSSoundPlayer@@IAEJJPAVOposVariant@@IHPAJ_N@Z ; COPOSSoundPlayer::DoInvoke

; 1180 : }

  00017	5d		 pop	 ebp
  00018	c2 08 00	 ret	 8
?ClearOutput@COPOSSoundPlayer@@UAGJPAJ@Z ENDP		; COPOSSoundPlayer::ClearOutput
_TEXT	ENDS
; Function compile flags: /Ogsp
; File C:\Develop\OPOS-CCO\zSoundPlayer\SoundPlayerImpl.cpp
; File C:\Develop\OPOS-CCO\zSoundPlayer\SoundPlayerImpl.h
; File C:\Develop\OPOS-CCO\zSoundPlayer\SoundPlayerImpl.cpp
; File C:\Develop\OPOS-CCO\Common\OposVariant.h
; File C:\Develop\OPOS-CCO\zSoundPlayer\SoundPlayerImpl.cpp
; File C:\Develop\OPOS-CCO\Common\OposVariant.h
; File C:\Develop\OPOS-CCO\zSoundPlayer\SoundPlayerImpl.cpp
; File C:\Develop\OPOS-CCO\Common\OposVariant.h
; File C:\Develop\OPOS-CCO\zSoundPlayer\SoundPlayerImpl.cpp
; File C:\Develop\OPOS-CCO\Common\OposVariant.h
; File C:\Develop\OPOS-CCO\zSoundPlayer\SoundPlayerImpl.cpp
;	COMDAT ?ClaimDevice@COPOSSoundPlayer@@UAGJJPAJ@Z
_TEXT	SEGMENT
_Var$ = -24						; size = 24
_this$ = 8						; size = 4
_Timeout$ = 12						; size = 4
_pRC$ = 16						; size = 4
?ClaimDevice@COPOSSoundPlayer@@UAGJJPAJ@Z PROC		; COPOSSoundPlayer::ClaimDevice, COMDAT

; 1105 : {

  00000	55		 push	 ebp
  00001	8b ec		 mov	 ebp, esp
  00003	83 ec 18	 sub	 esp, 24			; 00000018H
  00006	56		 push	 esi
; File C:\Develop\OPOS-CCO\zSoundPlayer\SoundPlayerImpl.h

; 156  :         { return _nCOResultCode = nRC; }

  00007	8b 75 08	 mov	 esi, DWORD PTR _this$[ebp]
  0000a	83 8e f0 00 00
	00 ff		 or	 DWORD PTR [esi+240], -1
; File C:\Develop\OPOS-CCO\zSoundPlayer\SoundPlayerImpl.cpp

; 1109 :     if ( ! _bOpened )

  00011	80 be e0 00 00
	00 00		 cmp	 BYTE PTR [esi+224], 0
  00018	75 0d		 jne	 SHORT $LN2@ClaimDevic

; 1110 :     {
; 1111 :         *pRC = OPOS_E_CLOSED;

  0001a	8b 45 10	 mov	 eax, DWORD PTR _pRC$[ebp]
  0001d	c7 00 65 00 00
	00		 mov	 DWORD PTR [eax], 101	; 00000065H

; 1112 :         DOTRACEV( ( _T("*ClaimDevice [Function] -- Closed") ) );
; 1113 :         return S_OK;

  00023	33 c0		 xor	 eax, eax
  00025	eb 49		 jmp	 SHORT $LN1@ClaimDevic
$LN2@ClaimDevic:
  00027	53		 push	 ebx

; 1121 :     Var.SetLONG( Timeout );

  00028	ff 75 0c	 push	 DWORD PTR _Timeout$[ebp]
; File C:\Develop\OPOS-CCO\Common\OposVariant.h

; 77   :     OposVariant() { vt = VT_EMPTY; _bNeedClear = false; }

  0002b	33 c0		 xor	 eax, eax
; File C:\Develop\OPOS-CCO\zSoundPlayer\SoundPlayerImpl.cpp

; 1117 :     EventClaim();

  0002d	c6 86 55 01 00
	00 01		 mov	 BYTE PTR [esi+341], 1
; File C:\Develop\OPOS-CCO\Common\OposVariant.h

; 77   :     OposVariant() { vt = VT_EMPTY; _bNeedClear = false; }

  00034	33 db		 xor	 ebx, ebx
  00036	66 89 45 e8	 mov	 WORD PTR _Var$[ebp], ax
; File C:\Develop\OPOS-CCO\zSoundPlayer\SoundPlayerImpl.cpp

; 1121 :     Var.SetLONG( Timeout );

  0003a	8d 4d e8	 lea	 ecx, DWORD PTR _Var$[ebp]
; File C:\Develop\OPOS-CCO\Common\OposVariant.h

; 77   :     OposVariant() { vt = VT_EMPTY; _bNeedClear = false; }

  0003d	88 5d f8	 mov	 BYTE PTR _Var$[ebp+16], bl
; File C:\Develop\OPOS-CCO\zSoundPlayer\SoundPlayerImpl.cpp

; 1121 :     Var.SetLONG( Timeout );

  00040	e8 00 00 00 00	 call	 ?SetLONG@OposVariant@@QAEXJ@Z ; OposVariant::SetLONG

; 1122 :     return DoInvoke( DEBUGPARAM("ClaimDevice") S_OK, &Var, 1, nDIClaimDevice, pRC, false );

  00045	53		 push	 ebx
  00046	ff 75 10	 push	 DWORD PTR _pRC$[ebp]
  00049	8d 45 e8	 lea	 eax, DWORD PTR _Var$[ebp]
  0004c	8b ce		 mov	 ecx, esi
  0004e	6a 07		 push	 7
  00050	6a 01		 push	 1
  00052	50		 push	 eax
  00053	53		 push	 ebx
  00054	e8 00 00 00 00	 call	 ?DoInvoke@COPOSSoundPlayer@@IAEJJPAVOposVariant@@IHPAJ_N@Z ; COPOSSoundPlayer::DoInvoke
  00059	8b f0		 mov	 esi, eax
; File C:\Develop\OPOS-CCO\Common\OposVariant.h

; 78   :     ~OposVariant() { if (_bNeedClear) Clear(); }

  0005b	38 5d f8	 cmp	 BYTE PTR _Var$[ebp+16], bl
  0005e	74 0d		 je	 SHORT $LN9@ClaimDevic

; 79   :     HRESULT Clear() { _bNeedClear = false; return VariantClear(this); }

  00060	8d 45 e8	 lea	 eax, DWORD PTR _Var$[ebp]
  00063	88 5d f8	 mov	 BYTE PTR _Var$[ebp+16], bl
  00066	50		 push	 eax
  00067	ff 15 00 00 00
	00		 call	 DWORD PTR __imp__VariantClear@4
$LN9@ClaimDevic:
; File C:\Develop\OPOS-CCO\zSoundPlayer\SoundPlayerImpl.cpp

; 1122 :     return DoInvoke( DEBUGPARAM("ClaimDevice") S_OK, &Var, 1, nDIClaimDevice, pRC, false );

  0006d	8b c6		 mov	 eax, esi
  0006f	5b		 pop	 ebx
$LN1@ClaimDevic:
  00070	5e		 pop	 esi

; 1123 : }

  00071	c9		 leave
  00072	c2 0c 00	 ret	 12			; 0000000cH
?ClaimDevice@COPOSSoundPlayer@@UAGJJPAJ@Z ENDP		; COPOSSoundPlayer::ClaimDevice
_TEXT	ENDS
; Function compile flags: /Ogsp
; File C:\Develop\OPOS-CCO\zSoundPlayer\SoundPlayerImpl.cpp
; File C:\Develop\OPOS-CCO\Common\OposVariant.h
; File C:\Develop\OPOS-CCO\zSoundPlayer\SoundPlayerImpl.cpp
; File C:\Develop\OPOS-CCO\Common\OposVariant.h
; File C:\Develop\OPOS-CCO\zSoundPlayer\SoundPlayerImpl.cpp
; File C:\Develop\OPOS-CCO\Common\OposVariant.h
; File C:\Develop\OPOS-CCO\zSoundPlayer\SoundPlayerImpl.cpp
; File C:\Develop\OPOS-CCO\Common\OposVariant.h
; File C:\Develop\OPOS-CCO\zSoundPlayer\SoundPlayerImpl.cpp
;	COMDAT ?CheckHealth@COPOSSoundPlayer@@UAGJJPAJ@Z
_TEXT	SEGMENT
_Var$ = -24						; size = 24
_this$ = 8						; size = 4
_Level$ = 12						; size = 4
_pRC$ = 16						; size = 4
?CheckHealth@COPOSSoundPlayer@@UAGJJPAJ@Z PROC		; COPOSSoundPlayer::CheckHealth, COMDAT

; 1168 : {

  00000	55		 push	 ebp
  00001	8b ec		 mov	 ebp, esp
  00003	83 ec 18	 sub	 esp, 24			; 00000018H
  00006	56		 push	 esi

; 1170 :     Var.SetLONG( Level );

  00007	ff 75 0c	 push	 DWORD PTR _Level$[ebp]
; File C:\Develop\OPOS-CCO\Common\OposVariant.h

; 77   :     OposVariant() { vt = VT_EMPTY; _bNeedClear = false; }

  0000a	33 c0		 xor	 eax, eax
; File C:\Develop\OPOS-CCO\zSoundPlayer\SoundPlayerImpl.cpp

; 1170 :     Var.SetLONG( Level );

  0000c	8d 4d e8	 lea	 ecx, DWORD PTR _Var$[ebp]
; File C:\Develop\OPOS-CCO\Common\OposVariant.h

; 77   :     OposVariant() { vt = VT_EMPTY; _bNeedClear = false; }

  0000f	66 89 45 e8	 mov	 WORD PTR _Var$[ebp], ax
  00013	88 45 f8	 mov	 BYTE PTR _Var$[ebp+16], al
; File C:\Develop\OPOS-CCO\zSoundPlayer\SoundPlayerImpl.cpp

; 1170 :     Var.SetLONG( Level );

  00016	e8 00 00 00 00	 call	 ?SetLONG@OposVariant@@QAEXJ@Z ; OposVariant::SetLONG

; 1171 :     return DoInvoke( DEBUGPARAM("CheckHealth") S_OK, &Var, 1, nDICheckHealth, pRC );

  0001b	8b 4d 08	 mov	 ecx, DWORD PTR _this$[ebp]
  0001e	8d 45 e8	 lea	 eax, DWORD PTR _Var$[ebp]
  00021	6a 01		 push	 1
  00023	ff 75 10	 push	 DWORD PTR _pRC$[ebp]
  00026	6a 06		 push	 6
  00028	6a 01		 push	 1
  0002a	50		 push	 eax
  0002b	6a 00		 push	 0
  0002d	e8 00 00 00 00	 call	 ?DoInvoke@COPOSSoundPlayer@@IAEJJPAVOposVariant@@IHPAJ_N@Z ; COPOSSoundPlayer::DoInvoke
; File C:\Develop\OPOS-CCO\Common\OposVariant.h

; 78   :     ~OposVariant() { if (_bNeedClear) Clear(); }

  00032	80 7d f8 00	 cmp	 BYTE PTR _Var$[ebp+16], 0
; File C:\Develop\OPOS-CCO\zSoundPlayer\SoundPlayerImpl.cpp

; 1171 :     return DoInvoke( DEBUGPARAM("CheckHealth") S_OK, &Var, 1, nDICheckHealth, pRC );

  00036	8b f0		 mov	 esi, eax
; File C:\Develop\OPOS-CCO\Common\OposVariant.h

; 78   :     ~OposVariant() { if (_bNeedClear) Clear(); }

  00038	74 0e		 je	 SHORT $LN6@CheckHealt

; 79   :     HRESULT Clear() { _bNeedClear = false; return VariantClear(this); }

  0003a	8d 45 e8	 lea	 eax, DWORD PTR _Var$[ebp]
  0003d	c6 45 f8 00	 mov	 BYTE PTR _Var$[ebp+16], 0
  00041	50		 push	 eax
  00042	ff 15 00 00 00
	00		 call	 DWORD PTR __imp__VariantClear@4
$LN6@CheckHealt:
; File C:\Develop\OPOS-CCO\zSoundPlayer\SoundPlayerImpl.cpp

; 1171 :     return DoInvoke( DEBUGPARAM("CheckHealth") S_OK, &Var, 1, nDICheckHealth, pRC );

  00048	8b c6		 mov	 eax, esi
  0004a	5e		 pop	 esi

; 1172 : }

  0004b	c9		 leave
  0004c	c2 0c 00	 ret	 12			; 0000000cH
?CheckHealth@COPOSSoundPlayer@@UAGJJPAJ@Z ENDP		; COPOSSoundPlayer::CheckHealth
_TEXT	ENDS
; Function compile flags: /Ogsp
; File C:\Develop\OPOS-CCO\zSoundPlayer\SoundPlayerImpl.cpp
;	COMDAT ?get_CapUpdateFirmware@COPOSSoundPlayer@@UAGJPAF@Z
_TEXT	SEGMENT
_this$ = 8						; size = 4
_pCapUpdateFirmware$ = 12				; size = 4
?get_CapUpdateFirmware@COPOSSoundPlayer@@UAGJPAF@Z PROC	; COPOSSoundPlayer::get_CapUpdateFirmware, COMDAT

; 1549 : {

  00000	55		 push	 ebp
  00001	8b ec		 mov	 ebp, esp

; 1550 :     return GetOposProp( DEBUGPARAM("CapUpdateFirmware") PIDX_CapUpdateFirmware, pCapUpdateFirmware, 16 /*MinorVersion*/ );

  00003	8b 4d 08	 mov	 ecx, DWORD PTR _this$[ebp]
  00006	6a 10		 push	 16			; 00000010H
  00008	ff 75 0c	 push	 DWORD PTR _pCapUpdateFirmware$[ebp]
  0000b	68 f9 01 00 00	 push	 505			; 000001f9H
  00010	e8 00 00 00 00	 call	 ?GetOposProp@COPOSSoundPlayer@@IAEJJPAFJ@Z ; COPOSSoundPlayer::GetOposProp

; 1551 : }

  00015	5d		 pop	 ebp
  00016	c2 08 00	 ret	 8
?get_CapUpdateFirmware@COPOSSoundPlayer@@UAGJPAF@Z ENDP	; COPOSSoundPlayer::get_CapUpdateFirmware
_TEXT	ENDS
; Function compile flags: /Ogsp
; File C:\Develop\OPOS-CCO\zSoundPlayer\SoundPlayerImpl.cpp
;	COMDAT ?get_CapCompareFirmwareVersion@COPOSSoundPlayer@@UAGJPAF@Z
_TEXT	SEGMENT
_this$ = 8						; size = 4
_pCapCompareFirmwareVersion$ = 12			; size = 4
?get_CapCompareFirmwareVersion@COPOSSoundPlayer@@UAGJPAF@Z PROC ; COPOSSoundPlayer::get_CapCompareFirmwareVersion, COMDAT

; 1542 : {

  00000	55		 push	 ebp
  00001	8b ec		 mov	 ebp, esp

; 1543 :     return GetOposProp( DEBUGPARAM("CapCompareFirmwareVersion") PIDX_CapCompareFirmwareVersion, pCapCompareFirmwareVersion, 16 /*MinorVersion*/ );

  00003	8b 4d 08	 mov	 ecx, DWORD PTR _this$[ebp]
  00006	6a 10		 push	 16			; 00000010H
  00008	ff 75 0c	 push	 DWORD PTR _pCapCompareFirmwareVersion$[ebp]
  0000b	68 f8 01 00 00	 push	 504			; 000001f8H
  00010	e8 00 00 00 00	 call	 ?GetOposProp@COPOSSoundPlayer@@IAEJJPAFJ@Z ; COPOSSoundPlayer::GetOposProp

; 1544 : }

  00015	5d		 pop	 ebp
  00016	c2 08 00	 ret	 8
?get_CapCompareFirmwareVersion@COPOSSoundPlayer@@UAGJPAF@Z ENDP ; COPOSSoundPlayer::get_CapCompareFirmwareVersion
_TEXT	ENDS
; Function compile flags: /Ogsp
; File C:\Develop\OPOS-CCO\zSoundPlayer\SoundPlayerImpl.cpp
;	COMDAT ?get_CapUpdateStatistics@COPOSSoundPlayer@@UAGJPAF@Z
_TEXT	SEGMENT
_this$ = 8						; size = 4
_pCapUpdateStatistics$ = 12				; size = 4
?get_CapUpdateStatistics@COPOSSoundPlayer@@UAGJPAF@Z PROC ; COPOSSoundPlayer::get_CapUpdateStatistics, COMDAT

; 1535 : {

  00000	55		 push	 ebp
  00001	8b ec		 mov	 ebp, esp

; 1536 :     return GetOposProp( DEBUGPARAM("CapUpdateStatistics") PIDX_CapUpdateStatistics, pCapUpdateStatistics, 16 /*MinorVersion*/ );

  00003	8b 4d 08	 mov	 ecx, DWORD PTR _this$[ebp]
  00006	6a 10		 push	 16			; 00000010H
  00008	ff 75 0c	 push	 DWORD PTR _pCapUpdateStatistics$[ebp]
  0000b	68 f7 01 00 00	 push	 503			; 000001f7H
  00010	e8 00 00 00 00	 call	 ?GetOposProp@COPOSSoundPlayer@@IAEJJPAFJ@Z ; COPOSSoundPlayer::GetOposProp

; 1537 : }

  00015	5d		 pop	 ebp
  00016	c2 08 00	 ret	 8
?get_CapUpdateStatistics@COPOSSoundPlayer@@UAGJPAF@Z ENDP ; COPOSSoundPlayer::get_CapUpdateStatistics
_TEXT	ENDS
; Function compile flags: /Ogsp
; File C:\Develop\OPOS-CCO\zSoundPlayer\SoundPlayerImpl.cpp
;	COMDAT ?get_CapStatisticsReporting@COPOSSoundPlayer@@UAGJPAF@Z
_TEXT	SEGMENT
_this$ = 8						; size = 4
_pCapStatisticsReporting$ = 12				; size = 4
?get_CapStatisticsReporting@COPOSSoundPlayer@@UAGJPAF@Z PROC ; COPOSSoundPlayer::get_CapStatisticsReporting, COMDAT

; 1528 : {

  00000	55		 push	 ebp
  00001	8b ec		 mov	 ebp, esp

; 1529 :     return GetOposProp( DEBUGPARAM("CapStatisticsReporting") PIDX_CapStatisticsReporting, pCapStatisticsReporting, 16 /*MinorVersion*/ );

  00003	8b 4d 08	 mov	 ecx, DWORD PTR _this$[ebp]
  00006	6a 10		 push	 16			; 00000010H
  00008	ff 75 0c	 push	 DWORD PTR _pCapStatisticsReporting$[ebp]
  0000b	68 f6 01 00 00	 push	 502			; 000001f6H
  00010	e8 00 00 00 00	 call	 ?GetOposProp@COPOSSoundPlayer@@IAEJJPAFJ@Z ; COPOSSoundPlayer::GetOposProp

; 1530 : }

  00015	5d		 pop	 ebp
  00016	c2 08 00	 ret	 8
?get_CapStatisticsReporting@COPOSSoundPlayer@@UAGJPAF@Z ENDP ; COPOSSoundPlayer::get_CapStatisticsReporting
_TEXT	ENDS
; Function compile flags: /Ogsp
; File C:\Develop\OPOS-CCO\zSoundPlayer\SoundPlayerImpl.cpp
;	COMDAT ?get_DeviceName@COPOSSoundPlayer@@UAGJPAPA_W@Z
_TEXT	SEGMENT
_this$ = 8						; size = 4
_pDeviceName$ = 12					; size = 4
?get_DeviceName@COPOSSoundPlayer@@UAGJPAPA_W@Z PROC	; COPOSSoundPlayer::get_DeviceName, COMDAT

; 1521 : {

  00000	55		 push	 ebp
  00001	8b ec		 mov	 ebp, esp

; 1522 :     return GetOposProp( DEBUGPARAM("DeviceName") PIDX_DeviceName, pDeviceName, 16 /*MinorVersion*/ );

  00003	8b 4d 08	 mov	 ecx, DWORD PTR _this$[ebp]
  00006	6a 10		 push	 16			; 00000010H
  00008	ff 75 0c	 push	 DWORD PTR _pDeviceName$[ebp]
  0000b	68 43 42 0f 00	 push	 1000003			; 000f4243H
  00010	e8 00 00 00 00	 call	 ?GetOposProp@COPOSSoundPlayer@@IAEJJPAPA_WJ@Z ; COPOSSoundPlayer::GetOposProp

; 1523 : }

  00015	5d		 pop	 ebp
  00016	c2 08 00	 ret	 8
?get_DeviceName@COPOSSoundPlayer@@UAGJPAPA_W@Z ENDP	; COPOSSoundPlayer::get_DeviceName
_TEXT	ENDS
; Function compile flags: /Ogsp
; File C:\Develop\OPOS-CCO\zSoundPlayer\SoundPlayerImpl.cpp
;	COMDAT ?get_DeviceDescription@COPOSSoundPlayer@@UAGJPAPA_W@Z
_TEXT	SEGMENT
_this$ = 8						; size = 4
_pDeviceDescription$ = 12				; size = 4
?get_DeviceDescription@COPOSSoundPlayer@@UAGJPAPA_W@Z PROC ; COPOSSoundPlayer::get_DeviceDescription, COMDAT

; 1514 : {

  00000	55		 push	 ebp
  00001	8b ec		 mov	 ebp, esp

; 1515 :     return GetOposProp( DEBUGPARAM("DeviceDescription") PIDX_DeviceDescription, pDeviceDescription, 16 /*MinorVersion*/ );

  00003	8b 4d 08	 mov	 ecx, DWORD PTR _this$[ebp]
  00006	6a 10		 push	 16			; 00000010H
  00008	ff 75 0c	 push	 DWORD PTR _pDeviceDescription$[ebp]
  0000b	68 42 42 0f 00	 push	 1000002			; 000f4242H
  00010	e8 00 00 00 00	 call	 ?GetOposProp@COPOSSoundPlayer@@IAEJJPAPA_WJ@Z ; COPOSSoundPlayer::GetOposProp

; 1516 : }

  00015	5d		 pop	 ebp
  00016	c2 08 00	 ret	 8
?get_DeviceDescription@COPOSSoundPlayer@@UAGJPAPA_W@Z ENDP ; COPOSSoundPlayer::get_DeviceDescription
_TEXT	ENDS
; Function compile flags: /Ogsp
; File C:\Develop\OPOS-CCO\zSoundPlayer\SoundPlayerImpl.cpp
;	COMDAT ?get_ServiceObjectVersion@COPOSSoundPlayer@@UAGJPAJ@Z
_TEXT	SEGMENT
_this$ = 8						; size = 4
_pServiceObjectVersion$ = 12				; size = 4
?get_ServiceObjectVersion@COPOSSoundPlayer@@UAGJPAJ@Z PROC ; COPOSSoundPlayer::get_ServiceObjectVersion, COMDAT

; 1507 : {

  00000	55		 push	 ebp
  00001	8b ec		 mov	 ebp, esp

; 1508 :     return GetOposProp( DEBUGPARAM("ServiceObjectVersion") PIDX_ServiceObjectVersion, pServiceObjectVersion, 16 /*MinorVersion*/ );

  00003	8b 4d 08	 mov	 ecx, DWORD PTR _this$[ebp]
  00006	6a 10		 push	 16			; 00000010H
  00008	ff 75 0c	 push	 DWORD PTR _pServiceObjectVersion$[ebp]
  0000b	6a 08		 push	 8
  0000d	e8 00 00 00 00	 call	 ?GetOposProp@COPOSSoundPlayer@@IAEJJPAJJ@Z ; COPOSSoundPlayer::GetOposProp

; 1509 : }

  00012	5d		 pop	 ebp
  00013	c2 08 00	 ret	 8
?get_ServiceObjectVersion@COPOSSoundPlayer@@UAGJPAJ@Z ENDP ; COPOSSoundPlayer::get_ServiceObjectVersion
_TEXT	ENDS
; Function compile flags: /Ogsp
; File C:\Develop\OPOS-CCO\zSoundPlayer\SoundPlayerImpl.cpp
;	COMDAT ?get_ServiceObjectDescription@COPOSSoundPlayer@@UAGJPAPA_W@Z
_TEXT	SEGMENT
_this$ = 8						; size = 4
_pServiceObjectDescription$ = 12			; size = 4
?get_ServiceObjectDescription@COPOSSoundPlayer@@UAGJPAPA_W@Z PROC ; COPOSSoundPlayer::get_ServiceObjectDescription, COMDAT

; 1500 : {

  00000	55		 push	 ebp
  00001	8b ec		 mov	 ebp, esp

; 1501 :     return GetOposProp( DEBUGPARAM("ServiceObjectDescription") PIDX_ServiceObjectDescription, pServiceObjectDescription, 16 /*MinorVersion*/ );

  00003	8b 4d 08	 mov	 ecx, DWORD PTR _this$[ebp]
  00006	6a 10		 push	 16			; 00000010H
  00008	ff 75 0c	 push	 DWORD PTR _pServiceObjectDescription$[ebp]
  0000b	68 44 42 0f 00	 push	 1000004			; 000f4244H
  00010	e8 00 00 00 00	 call	 ?GetOposProp@COPOSSoundPlayer@@IAEJJPAPA_WJ@Z ; COPOSSoundPlayer::GetOposProp

; 1502 : }

  00015	5d		 pop	 ebp
  00016	c2 08 00	 ret	 8
?get_ServiceObjectDescription@COPOSSoundPlayer@@UAGJPAPA_W@Z ENDP ; COPOSSoundPlayer::get_ServiceObjectDescription
_TEXT	ENDS
; Function compile flags: /Ogsp
; File C:\Develop\OPOS-CCO\zSoundPlayer\SoundPlayerImpl.cpp
;	COMDAT ?get_ControlObjectVersion@COPOSSoundPlayer@@UAGJPAJ@Z
_TEXT	SEGMENT
_this$ = 8						; size = 4
_pControlObjectVersion$ = 12				; size = 4
?get_ControlObjectVersion@COPOSSoundPlayer@@UAGJPAJ@Z PROC ; COPOSSoundPlayer::get_ControlObjectVersion, COMDAT

; 1388 : {

  00000	55		 push	 ebp
  00001	8b ec		 mov	 ebp, esp

; 1389 :     *pControlObjectVersion = g_ControlVersion;

  00003	8b 4d 0c	 mov	 ecx, DWORD PTR _pControlObjectVersion$[ebp]
  00006	a1 00 00 00 00	 mov	 eax, DWORD PTR ?g_ControlVersion@@3JA ; g_ControlVersion
  0000b	89 01		 mov	 DWORD PTR [ecx], eax

; 1390 :     DOTRACEV( ( _T("*ControlObjectVersion [Get]: %d"), g_ControlVersion ) );
; 1391 :     return S_OK;

  0000d	33 c0		 xor	 eax, eax

; 1392 : }

  0000f	5d		 pop	 ebp
  00010	c2 08 00	 ret	 8
?get_ControlObjectVersion@COPOSSoundPlayer@@UAGJPAJ@Z ENDP ; COPOSSoundPlayer::get_ControlObjectVersion
_TEXT	ENDS
; Function compile flags: /Ogsp
; File C:\Develop\OPOS-CCO\zSoundPlayer\SoundPlayerImpl.cpp
; File C:\Develop\OPOS-CCO\Common\CWString.h
; File C:\Develop\OPOS-CCO\zSoundPlayer\SoundPlayerImpl.cpp
; File C:\Develop\OPOS-CCO\Common\CWString.h
; File C:\Develop\OPOS-CCO\zSoundPlayer\SoundPlayerImpl.cpp
;	COMDAT ?get_ControlObjectDescription@COPOSSoundPlayer@@UAGJPAPA_W@Z
_TEXT	SEGMENT
$T1 = -20						; size = 20
_this$ = 8						; size = 4
_pControlObjectDescription$ = 12			; size = 4
?get_ControlObjectDescription@COPOSSoundPlayer@@UAGJPAPA_W@Z PROC ; COPOSSoundPlayer::get_ControlObjectDescription, COMDAT

; 1379 : {

  00000	55		 push	 ebp
  00001	8b ec		 mov	 ebp, esp
  00003	83 ec 14	 sub	 esp, 20			; 00000014H
; File C:\Develop\OPOS-CCO\Common\CWString.h

; 183  :           m_pWide((wchar_t*)-1), m_nDupFlag(0)          {}

  00006	83 4d f0 ff	 or	 DWORD PTR $T1[ebp+4], -1

; 214  :             if (m_pWide == (wchar_t*)-1) DupWide();

  0000a	8d 4d ec	 lea	 ecx, DWORD PTR $T1[ebp]

; 182  :         : m_pChar((char*)pChar), m_nChars(-1),

  0000d	83 4d f4 ff	 or	 DWORD PTR $T1[ebp+8], -1
  00011	c7 45 ec 00 00
	00 00		 mov	 DWORD PTR $T1[ebp], OFFSET ?g_ControlDescription@@3PADA ; g_ControlDescription

; 183  :           m_pWide((wchar_t*)-1), m_nDupFlag(0)          {}

  00018	c6 45 fc 00	 mov	 BYTE PTR $T1[ebp+16], 0

; 214  :             if (m_pWide == (wchar_t*)-1) DupWide();

  0001c	e8 00 00 00 00	 call	 ?DupWide@_CW@@AAEXXZ	; _CW::DupWide
; File C:\Develop\OPOS-CCO\zSoundPlayer\SoundPlayerImpl.cpp

; 1380 :     *pControlObjectDescription = ::SysAllocString( _CW(g_ControlDescription) );

  00021	ff 75 f0	 push	 DWORD PTR $T1[ebp+4]
  00024	ff 15 00 00 00
	00		 call	 DWORD PTR __imp__SysAllocString@4
  0002a	8b 4d 0c	 mov	 ecx, DWORD PTR _pControlObjectDescription$[ebp]
  0002d	89 01		 mov	 DWORD PTR [ecx], eax
; File C:\Develop\OPOS-CCO\Common\CWString.h

; 227  :         {   if (m_nDupFlag == 'c')      delete [] m_pChar;

  0002f	8a 45 fc	 mov	 al, BYTE PTR $T1[ebp+16]
  00032	3c 63		 cmp	 al, 99			; 00000063H
  00034	75 05		 jne	 SHORT $LN9@get_Contro
  00036	ff 75 ec	 push	 DWORD PTR $T1[ebp]
  00039	eb 07		 jmp	 SHORT $LN13@get_Contro
$LN9@get_Contro:

; 228  :             else if (m_nDupFlag == 'w') delete [] m_pWide;

  0003b	3c 77		 cmp	 al, 119			; 00000077H
  0003d	75 09		 jne	 SHORT $LN11@get_Contro
  0003f	ff 75 f0	 push	 DWORD PTR $T1[ebp+4]
$LN13@get_Contro:
; File C:\Develop\OPOS-CCO\zSoundPlayer\SoundPlayerImpl.cpp

; 1382 :     return S_OK;

  00042	e8 00 00 00 00	 call	 ??_V@YAXPAX@Z		; operator delete[]
  00047	59		 pop	 ecx
$LN11@get_Contro:
  00048	33 c0		 xor	 eax, eax

; 1383 : }

  0004a	c9		 leave
  0004b	c2 08 00	 ret	 8
?get_ControlObjectDescription@COPOSSoundPlayer@@UAGJPAPA_W@Z ENDP ; COPOSSoundPlayer::get_ControlObjectDescription
_TEXT	ENDS
; Function compile flags: /Ogsp
; File C:\Develop\OPOS-CCO\zSoundPlayer\SoundPlayerImpl.cpp
;	COMDAT ?get_State@COPOSSoundPlayer@@UAGJPAJ@Z
_TEXT	SEGMENT
_this$ = 8						; size = 4
_pState$ = 12						; size = 4
?get_State@COPOSSoundPlayer@@UAGJPAJ@Z PROC		; COPOSSoundPlayer::get_State, COMDAT

; 1364 : {

  00000	55		 push	 ebp
  00001	8b ec		 mov	 ebp, esp

; 1365 :     if ( ! _bOpened )                           // If not open,

  00003	8b 4d 08	 mov	 ecx, DWORD PTR _this$[ebp]
  00006	80 b9 e0 00 00
	00 00		 cmp	 BYTE PTR [ecx+224], 0
  0000d	75 0b		 jne	 SHORT $LN2@get_State

; 1366 :     {
; 1367 :         *pState = OPOS_S_CLOSED;                //   then return "closed".

  0000f	8b 45 0c	 mov	 eax, DWORD PTR _pState$[ebp]
  00012	c7 00 01 00 00
	00		 mov	 DWORD PTR [eax], 1

; 1368 :         DOTRACEV( ( _T("*State [Get] -- Closed") ) );
; 1369 :     }

  00018	eb 0c		 jmp	 SHORT $LN3@get_State
$LN2@get_State:

; 1370 :     else
; 1371 :         GetOposProp( DEBUGPARAM("State") PIDX_State, pState ); // Otherwise go to SO.

  0001a	6a 00		 push	 0
  0001c	ff 75 0c	 push	 DWORD PTR _pState$[ebp]
  0001f	6a 09		 push	 9
  00021	e8 00 00 00 00	 call	 ?GetOposProp@COPOSSoundPlayer@@IAEJJPAJJ@Z ; COPOSSoundPlayer::GetOposProp
$LN3@get_State:

; 1372 : 
; 1373 :     return S_OK;

  00026	33 c0		 xor	 eax, eax

; 1374 : }

  00028	5d		 pop	 ebp
  00029	c2 08 00	 ret	 8
?get_State@COPOSSoundPlayer@@UAGJPAJ@Z ENDP		; COPOSSoundPlayer::get_State
_TEXT	ENDS
; Function compile flags: /Ogsp
; File C:\Develop\OPOS-CCO\zSoundPlayer\SoundPlayerImpl.cpp
;	COMDAT ?get_ResultCodeExtended@COPOSSoundPlayer@@UAGJPAJ@Z
_TEXT	SEGMENT
_this$ = 8						; size = 4
_pResultCodeExtended$ = 12				; size = 4
?get_ResultCodeExtended@COPOSSoundPlayer@@UAGJPAJ@Z PROC ; COPOSSoundPlayer::get_ResultCodeExtended, COMDAT

; 1493 : {

  00000	55		 push	 ebp
  00001	8b ec		 mov	 ebp, esp

; 1494 :     return GetOposProp( DEBUGPARAM("ResultCodeExtended") PIDX_ResultCodeExtended, pResultCodeExtended, 16 /*MinorVersion*/ );

  00003	8b 4d 08	 mov	 ecx, DWORD PTR _this$[ebp]
  00006	6a 10		 push	 16			; 00000010H
  00008	ff 75 0c	 push	 DWORD PTR _pResultCodeExtended$[ebp]
  0000b	6a 07		 push	 7
  0000d	e8 00 00 00 00	 call	 ?GetOposProp@COPOSSoundPlayer@@IAEJJPAJJ@Z ; COPOSSoundPlayer::GetOposProp

; 1495 : }

  00012	5d		 pop	 ebp
  00013	c2 08 00	 ret	 8
?get_ResultCodeExtended@COPOSSoundPlayer@@UAGJPAJ@Z ENDP ; COPOSSoundPlayer::get_ResultCodeExtended
_TEXT	ENDS
; Function compile flags: /Ogsp
; File C:\Develop\OPOS-CCO\zSoundPlayer\SoundPlayerImpl.cpp
;	COMDAT ?get_ResultCode@COPOSSoundPlayer@@UAGJPAJ@Z
_TEXT	SEGMENT
_this$ = 8						; size = 4
_pResultCode$ = 12					; size = 4
?get_ResultCode@COPOSSoundPlayer@@UAGJPAJ@Z PROC	; COPOSSoundPlayer::get_ResultCode, COMDAT

; 1344 : {

  00000	55		 push	 ebp
  00001	8b ec		 mov	 ebp, esp

; 1345 :     if ( ! _bOpened )                               // If not open,

  00003	8b 4d 08	 mov	 ecx, DWORD PTR _this$[ebp]
  00006	80 b9 e0 00 00
	00 00		 cmp	 BYTE PTR [ecx+224], 0
  0000d	75 0b		 jne	 SHORT $LN2@get_Result

; 1346 :     {
; 1347 :         *pResultCode = OPOS_E_CLOSED;               //   then return "closed".

  0000f	8b 45 0c	 mov	 eax, DWORD PTR _pResultCode$[ebp]
  00012	c7 00 65 00 00
	00		 mov	 DWORD PTR [eax], 101	; 00000065H

; 1348 :         DOTRACEV( ( _T("*ResultCode [Get] -- Closed") ) );
; 1349 :     }

  00018	eb 1e		 jmp	 SHORT $LN5@get_Result
$LN2@get_Result:

; 1350 :     else if ( _nCOResultCode != -1 )                // If the control object has to report a status,

  0001a	8b 91 f0 00 00
	00		 mov	 edx, DWORD PTR [ecx+240]
  00020	83 fa ff	 cmp	 edx, -1
  00023	74 07		 je	 SHORT $LN4@get_Result

; 1351 :     {
; 1352 :         *pResultCode = _nCOResultCode;              //   then return it.

  00025	8b 45 0c	 mov	 eax, DWORD PTR _pResultCode$[ebp]
  00028	89 10		 mov	 DWORD PTR [eax], edx

; 1353 :         DOTRACEV( ( _T("*ResultCode [Get]: %d -- from CO"), _nCOResultCode ) );
; 1354 :     }

  0002a	eb 0c		 jmp	 SHORT $LN5@get_Result
$LN4@get_Result:

; 1355 :     else
; 1356 :         GetOposProp( DEBUGPARAM("ResultCode") PIDX_ResultCode, pResultCode );// Otherwise go to SO.

  0002c	6a 00		 push	 0
  0002e	ff 75 0c	 push	 DWORD PTR _pResultCode$[ebp]
  00031	6a 06		 push	 6
  00033	e8 00 00 00 00	 call	 ?GetOposProp@COPOSSoundPlayer@@IAEJJPAJJ@Z ; COPOSSoundPlayer::GetOposProp
$LN5@get_Result:

; 1357 : 
; 1358 :     return S_OK;

  00038	33 c0		 xor	 eax, eax

; 1359 : }

  0003a	5d		 pop	 ebp
  0003b	c2 08 00	 ret	 8
?get_ResultCode@COPOSSoundPlayer@@UAGJPAJ@Z ENDP	; COPOSSoundPlayer::get_ResultCode
_TEXT	ENDS
; Function compile flags: /Ogsp
; File C:\Develop\OPOS-CCO\zSoundPlayer\SoundPlayerImpl.cpp
;	COMDAT ?get_PowerState@COPOSSoundPlayer@@UAGJPAJ@Z
_TEXT	SEGMENT
_this$ = 8						; size = 4
_pPowerState$ = 12					; size = 4
?get_PowerState@COPOSSoundPlayer@@UAGJPAJ@Z PROC	; COPOSSoundPlayer::get_PowerState, COMDAT

; 1486 : {

  00000	55		 push	 ebp
  00001	8b ec		 mov	 ebp, esp

; 1487 :     return GetOposProp( DEBUGPARAM("PowerState") PIDX_PowerState, pPowerState, 16 /*MinorVersion*/ );

  00003	8b 4d 08	 mov	 ecx, DWORD PTR _this$[ebp]
  00006	6a 10		 push	 16			; 00000010H
  00008	ff 75 0c	 push	 DWORD PTR _pPowerState$[ebp]
  0000b	6a 0e		 push	 14			; 0000000eH
  0000d	e8 00 00 00 00	 call	 ?GetOposProp@COPOSSoundPlayer@@IAEJJPAJJ@Z ; COPOSSoundPlayer::GetOposProp

; 1488 : }

  00012	5d		 pop	 ebp
  00013	c2 08 00	 ret	 8
?get_PowerState@COPOSSoundPlayer@@UAGJPAJ@Z ENDP	; COPOSSoundPlayer::get_PowerState
_TEXT	ENDS
; Function compile flags: /Ogsp
; File C:\Develop\OPOS-CCO\zSoundPlayer\SoundPlayerImpl.cpp
;	COMDAT ?put_PowerNotify@COPOSSoundPlayer@@UAGJJ@Z
_TEXT	SEGMENT
_this$ = 8						; size = 4
_PowerNotify$ = 12					; size = 4
?put_PowerNotify@COPOSSoundPlayer@@UAGJJ@Z PROC		; COPOSSoundPlayer::put_PowerNotify, COMDAT

; 1479 : {

  00000	55		 push	 ebp
  00001	8b ec		 mov	 ebp, esp

; 1480 :     return SetOposProp( DEBUGPARAM("PowerNotify") PIDX_PowerNotify, PowerNotify, 16 /*MinorVersion*/ );

  00003	8b 4d 08	 mov	 ecx, DWORD PTR _this$[ebp]
  00006	6a 10		 push	 16			; 00000010H
  00008	ff 75 0c	 push	 DWORD PTR _PowerNotify$[ebp]
  0000b	6a 0d		 push	 13			; 0000000dH
  0000d	e8 00 00 00 00	 call	 ?SetOposProp@COPOSSoundPlayer@@IAEJJJJ@Z ; COPOSSoundPlayer::SetOposProp

; 1481 : }

  00012	5d		 pop	 ebp
  00013	c2 08 00	 ret	 8
?put_PowerNotify@COPOSSoundPlayer@@UAGJJ@Z ENDP		; COPOSSoundPlayer::put_PowerNotify
_TEXT	ENDS
; Function compile flags: /Ogsp
; File C:\Develop\OPOS-CCO\zSoundPlayer\SoundPlayerImpl.cpp
;	COMDAT ?get_PowerNotify@COPOSSoundPlayer@@UAGJPAJ@Z
_TEXT	SEGMENT
_this$ = 8						; size = 4
_pPowerNotify$ = 12					; size = 4
?get_PowerNotify@COPOSSoundPlayer@@UAGJPAJ@Z PROC	; COPOSSoundPlayer::get_PowerNotify, COMDAT

; 1472 : {

  00000	55		 push	 ebp
  00001	8b ec		 mov	 ebp, esp

; 1473 :     return GetOposProp( DEBUGPARAM("PowerNotify") PIDX_PowerNotify, pPowerNotify, 16 /*MinorVersion*/ );

  00003	8b 4d 08	 mov	 ecx, DWORD PTR _this$[ebp]
  00006	6a 10		 push	 16			; 00000010H
  00008	ff 75 0c	 push	 DWORD PTR _pPowerNotify$[ebp]
  0000b	6a 0d		 push	 13			; 0000000dH
  0000d	e8 00 00 00 00	 call	 ?GetOposProp@COPOSSoundPlayer@@IAEJJPAJJ@Z ; COPOSSoundPlayer::GetOposProp

; 1474 : }

  00012	5d		 pop	 ebp
  00013	c2 08 00	 ret	 8
?get_PowerNotify@COPOSSoundPlayer@@UAGJPAJ@Z ENDP	; COPOSSoundPlayer::get_PowerNotify
_TEXT	ENDS
; Function compile flags: /Ogsp
; File C:\Develop\OPOS-CCO\zSoundPlayer\SoundPlayerImpl.cpp
;	COMDAT ?get_OutputID@COPOSSoundPlayer@@UAGJPAJ@Z
_TEXT	SEGMENT
_this$ = 8						; size = 4
_pOutputID$ = 12					; size = 4
?get_OutputID@COPOSSoundPlayer@@UAGJPAJ@Z PROC		; COPOSSoundPlayer::get_OutputID, COMDAT

; 1465 : {

  00000	55		 push	 ebp
  00001	8b ec		 mov	 ebp, esp

; 1466 :     return GetOposProp( DEBUGPARAM("OutputID") PIDX_OutputID, pOutputID, 16 /*MinorVersion*/ );

  00003	8b 4d 08	 mov	 ecx, DWORD PTR _this$[ebp]
  00006	6a 10		 push	 16			; 00000010H
  00008	ff 75 0c	 push	 DWORD PTR _pOutputID$[ebp]
  0000b	6a 05		 push	 5
  0000d	e8 00 00 00 00	 call	 ?GetOposProp@COPOSSoundPlayer@@IAEJJPAJJ@Z ; COPOSSoundPlayer::GetOposProp

; 1467 : }

  00012	5d		 pop	 ebp
  00013	c2 08 00	 ret	 8
?get_OutputID@COPOSSoundPlayer@@UAGJPAJ@Z ENDP		; COPOSSoundPlayer::get_OutputID
_TEXT	ENDS
; Function compile flags: /Ogsp
; File C:\Develop\OPOS-CCO\zSoundPlayer\SoundPlayerImpl.cpp
; File C:\Develop\OPOS-CCO\zSoundPlayer\SoundPlayerImpl.h
; File C:\Develop\OPOS-CCO\zSoundPlayer\SoundPlayerImpl.cpp
;	COMDAT ?put_FreezeEvents@COPOSSoundPlayer@@UAGJF@Z
_TEXT	SEGMENT
_this$ = 8						; size = 4
_FreezeEvents$ = 12					; size = 2
?put_FreezeEvents@COPOSSoundPlayer@@UAGJF@Z PROC	; COPOSSoundPlayer::put_FreezeEvents, COMDAT

; 1313 : {

  00000	55		 push	 ebp
  00001	8b ec		 mov	 ebp, esp
  00003	56		 push	 esi
; File C:\Develop\OPOS-CCO\zSoundPlayer\SoundPlayerImpl.h

; 156  :         { return _nCOResultCode = nRC; }

  00004	8b 75 08	 mov	 esi, DWORD PTR _this$[ebp]
  00007	83 8e f0 00 00
	00 ff		 or	 DWORD PTR [esi+240], -1
; File C:\Develop\OPOS-CCO\zSoundPlayer\SoundPlayerImpl.cpp

; 1317 :     if ( ! _bOpened )

  0000e	80 be e0 00 00
	00 00		 cmp	 BYTE PTR [esi+224], 0
  00015	74 2e		 je	 SHORT $LN4@put_Freeze

; 1318 :     {
; 1319 :         DOTRACEV( ( _T("*FreezeEvents [Set] -- Closed") ) );
; 1320 :         return S_OK;
; 1321 :     }
; 1322 : 
; 1323 :     if ( FreezeEvents )

  00017	66 83 7d 0c 00	 cmp	 WORD PTR _FreezeEvents$[ebp], 0
  0001c	8b ce		 mov	 ecx, esi
  0001e	74 14		 je	 SHORT $LN3@put_Freeze

; 396  :     return SetOposProp( DEBUGPARAM(pPropName)

  00020	6a 00		 push	 0
  00022	6a 01		 push	 1
  00024	6a 04		 push	 4
  00026	e8 00 00 00 00	 call	 ?SetOposProp@COPOSSoundPlayer@@IAEJJJJ@Z ; COPOSSoundPlayer::SetOposProp

; 1324 :     {
; 1325 :         // Call down into the Service Object first to set the property value.
; 1326 :         SetOposProp( DEBUGPARAM("FreezeEvents") PIDX_FreezeEvents, FreezeEvents ); // First tell the SO the new state.
; 1327 :         _bFreezeState = true;                           // Then update ours.

  0002b	c6 86 fc 00 00
	00 01		 mov	 BYTE PTR [esi+252], 1

; 1328 :     }

  00032	eb 11		 jmp	 SHORT $LN4@put_Freeze
$LN3@put_Freeze:

; 1329 :     else
; 1330 :     {
; 1331 :         // Update our state first, then tell the SO.
; 1332 :         // This avoids a lockup in the event firing object's DoEvent() routine
; 1333 :         //   that would occur if the SO calls an event from its property update method.
; 1334 :         _bFreezeState = false;

  00034	33 c0		 xor	 eax, eax

; 396  :     return SetOposProp( DEBUGPARAM(pPropName)

  00036	50		 push	 eax
  00037	50		 push	 eax
  00038	6a 04		 push	 4

; 1329 :     else
; 1330 :     {
; 1331 :         // Update our state first, then tell the SO.
; 1332 :         // This avoids a lockup in the event firing object's DoEvent() routine
; 1333 :         //   that would occur if the SO calls an event from its property update method.
; 1334 :         _bFreezeState = false;

  0003a	88 86 fc 00 00
	00		 mov	 BYTE PTR [esi+252], al

; 396  :     return SetOposProp( DEBUGPARAM(pPropName)

  00040	e8 00 00 00 00	 call	 ?SetOposProp@COPOSSoundPlayer@@IAEJJJJ@Z ; COPOSSoundPlayer::SetOposProp
$LN4@put_Freeze:

; 1335 :         SetOposProp( DEBUGPARAM("FreezeEvents") PIDX_FreezeEvents, FreezeEvents );
; 1336 :     }
; 1337 : 
; 1338 :     return S_OK;

  00045	33 c0		 xor	 eax, eax
  00047	5e		 pop	 esi

; 1339 : }

  00048	5d		 pop	 ebp
  00049	c2 08 00	 ret	 8
?put_FreezeEvents@COPOSSoundPlayer@@UAGJF@Z ENDP	; COPOSSoundPlayer::put_FreezeEvents
_TEXT	ENDS
; Function compile flags: /Ogsp
; File C:\Develop\OPOS-CCO\zSoundPlayer\SoundPlayerImpl.cpp
;	COMDAT ?get_FreezeEvents@COPOSSoundPlayer@@UAGJPAF@Z
_TEXT	SEGMENT
_this$ = 8						; size = 4
_pFreezeEvents$ = 12					; size = 4
?get_FreezeEvents@COPOSSoundPlayer@@UAGJPAF@Z PROC	; COPOSSoundPlayer::get_FreezeEvents, COMDAT

; 1306 : {

  00000	55		 push	 ebp
  00001	8b ec		 mov	 ebp, esp

; 1307 :     return GetOposProp( DEBUGPARAM("FreezeEvents") PIDX_FreezeEvents, pFreezeEvents );

  00003	8b 4d 08	 mov	 ecx, DWORD PTR _this$[ebp]
  00006	6a 00		 push	 0
  00008	ff 75 0c	 push	 DWORD PTR _pFreezeEvents$[ebp]
  0000b	6a 04		 push	 4
  0000d	e8 00 00 00 00	 call	 ?GetOposProp@COPOSSoundPlayer@@IAEJJPAFJ@Z ; COPOSSoundPlayer::GetOposProp

; 1308 : }

  00012	5d		 pop	 ebp
  00013	c2 08 00	 ret	 8
?get_FreezeEvents@COPOSSoundPlayer@@UAGJPAF@Z ENDP	; COPOSSoundPlayer::get_FreezeEvents
_TEXT	ENDS
; Function compile flags: /Ogsp
; File C:\Develop\OPOS-CCO\zSoundPlayer\SoundPlayerImpl.cpp
;	COMDAT ?put_DeviceEnabled@COPOSSoundPlayer@@UAGJF@Z
_TEXT	SEGMENT
_this$ = 8						; size = 4
_DeviceEnabled$ = 12					; size = 2
?put_DeviceEnabled@COPOSSoundPlayer@@UAGJF@Z PROC	; COPOSSoundPlayer::put_DeviceEnabled, COMDAT

; 1458 : {

  00000	55		 push	 ebp
  00001	8b ec		 mov	 ebp, esp

; 396  :     return SetOposProp( DEBUGPARAM(pPropName)

  00003	8b 4d 08	 mov	 ecx, DWORD PTR _this$[ebp]
  00006	33 c0		 xor	 eax, eax
  00008	66 39 45 0c	 cmp	 WORD PTR _DeviceEnabled$[ebp], ax
  0000c	6a 10		 push	 16			; 00000010H
  0000e	0f 95 c0	 setne	 al
  00011	50		 push	 eax
  00012	6a 03		 push	 3
  00014	e8 00 00 00 00	 call	 ?SetOposProp@COPOSSoundPlayer@@IAEJJJJ@Z ; COPOSSoundPlayer::SetOposProp

; 1459 :     return SetOposProp( DEBUGPARAM("DeviceEnabled") PIDX_DeviceEnabled, DeviceEnabled, 16 /*MinorVersion*/ );
; 1460 : }

  00019	5d		 pop	 ebp
  0001a	c2 08 00	 ret	 8
?put_DeviceEnabled@COPOSSoundPlayer@@UAGJF@Z ENDP	; COPOSSoundPlayer::put_DeviceEnabled
_TEXT	ENDS
; Function compile flags: /Ogsp
; File C:\Develop\OPOS-CCO\zSoundPlayer\SoundPlayerImpl.cpp
;	COMDAT ?get_DeviceEnabled@COPOSSoundPlayer@@UAGJPAF@Z
_TEXT	SEGMENT
_this$ = 8						; size = 4
_pDeviceEnabled$ = 12					; size = 4
?get_DeviceEnabled@COPOSSoundPlayer@@UAGJPAF@Z PROC	; COPOSSoundPlayer::get_DeviceEnabled, COMDAT

; 1451 : {

  00000	55		 push	 ebp
  00001	8b ec		 mov	 ebp, esp

; 1452 :     return GetOposProp( DEBUGPARAM("DeviceEnabled") PIDX_DeviceEnabled, pDeviceEnabled, 16 /*MinorVersion*/ );

  00003	8b 4d 08	 mov	 ecx, DWORD PTR _this$[ebp]
  00006	6a 10		 push	 16			; 00000010H
  00008	ff 75 0c	 push	 DWORD PTR _pDeviceEnabled$[ebp]
  0000b	6a 03		 push	 3
  0000d	e8 00 00 00 00	 call	 ?GetOposProp@COPOSSoundPlayer@@IAEJJPAFJ@Z ; COPOSSoundPlayer::GetOposProp

; 1453 : }

  00012	5d		 pop	 ebp
  00013	c2 08 00	 ret	 8
?get_DeviceEnabled@COPOSSoundPlayer@@UAGJPAF@Z ENDP	; COPOSSoundPlayer::get_DeviceEnabled
_TEXT	ENDS
; Function compile flags: /Ogsp
; File C:\Develop\OPOS-CCO\zSoundPlayer\SoundPlayerImpl.cpp
;	COMDAT ?get_Claimed@COPOSSoundPlayer@@UAGJPAF@Z
_TEXT	SEGMENT
_this$ = 8						; size = 4
_pClaimed$ = 12						; size = 4
?get_Claimed@COPOSSoundPlayer@@UAGJPAF@Z PROC		; COPOSSoundPlayer::get_Claimed, COMDAT

; 1444 : {

  00000	55		 push	 ebp
  00001	8b ec		 mov	 ebp, esp

; 1445 :     return GetOposProp( DEBUGPARAM("Claimed") PIDX_Claimed, pClaimed, 16 /*MinorVersion*/ );

  00003	8b 4d 08	 mov	 ecx, DWORD PTR _this$[ebp]
  00006	6a 10		 push	 16			; 00000010H
  00008	ff 75 0c	 push	 DWORD PTR _pClaimed$[ebp]
  0000b	6a 01		 push	 1
  0000d	e8 00 00 00 00	 call	 ?GetOposProp@COPOSSoundPlayer@@IAEJJPAFJ@Z ; COPOSSoundPlayer::GetOposProp

; 1446 : }

  00012	5d		 pop	 ebp
  00013	c2 08 00	 ret	 8
?get_Claimed@COPOSSoundPlayer@@UAGJPAF@Z ENDP		; COPOSSoundPlayer::get_Claimed
_TEXT	ENDS
; Function compile flags: /Ogsp
; File C:\Develop\OPOS-CCO\zSoundPlayer\SoundPlayerImpl.cpp
;	COMDAT ?get_CheckHealthText@COPOSSoundPlayer@@UAGJPAPA_W@Z
_TEXT	SEGMENT
_this$ = 8						; size = 4
_pCheckHealthText$ = 12					; size = 4
?get_CheckHealthText@COPOSSoundPlayer@@UAGJPAPA_W@Z PROC ; COPOSSoundPlayer::get_CheckHealthText, COMDAT

; 1437 : {

  00000	55		 push	 ebp
  00001	8b ec		 mov	 ebp, esp

; 1438 :     return GetOposProp( DEBUGPARAM("CheckHealthText") PIDX_CheckHealthText, pCheckHealthText, 16 /*MinorVersion*/ );

  00003	8b 4d 08	 mov	 ecx, DWORD PTR _this$[ebp]
  00006	6a 10		 push	 16			; 00000010H
  00008	ff 75 0c	 push	 DWORD PTR _pCheckHealthText$[ebp]
  0000b	68 41 42 0f 00	 push	 1000001			; 000f4241H
  00010	e8 00 00 00 00	 call	 ?GetOposProp@COPOSSoundPlayer@@IAEJJPAPA_WJ@Z ; COPOSSoundPlayer::GetOposProp

; 1439 : }

  00015	5d		 pop	 ebp
  00016	c2 08 00	 ret	 8
?get_CheckHealthText@COPOSSoundPlayer@@UAGJPAPA_W@Z ENDP ; COPOSSoundPlayer::get_CheckHealthText
_TEXT	ENDS
; Function compile flags: /Ogsp
; File C:\Develop\OPOS-CCO\zSoundPlayer\SoundPlayerImpl.cpp
;	COMDAT ?get_CapPowerReporting@COPOSSoundPlayer@@UAGJPAJ@Z
_TEXT	SEGMENT
_this$ = 8						; size = 4
_pCapPowerReporting$ = 12				; size = 4
?get_CapPowerReporting@COPOSSoundPlayer@@UAGJPAJ@Z PROC	; COPOSSoundPlayer::get_CapPowerReporting, COMDAT

; 1430 : {

  00000	55		 push	 ebp
