; Listing generated by Microsoft (R) Optimizing Compiler Version 19.28.29336.0 

include listing.inc

INCLUDELIB LIBCMTD
INCLUDELIB OLDNAMES

PUBLIC	?ObjectMain@CComObjectRootBase@ATL@@SAX_N@Z	; ATL::CComObjectRootBase::ObjectMain
PUBLIC	?GetCategoryMap@CComObjectRootBase@ATL@@SAPEBU_ATL_CATMAP_ENTRY@2@XZ ; ATL::CComObjectRootBase::GetCategoryMap
PUBLIC	?WM_ATLGETHOST@ATL@@3IA				; ATL::WM_ATLGETHOST
PUBLIC	?WM_ATLGETCONTROL@ATL@@3IA			; ATL::WM_ATLGETCONTROL
PUBLIC	IID_IOPOSIndividualRecognition_1_16
PUBLIC	LIBID_ATLLib
PUBLIC	IID_IOPOSIndividualRecognition
PUBLIC	LIBID_OposIndividualRecognition_CCO
PUBLIC	DIID__IOPOSIndividualRecognitionEvents
PUBLIC	CLSID_OPOSIndividualRecognition
PUBLIC	__pobjMapEntryFirst
PUBLIC	__pobjMapEntryLast
PUBLIC	?_pPerfRegFunc@ATL@@3P6AJPEAUHINSTANCE__@@@ZEA	; ATL::_pPerfRegFunc
PUBLIC	?_pPerfUnRegFunc@ATL@@3P6AJXZEA			; ATL::_pPerfUnRegFunc
PUBLIC	?_AtlRegisterPerUser@ATL@@3_NA			; ATL::_AtlRegisterPerUser
PUBLIC	?_pAtlModule@ATL@@3PEAVCAtlModule@1@EA		; ATL::_pAtlModule
PUBLIC	?GetObjectDescription@?$CComCoClass@VCOPOSIndividualRecognition@@$1?CLSID_OPOSIndividualRecognition@@3U_GUID@@B@ATL@@SAPEB_WXZ ; ATL::CComCoClass<COPOSIndividualRecognition,&CLSID_OPOSIndividualRecognition>::GetObjectDescription
PUBLIC	?_pModule@ATL@@3PEAVCComModule@1@EA		; ATL::_pModule
PUBLIC	?UpdateRegistry@COPOSIndividualRecognition@@SAJH@Z ; COPOSIndividualRecognition::UpdateRegistry
PUBLIC	?_pAtlAutoThreadModule@ATL@@3PEAUIAtlAutoThreadModule@1@EA ; ATL::_pAtlAutoThreadModule
PUBLIC	?CreateInstance@?$CComCreator@V?$CComObjectCached@VCComClassFactory@ATL@@@ATL@@@ATL@@SAJPEAXAEBU_GUID@@PEAPEAX@Z ; ATL::CComCreator<ATL::CComObjectCached<ATL::CComClassFactory> >::CreateInstance
PUBLIC	?CreateInstance@?$CComCreator2@V?$CComCreator@V?$CComObject@VCOPOSIndividualRecognition@@@ATL@@@ATL@@V?$CComCreator@V?$CComAggObject@VCOPOSIndividualRecognition@@@ATL@@@2@@ATL@@SAJPEAXAEBU_GUID@@PEAPEAX@Z ; ATL::CComCreator2<ATL::CComCreator<ATL::CComObject<COPOSIndividualRecognition> >,ATL::CComCreator<ATL::CComAggObject<COPOSIndividualRecognition> > >::CreateInstance
PUBLIC	?chDirSep@ATL@@3_WB				; ATL::chDirSep
PUBLIC	?chRightBracket@ATL@@3_WB			; ATL::chRightBracket
PUBLIC	?chLeftBracket@ATL@@3_WB			; ATL::chLeftBracket
PUBLIC	?chQuote@ATL@@3_WB				; ATL::chQuote
PUBLIC	?chEquals@ATL@@3_WB				; ATL::chEquals
PUBLIC	?szStringVal@ATL@@3QEB_WEB			; ATL::szStringVal
PUBLIC	?multiszStringVal@ATL@@3QEB_WEB			; ATL::multiszStringVal
PUBLIC	?szDwordVal@ATL@@3QEB_WEB			; ATL::szDwordVal
PUBLIC	?szBinaryVal@ATL@@3QEB_WEB			; ATL::szBinaryVal
PUBLIC	?szValToken@ATL@@3QEB_WEB			; ATL::szValToken
PUBLIC	?szForceRemove@ATL@@3QEB_WEB			; ATL::szForceRemove
PUBLIC	?szNoRemove@ATL@@3QEB_WEB			; ATL::szNoRemove
PUBLIC	?szDelete@ATL@@3QEB_WEB				; ATL::szDelete
PUBLIC	CLSID_Registrar
PUBLIC	IID_IRegistrar
PUBLIC	IID_IDocHostUIHandlerDispatch
PUBLIC	IID_IAxWinHostWindow
PUBLIC	IID_IAxWinHostWindowLic
PUBLIC	IID_IAxWinAmbientDispatch
PUBLIC	IID_IAxWinAmbientDispatchEx
PUBLIC	IID_IInternalConnection
;	COMDAT ?WM_ATLGETHOST@ATL@@3IA
_BSS	SEGMENT
?WM_ATLGETHOST@ATL@@3IA DD 01H DUP (?)			; ATL::WM_ATLGETHOST
_BSS	ENDS
;	COMDAT ?WM_ATLGETCONTROL@ATL@@3IA
_BSS	SEGMENT
?WM_ATLGETCONTROL@ATL@@3IA DD 01H DUP (?)		; ATL::WM_ATLGETCONTROL
_BSS	ENDS
;	COMDAT ?_pPerfRegFunc@ATL@@3P6AJPEAUHINSTANCE__@@@ZEA
_BSS	SEGMENT
?_pPerfRegFunc@ATL@@3P6AJPEAUHINSTANCE__@@@ZEA DQ 01H DUP (?) ; ATL::_pPerfRegFunc
_BSS	ENDS
;	COMDAT ?_pPerfUnRegFunc@ATL@@3P6AJXZEA
_BSS	SEGMENT
?_pPerfUnRegFunc@ATL@@3P6AJXZEA DQ 01H DUP (?)		; ATL::_pPerfUnRegFunc
_BSS	ENDS
;	COMDAT ?_AtlRegisterPerUser@ATL@@3_NA
_BSS	SEGMENT
?_AtlRegisterPerUser@ATL@@3_NA DB 01H DUP (?)		; ATL::_AtlRegisterPerUser
_BSS	ENDS
;	COMDAT ?_pAtlModule@ATL@@3PEAVCAtlModule@1@EA
_BSS	SEGMENT
?_pAtlModule@ATL@@3PEAVCAtlModule@1@EA DQ 01H DUP (?)	; ATL::_pAtlModule
_BSS	ENDS
;	COMDAT ?_pModule@ATL@@3PEAVCComModule@1@EA
_BSS	SEGMENT
?_pModule@ATL@@3PEAVCComModule@1@EA DQ 01H DUP (?)	; ATL::_pModule
_BSS	ENDS
;	COMDAT ?_pAtlAutoThreadModule@ATL@@3PEAUIAtlAutoThreadModule@1@EA
_BSS	SEGMENT
?_pAtlAutoThreadModule@ATL@@3PEAUIAtlAutoThreadModule@1@EA DQ 01H DUP (?) ; ATL::_pAtlAutoThreadModule
_BSS	ENDS
;	COMDAT IID_IInternalConnection
CONST	SEGMENT
IID_IInternalConnection DD 072ad0770H
	DW	06a9fH
	DW	011d1H
	DB	0bcH
	DB	0ecH
	DB	00H
	DB	060H
	DB	08H
	DB	08fH
	DB	044H
	DB	04eH
CONST	ENDS
;	COMDAT IID_IAxWinAmbientDispatchEx
CONST	SEGMENT
IID_IAxWinAmbientDispatchEx DD 0b2d0778bH
	DW	0ac99H
	DW	04c58H
	DB	0a5H
	DB	0c8H
	DB	0e7H
	DB	072H
	DB	04eH
	DB	053H
	DB	016H
	DB	0b5H
CONST	ENDS
;	COMDAT IID_IAxWinAmbientDispatch
CONST	SEGMENT
IID_IAxWinAmbientDispatch DD 0b6ea2051H
	DW	048aH
	DW	011d1H
	DB	082H
	DB	0b9H
	DB	00H
	DB	0c0H
	DB	04fH
	DB	0b9H
	DB	094H
	DB	02eH
CONST	ENDS
;	COMDAT IID_IAxWinHostWindowLic
CONST	SEGMENT
IID_IAxWinHostWindowLic DD 03935bda8H
	DW	04ed9H
	DW	0495cH
	DB	086H
	DB	050H
	DB	0e0H
	DB	01fH
	DB	0c1H
	DB	0e3H
	DB	08aH
	DB	04bH
CONST	ENDS
;	COMDAT IID_IAxWinHostWindow
CONST	SEGMENT
IID_IAxWinHostWindow DD 0b6ea2050H
	DW	048aH
	DW	011d1H
	DB	082H
	DB	0b9H
	DB	00H
	DB	0c0H
	DB	04fH
	DB	0b9H
	DB	094H
	DB	02eH
CONST	ENDS
;	COMDAT IID_IDocHostUIHandlerDispatch
CONST	SEGMENT
IID_IDocHostUIHandlerDispatch DD 0425b5af0H
	DW	065f1H
	DW	011d1H
	DB	096H
	DB	011H
	DB	00H
	DB	00H
	DB	0f8H
	DB	01eH
	DB	0dH
	DB	0dH
CONST	ENDS
;	COMDAT IID_IRegistrar
CONST	SEGMENT
IID_IRegistrar DD 044ec053bH
	DW	0400fH
	DW	011d0H
	DB	09dH
	DB	0cdH
	DB	00H
	DB	0a0H
	DB	0c9H
	DB	03H
	DB	091H
	DB	0d3H
CONST	ENDS
;	COMDAT CLSID_Registrar
CONST	SEGMENT
CLSID_Registrar DD 044ec053aH
	DW	0400fH
	DW	011d0H
	DB	09dH
	DB	0cdH
	DB	00H
	DB	0a0H
	DB	0c9H
	DB	03H
	DB	091H
	DB	0d3H
CONST	ENDS
;	COMDAT ?szDelete@ATL@@3QEB_WEB
CONST	SEGMENT
?szDelete@ATL@@3QEB_WEB DQ FLAT:$SG110909		; ATL::szDelete
CONST	ENDS
;	COMDAT ?szNoRemove@ATL@@3QEB_WEB
CONST	SEGMENT
?szNoRemove@ATL@@3QEB_WEB DQ FLAT:$SG110907		; ATL::szNoRemove
CONST	ENDS
;	COMDAT ?szForceRemove@ATL@@3QEB_WEB
CONST	SEGMENT
?szForceRemove@ATL@@3QEB_WEB DQ FLAT:$SG110905		; ATL::szForceRemove
CONST	ENDS
;	COMDAT ?szValToken@ATL@@3QEB_WEB
CONST	SEGMENT
?szValToken@ATL@@3QEB_WEB DQ FLAT:$SG110903		; ATL::szValToken
CONST	ENDS
;	COMDAT ?szBinaryVal@ATL@@3QEB_WEB
CONST	SEGMENT
?szBinaryVal@ATL@@3QEB_WEB DQ FLAT:$SG110901		; ATL::szBinaryVal
CONST	ENDS
;	COMDAT ?szDwordVal@ATL@@3QEB_WEB
CONST	SEGMENT
?szDwordVal@ATL@@3QEB_WEB DQ FLAT:$SG110899		; ATL::szDwordVal
CONST	ENDS
;	COMDAT ?multiszStringVal@ATL@@3QEB_WEB
CONST	SEGMENT
?multiszStringVal@ATL@@3QEB_WEB DQ FLAT:$SG110897	; ATL::multiszStringVal
CONST	ENDS
;	COMDAT ?szStringVal@ATL@@3QEB_WEB
CONST	SEGMENT
?szStringVal@ATL@@3QEB_WEB DQ FLAT:$SG110895		; ATL::szStringVal
CONST	ENDS
;	COMDAT ?chEquals@ATL@@3_WB
CONST	SEGMENT
?chEquals@ATL@@3_WB DW 03dH				; ATL::chEquals
CONST	ENDS
;	COMDAT ?chQuote@ATL@@3_WB
CONST	SEGMENT
?chQuote@ATL@@3_WB DW 027H				; ATL::chQuote
CONST	ENDS
;	COMDAT ?chLeftBracket@ATL@@3_WB
CONST	SEGMENT
?chLeftBracket@ATL@@3_WB DW 07bH			; ATL::chLeftBracket
CONST	ENDS
;	COMDAT ?chRightBracket@ATL@@3_WB
CONST	SEGMENT
?chRightBracket@ATL@@3_WB DW 07dH			; ATL::chRightBracket
CONST	ENDS
;	COMDAT ?chDirSep@ATL@@3_WB
CONST	SEGMENT
?chDirSep@ATL@@3_WB DW 05cH				; ATL::chDirSep
CONST	ENDS
;	COMDAT __pobjMapEntryLast
ATL$__z	SEGMENT
__pobjMapEntryLast DQ 0000000000000000H
ATL$__z	ENDS
;	COMDAT __pobjMapEntryFirst
ATL$__a	SEGMENT
__pobjMapEntryFirst DQ 0000000000000000H
ATL$__a	ENDS
;	COMDAT CLSID_OPOSIndividualRecognition
CONST	SEGMENT
CLSID_OPOSIndividualRecognition DD 0ccb90412H
	DW	0b81eH
	DW	011d2H
	DB	0abH
	DB	074H
	DB	00H
	DB	040H
	DB	05H
	DB	04cH
	DB	037H
	DB	019H
CONST	ENDS
;	COMDAT DIID__IOPOSIndividualRecognitionEvents
CONST	SEGMENT
DIID__IOPOSIndividualRecognitionEvents DD 0ccb90413H
	DW	0b81eH
	DW	011d2H
	DB	0abH
	DB	074H
	DB	00H
	DB	040H
	DB	05H
	DB	04cH
	DB	037H
	DB	019H
CONST	ENDS
;	COMDAT LIBID_OposIndividualRecognition_CCO
CONST	SEGMENT
LIBID_OposIndividualRecognition_CCO DD 0ccb90410H
	DW	0b81eH
	DW	011d2H
	DB	0abH
	DB	074H
	DB	00H
	DB	040H
	DB	05H
	DB	04cH
	DB	037H
	DB	019H
CONST	ENDS
;	COMDAT IID_IOPOSIndividualRecognition
CONST	SEGMENT
IID_IOPOSIndividualRecognition DD 0ccb91411H
	DW	0b81eH
	DW	011d2H
	DB	0abH
	DB	074H
	DB	00H
	DB	040H
	DB	05H
	DB	04cH
	DB	037H
	DB	019H
CONST	ENDS
;	COMDAT LIBID_ATLLib
CONST	SEGMENT
LIBID_ATLLib DD	044ec0535H
	DW	0400fH
	DW	011d0H
	DB	09dH
	DB	0cdH
	DB	00H
	DB	0a0H
	DB	0c9H
	DB	03H
	DB	091H
	DB	0d3H
CONST	ENDS
;	COMDAT IID_IOPOSIndividualRecognition_1_16
CONST	SEGMENT
IID_IOPOSIndividualRecognition_1_16 DD 0ccb90411H
	DW	0b81eH
	DW	011d2H
	DB	0abH
	DB	074H
	DB	00H
	DB	040H
	DB	05H
	DB	04cH
	DB	037H
	DB	019H
CONST	ENDS
CONST	SEGMENT
$SG196610 DB	'm', 00H, '_', 00H, 'b', 00H, 'e', 00H, 'g', 00H, 'i', 00H
	DB	'n', 00H, ' ', 00H, '=', 00H, '=', 00H, ' ', 00H, '0', 00H, 00H
	DB	00H
	ORG $+6
$SG196611 DB	'%', 00H, 'l', 00H, 's', 00H, 00H, 00H
$SG196641 DB	'h', 00H, 'D', 00H, 'a', 00H, 't', 00H, 'a', 00H, ' ', 00H
	DB	'!', 00H, '=', 00H, ' ', 00H, '0', 00H, 00H, 00H
	ORG $+2
$SG196612 DB	'C', 00H, ':', 00H, '\', 00H, 'D', 00H, 'e', 00H, 'v', 00H
	DB	'e', 00H, 'l', 00H, 'o', 00H, 'p', 00H, '\', 00H, 'O', 00H, 'P'
	DB	00H, 'O', 00H, 'S', 00H, '-', 00H, 'C', 00H, 'C', 00H, 'O', 00H
	DB	'\', 00H, 'C', 00H, 'o', 00H, 'm', 00H, 'm', 00H, 'o', 00H, 'n'
	DB	00H, '\', 00H, 'A', 00H, 'T', 00H, 'L', 00H, '\', 00H, 'a', 00H
	DB	't', 00H, 'l', 00H, 'c', 00H, 'o', 00H, 'm', 00H, '.', 00H, 'h'
	DB	00H, 00H, 00H
$SG196642 DB	'%', 00H, 'l', 00H, 's', 00H, 00H, 00H
$SG196677 DB	'h', 00H, 'D', 00H, 'a', 00H, 't', 00H, 'a', 00H, ' ', 00H
	DB	'!', 00H, '=', 00H, ' ', 00H, '0', 00H, 00H, 00H
	ORG $+2
$SG196643 DB	'C', 00H, ':', 00H, '\', 00H, 'P', 00H, 'r', 00H, 'o', 00H
	DB	'g', 00H, 'r', 00H, 'a', 00H, 'm', 00H, ' ', 00H, 'F', 00H, 'i'
	DB	00H, 'l', 00H, 'e', 00H, 's', 00H, ' ', 00H, '(', 00H, 'x', 00H
	DB	'8', 00H, '6', 00H, ')', 00H, '\', 00H, 'M', 00H, 'i', 00H, 'c'
	DB	00H, 'r', 00H, 'o', 00H, 's', 00H, 'o', 00H, 'f', 00H, 't', 00H
	DB	' ', 00H, 'V', 00H, 'i', 00H, 's', 00H, 'u', 00H, 'a', 00H, 'l'
	DB	00H, ' ', 00H, 'S', 00H, 't', 00H, 'u', 00H, 'd', 00H, 'i', 00H
	DB	'o', 00H, '\', 00H, '2', 00H, '0', 00H, '1', 00H, '9', 00H, '\'
	DB	00H, 'C', 00H, 'o', 00H, 'm', 00H, 'm', 00H, 'u', 00H, 'n', 00H
	DB	'i', 00H, 't', 00H, 'y', 00H, '\', 00H, 'V', 00H, 'C', 00H, '\'
	DB	00H, 'T', 00H, 'o', 00H, 'o', 00H, 'l', 00H, 's', 00H, '\', 00H
	DB	'M', 00H, 'S', 00H, 'V', 00H, 'C', 00H, '\', 00H, '1', 00H, '4'
	DB	00H, '.', 00H, '2', 00H, '8', 00H, '.', 00H, '2', 00H, '9', 00H
	DB	'3', 00H, '3', 00H, '3', 00H, '\', 00H, 'a', 00H, 't', 00H, 'l'
	DB	00H, 'm', 00H, 'f', 00H, 'c', 00H, '\', 00H, 'i', 00H, 'n', 00H
	DB	'c', 00H, 'l', 00H, 'u', 00H, 'd', 00H, 'e', 00H, '\', 00H, 'a'
	DB	00H, 't', 00H, 'l', 00H, 'h', 00H, 'o', 00H, 's', 00H, 't', 00H
	DB	'.', 00H, 'h', 00H, 00H, 00H
	ORG $+2
$SG181918 DB	':', 00H, 00H, 00H
$SG196678 DB	'%', 00H, 'l', 00H, 's', 00H, 00H, 00H
$SG196679 DB	'C', 00H, ':', 00H, '\', 00H, 'P', 00H, 'r', 00H, 'o', 00H
	DB	'g', 00H, 'r', 00H, 'a', 00H, 'm', 00H, ' ', 00H, 'F', 00H, 'i'
	DB	00H, 'l', 00H, 'e', 00H, 's', 00H, ' ', 00H, '(', 00H, 'x', 00H
	DB	'8', 00H, '6', 00H, ')', 00H, '\', 00H, 'M', 00H, 'i', 00H, 'c'
	DB	00H, 'r', 00H, 'o', 00H, 's', 00H, 'o', 00H, 'f', 00H, 't', 00H
	DB	' ', 00H, 'V', 00H, 'i', 00H, 's', 00H, 'u', 00H, 'a', 00H, 'l'
	DB	00H, ' ', 00H, 'S', 00H, 't', 00H, 'u', 00H, 'd', 00H, 'i', 00H
	DB	'o', 00H, '\', 00H, '2', 00H, '0', 00H, '1', 00H, '9', 00H, '\'
	DB	00H, 'C', 00H, 'o', 00H, 'm', 00H, 'm', 00H, 'u', 00H, 'n', 00H
	DB	'i', 00H, 't', 00H, 'y', 00H, '\', 00H, 'V', 00H, 'C', 00H, '\'
	DB	00H, 'T', 00H, 'o', 00H, 'o', 00H, 'l', 00H, 's', 00H, '\', 00H
	DB	'M', 00H, 'S', 00H, 'V', 00H, 'C', 00H, '\', 00H, '1', 00H, '4'
	DB	00H, '.', 00H, '2', 00H, '8', 00H, '.', 00H, '2', 00H, '9', 00H
	DB	'3', 00H, '3', 00H, '3', 00H, '\', 00H, 'a', 00H, 't', 00H, 'l'
	DB	00H, 'm', 00H, 'f', 00H, 'c', 00H, '\', 00H, 'i', 00H, 'n', 00H
	DB	'c', 00H, 'l', 00H, 'u', 00H, 'd', 00H, 'e', 00H, '\', 00H, 'a'
	DB	00H, 't', 00H, 'l', 00H, 'h', 00H, 'o', 00H, 's', 00H, 't', 00H
	DB	'.', 00H, 'h', 00H, 00H, 00H
	ORG $+2
$SG110895 DB	'S', 00H, 00H, 00H
$SG196713 DB	'h', 00H, 'D', 00H, 'a', 00H, 't', 00H, 'a', 00H, ' ', 00H
	DB	'!', 00H, '=', 00H, ' ', 00H, '0', 00H, 00H, 00H
	ORG $+2
$SG196714 DB	'%', 00H, 'l', 00H, 's', 00H, 00H, 00H
$SG196749 DB	'h', 00H, 'D', 00H, 'a', 00H, 't', 00H, 'a', 00H, ' ', 00H
	DB	'!', 00H, '=', 00H, ' ', 00H, '0', 00H, 00H, 00H
	ORG $+2
$SG196715 DB	'C', 00H, ':', 00H, '\', 00H, 'P', 00H, 'r', 00H, 'o', 00H
	DB	'g', 00H, 'r', 00H, 'a', 00H, 'm', 00H, ' ', 00H, 'F', 00H, 'i'
	DB	00H, 'l', 00H, 'e', 00H, 's', 00H, ' ', 00H, '(', 00H, 'x', 00H
	DB	'8', 00H, '6', 00H, ')', 00H, '\', 00H, 'M', 00H, 'i', 00H, 'c'
	DB	00H, 'r', 00H, 'o', 00H, 's', 00H, 'o', 00H, 'f', 00H, 't', 00H
	DB	' ', 00H, 'V', 00H, 'i', 00H, 's', 00H, 'u', 00H, 'a', 00H, 'l'
	DB	00H, ' ', 00H, 'S', 00H, 't', 00H, 'u', 00H, 'd', 00H, 'i', 00H
	DB	'o', 00H, '\', 00H, '2', 00H, '0', 00H, '1', 00H, '9', 00H, '\'
	DB	00H, 'C', 00H, 'o', 00H, 'm', 00H, 'm', 00H, 'u', 00H, 'n', 00H
	DB	'i', 00H, 't', 00H, 'y', 00H, '\', 00H, 'V', 00H, 'C', 00H, '\'
	DB	00H, 'T', 00H, 'o', 00H, 'o', 00H, 'l', 00H, 's', 00H, '\', 00H
	DB	'M', 00H, 'S', 00H, 'V', 00H, 'C', 00H, '\', 00H, '1', 00H, '4'
	DB	00H, '.', 00H, '2', 00H, '8', 00H, '.', 00H, '2', 00H, '9', 00H
	DB	'3', 00H, '3', 00H, '3', 00H, '\', 00H, 'a', 00H, 't', 00H, 'l'
	DB	00H, 'm', 00H, 'f', 00H, 'c', 00H, '\', 00H, 'i', 00H, 'n', 00H
	DB	'c', 00H, 'l', 00H, 'u', 00H, 'd', 00H, 'e', 00H, '\', 00H, 'a'
	DB	00H, 't', 00H, 'l', 00H, 'h', 00H, 'o', 00H, 's', 00H, 't', 00H
	DB	'.', 00H, 'h', 00H, 00H, 00H
	ORG $+2
$SG110897 DB	'M', 00H, 00H, 00H
$SG196750 DB	'%', 00H, 'l', 00H, 's', 00H, 00H, 00H
$SG196751 DB	'C', 00H, ':', 00H, '\', 00H, 'P', 00H, 'r', 00H, 'o', 00H
	DB	'g', 00H, 'r', 00H, 'a', 00H, 'm', 00H, ' ', 00H, 'F', 00H, 'i'
	DB	00H, 'l', 00H, 'e', 00H, 's', 00H, ' ', 00H, '(', 00H, 'x', 00H
	DB	'8', 00H, '6', 00H, ')', 00H, '\', 00H, 'M', 00H, 'i', 00H, 'c'
	DB	00H, 'r', 00H, 'o', 00H, 's', 00H, 'o', 00H, 'f', 00H, 't', 00H
	DB	' ', 00H, 'V', 00H, 'i', 00H, 's', 00H, 'u', 00H, 'a', 00H, 'l'
	DB	00H, ' ', 00H, 'S', 00H, 't', 00H, 'u', 00H, 'd', 00H, 'i', 00H
	DB	'o', 00H, '\', 00H, '2', 00H, '0', 00H, '1', 00H, '9', 00H, '\'
	DB	00H, 'C', 00H, 'o', 00H, 'm', 00H, 'm', 00H, 'u', 00H, 'n', 00H
	DB	'i', 00H, 't', 00H, 'y', 00H, '\', 00H, 'V', 00H, 'C', 00H, '\'
	DB	00H, 'T', 00H, 'o', 00H, 'o', 00H, 'l', 00H, 's', 00H, '\', 00H
	DB	'M', 00H, 'S', 00H, 'V', 00H, 'C', 00H, '\', 00H, '1', 00H, '4'
	DB	00H, '.', 00H, '2', 00H, '8', 00H, '.', 00H, '2', 00H, '9', 00H
	DB	'3', 00H, '3', 00H, '3', 00H, '\', 00H, 'a', 00H, 't', 00H, 'l'
	DB	00H, 'm', 00H, 'f', 00H, 'c', 00H, '\', 00H, 'i', 00H, 'n', 00H
	DB	'c', 00H, 'l', 00H, 'u', 00H, 'd', 00H, 'e', 00H, '\', 00H, 'a'
	DB	00H, 't', 00H, 'l', 00H, 'h', 00H, 'o', 00H, 's', 00H, 't', 00H
	DB	'.', 00H, 'h', 00H, 00H, 00H
	ORG $+2
$SG110899 DB	'D', 00H, 00H, 00H
$SG197314 DB	'm', 00H, '_', 00H, 'b', 00H, 'e', 00H, 'g', 00H, 'i', 00H
	DB	'n', 00H, ' ', 00H, '=', 00H, '=', 00H, ' ', 00H, '0', 00H, 00H
	DB	00H
	ORG $+2
$SG110901 DB	'B', 00H, 00H, 00H
$SG197315 DB	'%', 00H, 'l', 00H, 's', 00H, 00H, 00H
$SG197316 DB	'C', 00H, ':', 00H, '\', 00H, 'D', 00H, 'e', 00H, 'v', 00H
	DB	'e', 00H, 'l', 00H, 'o', 00H, 'p', 00H, '\', 00H, 'O', 00H, 'P'
	DB	00H, 'O', 00H, 'S', 00H, '-', 00H, 'C', 00H, 'C', 00H, 'O', 00H
	DB	'\', 00H, 'C', 00H, 'o', 00H, 'm', 00H, 'm', 00H, 'o', 00H, 'n'
	DB	00H, '\', 00H, 'A', 00H, 'T', 00H, 'L', 00H, '\', 00H, 'a', 00H
	DB	't', 00H, 'l', 00H, 'c', 00H, 'o', 00H, 'm', 00H, '.', 00H, 'h'
	DB	00H, 00H, 00H
$SG197517 DB	'p', 00H, 'p', 00H, ' ', 00H, '!', 00H, '=', 00H, ' ', 00H
	DB	'0', 00H, 00H, 00H
$SG197518 DB	'%', 00H, 'l', 00H, 's', 00H, 00H, 00H
$SG197545 DB	'%', 00H, 'l', 00H, 's', 00H, 00H, 00H
$SG197519 DB	'C', 00H, ':', 00H, '\', 00H, 'D', 00H, 'e', 00H, 'v', 00H
	DB	'e', 00H, 'l', 00H, 'o', 00H, 'p', 00H, '\', 00H, 'O', 00H, 'P'
	DB	00H, 'O', 00H, 'S', 00H, '-', 00H, 'C', 00H, 'C', 00H, 'O', 00H
	DB	'\', 00H, 'C', 00H, 'o', 00H, 'm', 00H, 'm', 00H, 'o', 00H, 'n'
	DB	00H, '\', 00H, 'A', 00H, 'T', 00H, 'L', 00H, '\', 00H, 'a', 00H
	DB	't', 00H, 'l', 00H, 'c', 00H, 'o', 00H, 'm', 00H, '.', 00H, 'h'
	DB	00H, 00H, 00H
$SG197544 DB	'p', 00H, 'p', 00H, ' ', 00H, '!', 00H, '=', 00H, ' ', 00H
	DB	'0', 00H, 00H, 00H
$SG197546 DB	'C', 00H, ':', 00H, '\', 00H, 'D', 00H, 'e', 00H, 'v', 00H
	DB	'e', 00H, 'l', 00H, 'o', 00H, 'p', 00H, '\', 00H, 'O', 00H, 'P'
	DB	00H, 'O', 00H, 'S', 00H, '-', 00H, 'C', 00H, 'C', 00H, 'O', 00H
	DB	'\', 00H, 'C', 00H, 'o', 00H, 'm', 00H, 'm', 00H, 'o', 00H, 'n'
	DB	00H, '\', 00H, 'A', 00H, 'T', 00H, 'L', 00H, '\', 00H, 'a', 00H
	DB	't', 00H, 'l', 00H, 'c', 00H, 'o', 00H, 'm', 00H, '.', 00H, 'h'
	DB	00H, 00H, 00H
$SG197695 DB	'm', 00H, '_', 00H, 'b', 00H, 'e', 00H, 'g', 00H, 'i', 00H
	DB	'n', 00H, ' ', 00H, '=', 00H, '=', 00H, ' ', 00H, '0', 00H, 00H
	DB	00H
	ORG $+2
$SG186218 DB	00H, 00H
	ORG $+2
$SG197696 DB	'%', 00H, 'l', 00H, 's', 00H, 00H, 00H
$SG197720 DB	'%', 00H, 'l', 00H, 's', 00H, 00H, 00H
$SG197697 DB	'C', 00H, ':', 00H, '\', 00H, 'D', 00H, 'e', 00H, 'v', 00H
	DB	'e', 00H, 'l', 00H, 'o', 00H, 'p', 00H, '\', 00H, 'O', 00H, 'P'
	DB	00H, 'O', 00H, 'S', 00H, '-', 00H, 'C', 00H, 'C', 00H, 'O', 00H
	DB	'\', 00H, 'C', 00H, 'o', 00H, 'm', 00H, 'm', 00H, 'o', 00H, 'n'
	DB	00H, '\', 00H, 'A', 00H, 'T', 00H, 'L', 00H, '\', 00H, 'a', 00H
	DB	't', 00H, 'l', 00H, 'c', 00H, 'o', 00H, 'm', 00H, '.', 00H, 'h'
	DB	00H, 00H, 00H
$SG197719 DB	'p', 00H, 'p', 00H, ' ', 00H, '!', 00H, '=', 00H, ' ', 00H
	DB	'0', 00H, 00H, 00H
$SG197721 DB	'C', 00H, ':', 00H, '\', 00H, 'D', 00H, 'e', 00H, 'v', 00H
	DB	'e', 00H, 'l', 00H, 'o', 00H, 'p', 00H, '\', 00H, 'O', 00H, 'P'
	DB	00H, 'O', 00H, 'S', 00H, '-', 00H, 'C', 00H, 'C', 00H, 'O', 00H
	DB	'\', 00H, 'C', 00H, 'o', 00H, 'm', 00H, 'm', 00H, 'o', 00H, 'n'
	DB	00H, '\', 00H, 'A', 00H, 'T', 00H, 'L', 00H, '\', 00H, 'a', 00H
	DB	't', 00H, 'l', 00H, 'c', 00H, 'o', 00H, 'm', 00H, '.', 00H, 'h'
	DB	00H, 00H, 00H
$SG181901 DB	'p', 00H, 'p', 00H, 'v', 00H, 'O', 00H, 'b', 00H, 'j', 00H
	DB	00H, 00H
	ORG $+2
$SG181902 DB	'%', 00H, 'l', 00H, 's', 00H, 00H, 00H
$SG93252 DB	'a', 00H, 't', 00H, 'l', 00H, 'T', 00H, 'r', 00H, 'a', 00H
	DB	'c', 00H, 'e', 00H, 'C', 00H, 'O', 00H, 'M', 00H, 00H, 00H
$SG181903 DB	'C', 00H, ':', 00H, '\', 00H, 'P', 00H, 'r', 00H, 'o', 00H
	DB	'g', 00H, 'r', 00H, 'a', 00H, 'm', 00H, ' ', 00H, 'F', 00H, 'i'
	DB	00H, 'l', 00H, 'e', 00H, 's', 00H, ' ', 00H, '(', 00H, 'x', 00H
	DB	'8', 00H, '6', 00H, ')', 00H, '\', 00H, 'M', 00H, 'i', 00H, 'c'
	DB	00H, 'r', 00H, 'o', 00H, 's', 00H, 'o', 00H, 'f', 00H, 't', 00H
	DB	' ', 00H, 'V', 00H, 'i', 00H, 's', 00H, 'u', 00H, 'a', 00H, 'l'
	DB	00H, ' ', 00H, 'S', 00H, 't', 00H, 'u', 00H, 'd', 00H, 'i', 00H
	DB	'o', 00H, '\', 00H, '2', 00H, '0', 00H, '1', 00H, '9', 00H, '\'
	DB	00H, 'C', 00H, 'o', 00H, 'm', 00H, 'm', 00H, 'u', 00H, 'n', 00H
	DB	'i', 00H, 't', 00H, 'y', 00H, '\', 00H, 'V', 00H, 'C', 00H, '\'
	DB	00H, 'T', 00H, 'o', 00H, 'o', 00H, 'l', 00H, 's', 00H, '\', 00H
	DB	'M', 00H, 'S', 00H, 'V', 00H, 'C', 00H, '\', 00H, '1', 00H, '4'
	DB	00H, '.', 00H, '2', 00H, '8', 00H, '.', 00H, '2', 00H, '9', 00H
	DB	'3', 00H, '3', 00H, '3', 00H, '\', 00H, 'a', 00H, 't', 00H, 'l'
	DB	00H, 'm', 00H, 'f', 00H, 'c', 00H, '\', 00H, 'i', 00H, 'n', 00H
	DB	'c', 00H, 'l', 00H, 'u', 00H, 'd', 00H, 'e', 00H, '\', 00H, 'a'
	DB	00H, 't', 00H, 'l', 00H, 'h', 00H, 'o', 00H, 's', 00H, 't', 00H
	DB	'.', 00H, 'h', 00H, 00H, 00H
	ORG $+2
$SG186312 DB	00H, 00H
	ORG $+2
$SG93179 DB	'a', 00H, 't', 00H, 'l', 00H, 'T', 00H, 'r', 00H, 'a', 00H
	DB	'c', 00H, 'e', 00H, 'G', 00H, 'e', 00H, 'n', 00H, 'e', 00H, 'r'
	DB	00H, 'a', 00H, 'l', 00H, 00H, 00H
$SG93301 DB	'a', 00H, 't', 00H, 'l', 00H, 'T', 00H, 'r', 00H, 'a', 00H
	DB	'c', 00H, 'e', 00H, 'Q', 00H, 'I', 00H, 00H, 00H
	ORG $+2
$SG93350 DB	'a', 00H, 't', 00H, 'l', 00H, 'T', 00H, 'r', 00H, 'a', 00H
	DB	'c', 00H, 'e', 00H, 'R', 00H, 'e', 00H, 'g', 00H, 'i', 00H, 's'
	DB	00H, 't', 00H, 'r', 00H, 'a', 00H, 'r', 00H, 00H, 00H
	ORG $+4
$SG93399 DB	'a', 00H, 't', 00H, 'l', 00H, 'T', 00H, 'r', 00H, 'a', 00H
	DB	'c', 00H, 'e', 00H, 'R', 00H, 'e', 00H, 'f', 00H, 'c', 00H, 'o'
	DB	00H, 'u', 00H, 'n', 00H, 't', 00H, 00H, 00H
	ORG $+6
$SG93448 DB	'a', 00H, 't', 00H, 'l', 00H, 'T', 00H, 'r', 00H, 'a', 00H
	DB	'c', 00H, 'e', 00H, 'W', 00H, 'i', 00H, 'n', 00H, 'd', 00H, 'o'
	DB	00H, 'w', 00H, 'i', 00H, 'n', 00H, 'g', 00H, 00H, 00H
	ORG $+4
$SG93497 DB	'a', 00H, 't', 00H, 'l', 00H, 'T', 00H, 'r', 00H, 'a', 00H
	DB	'c', 00H, 'e', 00H, 'C', 00H, 'o', 00H, 'n', 00H, 't', 00H, 'r'
	DB	00H, 'o', 00H, 'l', 00H, 's', 00H, 00H, 00H
	ORG $+6
$SG93546 DB	'a', 00H, 't', 00H, 'l', 00H, 'T', 00H, 'r', 00H, 'a', 00H
	DB	'c', 00H, 'e', 00H, 'H', 00H, 'o', 00H, 's', 00H, 't', 00H, 'i'
	DB	00H, 'n', 00H, 'g', 00H, 00H, 00H
$SG93595 DB	'a', 00H, 't', 00H, 'l', 00H, 'T', 00H, 'r', 00H, 'a', 00H
	DB	'c', 00H, 'e', 00H, 'D', 00H, 'B', 00H, 'C', 00H, 'l', 00H, 'i'
	DB	00H, 'e', 00H, 'n', 00H, 't', 00H, 00H, 00H
	ORG $+6
$SG93644 DB	'a', 00H, 't', 00H, 'l', 00H, 'T', 00H, 'r', 00H, 'a', 00H
	DB	'c', 00H, 'e', 00H, 'D', 00H, 'B', 00H, 'P', 00H, 'r', 00H, 'o'
	DB	00H, 'v', 00H, 'i', 00H, 'd', 00H, 'e', 00H, 'r', 00H, 00H, 00H
	ORG $+2
$SG93693 DB	'a', 00H, 't', 00H, 'l', 00H, 'T', 00H, 'r', 00H, 'a', 00H
	DB	'c', 00H, 'e', 00H, 'S', 00H, 'n', 00H, 'a', 00H, 'p', 00H, 'i'
	DB	00H, 'n', 00H, 00H, 00H
	ORG $+2
$SG93742 DB	'a', 00H, 't', 00H, 'l', 00H, 'T', 00H, 'r', 00H, 'a', 00H
	DB	'c', 00H, 'e', 00H, 'N', 00H, 'o', 00H, 't', 00H, 'I', 00H, 'm'
	DB	00H, 'p', 00H, 'l', 00H, 00H, 00H
$SG93791 DB	'a', 00H, 't', 00H, 'l', 00H, 'T', 00H, 'r', 00H, 'a', 00H
	DB	'c', 00H, 'e', 00H, 'A', 00H, 'l', 00H, 'l', 00H, 'o', 00H, 'c'
	DB	00H, 'a', 00H, 't', 00H, 'i', 00H, 'o', 00H, 'n', 00H, 00H, 00H
	ORG $+2
$SG93840 DB	'a', 00H, 't', 00H, 'l', 00H, 'T', 00H, 'r', 00H, 'a', 00H
	DB	'c', 00H, 'e', 00H, 'E', 00H, 'x', 00H, 'c', 00H, 'e', 00H, 'p'
	DB	00H, 't', 00H, 'i', 00H, 'o', 00H, 'n', 00H, 00H, 00H
	ORG $+4
$SG93889 DB	'a', 00H, 't', 00H, 'l', 00H, 'T', 00H, 'r', 00H, 'a', 00H
	DB	'c', 00H, 'e', 00H, 'T', 00H, 'i', 00H, 'm', 00H, 'e', 00H, 00H
	DB	00H
	ORG $+6
$SG93938 DB	'a', 00H, 't', 00H, 'l', 00H, 'T', 00H, 'r', 00H, 'a', 00H
	DB	'c', 00H, 'e', 00H, 'C', 00H, 'a', 00H, 'c', 00H, 'h', 00H, 'e'
	DB	00H, 00H, 00H
	ORG $+4
$SG93987 DB	'a', 00H, 't', 00H, 'l', 00H, 'T', 00H, 'r', 00H, 'a', 00H
	DB	'c', 00H, 'e', 00H, 'S', 00H, 't', 00H, 'e', 00H, 'n', 00H, 'c'
	DB	00H, 'i', 00H, 'l', 00H, 00H, 00H
$SG94036 DB	'a', 00H, 't', 00H, 'l', 00H, 'T', 00H, 'r', 00H, 'a', 00H
	DB	'c', 00H, 'e', 00H, 'S', 00H, 't', 00H, 'r', 00H, 'i', 00H, 'n'
	DB	00H, 'g', 00H, 00H, 00H
	ORG $+2
$SG94085 DB	'a', 00H, 't', 00H, 'l', 00H, 'T', 00H, 'r', 00H, 'a', 00H
	DB	'c', 00H, 'e', 00H, 'M', 00H, 'a', 00H, 'p', 00H, 00H, 00H
$SG94090 DB	'a', 00H, 't', 00H, 'l', 00H, 'T', 00H, 'r', 00H, 'a', 00H
	DB	'c', 00H, 'e', 00H, 'U', 00H, 't', 00H, 'i', 00H, 'l', 00H, 00H
	DB	00H
	ORG $+6
$SG94139 DB	'a', 00H, 't', 00H, 'l', 00H, 'T', 00H, 'r', 00H, 'a', 00H
	DB	'c', 00H, 'e', 00H, 'S', 00H, 'e', 00H, 'c', 00H, 'u', 00H, 'r'
	DB	00H, 'i', 00H, 't', 00H, 'y', 00H, 00H, 00H
	ORG $+6
$SG94188 DB	'a', 00H, 't', 00H, 'l', 00H, 'T', 00H, 'r', 00H, 'a', 00H
	DB	'c', 00H, 'e', 00H, 'S', 00H, 'y', 00H, 'n', 00H, 'c', 00H, 00H
	DB	00H
	ORG $+6
$SG94237 DB	'a', 00H, 't', 00H, 'l', 00H, 'T', 00H, 'r', 00H, 'a', 00H
	DB	'c', 00H, 'e', 00H, 'I', 00H, 'S', 00H, 'A', 00H, 'P', 00H, 'I'
	DB	00H, 00H, 00H
	ORG $+4
$SG110903 DB	'V', 00H, 'a', 00H, 'l', 00H, 00H, 00H
$SG110905 DB	'F', 00H, 'o', 00H, 'r', 00H, 'c', 00H, 'e', 00H, 'R', 00H
	DB	'e', 00H, 'm', 00H, 'o', 00H, 'v', 00H, 'e', 00H, 00H, 00H
$SG110907 DB	'N', 00H, 'o', 00H, 'R', 00H, 'e', 00H, 'm', 00H, 'o', 00H
	DB	'v', 00H, 'e', 00H, 00H, 00H
	ORG $+6
$SG110909 DB	'D', 00H, 'e', 00H, 'l', 00H, 'e', 00H, 't', 00H, 'e', 00H
	DB	00H, 00H
	ORG $+2
$SG111605 DB	'A', 00H, 'p', 00H, 'p', 00H, 'I', 00H, 'D', 00H, 00H, 00H
	ORG $+4
$SG111606 DB	'C', 00H, 'L', 00H, 'S', 00H, 'I', 00H, 'D', 00H, 00H, 00H
	ORG $+4
$SG111607 DB	'C', 00H, 'o', 00H, 'm', 00H, 'p', 00H, 'o', 00H, 'n', 00H
	DB	'e', 00H, 'n', 00H, 't', 00H, ' ', 00H, 'C', 00H, 'a', 00H, 't'
	DB	00H, 'e', 00H, 'g', 00H, 'o', 00H, 'r', 00H, 'i', 00H, 'e', 00H
	DB	's', 00H, 00H, 00H
	ORG $+6
$SG111608 DB	'F', 00H, 'i', 00H, 'l', 00H, 'e', 00H, 'T', 00H, 'y', 00H
	DB	'p', 00H, 'e', 00H, 00H, 00H
	ORG $+6
$SG111609 DB	'I', 00H, 'n', 00H, 't', 00H, 'e', 00H, 'r', 00H, 'f', 00H
	DB	'a', 00H, 'c', 00H, 'e', 00H, 00H, 00H
	ORG $+4
$SG111610 DB	'H', 00H, 'a', 00H, 'r', 00H, 'd', 00H, 'w', 00H, 'a', 00H
	DB	'r', 00H, 'e', 00H, 00H, 00H
	ORG $+6
$SG111611 DB	'M', 00H, 'i', 00H, 'm', 00H, 'e', 00H, 00H, 00H
	ORG $+6
$SG111612 DB	'S', 00H, 'A', 00H, 'M', 00H, 00H, 00H
$SG111613 DB	'S', 00H, 'E', 00H, 'C', 00H, 'U', 00H, 'R', 00H, 'I', 00H
	DB	'T', 00H, 'Y', 00H, 00H, 00H
	ORG $+6
$SG111614 DB	'S', 00H, 'Y', 00H, 'S', 00H, 'T', 00H, 'E', 00H, 'M', 00H
	DB	00H, 00H
	ORG $+2
$SG111615 DB	'S', 00H, 'o', 00H, 'f', 00H, 't', 00H, 'w', 00H, 'a', 00H
	DB	'r', 00H, 'e', 00H, 00H, 00H
	ORG $+6
$SG111616 DB	'T', 00H, 'y', 00H, 'p', 00H, 'e', 00H, 'L', 00H, 'i', 00H
	DB	'b', 00H, 00H, 00H
$SG186222 DB	'_', 00H, '_', 00H, 'a', 00H, 't', 00H, 'l', 00H, '_', 00H
	DB	'c', 00H, 'o', 00H, 'n', 00H, 'd', 00H, 'V', 00H, 'a', 00H, 'l'
	DB	00H, 00H, 00H
	ORG $+4
$SG186223 DB	'%', 00H, 'l', 00H, 's', 00H, 00H, 00H
$SG186224 DB	'C', 00H, ':', 00H, '\', 00H, 'P', 00H, 'r', 00H, 'o', 00H
	DB	'g', 00H, 'r', 00H, 'a', 00H, 'm', 00H, ' ', 00H, 'F', 00H, 'i'
	DB	00H, 'l', 00H, 'e', 00H, 's', 00H, ' ', 00H, '(', 00H, 'x', 00H
	DB	'8', 00H, '6', 00H, ')', 00H, '\', 00H, 'M', 00H, 'i', 00H, 'c'
	DB	00H, 'r', 00H, 'o', 00H, 's', 00H, 'o', 00H, 'f', 00H, 't', 00H
	DB	' ', 00H, 'V', 00H, 'i', 00H, 's', 00H, 'u', 00H, 'a', 00H, 'l'
	DB	00H, ' ', 00H, 'S', 00H, 't', 00H, 'u', 00H, 'd', 00H, 'i', 00H
	DB	'o', 00H, '\', 00H, '2', 00H, '0', 00H, '1', 00H, '9', 00H, '\'
	DB	00H, 'C', 00H, 'o', 00H, 'm', 00H, 'm', 00H, 'u', 00H, 'n', 00H
	DB	'i', 00H, 't', 00H, 'y', 00H, '\', 00H, 'V', 00H, 'C', 00H, '\'
	DB	00H, 'T', 00H, 'o', 00H, 'o', 00H, 'l', 00H, 's', 00H, '\', 00H
	DB	'M', 00H, 'S', 00H, 'V', 00H, 'C', 00H, '\', 00H, '1', 00H, '4'
	DB	00H, '.', 00H, '2', 00H, '8', 00H, '.', 00H, '2', 00H, '9', 00H
	DB	'3', 00H, '3', 00H, '3', 00H, '\', 00H, 'a', 00H, 't', 00H, 'l'
	DB	00H, 'm', 00H, 'f', 00H, 'c', 00H, '\', 00H, 'i', 00H, 'n', 00H
	DB	'c', 00H, 'l', 00H, 'u', 00H, 'd', 00H, 'e', 00H, '\', 00H, 'a'
	DB	00H, 't', 00H, 'l', 00H, 'h', 00H, 'o', 00H, 's', 00H, 't', 00H
	DB	'.', 00H, 'h', 00H, 00H, 00H
	ORG $+6
$SG186227 DB	'l', 00H, 'p', 00H, 's', 00H, 'z', 00H, 'N', 00H, 'a', 00H
	DB	'm', 00H, 'e', 00H, 00H, 00H
	ORG $+6
$SG186228 DB	'%', 00H, 'l', 00H, 's', 00H, 00H, 00H
$SG186243 DB	'%', 00H, 'l', 00H, 's', 00H, 00H, 00H
$SG186229 DB	'C', 00H, ':', 00H, '\', 00H, 'P', 00H, 'r', 00H, 'o', 00H
	DB	'g', 00H, 'r', 00H, 'a', 00H, 'm', 00H, ' ', 00H, 'F', 00H, 'i'
	DB	00H, 'l', 00H, 'e', 00H, 's', 00H, ' ', 00H, '(', 00H, 'x', 00H
	DB	'8', 00H, '6', 00H, ')', 00H, '\', 00H, 'M', 00H, 'i', 00H, 'c'
	DB	00H, 'r', 00H, 'o', 00H, 's', 00H, 'o', 00H, 'f', 00H, 't', 00H
	DB	' ', 00H, 'V', 00H, 'i', 00H, 's', 00H, 'u', 00H, 'a', 00H, 'l'
	DB	00H, ' ', 00H, 'S', 00H, 't', 00H, 'u', 00H, 'd', 00H, 'i', 00H
	DB	'o', 00H, '\', 00H, '2', 00H, '0', 00H, '1', 00H, '9', 00H, '\'
	DB	00H, 'C', 00H, 'o', 00H, 'm', 00H, 'm', 00H, 'u', 00H, 'n', 00H
	DB	'i', 00H, 't', 00H, 'y', 00H, '\', 00H, 'V', 00H, 'C', 00H, '\'
	DB	00H, 'T', 00H, 'o', 00H, 'o', 00H, 'l', 00H, 's', 00H, '\', 00H
	DB	'M', 00H, 'S', 00H, 'V', 00H, 'C', 00H, '\', 00H, '1', 00H, '4'
	DB	00H, '.', 00H, '2', 00H, '8', 00H, '.', 00H, '2', 00H, '9', 00H
	DB	'3', 00H, '3', 00H, '3', 00H, '\', 00H, 'a', 00H, 't', 00H, 'l'
	DB	00H, 'm', 00H, 'f', 00H, 'c', 00H, '\', 00H, 'i', 00H, 'n', 00H
	DB	'c', 00H, 'l', 00H, 'u', 00H, 'd', 00H, 'e', 00H, '\', 00H, 'a'
	DB	00H, 't', 00H, 'l', 00H, 'h', 00H, 'o', 00H, 's', 00H, 't', 00H
	DB	'.', 00H, 'h', 00H, 00H, 00H
	ORG $+6
$SG186234 DB	'E', 00H, 'r', 00H, 'r', 00H, 'o', 00H, 'r', 00H, ' ', 00H
	DB	'c', 00H, 'o', 00H, 'd', 00H, 'e', 00H, ':', 00H, ' ', 00H, '0'
	DB	00H, 'x', 00H, '%', 00H, 'x', 00H, ' ', 00H, '-', 00H, ' ', 00H
	DB	'%', 00H, 'T', 00H, 's', 00H, 00H, 00H
	ORG $+2
$SG186317 DB	'%', 00H, 'l', 00H, 's', 00H, 00H, 00H
$SG186231 DB	'C:\Program Files (x86)\Microsoft Visual Studio\2019\Comm'
	DB	'unity\VC\Tools\MSVC\14.28.29333\atlmfc\include\atlhost.h', 00H
	ORG $+7
$SG186242 DB	'l', 00H, 'P', 00H, 'a', 00H, 'r', 00H, 'a', 00H, 'm', 00H
	DB	00H, 00H
	ORG $+2
$SG186323 DB	'l', 00H, 'p', 00H, 's', 00H, 'z', 00H, 'N', 00H, 'a', 00H
	DB	'm', 00H, 'e', 00H, 00H, 00H
	ORG $+6
$SG186232 DB	'C', 00H, 'o', 00H, 'n', 00H, 't', 00H, 'r', 00H, 'o', 00H
	DB	'l', 00H, ' ', 00H, 'c', 00H, 'r', 00H, 'e', 00H, 'a', 00H, 't'
	DB	00H, 'i', 00H, 'o', 00H, 'n', 00H, ' ', 00H, 'f', 00H, 'a', 00H
	DB	'i', 00H, 'l', 00H, 'e', 00H, 'd', 00H, ' ', 00H, 'f', 00H, 'o'
	DB	00H, 'r', 00H, ' ', 00H, '''', 00H, '%', 00H, 'T', 00H, 's', 00H
	DB	'''', 00H, 0aH, 00H, 00H, 00H
	ORG $+2
$SG186324 DB	'%', 00H, 'l', 00H, 's', 00H, 00H, 00H
$SG186233 DB	'C:\Program Files (x86)\Microsoft Visual Studio\2019\Comm'
	DB	'unity\VC\Tools\MSVC\14.28.29333\atlmfc\include\atlhost.h', 00H
	ORG $+7
$SG186316 DB	'_', 00H, '_', 00H, 'a', 00H, 't', 00H, 'l', 00H, '_', 00H
	DB	'c', 00H, 'o', 00H, 'n', 00H, 'd', 00H, 'V', 00H, 'a', 00H, 'l'
	DB	00H, 00H, 00H
	ORG $+4
$SG186330 DB	'E', 00H, 'r', 00H, 'r', 00H, 'o', 00H, 'r', 00H, ' ', 00H
	DB	'c', 00H, 'o', 00H, 'd', 00H, 'e', 00H, ':', 00H, ' ', 00H, '0'
	DB	00H, 'x', 00H, '%', 00H, 'x', 00H, ' ', 00H, '-', 00H, ' ', 00H
	DB	'%', 00H, 'T', 00H, 's', 00H, 00H, 00H
	ORG $+2
$SG186339 DB	'%', 00H, 'l', 00H, 's', 00H, 00H, 00H
$SG186244 DB	'C', 00H, ':', 00H, '\', 00H, 'P', 00H, 'r', 00H, 'o', 00H
	DB	'g', 00H, 'r', 00H, 'a', 00H, 'm', 00H, ' ', 00H, 'F', 00H, 'i'
	DB	00H, 'l', 00H, 'e', 00H, 's', 00H, ' ', 00H, '(', 00H, 'x', 00H
	DB	'8', 00H, '6', 00H, ')', 00H, '\', 00H, 'M', 00H, 'i', 00H, 'c'
	DB	00H, 'r', 00H, 'o', 00H, 's', 00H, 'o', 00H, 'f', 00H, 't', 00H
	DB	' ', 00H, 'V', 00H, 'i', 00H, 's', 00H, 'u', 00H, 'a', 00H, 'l'
	DB	00H, ' ', 00H, 'S', 00H, 't', 00H, 'u', 00H, 'd', 00H, 'i', 00H
	DB	'o', 00H, '\', 00H, '2', 00H, '0', 00H, '1', 00H, '9', 00H, '\'
	DB	00H, 'C', 00H, 'o', 00H, 'm', 00H, 'm', 00H, 'u', 00H, 'n', 00H
	DB	'i', 00H, 't', 00H, 'y', 00H, '\', 00H, 'V', 00H, 'C', 00H, '\'
	DB	00H, 'T', 00H, 'o', 00H, 'o', 00H, 'l', 00H, 's', 00H, '\', 00H
	DB	'M', 00H, 'S', 00H, 'V', 00H, 'C', 00H, '\', 00H, '1', 00H, '4'
	DB	00H, '.', 00H, '2', 00H, '8', 00H, '.', 00H, '2', 00H, '9', 00H
	DB	'3', 00H, '3', 00H, '3', 00H, '\', 00H, 'a', 00H, 't', 00H, 'l'
	DB	00H, 'm', 00H, 'f', 00H, 'c', 00H, '\', 00H, 'i', 00H, 'n', 00H
	DB	'c', 00H, 'l', 00H, 'u', 00H, 'd', 00H, 'e', 00H, '\', 00H, 'a'
	DB	00H, 't', 00H, 'l', 00H, 'h', 00H, 'o', 00H, 's', 00H, 't', 00H
	DB	'.', 00H, 'h', 00H, 00H, 00H
	ORG $+6
$SG186338 DB	'l', 00H, 'P', 00H, 'a', 00H, 'r', 00H, 'a', 00H, 'm', 00H
	DB	00H, 00H
	ORG $+2
$SG112736 DB	'l', 00H, 'p', 00H, 's', 00H, 'z', 00H, 'P', 00H, 'a', 00H
	DB	't', 00H, 'h', 00H, 'N', 00H, 'a', 00H, 'm', 00H, 'e', 00H, ' '
	DB	00H, '!', 00H, '=', 00H, ' ', 00H, '0', 00H, 00H, 00H
	ORG $+4
$SG186318 DB	'C', 00H, ':', 00H, '\', 00H, 'P', 00H, 'r', 00H, 'o', 00H
	DB	'g', 00H, 'r', 00H, 'a', 00H, 'm', 00H, ' ', 00H, 'F', 00H, 'i'
	DB	00H, 'l', 00H, 'e', 00H, 's', 00H, ' ', 00H, '(', 00H, 'x', 00H
	DB	'8', 00H, '6', 00H, ')', 00H, '\', 00H, 'M', 00H, 'i', 00H, 'c'
	DB	00H, 'r', 00H, 'o', 00H, 's', 00H, 'o', 00H, 'f', 00H, 't', 00H
	DB	' ', 00H, 'V', 00H, 'i', 00H, 's', 00H, 'u', 00H, 'a', 00H, 'l'
	DB	00H, ' ', 00H, 'S', 00H, 't', 00H, 'u', 00H, 'd', 00H, 'i', 00H
	DB	'o', 00H, '\', 00H, '2', 00H, '0', 00H, '1', 00H, '9', 00H, '\'
	DB	00H, 'C', 00H, 'o', 00H, 'm', 00H, 'm', 00H, 'u', 00H, 'n', 00H
	DB	'i', 00H, 't', 00H, 'y', 00H, '\', 00H, 'V', 00H, 'C', 00H, '\'
	DB	00H, 'T', 00H, 'o', 00H, 'o', 00H, 'l', 00H, 's', 00H, '\', 00H
	DB	'M', 00H, 'S', 00H, 'V', 00H, 'C', 00H, '\', 00H, '1', 00H, '4'
	DB	00H, '.', 00H, '2', 00H, '8', 00H, '.', 00H, '2', 00H, '9', 00H
	DB	'3', 00H, '3', 00H, '3', 00H, '\', 00H, 'a', 00H, 't', 00H, 'l'
	DB	00H, 'm', 00H, 'f', 00H, 'c', 00H, '\', 00H, 'i', 00H, 'n', 00H
	DB	'c', 00H, 'l', 00H, 'u', 00H, 'd', 00H, 'e', 00H, '\', 00H, 'a'
	DB	00H, 't', 00H, 'l', 00H, 'h', 00H, 'o', 00H, 's', 00H, 't', 00H
	DB	'.', 00H, 'h', 00H, 00H, 00H
	ORG $+6
$SG112737 DB	'%', 00H, 'l', 00H, 's', 00H, 00H, 00H
$SG186325 DB	'C', 00H, ':', 00H, '\', 00H, 'P', 00H, 'r', 00H, 'o', 00H
	DB	'g', 00H, 'r', 00H, 'a', 00H, 'm', 00H, ' ', 00H, 'F', 00H, 'i'
	DB	00H, 'l', 00H, 'e', 00H, 's', 00H, ' ', 00H, '(', 00H, 'x', 00H
	DB	'8', 00H, '6', 00H, ')', 00H, '\', 00H, 'M', 00H, 'i', 00H, 'c'
	DB	00H, 'r', 00H, 'o', 00H, 's', 00H, 'o', 00H, 'f', 00H, 't', 00H
	DB	' ', 00H, 'V', 00H, 'i', 00H, 's', 00H, 'u', 00H, 'a', 00H, 'l'
	DB	00H, ' ', 00H, 'S', 00H, 't', 00H, 'u', 00H, 'd', 00H, 'i', 00H
	DB	'o', 00H, '\', 00H, '2', 00H, '0', 00H, '1', 00H, '9', 00H, '\'
	DB	00H, 'C', 00H, 'o', 00H, 'm', 00H, 'm', 00H, 'u', 00H, 'n', 00H
	DB	'i', 00H, 't', 00H, 'y', 00H, '\', 00H, 'V', 00H, 'C', 00H, '\'
	DB	00H, 'T', 00H, 'o', 00H, 'o', 00H, 'l', 00H, 's', 00H, '\', 00H
	DB	'M', 00H, 'S', 00H, 'V', 00H, 'C', 00H, '\', 00H, '1', 00H, '4'
	DB	00H, '.', 00H, '2', 00H, '8', 00H, '.', 00H, '2', 00H, '9', 00H
	DB	'3', 00H, '3', 00H, '3', 00H, '\', 00H, 'a', 00H, 't', 00H, 'l'
	DB	00H, 'm', 00H, 'f', 00H, 'c', 00H, '\', 00H, 'i', 00H, 'n', 00H
	DB	'c', 00H, 'l', 00H, 'u', 00H, 'd', 00H, 'e', 00H, '\', 00H, 'a'
	DB	00H, 't', 00H, 'l', 00H, 'h', 00H, 'o', 00H, 's', 00H, 't', 00H
	DB	'.', 00H, 'h', 00H, 00H, 00H
	ORG $+6
$SG196234 DB	'p', 00H, 'T', 00H, 'h', 00H, 'i', 00H, 's', 00H, ' ', 00H
	DB	'!', 00H, '=', 00H, ' ', 00H, '0', 00H, 00H, 00H
	ORG $+2
$SG186327 DB	'C:\Program Files (x86)\Microsoft Visual Studio\2019\Comm'
	DB	'unity\VC\Tools\MSVC\14.28.29333\atlmfc\include\atlhost.h', 00H
	ORG $+7
$SG196235 DB	'%', 00H, 'l', 00H, 's', 00H, 00H, 00H
$SG186328 DB	'C', 00H, 'o', 00H, 'n', 00H, 't', 00H, 'r', 00H, 'o', 00H
	DB	'l', 00H, ' ', 00H, 'c', 00H, 'r', 00H, 'e', 00H, 'a', 00H, 't'
	DB	00H, 'i', 00H, 'o', 00H, 'n', 00H, ' ', 00H, 'f', 00H, 'a', 00H
	DB	'i', 00H, 'l', 00H, 'e', 00H, 'd', 00H, ' ', 00H, 'f', 00H, 'o'
	DB	00H, 'r', 00H, ' ', 00H, '''', 00H, '%', 00H, 'T', 00H, 's', 00H
	DB	'''', 00H, 0aH, 00H, 00H, 00H
	ORG $+2
$SG196260 DB	'%', 00H, 'l', 00H, 's', 00H, 00H, 00H
$SG186329 DB	'C:\Program Files (x86)\Microsoft Visual Studio\2019\Comm'
	DB	'unity\VC\Tools\MSVC\14.28.29333\atlmfc\include\atlhost.h', 00H
	ORG $+7
$SG196259 DB	'p', 00H, 'T', 00H, 'h', 00H, 'i', 00H, 's', 00H, '-', 00H
	DB	'>', 00H, 'm', 00H, '_', 00H, 'p', 00H, 'C', 00H, 'u', 00H, 'r'
	DB	00H, 'r', 00H, 'e', 00H, 'n', 00H, 't', 00H, 'M', 00H, 's', 00H
	DB	'g', 00H, ' ', 00H, '=', 00H, '=', 00H, ' ', 00H, '&', 00H, 'm'
	DB	00H, 's', 00H, 'g', 00H, 00H, 00H
	ORG $+6
$SG196296 DB	't', 00H, 'h', 00H, 'i', 00H, 's', 00H, '-', 00H, '>', 00H
	DB	'm', 00H, '_', 00H, 'h', 00H, 'W', 00H, 'n', 00H, 'd', 00H, ' '
	DB	00H, '=', 00H, '=', 00H, ' ', 00H, '0', 00H, 00H, 00H
	ORG $+4
$SG186340 DB	'C', 00H, ':', 00H, '\', 00H, 'P', 00H, 'r', 00H, 'o', 00H
	DB	'g', 00H, 'r', 00H, 'a', 00H, 'm', 00H, ' ', 00H, 'F', 00H, 'i'
	DB	00H, 'l', 00H, 'e', 00H, 's', 00H, ' ', 00H, '(', 00H, 'x', 00H
	DB	'8', 00H, '6', 00H, ')', 00H, '\', 00H, 'M', 00H, 'i', 00H, 'c'
	DB	00H, 'r', 00H, 'o', 00H, 's', 00H, 'o', 00H, 'f', 00H, 't', 00H
	DB	' ', 00H, 'V', 00H, 'i', 00H, 's', 00H, 'u', 00H, 'a', 00H, 'l'
	DB	00H, ' ', 00H, 'S', 00H, 't', 00H, 'u', 00H, 'd', 00H, 'i', 00H
	DB	'o', 00H, '\', 00H, '2', 00H, '0', 00H, '1', 00H, '9', 00H, '\'
	DB	00H, 'C', 00H, 'o', 00H, 'm', 00H, 'm', 00H, 'u', 00H, 'n', 00H
	DB	'i', 00H, 't', 00H, 'y', 00H, '\', 00H, 'V', 00H, 'C', 00H, '\'
	DB	00H, 'T', 00H, 'o', 00H, 'o', 00H, 'l', 00H, 's', 00H, '\', 00H
	DB	'M', 00H, 'S', 00H, 'V', 00H, 'C', 00H, '\', 00H, '1', 00H, '4'
	DB	00H, '.', 00H, '2', 00H, '8', 00H, '.', 00H, '2', 00H, '9', 00H
	DB	'3', 00H, '3', 00H, '3', 00H, '\', 00H, 'a', 00H, 't', 00H, 'l'
	DB	00H, 'm', 00H, 'f', 00H, 'c', 00H, '\', 00H, 'i', 00H, 'n', 00H
	DB	'c', 00H, 'l', 00H, 'u', 00H, 'd', 00H, 'e', 00H, '\', 00H, 'a'
	DB	00H, 't', 00H, 'l', 00H, 'h', 00H, 'o', 00H, 's', 00H, 't', 00H
	DB	'.', 00H, 'h', 00H, 00H, 00H
	ORG $+6
$SG196297 DB	'%', 00H, 'l', 00H, 's', 00H, 00H, 00H
$SG112738 DB	'C', 00H, ':', 00H, '\', 00H, 'P', 00H, 'r', 00H, 'o', 00H
	DB	'g', 00H, 'r', 00H, 'a', 00H, 'm', 00H, ' ', 00H, 'F', 00H, 'i'
	DB	00H, 'l', 00H, 'e', 00H, 's', 00H, ' ', 00H, '(', 00H, 'x', 00H
	DB	'8', 00H, '6', 00H, ')', 00H, '\', 00H, 'M', 00H, 'i', 00H, 'c'
	DB	00H, 'r', 00H, 'o', 00H, 's', 00H, 'o', 00H, 'f', 00H, 't', 00H
	DB	' ', 00H, 'V', 00H, 'i', 00H, 's', 00H, 'u', 00H, 'a', 00H, 'l'
	DB	00H, ' ', 00H, 'S', 00H, 't', 00H, 'u', 00H, 'd', 00H, 'i', 00H
	DB	'o', 00H, '\', 00H, '2', 00H, '0', 00H, '1', 00H, '9', 00H, '\'
	DB	00H, 'C', 00H, 'o', 00H, 'm', 00H, 'm', 00H, 'u', 00H, 'n', 00H
	DB	'i', 00H, 't', 00H, 'y', 00H, '\', 00H, 'V', 00H, 'C', 00H, '\'
	DB	00H, 'T', 00H, 'o', 00H, 'o', 00H, 'l', 00H, 's', 00H, '\', 00H
	DB	'M', 00H, 'S', 00H, 'V', 00H, 'C', 00H, '\', 00H, '1', 00H, '4'
	DB	00H, '.', 00H, '2', 00H, '8', 00H, '.', 00H, '2', 00H, '9', 00H
	DB	'3', 00H, '3', 00H, '3', 00H, '\', 00H, 'a', 00H, 't', 00H, 'l'
	DB	00H, 'm', 00H, 'f', 00H, 'c', 00H, '\', 00H, 'i', 00H, 'n', 00H
	DB	'c', 00H, 'l', 00H, 'u', 00H, 'd', 00H, 'e', 00H, '\', 00H, 'a'
	DB	00H, 't', 00H, 'l', 00H, 'b', 00H, 'a', 00H, 's', 00H, 'e', 00H
	DB	'.', 00H, 'h', 00H, 00H, 00H
	ORG $+6
$SG196304 DB	'%', 00H, 'l', 00H, 's', 00H, 00H, 00H
$SG196236 DB	'C', 00H, ':', 00H, '\', 00H, 'P', 00H, 'r', 00H, 'o', 00H
	DB	'g', 00H, 'r', 00H, 'a', 00H, 'm', 00H, ' ', 00H, 'F', 00H, 'i'
	DB	00H, 'l', 00H, 'e', 00H, 's', 00H, ' ', 00H, '(', 00H, 'x', 00H
	DB	'8', 00H, '6', 00H, ')', 00H, '\', 00H, 'M', 00H, 'i', 00H, 'c'
	DB	00H, 'r', 00H, 'o', 00H, 's', 00H, 'o', 00H, 'f', 00H, 't', 00H
	DB	' ', 00H, 'V', 00H, 'i', 00H, 's', 00H, 'u', 00H, 'a', 00H, 'l'
	DB	00H, ' ', 00H, 'S', 00H, 't', 00H, 'u', 00H, 'd', 00H, 'i', 00H
	DB	'o', 00H, '\', 00H, '2', 00H, '0', 00H, '1', 00H, '9', 00H, '\'
	DB	00H, 'C', 00H, 'o', 00H, 'm', 00H, 'm', 00H, 'u', 00H, 'n', 00H
	DB	'i', 00H, 't', 00H, 'y', 00H, '\', 00H, 'V', 00H, 'C', 00H, '\'
	DB	00H, 'T', 00H, 'o', 00H, 'o', 00H, 'l', 00H, 's', 00H, '\', 00H
	DB	'M', 00H, 'S', 00H, 'V', 00H, 'C', 00H, '\', 00H, '1', 00H, '4'
	DB	00H, '.', 00H, '2', 00H, '8', 00H, '.', 00H, '2', 00H, '9', 00H
	DB	'3', 00H, '3', 00H, '3', 00H, '\', 00H, 'a', 00H, 't', 00H, 'l'
	DB	00H, 'm', 00H, 'f', 00H, 'c', 00H, '\', 00H, 'i', 00H, 'n', 00H
	DB	'c', 00H, 'l', 00H, 'u', 00H, 'd', 00H, 'e', 00H, '\', 00H, 'a'
	DB	00H, 't', 00H, 'l', 00H, 'w', 00H, 'i', 00H, 'n', 00H, '.', 00H
	DB	'h', 00H, 00H, 00H
$SG196239 DB	'C:\Program Files (x86)\Microsoft Visual Studio\2019\Comm'
	DB	'unity\VC\Tools\MSVC\14.28.29333\atlmfc\include\atlwin.h', 00H
$SG196240 DB	'S', 00H, 'u', 00H, 'b', 00H, 'c', 00H, 'l', 00H, 'a', 00H
	DB	's', 00H, 's', 00H, 'i', 00H, 'n', 00H, 'g', 00H, ' ', 00H, 't'
	DB	00H, 'h', 00H, 'r', 00H, 'o', 00H, 'u', 00H, 'g', 00H, 'h', 00H
	DB	' ', 00H, 'a', 00H, ' ', 00H, 'h', 00H, 'o', 00H, 'o', 00H, 'k'
	DB	00H, ' ', 00H, 'd', 00H, 'i', 00H, 's', 00H, 'c', 00H, 'a', 00H
	DB	'r', 00H, 'd', 00H, 'e', 00H, 'd', 00H, '.', 00H, 0aH, 00H, 00H
	DB	00H
	ORG $+2
$SG196261 DB	'C', 00H, ':', 00H, '\', 00H, 'P', 00H, 'r', 00H, 'o', 00H
	DB	'g', 00H, 'r', 00H, 'a', 00H, 'm', 00H, ' ', 00H, 'F', 00H, 'i'
	DB	00H, 'l', 00H, 'e', 00H, 's', 00H, ' ', 00H, '(', 00H, 'x', 00H
	DB	'8', 00H, '6', 00H, ')', 00H, '\', 00H, 'M', 00H, 'i', 00H, 'c'
	DB	00H, 'r', 00H, 'o', 00H, 's', 00H, 'o', 00H, 'f', 00H, 't', 00H
	DB	' ', 00H, 'V', 00H, 'i', 00H, 's', 00H, 'u', 00H, 'a', 00H, 'l'
	DB	00H, ' ', 00H, 'S', 00H, 't', 00H, 'u', 00H, 'd', 00H, 'i', 00H
	DB	'o', 00H, '\', 00H, '2', 00H, '0', 00H, '1', 00H, '9', 00H, '\'
	DB	00H, 'C', 00H, 'o', 00H, 'm', 00H, 'm', 00H, 'u', 00H, 'n', 00H
	DB	'i', 00H, 't', 00H, 'y', 00H, '\', 00H, 'V', 00H, 'C', 00H, '\'
	DB	00H, 'T', 00H, 'o', 00H, 'o', 00H, 'l', 00H, 's', 00H, '\', 00H
	DB	'M', 00H, 'S', 00H, 'V', 00H, 'C', 00H, '\', 00H, '1', 00H, '4'
	DB	00H, '.', 00H, '2', 00H, '8', 00H, '.', 00H, '2', 00H, '9', 00H
	DB	'3', 00H, '3', 00H, '3', 00H, '\', 00H, 'a', 00H, 't', 00H, 'l'
	DB	00H, 'm', 00H, 'f', 00H, 'c', 00H, '\', 00H, 'i', 00H, 'n', 00H
	DB	'c', 00H, 'l', 00H, 'u', 00H, 'd', 00H, 'e', 00H, '\', 00H, 'a'
	DB	00H, 't', 00H, 'l', 00H, 'w', 00H, 'i', 00H, 'n', 00H, '.', 00H
	DB	'h', 00H, 00H, 00H
$SG196298 DB	'C', 00H, ':', 00H, '\', 00H, 'P', 00H, 'r', 00H, 'o', 00H
	DB	'g', 00H, 'r', 00H, 'a', 00H, 'm', 00H, ' ', 00H, 'F', 00H, 'i'
	DB	00H, 'l', 00H, 'e', 00H, 's', 00H, ' ', 00H, '(', 00H, 'x', 00H
	DB	'8', 00H, '6', 00H, ')', 00H, '\', 00H, 'M', 00H, 'i', 00H, 'c'
	DB	00H, 'r', 00H, 'o', 00H, 's', 00H, 'o', 00H, 'f', 00H, 't', 00H
	DB	' ', 00H, 'V', 00H, 'i', 00H, 's', 00H, 'u', 00H, 'a', 00H, 'l'
	DB	00H, ' ', 00H, 'S', 00H, 't', 00H, 'u', 00H, 'd', 00H, 'i', 00H
	DB	'o', 00H, '\', 00H, '2', 00H, '0', 00H, '1', 00H, '9', 00H, '\'
	DB	00H, 'C', 00H, 'o', 00H, 'm', 00H, 'm', 00H, 'u', 00H, 'n', 00H
	DB	'i', 00H, 't', 00H, 'y', 00H, '\', 00H, 'V', 00H, 'C', 00H, '\'
	DB	00H, 'T', 00H, 'o', 00H, 'o', 00H, 'l', 00H, 's', 00H, '\', 00H
	DB	'M', 00H, 'S', 00H, 'V', 00H, 'C', 00H, '\', 00H, '1', 00H, '4'
	DB	00H, '.', 00H, '2', 00H, '8', 00H, '.', 00H, '2', 00H, '9', 00H
	DB	'3', 00H, '3', 00H, '3', 00H, '\', 00H, 'a', 00H, 't', 00H, 'l'
	DB	00H, 'm', 00H, 'f', 00H, 'c', 00H, '\', 00H, 'i', 00H, 'n', 00H
	DB	'c', 00H, 'l', 00H, 'u', 00H, 'd', 00H, 'e', 00H, '\', 00H, 'a'
	DB	00H, 't', 00H, 'l', 00H, 'w', 00H, 'i', 00H, 'n', 00H, '.', 00H
	DB	'h', 00H, 00H, 00H
$SG196303 DB	't', 00H, 'h', 00H, 'i', 00H, 's', 00H, '-', 00H, '>', 00H
	DB	'm', 00H, '_', 00H, 'h', 00H, 'W', 00H, 'n', 00H, 'd', 00H, ' '
	DB	00H, '=', 00H, '=', 00H, ' ', 00H, 'h', 00H, 'W', 00H, 'n', 00H
	DB	'd', 00H, 00H, 00H
	ORG $+6
$SG196305 DB	'C', 00H, ':', 00H, '\', 00H, 'P', 00H, 'r', 00H, 'o', 00H
	DB	'g', 00H, 'r', 00H, 'a', 00H, 'm', 00H, ' ', 00H, 'F', 00H, 'i'
	DB	00H, 'l', 00H, 'e', 00H, 's', 00H, ' ', 00H, '(', 00H, 'x', 00H
	DB	'8', 00H, '6', 00H, ')', 00H, '\', 00H, 'M', 00H, 'i', 00H, 'c'
	DB	00H, 'r', 00H, 'o', 00H, 's', 00H, 'o', 00H, 'f', 00H, 't', 00H
	DB	' ', 00H, 'V', 00H, 'i', 00H, 's', 00H, 'u', 00H, 'a', 00H, 'l'
	DB	00H, ' ', 00H, 'S', 00H, 't', 00H, 'u', 00H, 'd', 00H, 'i', 00H
	DB	'o', 00H, '\', 00H, '2', 00H, '0', 00H, '1', 00H, '9', 00H, '\'
	DB	00H, 'C', 00H, 'o', 00H, 'm', 00H, 'm', 00H, 'u', 00H, 'n', 00H
	DB	'i', 00H, 't', 00H, 'y', 00H, '\', 00H, 'V', 00H, 'C', 00H, '\'
	DB	00H, 'T', 00H, 'o', 00H, 'o', 00H, 'l', 00H, 's', 00H, '\', 00H
	DB	'M', 00H, 'S', 00H, 'V', 00H, 'C', 00H, '\', 00H, '1', 00H, '4'
	DB	00H, '.', 00H, '2', 00H, '8', 00H, '.', 00H, '2', 00H, '9', 00H
	DB	'3', 00H, '3', 00H, '3', 00H, '\', 00H, 'a', 00H, 't', 00H, 'l'
	DB	00H, 'm', 00H, 'f', 00H, 'c', 00H, '\', 00H, 'i', 00H, 'n', 00H
	DB	'c', 00H, 'l', 00H, 'u', 00H, 'd', 00H, 'e', 00H, '\', 00H, 'a'
	DB	00H, 't', 00H, 'l', 00H, 'w', 00H, 'i', 00H, 'n', 00H, '.', 00H
	DB	'h', 00H, 00H, 00H
$SG196322 DB	't', 00H, 'h', 00H, 'i', 00H, 's', 00H, '-', 00H, '>', 00H
	DB	'm', 00H, '_', 00H, 'h', 00H, 'W', 00H, 'n', 00H, 'd', 00H, ' '
	DB	00H, '=', 00H, '=', 00H, ' ', 00H, '0', 00H, 00H, 00H
	ORG $+4
$SG196323 DB	'%', 00H, 'l', 00H, 's', 00H, 00H, 00H
$SG196324 DB	'C', 00H, ':', 00H, '\', 00H, 'P', 00H, 'r', 00H, 'o', 00H
	DB	'g', 00H, 'r', 00H, 'a', 00H, 'm', 00H, ' ', 00H, 'F', 00H, 'i'
	DB	00H, 'l', 00H, 'e', 00H, 's', 00H, ' ', 00H, '(', 00H, 'x', 00H
	DB	'8', 00H, '6', 00H, ')', 00H, '\', 00H, 'M', 00H, 'i', 00H, 'c'
	DB	00H, 'r', 00H, 'o', 00H, 's', 00H, 'o', 00H, 'f', 00H, 't', 00H
	DB	' ', 00H, 'V', 00H, 'i', 00H, 's', 00H, 'u', 00H, 'a', 00H, 'l'
	DB	00H, ' ', 00H, 'S', 00H, 't', 00H, 'u', 00H, 'd', 00H, 'i', 00H
	DB	'o', 00H, '\', 00H, '2', 00H, '0', 00H, '1', 00H, '9', 00H, '\'
	DB	00H, 'C', 00H, 'o', 00H, 'm', 00H, 'm', 00H, 'u', 00H, 'n', 00H
	DB	'i', 00H, 't', 00H, 'y', 00H, '\', 00H, 'V', 00H, 'C', 00H, '\'
	DB	00H, 'T', 00H, 'o', 00H, 'o', 00H, 'l', 00H, 's', 00H, '\', 00H
	DB	'M', 00H, 'S', 00H, 'V', 00H, 'C', 00H, '\', 00H, '1', 00H, '4'
	DB	00H, '.', 00H, '2', 00H, '8', 00H, '.', 00H, '2', 00H, '9', 00H
	DB	'3', 00H, '3', 00H, '3', 00H, '\', 00H, 'a', 00H, 't', 00H, 'l'
	DB	00H, 'm', 00H, 'f', 00H, 'c', 00H, '\', 00H, 'i', 00H, 'n', 00H
	DB	'c', 00H, 'l', 00H, 'u', 00H, 'd', 00H, 'e', 00H, '\', 00H, 'a'
	DB	00H, 't', 00H, 'l', 00H, 'w', 00H, 'i', 00H, 'n', 00H, '.', 00H
	DB	'h', 00H, 00H, 00H
$SG196325 DB	':', 00H, ':', 00H, 'I', 00H, 's', 00H, 'W', 00H, 'i', 00H
	DB	'n', 00H, 'd', 00H, 'o', 00H, 'w', 00H, '(', 00H, 'h', 00H, 'W'
	DB	00H, 'n', 00H, 'd', 00H, ')', 00H, 00H, 00H
	ORG $+6
$SG196326 DB	'%', 00H, 'l', 00H, 's', 00H, 00H, 00H
$SG196327 DB	'C', 00H, ':', 00H, '\', 00H, 'P', 00H, 'r', 00H, 'o', 00H
	DB	'g', 00H, 'r', 00H, 'a', 00H, 'm', 00H, ' ', 00H, 'F', 00H, 'i'
	DB	00H, 'l', 00H, 'e', 00H, 's', 00H, ' ', 00H, '(', 00H, 'x', 00H
	DB	'8', 00H, '6', 00H, ')', 00H, '\', 00H, 'M', 00H, 'i', 00H, 'c'
	DB	00H, 'r', 00H, 'o', 00H, 's', 00H, 'o', 00H, 'f', 00H, 't', 00H
	DB	' ', 00H, 'V', 00H, 'i', 00H, 's', 00H, 'u', 00H, 'a', 00H, 'l'
	DB	00H, ' ', 00H, 'S', 00H, 't', 00H, 'u', 00H, 'd', 00H, 'i', 00H
	DB	'o', 00H, '\', 00H, '2', 00H, '0', 00H, '1', 00H, '9', 00H, '\'
	DB	00H, 'C', 00H, 'o', 00H, 'm', 00H, 'm', 00H, 'u', 00H, 'n', 00H
	DB	'i', 00H, 't', 00H, 'y', 00H, '\', 00H, 'V', 00H, 'C', 00H, '\'
	DB	00H, 'T', 00H, 'o', 00H, 'o', 00H, 'l', 00H, 's', 00H, '\', 00H
	DB	'M', 00H, 'S', 00H, 'V', 00H, 'C', 00H, '\', 00H, '1', 00H, '4'
	DB	00H, '.', 00H, '2', 00H, '8', 00H, '.', 00H, '2', 00H, '9', 00H
	DB	'3', 00H, '3', 00H, '3', 00H, '\', 00H, 'a', 00H, 't', 00H, 'l'
	DB	00H, 'm', 00H, 'f', 00H, 'c', 00H, '\', 00H, 'i', 00H, 'n', 00H
	DB	'c', 00H, 'l', 00H, 'u', 00H, 'd', 00H, 'e', 00H, '\', 00H, 'a'
	DB	00H, 't', 00H, 'l', 00H, 'w', 00H, 'i', 00H, 'n', 00H, '.', 00H
	DB	'h', 00H, 00H, 00H
$SG196345 DB	't', 00H, 'h', 00H, 'i', 00H, 's', 00H, '-', 00H, '>', 00H
	DB	'm', 00H, '_', 00H, 'h', 00H, 'W', 00H, 'n', 00H, 'd', 00H, ' '
	DB	00H, '!', 00H, '=', 00H, ' ', 00H, '0', 00H, 00H, 00H
	ORG $+4
$SG196346 DB	'%', 00H, 'l', 00H, 's', 00H, 00H, 00H
$SG196347 DB	'C', 00H, ':', 00H, '\', 00H, 'P', 00H, 'r', 00H, 'o', 00H
	DB	'g', 00H, 'r', 00H, 'a', 00H, 'm', 00H, ' ', 00H, 'F', 00H, 'i'
	DB	00H, 'l', 00H, 'e', 00H, 's', 00H, ' ', 00H, '(', 00H, 'x', 00H
	DB	'8', 00H, '6', 00H, ')', 00H, '\', 00H, 'M', 00H, 'i', 00H, 'c'
	DB	00H, 'r', 00H, 'o', 00H, 's', 00H, 'o', 00H, 'f', 00H, 't', 00H
	DB	' ', 00H, 'V', 00H, 'i', 00H, 's', 00H, 'u', 00H, 'a', 00H, 'l'
	DB	00H, ' ', 00H, 'S', 00H, 't', 00H, 'u', 00H, 'd', 00H, 'i', 00H
	DB	'o', 00H, '\', 00H, '2', 00H, '0', 00H, '1', 00H, '9', 00H, '\'
	DB	00H, 'C', 00H, 'o', 00H, 'm', 00H, 'm', 00H, 'u', 00H, 'n', 00H
	DB	'i', 00H, 't', 00H, 'y', 00H, '\', 00H, 'V', 00H, 'C', 00H, '\'
	DB	00H, 'T', 00H, 'o', 00H, 'o', 00H, 'l', 00H, 's', 00H, '\', 00H
	DB	'M', 00H, 'S', 00H, 'V', 00H, 'C', 00H, '\', 00H, '1', 00H, '4'
	DB	00H, '.', 00H, '2', 00H, '8', 00H, '.', 00H, '2', 00H, '9', 00H
	DB	'3', 00H, '3', 00H, '3', 00H, '\', 00H, 'a', 00H, 't', 00H, 'l'
	DB	00H, 'm', 00H, 'f', 00H, 'c', 00H, '\', 00H, 'i', 00H, 'n', 00H
	DB	'c', 00H, 'l', 00H, 'u', 00H, 'd', 00H, 'e', 00H, '\', 00H, 'a'
	DB	00H, 't', 00H, 'l', 00H, 'w', 00H, 'i', 00H, 'n', 00H, '.', 00H
	DB	'h', 00H, 00H, 00H
$SG196369 DB	'p', 00H, 'T', 00H, 'h', 00H, 'i', 00H, 's', 00H, '-', 00H
	DB	'>', 00H, 'm', 00H, '_', 00H, 'p', 00H, 'C', 00H, 'u', 00H, 'r'
	DB	00H, 'r', 00H, 'e', 00H, 'n', 00H, 't', 00H, 'M', 00H, 's', 00H
	DB	'g', 00H, ' ', 00H, '=', 00H, '=', 00H, ' ', 00H, '&', 00H, 'm'
	DB	00H, 's', 00H, 'g', 00H, 00H, 00H
	ORG $+6
$SG196370 DB	'%', 00H, 'l', 00H, 's', 00H, 00H, 00H
$SG196430 DB	'%', 00H, 'l', 00H, 's', 00H, 00H, 00H
$SG196371 DB	'C', 00H, ':', 00H, '\', 00H, 'P', 00H, 'r', 00H, 'o', 00H
	DB	'g', 00H, 'r', 00H, 'a', 00H, 'm', 00H, ' ', 00H, 'F', 00H, 'i'
	DB	00H, 'l', 00H, 'e', 00H, 's', 00H, ' ', 00H, '(', 00H, 'x', 00H
	DB	'8', 00H, '6', 00H, ')', 00H, '\', 00H, 'M', 00H, 'i', 00H, 'c'
	DB	00H, 'r', 00H, 'o', 00H, 's', 00H, 'o', 00H, 'f', 00H, 't', 00H
	DB	' ', 00H, 'V', 00H, 'i', 00H, 's', 00H, 'u', 00H, 'a', 00H, 'l'
	DB	00H, ' ', 00H, 'S', 00H, 't', 00H, 'u', 00H, 'd', 00H, 'i', 00H
	DB	'o', 00H, '\', 00H, '2', 00H, '0', 00H, '1', 00H, '9', 00H, '\'
	DB	00H, 'C', 00H, 'o', 00H, 'm', 00H, 'm', 00H, 'u', 00H, 'n', 00H
	DB	'i', 00H, 't', 00H, 'y', 00H, '\', 00H, 'V', 00H, 'C', 00H, '\'
	DB	00H, 'T', 00H, 'o', 00H, 'o', 00H, 'l', 00H, 's', 00H, '\', 00H
	DB	'M', 00H, 'S', 00H, 'V', 00H, 'C', 00H, '\', 00H, '1', 00H, '4'
	DB	00H, '.', 00H, '2', 00H, '8', 00H, '.', 00H, '2', 00H, '9', 00H
	DB	'3', 00H, '3', 00H, '3', 00H, '\', 00H, 'a', 00H, 't', 00H, 'l'
	DB	00H, 'm', 00H, 'f', 00H, 'c', 00H, '\', 00H, 'i', 00H, 'n', 00H
	DB	'c', 00H, 'l', 00H, 'u', 00H, 'd', 00H, 'e', 00H, '\', 00H, 'a'
	DB	00H, 't', 00H, 'l', 00H, 'w', 00H, 'i', 00H, 'n', 00H, '.', 00H
	DB	'h', 00H, 00H, 00H
$SG196429 DB	'p', 00H, 'p', 00H, ' ', 00H, '!', 00H, '=', 00H, ' ', 00H
	DB	'0', 00H, 00H, 00H
$SG196431 DB	'C', 00H, ':', 00H, '\', 00H, 'D', 00H, 'e', 00H, 'v', 00H
	DB	'e', 00H, 'l', 00H, 'o', 00H, 'p', 00H, '\', 00H, 'O', 00H, 'P'
	DB	00H, 'O', 00H, 'S', 00H, '-', 00H, 'C', 00H, 'C', 00H, 'O', 00H
	DB	'\', 00H, 'C', 00H, 'o', 00H, 'm', 00H, 'm', 00H, 'o', 00H, 'n'
	DB	00H, '\', 00H, 'A', 00H, 'T', 00H, 'L', 00H, '\', 00H, 'a', 00H
	DB	't', 00H, 'l', 00H, 'c', 00H, 'o', 00H, 'm', 00H, '.', 00H, 'h'
	DB	00H, 00H, 00H
$SG196456 DB	'p', 00H, 'p', 00H, ' ', 00H, '!', 00H, '=', 00H, ' ', 00H
	DB	'0', 00H, 00H, 00H
$SG196457 DB	'%', 00H, 'l', 00H, 's', 00H, 00H, 00H
	ORG $+8
$SG196458 DB	'C', 00H, ':', 00H, '\', 00H, 'D', 00H, 'e', 00H, 'v', 00H
	DB	'e', 00H, 'l', 00H, 'o', 00H, 'p', 00H, '\', 00H, 'O', 00H, 'P'
	DB	00H, 'O', 00H, 'S', 00H, '-', 00H, 'C', 00H, 'C', 00H, 'O', 00H
	DB	'\', 00H, 'C', 00H, 'o', 00H, 'm', 00H, 'm', 00H, 'o', 00H, 'n'
	DB	00H, '\', 00H, 'A', 00H, 'T', 00H, 'L', 00H, '\', 00H, 'a', 00H
	DB	't', 00H, 'l', 00H, 'c', 00H, 'o', 00H, 'm', 00H, '.', 00H, 'h'
	DB	00H, 00H, 00H
CONST	ENDS
PUBLIC	??_H@YAXPEAX_K1P6APEAX0@Z@Z			; `vector constructor iterator'
PUBLIC	??_I@YAXPEAX_K1P6AX0@Z@Z			; `vector destructor iterator'
PUBLIC	?wcsstr@@YAPEA_WPEA_WPEB_W@Z			; wcsstr
PUBLIC	InlineIsEqualGUID
PUBLIC	IsEqualGUID
PUBLIC	HRESULT_FROM_WIN32
PUBLIC	??0IUnknown@@QEAA@XZ				; IUnknown::IUnknown
PUBLIC	??0IClassFactory@@QEAA@XZ			; IClassFactory::IClassFactory
PUBLIC	DllGetClassObject
PUBLIC	DllCanUnloadNow
PUBLIC	?AtlThrowImpl@ATL@@YAXJ@Z			; ATL::AtlThrowImpl
PUBLIC	__local_stdio_printf_options
PUBLIC	_vswprintf_s_l
PUBLIC	swprintf_s
PUBLIC	??$AtlMultiply@H@ATL@@YAJPEAHHH@Z		; ATL::AtlMultiply<int>
PUBLIC	??$AtlMultiply@K@ATL@@YAJPEAKKK@Z		; ATL::AtlMultiply<unsigned long>
PUBLIC	?AtlCoTaskMemCAlloc@ATL@@YAPEAXKK@Z		; ATL::AtlCoTaskMemCAlloc
PUBLIC	?AtlCoTaskMemRecalloc@ATL@@YAPEAXPEAXKK@Z	; ATL::AtlCoTaskMemRecalloc
PUBLIC	?memcpy_s@Checked@ATL@@YAXPEAX_KPEBX1@Z		; ATL::Checked::memcpy_s
PUBLIC	?Allocate@CCRTAllocator@ATL@@SAPEAX_K@Z		; ATL::CCRTAllocator::Allocate
PUBLIC	?Free@CCRTAllocator@ATL@@SAXPEAX@Z		; ATL::CCRTAllocator::Free
PUBLIC	?_AtlVerifyStackAvailable@_ATL_SAFE_ALLOCA_IMPL@ATL@@YA_N_K@Z ; ATL::_ATL_SAFE_ALLOCA_IMPL::_AtlVerifyStackAvailable
PUBLIC	??$AtlAdd@_K@ATL@@YAJPEA_K_K1@Z			; ATL::AtlAdd<unsigned __int64>
PUBLIC	?_AtlGetConversionACP@ATL@@YAIXZ		; ATL::_AtlGetConversionACP
PUBLIC	?ocslen@@YAHPEB_W@Z				; ocslen
PUBLIC	?ocscpy_s@@YA_NPEA_W_KPEB_W@Z			; ocscpy_s
PUBLIC	?T2COLE_EX@@YAPEB_WPEB_WI@Z			; T2COLE_EX
PUBLIC	?OLE2CT_EX@@YAPEB_WPEB_WI@Z			; OLE2CT_EX
PUBLIC	?OLE2CT_EX_DEF@@YAPEB_WPEB_W@Z			; OLE2CT_EX_DEF
PUBLIC	?T2OLE_EX@@YAPEA_WPEA_WI@Z			; T2OLE_EX
PUBLIC	?OLE2T_EX@@YAPEA_WPEA_WI@Z			; OLE2T_EX
PUBLIC	??0?$CAtlSafeAllocBufferManager@VCCRTAllocator@ATL@@@_ATL_SAFE_ALLOCA_IMPL@ATL@@QEAA@XZ ; ATL::_ATL_SAFE_ALLOCA_IMPL::CAtlSafeAllocBufferManager<ATL::CCRTAllocator>::CAtlSafeAllocBufferManager<ATL::CCRTAllocator>
PUBLIC	?Allocate@?$CAtlSafeAllocBufferManager@VCCRTAllocator@ATL@@@_ATL_SAFE_ALLOCA_IMPL@ATL@@QEAAPEAX_K@Z ; ATL::_ATL_SAFE_ALLOCA_IMPL::CAtlSafeAllocBufferManager<ATL::CCRTAllocator>::Allocate
PUBLIC	??1?$CAtlSafeAllocBufferManager@VCCRTAllocator@ATL@@@_ATL_SAFE_ALLOCA_IMPL@ATL@@QEAA@XZ ; ATL::_ATL_SAFE_ALLOCA_IMPL::CAtlSafeAllocBufferManager<ATL::CCRTAllocator>::~CAtlSafeAllocBufferManager<ATL::CCRTAllocator>
PUBLIC	?DEVMODEOLE2T_EX@@YAPEAU_devicemodeW@@PEAU1@@Z	; DEVMODEOLE2T_EX
PUBLIC	??0?$CTraceCategoryEx@$0IAAAA@$0A@@ATL@@QEAA@PEB_W@Z ; ATL::CTraceCategoryEx<524288,0>::CTraceCategoryEx<524288,0>
PUBLIC	??0?$CTraceCategoryEx@$00$0A@@ATL@@QEAA@PEB_W@Z	; ATL::CTraceCategoryEx<1,0>::CTraceCategoryEx<1,0>
PUBLIC	??B?$CTraceCategoryEx@$00$0A@@ATL@@QEAAIXZ	; ATL::CTraceCategoryEx<1,0>::operator unsigned int
PUBLIC	??0?$CTraceCategoryEx@$01$0A@@ATL@@QEAA@PEB_W@Z	; ATL::CTraceCategoryEx<2,0>::CTraceCategoryEx<2,0>
PUBLIC	??B?$CTraceCategoryEx@$01$0A@@ATL@@QEAAIXZ	; ATL::CTraceCategoryEx<2,0>::operator unsigned int
PUBLIC	??0?$CTraceCategoryEx@$03$0A@@ATL@@QEAA@PEB_W@Z	; ATL::CTraceCategoryEx<4,0>::CTraceCategoryEx<4,0>
PUBLIC	??0?$CTraceCategoryEx@$07$0A@@ATL@@QEAA@PEB_W@Z	; ATL::CTraceCategoryEx<8,0>::CTraceCategoryEx<8,0>
PUBLIC	??B?$CTraceCategoryEx@$07$0A@@ATL@@QEAAIXZ	; ATL::CTraceCategoryEx<8,0>::operator unsigned int
PUBLIC	??0?$CTraceCategoryEx@$0BA@$0A@@ATL@@QEAA@PEB_W@Z ; ATL::CTraceCategoryEx<16,0>::CTraceCategoryEx<16,0>
PUBLIC	??0?$CTraceCategoryEx@$0CA@$0A@@ATL@@QEAA@PEB_W@Z ; ATL::CTraceCategoryEx<32,0>::CTraceCategoryEx<32,0>
PUBLIC	??B?$CTraceCategoryEx@$0CA@$0A@@ATL@@QEAAIXZ	; ATL::CTraceCategoryEx<32,0>::operator unsigned int
PUBLIC	??0?$CTraceCategoryEx@$0EA@$0A@@ATL@@QEAA@PEB_W@Z ; ATL::CTraceCategoryEx<64,0>::CTraceCategoryEx<64,0>
PUBLIC	??B?$CTraceCategoryEx@$0EA@$0A@@ATL@@QEAAIXZ	; ATL::CTraceCategoryEx<64,0>::operator unsigned int
PUBLIC	??0?$CTraceCategoryEx@$0IA@$0A@@ATL@@QEAA@PEB_W@Z ; ATL::CTraceCategoryEx<128,0>::CTraceCategoryEx<128,0>
PUBLIC	??0?$CTraceCategoryEx@$0BAA@$0A@@ATL@@QEAA@PEB_W@Z ; ATL::CTraceCategoryEx<256,0>::CTraceCategoryEx<256,0>
PUBLIC	??0?$CTraceCategoryEx@$0CAA@$0A@@ATL@@QEAA@PEB_W@Z ; ATL::CTraceCategoryEx<512,0>::CTraceCategoryEx<512,0>
PUBLIC	??0?$CTraceCategoryEx@$0EAA@$0A@@ATL@@QEAA@PEB_W@Z ; ATL::CTraceCategoryEx<1024,0>::CTraceCategoryEx<1024,0>
PUBLIC	??0?$CTraceCategoryEx@$0IAA@$0A@@ATL@@QEAA@PEB_W@Z ; ATL::CTraceCategoryEx<2048,0>::CTraceCategoryEx<2048,0>
PUBLIC	??B?$CTraceCategoryEx@$0IAA@$0A@@ATL@@QEAAIXZ	; ATL::CTraceCategoryEx<2048,0>::operator unsigned int
PUBLIC	??0?$CTraceCategoryEx@$0BAAA@$0A@@ATL@@QEAA@PEB_W@Z ; ATL::CTraceCategoryEx<4096,0>::CTraceCategoryEx<4096,0>
PUBLIC	??0?$CTraceCategoryEx@$0CAAA@$0A@@ATL@@QEAA@PEB_W@Z ; ATL::CTraceCategoryEx<8192,0>::CTraceCategoryEx<8192,0>
PUBLIC	??B?$CTraceCategoryEx@$0CAAA@$0A@@ATL@@QEAAIXZ	; ATL::CTraceCategoryEx<8192,0>::operator unsigned int
PUBLIC	??0?$CTraceCategoryEx@$0EAAA@$0A@@ATL@@QEAA@PEB_W@Z ; ATL::CTraceCategoryEx<16384,0>::CTraceCategoryEx<16384,0>
PUBLIC	??0?$CTraceCategoryEx@$0IAAA@$0A@@ATL@@QEAA@PEB_W@Z ; ATL::CTraceCategoryEx<32768,0>::CTraceCategoryEx<32768,0>
PUBLIC	??0?$CTraceCategoryEx@$0BAAAA@$0A@@ATL@@QEAA@PEB_W@Z ; ATL::CTraceCategoryEx<65536,0>::CTraceCategoryEx<65536,0>
PUBLIC	??0?$CTraceCategoryEx@$0CAAAA@$0A@@ATL@@QEAA@PEB_W@Z ; ATL::CTraceCategoryEx<131072,0>::CTraceCategoryEx<131072,0>
PUBLIC	??0?$CTraceCategoryEx@$0EAAAA@$0A@@ATL@@QEAA@PEB_W@Z ; ATL::CTraceCategoryEx<262144,0>::CTraceCategoryEx<262144,0>
PUBLIC	??0?$CTraceCategoryEx@$0BAAAAA@$0A@@ATL@@QEAA@PEB_W@Z ; ATL::CTraceCategoryEx<1048576,0>::CTraceCategoryEx<1048576,0>
PUBLIC	??0?$CTraceCategoryEx@$0CAAAAA@$0A@@ATL@@QEAA@PEB_W@Z ; ATL::CTraceCategoryEx<2097152,0>::CTraceCategoryEx<2097152,0>
PUBLIC	??0?$CTraceCategoryEx@$0EAAAAA@$0A@@ATL@@QEAA@PEB_W@Z ; ATL::CTraceCategoryEx<4194304,0>::CTraceCategoryEx<4194304,0>
PUBLIC	?GetCategoryName@CTrace@ATL@@CAPEA_WI@Z		; ATL::CTrace::GetCategoryName
PUBLIC	?TraceV@CTrace@ATL@@CAXPEBDHIIPEB_W@Z		; ATL::CTrace::TraceV
PUBLIC	?TraceV@CTrace@ATL@@SAXPEBDHIIPEB_WPEAD@Z	; ATL::CTrace::TraceV
PUBLIC	?RegisterCategory@CTrace@ATL@@SAXPEB_WI@Z	; ATL::CTrace::RegisterCategory
PUBLIC	??0?$CHeapPtrBase@_WVCCRTAllocator@ATL@@@ATL@@IEAA@XZ ; ATL::CHeapPtrBase<wchar_t,ATL::CCRTAllocator>::CHeapPtrBase<wchar_t,ATL::CCRTAllocator>
PUBLIC	??1?$CHeapPtrBase@_WVCCRTAllocator@ATL@@@ATL@@QEAA@XZ ; ATL::CHeapPtrBase<wchar_t,ATL::CCRTAllocator>::~CHeapPtrBase<wchar_t,ATL::CCRTAllocator>
PUBLIC	??B?$CHeapPtrBase@_WVCCRTAllocator@ATL@@@ATL@@QEBAPEA_WXZ ; ATL::CHeapPtrBase<wchar_t,ATL::CCRTAllocator>::operator wchar_t *
PUBLIC	?AllocateBytes@?$CHeapPtrBase@_WVCCRTAllocator@ATL@@@ATL@@QEAA_N_K@Z ; ATL::CHeapPtrBase<wchar_t,ATL::CCRTAllocator>::AllocateBytes
PUBLIC	?Free@?$CHeapPtrBase@_WVCCRTAllocator@ATL@@@ATL@@QEAAXXZ ; ATL::CHeapPtrBase<wchar_t,ATL::CCRTAllocator>::Free
PUBLIC	??0?$CHeapPtr@_WVCCRTAllocator@ATL@@@ATL@@QEAA@XZ ; ATL::CHeapPtr<wchar_t,ATL::CCRTAllocator>::CHeapPtr<wchar_t,ATL::CCRTAllocator>
PUBLIC	?Allocate@?$CHeapPtr@_WVCCRTAllocator@ATL@@@ATL@@QEAA_N_K@Z ; ATL::CHeapPtr<wchar_t,ATL::CCRTAllocator>::Allocate
PUBLIC	??1?$CHeapPtr@_WVCCRTAllocator@ATL@@@ATL@@QEAA@XZ ; ATL::CHeapPtr<wchar_t,ATL::CCRTAllocator>::~CHeapPtr<wchar_t,ATL::CCRTAllocator>
PUBLIC	??0CPreserveLastError@ATL@@QEAA@XZ		; ATL::CPreserveLastError::CPreserveLastError
PUBLIC	??1CPreserveLastError@ATL@@QEAA@XZ		; ATL::CPreserveLastError::~CPreserveLastError
PUBLIC	??0CTraceFileAndLineInfo@ATL@@QEAA@PEBDH@Z	; ATL::CTraceFileAndLineInfo::CTraceFileAndLineInfo
PUBLIC	??RCTraceFileAndLineInfo@ATL@@QEBAXHIPEB_WZZ	; ATL::CTraceFileAndLineInfo::operator()
PUBLIC	?_AtlRaiseException@ATL@@YAXKK@Z		; ATL::_AtlRaiseException
PUBLIC	?AtlCrtErrorCheck@ATL@@YAHH@Z			; ATL::AtlCrtErrorCheck
PUBLIC	?wcscpy_s@Checked@ATL@@YAXPEA_W_KPEB_W@Z	; ATL::Checked::wcscpy_s
PUBLIC	?wcsncpy_s@Checked@ATL@@YAHPEA_W_KPEB_W1@Z	; ATL::Checked::wcsncpy_s
PUBLIC	?tcsncpy_s@Checked@ATL@@YAHPEA_W_KPEB_W1@Z	; ATL::Checked::tcsncpy_s
PUBLIC	?wcscat_s@Checked@ATL@@YAXPEA_W_KPEB_W@Z	; ATL::Checked::wcscat_s
PUBLIC	?_AtlInitializeCriticalSectionEx@ATL@@YAHPEAU_RTL_CRITICAL_SECTION@@KK@Z ; ATL::_AtlInitializeCriticalSectionEx
PUBLIC	??0CComCriticalSection@ATL@@QEAA@XZ		; ATL::CComCriticalSection::CComCriticalSection
PUBLIC	??1CComCriticalSection@ATL@@QEAA@XZ		; ATL::CComCriticalSection::~CComCriticalSection
PUBLIC	?Lock@CComCriticalSection@ATL@@QEAAJXZ		; ATL::CComCriticalSection::Lock
PUBLIC	?Unlock@CComCriticalSection@ATL@@QEAAJXZ	; ATL::CComCriticalSection::Unlock
PUBLIC	?Init@CComCriticalSection@ATL@@QEAAJXZ		; ATL::CComCriticalSection::Init
PUBLIC	?Term@CComCriticalSection@ATL@@QEAAJXZ		; ATL::CComCriticalSection::Term
PUBLIC	??0CComSafeDeleteCriticalSection@ATL@@QEAA@XZ	; ATL::CComSafeDeleteCriticalSection::CComSafeDeleteCriticalSection
PUBLIC	??1CComSafeDeleteCriticalSection@ATL@@QEAA@XZ	; ATL::CComSafeDeleteCriticalSection::~CComSafeDeleteCriticalSection
PUBLIC	?Init@CComSafeDeleteCriticalSection@ATL@@QEAAJXZ ; ATL::CComSafeDeleteCriticalSection::Init
PUBLIC	??0CComAutoDeleteCriticalSection@ATL@@QEAA@XZ	; ATL::CComAutoDeleteCriticalSection::CComAutoDeleteCriticalSection
PUBLIC	??1CComAutoDeleteCriticalSection@ATL@@QEAA@XZ	; ATL::CComAutoDeleteCriticalSection::~CComAutoDeleteCriticalSection
PUBLIC	?Lock@CComFakeCriticalSection@ATL@@QEAAJXZ	; ATL::CComFakeCriticalSection::Lock
PUBLIC	?Unlock@CComFakeCriticalSection@ATL@@QEAAJXZ	; ATL::CComFakeCriticalSection::Unlock
PUBLIC	?Init@CComFakeCriticalSection@ATL@@QEAAJXZ	; ATL::CComFakeCriticalSection::Init
PUBLIC	?GetModuleInstance@CAtlBaseModule@ATL@@QEAAPEAUHINSTANCE__@@XZ ; ATL::CAtlBaseModule::GetModuleInstance
PUBLIC	??0IEnumConnections@@QEAA@XZ			; IEnumConnections::IEnumConnections
PUBLIC	??0IEnumConnectionPoints@@QEAA@XZ		; IEnumConnectionPoints::IEnumConnectionPoints
PUBLIC	DllRegisterServer
PUBLIC	DllUnregisterServer
PUBLIC	?AtlHresultFromLastError@ATL@@YAJXZ		; ATL::AtlHresultFromLastError
PUBLIC	?AtlHresultFromWin32@ATL@@YAJK@Z		; ATL::AtlHresultFromWin32
PUBLIC	?AtlComQIPtrAssign2@ATL@@YAXPEAPEAUIUnknown@@PEAU2@AEBU_GUID@@@Z ; ATL::AtlComQIPtrAssign2
PUBLIC	?AtlInternalOleLoadFromStream@ATL@@YAJPEAUIStream@@AEBU_GUID@@PEAPEAXTClassesAllowedInStream@1@K@Z ; ATL::AtlInternalOleLoadFromStream
PUBLIC	??0?$CComPtrBase@UIDispatch@@@ATL@@IEAA@XZ	; ATL::CComPtrBase<IDispatch>::CComPtrBase<IDispatch>
PUBLIC	??1?$CComPtrBase@UIDispatch@@@ATL@@QEAA@XZ	; ATL::CComPtrBase<IDispatch>::~CComPtrBase<IDispatch>
PUBLIC	??I?$CComPtrBase@UIDispatch@@@ATL@@QEAAPEAPEAUIDispatch@@XZ ; ATL::CComPtrBase<IDispatch>::operator&
PUBLIC	?Release@?$CComPtrBase@UIDispatch@@@ATL@@QEAAXXZ ; ATL::CComPtrBase<IDispatch>::Release
PUBLIC	??0?$CComPtr@UIDispatch@@@ATL@@QEAA@XZ		; ATL::CComPtr<IDispatch>::CComPtr<IDispatch>
PUBLIC	?GetProperty@?$CComPtr@UIDispatch@@@ATL@@QEAAJJPEAUtagVARIANT@@@Z ; ATL::CComPtr<IDispatch>::GetProperty
PUBLIC	?PutProperty@?$CComPtr@UIDispatch@@@ATL@@QEAAJJPEAUtagVARIANT@@@Z ; ATL::CComPtr<IDispatch>::PutProperty
PUBLIC	?PutProperty@?$CComPtr@UIDispatch@@@ATL@@SAJPEAUIDispatch@@JPEAUtagVARIANT@@@Z ; ATL::CComPtr<IDispatch>::PutProperty
PUBLIC	?GetProperty@?$CComPtr@UIDispatch@@@ATL@@SAJPEAUIDispatch@@JPEAUtagVARIANT@@@Z ; ATL::CComPtr<IDispatch>::GetProperty
PUBLIC	??1?$CComPtr@UIDispatch@@@ATL@@QEAA@XZ		; ATL::CComPtr<IDispatch>::~CComPtr<IDispatch>
PUBLIC	??0?$CComPtrBase@UIUnknown@@@ATL@@IEAA@XZ	; ATL::CComPtrBase<IUnknown>::CComPtrBase<IUnknown>
PUBLIC	??0?$CComPtrBase@UIUnknown@@@ATL@@IEAA@PEAUIUnknown@@@Z ; ATL::CComPtrBase<IUnknown>::CComPtrBase<IUnknown>
PUBLIC	?Swap@?$CComPtrBase@UIUnknown@@@ATL@@IEAAXAEAV12@@Z ; ATL::CComPtrBase<IUnknown>::Swap
PUBLIC	??1?$CComPtrBase@UIUnknown@@@ATL@@QEAA@XZ	; ATL::CComPtrBase<IUnknown>::~CComPtrBase<IUnknown>
PUBLIC	??B?$CComPtrBase@UIUnknown@@@ATL@@QEBAPEAUIUnknown@@XZ ; ATL::CComPtrBase<IUnknown>::operator IUnknown *
PUBLIC	??I?$CComPtrBase@UIUnknown@@@ATL@@QEAAPEAPEAUIUnknown@@XZ ; ATL::CComPtrBase<IUnknown>::operator&
PUBLIC	??C?$CComPtrBase@UIUnknown@@@ATL@@QEBAPEAV?$_NoAddRefReleaseOnCComPtr@UIUnknown@@@1@XZ ; ATL::CComPtrBase<IUnknown>::operator->
PUBLIC	??9?$CComPtrBase@UIUnknown@@@ATL@@QEBA_NPEAUIUnknown@@@Z ; ATL::CComPtrBase<IUnknown>::operator!=
PUBLIC	??8?$CComPtrBase@UIUnknown@@@ATL@@QEBA_NPEAUIUnknown@@@Z ; ATL::CComPtrBase<IUnknown>::operator==
PUBLIC	?Detach@?$CComPtrBase@UIUnknown@@@ATL@@QEAAPEAUIUnknown@@XZ ; ATL::CComPtrBase<IUnknown>::Detach
PUBLIC	??0?$CComPtr@UIUnknown@@@ATL@@QEAA@XZ		; ATL::CComPtr<IUnknown>::CComPtr<IUnknown>
PUBLIC	??0?$CComPtr@UIUnknown@@@ATL@@QEAA@PEAUIUnknown@@@Z ; ATL::CComPtr<IUnknown>::CComPtr<IUnknown>
PUBLIC	??0?$CComPtr@UIUnknown@@@ATL@@QEAA@AEBV01@@Z	; ATL::CComPtr<IUnknown>::CComPtr<IUnknown>
PUBLIC	??4?$CComPtr@UIUnknown@@@ATL@@QEAAPEAUIUnknown@@PEAU2@@Z ; ATL::CComPtr<IUnknown>::operator=
PUBLIC	??1?$CComPtr@UIUnknown@@@ATL@@QEAA@XZ		; ATL::CComPtr<IUnknown>::~CComPtr<IUnknown>
PUBLIC	??0CComBSTR@ATL@@QEAA@XZ			; ATL::CComBSTR::CComBSTR
PUBLIC	??1CComBSTR@ATL@@QEAA@XZ			; ATL::CComBSTR::~CComBSTR
PUBLIC	?Length@CComBSTR@ATL@@QEBAIXZ			; ATL::CComBSTR::Length
PUBLIC	??BCComBSTR@ATL@@QEBAPEA_WXZ			; ATL::CComBSTR::operator wchar_t *
PUBLIC	??ICComBSTR@ATL@@QEAAPEAPEA_WXZ			; ATL::CComBSTR::operator&
PUBLIC	?Attach@CComBSTR@ATL@@QEAAXPEA_W@Z		; ATL::CComBSTR::Attach
PUBLIC	?Detach@CComBSTR@ATL@@QEAAPEA_WXZ		; ATL::CComBSTR::Detach
PUBLIC	?Empty@CComBSTR@ATL@@QEAAXXZ			; ATL::CComBSTR::Empty
PUBLIC	??7CComBSTR@ATL@@QEBA_NXZ			; ATL::CComBSTR::operator!
PUBLIC	??9CComBSTR@ATL@@QEBA_NH@Z			; ATL::CComBSTR::operator!=
PUBLIC	??8CComBSTR@ATL@@QEBA_NH@Z			; ATL::CComBSTR::operator==
PUBLIC	?WriteToStream@CComBSTR@ATL@@QEAAJPEAUIStream@@@Z ; ATL::CComBSTR::WriteToStream
PUBLIC	?ReadFromStream@CComBSTR@ATL@@QEAAJPEAUIStream@@@Z ; ATL::CComBSTR::ReadFromStream
PUBLIC	?GetStreamSize@CComBSTR@ATL@@SAKPEA_W@Z		; ATL::CComBSTR::GetStreamSize
PUBLIC	??0CComVariant@ATL@@QEAA@XZ			; ATL::CComVariant::CComVariant
PUBLIC	??1CComVariant@ATL@@QEAA@XZ			; ATL::CComVariant::~CComVariant
PUBLIC	?Clear@CComVariant@ATL@@QEAAJXZ			; ATL::CComVariant::Clear
PUBLIC	?ChangeType@CComVariant@ATL@@QEAAJGPEBUtagVARIANT@@@Z ; ATL::CComVariant::ChangeType
PUBLIC	?WriteToStream@CComVariant@ATL@@QEAAJPEAUIStream@@@Z ; ATL::CComVariant::WriteToStream
PUBLIC	?WriteToStream@CComVariant@ATL@@QEAAJPEAUIStream@@G@Z ; ATL::CComVariant::WriteToStream
PUBLIC	?ReadFromStream@CComVariant@ATL@@QEAAJPEAUIStream@@GTClassesAllowedInStream@2@K@Z ; ATL::CComVariant::ReadFromStream
PUBLIC	?GetSizeMax@CComVariant@ATL@@QEBAJPEAT_ULARGE_INTEGER@@@Z ; ATL::CComVariant::GetSizeMax
PUBLIC	??0?$CComPtrBase@UIPersistStream@@@ATL@@IEAA@XZ	; ATL::CComPtrBase<IPersistStream>::CComPtrBase<IPersistStream>
PUBLIC	??1?$CComPtrBase@UIPersistStream@@@ATL@@QEAA@XZ	; ATL::CComPtrBase<IPersistStream>::~CComPtrBase<IPersistStream>
PUBLIC	??B?$CComPtrBase@UIPersistStream@@@ATL@@QEBAPEAUIPersistStream@@XZ ; ATL::CComPtrBase<IPersistStream>::operator IPersistStream *
PUBLIC	??I?$CComPtrBase@UIPersistStream@@@ATL@@QEAAPEAPEAUIPersistStream@@XZ ; ATL::CComPtrBase<IPersistStream>::operator&
PUBLIC	??C?$CComPtrBase@UIPersistStream@@@ATL@@QEBAPEAV?$_NoAddRefReleaseOnCComPtr@UIPersistStream@@@1@XZ ; ATL::CComPtrBase<IPersistStream>::operator->
PUBLIC	??9?$CComPtrBase@UIPersistStream@@@ATL@@QEBA_NPEAUIPersistStream@@@Z ; ATL::CComPtrBase<IPersistStream>::operator!=
PUBLIC	??8?$CComPtrBase@UIPersistStream@@@ATL@@QEBA_NPEAUIPersistStream@@@Z ; ATL::CComPtrBase<IPersistStream>::operator==
PUBLIC	?Detach@?$CComPtrBase@UIPersistStream@@@ATL@@QEAAPEAUIPersistStream@@XZ ; ATL::CComPtrBase<IPersistStream>::Detach
PUBLIC	??0?$CComPtr@UIPersistStream@@@ATL@@QEAA@XZ	; ATL::CComPtr<IPersistStream>::CComPtr<IPersistStream>
PUBLIC	??1?$CComPtr@UIPersistStream@@@ATL@@QEAA@XZ	; ATL::CComPtr<IPersistStream>::~CComPtr<IPersistStream>
PUBLIC	??$QueryInterface@UIPersistStream@@@IUnknown@@QEAAJPEAPEAUIPersistStream@@@Z ; IUnknown::QueryInterface<IPersistStream>
PUBLIC	??0IRegistrarBase@@QEAA@XZ			; IRegistrarBase::IRegistrarBase
PUBLIC	?RegCreateKeyExW@CAtlTransactionManager@ATL@@QEAAJPEAUHKEY__@@PEB_WKPEA_WKKQEAU_SECURITY_ATTRIBUTES@@PEAPEAU3@PEAK@Z ; ATL::CAtlTransactionManager::RegCreateKeyExW
PUBLIC	?RegOpenKeyExW@CAtlTransactionManager@ATL@@QEAAJPEAUHKEY__@@PEB_WKKPEAPEAU3@@Z ; ATL::CAtlTransactionManager::RegOpenKeyExW
PUBLIC	?RegDeleteKeyW@CAtlTransactionManager@ATL@@QEAAJPEAUHKEY__@@PEB_W@Z ; ATL::CAtlTransactionManager::RegDeleteKeyW
PUBLIC	?Increment@CComMultiThreadModel@ATL@@SAKPEAJ@Z	; ATL::CComMultiThreadModel::Increment
PUBLIC	?Decrement@CComMultiThreadModel@ATL@@SAKPEAJ@Z	; ATL::CComMultiThreadModel::Decrement
PUBLIC	?Increment@CComSingleThreadModel@ATL@@SAKPEAJ@Z	; ATL::CComSingleThreadModel::Increment
PUBLIC	?Decrement@CComSingleThreadModel@ATL@@SAKPEAJ@Z	; ATL::CComSingleThreadModel::Decrement
PUBLIC	??0_ATL_COM_MODULE70@ATL@@QEAA@XZ		; ATL::_ATL_COM_MODULE70::_ATL_COM_MODULE70
PUBLIC	??1_ATL_COM_MODULE70@ATL@@QEAA@XZ		; ATL::_ATL_COM_MODULE70::~_ATL_COM_MODULE70
PUBLIC	??0?$CSimpleArray@GV?$CSimpleArrayEqualHelper@G@ATL@@@ATL@@QEAA@XZ ; ATL::CSimpleArray<unsigned short,ATL::CSimpleArrayEqualHelper<unsigned short> >::CSimpleArray<unsigned short,ATL::CSimpleArrayEqualHelper<unsigned short> >
PUBLIC	??1?$CSimpleArray@GV?$CSimpleArrayEqualHelper@G@ATL@@@ATL@@QEAA@XZ ; ATL::CSimpleArray<unsigned short,ATL::CSimpleArrayEqualHelper<unsigned short> >::~CSimpleArray<unsigned short,ATL::CSimpleArrayEqualHelper<unsigned short> >
PUBLIC	?GetSize@?$CSimpleArray@GV?$CSimpleArrayEqualHelper@G@ATL@@@ATL@@QEBAHXZ ; ATL::CSimpleArray<unsigned short,ATL::CSimpleArrayEqualHelper<unsigned short> >::GetSize
PUBLIC	?Add@?$CSimpleArray@GV?$CSimpleArrayEqualHelper@G@ATL@@@ATL@@QEAAHAEBG@Z ; ATL::CSimpleArray<unsigned short,ATL::CSimpleArrayEqualHelper<unsigned short> >::Add
PUBLIC	?RemoveAll@?$CSimpleArray@GV?$CSimpleArrayEqualHelper@G@ATL@@@ATL@@QEAAXXZ ; ATL::CSimpleArray<unsigned short,ATL::CSimpleArrayEqualHelper<unsigned short> >::RemoveAll
PUBLIC	??A?$CSimpleArray@GV?$CSimpleArrayEqualHelper@G@ATL@@@ATL@@QEAAAEAGH@Z ; ATL::CSimpleArray<unsigned short,ATL::CSimpleArrayEqualHelper<unsigned short> >::operator[]
PUBLIC	?InternalSetAtIndex@?$CSimpleArray@GV?$CSimpleArrayEqualHelper@G@ATL@@@ATL@@QEAAXHAEBG@Z ; ATL::CSimpleArray<unsigned short,ATL::CSimpleArrayEqualHelper<unsigned short> >::InternalSetAtIndex
PUBLIC	??0_ATL_WIN_MODULE70@ATL@@QEAA@XZ		; ATL::_ATL_WIN_MODULE70::_ATL_WIN_MODULE70
PUBLIC	??1_ATL_WIN_MODULE70@ATL@@QEAA@XZ		; ATL::_ATL_WIN_MODULE70::~_ATL_WIN_MODULE70
PUBLIC	??0_ATL_MODULE70@ATL@@QEAA@XZ			; ATL::_ATL_MODULE70::_ATL_MODULE70
PUBLIC	??1_ATL_MODULE70@ATL@@QEAA@XZ			; ATL::_ATL_MODULE70::~_ATL_MODULE70
PUBLIC	?AtlInternalQueryInterface@ATL@@YAJPEAXPEBU_ATL_INTMAP_ENTRY@1@AEBU_GUID@@PEAPEAX@Z ; ATL::AtlInternalQueryInterface
PUBLIC	?AtlComModuleGetClassObject@ATL@@YAJPEAU_ATL_COM_MODULE70@1@AEBU_GUID@@1PEAPEAX@Z ; ATL::AtlComModuleGetClassObject
PUBLIC	?AtlRegisterClassCategoriesHelper@ATL@@YAJAEBU_GUID@@PEBU_ATL_CATMAP_ENTRY@1@H@Z ; ATL::AtlRegisterClassCategoriesHelper
PUBLIC	?AtlGetPerUserRegistration@ATL@@YAJPEA_N@Z	; ATL::AtlGetPerUserRegistration
PUBLIC	?AtlLoadTypeLib@ATL@@YAJPEAUHINSTANCE__@@PEB_WPEAPEA_WPEAPEAUITypeLib@@@Z ; ATL::AtlLoadTypeLib
PUBLIC	?AtlRegisterTypeLib@ATL@@YAJPEAUHINSTANCE__@@PEB_W@Z ; ATL::AtlRegisterTypeLib
PUBLIC	?AtlUnRegisterTypeLib@ATL@@YAJPEAUHINSTANCE__@@PEB_W@Z ; ATL::AtlUnRegisterTypeLib
PUBLIC	?AtlComModuleRegisterServer@ATL@@YAJPEAU_ATL_COM_MODULE70@1@HPEBU_GUID@@@Z ; ATL::AtlComModuleRegisterServer
PUBLIC	?AtlComModuleUnregisterServer@ATL@@YAJPEAU_ATL_COM_MODULE70@1@HPEBU_GUID@@@Z ; ATL::AtlComModuleUnregisterServer
PUBLIC	?AtlModuleAddTermFunc@ATL@@YAJPEAU_ATL_MODULE70@1@P6AX_K@Z1@Z ; ATL::AtlModuleAddTermFunc
PUBLIC	?AtlCallTermFunc@ATL@@YAXPEAU_ATL_MODULE70@1@@Z	; ATL::AtlCallTermFunc
PUBLIC	?AtlWinModuleInit@ATL@@YAJPEAU_ATL_WIN_MODULE70@1@@Z ; ATL::AtlWinModuleInit
PUBLIC	?AtlWinModuleTerm@ATL@@YAJPEAU_ATL_WIN_MODULE70@1@PEAUHINSTANCE__@@@Z ; ATL::AtlWinModuleTerm
PUBLIC	?AtlWinModuleAddCreateWndData@ATL@@YAXPEAU_ATL_WIN_MODULE70@1@PEAU_AtlCreateWndData@1@PEAX@Z ; ATL::AtlWinModuleAddCreateWndData
PUBLIC	?AtlWinModuleExtractCreateWndData@ATL@@YAPEAXPEAU_ATL_WIN_MODULE70@1@@Z ; ATL::AtlWinModuleExtractCreateWndData
PUBLIC	?InlineIsEqualUnknown@ATL@@YAHAEBU_GUID@@@Z	; ATL::InlineIsEqualUnknown
PUBLIC	??0CRegKey@ATL@@QEAA@PEAVCAtlTransactionManager@1@@Z ; ATL::CRegKey::CRegKey
PUBLIC	??0CRegKey@ATL@@QEAA@PEAUHKEY__@@@Z		; ATL::CRegKey::CRegKey
PUBLIC	??1CRegKey@ATL@@QEAA@XZ				; ATL::CRegKey::~CRegKey
PUBLIC	??BCRegKey@ATL@@QEBAPEAUHKEY__@@XZ		; ATL::CRegKey::operator HKEY__ *
PUBLIC	?SetDWORDValue@CRegKey@ATL@@QEAAJPEB_WK@Z	; ATL::CRegKey::SetDWORDValue
PUBLIC	?SetStringValue@CRegKey@ATL@@QEAAJPEB_W0K@Z	; ATL::CRegKey::SetStringValue
PUBLIC	?SetMultiStringValue@CRegKey@ATL@@QEAAJPEB_W0@Z	; ATL::CRegKey::SetMultiStringValue
PUBLIC	?atlCreate@CRegKey@ATL@@QEAAJPEAUHKEY__@@PEB_WPEA_WKKPEAU_SECURITY_ATTRIBUTES@@PEAK@Z ; ATL::CRegKey::atlCreate
PUBLIC	?Open@CRegKey@ATL@@QEAAJPEAUHKEY__@@PEB_WK@Z	; ATL::CRegKey::Open
PUBLIC	?Close@CRegKey@ATL@@QEAAJXZ			; ATL::CRegKey::Close
PUBLIC	?Detach@CRegKey@ATL@@QEAAPEAUHKEY__@@XZ		; ATL::CRegKey::Detach
PUBLIC	?Attach@CRegKey@ATL@@QEAAXPEAUHKEY__@@@Z	; ATL::CRegKey::Attach
PUBLIC	?DeleteSubKey@CRegKey@ATL@@QEAAJPEB_W@Z		; ATL::CRegKey::DeleteSubKey
PUBLIC	?RecurseDeleteKey@CRegKey@ATL@@QEAAJPEB_W@Z	; ATL::CRegKey::RecurseDeleteKey
PUBLIC	?DeleteValue@CRegKey@ATL@@QEAAJPEB_W@Z		; ATL::CRegKey::DeleteValue
PUBLIC	??0CAtlComModule@ATL@@QEAA@XZ			; ATL::CAtlComModule::CAtlComModule
PUBLIC	??1CAtlComModule@ATL@@QEAA@XZ			; ATL::CAtlComModule::~CAtlComModule
PUBLIC	?Term@CAtlComModule@ATL@@QEAAXXZ		; ATL::CAtlComModule::Term
PUBLIC	?RegisterServer@CAtlComModule@ATL@@QEAAJHPEBU_GUID@@@Z ; ATL::CAtlComModule::RegisterServer
PUBLIC	?UnregisterServer@CAtlComModule@ATL@@QEAAJHPEBU_GUID@@@Z ; ATL::CAtlComModule::UnregisterServer
PUBLIC	??0CAtlWinModule@ATL@@QEAA@XZ			; ATL::CAtlWinModule::CAtlWinModule
PUBLIC	??1CAtlWinModule@ATL@@QEAA@XZ			; ATL::CAtlWinModule::~CAtlWinModule
PUBLIC	?Term@CAtlWinModule@ATL@@QEAAXXZ		; ATL::CAtlWinModule::Term
PUBLIC	?AddCreateWndData@CAtlWinModule@ATL@@QEAAXPEAU_AtlCreateWndData@2@PEAX@Z ; ATL::CAtlWinModule::AddCreateWndData
PUBLIC	?ExtractCreateWndData@CAtlWinModule@ATL@@QEAAPEAXXZ ; ATL::CAtlWinModule::ExtractCreateWndData
PUBLIC	??0CAtlModule@ATL@@QEAA@XZ			; ATL::CAtlModule::CAtlModule
PUBLIC	?Term@CAtlModule@ATL@@QEAAXXZ			; ATL::CAtlModule::Term
PUBLIC	??1CAtlModule@ATL@@UEAA@XZ			; ATL::CAtlModule::~CAtlModule
PUBLIC	?Lock@CAtlModule@ATL@@UEAAJXZ			; ATL::CAtlModule::Lock
PUBLIC	?Unlock@CAtlModule@ATL@@UEAAJXZ			; ATL::CAtlModule::Unlock
PUBLIC	?GetLockCount@CAtlModule@ATL@@UEAAJXZ		; ATL::CAtlModule::GetLockCount
PUBLIC	?AddTermFunc@CAtlModule@ATL@@QEAAJP6AX_K@Z0@Z	; ATL::CAtlModule::AddTermFunc
PUBLIC	?GetGITPtr@CAtlModule@ATL@@UEAAJPEAPEAUIGlobalInterfaceTable@@@Z ; ATL::CAtlModule::GetGITPtr
PUBLIC	?UpdateRegistryFromResource@CAtlModule@ATL@@QEAAJPEB_WHPEAU_ATL_REGMAP_ENTRY@2@@Z ; ATL::CAtlModule::UpdateRegistryFromResource
PUBLIC	?UpdateRegistryFromResource@CAtlModule@ATL@@QEAAJIHPEAU_ATL_REGMAP_ENTRY@2@@Z ; ATL::CAtlModule::UpdateRegistryFromResource
PUBLIC	?EscapeSingleQuote@CAtlModule@ATL@@SAXPEA_W_KPEB_W@Z ; ATL::CAtlModule::EscapeSingleQuote
PUBLIC	??0?$CAtlModuleT@VCComModule@ATL@@@ATL@@QEAA@XZ	; ATL::CAtlModuleT<ATL::CComModule>::CAtlModuleT<ATL::CComModule>
PUBLIC	?InitLibId@?$CAtlModuleT@VCComModule@ATL@@@ATL@@SAXXZ ; ATL::CAtlModuleT<ATL::CComModule>::InitLibId
PUBLIC	?RegisterServer@?$CAtlModuleT@VCComModule@ATL@@@ATL@@QEAAJHPEBU_GUID@@@Z ; ATL::CAtlModuleT<ATL::CComModule>::RegisterServer
PUBLIC	?UnregisterServer@?$CAtlModuleT@VCComModule@ATL@@@ATL@@QEAAJHPEBU_GUID@@@Z ; ATL::CAtlModuleT<ATL::CComModule>::UnregisterServer
PUBLIC	?AddCommonRGSReplacements@?$CAtlModuleT@VCComModule@ATL@@@ATL@@UEAAJPEAUIRegistrarBase@@@Z ; ATL::CAtlModuleT<ATL::CComModule>::AddCommonRGSReplacements
PUBLIC	?GetAppId@?$CAtlModuleT@VCComModule@ATL@@@ATL@@SAPEB_WXZ ; ATL::CAtlModuleT<ATL::CComModule>::GetAppId
PUBLIC	??1?$CAtlModuleT@VCComModule@ATL@@@ATL@@UEAA@XZ	; ATL::CAtlModuleT<ATL::CComModule>::~CAtlModuleT<ATL::CComModule>
PUBLIC	??0CComModule@ATL@@QEAA@XZ			; ATL::CComModule::CComModule
PUBLIC	??1CComModule@ATL@@UEAA@XZ			; ATL::CComModule::~CComModule
PUBLIC	?Init@CComModule@ATL@@QEAAJPEAU_ATL_OBJMAP_ENTRY30@2@PEAUHINSTANCE__@@PEBU_GUID@@@Z ; ATL::CComModule::Init
PUBLIC	?Term@CComModule@ATL@@QEAAXXZ			; ATL::CComModule::Term
PUBLIC	?GetClassObject@CComModule@ATL@@QEAAJAEBU_GUID@@0PEAPEAX@Z ; ATL::CComModule::GetClassObject
PUBLIC	?RegisterServer@CComModule@ATL@@QEAAJHPEBU_GUID@@@Z ; ATL::CComModule::RegisterServer
PUBLIC	?UnregisterServer@CComModule@ATL@@QEAAJHPEBU_GUID@@@Z ; ATL::CComModule::UnregisterServer
PUBLIC	?UpdateRegistryFromResourceD@CComModule@ATL@@UEAAJPEB_WHPEAU_ATL_REGMAP_ENTRY@2@@Z ; ATL::CComModule::UpdateRegistryFromResourceD
PUBLIC	?UpdateRegistryFromResourceD@CComModule@ATL@@UEAAJIHPEAU_ATL_REGMAP_ENTRY@2@@Z ; ATL::CComModule::UpdateRegistryFromResourceD
PUBLIC	?UpdateRegistryFromResource@CComModule@ATL@@UEAAJPEB_WHPEAU_ATL_REGMAP_ENTRY@2@@Z ; ATL::CComModule::UpdateRegistryFromResource
PUBLIC	?UpdateRegistryFromResource@CComModule@ATL@@UEAAJIHPEAU_ATL_REGMAP_ENTRY@2@@Z ; ATL::CComModule::UpdateRegistryFromResource
PUBLIC	??_GCComModule@ATL@@UEAAPEAXI@Z			; ATL::CComModule::`scalar deleting destructor'
PUBLIC	?IsEqualKey@CExpansionVectorEqualHelper@ATL@@SA_NQEA_W0@Z ; ATL::CExpansionVectorEqualHelper::IsEqualKey
PUBLIC	??0?$CSimpleMap@PEA_WPEA_WVCExpansionVectorEqualHelper@ATL@@@ATL@@QEAA@XZ ; ATL::CSimpleMap<wchar_t *,wchar_t *,ATL::CExpansionVectorEqualHelper>::CSimpleMap<wchar_t *,wchar_t *,ATL::CExpansionVectorEqualHelper>
PUBLIC	??1?$CSimpleMap@PEA_WPEA_WVCExpansionVectorEqualHelper@ATL@@@ATL@@QEAA@XZ ; ATL::CSimpleMap<wchar_t *,wchar_t *,ATL::CExpansionVectorEqualHelper>::~CSimpleMap<wchar_t *,wchar_t *,ATL::CExpansionVectorEqualHelper>
PUBLIC	?GetSize@?$CSimpleMap@PEA_WPEA_WVCExpansionVectorEqualHelper@ATL@@@ATL@@QEBAHXZ ; ATL::CSimpleMap<wchar_t *,wchar_t *,ATL::CExpansionVectorEqualHelper>::GetSize
PUBLIC	?Add@?$CSimpleMap@PEA_WPEA_WVCExpansionVectorEqualHelper@ATL@@@ATL@@QEAAHAEBQEA_W0@Z ; ATL::CSimpleMap<wchar_t *,wchar_t *,ATL::CExpansionVectorEqualHelper>::Add
PUBLIC	?RemoveAll@?$CSimpleMap@PEA_WPEA_WVCExpansionVectorEqualHelper@ATL@@@ATL@@QEAAXXZ ; ATL::CSimpleMap<wchar_t *,wchar_t *,ATL::CExpansionVectorEqualHelper>::RemoveAll
PUBLIC	?Lookup@?$CSimpleMap@PEA_WPEA_WVCExpansionVectorEqualHelper@ATL@@@ATL@@QEBAPEA_WAEBQEA_W@Z ; ATL::CSimpleMap<wchar_t *,wchar_t *,ATL::CExpansionVectorEqualHelper>::Lookup
PUBLIC	?GetKeyAt@?$CSimpleMap@PEA_WPEA_WVCExpansionVectorEqualHelper@ATL@@@ATL@@QEBAAEAPEA_WH@Z ; ATL::CSimpleMap<wchar_t *,wchar_t *,ATL::CExpansionVectorEqualHelper>::GetKeyAt
PUBLIC	?GetValueAt@?$CSimpleMap@PEA_WPEA_WVCExpansionVectorEqualHelper@ATL@@@ATL@@QEBAAEAPEA_WH@Z ; ATL::CSimpleMap<wchar_t *,wchar_t *,ATL::CExpansionVectorEqualHelper>::GetValueAt
PUBLIC	?FindKey@?$CSimpleMap@PEA_WPEA_WVCExpansionVectorEqualHelper@ATL@@@ATL@@QEBAHAEBQEA_W@Z ; ATL::CSimpleMap<wchar_t *,wchar_t *,ATL::CExpansionVectorEqualHelper>::FindKey
PUBLIC	?InternalSetAtIndex@?$CSimpleMap@PEA_WPEA_WVCExpansionVectorEqualHelper@ATL@@@ATL@@QEAAXHAEBQEA_W0@Z ; ATL::CSimpleMap<wchar_t *,wchar_t *,ATL::CExpansionVectorEqualHelper>::InternalSetAtIndex
PUBLIC	??1CExpansionVector@ATL@@QEAA@XZ		; ATL::CExpansionVector::~CExpansionVector
PUBLIC	?Add@CExpansionVector@ATL@@QEAAHPEB_W0@Z	; ATL::CExpansionVector::Add
PUBLIC	?ClearReplacements@CExpansionVector@ATL@@QEAAJXZ ; ATL::CExpansionVector::ClearReplacements
PUBLIC	??0CExpansionVector@ATL@@QEAA@XZ		; ATL::CExpansionVector::CExpansionVector
PUBLIC	??0?$CAutoVectorPtr@_W@ATL@@QEAA@XZ		; ATL::CAutoVectorPtr<wchar_t>::CAutoVectorPtr<wchar_t>
PUBLIC	??1?$CAutoVectorPtr@_W@ATL@@QEAA@XZ		; ATL::CAutoVectorPtr<wchar_t>::~CAutoVectorPtr<wchar_t>
PUBLIC	?Attach@?$CAutoVectorPtr@_W@ATL@@QEAAXPEA_W@Z	; ATL::CAutoVectorPtr<wchar_t>::Attach
PUBLIC	?Detach@?$CAutoVectorPtr@_W@ATL@@QEAAPEA_WXZ	; ATL::CAutoVectorPtr<wchar_t>::Detach
PUBLIC	?Free@?$CAutoVectorPtr@_W@ATL@@QEAAXXZ		; ATL::CAutoVectorPtr<wchar_t>::Free
PUBLIC	??0CRegParser@ATL@@QEAA@PEAVCRegObject@1@@Z	; ATL::CRegParser::CRegParser
PUBLIC	?PreProcessBuffer@CRegParser@ATL@@QEAAJPEA_WPEAPEA_W@Z ; ATL::CRegParser::PreProcessBuffer
PUBLIC	?RegisterBuffer@CRegParser@ATL@@QEAAJPEA_WH@Z	; ATL::CRegParser::RegisterBuffer
PUBLIC	?SkipWhiteSpace@CRegParser@ATL@@IEAAXXZ		; ATL::CRegParser::SkipWhiteSpace
PUBLIC	?NextToken@CRegParser@ATL@@IEAAJPEA_W@Z		; ATL::CRegParser::NextToken
PUBLIC	?AddValue@CRegParser@ATL@@IEAAJAEAVCRegKey@2@PEB_WPEA_W@Z ; ATL::CRegParser::AddValue
PUBLIC	?CanForceRemoveKey@CRegParser@ATL@@IEAAHPEB_W@Z	; ATL::CRegParser::CanForceRemoveKey
PUBLIC	?HasSubKeys@CRegParser@ATL@@IEAAHPEAUHKEY__@@@Z	; ATL::CRegParser::HasSubKeys
PUBLIC	?RegisterSubkeys@CRegParser@ATL@@IEAAJPEA_WPEAUHKEY__@@HH@Z ; ATL::CRegParser::RegisterSubkeys
PUBLIC	?IsSpace@CRegParser@ATL@@IEAAH_W@Z		; ATL::CRegParser::IsSpace
PUBLIC	?GenerateError@CRegParser@ATL@@IEAAJI@Z		; ATL::CRegParser::GenerateError
PUBLIC	?SkipAssignment@CRegParser@ATL@@IEAAJPEA_W@Z	; ATL::CRegParser::SkipAssignment
PUBLIC	?EndOfVar@CRegParser@ATL@@IEAAHXZ		; ATL::CRegParser::EndOfVar
PUBLIC	?StrChrW@CRegParser@ATL@@KAPEA_WPEA_W_W@Z	; ATL::CRegParser::StrChrW
PUBLIC	?HKeyFromString@CRegParser@ATL@@KAPEAUHKEY__@@PEA_W@Z ; ATL::CRegParser::HKeyFromString
PUBLIC	?ChToByte@CRegParser@ATL@@KAE_W@Z		; ATL::CRegParser::ChToByte
PUBLIC	?VTFromRegType@CRegParser@ATL@@KAHPEB_WAEAG@Z	; ATL::CRegParser::VTFromRegType
PUBLIC	??0CParseBuffer@CRegParser@ATL@@QEAA@H@Z	; ATL::CRegParser::CParseBuffer::CParseBuffer
PUBLIC	??1CParseBuffer@CRegParser@ATL@@QEAA@XZ		; ATL::CRegParser::CParseBuffer::~CParseBuffer
PUBLIC	?Append@CParseBuffer@CRegParser@ATL@@QEAAHPEB_WH@Z ; ATL::CRegParser::CParseBuffer::Append
PUBLIC	?AddChar@CParseBuffer@CRegParser@ATL@@QEAAHPEB_W@Z ; ATL::CRegParser::CParseBuffer::AddChar
PUBLIC	?AddString@CParseBuffer@CRegParser@ATL@@QEAAHPEB_W@Z ; ATL::CRegParser::CParseBuffer::AddString
PUBLIC	?Detach@CParseBuffer@CRegParser@ATL@@QEAAPEA_WXZ ; ATL::CRegParser::CParseBuffer::Detach
PUBLIC	?QueryInterface@CRegObject@ATL@@UEAAJAEBU_GUID@@PEAPEAX@Z ; ATL::CRegObject::QueryInterface
PUBLIC	?AddRef@CRegObject@ATL@@UEAAKXZ			; ATL::CRegObject::AddRef
PUBLIC	?Release@CRegObject@ATL@@UEAAKXZ		; ATL::CRegObject::Release
PUBLIC	??1CRegObject@ATL@@UEAA@XZ			; ATL::CRegObject::~CRegObject
PUBLIC	?FinalConstruct@CRegObject@ATL@@QEAAJXZ		; ATL::CRegObject::FinalConstruct
PUBLIC	?AddReplacement@CRegObject@ATL@@UEAAJPEB_W0@Z	; ATL::CRegObject::AddReplacement
PUBLIC	?ClearReplacements@CRegObject@ATL@@UEAAJXZ	; ATL::CRegObject::ClearReplacements
PUBLIC	?StrFromMap@CRegObject@ATL@@QEAAPEB_WPEA_W@Z	; ATL::CRegObject::StrFromMap
PUBLIC	?ResourceRegister@CRegObject@ATL@@QEAAJPEB_WI0@Z ; ATL::CRegObject::ResourceRegister
PUBLIC	?ResourceRegisterSz@CRegObject@ATL@@QEAAJPEB_W00@Z ; ATL::CRegObject::ResourceRegisterSz
PUBLIC	?ResourceUnregister@CRegObject@ATL@@QEAAJPEB_WI0@Z ; ATL::CRegObject::ResourceUnregister
PUBLIC	?ResourceUnregisterSz@CRegObject@ATL@@QEAAJPEB_W00@Z ; ATL::CRegObject::ResourceUnregisterSz
PUBLIC	?RegisterFromResource@CRegObject@ATL@@IEAAJPEB_W00H@Z ; ATL::CRegObject::RegisterFromResource
PUBLIC	??0CRegObject@ATL@@QEAA@XZ			; ATL::CRegObject::CRegObject
PUBLIC	??_GCRegObject@ATL@@UEAAPEAXI@Z			; ATL::CRegObject::`scalar deleting destructor'
PUBLIC	??0?$CTempBuffer@_W$0EAA@VCCRTAllocator@ATL@@@ATL@@QEAA@XZ ; ATL::CTempBuffer<wchar_t,1024,ATL::CCRTAllocator>::CTempBuffer<wchar_t,1024,ATL::CCRTAllocator>
PUBLIC	??1?$CTempBuffer@_W$0EAA@VCCRTAllocator@ATL@@@ATL@@QEAA@XZ ; ATL::CTempBuffer<wchar_t,1024,ATL::CCRTAllocator>::~CTempBuffer<wchar_t,1024,ATL::CCRTAllocator>
PUBLIC	??B?$CTempBuffer@_W$0EAA@VCCRTAllocator@ATL@@@ATL@@QEBAPEA_WXZ ; ATL::CTempBuffer<wchar_t,1024,ATL::CCRTAllocator>::operator wchar_t *
PUBLIC	?Allocate@?$CTempBuffer@_W$0EAA@VCCRTAllocator@ATL@@@ATL@@QEAAPEA_W_K@Z ; ATL::CTempBuffer<wchar_t,1024,ATL::CCRTAllocator>::Allocate
PUBLIC	?AllocateBytes@?$CTempBuffer@_W$0EAA@VCCRTAllocator@ATL@@@ATL@@QEAAPEA_W_K@Z ; ATL::CTempBuffer<wchar_t,1024,ATL::CCRTAllocator>::AllocateBytes
PUBLIC	?AllocateHeap@?$CTempBuffer@_W$0EAA@VCCRTAllocator@ATL@@@ATL@@AEAAX_K@Z ; ATL::CTempBuffer<wchar_t,1024,ATL::CCRTAllocator>::AllocateHeap
PUBLIC	?FreeHeap@?$CTempBuffer@_W$0EAA@VCCRTAllocator@ATL@@@ATL@@AEAAXXZ ; ATL::CTempBuffer<wchar_t,1024,ATL::CCRTAllocator>::FreeHeap
PUBLIC	??0?$CTempBuffer@_W$0BAA@VCCRTAllocator@ATL@@@ATL@@QEAA@XZ ; ATL::CTempBuffer<wchar_t,256,ATL::CCRTAllocator>::CTempBuffer<wchar_t,256,ATL::CCRTAllocator>
PUBLIC	??1?$CTempBuffer@_W$0BAA@VCCRTAllocator@ATL@@@ATL@@QEAA@XZ ; ATL::CTempBuffer<wchar_t,256,ATL::CCRTAllocator>::~CTempBuffer<wchar_t,256,ATL::CCRTAllocator>
PUBLIC	??B?$CTempBuffer@_W$0BAA@VCCRTAllocator@ATL@@@ATL@@QEBAPEA_WXZ ; ATL::CTempBuffer<wchar_t,256,ATL::CCRTAllocator>::operator wchar_t *
PUBLIC	?Allocate@?$CTempBuffer@_W$0BAA@VCCRTAllocator@ATL@@@ATL@@QEAAPEA_W_K@Z ; ATL::CTempBuffer<wchar_t,256,ATL::CCRTAllocator>::Allocate
PUBLIC	?AllocateBytes@?$CTempBuffer@_W$0BAA@VCCRTAllocator@ATL@@@ATL@@QEAAPEA_W_K@Z ; ATL::CTempBuffer<wchar_t,256,ATL::CCRTAllocator>::AllocateBytes
PUBLIC	?AllocateHeap@?$CTempBuffer@_W$0BAA@VCCRTAllocator@ATL@@@ATL@@AEAAX_K@Z ; ATL::CTempBuffer<wchar_t,256,ATL::CCRTAllocator>::AllocateHeap
PUBLIC	?FreeHeap@?$CTempBuffer@_W$0BAA@VCCRTAllocator@ATL@@@ATL@@AEAAXXZ ; ATL::CTempBuffer<wchar_t,256,ATL::CCRTAllocator>::FreeHeap
PUBLIC	??0?$CTempBuffer@E$0BAA@VCCRTAllocator@ATL@@@ATL@@QEAA@XZ ; ATL::CTempBuffer<unsigned char,256,ATL::CCRTAllocator>::CTempBuffer<unsigned char,256,ATL::CCRTAllocator>
PUBLIC	??1?$CTempBuffer@E$0BAA@VCCRTAllocator@ATL@@@ATL@@QEAA@XZ ; ATL::CTempBuffer<unsigned char,256,ATL::CCRTAllocator>::~CTempBuffer<unsigned char,256,ATL::CCRTAllocator>
PUBLIC	??B?$CTempBuffer@E$0BAA@VCCRTAllocator@ATL@@@ATL@@QEBAPEAEXZ ; ATL::CTempBuffer<unsigned char,256,ATL::CCRTAllocator>::operator unsigned char *
PUBLIC	?Allocate@?$CTempBuffer@E$0BAA@VCCRTAllocator@ATL@@@ATL@@QEAAPEAE_K@Z ; ATL::CTempBuffer<unsigned char,256,ATL::CCRTAllocator>::Allocate
PUBLIC	?AllocateBytes@?$CTempBuffer@E$0BAA@VCCRTAllocator@ATL@@@ATL@@QEAAPEAE_K@Z ; ATL::CTempBuffer<unsigned char,256,ATL::CCRTAllocator>::AllocateBytes
PUBLIC	?AllocateHeap@?$CTempBuffer@E$0BAA@VCCRTAllocator@ATL@@@ATL@@AEAAX_K@Z ; ATL::CTempBuffer<unsigned char,256,ATL::CCRTAllocator>::AllocateHeap
PUBLIC	?FreeHeap@?$CTempBuffer@E$0BAA@VCCRTAllocator@ATL@@@ATL@@AEAAXXZ ; ATL::CTempBuffer<unsigned char,256,ATL::CCRTAllocator>::FreeHeap
PUBLIC	??0?$CComPtrBase@UICatRegister@@@ATL@@IEAA@XZ	; ATL::CComPtrBase<ICatRegister>::CComPtrBase<ICatRegister>
PUBLIC	??1?$CComPtrBase@UICatRegister@@@ATL@@QEAA@XZ	; ATL::CComPtrBase<ICatRegister>::~CComPtrBase<ICatRegister>
PUBLIC	??I?$CComPtrBase@UICatRegister@@@ATL@@QEAAPEAPEAUICatRegister@@XZ ; ATL::CComPtrBase<ICatRegister>::operator&
PUBLIC	??C?$CComPtrBase@UICatRegister@@@ATL@@QEBAPEAV?$_NoAddRefReleaseOnCComPtr@UICatRegister@@@1@XZ ; ATL::CComPtrBase<ICatRegister>::operator->
PUBLIC	??0?$CComPtr@UICatRegister@@@ATL@@QEAA@XZ	; ATL::CComPtr<ICatRegister>::CComPtr<ICatRegister>
PUBLIC	??1?$CComPtr@UICatRegister@@@ATL@@QEAA@XZ	; ATL::CComPtr<ICatRegister>::~CComPtr<ICatRegister>
PUBLIC	??0?$CComPtrBase@UITypeLib@@@ATL@@IEAA@XZ	; ATL::CComPtrBase<ITypeLib>::CComPtrBase<ITypeLib>
PUBLIC	??1?$CComPtrBase@UITypeLib@@@ATL@@QEAA@XZ	; ATL::CComPtrBase<ITypeLib>::~CComPtrBase<ITypeLib>
PUBLIC	??B?$CComPtrBase@UITypeLib@@@ATL@@QEBAPEAUITypeLib@@XZ ; ATL::CComPtrBase<ITypeLib>::operator ITypeLib *
PUBLIC	??I?$CComPtrBase@UITypeLib@@@ATL@@QEAAPEAPEAUITypeLib@@XZ ; ATL::CComPtrBase<ITypeLib>::operator&
PUBLIC	??C?$CComPtrBase@UITypeLib@@@ATL@@QEBAPEAV?$_NoAddRefReleaseOnCComPtr@UITypeLib@@@1@XZ ; ATL::CComPtrBase<ITypeLib>::operator->
PUBLIC	??0?$CComPtr@UITypeLib@@@ATL@@QEAA@XZ		; ATL::CComPtr<ITypeLib>::CComPtr<ITypeLib>
PUBLIC	??1?$CComPtr@UITypeLib@@@ATL@@QEAA@XZ		; ATL::CComPtr<ITypeLib>::~CComPtr<ITypeLib>
PUBLIC	??0?$CComCritSecLock@VCComCriticalSection@ATL@@@ATL@@QEAA@AEAVCComCriticalSection@1@_N@Z ; ATL::CComCritSecLock<ATL::CComCriticalSection>::CComCritSecLock<ATL::CComCriticalSection>
PUBLIC	??1?$CComCritSecLock@VCComCriticalSection@ATL@@@ATL@@QEAA@XZ ; ATL::CComCritSecLock<ATL::CComCriticalSection>::~CComCritSecLock<ATL::CComCriticalSection>
PUBLIC	?Lock@?$CComCritSecLock@VCComCriticalSection@ATL@@@ATL@@QEAAJXZ ; ATL::CComCritSecLock<ATL::CComCriticalSection>::Lock
PUBLIC	?Unlock@?$CComCritSecLock@VCComCriticalSection@ATL@@@ATL@@QEAAXXZ ; ATL::CComCritSecLock<ATL::CComCriticalSection>::Unlock
PUBLIC	??0?$CComPtrBase@UIConnectionPointContainer@@@ATL@@IEAA@XZ ; ATL::CComPtrBase<IConnectionPointContainer>::CComPtrBase<IConnectionPointContainer>
PUBLIC	??1?$CComPtrBase@UIConnectionPointContainer@@@ATL@@QEAA@XZ ; ATL::CComPtrBase<IConnectionPointContainer>::~CComPtrBase<IConnectionPointContainer>
PUBLIC	??I?$CComPtrBase@UIConnectionPointContainer@@@ATL@@QEAAPEAPEAUIConnectionPointContainer@@XZ ; ATL::CComPtrBase<IConnectionPointContainer>::operator&
PUBLIC	??C?$CComPtrBase@UIConnectionPointContainer@@@ATL@@QEBAPEAV?$_NoAddRefReleaseOnCComPtr@UIConnectionPointContainer@@@1@XZ ; ATL::CComPtrBase<IConnectionPointContainer>::operator->
PUBLIC	??9?$CComPtrBase@UIConnectionPointContainer@@@ATL@@QEBA_NPEAUIConnectionPointContainer@@@Z ; ATL::CComPtrBase<IConnectionPointContainer>::operator!=
PUBLIC	??8?$CComPtrBase@UIConnectionPointContainer@@@ATL@@QEBA_NPEAUIConnectionPointContainer@@@Z ; ATL::CComPtrBase<IConnectionPointContainer>::operator==
PUBLIC	??0?$CComPtr@UIConnectionPointContainer@@@ATL@@QEAA@XZ ; ATL::CComPtr<IConnectionPointContainer>::CComPtr<IConnectionPointContainer>
PUBLIC	??1?$CComPtr@UIConnectionPointContainer@@@ATL@@QEAA@XZ ; ATL::CComPtr<IConnectionPointContainer>::~CComPtr<IConnectionPointContainer>
PUBLIC	??0?$CComPtrBase@UIConnectionPoint@@@ATL@@IEAA@XZ ; ATL::CComPtrBase<IConnectionPoint>::CComPtrBase<IConnectionPoint>
PUBLIC	??1?$CComPtrBase@UIConnectionPoint@@@ATL@@QEAA@XZ ; ATL::CComPtrBase<IConnectionPoint>::~CComPtrBase<IConnectionPoint>
PUBLIC	??I?$CComPtrBase@UIConnectionPoint@@@ATL@@QEAAPEAPEAUIConnectionPoint@@XZ ; ATL::CComPtrBase<IConnectionPoint>::operator&
PUBLIC	??C?$CComPtrBase@UIConnectionPoint@@@ATL@@QEBAPEAV?$_NoAddRefReleaseOnCComPtr@UIConnectionPoint@@@1@XZ ; ATL::CComPtrBase<IConnectionPoint>::operator->
PUBLIC	??0?$CComPtr@UIConnectionPoint@@@ATL@@QEAA@XZ	; ATL::CComPtr<IConnectionPoint>::CComPtr<IConnectionPoint>
PUBLIC	??1?$CComPtr@UIConnectionPoint@@@ATL@@QEAA@XZ	; ATL::CComPtr<IConnectionPoint>::~CComPtr<IConnectionPoint>
PUBLIC	?Init@CDynamicStdCallThunk2@ATL@@QEAAH_KPEAX@Z	; ATL::CDynamicStdCallThunk2::Init
PUBLIC	?GetCodeAddress@CDynamicStdCallThunk2@ATL@@QEAAPEAXXZ ; ATL::CDynamicStdCallThunk2::GetCodeAddress
PUBLIC	??0?$CComPtrBase@UITypeInfo@@@ATL@@IEAA@XZ	; ATL::CComPtrBase<ITypeInfo>::CComPtrBase<ITypeInfo>
PUBLIC	??0?$CComPtrBase@UITypeInfo@@@ATL@@IEAA@PEAUITypeInfo@@@Z ; ATL::CComPtrBase<ITypeInfo>::CComPtrBase<ITypeInfo>
PUBLIC	??1?$CComPtrBase@UITypeInfo@@@ATL@@QEAA@XZ	; ATL::CComPtrBase<ITypeInfo>::~CComPtrBase<ITypeInfo>
PUBLIC	??B?$CComPtrBase@UITypeInfo@@@ATL@@QEBAPEAUITypeInfo@@XZ ; ATL::CComPtrBase<ITypeInfo>::operator ITypeInfo *
PUBLIC	??I?$CComPtrBase@UITypeInfo@@@ATL@@QEAAPEAPEAUITypeInfo@@XZ ; ATL::CComPtrBase<ITypeInfo>::operator&
PUBLIC	??C?$CComPtrBase@UITypeInfo@@@ATL@@QEBAPEAV?$_NoAddRefReleaseOnCComPtr@UITypeInfo@@@1@XZ ; ATL::CComPtrBase<ITypeInfo>::operator->
PUBLIC	?IsEqualObject@?$CComPtrBase@UITypeInfo@@@ATL@@QEAA_NPEAUIUnknown@@@Z ; ATL::CComPtrBase<ITypeInfo>::IsEqualObject
PUBLIC	?Detach@?$CComPtrBase@UITypeInfo@@@ATL@@QEAAPEAUITypeInfo@@XZ ; ATL::CComPtrBase<ITypeInfo>::Detach
PUBLIC	??0?$CComPtr@UITypeInfo@@@ATL@@QEAA@XZ		; ATL::CComPtr<ITypeInfo>::CComPtr<ITypeInfo>
PUBLIC	??0?$CComPtr@UITypeInfo@@@ATL@@QEAA@AEBV01@@Z	; ATL::CComPtr<ITypeInfo>::CComPtr<ITypeInfo>
PUBLIC	??1?$CComPtr@UITypeInfo@@@ATL@@QEAA@XZ		; ATL::CComPtr<ITypeInfo>::~CComPtr<ITypeInfo>
PUBLIC	?AtlIPersistStreamInit_Load@ATL@@YAJPEAUIStream@@PEBUATL_PROPMAP_ENTRY@1@PEAXPEAUIUnknown@@@Z ; ATL::AtlIPersistStreamInit_Load
PUBLIC	?AtlIPersistStreamInit_Save@ATL@@YAJPEAUIStream@@HPEBUATL_PROPMAP_ENTRY@1@PEAXPEAUIUnknown@@@Z ; ATL::AtlIPersistStreamInit_Save
PUBLIC	??0CComObjectRootBase@ATL@@QEAA@XZ		; ATL::CComObjectRootBase::CComObjectRootBase
PUBLIC	??1CComObjectRootBase@ATL@@QEAA@XZ		; ATL::CComObjectRootBase::~CComObjectRootBase
PUBLIC	?FinalConstruct@CComObjectRootBase@ATL@@QEAAJXZ	; ATL::CComObjectRootBase::FinalConstruct
PUBLIC	?_AtlFinalConstruct@CComObjectRootBase@ATL@@QEAAJXZ ; ATL::CComObjectRootBase::_AtlFinalConstruct
PUBLIC	?FinalRelease@CComObjectRootBase@ATL@@QEAAXXZ	; ATL::CComObjectRootBase::FinalRelease
PUBLIC	?InternalQueryInterface@CComObjectRootBase@ATL@@SAJPEAXPEBU_ATL_INTMAP_ENTRY@2@AEBU_GUID@@PEAPEAX@Z ; ATL::CComObjectRootBase::InternalQueryInterface
PUBLIC	?OuterAddRef@CComObjectRootBase@ATL@@QEAAKXZ	; ATL::CComObjectRootBase::OuterAddRef
PUBLIC	?OuterRelease@CComObjectRootBase@ATL@@QEAAKXZ	; ATL::CComObjectRootBase::OuterRelease
PUBLIC	?OuterQueryInterface@CComObjectRootBase@ATL@@QEAAJAEBU_GUID@@PEAPEAX@Z ; ATL::CComObjectRootBase::OuterQueryInterface
PUBLIC	?SetVoid@CComObjectRootBase@ATL@@QEAAXPEAX@Z	; ATL::CComObjectRootBase::SetVoid
PUBLIC	?InternalFinalConstructAddRef@CComObjectRootBase@ATL@@QEAAXXZ ; ATL::CComObjectRootBase::InternalFinalConstructAddRef
PUBLIC	?InternalFinalConstructRelease@CComObjectRootBase@ATL@@QEAAXXZ ; ATL::CComObjectRootBase::InternalFinalConstructRelease
PUBLIC	??1?$CComObjectRootEx@VCComSingleThreadModel@ATL@@@ATL@@QEAA@XZ ; ATL::CComObjectRootEx<ATL::CComSingleThreadModel>::~CComObjectRootEx<ATL::CComSingleThreadModel>
PUBLIC	?InternalAddRef@?$CComObjectRootEx@VCComSingleThreadModel@ATL@@@ATL@@QEAAKXZ ; ATL::CComObjectRootEx<ATL::CComSingleThreadModel>::InternalAddRef
PUBLIC	?InternalRelease@?$CComObjectRootEx@VCComSingleThreadModel@ATL@@@ATL@@QEAAKXZ ; ATL::CComObjectRootEx<ATL::CComSingleThreadModel>::InternalRelease
PUBLIC	?_AtlInitialConstruct@?$CComObjectRootEx@VCComSingleThreadModel@ATL@@@ATL@@QEAAJXZ ; ATL::CComObjectRootEx<ATL::CComSingleThreadModel>::_AtlInitialConstruct
PUBLIC	?Lock@?$CComObjectRootEx@VCComSingleThreadModel@ATL@@@ATL@@QEAAXXZ ; ATL::CComObjectRootEx<ATL::CComSingleThreadModel>::Lock
PUBLIC	?Unlock@?$CComObjectRootEx@VCComSingleThreadModel@ATL@@@ATL@@QEAAXXZ ; ATL::CComObjectRootEx<ATL::CComSingleThreadModel>::Unlock
PUBLIC	??0?$CComObjectRootEx@VCComSingleThreadModel@ATL@@@ATL@@QEAA@XZ ; ATL::CComObjectRootEx<ATL::CComSingleThreadModel>::CComObjectRootEx<ATL::CComSingleThreadModel>
PUBLIC	??0ModuleLockHelper@ATL@@QEAA@XZ		; ATL::ModuleLockHelper::ModuleLockHelper
PUBLIC	??1ModuleLockHelper@ATL@@QEAA@XZ		; ATL::ModuleLockHelper::~ModuleLockHelper
PUBLIC	??1?$CComObjectRootEx@VCComMultiThreadModel@ATL@@@ATL@@QEAA@XZ ; ATL::CComObjectRootEx<ATL::CComMultiThreadModel>::~CComObjectRootEx<ATL::CComMultiThreadModel>
PUBLIC	?InternalAddRef@?$CComObjectRootEx@VCComMultiThreadModel@ATL@@@ATL@@QEAAKXZ ; ATL::CComObjectRootEx<ATL::CComMultiThreadModel>::InternalAddRef
PUBLIC	?InternalRelease@?$CComObjectRootEx@VCComMultiThreadModel@ATL@@@ATL@@QEAAKXZ ; ATL::CComObjectRootEx<ATL::CComMultiThreadModel>::InternalRelease
PUBLIC	?_AtlInitialConstruct@?$CComObjectRootEx@VCComMultiThreadModel@ATL@@@ATL@@QEAAJXZ ; ATL::CComObjectRootEx<ATL::CComMultiThreadModel>::_AtlInitialConstruct
PUBLIC	??0?$CComObjectRootEx@VCComMultiThreadModel@ATL@@@ATL@@QEAA@XZ ; ATL::CComObjectRootEx<ATL::CComMultiThreadModel>::CComObjectRootEx<ATL::CComMultiThreadModel>
PUBLIC	?_InternalQueryInterface@CComClassFactory@ATL@@QEAAJAEBU_GUID@@PEAPEAX@Z ; ATL::CComClassFactory::_InternalQueryInterface
PUBLIC	?_GetEntries@CComClassFactory@ATL@@SAPEBU_ATL_INTMAP_ENTRY@2@XZ ; ATL::CComClassFactory::_GetEntries
PUBLIC	??1CComClassFactory@ATL@@UEAA@XZ		; ATL::CComClassFactory::~CComClassFactory
PUBLIC	?CreateInstance@CComClassFactory@ATL@@UEAAJPEAUIUnknown@@AEBU_GUID@@PEAPEAX@Z ; ATL::CComClassFactory::CreateInstance
PUBLIC	?LockServer@CComClassFactory@ATL@@UEAAJH@Z	; ATL::CComClassFactory::LockServer
PUBLIC	?SetVoid@CComClassFactory@ATL@@QEAAXPEAX@Z	; ATL::CComClassFactory::SetVoid
PUBLIC	??0CComClassFactory@ATL@@QEAA@XZ		; ATL::CComClassFactory::CComClassFactory
PUBLIC	??_GCComClassFactory@ATL@@UEAAPEAXI@Z		; ATL::CComClassFactory::`scalar deleting destructor'
PUBLIC	??0stringdispid@CComTypeInfoHolder@ATL@@QEAA@XZ	; ATL::CComTypeInfoHolder::stringdispid::stringdispid
PUBLIC	??1stringdispid@CComTypeInfoHolder@ATL@@QEAA@XZ	; ATL::CComTypeInfoHolder::stringdispid::~stringdispid
PUBLIC	??_Estringdispid@CComTypeInfoHolder@ATL@@QEAAPEAXI@Z ; ATL::CComTypeInfoHolder::stringdispid::`vector deleting destructor'
PUBLIC	?GetTI@CComTypeInfoHolder@ATL@@QEAAJKPEAPEAUITypeInfo@@@Z ; ATL::CComTypeInfoHolder::GetTI
PUBLIC	?GetTI@CComTypeInfoHolder@ATL@@QEAAJK@Z		; ATL::CComTypeInfoHolder::GetTI
PUBLIC	?EnsureTI@CComTypeInfoHolder@ATL@@QEAAJK@Z	; ATL::CComTypeInfoHolder::EnsureTI
PUBLIC	?Cleanup@CComTypeInfoHolder@ATL@@SAX_K@Z	; ATL::CComTypeInfoHolder::Cleanup
PUBLIC	?GetTypeInfo@CComTypeInfoHolder@ATL@@QEAAJIKPEAPEAUITypeInfo@@@Z ; ATL::CComTypeInfoHolder::GetTypeInfo
PUBLIC	?GetIDsOfNames@CComTypeInfoHolder@ATL@@QEAAJAEBU_GUID@@PEAPEA_WIKPEAJ@Z ; ATL::CComTypeInfoHolder::GetIDsOfNames
PUBLIC	?Invoke@CComTypeInfoHolder@ATL@@QEAAJPEAUIDispatch@@JAEBU_GUID@@KGPEAUtagDISPPARAMS@@PEAUtagVARIANT@@PEAUtagEXCEPINFO@@PEAI@Z ; ATL::CComTypeInfoHolder::Invoke
PUBLIC	?LoadNameCache@CComTypeInfoHolder@ATL@@QEAAJPEAUITypeInfo@@@Z ; ATL::CComTypeInfoHolder::LoadNameCache
PUBLIC	??0?$CComPtrBase@UITypeInfo2@@@ATL@@IEAA@XZ	; ATL::CComPtrBase<ITypeInfo2>::CComPtrBase<ITypeInfo2>
PUBLIC	??1?$CComPtrBase@UITypeInfo2@@@ATL@@QEAA@XZ	; ATL::CComPtrBase<ITypeInfo2>::~CComPtrBase<ITypeInfo2>
PUBLIC	??B?$CComPtrBase@UITypeInfo2@@@ATL@@QEBAPEAUITypeInfo2@@XZ ; ATL::CComPtrBase<ITypeInfo2>::operator ITypeInfo2 *
PUBLIC	??I?$CComPtrBase@UITypeInfo2@@@ATL@@QEAAPEAPEAUITypeInfo2@@XZ ; ATL::CComPtrBase<ITypeInfo2>::operator&
PUBLIC	??0?$CComPtr@UITypeInfo2@@@ATL@@QEAA@XZ		; ATL::CComPtr<ITypeInfo2>::CComPtr<ITypeInfo2>
PUBLIC	??1?$CComPtr@UITypeInfo2@@@ATL@@QEAA@XZ		; ATL::CComPtr<ITypeInfo2>::~CComPtr<ITypeInfo2>
PUBLIC	??$QueryInterface@UITypeInfo2@@@IUnknown@@QEAAJPEAPEAUITypeInfo2@@@Z ; IUnknown::QueryInterface<ITypeInfo2>
PUBLIC	??$?4UITypeInfo2@@@?$CComPtr@UITypeInfo@@@ATL@@QEAAPEAUITypeInfo@@AEBV?$CComPtr@UITypeInfo2@@@1@@Z ; ATL::CComPtr<ITypeInfo>::operator=<ITypeInfo2>
PUBLIC	?copy@?$_Copy@UtagCONNECTDATA@@@ATL@@SAJPEAUtagCONNECTDATA@@PEBU3@@Z ; ATL::_Copy<tagCONNECTDATA>::copy
PUBLIC	?init@?$_Copy@UtagCONNECTDATA@@@ATL@@SAXPEAUtagCONNECTDATA@@@Z ; ATL::_Copy<tagCONNECTDATA>::init
PUBLIC	?destroy@?$_Copy@UtagCONNECTDATA@@@ATL@@SAXPEAUtagCONNECTDATA@@@Z ; ATL::_Copy<tagCONNECTDATA>::destroy
PUBLIC	?Add@CComDynamicUnkArray@ATL@@QEAAKPEAUIUnknown@@@Z ; ATL::CComDynamicUnkArray::Add
PUBLIC	?Remove@CComDynamicUnkArray@ATL@@QEAAHK@Z	; ATL::CComDynamicUnkArray::Remove
PUBLIC	?GetCookie@CComDynamicUnkArray@ATL@@QEAAKPEAPEAUIUnknown@@@Z ; ATL::CComDynamicUnkArray::GetCookie
PUBLIC	?GetUnknown@CComDynamicUnkArray@ATL@@QEAAPEAUIUnknown@@K@Z ; ATL::CComDynamicUnkArray::GetUnknown
PUBLIC	?begin@CComDynamicUnkArray@ATL@@QEAAPEAPEAUIUnknown@@XZ ; ATL::CComDynamicUnkArray::begin
PUBLIC	?end@CComDynamicUnkArray@ATL@@QEAAPEAPEAUIUnknown@@XZ ; ATL::CComDynamicUnkArray::end
PUBLIC	?GetAt@CComDynamicUnkArray@ATL@@QEAAPEAUIUnknown@@H@Z ; ATL::CComDynamicUnkArray::GetAt
PUBLIC	?GetSize@CComDynamicUnkArray@ATL@@QEBAHXZ	; ATL::CComDynamicUnkArray::GetSize
PUBLIC	??0?$CComPtrBase@UIProvideClassInfo2@@@ATL@@IEAA@XZ ; ATL::CComPtrBase<IProvideClassInfo2>::CComPtrBase<IProvideClassInfo2>
PUBLIC	??1?$CComPtrBase@UIProvideClassInfo2@@@ATL@@QEAA@XZ ; ATL::CComPtrBase<IProvideClassInfo2>::~CComPtrBase<IProvideClassInfo2>
PUBLIC	??B?$CComPtrBase@UIProvideClassInfo2@@@ATL@@QEBAPEAUIProvideClassInfo2@@XZ ; ATL::CComPtrBase<IProvideClassInfo2>::operator IProvideClassInfo2 *
PUBLIC	??I?$CComPtrBase@UIProvideClassInfo2@@@ATL@@QEAAPEAPEAUIProvideClassInfo2@@XZ ; ATL::CComPtrBase<IProvideClassInfo2>::operator&
PUBLIC	??C?$CComPtrBase@UIProvideClassInfo2@@@ATL@@QEBAPEAV?$_NoAddRefReleaseOnCComPtr@UIProvideClassInfo2@@@1@XZ ; ATL::CComPtrBase<IProvideClassInfo2>::operator->
PUBLIC	??0?$CComPtr@UIProvideClassInfo2@@@ATL@@QEAA@XZ	; ATL::CComPtr<IProvideClassInfo2>::CComPtr<IProvideClassInfo2>
PUBLIC	??1?$CComPtr@UIProvideClassInfo2@@@ATL@@QEAA@XZ	; ATL::CComPtr<IProvideClassInfo2>::~CComPtr<IProvideClassInfo2>
PUBLIC	??$AtlMultiply@_K@ATL@@YAJPEA_K_K1@Z		; ATL::AtlMultiply<unsigned __int64>
PUBLIC	??0_U_RECT@ATL@@QEAA@AEAUtagRECT@@@Z		; ATL::_U_RECT::_U_RECT
PUBLIC	??0_U_MENUorID@ATL@@QEAA@I@Z			; ATL::_U_MENUorID::_U_MENUorID
PUBLIC	?AtlWinModuleRegisterWndClassInfoW@ATL@@YAGPEAU_ATL_WIN_MODULE70@1@PEAU_ATL_BASE_MODULE70@1@PEAU_ATL_WNDCLASSINFOW@1@PEAP6A_JPEAUHWND__@@I_K_J@Z@Z ; ATL::AtlWinModuleRegisterWndClassInfoW
PUBLIC	?AtlWinModuleRegisterClassExW@ATL@@YAGPEAU_ATL_WIN_MODULE70@1@PEBUtagWNDCLASSEXW@@@Z ; ATL::AtlWinModuleRegisterClassExW
PUBLIC	?AtlCreateTargetDC@ATL@@YAPEAUHDC__@@PEAU2@PEAUtagDVTARGETDEVICE@@@Z ; ATL::AtlCreateTargetDC
PUBLIC	?AtlHiMetricToPixel@ATL@@YAXPEBUtagSIZE@@PEAU2@@Z ; ATL::AtlHiMetricToPixel
PUBLIC	??0_ATL_MSG@ATL@@QEAA@PEAUHWND__@@I_K_JH@Z	; ATL::_ATL_MSG::_ATL_MSG
PUBLIC	?Register@_ATL_WNDCLASSINFOW@ATL@@QEAAGPEAP6A_JPEAUHWND__@@I_K_J@Z@Z ; ATL::_ATL_WNDCLASSINFOW::Register
PUBLIC	?GetWndClassName@CWindow@ATL@@SAPEB_WXZ		; ATL::CWindow::GetWndClassName
PUBLIC	?ShowWindow@CWindow@ATL@@QEAAHH@Z		; ATL::CWindow::ShowWindow
PUBLIC	?Init@CWndProcThunk@ATL@@QEAAHP6A_JPEAUHWND__@@I_K_J@ZPEAX@Z ; ATL::CWndProcThunk::Init
PUBLIC	?GetWNDPROC@CWndProcThunk@ATL@@QEAAP6A_JPEAUHWND__@@I_K_J@ZXZ ; ATL::CWndProcThunk::GetWNDPROC
PUBLIC	?DefaultReflectionHandler@?$CWindowImplRoot@VCWindow@ATL@@@ATL@@SAHPEAUHWND__@@I_K_JAEA_J@Z ; ATL::CWindowImplRoot<ATL::CWindow>::DefaultReflectionHandler
PUBLIC	?GetWndStyle@?$CWindowImplBaseT@VCWindow@ATL@@V?$CWinTraits@$0FGAAAAAA@$0A@@2@@ATL@@SAKK@Z ; ATL::CWindowImplBaseT<ATL::CWindow,ATL::CWinTraits<1442840576,0> >::GetWndStyle
PUBLIC	?GetWndExStyle@?$CWindowImplBaseT@VCWindow@ATL@@V?$CWinTraits@$0FGAAAAAA@$0A@@2@@ATL@@SAKK@Z ; ATL::CWindowImplBaseT<ATL::CWindow,ATL::CWinTraits<1442840576,0> >::GetWndExStyle
PUBLIC	?GetWindowProc@?$CWindowImplBaseT@VCWindow@ATL@@V?$CWinTraits@$0FGAAAAAA@$0A@@2@@ATL@@UEAAP6A_JPEAUHWND__@@I_K_J@ZXZ ; ATL::CWindowImplBaseT<ATL::CWindow,ATL::CWinTraits<1442840576,0> >::GetWindowProc
PUBLIC	?StartWindowProc@?$CWindowImplBaseT@VCWindow@ATL@@V?$CWinTraits@$0FGAAAAAA@$0A@@2@@ATL@@SA_JPEAUHWND__@@I_K_J@Z ; ATL::CWindowImplBaseT<ATL::CWindow,ATL::CWinTraits<1442840576,0> >::StartWindowProc
PUBLIC	?WindowProc@?$CWindowImplBaseT@VCWindow@ATL@@V?$CWinTraits@$0FGAAAAAA@$0A@@2@@ATL@@SA_JPEAUHWND__@@I_K_J@Z ; ATL::CWindowImplBaseT<ATL::CWindow,ATL::CWinTraits<1442840576,0> >::WindowProc
PUBLIC	?atlCreate@?$CWindowImplBaseT@VCWindow@ATL@@V?$CWinTraits@$0FGAAAAAA@$0A@@2@@ATL@@QEAAPEAUHWND__@@PEAU3@V_U_RECT@2@PEB_WKKV_U_MENUorID@2@GPEAX@Z ; ATL::CWindowImplBaseT<ATL::CWindow,ATL::CWinTraits<1442840576,0> >::atlCreate
PUBLIC	?DefWindowProcW@?$CWindowImplBaseT@VCWindow@ATL@@V?$CWinTraits@$0FGAAAAAA@$0A@@2@@ATL@@QEAA_JI_K_J@Z ; ATL::CWindowImplBaseT<ATL::CWindow,ATL::CWinTraits<1442840576,0> >::DefWindowProcW
PUBLIC	?OnFinalMessage@?$CWindowImplBaseT@VCWindow@ATL@@V?$CWinTraits@$0FGAAAAAA@$0A@@2@@ATL@@UEAAXPEAUHWND__@@@Z ; ATL::CWindowImplBaseT<ATL::CWindow,ATL::CWinTraits<1442840576,0> >::OnFinalMessage
PUBLIC	??0?$CComPtrBase@UIOleInPlaceActiveObject@@@ATL@@IEAA@XZ ; ATL::CComPtrBase<IOleInPlaceActiveObject>::CComPtrBase<IOleInPlaceActiveObject>
PUBLIC	??1?$CComPtrBase@UIOleInPlaceActiveObject@@@ATL@@QEAA@XZ ; ATL::CComPtrBase<IOleInPlaceActiveObject>::~CComPtrBase<IOleInPlaceActiveObject>
PUBLIC	??B?$CComPtrBase@UIOleInPlaceActiveObject@@@ATL@@QEBAPEAUIOleInPlaceActiveObject@@XZ ; ATL::CComPtrBase<IOleInPlaceActiveObject>::operator IOleInPlaceActiveObject *
PUBLIC	??I?$CComPtrBase@UIOleInPlaceActiveObject@@@ATL@@QEAAPEAPEAUIOleInPlaceActiveObject@@XZ ; ATL::CComPtrBase<IOleInPlaceActiveObject>::operator&
PUBLIC	??0?$CComPtr@UIOleInPlaceActiveObject@@@ATL@@QEAA@XZ ; ATL::CComPtr<IOleInPlaceActiveObject>::CComPtr<IOleInPlaceActiveObject>
PUBLIC	??1?$CComPtr@UIOleInPlaceActiveObject@@@ATL@@QEAA@XZ ; ATL::CComPtr<IOleInPlaceActiveObject>::~CComPtr<IOleInPlaceActiveObject>
PUBLIC	??0?$CComPtrBase@UIOleObject@@@ATL@@IEAA@XZ	; ATL::CComPtrBase<IOleObject>::CComPtrBase<IOleObject>
PUBLIC	??1?$CComPtrBase@UIOleObject@@@ATL@@QEAA@XZ	; ATL::CComPtrBase<IOleObject>::~CComPtrBase<IOleObject>
PUBLIC	??B?$CComPtrBase@UIOleObject@@@ATL@@QEBAPEAUIOleObject@@XZ ; ATL::CComPtrBase<IOleObject>::operator IOleObject *
PUBLIC	??I?$CComPtrBase@UIOleObject@@@ATL@@QEAAPEAPEAUIOleObject@@XZ ; ATL::CComPtrBase<IOleObject>::operator&
PUBLIC	??C?$CComPtrBase@UIOleObject@@@ATL@@QEBAPEAV?$_NoAddRefReleaseOnCComPtr@UIOleObject@@@1@XZ ; ATL::CComPtrBase<IOleObject>::operator->
PUBLIC	??9?$CComPtrBase@UIOleObject@@@ATL@@QEBA_NPEAUIOleObject@@@Z ; ATL::CComPtrBase<IOleObject>::operator!=
PUBLIC	??8?$CComPtrBase@UIOleObject@@@ATL@@QEBA_NPEAUIOleObject@@@Z ; ATL::CComPtrBase<IOleObject>::operator==
PUBLIC	??0?$CComPtr@UIOleObject@@@ATL@@QEAA@XZ		; ATL::CComPtr<IOleObject>::CComPtr<IOleObject>
PUBLIC	??1?$CComPtr@UIOleObject@@@ATL@@QEAA@XZ		; ATL::CComPtr<IOleObject>::~CComPtr<IOleObject>
PUBLIC	??0?$CComPtrBase@UIOleInPlaceFrame@@@ATL@@IEAA@XZ ; ATL::CComPtrBase<IOleInPlaceFrame>::CComPtrBase<IOleInPlaceFrame>
PUBLIC	??1?$CComPtrBase@UIOleInPlaceFrame@@@ATL@@QEAA@XZ ; ATL::CComPtrBase<IOleInPlaceFrame>::~CComPtrBase<IOleInPlaceFrame>
PUBLIC	??B?$CComPtrBase@UIOleInPlaceFrame@@@ATL@@QEBAPEAUIOleInPlaceFrame@@XZ ; ATL::CComPtrBase<IOleInPlaceFrame>::operator IOleInPlaceFrame *
PUBLIC	??I?$CComPtrBase@UIOleInPlaceFrame@@@ATL@@QEAAPEAPEAUIOleInPlaceFrame@@XZ ; ATL::CComPtrBase<IOleInPlaceFrame>::operator&
PUBLIC	??C?$CComPtrBase@UIOleInPlaceFrame@@@ATL@@QEBAPEAV?$_NoAddRefReleaseOnCComPtr@UIOleInPlaceFrame@@@1@XZ ; ATL::CComPtrBase<IOleInPlaceFrame>::operator->
PUBLIC	??0?$CComPtr@UIOleInPlaceFrame@@@ATL@@QEAA@XZ	; ATL::CComPtr<IOleInPlaceFrame>::CComPtr<IOleInPlaceFrame>
PUBLIC	??1?$CComPtr@UIOleInPlaceFrame@@@ATL@@QEAA@XZ	; ATL::CComPtr<IOleInPlaceFrame>::~CComPtr<IOleInPlaceFrame>
PUBLIC	??0?$CComPtrBase@UIOleInPlaceUIWindow@@@ATL@@IEAA@XZ ; ATL::CComPtrBase<IOleInPlaceUIWindow>::CComPtrBase<IOleInPlaceUIWindow>
PUBLIC	??1?$CComPtrBase@UIOleInPlaceUIWindow@@@ATL@@QEAA@XZ ; ATL::CComPtrBase<IOleInPlaceUIWindow>::~CComPtrBase<IOleInPlaceUIWindow>
PUBLIC	??B?$CComPtrBase@UIOleInPlaceUIWindow@@@ATL@@QEBAPEAUIOleInPlaceUIWindow@@XZ ; ATL::CComPtrBase<IOleInPlaceUIWindow>::operator IOleInPlaceUIWindow *
PUBLIC	??I?$CComPtrBase@UIOleInPlaceUIWindow@@@ATL@@QEAAPEAPEAUIOleInPlaceUIWindow@@XZ ; ATL::CComPtrBase<IOleInPlaceUIWindow>::operator&
PUBLIC	??C?$CComPtrBase@UIOleInPlaceUIWindow@@@ATL@@QEBAPEAV?$_NoAddRefReleaseOnCComPtr@UIOleInPlaceUIWindow@@@1@XZ ; ATL::CComPtrBase<IOleInPlaceUIWindow>::operator->
PUBLIC	??0?$CComPtr@UIOleInPlaceUIWindow@@@ATL@@QEAA@XZ ; ATL::CComPtr<IOleInPlaceUIWindow>::CComPtr<IOleInPlaceUIWindow>
PUBLIC	??1?$CComPtr@UIOleInPlaceUIWindow@@@ATL@@QEAA@XZ ; ATL::CComPtr<IOleInPlaceUIWindow>::~CComPtr<IOleInPlaceUIWindow>
PUBLIC	??0?$CComPtrBase@UIViewObjectEx@@@ATL@@IEAA@XZ	; ATL::CComPtrBase<IViewObjectEx>::CComPtrBase<IViewObjectEx>
PUBLIC	??1?$CComPtrBase@UIViewObjectEx@@@ATL@@QEAA@XZ	; ATL::CComPtrBase<IViewObjectEx>::~CComPtrBase<IViewObjectEx>
PUBLIC	??I?$CComPtrBase@UIViewObjectEx@@@ATL@@QEAAPEAPEAUIViewObjectEx@@XZ ; ATL::CComPtrBase<IViewObjectEx>::operator&
PUBLIC	??C?$CComPtrBase@UIViewObjectEx@@@ATL@@QEBAPEAV?$_NoAddRefReleaseOnCComPtr@UIViewObjectEx@@@1@XZ ; ATL::CComPtrBase<IViewObjectEx>::operator->
PUBLIC	??9?$CComPtrBase@UIViewObjectEx@@@ATL@@QEBA_NPEAUIViewObjectEx@@@Z ; ATL::CComPtrBase<IViewObjectEx>::operator!=
PUBLIC	??8?$CComPtrBase@UIViewObjectEx@@@ATL@@QEBA_NPEAUIViewObjectEx@@@Z ; ATL::CComPtrBase<IViewObjectEx>::operator==
PUBLIC	??0?$CComPtr@UIViewObjectEx@@@ATL@@QEAA@XZ	; ATL::CComPtr<IViewObjectEx>::CComPtr<IViewObjectEx>
PUBLIC	??1?$CComPtr@UIViewObjectEx@@@ATL@@QEAA@XZ	; ATL::CComPtr<IViewObjectEx>::~CComPtr<IViewObjectEx>
PUBLIC	??0?$CComPtrBase@UIOleClientSite@@@ATL@@IEAA@PEAUIOleClientSite@@@Z ; ATL::CComPtrBase<IOleClientSite>::CComPtrBase<IOleClientSite>
PUBLIC	?Swap@?$CComPtrBase@UIOleClientSite@@@ATL@@IEAAXAEAV12@@Z ; ATL::CComPtrBase<IOleClientSite>::Swap
PUBLIC	??1?$CComPtrBase@UIOleClientSite@@@ATL@@QEAA@XZ	; ATL::CComPtrBase<IOleClientSite>::~CComPtrBase<IOleClientSite>
PUBLIC	??B?$CComPtrBase@UIOleClientSite@@@ATL@@QEBAPEAUIOleClientSite@@XZ ; ATL::CComPtrBase<IOleClientSite>::operator IOleClientSite *
PUBLIC	??C?$CComPtrBase@UIOleClientSite@@@ATL@@QEBAPEAV?$_NoAddRefReleaseOnCComPtr@UIOleClientSite@@@1@XZ ; ATL::CComPtrBase<IOleClientSite>::operator->
PUBLIC	??7?$CComPtrBase@UIOleClientSite@@@ATL@@QEBA_NXZ ; ATL::CComPtrBase<IOleClientSite>::operator!
PUBLIC	??9?$CComPtrBase@UIOleClientSite@@@ATL@@QEBA_NPEAUIOleClientSite@@@Z ; ATL::CComPtrBase<IOleClientSite>::operator!=
PUBLIC	??8?$CComPtrBase@UIOleClientSite@@@ATL@@QEBA_NPEAUIOleClientSite@@@Z ; ATL::CComPtrBase<IOleClientSite>::operator==
PUBLIC	?IsEqualObject@?$CComPtrBase@UIOleClientSite@@@ATL@@QEAA_NPEAUIUnknown@@@Z ; ATL::CComPtrBase<IOleClientSite>::IsEqualObject
PUBLIC	??0?$CComPtr@UIOleClientSite@@@ATL@@QEAA@PEAUIOleClientSite@@@Z ; ATL::CComPtr<IOleClientSite>::CComPtr<IOleClientSite>
PUBLIC	??4?$CComPtr@UIOleClientSite@@@ATL@@QEAAPEAUIOleClientSite@@PEAU2@@Z ; ATL::CComPtr<IOleClientSite>::operator=
PUBLIC	??1?$CComPtr@UIOleClientSite@@@ATL@@QEAA@XZ	; ATL::CComPtr<IOleClientSite>::~CComPtr<IOleClientSite>
PUBLIC	??0?$CComPtrBase@UIStream@@@ATL@@IEAA@XZ	; ATL::CComPtrBase<IStream>::CComPtrBase<IStream>
PUBLIC	??1?$CComPtrBase@UIStream@@@ATL@@QEAA@XZ	; ATL::CComPtrBase<IStream>::~CComPtrBase<IStream>
PUBLIC	??B?$CComPtrBase@UIStream@@@ATL@@QEBAPEAUIStream@@XZ ; ATL::CComPtrBase<IStream>::operator IStream *
PUBLIC	??I?$CComPtrBase@UIStream@@@ATL@@QEAAPEAPEAUIStream@@XZ ; ATL::CComPtrBase<IStream>::operator&
PUBLIC	??0?$CComPtr@UIStream@@@ATL@@QEAA@XZ		; ATL::CComPtr<IStream>::CComPtr<IStream>
PUBLIC	??1?$CComPtr@UIStream@@@ATL@@QEAA@XZ		; ATL::CComPtr<IStream>::~CComPtr<IStream>
PUBLIC	??0?$CComPtrBase@UIPersistStreamInit@@@ATL@@IEAA@XZ ; ATL::CComPtrBase<IPersistStreamInit>::CComPtrBase<IPersistStreamInit>
PUBLIC	??1?$CComPtrBase@UIPersistStreamInit@@@ATL@@QEAA@XZ ; ATL::CComPtrBase<IPersistStreamInit>::~CComPtrBase<IPersistStreamInit>
PUBLIC	??C?$CComPtrBase@UIPersistStreamInit@@@ATL@@QEBAPEAV?$_NoAddRefReleaseOnCComPtr@UIPersistStreamInit@@@1@XZ ; ATL::CComPtrBase<IPersistStreamInit>::operator->
PUBLIC	??9?$CComPtrBase@UIPersistStreamInit@@@ATL@@QEBA_NPEAUIPersistStreamInit@@@Z ; ATL::CComPtrBase<IPersistStreamInit>::operator!=
PUBLIC	??8?$CComPtrBase@UIPersistStreamInit@@@ATL@@QEBA_NPEAUIPersistStreamInit@@@Z ; ATL::CComPtrBase<IPersistStreamInit>::operator==
PUBLIC	??0?$CComPtr@UIPersistStreamInit@@@ATL@@QEAA@XZ	; ATL::CComPtr<IPersistStreamInit>::CComPtr<IPersistStreamInit>
PUBLIC	??1?$CComPtr@UIPersistStreamInit@@@ATL@@QEAA@XZ	; ATL::CComPtr<IPersistStreamInit>::~CComPtr<IPersistStreamInit>
PUBLIC	??0?$CComPtrBase@UIAdviseSink@@@ATL@@IEAA@PEAUIAdviseSink@@@Z ; ATL::CComPtrBase<IAdviseSink>::CComPtrBase<IAdviseSink>
PUBLIC	?Swap@?$CComPtrBase@UIAdviseSink@@@ATL@@IEAAXAEAV12@@Z ; ATL::CComPtrBase<IAdviseSink>::Swap
PUBLIC	??1?$CComPtrBase@UIAdviseSink@@@ATL@@QEAA@XZ	; ATL::CComPtrBase<IAdviseSink>::~CComPtrBase<IAdviseSink>
PUBLIC	??B?$CComPtrBase@UIAdviseSink@@@ATL@@QEBAPEAUIAdviseSink@@XZ ; ATL::CComPtrBase<IAdviseSink>::operator IAdviseSink *
PUBLIC	??C?$CComPtrBase@UIAdviseSink@@@ATL@@QEBAPEAV?$_NoAddRefReleaseOnCComPtr@UIAdviseSink@@@1@XZ ; ATL::CComPtrBase<IAdviseSink>::operator->
PUBLIC	?Release@?$CComPtrBase@UIAdviseSink@@@ATL@@QEAAXXZ ; ATL::CComPtrBase<IAdviseSink>::Release
PUBLIC	??0?$CComPtr@UIAdviseSink@@@ATL@@QEAA@PEAUIAdviseSink@@@Z ; ATL::CComPtr<IAdviseSink>::CComPtr<IAdviseSink>
PUBLIC	??4?$CComPtr@UIAdviseSink@@@ATL@@QEAAPEAUIAdviseSink@@PEAU2@@Z ; ATL::CComPtr<IAdviseSink>::operator=
PUBLIC	??1?$CComPtr@UIAdviseSink@@@ATL@@QEAA@XZ	; ATL::CComPtr<IAdviseSink>::~CComPtr<IAdviseSink>
PUBLIC	?GetClassInfoExW@AtlModuleRegisterWndClassInfoParamW@ATL@@SAHPEAUHINSTANCE__@@PEB_WPEAUtagWNDCLASSEXW@@@Z ; ATL::AtlModuleRegisterWndClassInfoParamW::GetClassInfoExW
PUBLIC	?FormatWindowClassName@AtlModuleRegisterWndClassInfoParamW@ATL@@SAXPEA_WKPEAX@Z ; ATL::AtlModuleRegisterWndClassInfoParamW::FormatWindowClassName
PUBLIC	?LoadCursorW@AtlModuleRegisterWndClassInfoParamW@ATL@@SAPEAUHICON__@@PEAUHINSTANCE__@@PEB_W@Z ; ATL::AtlModuleRegisterWndClassInfoParamW::LoadCursorW
PUBLIC	?RegisterClassExW@AtlModuleRegisterWndClassInfoParamW@ATL@@SAGPEAU_ATL_WIN_MODULE70@2@PEBUtagWNDCLASSEXW@@@Z ; ATL::AtlModuleRegisterWndClassInfoParamW::RegisterClassExW
PUBLIC	??$AtlModuleRegisterWndClassInfoT@VAtlModuleRegisterWndClassInfoParamW@ATL@@@ATL@@YAGPEAU_ATL_BASE_MODULE70@0@PEAU_ATL_WIN_MODULE70@0@PEAU_ATL_WNDCLASSINFOW@0@PEAP6A_JPEAUHWND__@@I_K_J@ZVAtlModuleRegisterWndClassInfoParamW@0@@Z ; ATL::AtlModuleRegisterWndClassInfoT<ATL::AtlModuleRegisterWndClassInfoParamW>
PUBLIC	?GetZoomInfo@CComControlBase@ATL@@QEAAXAEAUATL_DRAWINFO@@@Z ; ATL::CComControlBase::GetZoomInfo
PUBLIC	?SendOnSave@CComControlBase@ATL@@QEAAJXZ	; ATL::CComControlBase::SendOnSave
PUBLIC	?SendOnDataChange@CComControlBase@ATL@@QEAAJK@Z	; ATL::CComControlBase::SendOnDataChange
PUBLIC	?SendOnViewChange@CComControlBase@ATL@@QEAAJKJ@Z ; ATL::CComControlBase::SendOnViewChange
PUBLIC	?OnSetFocus@CComControlBase@ATL@@QEAA_JI_K_JAEAH@Z ; ATL::CComControlBase::OnSetFocus
PUBLIC	?OnKillFocus@CComControlBase@ATL@@QEAA_JI_K_JAEAH@Z ; ATL::CComControlBase::OnKillFocus
PUBLIC	?OnMouseActivate@CComControlBase@ATL@@QEAA_JI_K_JAEAH@Z ; ATL::CComControlBase::OnMouseActivate
PUBLIC	?PreTranslateAccelerator@CComControlBase@ATL@@QEAAHPEAUtagMSG@@AEAJ@Z ; ATL::CComControlBase::PreTranslateAccelerator
PUBLIC	?GetAmbientProperty@CComControlBase@ATL@@QEAAJJAEAUtagVARIANT@@@Z ; ATL::CComControlBase::GetAmbientProperty
PUBLIC	?GetAmbientLocaleID@CComControlBase@ATL@@QEAAJAEAK@Z ; ATL::CComControlBase::GetAmbientLocaleID
PUBLIC	?GetAmbientUserMode@CComControlBase@ATL@@QEAAJAEAH@Z ; ATL::CComControlBase::GetAmbientUserMode
PUBLIC	?InternalGetSite@CComControlBase@ATL@@QEAAJAEBU_GUID@@PEAPEAX@Z ; ATL::CComControlBase::InternalGetSite
PUBLIC	?DoesVerbUIActivate@CComControlBase@ATL@@QEAAHJ@Z ; ATL::CComControlBase::DoesVerbUIActivate
PUBLIC	?DoesVerbActivate@CComControlBase@ATL@@QEAAHJ@Z	; ATL::CComControlBase::DoesVerbActivate
PUBLIC	?SetControlFocus@CComControlBase@ATL@@QEAAHH@Z	; ATL::CComControlBase::SetControlFocus
PUBLIC	?IQuickActivate_QuickActivate@CComControlBase@ATL@@QEAAJPEAUtagQACONTAINER@@PEAUtagQACONTROL@@@Z ; ATL::CComControlBase::IQuickActivate_QuickActivate
PUBLIC	?DoVerbProperties@CComControlBase@ATL@@QEAAJPEBUtagRECT@@PEAUHWND__@@@Z ; ATL::CComControlBase::DoVerbProperties
PUBLIC	?InPlaceActivate@CComControlBase@ATL@@QEAAJJPEBUtagRECT@@@Z ; ATL::CComControlBase::InPlaceActivate
PUBLIC	?IOleObject_SetClientSite@CComControlBase@ATL@@QEAAJPEAUIOleClientSite@@@Z ; ATL::CComControlBase::IOleObject_SetClientSite
PUBLIC	?IOleObject_GetClientSite@CComControlBase@ATL@@QEAAJPEAPEAUIOleClientSite@@@Z ; ATL::CComControlBase::IOleObject_GetClientSite
PUBLIC	?IOleObject_Advise@CComControlBase@ATL@@QEAAJPEAUIAdviseSink@@PEAK@Z ; ATL::CComControlBase::IOleObject_Advise
PUBLIC	?IOleObject_Close@CComControlBase@ATL@@QEAAJK@Z	; ATL::CComControlBase::IOleObject_Close
PUBLIC	?IOleObject_SetExtent@CComControlBase@ATL@@QEAAJKPEAUtagSIZE@@@Z ; ATL::CComControlBase::IOleObject_SetExtent
PUBLIC	?IOleInPlaceObject_InPlaceDeactivate@CComControlBase@ATL@@QEAAJXZ ; ATL::CComControlBase::IOleInPlaceObject_InPlaceDeactivate
PUBLIC	?IOleInPlaceObject_UIDeactivate@CComControlBase@ATL@@QEAAJXZ ; ATL::CComControlBase::IOleInPlaceObject_UIDeactivate
PUBLIC	?IOleInPlaceObject_SetObjectRects@CComControlBase@ATL@@QEAAJPEBUtagRECT@@0@Z ; ATL::CComControlBase::IOleInPlaceObject_SetObjectRects
PUBLIC	?IViewObject_Draw@CComControlBase@ATL@@QEAAJKJPEAXPEAUtagDVTARGETDEVICE@@PEAUHDC__@@2PEBU_RECTL@@3@Z ; ATL::CComControlBase::IViewObject_Draw
PUBLIC	?IDataObject_GetData@CComControlBase@ATL@@QEAAJPEAUtagFORMATETC@@PEAUtagSTGMEDIUM@@@Z ; ATL::CComControlBase::IDataObject_GetData
PUBLIC	?FireViewChange@CComControlBase@ATL@@QEAAJXZ	; ATL::CComControlBase::FireViewChange
PUBLIC	?OnPaint@CComControlBase@ATL@@QEAA_JI_K_JAEAH@Z	; ATL::CComControlBase::OnPaint
PUBLIC	?OnDrawAdvanced@CComControlBase@ATL@@UEAAJAEAUATL_DRAWINFO@@@Z ; ATL::CComControlBase::OnDrawAdvanced
PUBLIC	??B?$CComPtrBase@UIOleInPlaceSiteWindowless@@@ATL@@QEBAPEAUIOleInPlaceSiteWindowless@@XZ ; ATL::CComPtrBase<IOleInPlaceSiteWindowless>::operator IOleInPlaceSiteWindowless *
PUBLIC	??I?$CComPtrBase@UIOleInPlaceSiteWindowless@@@ATL@@QEAAPEAPEAUIOleInPlaceSiteWindowless@@XZ ; ATL::CComPtrBase<IOleInPlaceSiteWindowless>::operator&
PUBLIC	??C?$CComPtrBase@UIOleInPlaceSiteWindowless@@@ATL@@QEBAPEAV?$_NoAddRefReleaseOnCComPtr@UIOleInPlaceSiteWindowless@@@1@XZ ; ATL::CComPtrBase<IOleInPlaceSiteWindowless>::operator->
PUBLIC	??7?$CComPtrBase@UIOleInPlaceSiteWindowless@@@ATL@@QEBA_NXZ ; ATL::CComPtrBase<IOleInPlaceSiteWindowless>::operator!
PUBLIC	??9?$CComPtrBase@UIOleInPlaceSiteWindowless@@@ATL@@QEBA_NPEAUIOleInPlaceSiteWindowless@@@Z ; ATL::CComPtrBase<IOleInPlaceSiteWindowless>::operator!=
PUBLIC	??8?$CComPtrBase@UIOleInPlaceSiteWindowless@@@ATL@@QEBA_NPEAUIOleInPlaceSiteWindowless@@@Z ; ATL::CComPtrBase<IOleInPlaceSiteWindowless>::operator==
PUBLIC	?Release@?$CComPtrBase@UIOleInPlaceSiteWindowless@@@ATL@@QEAAXXZ ; ATL::CComPtrBase<IOleInPlaceSiteWindowless>::Release
PUBLIC	??B?$CComPtrBase@UIDataAdviseHolder@@@ATL@@QEBAPEAUIDataAdviseHolder@@XZ ; ATL::CComPtrBase<IDataAdviseHolder>::operator IDataAdviseHolder *
PUBLIC	??I?$CComPtrBase@UIDataAdviseHolder@@@ATL@@QEAAPEAPEAUIDataAdviseHolder@@XZ ; ATL::CComPtrBase<IDataAdviseHolder>::operator&
PUBLIC	??C?$CComPtrBase@UIDataAdviseHolder@@@ATL@@QEBAPEAV?$_NoAddRefReleaseOnCComPtr@UIDataAdviseHolder@@@1@XZ ; ATL::CComPtrBase<IDataAdviseHolder>::operator->
PUBLIC	??9?$CComPtrBase@UIDataAdviseHolder@@@ATL@@QEBA_NPEAUIDataAdviseHolder@@@Z ; ATL::CComPtrBase<IDataAdviseHolder>::operator!=
PUBLIC	??8?$CComPtrBase@UIDataAdviseHolder@@@ATL@@QEBA_NPEAUIDataAdviseHolder@@@Z ; ATL::CComPtrBase<IDataAdviseHolder>::operator==
PUBLIC	??B?$CComPtrBase@UIOleAdviseHolder@@@ATL@@QEBAPEAUIOleAdviseHolder@@XZ ; ATL::CComPtrBase<IOleAdviseHolder>::operator IOleAdviseHolder *
PUBLIC	??I?$CComPtrBase@UIOleAdviseHolder@@@ATL@@QEAAPEAPEAUIOleAdviseHolder@@XZ ; ATL::CComPtrBase<IOleAdviseHolder>::operator&
PUBLIC	??C?$CComPtrBase@UIOleAdviseHolder@@@ATL@@QEBAPEAV?$_NoAddRefReleaseOnCComPtr@UIOleAdviseHolder@@@1@XZ ; ATL::CComPtrBase<IOleAdviseHolder>::operator->
PUBLIC	??9?$CComPtrBase@UIOleAdviseHolder@@@ATL@@QEBA_NPEAUIOleAdviseHolder@@@Z ; ATL::CComPtrBase<IOleAdviseHolder>::operator!=
PUBLIC	??8?$CComPtrBase@UIOleAdviseHolder@@@ATL@@QEBA_NPEAUIOleAdviseHolder@@@Z ; ATL::CComPtrBase<IOleAdviseHolder>::operator==
PUBLIC	??0?$CComPtrBase@UIOleControlSite@@@ATL@@IEAA@XZ ; ATL::CComPtrBase<IOleControlSite>::CComPtrBase<IOleControlSite>
PUBLIC	??1?$CComPtrBase@UIOleControlSite@@@ATL@@QEAA@XZ ; ATL::CComPtrBase<IOleControlSite>::~CComPtrBase<IOleControlSite>
PUBLIC	??B?$CComPtrBase@UIOleControlSite@@@ATL@@QEBAPEAUIOleControlSite@@XZ ; ATL::CComPtrBase<IOleControlSite>::operator IOleControlSite *
PUBLIC	??I?$CComPtrBase@UIOleControlSite@@@ATL@@QEAAPEAPEAUIOleControlSite@@XZ ; ATL::CComPtrBase<IOleControlSite>::operator&
PUBLIC	??C?$CComPtrBase@UIOleControlSite@@@ATL@@QEBAPEAV?$_NoAddRefReleaseOnCComPtr@UIOleControlSite@@@1@XZ ; ATL::CComPtrBase<IOleControlSite>::operator->
PUBLIC	??9?$CComPtrBase@UIOleControlSite@@@ATL@@QEBA_NPEAUIOleControlSite@@@Z ; ATL::CComPtrBase<IOleControlSite>::operator!=
PUBLIC	??8?$CComPtrBase@UIOleControlSite@@@ATL@@QEBA_NPEAUIOleControlSite@@@Z ; ATL::CComPtrBase<IOleControlSite>::operator==
PUBLIC	??0?$CComPtr@UIOleControlSite@@@ATL@@QEAA@XZ	; ATL::CComPtr<IOleControlSite>::CComPtr<IOleControlSite>
PUBLIC	??1?$CComPtr@UIOleControlSite@@@ATL@@QEAA@XZ	; ATL::CComPtr<IOleControlSite>::~CComPtr<IOleControlSite>
PUBLIC	??0?$CComQIPtr@UIOleControlSite@@$1?_GUID_b196b289_bab4_101a_b69c_00aa00341d07@@3U__s_GUID@@B@ATL@@QEAA@PEAUIUnknown@@@Z ; ATL::CComQIPtr<IOleControlSite,&_GUID_b196b289_bab4_101a_b69c_00aa00341d07>::CComQIPtr<IOleControlSite,&_GUID_b196b289_bab4_101a_b69c_00aa00341d07>
PUBLIC	??1?$CComQIPtr@UIOleControlSite@@$1?_GUID_b196b289_bab4_101a_b69c_00aa00341d07@@3U__s_GUID@@B@ATL@@QEAA@XZ ; ATL::CComQIPtr<IOleControlSite,&_GUID_b196b289_bab4_101a_b69c_00aa00341d07>::~CComQIPtr<IOleControlSite,&_GUID_b196b289_bab4_101a_b69c_00aa00341d07>
PUBLIC	??0?$CComPtrBase@UIPointerInactive@@@ATL@@IEAA@XZ ; ATL::CComPtrBase<IPointerInactive>::CComPtrBase<IPointerInactive>
PUBLIC	??1?$CComPtrBase@UIPointerInactive@@@ATL@@QEAA@XZ ; ATL::CComPtrBase<IPointerInactive>::~CComPtrBase<IPointerInactive>
PUBLIC	??I?$CComPtrBase@UIPointerInactive@@@ATL@@QEAAPEAPEAUIPointerInactive@@XZ ; ATL::CComPtrBase<IPointerInactive>::operator&
PUBLIC	??C?$CComPtrBase@UIPointerInactive@@@ATL@@QEBAPEAV?$_NoAddRefReleaseOnCComPtr@UIPointerInactive@@@1@XZ ; ATL::CComPtrBase<IPointerInactive>::operator->
PUBLIC	??9?$CComPtrBase@UIPointerInactive@@@ATL@@QEBA_NPEAUIPointerInactive@@@Z ; ATL::CComPtrBase<IPointerInactive>::operator!=
PUBLIC	??8?$CComPtrBase@UIPointerInactive@@@ATL@@QEBA_NPEAUIPointerInactive@@@Z ; ATL::CComPtrBase<IPointerInactive>::operator==
PUBLIC	??0?$CComPtr@UIPointerInactive@@@ATL@@QEAA@XZ	; ATL::CComPtr<IPointerInactive>::CComPtr<IPointerInactive>
PUBLIC	??1?$CComPtr@UIPointerInactive@@@ATL@@QEAA@XZ	; ATL::CComPtr<IPointerInactive>::~CComPtr<IPointerInactive>
PUBLIC	??0?$CComPtrBase@UISpecifyPropertyPages@@@ATL@@IEAA@XZ ; ATL::CComPtrBase<ISpecifyPropertyPages>::CComPtrBase<ISpecifyPropertyPages>
PUBLIC	??1?$CComPtrBase@UISpecifyPropertyPages@@@ATL@@QEAA@XZ ; ATL::CComPtrBase<ISpecifyPropertyPages>::~CComPtrBase<ISpecifyPropertyPages>
PUBLIC	??B?$CComPtrBase@UISpecifyPropertyPages@@@ATL@@QEBAPEAUISpecifyPropertyPages@@XZ ; ATL::CComPtrBase<ISpecifyPropertyPages>::operator ISpecifyPropertyPages *
PUBLIC	??C?$CComPtrBase@UISpecifyPropertyPages@@@ATL@@QEBAPEAV?$_NoAddRefReleaseOnCComPtr@UISpecifyPropertyPages@@@1@XZ ; ATL::CComPtrBase<ISpecifyPropertyPages>::operator->
PUBLIC	??0?$CComPtr@UISpecifyPropertyPages@@@ATL@@QEAA@XZ ; ATL::CComPtr<ISpecifyPropertyPages>::CComPtr<ISpecifyPropertyPages>
PUBLIC	??1?$CComPtr@UISpecifyPropertyPages@@@ATL@@QEAA@XZ ; ATL::CComPtr<ISpecifyPropertyPages>::~CComPtr<ISpecifyPropertyPages>
PUBLIC	??0?$CComQIPtr@UISpecifyPropertyPages@@$1?_GUID_b196b28b_bab4_101a_b69c_00aa00341d07@@3U__s_GUID@@B@ATL@@QEAA@XZ ; ATL::CComQIPtr<ISpecifyPropertyPages,&_GUID_b196b28b_bab4_101a_b69c_00aa00341d07>::CComQIPtr<ISpecifyPropertyPages,&_GUID_b196b28b_bab4_101a_b69c_00aa00341d07>
PUBLIC	??4?$CComQIPtr@UISpecifyPropertyPages@@$1?_GUID_b196b28b_bab4_101a_b69c_00aa00341d07@@3U__s_GUID@@B@ATL@@QEAAPEAUISpecifyPropertyPages@@PEAUIUnknown@@@Z ; ATL::CComQIPtr<ISpecifyPropertyPages,&_GUID_b196b28b_bab4_101a_b69c_00aa00341d07>::operator=
PUBLIC	??1?$CComQIPtr@UISpecifyPropertyPages@@$1?_GUID_b196b28b_bab4_101a_b69c_00aa00341d07@@3U__s_GUID@@B@ATL@@QEAA@XZ ; ATL::CComQIPtr<ISpecifyPropertyPages,&_GUID_b196b28b_bab4_101a_b69c_00aa00341d07>::~CComQIPtr<ISpecifyPropertyPages,&_GUID_b196b28b_bab4_101a_b69c_00aa00341d07>
PUBLIC	??0?$CComQIPtr@UIOleObject@@$1?_GUID_00000112_0000_0000_c000_000000000046@@3U__s_GUID@@B@ATL@@QEAA@XZ ; ATL::CComQIPtr<IOleObject,&_GUID_00000112_0000_0000_c000_000000000046>::CComQIPtr<IOleObject,&_GUID_00000112_0000_0000_c000_000000000046>
PUBLIC	??4?$CComQIPtr@UIOleObject@@$1?_GUID_00000112_0000_0000_c000_000000000046@@3U__s_GUID@@B@ATL@@QEAAPEAUIOleObject@@PEAUIUnknown@@@Z ; ATL::CComQIPtr<IOleObject,&_GUID_00000112_0000_0000_c000_000000000046>::operator=
PUBLIC	??1?$CComQIPtr@UIOleObject@@$1?_GUID_00000112_0000_0000_c000_000000000046@@3U__s_GUID@@B@ATL@@QEAA@XZ ; ATL::CComQIPtr<IOleObject,&_GUID_00000112_0000_0000_c000_000000000046>::~CComQIPtr<IOleObject,&_GUID_00000112_0000_0000_c000_000000000046>
PUBLIC	??0?$CComPtrBase@UIOleInPlaceObject@@@ATL@@IEAA@XZ ; ATL::CComPtrBase<IOleInPlaceObject>::CComPtrBase<IOleInPlaceObject>
PUBLIC	??1?$CComPtrBase@UIOleInPlaceObject@@@ATL@@QEAA@XZ ; ATL::CComPtrBase<IOleInPlaceObject>::~CComPtrBase<IOleInPlaceObject>
PUBLIC	??I?$CComPtrBase@UIOleInPlaceObject@@@ATL@@QEAAPEAPEAUIOleInPlaceObject@@XZ ; ATL::CComPtrBase<IOleInPlaceObject>::operator&
PUBLIC	??C?$CComPtrBase@UIOleInPlaceObject@@@ATL@@QEBAPEAV?$_NoAddRefReleaseOnCComPtr@UIOleInPlaceObject@@@1@XZ ; ATL::CComPtrBase<IOleInPlaceObject>::operator->
PUBLIC	??9?$CComPtrBase@UIOleInPlaceObject@@@ATL@@QEBA_NPEAUIOleInPlaceObject@@@Z ; ATL::CComPtrBase<IOleInPlaceObject>::operator!=
PUBLIC	??8?$CComPtrBase@UIOleInPlaceObject@@@ATL@@QEBA_NPEAUIOleInPlaceObject@@@Z ; ATL::CComPtrBase<IOleInPlaceObject>::operator==
PUBLIC	??0?$CComPtr@UIOleInPlaceObject@@@ATL@@QEAA@XZ	; ATL::CComPtr<IOleInPlaceObject>::CComPtr<IOleInPlaceObject>
PUBLIC	??1?$CComPtr@UIOleInPlaceObject@@@ATL@@QEAA@XZ	; ATL::CComPtr<IOleInPlaceObject>::~CComPtr<IOleInPlaceObject>
PUBLIC	??0?$CComPtrBase@UIDataObject@@@ATL@@IEAA@XZ	; ATL::CComPtrBase<IDataObject>::CComPtrBase<IDataObject>
PUBLIC	??1?$CComPtrBase@UIDataObject@@@ATL@@QEAA@XZ	; ATL::CComPtrBase<IDataObject>::~CComPtrBase<IDataObject>
PUBLIC	??B?$CComPtrBase@UIDataObject@@@ATL@@QEBAPEAUIDataObject@@XZ ; ATL::CComPtrBase<IDataObject>::operator IDataObject *
PUBLIC	??I?$CComPtrBase@UIDataObject@@@ATL@@QEAAPEAPEAUIDataObject@@XZ ; ATL::CComPtrBase<IDataObject>::operator&
PUBLIC	??0?$CComPtr@UIDataObject@@@ATL@@QEAA@XZ	; ATL::CComPtr<IDataObject>::CComPtr<IDataObject>
PUBLIC	??1?$CComPtr@UIDataObject@@@ATL@@QEAA@XZ	; ATL::CComPtr<IDataObject>::~CComPtr<IDataObject>
PUBLIC	??0OposVariant@@QEAA@XZ				; OposVariant::OposVariant
PUBLIC	??1OposVariant@@QEAA@XZ				; OposVariant::~OposVariant
PUBLIC	?Clear@OposVariant@@QEAAJXZ			; OposVariant::Clear
PUBLIC	?GetTypeInfoCount@?$IDispatchImpl@UIOPOSIndividualRecognition@@$1?IID_IOPOSIndividualRecognition@@3U_GUID@@B$1?LIBID_OposIndividualRecognition_CCO@@3U3@B$00$0A@VCComTypeInfoHolder@ATL@@@ATL@@UEAAJPEAI@Z ; ATL::IDispatchImpl<IOPOSIndividualRecognition,&IID_IOPOSIndividualRecognition,&LIBID_OposIndividualRecognition_CCO,1,0,ATL::CComTypeInfoHolder>::GetTypeInfoCount
PUBLIC	?GetTypeInfo@?$IDispatchImpl@UIOPOSIndividualRecognition@@$1?IID_IOPOSIndividualRecognition@@3U_GUID@@B$1?LIBID_OposIndividualRecognition_CCO@@3U3@B$00$0A@VCComTypeInfoHolder@ATL@@@ATL@@UEAAJIKPEAPEAUITypeInfo@@@Z ; ATL::IDispatchImpl<IOPOSIndividualRecognition,&IID_IOPOSIndividualRecognition,&LIBID_OposIndividualRecognition_CCO,1,0,ATL::CComTypeInfoHolder>::GetTypeInfo
PUBLIC	?GetIDsOfNames@?$IDispatchImpl@UIOPOSIndividualRecognition@@$1?IID_IOPOSIndividualRecognition@@3U_GUID@@B$1?LIBID_OposIndividualRecognition_CCO@@3U3@B$00$0A@VCComTypeInfoHolder@ATL@@@ATL@@UEAAJAEBU_GUID@@PEAPEA_WIKPEAJ@Z ; ATL::IDispatchImpl<IOPOSIndividualRecognition,&IID_IOPOSIndividualRecognition,&LIBID_OposIndividualRecognition_CCO,1,0,ATL::CComTypeInfoHolder>::GetIDsOfNames
PUBLIC	?Invoke@?$IDispatchImpl@UIOPOSIndividualRecognition@@$1?IID_IOPOSIndividualRecognition@@3U_GUID@@B$1?LIBID_OposIndividualRecognition_CCO@@3U3@B$00$0A@VCComTypeInfoHolder@ATL@@@ATL@@UEAAJJAEBU_GUID@@KGPEAUtagDISPPARAMS@@PEAUtagVARIANT@@PEAUtagEXCEPINFO@@PEAI@Z ; ATL::IDispatchImpl<IOPOSIndividualRecognition,&IID_IOPOSIndividualRecognition,&LIBID_OposIndividualRecognition_CCO,1,0,ATL::CComTypeInfoHolder>::Invoke
PUBLIC	?GetWndClassInfo@?$CWindowImpl@VCOPOSIndividualRecognition@@VCWindow@ATL@@V?$CWinTraits@$0FGAAAAAA@$0A@@3@@ATL@@SAAEAU_ATL_WNDCLASSINFOW@2@XZ ; ATL::CWindowImpl<COPOSIndividualRecognition,ATL::CWindow,ATL::CWinTraits<1442840576,0> >::GetWndClassInfo
PUBLIC	?GetWndCaption@?$CWindowImpl@VCOPOSIndividualRecognition@@VCWindow@ATL@@V?$CWinTraits@$0FGAAAAAA@$0A@@3@@ATL@@SAPEB_WXZ ; ATL::CWindowImpl<COPOSIndividualRecognition,ATL::CWindow,ATL::CWinTraits<1442840576,0> >::GetWndCaption
PUBLIC	?atlCreate@?$CWindowImpl@VCOPOSIndividualRecognition@@VCWindow@ATL@@V?$CWinTraits@$0FGAAAAAA@$0A@@3@@ATL@@QEAAPEAUHWND__@@PEAU3@V_U_RECT@2@PEB_WKKV_U_MENUorID@2@PEAX@Z ; ATL::CWindowImpl<COPOSIndividualRecognition,ATL::CWindow,ATL::CWinTraits<1442840576,0> >::atlCreate
PUBLIC	?CreateControlWindow@?$CComControl@VCOPOSIndividualRecognition@@V?$CWindowImpl@VCOPOSIndividualRecognition@@VCWindow@ATL@@V?$CWinTraits@$0FGAAAAAA@$0A@@3@@ATL@@@ATL@@UEAAPEAUHWND__@@PEAU3@AEAUtagRECT@@@Z ; ATL::CComControl<COPOSIndividualRecognition,ATL::CWindowImpl<COPOSIndividualRecognition,ATL::CWindow,ATL::CWinTraits<1442840576,0> > >::CreateControlWindow
PUBLIC	?ControlQueryInterface@?$CComControl@VCOPOSIndividualRecognition@@V?$CWindowImpl@VCOPOSIndividualRecognition@@VCWindow@ATL@@V?$CWinTraits@$0FGAAAAAA@$0A@@3@@ATL@@@ATL@@UEAAJAEBU_GUID@@PEAPEAX@Z ; ATL::CComControl<COPOSIndividualRecognition,ATL::CWindowImpl<COPOSIndividualRecognition,ATL::CWindow,ATL::CWinTraits<1442840576,0> > >::ControlQueryInterface
PUBLIC	?ProcessWindowMessage@?$CComControl@VCOPOSIndividualRecognition@@V?$CWindowImpl@VCOPOSIndividualRecognition@@VCWindow@ATL@@V?$CWinTraits@$0FGAAAAAA@$0A@@3@@ATL@@@ATL@@UEAAHPEAUHWND__@@I_K_JAEA_JK@Z ; ATL::CComControl<COPOSIndividualRecognition,ATL::CWindowImpl<COPOSIndividualRecognition,ATL::CWindow,ATL::CWinTraits<1442840576,0> > >::ProcessWindowMessage
PUBLIC	?GetClassID@?$IPersistStreamInitImpl@VCOPOSIndividualRecognition@@@ATL@@UEAAJPEAU_GUID@@@Z ; ATL::IPersistStreamInitImpl<COPOSIndividualRecognition>::GetClassID
PUBLIC	?IsDirty@?$IPersistStreamInitImpl@VCOPOSIndividualRecognition@@@ATL@@UEAAJXZ ; ATL::IPersistStreamInitImpl<COPOSIndividualRecognition>::IsDirty
PUBLIC	?Load@?$IPersistStreamInitImpl@VCOPOSIndividualRecognition@@@ATL@@UEAAJPEAUIStream@@@Z ; ATL::IPersistStreamInitImpl<COPOSIndividualRecognition>::Load
PUBLIC	?Save@?$IPersistStreamInitImpl@VCOPOSIndividualRecognition@@@ATL@@UEAAJPEAUIStream@@H@Z ; ATL::IPersistStreamInitImpl<COPOSIndividualRecognition>::Save
PUBLIC	?GetSizeMax@?$IPersistStreamInitImpl@VCOPOSIndividualRecognition@@@ATL@@UEAAJPEAT_ULARGE_INTEGER@@@Z ; ATL::IPersistStreamInitImpl<COPOSIndividualRecognition>::GetSizeMax
PUBLIC	?InitNew@?$IPersistStreamInitImpl@VCOPOSIndividualRecognition@@@ATL@@UEAAJXZ ; ATL::IPersistStreamInitImpl<COPOSIndividualRecognition>::InitNew
PUBLIC	?IPersistStreamInit_Load@?$IPersistStreamInitImpl@VCOPOSIndividualRecognition@@@ATL@@QEAAJPEAUIStream@@PEBUATL_PROPMAP_ENTRY@2@@Z ; ATL::IPersistStreamInitImpl<COPOSIndividualRecognition>::IPersistStreamInit_Load
PUBLIC	?IPersistStreamInit_Save@?$IPersistStreamInitImpl@VCOPOSIndividualRecognition@@@ATL@@QEAAJPEAUIStream@@HPEBUATL_PROPMAP_ENTRY@2@@Z ; ATL::IPersistStreamInitImpl<COPOSIndividualRecognition>::IPersistStreamInit_Save
PUBLIC	?GetControlInfo@?$IOleControlImpl@VCOPOSIndividualRecognition@@@ATL@@UEAAJPEAUtagCONTROLINFO@@@Z ; ATL::IOleControlImpl<COPOSIndividualRecognition>::GetControlInfo
PUBLIC	?OnMnemonic@?$IOleControlImpl@VCOPOSIndividualRecognition@@@ATL@@UEAAJPEAUtagMSG@@@Z ; ATL::IOleControlImpl<COPOSIndividualRecognition>::OnMnemonic
PUBLIC	?OnAmbientPropertyChange@?$IOleControlImpl@VCOPOSIndividualRecognition@@@ATL@@UEAAJJ@Z ; ATL::IOleControlImpl<COPOSIndividualRecognition>::OnAmbientPropertyChange
PUBLIC	?SetClientSite@?$IOleObjectImpl@VCOPOSIndividualRecognition@@@ATL@@UEAAJPEAUIOleClientSite@@@Z ; ATL::IOleObjectImpl<COPOSIndividualRecognition>::SetClientSite
PUBLIC	?GetClientSite@?$IOleObjectImpl@VCOPOSIndividualRecognition@@@ATL@@UEAAJPEAPEAUIOleClientSite@@@Z ; ATL::IOleObjectImpl<COPOSIndividualRecognition>::GetClientSite
PUBLIC	?SetHostNames@?$IOleObjectImpl@VCOPOSIndividualRecognition@@@ATL@@UEAAJPEB_W0@Z ; ATL::IOleObjectImpl<COPOSIndividualRecognition>::SetHostNames
PUBLIC	?Close@?$IOleObjectImpl@VCOPOSIndividualRecognition@@@ATL@@UEAAJK@Z ; ATL::IOleObjectImpl<COPOSIndividualRecognition>::Close
PUBLIC	?SetMoniker@?$IOleObjectImpl@VCOPOSIndividualRecognition@@@ATL@@UEAAJKPEAUIMoniker@@@Z ; ATL::IOleObjectImpl<COPOSIndividualRecognition>::SetMoniker
PUBLIC	?GetMoniker@?$IOleObjectImpl@VCOPOSIndividualRecognition@@@ATL@@UEAAJKKPEAPEAUIMoniker@@@Z ; ATL::IOleObjectImpl<COPOSIndividualRecognition>::GetMoniker
PUBLIC	?InitFromData@?$IOleObjectImpl@VCOPOSIndividualRecognition@@@ATL@@UEAAJPEAUIDataObject@@HK@Z ; ATL::IOleObjectImpl<COPOSIndividualRecognition>::InitFromData
PUBLIC	?GetClipboardData@?$IOleObjectImpl@VCOPOSIndividualRecognition@@@ATL@@UEAAJKPEAPEAUIDataObject@@@Z ; ATL::IOleObjectImpl<COPOSIndividualRecognition>::GetClipboardData
PUBLIC	?DoVerbPrimary@?$IOleObjectImpl@VCOPOSIndividualRecognition@@@ATL@@QEAAJPEBUtagRECT@@PEAUHWND__@@@Z ; ATL::IOleObjectImpl<COPOSIndividualRecognition>::DoVerbPrimary
PUBLIC	?DoVerbShow@?$IOleObjectImpl@VCOPOSIndividualRecognition@@@ATL@@QEAAJPEBUtagRECT@@PEAUHWND__@@@Z ; ATL::IOleObjectImpl<COPOSIndividualRecognition>::DoVerbShow
PUBLIC	?DoVerbInPlaceActivate@?$IOleObjectImpl@VCOPOSIndividualRecognition@@@ATL@@QEAAJPEBUtagRECT@@PEAUHWND__@@@Z ; ATL::IOleObjectImpl<COPOSIndividualRecognition>::DoVerbInPlaceActivate
PUBLIC	?DoVerbUIActivate@?$IOleObjectImpl@VCOPOSIndividualRecognition@@@ATL@@QEAAJPEBUtagRECT@@PEAUHWND__@@@Z ; ATL::IOleObjectImpl<COPOSIndividualRecognition>::DoVerbUIActivate
PUBLIC	?DoVerbHide@?$IOleObjectImpl@VCOPOSIndividualRecognition@@@ATL@@QEAAJPEBUtagRECT@@PEAUHWND__@@@Z ; ATL::IOleObjectImpl<COPOSIndividualRecognition>::DoVerbHide
PUBLIC	?DoVerbOpen@?$IOleObjectImpl@VCOPOSIndividualRecognition@@@ATL@@QEAAJPEBUtagRECT@@PEAUHWND__@@@Z ; ATL::IOleObjectImpl<COPOSIndividualRecognition>::DoVerbOpen
PUBLIC	?DoVerbDiscardUndo@?$IOleObjectImpl@VCOPOSIndividualRecognition@@@ATL@@QEAAJPEBUtagRECT@@PEAUHWND__@@@Z ; ATL::IOleObjectImpl<COPOSIndividualRecognition>::DoVerbDiscardUndo
PUBLIC	?DoVerb@?$IOleObjectImpl@VCOPOSIndividualRecognition@@@ATL@@UEAAJJPEAUtagMSG@@PEAUIOleClientSite@@JPEAUHWND__@@PEBUtagRECT@@@Z ; ATL::IOleObjectImpl<COPOSIndividualRecognition>::DoVerb
PUBLIC	?EnumVerbs@?$IOleObjectImpl@VCOPOSIndividualRecognition@@@ATL@@UEAAJPEAPEAUIEnumOLEVERB@@@Z ; ATL::IOleObjectImpl<COPOSIndividualRecognition>::EnumVerbs
PUBLIC	?Update@?$IOleObjectImpl@VCOPOSIndividualRecognition@@@ATL@@UEAAJXZ ; ATL::IOleObjectImpl<COPOSIndividualRecognition>::Update
PUBLIC	?IsUpToDate@?$IOleObjectImpl@VCOPOSIndividualRecognition@@@ATL@@UEAAJXZ ; ATL::IOleObjectImpl<COPOSIndividualRecognition>::IsUpToDate
PUBLIC	?GetUserClassID@?$IOleObjectImpl@VCOPOSIndividualRecognition@@@ATL@@UEAAJPEAU_GUID@@@Z ; ATL::IOleObjectImpl<COPOSIndividualRecognition>::GetUserClassID
PUBLIC	?GetUserType@?$IOleObjectImpl@VCOPOSIndividualRecognition@@@ATL@@UEAAJKPEAPEA_W@Z ; ATL::IOleObjectImpl<COPOSIndividualRecognition>::GetUserType
PUBLIC	?SetExtent@?$IOleObjectImpl@VCOPOSIndividualRecognition@@@ATL@@UEAAJKPEAUtagSIZE@@@Z ; ATL::IOleObjectImpl<COPOSIndividualRecognition>::SetExtent
PUBLIC	?GetExtent@?$IOleObjectImpl@VCOPOSIndividualRecognition@@@ATL@@UEAAJKPEAUtagSIZE@@@Z ; ATL::IOleObjectImpl<COPOSIndividualRecognition>::GetExtent
PUBLIC	?Advise@?$IOleObjectImpl@VCOPOSIndividualRecognition@@@ATL@@UEAAJPEAUIAdviseSink@@PEAK@Z ; ATL::IOleObjectImpl<COPOSIndividualRecognition>::Advise
PUBLIC	?Unadvise@?$IOleObjectImpl@VCOPOSIndividualRecognition@@@ATL@@UEAAJK@Z ; ATL::IOleObjectImpl<COPOSIndividualRecognition>::Unadvise
PUBLIC	?EnumAdvise@?$IOleObjectImpl@VCOPOSIndividualRecognition@@@ATL@@UEAAJPEAPEAUIEnumSTATDATA@@@Z ; ATL::IOleObjectImpl<COPOSIndividualRecognition>::EnumAdvise
PUBLIC	?GetMiscStatus@?$IOleObjectImpl@VCOPOSIndividualRecognition@@@ATL@@UEAAJKPEAK@Z ; ATL::IOleObjectImpl<COPOSIndividualRecognition>::GetMiscStatus
PUBLIC	?SetColorScheme@?$IOleObjectImpl@VCOPOSIndividualRecognition@@@ATL@@UEAAJPEAUtagLOGPALETTE@@@Z ; ATL::IOleObjectImpl<COPOSIndividualRecognition>::SetColorScheme
PUBLIC	?OnPreVerbShow@?$IOleObjectImpl@VCOPOSIndividualRecognition@@@ATL@@QEAAJXZ ; ATL::IOleObjectImpl<COPOSIndividualRecognition>::OnPreVerbShow
PUBLIC	?OnPostVerbShow@?$IOleObjectImpl@VCOPOSIndividualRecognition@@@ATL@@QEAAJXZ ; ATL::IOleObjectImpl<COPOSIndividualRecognition>::OnPostVerbShow
PUBLIC	?OnPreVerbInPlaceActivate@?$IOleObjectImpl@VCOPOSIndividualRecognition@@@ATL@@QEAAJXZ ; ATL::IOleObjectImpl<COPOSIndividualRecognition>::OnPreVerbInPlaceActivate
PUBLIC	?OnPostVerbInPlaceActivate@?$IOleObjectImpl@VCOPOSIndividualRecognition@@@ATL@@QEAAJXZ ; ATL::IOleObjectImpl<COPOSIndividualRecognition>::OnPostVerbInPlaceActivate
PUBLIC	?OnPreVerbUIActivate@?$IOleObjectImpl@VCOPOSIndividualRecognition@@@ATL@@QEAAJXZ ; ATL::IOleObjectImpl<COPOSIndividualRecognition>::OnPreVerbUIActivate
PUBLIC	?OnPostVerbUIActivate@?$IOleObjectImpl@VCOPOSIndividualRecognition@@@ATL@@QEAAJXZ ; ATL::IOleObjectImpl<COPOSIndividualRecognition>::OnPostVerbUIActivate
PUBLIC	?OnPreVerbHide@?$IOleObjectImpl@VCOPOSIndividualRecognition@@@ATL@@QEAAJXZ ; ATL::IOleObjectImpl<COPOSIndividualRecognition>::OnPreVerbHide
PUBLIC	?OnPostVerbHide@?$IOleObjectImpl@VCOPOSIndividualRecognition@@@ATL@@QEAAJXZ ; ATL::IOleObjectImpl<COPOSIndividualRecognition>::OnPostVerbHide
PUBLIC	?OnPreVerbOpen@?$IOleObjectImpl@VCOPOSIndividualRecognition@@@ATL@@QEAAJXZ ; ATL::IOleObjectImpl<COPOSIndividualRecognition>::OnPreVerbOpen
PUBLIC	?OnPostVerbOpen@?$IOleObjectImpl@VCOPOSIndividualRecognition@@@ATL@@QEAAJXZ ; ATL::IOleObjectImpl<COPOSIndividualRecognition>::OnPostVerbOpen
PUBLIC	?OnPreVerbDiscardUndo@?$IOleObjectImpl@VCOPOSIndividualRecognition@@@ATL@@QEAAJXZ ; ATL::IOleObjectImpl<COPOSIndividualRecognition>::OnPreVerbDiscardUndo
PUBLIC	?OnPostVerbDiscardUndo@?$IOleObjectImpl@VCOPOSIndividualRecognition@@@ATL@@QEAAJXZ ; ATL::IOleObjectImpl<COPOSIndividualRecognition>::OnPostVerbDiscardUndo
PUBLIC	?GetWindow@?$IOleInPlaceActiveObjectImpl@VCOPOSIndividualRecognition@@@ATL@@UEAAJPEAPEAUHWND__@@@Z ; ATL::IOleInPlaceActiveObjectImpl<COPOSIndividualRecognition>::GetWindow
PUBLIC	?ContextSensitiveHelp@?$IOleInPlaceActiveObjectImpl@VCOPOSIndividualRecognition@@@ATL@@UEAAJH@Z ; ATL::IOleInPlaceActiveObjectImpl<COPOSIndividualRecognition>::ContextSensitiveHelp
PUBLIC	?TranslateAcceleratorW@?$IOleInPlaceActiveObjectImpl@VCOPOSIndividualRecognition@@@ATL@@UEAAJPEAUtagMSG@@@Z ; ATL::IOleInPlaceActiveObjectImpl<COPOSIndividualRecognition>::TranslateAcceleratorW
PUBLIC	?OnFrameWindowActivate@?$IOleInPlaceActiveObjectImpl@VCOPOSIndividualRecognition@@@ATL@@UEAAJH@Z ; ATL::IOleInPlaceActiveObjectImpl<COPOSIndividualRecognition>::OnFrameWindowActivate
PUBLIC	?OnDocWindowActivate@?$IOleInPlaceActiveObjectImpl@VCOPOSIndividualRecognition@@@ATL@@UEAAJH@Z ; ATL::IOleInPlaceActiveObjectImpl<COPOSIndividualRecognition>::OnDocWindowActivate
PUBLIC	?ResizeBorder@?$IOleInPlaceActiveObjectImpl@VCOPOSIndividualRecognition@@@ATL@@UEAAJPEBUtagRECT@@PEAUIOleInPlaceUIWindow@@H@Z ; ATL::IOleInPlaceActiveObjectImpl<COPOSIndividualRecognition>::ResizeBorder
PUBLIC	?EnableModeless@?$IOleInPlaceActiveObjectImpl@VCOPOSIndividualRecognition@@@ATL@@UEAAJH@Z ; ATL::IOleInPlaceActiveObjectImpl<COPOSIndividualRecognition>::EnableModeless
PUBLIC	?Draw@?$IViewObjectExImpl@VCOPOSIndividualRecognition@@@ATL@@UEAAJKJPEAXPEAUtagDVTARGETDEVICE@@PEAUHDC__@@2PEBU_RECTL@@3P6AH_K@Z4@Z ; ATL::IViewObjectExImpl<COPOSIndividualRecognition>::Draw
PUBLIC	?GetColorSet@?$IViewObjectExImpl@VCOPOSIndividualRecognition@@@ATL@@UEAAJKJPEAXPEAUtagDVTARGETDEVICE@@PEAUHDC__@@PEAPEAUtagLOGPALETTE@@@Z ; ATL::IViewObjectExImpl<COPOSIndividualRecognition>::GetColorSet
PUBLIC	?Freeze@?$IViewObjectExImpl@VCOPOSIndividualRecognition@@@ATL@@UEAAJKJPEAXPEAK@Z ; ATL::IViewObjectExImpl<COPOSIndividualRecognition>::Freeze
PUBLIC	?Unfreeze@?$IViewObjectExImpl@VCOPOSIndividualRecognition@@@ATL@@UEAAJK@Z ; ATL::IViewObjectExImpl<COPOSIndividualRecognition>::Unfreeze
PUBLIC	?SetAdvise@?$IViewObjectExImpl@VCOPOSIndividualRecognition@@@ATL@@UEAAJKKPEAUIAdviseSink@@@Z ; ATL::IViewObjectExImpl<COPOSIndividualRecognition>::SetAdvise
PUBLIC	?GetAdvise@?$IViewObjectExImpl@VCOPOSIndividualRecognition@@@ATL@@UEAAJPEAK0PEAPEAUIAdviseSink@@@Z ; ATL::IViewObjectExImpl<COPOSIndividualRecognition>::GetAdvise
PUBLIC	?GetExtent@?$IViewObjectExImpl@VCOPOSIndividualRecognition@@@ATL@@UEAAJKJPEAUtagDVTARGETDEVICE@@PEAUtagSIZE@@@Z ; ATL::IViewObjectExImpl<COPOSIndividualRecognition>::GetExtent
PUBLIC	?GetRect@?$IViewObjectExImpl@VCOPOSIndividualRecognition@@@ATL@@UEAAJKPEAU_RECTL@@@Z ; ATL::IViewObjectExImpl<COPOSIndividualRecognition>::GetRect
PUBLIC	?GetViewStatus@?$IViewObjectExImpl@VCOPOSIndividualRecognition@@@ATL@@UEAAJPEAK@Z ; ATL::IViewObjectExImpl<COPOSIndividualRecognition>::GetViewStatus
PUBLIC	?QueryHitPoint@?$IViewObjectExImpl@VCOPOSIndividualRecognition@@@ATL@@UEAAJKPEBUtagRECT@@UtagPOINT@@JPEAK@Z ; ATL::IViewObjectExImpl<COPOSIndividualRecognition>::QueryHitPoint
PUBLIC	?QueryHitRect@?$IViewObjectExImpl@VCOPOSIndividualRecognition@@@ATL@@UEAAJKPEBUtagRECT@@0JPEAK@Z ; ATL::IViewObjectExImpl<COPOSIndividualRecognition>::QueryHitRect
PUBLIC	?GetNaturalExtent@?$IViewObjectExImpl@VCOPOSIndividualRecognition@@@ATL@@UEAAJKJPEAUtagDVTARGETDEVICE@@PEAUHDC__@@PEAUtagExtentInfo@@PEAUtagSIZE@@@Z ; ATL::IViewObjectExImpl<COPOSIndividualRecognition>::GetNaturalExtent
PUBLIC	?GetWindow@?$IOleInPlaceObjectWindowlessImpl@VCOPOSIndividualRecognition@@@ATL@@UEAAJPEAPEAUHWND__@@@Z ; ATL::IOleInPlaceObjectWindowlessImpl<COPOSIndividualRecognition>::GetWindow
PUBLIC	?ContextSensitiveHelp@?$IOleInPlaceObjectWindowlessImpl@VCOPOSIndividualRecognition@@@ATL@@UEAAJH@Z ; ATL::IOleInPlaceObjectWindowlessImpl<COPOSIndividualRecognition>::ContextSensitiveHelp
PUBLIC	?InPlaceDeactivate@?$IOleInPlaceObjectWindowlessImpl@VCOPOSIndividualRecognition@@@ATL@@UEAAJXZ ; ATL::IOleInPlaceObjectWindowlessImpl<COPOSIndividualRecognition>::InPlaceDeactivate
PUBLIC	?UIDeactivate@?$IOleInPlaceObjectWindowlessImpl@VCOPOSIndividualRecognition@@@ATL@@UEAAJXZ ; ATL::IOleInPlaceObjectWindowlessImpl<COPOSIndividualRecognition>::UIDeactivate
PUBLIC	?SetObjectRects@?$IOleInPlaceObjectWindowlessImpl@VCOPOSIndividualRecognition@@@ATL@@UEAAJPEBUtagRECT@@0@Z ; ATL::IOleInPlaceObjectWindowlessImpl<COPOSIndividualRecognition>::SetObjectRects
PUBLIC	?ReactivateAndUndo@?$IOleInPlaceObjectWindowlessImpl@VCOPOSIndividualRecognition@@@ATL@@UEAAJXZ ; ATL::IOleInPlaceObjectWindowlessImpl<COPOSIndividualRecognition>::ReactivateAndUndo
PUBLIC	?OnWindowMessage@?$IOleInPlaceObjectWindowlessImpl@VCOPOSIndividualRecognition@@@ATL@@UEAAJI_K_JPEA_J@Z ; ATL::IOleInPlaceObjectWindowlessImpl<COPOSIndividualRecognition>::OnWindowMessage
PUBLIC	?GetDropTarget@?$IOleInPlaceObjectWindowlessImpl@VCOPOSIndividualRecognition@@@ATL@@UEAAJPEAPEAUIDropTarget@@@Z ; ATL::IOleInPlaceObjectWindowlessImpl<COPOSIndividualRecognition>::GetDropTarget
PUBLIC	?EnumConnectionPoints@?$IConnectionPointContainerImpl@VCOPOSIndividualRecognition@@@ATL@@UEAAJPEAPEAUIEnumConnectionPoints@@@Z ; ATL::IConnectionPointContainerImpl<COPOSIndividualRecognition>::EnumConnectionPoints
PUBLIC	?FindConnectionPoint@?$IConnectionPointContainerImpl@VCOPOSIndividualRecognition@@@ATL@@UEAAJAEBU_GUID@@PEAPEAUIConnectionPoint@@@Z ; ATL::IConnectionPointContainerImpl<COPOSIndividualRecognition>::FindConnectionPoint
PUBLIC	?GetClassID@?$IPersistStorageImpl@VCOPOSIndividualRecognition@@@ATL@@UEAAJPEAU_GUID@@@Z ; ATL::IPersistStorageImpl<COPOSIndividualRecognition>::GetClassID
PUBLIC	?IsDirty@?$IPersistStorageImpl@VCOPOSIndividualRecognition@@@ATL@@UEAAJXZ ; ATL::IPersistStorageImpl<COPOSIndividualRecognition>::IsDirty
PUBLIC	?InitNew@?$IPersistStorageImpl@VCOPOSIndividualRecognition@@@ATL@@UEAAJPEAUIStorage@@@Z ; ATL::IPersistStorageImpl<COPOSIndividualRecognition>::InitNew
PUBLIC	?Load@?$IPersistStorageImpl@VCOPOSIndividualRecognition@@@ATL@@UEAAJPEAUIStorage@@@Z ; ATL::IPersistStorageImpl<COPOSIndividualRecognition>::Load
PUBLIC	?Save@?$IPersistStorageImpl@VCOPOSIndividualRecognition@@@ATL@@UEAAJPEAUIStorage@@H@Z ; ATL::IPersistStorageImpl<COPOSIndividualRecognition>::Save
PUBLIC	?SaveCompleted@?$IPersistStorageImpl@VCOPOSIndividualRecognition@@@ATL@@UEAAJPEAUIStorage@@@Z ; ATL::IPersistStorageImpl<COPOSIndividualRecognition>::SaveCompleted
PUBLIC	?HandsOffStorage@?$IPersistStorageImpl@VCOPOSIndividualRecognition@@@ATL@@UEAAJXZ ; ATL::IPersistStorageImpl<COPOSIndividualRecognition>::HandsOffStorage
PUBLIC	?IPSI_GetIPersistStreamInit@?$IPersistStorageImpl@VCOPOSIndividualRecognition@@@ATL@@AEAAPEAUIPersistStreamInit@@XZ ; ATL::IPersistStorageImpl<COPOSIndividualRecognition>::IPSI_GetIPersistStreamInit
PUBLIC	?GetPages@?$ISpecifyPropertyPagesImpl@VCOPOSIndividualRecognition@@@ATL@@UEAAJPEAUtagCAUUID@@@Z ; ATL::ISpecifyPropertyPagesImpl<COPOSIndividualRecognition>::GetPages
PUBLIC	?GetPagesHelper@?$ISpecifyPropertyPagesImpl@VCOPOSIndividualRecognition@@@ATL@@IEAAJPEAUtagCAUUID@@PEBUATL_PROPMAP_ENTRY@2@@Z ; ATL::ISpecifyPropertyPagesImpl<COPOSIndividualRecognition>::GetPagesHelper
PUBLIC	?QuickActivate@?$IQuickActivateImpl@VCOPOSIndividualRecognition@@@ATL@@UEAAJPEAUtagQACONTAINER@@PEAUtagQACONTROL@@@Z ; ATL::IQuickActivateImpl<COPOSIndividualRecognition>::QuickActivate
PUBLIC	?SetContentExtent@?$IQuickActivateImpl@VCOPOSIndividualRecognition@@@ATL@@UEAAJPEAUtagSIZE@@@Z ; ATL::IQuickActivateImpl<COPOSIndividualRecognition>::SetContentExtent
PUBLIC	?GetContentExtent@?$IQuickActivateImpl@VCOPOSIndividualRecognition@@@ATL@@UEAAJPEAUtagSIZE@@@Z ; ATL::IQuickActivateImpl<COPOSIndividualRecognition>::GetContentExtent
PUBLIC	?GetData@?$IDataObjectImpl@VCOPOSIndividualRecognition@@@ATL@@UEAAJPEAUtagFORMATETC@@PEAUtagSTGMEDIUM@@@Z ; ATL::IDataObjectImpl<COPOSIndividualRecognition>::GetData
PUBLIC	?GetDataHere@?$IDataObjectImpl@VCOPOSIndividualRecognition@@@ATL@@UEAAJPEAUtagFORMATETC@@PEAUtagSTGMEDIUM@@@Z ; ATL::IDataObjectImpl<COPOSIndividualRecognition>::GetDataHere
PUBLIC	?QueryGetData@?$IDataObjectImpl@VCOPOSIndividualRecognition@@@ATL@@UEAAJPEAUtagFORMATETC@@@Z ; ATL::IDataObjectImpl<COPOSIndividualRecognition>::QueryGetData
PUBLIC	?GetCanonicalFormatEtc@?$IDataObjectImpl@VCOPOSIndividualRecognition@@@ATL@@UEAAJPEAUtagFORMATETC@@0@Z ; ATL::IDataObjectImpl<COPOSIndividualRecognition>::GetCanonicalFormatEtc
PUBLIC	?SetData@?$IDataObjectImpl@VCOPOSIndividualRecognition@@@ATL@@UEAAJPEAUtagFORMATETC@@PEAUtagSTGMEDIUM@@H@Z ; ATL::IDataObjectImpl<COPOSIndividualRecognition>::SetData
PUBLIC	?EnumFormatEtc@?$IDataObjectImpl@VCOPOSIndividualRecognition@@@ATL@@UEAAJKPEAPEAUIEnumFORMATETC@@@Z ; ATL::IDataObjectImpl<COPOSIndividualRecognition>::EnumFormatEtc
PUBLIC	?DAdvise@?$IDataObjectImpl@VCOPOSIndividualRecognition@@@ATL@@UEAAJPEAUtagFORMATETC@@KPEAUIAdviseSink@@PEAK@Z ; ATL::IDataObjectImpl<COPOSIndividualRecognition>::DAdvise
PUBLIC	?DUnadvise@?$IDataObjectImpl@VCOPOSIndividualRecognition@@@ATL@@UEAAJK@Z ; ATL::IDataObjectImpl<COPOSIndividualRecognition>::DUnadvise
PUBLIC	?EnumDAdvise@?$IDataObjectImpl@VCOPOSIndividualRecognition@@@ATL@@UEAAJPEAPEAUIEnumSTATDATA@@@Z ; ATL::IDataObjectImpl<COPOSIndividualRecognition>::EnumDAdvise
PUBLIC	?GetClassInfoW@?$IProvideClassInfo2Impl@$1?CLSID_OPOSIndividualRecognition@@3U_GUID@@B$1?DIID__IOPOSIndividualRecognitionEvents@@3U2@B$1?LIBID_OposIndividualRecognition_CCO@@3U2@B$00$0A@VCComTypeInfoHolder@ATL@@@ATL@@UEAAJPEAPEAUITypeInfo@@@Z ; ATL::IProvideClassInfo2Impl<&CLSID_OPOSIndividualRecognition,&DIID__IOPOSIndividualRecognitionEvents,&LIBID_OposIndividualRecognition_CCO,1,0,ATL::CComTypeInfoHolder>::GetClassInfoW
PUBLIC	?GetGUID@?$IProvideClassInfo2Impl@$1?CLSID_OPOSIndividualRecognition@@3U_GUID@@B$1?DIID__IOPOSIndividualRecognitionEvents@@3U2@B$1?LIBID_OposIndividualRecognition_CCO@@3U2@B$00$0A@VCComTypeInfoHolder@ATL@@@ATL@@UEAAJKPEAU_GUID@@@Z ; ATL::IProvideClassInfo2Impl<&CLSID_OPOSIndividualRecognition,&DIID__IOPOSIndividualRecognitionEvents,&LIBID_OposIndividualRecognition_CCO,1,0,ATL::CComTypeInfoHolder>::GetGUID
PUBLIC	?FAccessAllowed@?$IObjectSafetyImpl@VCOPOSIndividualRecognition@@$02@ATL@@MEAAHXZ ; ATL::IObjectSafetyImpl<COPOSIndividualRecognition,3>::FAccessAllowed
PUBLIC	?GetInterfaceSafetyOptions@?$IObjectSafetyImpl@VCOPOSIndividualRecognition@@$02@ATL@@UEAAJAEBU_GUID@@PEAK1@Z ; ATL::IObjectSafetyImpl<COPOSIndividualRecognition,3>::GetInterfaceSafetyOptions
PUBLIC	?SetInterfaceSafetyOptions@?$IObjectSafetyImpl@VCOPOSIndividualRecognition@@$02@ATL@@UEAAJAEBU_GUID@@KK@Z ; ATL::IObjectSafetyImpl<COPOSIndividualRecognition,3>::SetInterfaceSafetyOptions
PUBLIC	?_LocCPQueryInterface@?$IConnectionPointImpl@VCOPOSIndividualRecognition@@$1?IID_IPropertyNotifySink@@3U_GUID@@BVCComDynamicUnkArray@ATL@@@ATL@@UEAAJAEBU_GUID@@PEAPEAX@Z ; ATL::IConnectionPointImpl<COPOSIndividualRecognition,&IID_IPropertyNotifySink,ATL::CComDynamicUnkArray>::_LocCPQueryInterface
PUBLIC	?GetConnectionInterface@?$IConnectionPointImpl@VCOPOSIndividualRecognition@@$1?IID_IPropertyNotifySink@@3U_GUID@@BVCComDynamicUnkArray@ATL@@@ATL@@UEAAJPEAU_GUID@@@Z ; ATL::IConnectionPointImpl<COPOSIndividualRecognition,&IID_IPropertyNotifySink,ATL::CComDynamicUnkArray>::GetConnectionInterface
PUBLIC	?GetConnectionPointContainer@?$IConnectionPointImpl@VCOPOSIndividualRecognition@@$1?IID_IPropertyNotifySink@@3U_GUID@@BVCComDynamicUnkArray@ATL@@@ATL@@UEAAJPEAPEAUIConnectionPointContainer@@@Z ; ATL::IConnectionPointImpl<COPOSIndividualRecognition,&IID_IPropertyNotifySink,ATL::CComDynamicUnkArray>::GetConnectionPointContainer
PUBLIC	?Advise@?$IConnectionPointImpl@VCOPOSIndividualRecognition@@$1?IID_IPropertyNotifySink@@3U_GUID@@BVCComDynamicUnkArray@ATL@@@ATL@@UEAAJPEAUIUnknown@@PEAK@Z ; ATL::IConnectionPointImpl<COPOSIndividualRecognition,&IID_IPropertyNotifySink,ATL::CComDynamicUnkArray>::Advise
PUBLIC	?Unadvise@?$IConnectionPointImpl@VCOPOSIndividualRecognition@@$1?IID_IPropertyNotifySink@@3U_GUID@@BVCComDynamicUnkArray@ATL@@@ATL@@UEAAJK@Z ; ATL::IConnectionPointImpl<COPOSIndividualRecognition,&IID_IPropertyNotifySink,ATL::CComDynamicUnkArray>::Unadvise
PUBLIC	?EnumConnections@?$IConnectionPointImpl@VCOPOSIndividualRecognition@@$1?IID_IPropertyNotifySink@@3U_GUID@@BVCComDynamicUnkArray@ATL@@@ATL@@UEAAJPEAPEAUIEnumConnections@@@Z ; ATL::IConnectionPointImpl<COPOSIndividualRecognition,&IID_IPropertyNotifySink,ATL::CComDynamicUnkArray>::EnumConnections
PUBLIC	?GetObjectCLSID@?$CComCoClass@VCOPOSIndividualRecognition@@$1?CLSID_OPOSIndividualRecognition@@3U_GUID@@B@ATL@@SAAEBU_GUID@@XZ ; ATL::CComCoClass<COPOSIndividualRecognition,&CLSID_OPOSIndividualRecognition>::GetObjectCLSID
PUBLIC	?_LocCPQueryInterface@?$IConnectionPointImpl@VCOPOSIndividualRecognition@@$1?DIID__IOPOSIndividualRecognitionEvents@@3U_GUID@@BVCComDynamicUnkArray@ATL@@@ATL@@UEAAJAEBU_GUID@@PEAPEAX@Z ; ATL::IConnectionPointImpl<COPOSIndividualRecognition,&DIID__IOPOSIndividualRecognitionEvents,ATL::CComDynamicUnkArray>::_LocCPQueryInterface
PUBLIC	?GetConnectionInterface@?$IConnectionPointImpl@VCOPOSIndividualRecognition@@$1?DIID__IOPOSIndividualRecognitionEvents@@3U_GUID@@BVCComDynamicUnkArray@ATL@@@ATL@@UEAAJPEAU_GUID@@@Z ; ATL::IConnectionPointImpl<COPOSIndividualRecognition,&DIID__IOPOSIndividualRecognitionEvents,ATL::CComDynamicUnkArray>::GetConnectionInterface
PUBLIC	?GetConnectionPointContainer@?$IConnectionPointImpl@VCOPOSIndividualRecognition@@$1?DIID__IOPOSIndividualRecognitionEvents@@3U_GUID@@BVCComDynamicUnkArray@ATL@@@ATL@@UEAAJPEAPEAUIConnectionPointContainer@@@Z ; ATL::IConnectionPointImpl<COPOSIndividualRecognition,&DIID__IOPOSIndividualRecognitionEvents,ATL::CComDynamicUnkArray>::GetConnectionPointContainer
PUBLIC	?Advise@?$IConnectionPointImpl@VCOPOSIndividualRecognition@@$1?DIID__IOPOSIndividualRecognitionEvents@@3U_GUID@@BVCComDynamicUnkArray@ATL@@@ATL@@UEAAJPEAUIUnknown@@PEAK@Z ; ATL::IConnectionPointImpl<COPOSIndividualRecognition,&DIID__IOPOSIndividualRecognitionEvents,ATL::CComDynamicUnkArray>::Advise
PUBLIC	?Unadvise@?$IConnectionPointImpl@VCOPOSIndividualRecognition@@$1?DIID__IOPOSIndividualRecognitionEvents@@3U_GUID@@BVCComDynamicUnkArray@ATL@@@ATL@@UEAAJK@Z ; ATL::IConnectionPointImpl<COPOSIndividualRecognition,&DIID__IOPOSIndividualRecognitionEvents,ATL::CComDynamicUnkArray>::Unadvise
PUBLIC	?EnumConnections@?$IConnectionPointImpl@VCOPOSIndividualRecognition@@$1?DIID__IOPOSIndividualRecognitionEvents@@3U_GUID@@BVCComDynamicUnkArray@ATL@@@ATL@@UEAAJPEAPEAUIEnumConnections@@@Z ; ATL::IConnectionPointImpl<COPOSIndividualRecognition,&DIID__IOPOSIndividualRecognitionEvents,ATL::CComDynamicUnkArray>::EnumConnections
PUBLIC	?Fire_DataEvent@?$CProxy_IOPOSEvents@VCOPOSIndividualRecognition@@@@QEAAXJ@Z ; CProxy_IOPOSEvents<COPOSIndividualRecognition>::Fire_DataEvent
PUBLIC	?Fire_DirectIOEvent@?$CProxy_IOPOSEvents@VCOPOSIndividualRecognition@@@@QEAAXJPEAJPEAPEA_W@Z ; CProxy_IOPOSEvents<COPOSIndividualRecognition>::Fire_DirectIOEvent
PUBLIC	?Fire_ErrorEvent@?$CProxy_IOPOSEvents@VCOPOSIndividualRecognition@@@@QEAAXJJJPEAJ@Z ; CProxy_IOPOSEvents<COPOSIndividualRecognition>::Fire_ErrorEvent
PUBLIC	?Fire_StatusUpdateEvent@?$CProxy_IOPOSEvents@VCOPOSIndividualRecognition@@@@QEAAXJ@Z ; CProxy_IOPOSEvents<COPOSIndividualRecognition>::Fire_StatusUpdateEvent
PUBLIC	?Advise@?$CProxy_IOPOSEvents@VCOPOSIndividualRecognition@@@@UEAAJPEAUIUnknown@@PEAK@Z ; CProxy_IOPOSEvents<COPOSIndividualRecognition>::Advise
PUBLIC	?Unadvise@?$CProxy_IOPOSEvents@VCOPOSIndividualRecognition@@@@UEAAJK@Z ; CProxy_IOPOSEvents<COPOSIndividualRecognition>::Unadvise
PUBLIC	?FireTheEvent@?$CProxy_IOPOSEvents@VCOPOSIndividualRecognition@@@@IEAAXPEAUIUnknown@@PEAVOposVariant@@IAEAJPEB_WJ@Z ; CProxy_IOPOSEvents<COPOSIndividualRecognition>::FireTheEvent
PUBLIC	?InternalFinalConstructAddRef@COPOSIndividualRecognition@@QEAAXXZ ; COPOSIndividualRecognition::InternalFinalConstructAddRef
PUBLIC	?InternalFinalConstructRelease@COPOSIndividualRecognition@@QEAAXXZ ; COPOSIndividualRecognition::InternalFinalConstructRelease
PUBLIC	?_GetRawUnknown@COPOSIndividualRecognition@@QEAAPEAUIUnknown@@XZ ; COPOSIndividualRecognition::_GetRawUnknown
PUBLIC	?GetUnknown@COPOSIndividualRecognition@@QEAAPEAUIUnknown@@XZ ; COPOSIndividualRecognition::GetUnknown
PUBLIC	?_InternalQueryInterface@COPOSIndividualRecognition@@QEAAJAEBU_GUID@@PEAPEAX@Z ; COPOSIndividualRecognition::_InternalQueryInterface
PUBLIC	?_GetEntries@COPOSIndividualRecognition@@SAPEBU_ATL_INTMAP_ENTRY@ATL@@XZ ; COPOSIndividualRecognition::_GetEntries
PUBLIC	?GetPropertyMap@COPOSIndividualRecognition@@SAPEBUATL_PROPMAP_ENTRY@ATL@@XZ ; COPOSIndividualRecognition::GetPropertyMap
PUBLIC	?GetConnMap@COPOSIndividualRecognition@@SAPEBU_ATL_CONNMAP_ENTRY@ATL@@PEAH@Z ; COPOSIndividualRecognition::GetConnMap
PUBLIC	?ProcessWindowMessage@COPOSIndividualRecognition@@UEAAHPEAUHWND__@@I_K_JAEA_JK@Z ; COPOSIndividualRecognition::ProcessWindowMessage
PUBLIC	?_GetViewStatus@COPOSIndividualRecognition@@QEAAKXZ ; COPOSIndividualRecognition::_GetViewStatus
PUBLIC	?SOData@COPOSIndividualRecognition@@MEAAJJ@Z	; COPOSIndividualRecognition::SOData
PUBLIC	?SODirectIO@COPOSIndividualRecognition@@MEAAJJPEAJPEAPEA_W@Z ; COPOSIndividualRecognition::SODirectIO
PUBLIC	?SOError@COPOSIndividualRecognition@@MEAAJJJJPEAJ@Z ; COPOSIndividualRecognition::SOError
PUBLIC	?SOOutputCompleteDummy@COPOSIndividualRecognition@@MEAAJJ@Z ; COPOSIndividualRecognition::SOOutputCompleteDummy
PUBLIC	?SOStatusUpdate@COPOSIndividualRecognition@@MEAAJJ@Z ; COPOSIndividualRecognition::SOStatusUpdate
PUBLIC	?DoEvent@COPOSIndividualRecognition@@IEAAXI_K_J@Z ; COPOSIndividualRecognition::DoEvent
PUBLIC	DllMain
PUBLIC	?CreateInstance@?$CComCreator@V?$CComObject@VCOPOSIndividualRecognition@@@ATL@@@ATL@@SAJPEAXAEBU_GUID@@PEAPEAX@Z ; ATL::CComCreator<ATL::CComObject<COPOSIndividualRecognition> >::CreateInstance
PUBLIC	?CreateInstance@?$CComCreator@V?$CComAggObject@VCOPOSIndividualRecognition@@@ATL@@@ATL@@SAJPEAXAEBU_GUID@@PEAPEAX@Z ; ATL::CComCreator<ATL::CComAggObject<COPOSIndividualRecognition> >::CreateInstance
PUBLIC	??0?$CComObjectCached@VCComClassFactory@ATL@@@ATL@@QEAA@PEAX@Z ; ATL::CComObjectCached<ATL::CComClassFactory>::CComObjectCached<ATL::CComClassFactory>
PUBLIC	??1?$CComObjectCached@VCComClassFactory@ATL@@@ATL@@UEAA@XZ ; ATL::CComObjectCached<ATL::CComClassFactory>::~CComObjectCached<ATL::CComClassFactory>
PUBLIC	?AddRef@?$CComObjectCached@VCComClassFactory@ATL@@@ATL@@UEAAKXZ ; ATL::CComObjectCached<ATL::CComClassFactory>::AddRef
PUBLIC	?Release@?$CComObjectCached@VCComClassFactory@ATL@@@ATL@@UEAAKXZ ; ATL::CComObjectCached<ATL::CComClassFactory>::Release
PUBLIC	?QueryInterface@?$CComObjectCached@VCComClassFactory@ATL@@@ATL@@UEAAJAEBU_GUID@@PEAPEAX@Z ; ATL::CComObjectCached<ATL::CComClassFactory>::QueryInterface
PUBLIC	??_G?$CComObjectCached@VCComClassFactory@ATL@@@ATL@@UEAAPEAXI@Z ; ATL::CComObjectCached<ATL::CComClassFactory>::`scalar deleting destructor'
PUBLIC	??0?$CComEnumImpl@UIEnumConnectionPoints@@$1?_GUID_b196b285_bab4_101a_b69c_00aa00341d07@@3U__s_GUID@@BPEAUIConnectionPoint@@V?$_CopyInterface@UIConnectionPoint@@@ATL@@@ATL@@QEAA@XZ ; ATL::CComEnumImpl<IEnumConnectionPoints,&_GUID_b196b285_bab4_101a_b69c_00aa00341d07,IConnectionPoint *,ATL::_CopyInterface<IConnectionPoint> >::CComEnumImpl<IEnumConnectionPoints,&_GUID_b196b285_bab4_101a_b69c_00aa00341d07,IConnectionPoint *,ATL::_CopyInterface<IConnectionPoint> >
PUBLIC	??1?$CComEnumImpl@UIEnumConnectionPoints@@$1?_GUID_b196b285_bab4_101a_b69c_00aa00341d07@@3U__s_GUID@@BPEAUIConnectionPoint@@V?$_CopyInterface@UIConnectionPoint@@@ATL@@@ATL@@UEAA@XZ ; ATL::CComEnumImpl<IEnumConnectionPoints,&_GUID_b196b285_bab4_101a_b69c_00aa00341d07,IConnectionPoint *,ATL::_CopyInterface<IConnectionPoint> >::~CComEnumImpl<IEnumConnectionPoints,&_GUID_b196b285_bab4_101a_b69c_00aa00341d07,IConnectionPoint *,ATL::_CopyInterface<IConnectionPoint> >
PUBLIC	?Next@?$CComEnumImpl@UIEnumConnectionPoints@@$1?_GUID_b196b285_bab4_101a_b69c_00aa00341d07@@3U__s_GUID@@BPEAUIConnectionPoint@@V?$_CopyInterface@UIConnectionPoint@@@ATL@@@ATL@@UEAAJKPEAPEAUIConnectionPoint@@PEAK@Z ; ATL::CComEnumImpl<IEnumConnectionPoints,&_GUID_b196b285_bab4_101a_b69c_00aa00341d07,IConnectionPoint *,ATL::_CopyInterface<IConnectionPoint> >::Next
PUBLIC	?Skip@?$CComEnumImpl@UIEnumConnectionPoints@@$1?_GUID_b196b285_bab4_101a_b69c_00aa00341d07@@3U__s_GUID@@BPEAUIConnectionPoint@@V?$_CopyInterface@UIConnectionPoint@@@ATL@@@ATL@@UEAAJK@Z ; ATL::CComEnumImpl<IEnumConnectionPoints,&_GUID_b196b285_bab4_101a_b69c_00aa00341d07,IConnectionPoint *,ATL::_CopyInterface<IConnectionPoint> >::Skip
PUBLIC	?Reset@?$CComEnumImpl@UIEnumConnectionPoints@@$1?_GUID_b196b285_bab4_101a_b69c_00aa00341d07@@3U__s_GUID@@BPEAUIConnectionPoint@@V?$_CopyInterface@UIConnectionPoint@@@ATL@@@ATL@@UEAAJXZ ; ATL::CComEnumImpl<IEnumConnectionPoints,&_GUID_b196b285_bab4_101a_b69c_00aa00341d07,IConnectionPoint *,ATL::_CopyInterface<IConnectionPoint> >::Reset
PUBLIC	?Clone@?$CComEnumImpl@UIEnumConnectionPoints@@$1?_GUID_b196b285_bab4_101a_b69c_00aa00341d07@@3U__s_GUID@@BPEAUIConnectionPoint@@V?$_CopyInterface@UIConnectionPoint@@@ATL@@@ATL@@UEAAJPEAPEAUIEnumConnectionPoints@@@Z ; ATL::CComEnumImpl<IEnumConnectionPoints,&_GUID_b196b285_bab4_101a_b69c_00aa00341d07,IConnectionPoint *,ATL::_CopyInterface<IConnectionPoint> >::Clone
PUBLIC	?Init@?$CComEnumImpl@UIEnumConnectionPoints@@$1?_GUID_b196b285_bab4_101a_b69c_00aa00341d07@@3U__s_GUID@@BPEAUIConnectionPoint@@V?$_CopyInterface@UIConnectionPoint@@@ATL@@@ATL@@QEAAJPEAPEAUIConnectionPoint@@0PEAUIUnknown@@W4CComEnumFlags@2@@Z ; ATL::CComEnumImpl<IEnumConnectionPoints,&_GUID_b196b285_bab4_101a_b69c_00aa00341d07,IConnectionPoint *,ATL::_CopyInterface<IConnectionPoint> >::Init
PUBLIC	?_InternalQueryInterface@?$CComEnum@UIEnumConnectionPoints@@$1?_GUID_b196b285_bab4_101a_b69c_00aa00341d07@@3U__s_GUID@@BPEAUIConnectionPoint@@V?$_CopyInterface@UIConnectionPoint@@@ATL@@VCComSingleThreadModel@6@@ATL@@QEAAJAEBU_GUID@@PEAPEAX@Z ; ATL::CComEnum<IEnumConnectionPoints,&_GUID_b196b285_bab4_101a_b69c_00aa00341d07,IConnectionPoint *,ATL::_CopyInterface<IConnectionPoint>,ATL::CComSingleThreadModel>::_InternalQueryInterface
PUBLIC	?_GetEntries@?$CComEnum@UIEnumConnectionPoints@@$1?_GUID_b196b285_bab4_101a_b69c_00aa00341d07@@3U__s_GUID@@BPEAUIConnectionPoint@@V?$_CopyInterface@UIConnectionPoint@@@ATL@@VCComSingleThreadModel@6@@ATL@@SAPEBU_ATL_INTMAP_ENTRY@2@XZ ; ATL::CComEnum<IEnumConnectionPoints,&_GUID_b196b285_bab4_101a_b69c_00aa00341d07,IConnectionPoint *,ATL::_CopyInterface<IConnectionPoint>,ATL::CComSingleThreadModel>::_GetEntries
PUBLIC	??0?$CComEnum@UIEnumConnectionPoints@@$1?_GUID_b196b285_bab4_101a_b69c_00aa00341d07@@3U__s_GUID@@BPEAUIConnectionPoint@@V?$_CopyInterface@UIConnectionPoint@@@ATL@@VCComSingleThreadModel@6@@ATL@@QEAA@XZ ; ATL::CComEnum<IEnumConnectionPoints,&_GUID_b196b285_bab4_101a_b69c_00aa00341d07,IConnectionPoint *,ATL::_CopyInterface<IConnectionPoint>,ATL::CComSingleThreadModel>::CComEnum<IEnumConnectionPoints,&_GUID_b196b285_bab4_101a_b69c_00aa00341d07,IConnectionPoint *,ATL::_CopyInterface<IConnectionPoint>,ATL::CComSingleThreadModel>
PUBLIC	??1?$CComEnum@UIEnumConnectionPoints@@$1?_GUID_b196b285_bab4_101a_b69c_00aa00341d07@@3U__s_GUID@@BPEAUIConnectionPoint@@V?$_CopyInterface@UIConnectionPoint@@@ATL@@VCComSingleThreadModel@6@@ATL@@UEAA@XZ ; ATL::CComEnum<IEnumConnectionPoints,&_GUID_b196b285_bab4_101a_b69c_00aa00341d07,IConnectionPoint *,ATL::_CopyInterface<IConnectionPoint>,ATL::CComSingleThreadModel>::~CComEnum<IEnumConnectionPoints,&_GUID_b196b285_bab4_101a_b69c_00aa00341d07,IConnectionPoint *,ATL::_CopyInterface<IConnectionPoint>,ATL::CComSingleThreadModel>
PUBLIC	??0?$CComObject@V?$CComEnum@UIEnumConnectionPoints@@$1?_GUID_b196b285_bab4_101a_b69c_00aa00341d07@@3U__s_GUID@@BPEAUIConnectionPoint@@V?$_CopyInterface@UIConnectionPoint@@@ATL@@VCComSingleThreadModel@6@@ATL@@@ATL@@QEAA@PEAX@Z ; ATL::CComObject<ATL::CComEnum<IEnumConnectionPoints,&_GUID_b196b285_bab4_101a_b69c_00aa00341d07,IConnectionPoint *,ATL::_CopyInterface<IConnectionPoint>,ATL::CComSingleThreadModel> >::CComObject<ATL::CComEnum<IEnumConnectionPoints,&_GUID_b196b285_bab4_101a_b69c_00aa00341d07,IConnectionPoint *,ATL::_CopyInterface<IConnectionPoint>,ATL::CComSingleThreadModel> >
PUBLIC	??1?$CComObject@V?$CComEnum@UIEnumConnectionPoints@@$1?_GUID_b196b285_bab4_101a_b69c_00aa00341d07@@3U__s_GUID@@BPEAUIConnectionPoint@@V?$_CopyInterface@UIConnectionPoint@@@ATL@@VCComSingleThreadModel@6@@ATL@@@ATL@@UEAA@XZ ; ATL::CComObject<ATL::CComEnum<IEnumConnectionPoints,&_GUID_b196b285_bab4_101a_b69c_00aa00341d07,IConnectionPoint *,ATL::_CopyInterface<IConnectionPoint>,ATL::CComSingleThreadModel> >::~CComObject<ATL::CComEnum<IEnumConnectionPoints,&_GUID_b196b285_bab4_101a_b69c_00aa00341d07,IConnectionPoint *,ATL::_CopyInterface<IConnectionPoint>,ATL::CComSingleThreadModel> >
PUBLIC	?AddRef@?$CComObject@V?$CComEnum@UIEnumConnectionPoints@@$1?_GUID_b196b285_bab4_101a_b69c_00aa00341d07@@3U__s_GUID@@BPEAUIConnectionPoint@@V?$_CopyInterface@UIConnectionPoint@@@ATL@@VCComSingleThreadModel@6@@ATL@@@ATL@@UEAAKXZ ; ATL::CComObject<ATL::CComEnum<IEnumConnectionPoints,&_GUID_b196b285_bab4_101a_b69c_00aa00341d07,IConnectionPoint *,ATL::_CopyInterface<IConnectionPoint>,ATL::CComSingleThreadModel> >::AddRef
PUBLIC	?Release@?$CComObject@V?$CComEnum@UIEnumConnectionPoints@@$1?_GUID_b196b285_bab4_101a_b69c_00aa00341d07@@3U__s_GUID@@BPEAUIConnectionPoint@@V?$_CopyInterface@UIConnectionPoint@@@ATL@@VCComSingleThreadModel@6@@ATL@@@ATL@@UEAAKXZ ; ATL::CComObject<ATL::CComEnum<IEnumConnectionPoints,&_GUID_b196b285_bab4_101a_b69c_00aa00341d07,IConnectionPoint *,ATL::_CopyInterface<IConnectionPoint>,ATL::CComSingleThreadModel> >::Release
PUBLIC	?QueryInterface@?$CComObject@V?$CComEnum@UIEnumConnectionPoints@@$1?_GUID_b196b285_bab4_101a_b69c_00aa00341d07@@3U__s_GUID@@BPEAUIConnectionPoint@@V?$_CopyInterface@UIConnectionPoint@@@ATL@@VCComSingleThreadModel@6@@ATL@@@ATL@@UEAAJAEBU_GUID@@PEAPEAX@Z ; ATL::CComObject<ATL::CComEnum<IEnumConnectionPoints,&_GUID_b196b285_bab4_101a_b69c_00aa00341d07,IConnectionPoint *,ATL::_CopyInterface<IConnectionPoint>,ATL::CComSingleThreadModel> >::QueryInterface
PUBLIC	?CreateInstance@?$CComObject@V?$CComEnum@UIEnumConnectionPoints@@$1?_GUID_b196b285_bab4_101a_b69c_00aa00341d07@@3U__s_GUID@@BPEAUIConnectionPoint@@V?$_CopyInterface@UIConnectionPoint@@@ATL@@VCComSingleThreadModel@6@@ATL@@@ATL@@SAJPEAPEAV12@@Z ; ATL::CComObject<ATL::CComEnum<IEnumConnectionPoints,&_GUID_b196b285_bab4_101a_b69c_00aa00341d07,IConnectionPoint *,ATL::_CopyInterface<IConnectionPoint>,ATL::CComSingleThreadModel> >::CreateInstance
PUBLIC	??_G?$CComObject@V?$CComEnum@UIEnumConnectionPoints@@$1?_GUID_b196b285_bab4_101a_b69c_00aa00341d07@@3U__s_GUID@@BPEAUIConnectionPoint@@V?$_CopyInterface@UIConnectionPoint@@@ATL@@VCComSingleThreadModel@6@@ATL@@@ATL@@UEAAPEAXI@Z ; ATL::CComObject<ATL::CComEnum<IEnumConnectionPoints,&_GUID_b196b285_bab4_101a_b69c_00aa00341d07,IConnectionPoint *,ATL::_CopyInterface<IConnectionPoint>,ATL::CComSingleThreadModel> >::`scalar deleting destructor'
PUBLIC	??$AtlMultiplyThrow@_K@ATL@@YA_K_K0@Z		; ATL::AtlMultiplyThrow<unsigned __int64>
PUBLIC	?GetData@CAtlSafeAllocBufferNode@?$CAtlSafeAllocBufferManager@VCCRTAllocator@ATL@@@_ATL_SAFE_ALLOCA_IMPL@ATL@@QEAAPEAXXZ ; ATL::_ATL_SAFE_ALLOCA_IMPL::CAtlSafeAllocBufferManager<ATL::CCRTAllocator>::CAtlSafeAllocBufferNode::GetData
PUBLIC	??$AtlAddThrow@_K@ATL@@YA_K_K0@Z		; ATL::AtlAddThrow<unsigned __int64>
PUBLIC	??0?$CComAggObject@VCOPOSIndividualRecognition@@@ATL@@QEAA@PEAX@Z ; ATL::CComAggObject<COPOSIndividualRecognition>::CComAggObject<COPOSIndividualRecognition>
PUBLIC	?_AtlInitialConstruct@?$CComAggObject@VCOPOSIndividualRecognition@@@ATL@@QEAAJXZ ; ATL::CComAggObject<COPOSIndividualRecognition>::_AtlInitialConstruct
PUBLIC	?FinalConstruct@?$CComAggObject@VCOPOSIndividualRecognition@@@ATL@@QEAAJXZ ; ATL::CComAggObject<COPOSIndividualRecognition>::FinalConstruct
PUBLIC	?FinalRelease@?$CComAggObject@VCOPOSIndividualRecognition@@@ATL@@QEAAXXZ ; ATL::CComAggObject<COPOSIndividualRecognition>::FinalRelease
PUBLIC	??1?$CComAggObject@VCOPOSIndividualRecognition@@@ATL@@UEAA@XZ ; ATL::CComAggObject<COPOSIndividualRecognition>::~CComAggObject<COPOSIndividualRecognition>
PUBLIC	?AddRef@?$CComAggObject@VCOPOSIndividualRecognition@@@ATL@@UEAAKXZ ; ATL::CComAggObject<COPOSIndividualRecognition>::AddRef
PUBLIC	?Release@?$CComAggObject@VCOPOSIndividualRecognition@@@ATL@@UEAAKXZ ; ATL::CComAggObject<COPOSIndividualRecognition>::Release
PUBLIC	?QueryInterface@?$CComAggObject@VCOPOSIndividualRecognition@@@ATL@@UEAAJAEBU_GUID@@PEAPEAX@Z ; ATL::CComAggObject<COPOSIndividualRecognition>::QueryInterface
PUBLIC	??0?$CComContainedObject@VCOPOSIndividualRecognition@@@ATL@@QEAA@PEAX@Z ; ATL::CComContainedObject<COPOSIndividualRecognition>::CComContainedObject<COPOSIndividualRecognition>
PUBLIC	?AddRef@?$CComContainedObject@VCOPOSIndividualRecognition@@@ATL@@UEAAKXZ ; ATL::CComContainedObject<COPOSIndividualRecognition>::AddRef
PUBLIC	?Release@?$CComContainedObject@VCOPOSIndividualRecognition@@@ATL@@UEAAKXZ ; ATL::CComContainedObject<COPOSIndividualRecognition>::Release
PUBLIC	?QueryInterface@?$CComContainedObject@VCOPOSIndividualRecognition@@@ATL@@UEAAJAEBU_GUID@@PEAPEAX@Z ; ATL::CComContainedObject<COPOSIndividualRecognition>::QueryInterface
PUBLIC	??1?$CComContainedObject@VCOPOSIndividualRecognition@@@ATL@@UEAA@XZ ; ATL::CComContainedObject<COPOSIndividualRecognition>::~CComContainedObject<COPOSIndividualRecognition>
PUBLIC	??_G?$CComContainedObject@VCOPOSIndividualRecognition@@@ATL@@UEAAPEAXI@Z ; ATL::CComContainedObject<COPOSIndividualRecognition>::`scalar deleting destructor'
PUBLIC	??_G?$CComAggObject@VCOPOSIndividualRecognition@@@ATL@@UEAAPEAXI@Z ; ATL::CComAggObject<COPOSIndividualRecognition>::`scalar deleting destructor'
PUBLIC	??0?$CComObject@VCOPOSIndividualRecognition@@@ATL@@QEAA@PEAX@Z ; ATL::CComObject<COPOSIndividualRecognition>::CComObject<COPOSIndividualRecognition>
PUBLIC	??1?$CComObject@VCOPOSIndividualRecognition@@@ATL@@UEAA@XZ ; ATL::CComObject<COPOSIndividualRecognition>::~CComObject<COPOSIndividualRecognition>
PUBLIC	?AddRef@?$CComObject@VCOPOSIndividualRecognition@@@ATL@@UEAAKXZ ; ATL::CComObject<COPOSIndividualRecognition>::AddRef
PUBLIC	?Release@?$CComObject@VCOPOSIndividualRecognition@@@ATL@@UEAAKXZ ; ATL::CComObject<COPOSIndividualRecognition>::Release
PUBLIC	?QueryInterface@?$CComObject@VCOPOSIndividualRecognition@@@ATL@@UEAAJAEBU_GUID@@PEAPEAX@Z ; ATL::CComObject<COPOSIndividualRecognition>::QueryInterface
PUBLIC	??_G?$CComObject@VCOPOSIndividualRecognition@@@ATL@@UEAAPEAXI@Z ; ATL::CComObject<COPOSIndividualRecognition>::`scalar deleting destructor'
PUBLIC	?GetWndStyle@?$CWinTraits@$0FGAAAAAA@$0A@@ATL@@SAKK@Z ; ATL::CWinTraits<1442840576,0>::GetWndStyle
PUBLIC	?GetWndExStyle@?$CWinTraits@$0FGAAAAAA@$0A@@ATL@@SAKK@Z ; ATL::CWinTraits<1442840576,0>::GetWndExStyle
PUBLIC	??0?$Wrapper@PEA_W@?$CSimpleMap@PEA_WPEA_WVCExpansionVectorEqualHelper@ATL@@@ATL@@QEAA@AEBQEA_W@Z ; ATL::CSimpleMap<wchar_t *,wchar_t *,ATL::CExpansionVectorEqualHelper>::Wrapper<wchar_t *>::Wrapper<wchar_t *>
PUBLIC	??$?2PEA_W@?$Wrapper@PEA_W@?$CSimpleMap@PEA_WPEA_WVCExpansionVectorEqualHelper@ATL@@@ATL@@SAPEAX_KPEAPEA_W@Z ; ATL::CSimpleMap<wchar_t *,wchar_t *,ATL::CExpansionVectorEqualHelper>::Wrapper<wchar_t *>::operator new<wchar_t *>
PUBLIC	??0Wrapper@?$CSimpleArray@GV?$CSimpleArrayEqualHelper@G@ATL@@@ATL@@QEAA@AEBG@Z ; ATL::CSimpleArray<unsigned short,ATL::CSimpleArrayEqualHelper<unsigned short> >::Wrapper::Wrapper
PUBLIC	??$?2G@Wrapper@?$CSimpleArray@GV?$CSimpleArrayEqualHelper@G@ATL@@@ATL@@SAPEAX_KPEAG@Z ; ATL::CSimpleArray<unsigned short,ATL::CSimpleArrayEqualHelper<unsigned short> >::Wrapper::operator new<unsigned short>
PUBLIC	??0?$CComEnumImpl@UIEnumConnections@@$1?_GUID_b196b287_bab4_101a_b69c_00aa00341d07@@3U__s_GUID@@BUtagCONNECTDATA@@V?$_Copy@UtagCONNECTDATA@@@ATL@@@ATL@@QEAA@XZ ; ATL::CComEnumImpl<IEnumConnections,&_GUID_b196b287_bab4_101a_b69c_00aa00341d07,tagCONNECTDATA,ATL::_Copy<tagCONNECTDATA> >::CComEnumImpl<IEnumConnections,&_GUID_b196b287_bab4_101a_b69c_00aa00341d07,tagCONNECTDATA,ATL::_Copy<tagCONNECTDATA> >
PUBLIC	??1?$CComEnumImpl@UIEnumConnections@@$1?_GUID_b196b287_bab4_101a_b69c_00aa00341d07@@3U__s_GUID@@BUtagCONNECTDATA@@V?$_Copy@UtagCONNECTDATA@@@ATL@@@ATL@@UEAA@XZ ; ATL::CComEnumImpl<IEnumConnections,&_GUID_b196b287_bab4_101a_b69c_00aa00341d07,tagCONNECTDATA,ATL::_Copy<tagCONNECTDATA> >::~CComEnumImpl<IEnumConnections,&_GUID_b196b287_bab4_101a_b69c_00aa00341d07,tagCONNECTDATA,ATL::_Copy<tagCONNECTDATA> >
PUBLIC	?Next@?$CComEnumImpl@UIEnumConnections@@$1?_GUID_b196b287_bab4_101a_b69c_00aa00341d07@@3U__s_GUID@@BUtagCONNECTDATA@@V?$_Copy@UtagCONNECTDATA@@@ATL@@@ATL@@UEAAJKPEAUtagCONNECTDATA@@PEAK@Z ; ATL::CComEnumImpl<IEnumConnections,&_GUID_b196b287_bab4_101a_b69c_00aa00341d07,tagCONNECTDATA,ATL::_Copy<tagCONNECTDATA> >::Next
PUBLIC	?Skip@?$CComEnumImpl@UIEnumConnections@@$1?_GUID_b196b287_bab4_101a_b69c_00aa00341d07@@3U__s_GUID@@BUtagCONNECTDATA@@V?$_Copy@UtagCONNECTDATA@@@ATL@@@ATL@@UEAAJK@Z ; ATL::CComEnumImpl<IEnumConnections,&_GUID_b196b287_bab4_101a_b69c_00aa00341d07,tagCONNECTDATA,ATL::_Copy<tagCONNECTDATA> >::Skip
PUBLIC	?Reset@?$CComEnumImpl@UIEnumConnections@@$1?_GUID_b196b287_bab4_101a_b69c_00aa00341d07@@3U__s_GUID@@BUtagCONNECTDATA@@V?$_Copy@UtagCONNECTDATA@@@ATL@@@ATL@@UEAAJXZ ; ATL::CComEnumImpl<IEnumConnections,&_GUID_b196b287_bab4_101a_b69c_00aa00341d07,tagCONNECTDATA,ATL::_Copy<tagCONNECTDATA> >::Reset
PUBLIC	?Clone@?$CComEnumImpl@UIEnumConnections@@$1?_GUID_b196b287_bab4_101a_b69c_00aa00341d07@@3U__s_GUID@@BUtagCONNECTDATA@@V?$_Copy@UtagCONNECTDATA@@@ATL@@@ATL@@UEAAJPEAPEAUIEnumConnections@@@Z ; ATL::CComEnumImpl<IEnumConnections,&_GUID_b196b287_bab4_101a_b69c_00aa00341d07,tagCONNECTDATA,ATL::_Copy<tagCONNECTDATA> >::Clone
PUBLIC	?Init@?$CComEnumImpl@UIEnumConnections@@$1?_GUID_b196b287_bab4_101a_b69c_00aa00341d07@@3U__s_GUID@@BUtagCONNECTDATA@@V?$_Copy@UtagCONNECTDATA@@@ATL@@@ATL@@QEAAJPEAUtagCONNECTDATA@@0PEAUIUnknown@@W4CComEnumFlags@2@@Z ; ATL::CComEnumImpl<IEnumConnections,&_GUID_b196b287_bab4_101a_b69c_00aa00341d07,tagCONNECTDATA,ATL::_Copy<tagCONNECTDATA> >::Init
PUBLIC	?_InternalQueryInterface@?$CComEnum@UIEnumConnections@@$1?_GUID_b196b287_bab4_101a_b69c_00aa00341d07@@3U__s_GUID@@BUtagCONNECTDATA@@V?$_Copy@UtagCONNECTDATA@@@ATL@@VCComSingleThreadModel@6@@ATL@@QEAAJAEBU_GUID@@PEAPEAX@Z ; ATL::CComEnum<IEnumConnections,&_GUID_b196b287_bab4_101a_b69c_00aa00341d07,tagCONNECTDATA,ATL::_Copy<tagCONNECTDATA>,ATL::CComSingleThreadModel>::_InternalQueryInterface
PUBLIC	?_GetEntries@?$CComEnum@UIEnumConnections@@$1?_GUID_b196b287_bab4_101a_b69c_00aa00341d07@@3U__s_GUID@@BUtagCONNECTDATA@@V?$_Copy@UtagCONNECTDATA@@@ATL@@VCComSingleThreadModel@6@@ATL@@SAPEBU_ATL_INTMAP_ENTRY@2@XZ ; ATL::CComEnum<IEnumConnections,&_GUID_b196b287_bab4_101a_b69c_00aa00341d07,tagCONNECTDATA,ATL::_Copy<tagCONNECTDATA>,ATL::CComSingleThreadModel>::_GetEntries
PUBLIC	??0?$CComEnum@UIEnumConnections@@$1?_GUID_b196b287_bab4_101a_b69c_00aa00341d07@@3U__s_GUID@@BUtagCONNECTDATA@@V?$_Copy@UtagCONNECTDATA@@@ATL@@VCComSingleThreadModel@6@@ATL@@QEAA@XZ ; ATL::CComEnum<IEnumConnections,&_GUID_b196b287_bab4_101a_b69c_00aa00341d07,tagCONNECTDATA,ATL::_Copy<tagCONNECTDATA>,ATL::CComSingleThreadModel>::CComEnum<IEnumConnections,&_GUID_b196b287_bab4_101a_b69c_00aa00341d07,tagCONNECTDATA,ATL::_Copy<tagCONNECTDATA>,ATL::CComSingleThreadModel>
PUBLIC	??1?$CComEnum@UIEnumConnections@@$1?_GUID_b196b287_bab4_101a_b69c_00aa00341d07@@3U__s_GUID@@BUtagCONNECTDATA@@V?$_Copy@UtagCONNECTDATA@@@ATL@@VCComSingleThreadModel@6@@ATL@@UEAA@XZ ; ATL::CComEnum<IEnumConnections,&_GUID_b196b287_bab4_101a_b69c_00aa00341d07,tagCONNECTDATA,ATL::_Copy<tagCONNECTDATA>,ATL::CComSingleThreadModel>::~CComEnum<IEnumConnections,&_GUID_b196b287_bab4_101a_b69c_00aa00341d07,tagCONNECTDATA,ATL::_Copy<tagCONNECTDATA>,ATL::CComSingleThreadModel>
PUBLIC	??0?$CComObject@V?$CComEnum@UIEnumConnections@@$1?_GUID_b196b287_bab4_101a_b69c_00aa00341d07@@3U__s_GUID@@BUtagCONNECTDATA@@V?$_Copy@UtagCONNECTDATA@@@ATL@@VCComSingleThreadModel@6@@ATL@@@ATL@@QEAA@PEAX@Z ; ATL::CComObject<ATL::CComEnum<IEnumConnections,&_GUID_b196b287_bab4_101a_b69c_00aa00341d07,tagCONNECTDATA,ATL::_Copy<tagCONNECTDATA>,ATL::CComSingleThreadModel> >::CComObject<ATL::CComEnum<IEnumConnections,&_GUID_b196b287_bab4_101a_b69c_00aa00341d07,tagCONNECTDATA,ATL::_Copy<tagCONNECTDATA>,ATL::CComSingleThreadModel> >
PUBLIC	??1?$CComObject@V?$CComEnum@UIEnumConnections@@$1?_GUID_b196b287_bab4_101a_b69c_00aa00341d07@@3U__s_GUID@@BUtagCONNECTDATA@@V?$_Copy@UtagCONNECTDATA@@@ATL@@VCComSingleThreadModel@6@@ATL@@@ATL@@UEAA@XZ ; ATL::CComObject<ATL::CComEnum<IEnumConnections,&_GUID_b196b287_bab4_101a_b69c_00aa00341d07,tagCONNECTDATA,ATL::_Copy<tagCONNECTDATA>,ATL::CComSingleThreadModel> >::~CComObject<ATL::CComEnum<IEnumConnections,&_GUID_b196b287_bab4_101a_b69c_00aa00341d07,tagCONNECTDATA,ATL::_Copy<tagCONNECTDATA>,ATL::CComSingleThreadModel> >
PUBLIC	?AddRef@?$CComObject@V?$CComEnum@UIEnumConnections@@$1?_GUID_b196b287_bab4_101a_b69c_00aa00341d07@@3U__s_GUID@@BUtagCONNECTDATA@@V?$_Copy@UtagCONNECTDATA@@@ATL@@VCComSingleThreadModel@6@@ATL@@@ATL@@UEAAKXZ ; ATL::CComObject<ATL::CComEnum<IEnumConnections,&_GUID_b196b287_bab4_101a_b69c_00aa00341d07,tagCONNECTDATA,ATL::_Copy<tagCONNECTDATA>,ATL::CComSingleThreadModel> >::AddRef
PUBLIC	?Release@?$CComObject@V?$CComEnum@UIEnumConnections@@$1?_GUID_b196b287_bab4_101a_b69c_00aa00341d07@@3U__s_GUID@@BUtagCONNECTDATA@@V?$_Copy@UtagCONNECTDATA@@@ATL@@VCComSingleThreadModel@6@@ATL@@@ATL@@UEAAKXZ ; ATL::CComObject<ATL::CComEnum<IEnumConnections,&_GUID_b196b287_bab4_101a_b69c_00aa00341d07,tagCONNECTDATA,ATL::_Copy<tagCONNECTDATA>,ATL::CComSingleThreadModel> >::Release
PUBLIC	?QueryInterface@?$CComObject@V?$CComEnum@UIEnumConnections@@$1?_GUID_b196b287_bab4_101a_b69c_00aa00341d07@@3U__s_GUID@@BUtagCONNECTDATA@@V?$_Copy@UtagCONNECTDATA@@@ATL@@VCComSingleThreadModel@6@@ATL@@@ATL@@UEAAJAEBU_GUID@@PEAPEAX@Z ; ATL::CComObject<ATL::CComEnum<IEnumConnections,&_GUID_b196b287_bab4_101a_b69c_00aa00341d07,tagCONNECTDATA,ATL::_Copy<tagCONNECTDATA>,ATL::CComSingleThreadModel> >::QueryInterface
PUBLIC	?CreateInstance@?$CComObject@V?$CComEnum@UIEnumConnections@@$1?_GUID_b196b287_bab4_101a_b69c_00aa00341d07@@3U__s_GUID@@BUtagCONNECTDATA@@V?$_Copy@UtagCONNECTDATA@@@ATL@@VCComSingleThreadModel@6@@ATL@@@ATL@@SAJPEAPEAV12@@Z ; ATL::CComObject<ATL::CComEnum<IEnumConnections,&_GUID_b196b287_bab4_101a_b69c_00aa00341d07,tagCONNECTDATA,ATL::_Copy<tagCONNECTDATA>,ATL::CComSingleThreadModel> >::CreateInstance
PUBLIC	??_G?$CComObject@V?$CComEnum@UIEnumConnections@@$1?_GUID_b196b287_bab4_101a_b69c_00aa00341d07@@3U__s_GUID@@BUtagCONNECTDATA@@V?$_Copy@UtagCONNECTDATA@@@ATL@@VCComSingleThreadModel@6@@ATL@@@ATL@@UEAAPEAXI@Z ; ATL::CComObject<ATL::CComEnum<IEnumConnections,&_GUID_b196b287_bab4_101a_b69c_00aa00341d07,tagCONNECTDATA,ATL::_Copy<tagCONNECTDATA>,ATL::CComSingleThreadModel> >::`scalar deleting destructor'
PUBLIC	?copy@?$_CopyInterface@UIConnectionPoint@@@ATL@@SAJPEAPEAUIConnectionPoint@@PEBQEAU3@@Z ; ATL::_CopyInterface<IConnectionPoint>::copy
PUBLIC	?init@?$_CopyInterface@UIConnectionPoint@@@ATL@@SAXPEAPEAUIConnectionPoint@@@Z ; ATL::_CopyInterface<IConnectionPoint>::init
PUBLIC	?destroy@?$_CopyInterface@UIConnectionPoint@@@ATL@@SAXPEAPEAUIConnectionPoint@@@Z ; ATL::_CopyInterface<IConnectionPoint>::destroy
PUBLIC	??_E?$CComObject@VCOPOSIndividualRecognition@@@ATL@@W7EAAPEAXI@Z ; [thunk]:ATL::CComObject<COPOSIndividualRecognition>::`vector deleting destructor'
PUBLIC	??_E?$CComObject@VCOPOSIndividualRecognition@@@ATL@@WHA@EAAPEAXI@Z ; [thunk]:ATL::CComObject<COPOSIndividualRecognition>::`vector deleting destructor'
PUBLIC	?QueryInterface@?$CComObject@VCOPOSIndividualRecognition@@@ATL@@WLI@EAAJAEBU_GUID@@PEAPEAX@Z ; [thunk]:ATL::CComObject<COPOSIndividualRecognition>::QueryInterface`adjustor{184}'
PUBLIC	?AddRef@?$CComObject@VCOPOSIndividualRecognition@@@ATL@@WLI@EAAKXZ ; [thunk]:ATL::CComObject<COPOSIndividualRecognition>::AddRef`adjustor{184}'
PUBLIC	?Release@?$CComObject@VCOPOSIndividualRecognition@@@ATL@@WLI@EAAKXZ ; [thunk]:ATL::CComObject<COPOSIndividualRecognition>::Release`adjustor{184}'
PUBLIC	?QueryInterface@?$CComObject@VCOPOSIndividualRecognition@@@ATL@@WMA@EAAJAEBU_GUID@@PEAPEAX@Z ; [thunk]:ATL::CComObject<COPOSIndividualRecognition>::QueryInterface`adjustor{192}'
PUBLIC	?AddRef@?$CComObject@VCOPOSIndividualRecognition@@@ATL@@WMA@EAAKXZ ; [thunk]:ATL::CComObject<COPOSIndividualRecognition>::AddRef`adjustor{192}'
PUBLIC	?Release@?$CComObject@VCOPOSIndividualRecognition@@@ATL@@WMA@EAAKXZ ; [thunk]:ATL::CComObject<COPOSIndividualRecognition>::Release`adjustor{192}'
PUBLIC	?QueryInterface@?$CComObject@VCOPOSIndividualRecognition@@@ATL@@WMI@EAAJAEBU_GUID@@PEAPEAX@Z ; [thunk]:ATL::CComObject<COPOSIndividualRecognition>::QueryInterface`adjustor{200}'
PUBLIC	?AddRef@?$CComObject@VCOPOSIndividualRecognition@@@ATL@@WMI@EAAKXZ ; [thunk]:ATL::CComObject<COPOSIndividualRecognition>::AddRef`adjustor{200}'
PUBLIC	?Release@?$CComObject@VCOPOSIndividualRecognition@@@ATL@@WMI@EAAKXZ ; [thunk]:ATL::CComObject<COPOSIndividualRecognition>::Release`adjustor{200}'
PUBLIC	?QueryInterface@?$CComObject@VCOPOSIndividualRecognition@@@ATL@@WNA@EAAJAEBU_GUID@@PEAPEAX@Z ; [thunk]:ATL::CComObject<COPOSIndividualRecognition>::QueryInterface`adjustor{208}'
PUBLIC	?AddRef@?$CComObject@VCOPOSIndividualRecognition@@@ATL@@WNA@EAAKXZ ; [thunk]:ATL::CComObject<COPOSIndividualRecognition>::AddRef`adjustor{208}'
PUBLIC	?Release@?$CComObject@VCOPOSIndividualRecognition@@@ATL@@WNA@EAAKXZ ; [thunk]:ATL::CComObject<COPOSIndividualRecognition>::Release`adjustor{208}'
PUBLIC	?QueryInterface@?$CComObject@VCOPOSIndividualRecognition@@@ATL@@WNI@EAAJAEBU_GUID@@PEAPEAX@Z ; [thunk]:ATL::CComObject<COPOSIndividualRecognition>::QueryInterface`adjustor{216}'
PUBLIC	?AddRef@?$CComObject@VCOPOSIndividualRecognition@@@ATL@@WNI@EAAKXZ ; [thunk]:ATL::CComObject<COPOSIndividualRecognition>::AddRef`adjustor{216}'
PUBLIC	?Release@?$CComObject@VCOPOSIndividualRecognition@@@ATL@@WNI@EAAKXZ ; [thunk]:ATL::CComObject<COPOSIndividualRecognition>::Release`adjustor{216}'
PUBLIC	?QueryInterface@?$CComObject@VCOPOSIndividualRecognition@@@ATL@@WOA@EAAJAEBU_GUID@@PEAPEAX@Z ; [thunk]:ATL::CComObject<COPOSIndividualRecognition>::QueryInterface`adjustor{224}'
PUBLIC	?AddRef@?$CComObject@VCOPOSIndividualRecognition@@@ATL@@WOA@EAAKXZ ; [thunk]:ATL::CComObject<COPOSIndividualRecognition>::AddRef`adjustor{224}'
PUBLIC	?Release@?$CComObject@VCOPOSIndividualRecognition@@@ATL@@WOA@EAAKXZ ; [thunk]:ATL::CComObject<COPOSIndividualRecognition>::Release`adjustor{224}'
PUBLIC	?QueryInterface@?$CComObject@VCOPOSIndividualRecognition@@@ATL@@WOI@EAAJAEBU_GUID@@PEAPEAX@Z ; [thunk]:ATL::CComObject<COPOSIndividualRecognition>::QueryInterface`adjustor{232}'
PUBLIC	?AddRef@?$CComObject@VCOPOSIndividualRecognition@@@ATL@@WOI@EAAKXZ ; [thunk]:ATL::CComObject<COPOSIndividualRecognition>::AddRef`adjustor{232}'
PUBLIC	?Release@?$CComObject@VCOPOSIndividualRecognition@@@ATL@@WOI@EAAKXZ ; [thunk]:ATL::CComObject<COPOSIndividualRecognition>::Release`adjustor{232}'
PUBLIC	?QueryInterface@?$CComObject@VCOPOSIndividualRecognition@@@ATL@@WPA@EAAJAEBU_GUID@@PEAPEAX@Z ; [thunk]:ATL::CComObject<COPOSIndividualRecognition>::QueryInterface`adjustor{240}'
PUBLIC	?AddRef@?$CComObject@VCOPOSIndividualRecognition@@@ATL@@WPA@EAAKXZ ; [thunk]:ATL::CComObject<COPOSIndividualRecognition>::AddRef`adjustor{240}'
PUBLIC	?Release@?$CComObject@VCOPOSIndividualRecognition@@@ATL@@WPA@EAAKXZ ; [thunk]:ATL::CComObject<COPOSIndividualRecognition>::Release`adjustor{240}'
PUBLIC	?QueryInterface@?$CComObject@VCOPOSIndividualRecognition@@@ATL@@WPI@EAAJAEBU_GUID@@PEAPEAX@Z ; [thunk]:ATL::CComObject<COPOSIndividualRecognition>::QueryInterface`adjustor{248}'
PUBLIC	?AddRef@?$CComObject@VCOPOSIndividualRecognition@@@ATL@@WPI@EAAKXZ ; [thunk]:ATL::CComObject<COPOSIndividualRecognition>::AddRef`adjustor{248}'
PUBLIC	?Release@?$CComObject@VCOPOSIndividualRecognition@@@ATL@@WPI@EAAKXZ ; [thunk]:ATL::CComObject<COPOSIndividualRecognition>::Release`adjustor{248}'
PUBLIC	?QueryInterface@?$CComObject@VCOPOSIndividualRecognition@@@ATL@@WBAA@EAAJAEBU_GUID@@PEAPEAX@Z ; [thunk]:ATL::CComObject<COPOSIndividualRecognition>::QueryInterface`adjustor{256}'
PUBLIC	?AddRef@?$CComObject@VCOPOSIndividualRecognition@@@ATL@@WBAA@EAAKXZ ; [thunk]:ATL::CComObject<COPOSIndividualRecognition>::AddRef`adjustor{256}'
PUBLIC	?Release@?$CComObject@VCOPOSIndividualRecognition@@@ATL@@WBAA@EAAKXZ ; [thunk]:ATL::CComObject<COPOSIndividualRecognition>::Release`adjustor{256}'
PUBLIC	?QueryInterface@?$CComObject@VCOPOSIndividualRecognition@@@ATL@@WBAI@EAAJAEBU_GUID@@PEAPEAX@Z ; [thunk]:ATL::CComObject<COPOSIndividualRecognition>::QueryInterface`adjustor{264}'
PUBLIC	?AddRef@?$CComObject@VCOPOSIndividualRecognition@@@ATL@@WBAI@EAAKXZ ; [thunk]:ATL::CComObject<COPOSIndividualRecognition>::AddRef`adjustor{264}'
PUBLIC	?Release@?$CComObject@VCOPOSIndividualRecognition@@@ATL@@WBAI@EAAKXZ ; [thunk]:ATL::CComObject<COPOSIndividualRecognition>::Release`adjustor{264}'
PUBLIC	?QueryInterface@?$CComObject@VCOPOSIndividualRecognition@@@ATL@@WBBA@EAAJAEBU_GUID@@PEAPEAX@Z ; [thunk]:ATL::CComObject<COPOSIndividualRecognition>::QueryInterface`adjustor{272}'
PUBLIC	?AddRef@?$CComObject@VCOPOSIndividualRecognition@@@ATL@@WBBA@EAAKXZ ; [thunk]:ATL::CComObject<COPOSIndividualRecognition>::AddRef`adjustor{272}'
PUBLIC	?Release@?$CComObject@VCOPOSIndividualRecognition@@@ATL@@WBBA@EAAKXZ ; [thunk]:ATL::CComObject<COPOSIndividualRecognition>::Release`adjustor{272}'
PUBLIC	?QueryInterface@?$CComObject@VCOPOSIndividualRecognition@@@ATL@@WBBI@EAAJAEBU_GUID@@PEAPEAX@Z ; [thunk]:ATL::CComObject<COPOSIndividualRecognition>::QueryInterface`adjustor{280}'
PUBLIC	?AddRef@?$CComObject@VCOPOSIndividualRecognition@@@ATL@@WBBI@EAAKXZ ; [thunk]:ATL::CComObject<COPOSIndividualRecognition>::AddRef`adjustor{280}'
PUBLIC	?Release@?$CComObject@VCOPOSIndividualRecognition@@@ATL@@WBBI@EAAKXZ ; [thunk]:ATL::CComObject<COPOSIndividualRecognition>::Release`adjustor{280}'
PUBLIC	?AddRef@?$CComObject@VCOPOSIndividualRecognition@@@ATL@@WBCI@EAAKXZ ; [thunk]:ATL::CComObject<COPOSIndividualRecognition>::AddRef`adjustor{296}'
PUBLIC	?Release@?$CComObject@VCOPOSIndividualRecognition@@@ATL@@WBCI@EAAKXZ ; [thunk]:ATL::CComObject<COPOSIndividualRecognition>::Release`adjustor{296}'
PUBLIC	?AddRef@?$CComObject@VCOPOSIndividualRecognition@@@ATL@@WBEA@EAAKXZ ; [thunk]:ATL::CComObject<COPOSIndividualRecognition>::AddRef`adjustor{320}'
PUBLIC	?Release@?$CComObject@VCOPOSIndividualRecognition@@@ATL@@WBEA@EAAKXZ ; [thunk]:ATL::CComObject<COPOSIndividualRecognition>::Release`adjustor{320}'
PUBLIC	??_E?$CComContainedObject@VCOPOSIndividualRecognition@@@ATL@@W7EAAPEAXI@Z ; [thunk]:ATL::CComContainedObject<COPOSIndividualRecognition>::`vector deleting destructor'
PUBLIC	??_E?$CComContainedObject@VCOPOSIndividualRecognition@@@ATL@@WHA@EAAPEAXI@Z ; [thunk]:ATL::CComContainedObject<COPOSIndividualRecognition>::`vector deleting destructor'
PUBLIC	?QueryInterface@?$CComContainedObject@VCOPOSIndividualRecognition@@@ATL@@WLI@EAAJAEBU_GUID@@PEAPEAX@Z ; [thunk]:ATL::CComContainedObject<COPOSIndividualRecognition>::QueryInterface`adjustor{184}'
PUBLIC	?AddRef@?$CComContainedObject@VCOPOSIndividualRecognition@@@ATL@@WLI@EAAKXZ ; [thunk]:ATL::CComContainedObject<COPOSIndividualRecognition>::AddRef`adjustor{184}'
PUBLIC	?Release@?$CComContainedObject@VCOPOSIndividualRecognition@@@ATL@@WLI@EAAKXZ ; [thunk]:ATL::CComContainedObject<COPOSIndividualRecognition>::Release`adjustor{184}'
PUBLIC	?QueryInterface@?$CComContainedObject@VCOPOSIndividualRecognition@@@ATL@@WMA@EAAJAEBU_GUID@@PEAPEAX@Z ; [thunk]:ATL::CComContainedObject<COPOSIndividualRecognition>::QueryInterface`adjustor{192}'
PUBLIC	?AddRef@?$CComContainedObject@VCOPOSIndividualRecognition@@@ATL@@WMA@EAAKXZ ; [thunk]:ATL::CComContainedObject<COPOSIndividualRecognition>::AddRef`adjustor{192}'
PUBLIC	?Release@?$CComContainedObject@VCOPOSIndividualRecognition@@@ATL@@WMA@EAAKXZ ; [thunk]:ATL::CComContainedObject<COPOSIndividualRecognition>::Release`adjustor{192}'
PUBLIC	?QueryInterface@?$CComContainedObject@VCOPOSIndividualRecognition@@@ATL@@WMI@EAAJAEBU_GUID@@PEAPEAX@Z ; [thunk]:ATL::CComContainedObject<COPOSIndividualRecognition>::QueryInterface`adjustor{200}'
PUBLIC	?AddRef@?$CComContainedObject@VCOPOSIndividualRecognition@@@ATL@@WMI@EAAKXZ ; [thunk]:ATL::CComContainedObject<COPOSIndividualRecognition>::AddRef`adjustor{200}'
PUBLIC	?Release@?$CComContainedObject@VCOPOSIndividualRecognition@@@ATL@@WMI@EAAKXZ ; [thunk]:ATL::CComContainedObject<COPOSIndividualRecognition>::Release`adjustor{200}'
PUBLIC	?QueryInterface@?$CComContainedObject@VCOPOSIndividualRecognition@@@ATL@@WNA@EAAJAEBU_GUID@@PEAPEAX@Z ; [thunk]:ATL::CComContainedObject<COPOSIndividualRecognition>::QueryInterface`adjustor{208}'
PUBLIC	?AddRef@?$CComContainedObject@VCOPOSIndividualRecognition@@@ATL@@WNA@EAAKXZ ; [thunk]:ATL::CComContainedObject<COPOSIndividualRecognition>::AddRef`adjustor{208}'
PUBLIC	?Release@?$CComContainedObject@VCOPOSIndividualRecognition@@@ATL@@WNA@EAAKXZ ; [thunk]:ATL::CComContainedObject<COPOSIndividualRecognition>::Release`adjustor{208}'
PUBLIC	?QueryInterface@?$CComContainedObject@VCOPOSIndividualRecognition@@@ATL@@WNI@EAAJAEBU_GUID@@PEAPEAX@Z ; [thunk]:ATL::CComContainedObject<COPOSIndividualRecognition>::QueryInterface`adjustor{216}'
PUBLIC	?AddRef@?$CComContainedObject@VCOPOSIndividualRecognition@@@ATL@@WNI@EAAKXZ ; [thunk]:ATL::CComContainedObject<COPOSIndividualRecognition>::AddRef`adjustor{216}'
PUBLIC	?Release@?$CComContainedObject@VCOPOSIndividualRecognition@@@ATL@@WNI@EAAKXZ ; [thunk]:ATL::CComContainedObject<COPOSIndividualRecognition>::Release`adjustor{216}'
PUBLIC	?QueryInterface@?$CComContainedObject@VCOPOSIndividualRecognition@@@ATL@@WOA@EAAJAEBU_GUID@@PEAPEAX@Z ; [thunk]:ATL::CComContainedObject<COPOSIndividualRecognition>::QueryInterface`adjustor{224}'
PUBLIC	?AddRef@?$CComContainedObject@VCOPOSIndividualRecognition@@@ATL@@WOA@EAAKXZ ; [thunk]:ATL::CComContainedObject<COPOSIndividualRecognition>::AddRef`adjustor{224}'
PUBLIC	?Release@?$CComContainedObject@VCOPOSIndividualRecognition@@@ATL@@WOA@EAAKXZ ; [thunk]:ATL::CComContainedObject<COPOSIndividualRecognition>::Release`adjustor{224}'
PUBLIC	?QueryInterface@?$CComContainedObject@VCOPOSIndividualRecognition@@@ATL@@WOI@EAAJAEBU_GUID@@PEAPEAX@Z ; [thunk]:ATL::CComContainedObject<COPOSIndividualRecognition>::QueryInterface`adjustor{232}'
PUBLIC	?AddRef@?$CComContainedObject@VCOPOSIndividualRecognition@@@ATL@@WOI@EAAKXZ ; [thunk]:ATL::CComContainedObject<COPOSIndividualRecognition>::AddRef`adjustor{232}'
PUBLIC	?Release@?$CComContainedObject@VCOPOSIndividualRecognition@@@ATL@@WOI@EAAKXZ ; [thunk]:ATL::CComContainedObject<COPOSIndividualRecognition>::Release`adjustor{232}'
PUBLIC	?QueryInterface@?$CComContainedObject@VCOPOSIndividualRecognition@@@ATL@@WPA@EAAJAEBU_GUID@@PEAPEAX@Z ; [thunk]:ATL::CComContainedObject<COPOSIndividualRecognition>::QueryInterface`adjustor{240}'
PUBLIC	?AddRef@?$CComContainedObject@VCOPOSIndividualRecognition@@@ATL@@WPA@EAAKXZ ; [thunk]:ATL::CComContainedObject<COPOSIndividualRecognition>::AddRef`adjustor{240}'
PUBLIC	?Release@?$CComContainedObject@VCOPOSIndividualRecognition@@@ATL@@WPA@EAAKXZ ; [thunk]:ATL::CComContainedObject<COPOSIndividualRecognition>::Release`adjustor{240}'
PUBLIC	?QueryInterface@?$CComContainedObject@VCOPOSIndividualRecognition@@@ATL@@WPI@EAAJAEBU_GUID@@PEAPEAX@Z ; [thunk]:ATL::CComContainedObject<COPOSIndividualRecognition>::QueryInterface`adjustor{248}'
PUBLIC	?AddRef@?$CComContainedObject@VCOPOSIndividualRecognition@@@ATL@@WPI@EAAKXZ ; [thunk]:ATL::CComContainedObject<COPOSIndividualRecognition>::AddRef`adjustor{248}'
PUBLIC	?Release@?$CComContainedObject@VCOPOSIndividualRecognition@@@ATL@@WPI@EAAKXZ ; [thunk]:ATL::CComContainedObject<COPOSIndividualRecognition>::Release`adjustor{248}'
PUBLIC	?QueryInterface@?$CComContainedObject@VCOPOSIndividualRecognition@@@ATL@@WBAA@EAAJAEBU_GUID@@PEAPEAX@Z ; [thunk]:ATL::CComContainedObject<COPOSIndividualRecognition>::QueryInterface`adjustor{256}'
PUBLIC	?AddRef@?$CComContainedObject@VCOPOSIndividualRecognition@@@ATL@@WBAA@EAAKXZ ; [thunk]:ATL::CComContainedObject<COPOSIndividualRecognition>::AddRef`adjustor{256}'
PUBLIC	?Release@?$CComContainedObject@VCOPOSIndividualRecognition@@@ATL@@WBAA@EAAKXZ ; [thunk]:ATL::CComContainedObject<COPOSIndividualRecognition>::Release`adjustor{256}'
PUBLIC	?QueryInterface@?$CComContainedObject@VCOPOSIndividualRecognition@@@ATL@@WBAI@EAAJAEBU_GUID@@PEAPEAX@Z ; [thunk]:ATL::CComContainedObject<COPOSIndividualRecognition>::QueryInterface`adjustor{264}'
PUBLIC	?AddRef@?$CComContainedObject@VCOPOSIndividualRecognition@@@ATL@@WBAI@EAAKXZ ; [thunk]:ATL::CComContainedObject<COPOSIndividualRecognition>::AddRef`adjustor{264}'
PUBLIC	?Release@?$CComContainedObject@VCOPOSIndividualRecognition@@@ATL@@WBAI@EAAKXZ ; [thunk]:ATL::CComContainedObject<COPOSIndividualRecognition>::Release`adjustor{264}'
PUBLIC	?QueryInterface@?$CComContainedObject@VCOPOSIndividualRecognition@@@ATL@@WBBA@EAAJAEBU_GUID@@PEAPEAX@Z ; [thunk]:ATL::CComContainedObject<COPOSIndividualRecognition>::QueryInterface`adjustor{272}'
PUBLIC	?AddRef@?$CComContainedObject@VCOPOSIndividualRecognition@@@ATL@@WBBA@EAAKXZ ; [thunk]:ATL::CComContainedObject<COPOSIndividualRecognition>::AddRef`adjustor{272}'
PUBLIC	?Release@?$CComContainedObject@VCOPOSIndividualRecognition@@@ATL@@WBBA@EAAKXZ ; [thunk]:ATL::CComContainedObject<COPOSIndividualRecognition>::Release`adjustor{272}'
PUBLIC	?QueryInterface@?$CComContainedObject@VCOPOSIndividualRecognition@@@ATL@@WBBI@EAAJAEBU_GUID@@PEAPEAX@Z ; [thunk]:ATL::CComContainedObject<COPOSIndividualRecognition>::QueryInterface`adjustor{280}'
PUBLIC	?AddRef@?$CComContainedObject@VCOPOSIndividualRecognition@@@ATL@@WBBI@EAAKXZ ; [thunk]:ATL::CComContainedObject<COPOSIndividualRecognition>::AddRef`adjustor{280}'
PUBLIC	?Release@?$CComContainedObject@VCOPOSIndividualRecognition@@@ATL@@WBBI@EAAKXZ ; [thunk]:ATL::CComContainedObject<COPOSIndividualRecognition>::Release`adjustor{280}'
PUBLIC	?AddRef@?$CComContainedObject@VCOPOSIndividualRecognition@@@ATL@@WBCI@EAAKXZ ; [thunk]:ATL::CComContainedObject<COPOSIndividualRecognition>::AddRef`adjustor{296}'
PUBLIC	?Release@?$CComContainedObject@VCOPOSIndividualRecognition@@@ATL@@WBCI@EAAKXZ ; [thunk]:ATL::CComContainedObject<COPOSIndividualRecognition>::Release`adjustor{296}'
PUBLIC	?AddRef@?$CComContainedObject@VCOPOSIndividualRecognition@@@ATL@@WBEA@EAAKXZ ; [thunk]:ATL::CComContainedObject<COPOSIndividualRecognition>::AddRef`adjustor{320}'
PUBLIC	?Release@?$CComContainedObject@VCOPOSIndividualRecognition@@@ATL@@WBEA@EAAKXZ ; [thunk]:ATL::CComContainedObject<COPOSIndividualRecognition>::Release`adjustor{320}'
PUBLIC	?_OptionsStorage@?1??__local_stdio_printf_options@@9@4_KA ; `__local_stdio_printf_options'::`2'::_OptionsStorage
PUBLIC	??_C@_13COJANIEC@?$AA0@				; `string'
PUBLIC	??_C@_17CNPHIMPH@?$AA?$CF?$AAl?$AAs@		; `string'
PUBLIC	??_C@_1OE@EFJOHFCD@?$AAC?$AA?3?$AA?2?$AAP?$AAr?$AAo?$AAg?$AAr?$AAa?$AAm?$AA?5?$AAF?$AAi?$AAl?$AAe@ ; `string'
PUBLIC	?atlTraceGeneral@ATL@@3V?$CTraceCategoryEx@$00$0A@@1@A ; ATL::atlTraceGeneral
PUBLIC	?atlTraceCOM@ATL@@3V?$CTraceCategoryEx@$01$0A@@1@A ; ATL::atlTraceCOM
PUBLIC	?atlTraceQI@ATL@@3V?$CTraceCategoryEx@$03$0A@@1@A ; ATL::atlTraceQI
PUBLIC	?atlTraceRegistrar@ATL@@3V?$CTraceCategoryEx@$07$0A@@1@A ; ATL::atlTraceRegistrar
PUBLIC	?atlTraceRefcount@ATL@@3V?$CTraceCategoryEx@$0BA@$0A@@1@A ; ATL::atlTraceRefcount
PUBLIC	?atlTraceWindowing@ATL@@3V?$CTraceCategoryEx@$0CA@$0A@@1@A ; ATL::atlTraceWindowing
PUBLIC	?atlTraceControls@ATL@@3V?$CTraceCategoryEx@$0EA@$0A@@1@A ; ATL::atlTraceControls
PUBLIC	?atlTraceHosting@ATL@@3V?$CTraceCategoryEx@$0IA@$0A@@1@A ; ATL::atlTraceHosting
PUBLIC	?atlTraceDBClient@ATL@@3V?$CTraceCategoryEx@$0BAA@$0A@@1@A ; ATL::atlTraceDBClient
PUBLIC	?atlTraceDBProvider@ATL@@3V?$CTraceCategoryEx@$0CAA@$0A@@1@A ; ATL::atlTraceDBProvider
PUBLIC	?atlTraceSnapin@ATL@@3V?$CTraceCategoryEx@$0EAA@$0A@@1@A ; ATL::atlTraceSnapin
PUBLIC	?atlTraceNotImpl@ATL@@3V?$CTraceCategoryEx@$0IAA@$0A@@1@A ; ATL::atlTraceNotImpl
PUBLIC	?atlTraceAllocation@ATL@@3V?$CTraceCategoryEx@$0BAAA@$0A@@1@A ; ATL::atlTraceAllocation
PUBLIC	?atlTraceException@ATL@@3V?$CTraceCategoryEx@$0CAAA@$0A@@1@A ; ATL::atlTraceException
PUBLIC	?atlTraceTime@ATL@@3V?$CTraceCategoryEx@$0EAAA@$0A@@1@A ; ATL::atlTraceTime
PUBLIC	?atlTraceCache@ATL@@3V?$CTraceCategoryEx@$0IAAA@$0A@@1@A ; ATL::atlTraceCache
PUBLIC	?atlTraceStencil@ATL@@3V?$CTraceCategoryEx@$0BAAAA@$0A@@1@A ; ATL::atlTraceStencil
PUBLIC	?atlTraceString@ATL@@3V?$CTraceCategoryEx@$0CAAAA@$0A@@1@A ; ATL::atlTraceString
PUBLIC	?atlTraceMap@ATL@@3V?$CTraceCategoryEx@$0EAAAA@$0A@@1@A ; ATL::atlTraceMap
PUBLIC	?atlTraceUtil@ATL@@3V?$CTraceCategoryEx@$0IAAAA@$0A@@1@A ; ATL::atlTraceUtil
PUBLIC	?atlTraceSecurity@ATL@@3V?$CTraceCategoryEx@$0BAAAAA@$0A@@1@A ; ATL::atlTraceSecurity
PUBLIC	?atlTraceSync@ATL@@3V?$CTraceCategoryEx@$0CAAAAA@$0A@@1@A ; ATL::atlTraceSync
PUBLIC	?atlTraceISAPI@ATL@@3V?$CTraceCategoryEx@$0EAAAAA@$0A@@1@A ; ATL::atlTraceISAPI
PUBLIC	?m_nLevel@CTrace@ATL@@1IA			; ATL::CTrace::m_nLevel
PUBLIC	?m_nCategory@CTrace@ATL@@1IA			; ATL::CTrace::m_nCategory
PUBLIC	?m_nLastCategory@CTrace@ATL@@1IA		; ATL::CTrace::m_nLastCategory
PUBLIC	?m_nMap@CTrace@ATL@@1PAUCategoryMap@12@A	; ATL::CTrace::m_nMap
PUBLIC	??_C@_1O@LFNDFEBP@?$AA?$CF?$AAl?$AAs?$AA?5?$AA?9?$AA?5@ ; `string'
PUBLIC	??_C@_1M@PGKOAACE@?$AA?$CF?$AAu?$AA?5?$AA?9?$AA?5@ ; `string'
PUBLIC	??_C@_1O@OAIPCDPO@?$AA?$CF?$AAl?$AAs?$AA?$CF?$AAl?$AAs@ ; `string'
PUBLIC	??_C@_17LGGGMOOB@?$AA?$CF?$AAh?$AAs@		; `string'
PUBLIC	??_C@_1EO@EBPPKGOM@?$AAf?$AAa?$AAl?$AAs?$AAe?$AA?5?$AA?$CG?$AA?$CG?$AA?5?$AA?$CC?$AAT?$AAo?$AAo?$AA?5?$AAm@ ; `string'
PUBLIC	??_C@_1OE@DGDFBHKA@?$AAC?$AA?3?$AA?2?$AAP?$AAr?$AAo?$AAg?$AAr?$AAa?$AAm?$AA?5?$AAF?$AAi?$AAl?$AAe@ ; `string'
PUBLIC	??_C@_0HD@ECNMIKGK@C?3?2Program?5Files?5?$CIx86?$CJ?2Microsof@ ; `string'
PUBLIC	??_C@_1CK@DFMKPFAK@?$AAA?$AAt?$AAl?$AAT?$AAh?$AAr?$AAo?$AAw?$AA?3?$AA?5?$AAh?$AAr?$AA?5?$AA?$DN?$AA?5@ ; `string'
PUBLIC	??_C@_1M@HLGKFCJM@?$AAf?$AAa?$AAl?$AAs?$AAe@	; `string'
PUBLIC	??_C@_1OG@DEDHKNLM@?$AAC?$AA?3?$AA?2?$AAP?$AAr?$AAo?$AAg?$AAr?$AAa?$AAm?$AA?5?$AAF?$AAi?$AAl?$AAe@ ; `string'
PUBLIC	??_C@_1CA@MNJCDMEH@?$AA?$CB?$AAm?$AA_?$AAb?$AAI?$AAn?$AAi?$AAt?$AAi?$AAa?$AAl?$AAi?$AAz?$AAe?$AAd@ ; `string'
PUBLIC	??_C@_1OC@LDOGAJJJ@?$AAC?$AA?3?$AA?2?$AAP?$AAr?$AAo?$AAg?$AAr?$AAa?$AAm?$AA?5?$AAF?$AAi?$AAl?$AAe@ ; `string'
PUBLIC	?m_bInitFailed@CAtlBaseModule@ATL@@2_NA		; ATL::CAtlBaseModule::m_bInitFailed
PUBLIC	??_C@_1BM@GBBOFEAE@?$AA_?$AA_?$AAa?$AAt?$AAl?$AA_?$AAc?$AAo?$AAn?$AAd?$AAV?$AAa?$AAl@ ; `string'
PUBLIC	??_C@_1OG@NPBPGCCO@?$AAC?$AA?3?$AA?2?$AAP?$AAr?$AAo?$AAg?$AAr?$AAa?$AAm?$AA?5?$AAF?$AAi?$AAl?$AAe@ ; `string'
PUBLIC	??_C@_1BE@LOHOFOCD@?$AAp?$AAD?$AAi?$AAs?$AAp?$AAa?$AAt?$AAc?$AAh@ ; `string'
PUBLIC	??_C@_1BE@GIHDMMGE@?$AAp?$AAV?$AAa?$AAr?$AA?5?$AA?$CB?$AA?$DN?$AA?5?$AA0@ ; `string'
PUBLIC	??_C@_0HD@MGLNKGFD@C?3?2Program?5Files?5?$CIx86?$CJ?2Microsof@ ; `string'
PUBLIC	??_C@_1DM@OFBKNGJC@?$AAC?$AAP?$AAr?$AAo?$AAp?$AAe?$AAr?$AAt?$AAy?$AAH?$AAe?$AAl?$AAp?$AAe?$AAr@ ; `string'
PUBLIC	??_C@_1DM@OIOAIJPB@?$AAC?$AAP?$AAr?$AAo?$AAp?$AAe?$AAr?$AAt?$AAy?$AAH?$AAe?$AAl?$AAp?$AAe?$AAr@ ; `string'
PUBLIC	_GUID_00000000_0000_0000_c000_000000000046
PUBLIC	_GUID_00020400_0000_0000_c000_000000000046
PUBLIC	??_C@_1BG@ILBPLEEF@?$AAn?$AAN?$AAu?$AAl?$AAl?$AA?5?$AA?$DN?$AA?$DN?$AA?5?$AA0@ ; `string'
PUBLIC	??_C@_1BK@PMLCOGII@?$AAp?$AAS?$AAt?$AAr?$AAe?$AAa?$AAm?$AA?5?$AA?$CB?$AA?$DN?$AA?5?$AA0@ ; `string'
PUBLIC	??_C@_1DE@KLNFNPEF@?$AAc?$AAb?$AAS?$AAt?$AAr?$AAL?$AAe?$AAn?$AA?5?$AA?$DO?$AA?$DN?$AA?5?$AAs?$AAi?$AAz@ ; `string'
PUBLIC	??_C@_1O@CGPEODAD@?$AA?$CB?$AA?$CK?$AAt?$AAh?$AAi?$AAs@ ; `string'
PUBLIC	??_C@_1DG@PIJMPOJH@?$AAI?$AAn?$AAp?$AAu?$AAt?$AA?5?$AAs?$AAt?$AAr?$AAe?$AAa?$AAm?$AA?5?$AAi?$AAs@ ; `string'
PUBLIC	??_C@_1IG@BFBDIBOK@?$AAS?$AAt?$AAr?$AAi?$AAn?$AAg?$AA?5?$AAe?$AAx?$AAc?$AAe?$AAe?$AAd?$AAe?$AAd@ ; `string'
PUBLIC	??_C@_1GE@DKMFEMPD@?$AAL?$AAe?$AAn?$AAg?$AAt?$AAh?$AA?5?$AAo?$AAf?$AA?5?$AAs?$AAt?$AAr?$AAi?$AAn@ ; `string'
PUBLIC	??_C@_1FC@BKMPMMIF@?$AAC?$AAa?$AAn?$AAn?$AAo?$AAt?$AA?5?$AAr?$AAe?$AAa?$AAd?$AA?5?$AAN?$AAU?$AAL@ ; `string'
PUBLIC	??_C@_1CO@HIJGNINB@?$AA?$CI?$AA?$CI?$AA?$CI?$AAH?$AAR?$AAE?$AAS?$AAU?$AAL?$AAT?$AA?$CJ?$AA?$CI?$AAh?$AAr?$AA?$CJ@ ; `string'
PUBLIC	_GUID_00000109_0000_0000_c000_000000000046
PUBLIC	_GUID_7fd52380_4e07_101b_ae2d_08002b2ec713
PUBLIC	??_C@_1BK@EKMOGOFM@?$AAp?$AAc?$AAb?$AAS?$AAi?$AAz?$AAe?$AA?5?$AA?$CB?$AA?$DN?$AA?5?$AA0@ ; `string'
PUBLIC	??_C@_1BM@JBGPBNEE@?$AAs?$AAp?$AAS?$AAt?$AAr?$AAe?$AAa?$AAm?$AA?5?$AA?$CB?$AA?$DN?$AA?5?$AA0@ ; `string'
PUBLIC	??_C@_1BE@CANBMGJB@?$AAp?$AAS?$AAt?$AAm?$AA?5?$AA?$CB?$AA?$DN?$AA?5?$AA0@ ; `string'
PUBLIC	??_C@_1EG@GMHEAKOM@?$AAr?$AAg?$AAc?$AAl?$AAs?$AAi?$AAd?$AAA?$AAl?$AAl?$AAo?$AAw?$AAe?$AAd?$AA?4@ ; `string'
PUBLIC	??_C@_1PO@GPALOAFP@?$AAC?$AA?3?$AA?2?$AAP?$AAr?$AAo?$AAg?$AAr?$AAa?$AAm?$AA?5?$AAF?$AAi?$AAl?$AAe@ ; `string'
PUBLIC	??_C@_1BK@BIGILECK@?$AAA?$AAd?$AAv?$AAa?$AAp?$AAi?$AA3?$AA2?$AA?4?$AAd?$AAl?$AAl@ ; `string'
PUBLIC	??_C@_1BO@KNMGNOCJ@?$AAh?$AAA?$AAd?$AAv?$AAA?$AAP?$AAI?$AA3?$AA2?$AA?5?$AA?$CB?$AA?$DN?$AA?5?$AA0@ ; `string'
PUBLIC	??_C@_0BG@EKFFMJIO@RegOpenKeyTransactedW@	; `string'
PUBLIC	??_C@_0BI@MNCFCPFK@RegCreateKeyTransactedW@	; `string'
PUBLIC	??_C@_0BI@HAKLOOGP@RegDeleteKeyTransactedW@	; `string'
PUBLIC	??_C@_1OC@CIBKFAMP@?$AAC?$AA?3?$AA?2?$AAP?$AAr?$AAo?$AAg?$AAr?$AAa?$AAm?$AA?5?$AAF?$AAi?$AAl?$AAe@ ; `string'
PUBLIC	??_C@_1BG@OHCCAGNO@?$AA?$CB?$AAm?$AA_?$AAb?$AAL?$AAo?$AAc?$AAk?$AAe?$AAd@ ; `string'
PUBLIC	??_C@_1BE@NPGJNKLA@?$AAm?$AA_?$AAb?$AAL?$AAo?$AAc?$AAk?$AAe?$AAd@ ; `string'
PUBLIC	??_C@_0HB@KEBNGHII@C?3?2Program?5Files?5?$CIx86?$CJ?2Microsof@ ; `string'
PUBLIC	??_C@_1IA@KEEOONGN@?$AAE?$AAR?$AAR?$AAO?$AAR?$AA?5?$AA?3?$AA?5?$AAU?$AAn?$AAa?$AAb?$AAl?$AAe?$AA?5@ ; `string'
PUBLIC	?_AtlComModule@ATL@@3VCAtlComModule@1@A		; ATL::_AtlComModule
PUBLIC	?_AtlWinModule@ATL@@3VCAtlWinModule@1@A		; ATL::_AtlWinModule
PUBLIC	?m_libid@CAtlModule@ATL@@2U_GUID@@A		; ATL::CAtlModule::m_libid
PUBLIC	??_C@_1CC@DNHFMIHP@?$AA_?$AAp?$AAA?$AAt?$AAl?$AAM?$AAo?$AAd?$AAu?$AAl?$AAe?$AA?5?$AA?$DN?$AA?$DN?$AA?5@ ; `string'
PUBLIC	??_C@_1HK@DFMOIGDB@?$AAE?$AAR?$AAR?$AAO?$AAR?$AA?5?$AA?3?$AA?5?$AAU?$AAn?$AAa?$AAb?$AAl?$AAe?$AA?5@ ; `string'
PUBLIC	_GUID_00000146_0000_0000_c000_000000000046
PUBLIC	??_C@_1BG@LENCCAOJ@?$AAp?$AAp?$AAG?$AAI?$AAT?$AA?5?$AA?$CB?$AA?$DN?$AA?5?$AA0@ ; `string'
PUBLIC	??_C@_1BI@JBLBCKD@?$AAm?$AA_?$AAp?$AAG?$AAI?$AAT?$AA?5?$AA?$CB?$AA?$DN?$AA?5?$AA0@ ; `string'
PUBLIC	??_7CComModule@ATL@@6B@				; ATL::CComModule::`vftable'
PUBLIC	??_C@_1BM@NFPICFEL@?$AA_?$AAp?$AAM?$AAo?$AAd?$AAu?$AAl?$AAe?$AA?5?$AA?$DN?$AA?$DN?$AA?5?$AA0@ ; `string'
PUBLIC	??_C@_1DG@CCMKDBOJ@?$AAA?$AAT?$AAL?$AA?3?$AA?5?$AA?$CF?$AAT?$AAs?$AA?5?$AAn?$AAo?$AAt?$AA?5?$AAi?$AAm@ ; `string'
PUBLIC	??_C@_1BI@JPOONHGO@?$AAm?$AA_?$AAh?$AAK?$AAe?$AAy?$AA?5?$AA?$DN?$AA?$DN?$AA?5?$AA0@ ; `string'
PUBLIC	?pfnRegDeleteKeyEx@?1??DeleteSubKey@CRegKey@ATL@@QEAAJPEB_W@Z@4P6AJPEAUHKEY__@@0KK@ZEA ; `ATL::CRegKey::DeleteSubKey'::`2'::pfnRegDeleteKeyEx
PUBLIC	?bInitialized@?1??DeleteSubKey@CRegKey@ATL@@QEAAJPEB_W@Z@4_NA ; `ATL::CRegKey::DeleteSubKey'::`2'::bInitialized
PUBLIC	??_C@_1BI@KCHMLGAI@?$AAm?$AA_?$AAh?$AAK?$AAe?$AAy?$AA?5?$AA?$CB?$AA?$DN?$AA?5?$AA0@ ; `string'
PUBLIC	??_C@_0BA@LILAPHGE@RegDeleteKeyExW@		; `string'
PUBLIC	??_C@_1CA@JAHJEEHI@?$AAh?$AAK?$AAe?$AAy?$AAP?$AAa?$AAr?$AAe?$AAn?$AAt?$AA?5?$AA?$CB?$AA?$DN?$AA?5?$AA0@ ; `string'
PUBLIC	??_C@_1BG@OMKLFNDM@?$AAl?$AAR?$AAe?$AAs?$AA?5?$AA?$DN?$AA?$DN?$AA?5?$AA0?$AAL@ ; `string'
PUBLIC	??_C@_1FG@MAMCHIIA@?$AA?$CI?$AAd?$AAw?$AAT?$AAy?$AAp?$AAe?$AA?5?$AA?$DN?$AA?$DN?$AA?5?$AA?$CI?$AA?5?$AA1?$AAu@ ; `string'
PUBLIC	??_C@_1IA@CIKBLAHF@?$AAC?$AAR?$AAe?$AAg?$AAK?$AAe?$AAy?$AA?3?$AA?3?$AAR?$AAe?$AAc?$AAu?$AAr?$AAs@ ; `string'
PUBLIC	??_C@_1DO@EIGOLNAA@?$AAl?$AAp?$AAs?$AAz?$AAK?$AAe?$AAy?$AA?5?$AA?$CB?$AA?$DN?$AA?5?$AA0?$AA?5?$AA?$CG?$AA?$CG@ ; `string'
PUBLIC	??_C@_1OC@IGDLHBDL@?$AAC?$AA?3?$AA?2?$AAP?$AAr?$AAo?$AAg?$AAr?$AAa?$AAm?$AA?5?$AAF?$AAi?$AAl?$AAe@ ; `string'
PUBLIC	??_C@_1BG@MMFPEKL@?$AAs?$AAz?$AAK?$AAe?$AAy?$AA?5?$AA?$CB?$AA?$DN?$AA?5?$AA0@ ; `string'
PUBLIC	??_C@_1BK@LDPHGFPN@?$AAs?$AAz?$AAV?$AAa?$AAl?$AAu?$AAe?$AA?5?$AA?$CB?$AA?$DN?$AA?5?$AA0@ ; `string'
PUBLIC	?rgszNeverDelete@CRegParser@ATL@@1QBQEB_WB	; ATL::CRegParser::rgszNeverDelete
PUBLIC	??_C@_1O@JFMKDNFA@?$AAp?$AA?5?$AA?$CB?$AA?$DN?$AA?5?$AA0@ ; `string'
PUBLIC	??_7CRegObject@ATL@@6B@				; ATL::CRegObject::`vftable'
PUBLIC	??_C@_1JM@PMKLGAKF@?$AAs?$AAt?$AAa?$AAt?$AAi?$AAc?$AAa?$AAl?$AAl?$AAy?$AA?5?$AAl?$AAi?$AAn?$AAk@ ; `string'
PUBLIC	??_C@_1KC@MLBIPPDL@?$AAL?$AA?$CC?$AAs?$AAt?$AAa?$AAt?$AAi?$AAc?$AAa?$AAl?$AAl?$AAy?$AA?5?$AAl?$AAi@ ; `string'
PUBLIC	??_C@_0HB@NIKGFAOE@C?3?2Program?5Files?5?$CIx86?$CJ?2Microsof@ ; `string'
PUBLIC	??_C@_1DM@JBIDINMA@?$AAF?$AAa?$AAi?$AAl?$AAe?$AAd?$AA?5?$AAt?$AAo?$AA?5?$AAL?$AAo?$AAa?$AAd?$AAL@ ; `string'
PUBLIC	??_C@_1FE@HJDAOHJE@?$AAF?$AAa?$AAi?$AAl?$AAe?$AAd?$AA?5?$AAt?$AAo?$AA?5?$AAF?$AAi?$AAn?$AAd?$AAR@ ; `string'
PUBLIC	??_C@_1FG@BBJFPKL@?$AAF?$AAa?$AAi?$AAl?$AAe?$AAd?$AA?5?$AAt?$AAo?$AA?5?$AAF?$AAi?$AAn?$AAd?$AAR@ ; `string'
PUBLIC	??_C@_1DA@KJKEAFMD@?$AAF?$AAa?$AAi?$AAl?$AAe?$AAd?$AA?5?$AAt?$AAo?$AA?5?$AAL?$AAo?$AAa?$AAd?$AAR@ ; `string'
PUBLIC	??_C@_1CK@BCPDHANH@?$AAM?$AAa?$AAp?$AA?5?$AAE?$AAn?$AAt?$AAr?$AAy?$AA?5?$AAn?$AAo?$AAt?$AA?5?$AAf@ ; `string'
PUBLIC	??_C@_1FI@KMIOGKOO@?$AAB?$AAo?$AAg?$AAu?$AAs?$AA?5?$AAv?$AAa?$AAl?$AAu?$AAe?$AA?5?$AA?$CF?$AAT?$AAc@ ; `string'
PUBLIC	?map@?1??HKeyFromString@CRegParser@ATL@@KAPEAUHKEY__@@PEA_W@Z@4QBUkeymap@?1??123@KAPEAU4@0@Z@B ; `ATL::CRegParser::HKeyFromString'::`2'::map
PUBLIC	??_C@_19NCHLBIN@?$AAH?$AAK?$AAC?$AAR@		; `string'
PUBLIC	??_C@_19JAPAIJDE@?$AAH?$AAK?$AAC?$AAU@		; `string'
PUBLIC	??_C@_19PEALEEJB@?$AAH?$AAK?$AAL?$AAM@		; `string'
PUBLIC	??_C@_17PJOJPMPB@?$AAH?$AAK?$AAU@		; `string'
PUBLIC	??_C@_19PNBHMJPL@?$AAH?$AAK?$AAP?$AAD@		; `string'
PUBLIC	??_C@_19GFFAIJHG@?$AAH?$AAK?$AAD?$AAD@		; `string'
PUBLIC	??_C@_19OFICIBHH@?$AAH?$AAK?$AAC?$AAC@		; `string'
PUBLIC	??_C@_1CE@PACHPJFI@?$AAH?$AAK?$AAE?$AAY?$AA_?$AAC?$AAL?$AAA?$AAS?$AAS?$AAE?$AAS?$AA_?$AAR?$AAO@ ; `string'
PUBLIC	??_C@_1CE@HLHNCBPM@?$AAH?$AAK?$AAE?$AAY?$AA_?$AAC?$AAU?$AAR?$AAR?$AAE?$AAN?$AAT?$AA_?$AAU?$AAS@ ; `string'
PUBLIC	??_C@_1CG@GFBEANJL@?$AAH?$AAK?$AAE?$AAY?$AA_?$AAL?$AAO?$AAC?$AAA?$AAL?$AA_?$AAM?$AAA?$AAC?$AAH@ ; `string'
PUBLIC	??_C@_1BG@BGODANIO@?$AAH?$AAK?$AAE?$AAY?$AA_?$AAU?$AAS?$AAE?$AAR?$AAS@ ; `string'
PUBLIC	??_C@_1CM@KHNNAOIC@?$AAH?$AAK?$AAE?$AAY?$AA_?$AAP?$AAE?$AAR?$AAF?$AAO?$AAR?$AAM?$AAA?$AAN?$AAC@ ; `string'
PUBLIC	??_C@_1BM@HAGMMHIA@?$AAH?$AAK?$AAE?$AAY?$AA_?$AAD?$AAY?$AAN?$AA_?$AAD?$AAA?$AAT?$AAA@ ; `string'
PUBLIC	??_C@_1CI@BBJOACGG@?$AAH?$AAK?$AAE?$AAY?$AA_?$AAC?$AAU?$AAR?$AAR?$AAE?$AAN?$AAT?$AA_?$AAC?$AAO@ ; `string'
PUBLIC	??_C@_1EI@CDDJHMMA@?$AAN?$AAe?$AAx?$AAt?$AAT?$AAo?$AAk?$AAe?$AAn?$AA?5?$AA?3?$AA?5?$AAU?$AAn?$AAe@ ; `string'
PUBLIC	??_C@_1DA@BDBPEMM@?$AA?$CF?$AAT?$AAs?$AA?5?$AAT?$AAy?$AAp?$AAe?$AA?5?$AAn?$AAo?$AAt?$AA?5?$AAs?$AAu@ ; `string'
PUBLIC	??_C@_1BA@HANLFFFG@?$AAd?$AAe?$AAf?$AAa?$AAu?$AAl?$AAt@ ; `string'
PUBLIC	??_C@_1DE@GENBDOHF@?$AAS?$AAe?$AAt?$AAt?$AAi?$AAn?$AAg?$AA?5?$AAV?$AAa?$AAl?$AAu?$AAe?$AA?5?$AA?$CF@ ; `string'
PUBLIC	??_C@_1DC@OPMJCKIB@?$AAS?$AAe?$AAt?$AAt?$AAi?$AAn?$AAg?$AA?5?$AAV?$AAa?$AAl?$AAu?$AAe?$AA?5?$AA?$CF@ ; `string'
PUBLIC	??_C@_1FK@OIDGAAMP@?$AAB?$AAi?$AAn?$AAa?$AAr?$AAy?$AA?5?$AAD?$AAa?$AAt?$AAa?$AA?5?$AAd?$AAo?$AAe@ ; `string'
PUBLIC	??_C@_1CM@LNIALBHN@?$AAS?$AAh?$AAo?$AAu?$AAl?$AAd?$AA?5?$AAn?$AAo?$AAt?$AA?5?$AAb?$AAe?$AA?5?$AAh@ ; `string'
PUBLIC	??_C@_1BK@ODFKMBGC@?$AAl?$AAp?$AAs?$AAz?$AAR?$AAe?$AAg?$AA?5?$AA?$CB?$AA?$DN?$AA?5?$AA0@ ; `string'
PUBLIC	??_C@_1BK@DGLFCBHI@?$AAp?$AAp?$AAs?$AAz?$AAR?$AAe?$AAg?$AA?5?$AA?$CB?$AA?$DN?$AA?5?$AA0@ ; `string'
PUBLIC	??_C@_1EA@NHKLICFA@?$AAH?$AAK?$AAC?$AAU?$AA?$AN?$AA?6?$AA?$HL?$AA?7?$AAS?$AAo?$AAf?$AAt?$AAw?$AAa?$AAr@ ; `string'
PUBLIC	??_C@_1BE@LJOLIMEM@?$AA?$AN?$AA?6?$AA?7?$AA?$HN?$AA?$AN?$AA?6?$AA?$HN?$AA?$AN?$AA?6@ ; `string'
PUBLIC	??_C@_1DG@KOLNJMBJ@?$AAE?$AAr?$AAr?$AAo?$AAr?$AA?5?$AAn?$AAo?$AA?5?$AAc?$AAl?$AAo?$AAs?$AAi?$AAn@ ; `string'
PUBLIC	??_C@_19IGGGDNCK@?$AA?$CF?$AAT?$AAs?$AA?6@	; `string'
PUBLIC	??_C@_1DM@JFHAPNGI@?$AAH?$AAK?$AAe?$AAy?$AAF?$AAr?$AAo?$AAm?$AAS?$AAt?$AAr?$AAi?$AAn?$AAg?$AA?5@ ; `string'
PUBLIC	??_C@_1FE@MCPBFDLN@?$AAS?$AAy?$AAn?$AAt?$AAa?$AAx?$AA?5?$AAe?$AAr?$AAr?$AAo?$AAr?$AA?0?$AA?5?$AAe@ ; `string'
PUBLIC	??_C@_1EE@EMAKHHOG@?$AAF?$AAa?$AAi?$AAl?$AAe?$AAd?$AA?5?$AAt?$AAo?$AA?5?$AAr?$AAe?$AAg?$AAi?$AAs@ ; `string'
PUBLIC	??_C@_1BM@KJDIPNJ@?$AAN?$AAu?$AAm?$AA?5?$AAE?$AAl?$AAs?$AA?5?$AA?$DN?$AA?5?$AA?$CF?$AAd?$AA?6@ ; `string'
PUBLIC	??_C@_1BM@BEOOHDFB@?$AAD?$AAe?$AAl?$AAe?$AAt?$AAi?$AAn?$AAg?$AA?5?$AA?$CF?$AAT?$AAs?$AA?6@ ; `string'
PUBLIC	??_C@_1CE@NOBELHPC@?$AAC?$AAr?$AAe?$AAa?$AAt?$AAi?$AAn?$AAg?$AA?5?$AAk?$AAe?$AAy?$AA?5?$AA?$CF?$AAT@ ; `string'
PUBLIC	??_C@_1CA@MKECKMBH@?$AAO?$AAp?$AAe?$AAn?$AAe?$AAd?$AA?5?$AAK?$AAe?$AAy?$AA?5?$AA?$CF?$AAT?$AAs?$AA?6@ ; `string'
PUBLIC	??_C@_1FK@OAJHMKAA@?$AAI?$AAg?$AAn?$AAo?$AAr?$AAi?$AAn?$AAg?$AA?5?$AAO?$AAp?$AAe?$AAn?$AA?5?$AAk@ ; `string'
PUBLIC	??_C@_1CM@OHCCCDHD@?$AAE?$AAn?$AAd?$AAi?$AAn?$AAg?$AA?5?$AAR?$AAe?$AAc?$AAo?$AAv?$AAe?$AAr?$AAy@ ; `string'
PUBLIC	??_C@_1FA@ECAJCMBE@?$AAD?$AAe?$AAl?$AAe?$AAt?$AAi?$AAn?$AAg?$AA?5?$AAn?$AAo?$AAn?$AA?9?$AAe?$AAm@ ; `string'
PUBLIC	??_C@_1CE@OGJGDPFE@?$AAD?$AAe?$AAl?$AAe?$AAt?$AAi?$AAn?$AAg?$AA?5?$AAK?$AAe?$AAy?$AA?5?$AA?$CF?$AAT@ ; `string'
PUBLIC	??_C@_1DC@HEJCCJC@?$AA0?$AA?5?$AA?$CB?$AA?$DN?$AA?5?$AAp?$AAM?$AAa?$AAp?$AAE?$AAn?$AAt?$AAr?$AAi?$AAe@ ; `string'
PUBLIC	??_C@_1O@MNLDABAF@?$AAM?$AAo?$AAd?$AAu?$AAl?$AAe@ ; `string'
PUBLIC	??_C@_1BG@JBACFMF@?$AAM?$AAo?$AAd?$AAu?$AAl?$AAe?$AA_?$AAR?$AAa?$AAw@ ; `string'
PUBLIC	??_C@_1BC@KAILKFFG@?$AAR?$AAE?$AAG?$AAI?$AAS?$AAT?$AAR?$AAY@ ; `string'
PUBLIC	??_C@_11LOCGONAA@@				; `string'
PUBLIC	??_C@_1EC@GOCPDDCL@?$AAp?$AAb?$AAs?$AAt?$AAr?$AAP?$AAa?$AAt?$AAh?$AA?5?$AA?$CB?$AA?$DN?$AA?5?$AA0?$AA?5@ ; `string'
PUBLIC	??_C@_1CE@MNLFIKHJ@?$AAh?$AAI?$AAn?$AAs?$AAt?$AAT?$AAy?$AAp?$AAe?$AAL?$AAi?$AAb?$AA?5?$AA?$CB?$AA?$DN@ ; `string'
PUBLIC	??_C@_19ILOCMLCJ@?$AA?4?$AAt?$AAl?$AAb@		; `string'
PUBLIC	_GUID_0002e012_0000_0000_c000_000000000046
PUBLIC	??_C@_1OK@NEECLFPA@?$AA0?$AA?5?$AA?$CG?$AA?$CG?$AA?5?$AAL?$AA?$CC?$AAU?$AAs?$AAe?$AA?5?$AAO?$AAB?$AAJ?$AAE@ ; `string'
PUBLIC	??_C@_1CG@IDMIONOG@?$AAp?$AAE?$AAn?$AAt?$AAr?$AAy?$AA?9?$AA?$DO?$AAi?$AAT?$AAy?$AAp?$AAe?$AA?5?$AA?$DN@ ; `string'
PUBLIC	??_C@_1O@FHBGLCIO@?$AAC?$AAL?$AAS?$AAI?$AAD?$AA?2@ ; `string'
PUBLIC	??_C@_1CK@IFBKBFAA@?$AA?2?$AAR?$AAe?$AAq?$AAu?$AAi?$AAr?$AAe?$AAd?$AA?5?$AAC?$AAa?$AAt?$AAe?$AAg@ ; `string'
PUBLIC	??_C@_1DA@BIHALFED@?$AA?2?$AAI?$AAm?$AAp?$AAl?$AAe?$AAm?$AAe?$AAn?$AAt?$AAe?$AAd?$AA?5?$AAC?$AAa@ ; `string'
PUBLIC	??_C@_1BK@EDKOLFBJ@?$AAO?$AAL?$AAE?$AAA?$AAU?$AAT?$AA3?$AA2?$AA?4?$AAD?$AAL?$AAL@ ; `string'
PUBLIC	??_C@_0BJ@CNLFOMHB@UnRegisterTypeLibForUser@	; `string'
PUBLIC	??_C@_0BH@LBOMMKPJ@RegisterTypeLibForUser@	; `string'
PUBLIC	??_C@_1CA@GAOMIJFK@?$AAp?$AAC?$AAo?$AAm?$AAM?$AAo?$AAd?$AAu?$AAl?$AAe?$AA?5?$AA?$CB?$AA?$DN?$AA?5?$AA0@ ; `string'
PUBLIC	??_C@_1EA@JIHAIGJA@?$AAp?$AAC?$AAo?$AAm?$AAM?$AAo?$AAd?$AAu?$AAl?$AAe?$AA?9?$AA?$DO?$AAm?$AA_?$AAh@ ; `string'
PUBLIC	??_C@_1IO@OONIPMJC@?$AAE?$AAR?$AAR?$AAO?$AAR?$AA?5?$AA?3?$AA?5?$AAU?$AAn?$AAa?$AAb?$AAl?$AAe?$AA?5@ ; `string'
PUBLIC	_GUID_b196b284_bab4_101a_b69c_00aa00341d07
PUBLIC	??_C@_1IO@BDEIDBOP@?$AAE?$AAR?$AAR?$AAO?$AAR?$AA?5?$AA?3?$AA?5?$AAU?$AAn?$AAa?$AAb?$AAl?$AAe?$AA?5@ ; `string'
PUBLIC	??_C@_1BG@PEGMCOIG@?$AAp?$AAT?$AAh?$AAi?$AAs?$AA?5?$AA?$CB?$AA?$DN?$AA?5?$AA0@ ; `string'
PUBLIC	??_C@_1BK@ENABKMAI@?$AAp?$AAE?$AAn?$AAt?$AAr?$AAi?$AAe?$AAs?$AA?$CB?$AA?$DN?$AA?5?$AA0@ ; `string'
PUBLIC	??_C@_1GE@KALDMMBC@?$AAp?$AAE?$AAn?$AAt?$AAr?$AAi?$AAe?$AAs?$AA?9?$AA?$DO?$AAp?$AAF?$AAu?$AAn?$AAc@ ; `string'
PUBLIC	??_C@_1BA@JJDNGNLN@?$AA?$CB?$AAb?$AAB?$AAl?$AAi?$AAn?$AAd@ ; `string'
PUBLIC	??_C@_1DG@BEGLAIHK@?$AAp?$AAD?$AAa?$AAt?$AAa?$AA?5?$AA?$CB?$AA?$DN?$AA?5?$AA0?$AA?5?$AA?$CG?$AA?$CG?$AA?5?$AAp@ ; `string'
PUBLIC	??_C@_1JC@NCPNLOIP@?$AAE?$AAR?$AAR?$AAO?$AAR?$AA?5?$AA?3?$AA?5?$AAU?$AAn?$AAa?$AAb?$AAl?$AAe?$AA?5@ ; `string'
PUBLIC	??_C@_1JK@PCFOBMDH@?$AAE?$AAR?$AAR?$AAO?$AAR?$AA?5?$AA?3?$AA?5?$AAU?$AAn?$AAa?$AAb?$AAl?$AAe?$AA?5@ ; `string'
PUBLIC	??_C@_1IG@OPJAFKJH@?$AAE?$AAR?$AAR?$AAO?$AAR?$AA?5?$AA?3?$AA?5?$AAU?$AAn?$AAa?$AAb?$AAl?$AAe?$AA?5@ ; `string'
PUBLIC	??_C@_1IC@DIIBMAJJ@?$AAE?$AAR?$AAR?$AAO?$AAR?$AA?5?$AA?3?$AA?5?$AAU?$AAn?$AAa?$AAb?$AAl?$AAe?$AA?5@ ; `string'
PUBLIC	?_Module@@3VCComModule@ATL@@A			; _Module
PUBLIC	??_C@_1FA@IGOCHCBG@?$AAC?$AA?3?$AA?2?$AAD?$AAe?$AAv?$AAe?$AAl?$AAo?$AAp?$AA?2?$AAO?$AAP?$AAO?$AAS@ ; `string'
PUBLIC	??_C@_1BO@IINBGKAE@?$AAp?$AAp?$AAv?$AAO?$AAb?$AAj?$AAe?$AAc?$AAt?$AA?5?$AA?$CB?$AA?$DN?$AA?5?$AA0@ ; `string'
PUBLIC	??_C@_1BK@MDGGGAPK@?$AAm?$AA_?$AAd?$AAw?$AAR?$AAe?$AAf?$AA?5?$AA?$DN?$AA?$DN?$AA?5?$AA0@ ; `string'
PUBLIC	??_C@_1BO@CFNLNIPO@?$AAm?$AA_?$AAd?$AAw?$AAR?$AAe?$AAf?$AA?5?$AA?$CB?$AA?$DN?$AA?5?$AA?9?$AA1?$AAL@ ; `string'
PUBLIC	??_C@_1IG@BMPHLDAM@?$AA0?$AA?5?$AA?$CG?$AA?$CG?$AA?5?$AAL?$AA?$CC?$AAR?$AAe?$AAl?$AAe?$AAa?$AAs?$AAe?$AA?5@ ; `string'
PUBLIC	??_7CComClassFactory@ATL@@6B@			; ATL::CComClassFactory::`vftable'
PUBLIC	??_C@_1HC@JLHBDINH@?$AA_?$AAG?$AAe?$AAt?$AAE?$AAn?$AAt?$AAr?$AAi?$AAe?$AAs?$AA?$CI?$AA?$CJ?$AA?$FL?$AA0@ ; `string'
PUBLIC	?_entries@?1??_GetEntries@CComClassFactory@ATL@@SAPEBU_ATL_INTMAP_ENTRY@3@XZ@4QBU43@B ; `ATL::CComClassFactory::_GetEntries'::`2'::_entries
PUBLIC	_GUID_00000001_0000_0000_c000_000000000046
PUBLIC	??_C@_1CC@KFPLEHE@?$AAC?$AAC?$AAo?$AAm?$AAC?$AAl?$AAa?$AAs?$AAs?$AAF?$AAa?$AAc?$AAt?$AAo?$AAr@ ; `string'
PUBLIC	??_C@_1DC@ENLDIEGP@?$AAm?$AA_?$AAp?$AAf?$AAn?$AAC?$AAr?$AAe?$AAa?$AAt?$AAe?$AAI?$AAn?$AAs?$AAt@ ; `string'
PUBLIC	??_C@_0CI@CCPHDHJN@C?3?2Develop?2OPOS?9CCO?2Common?2ATL?2@ ; `string'
PUBLIC	??_C@_1KO@PPNHIIND@?$AAC?$AAC?$AAo?$AAm?$AAC?$AAl?$AAa?$AAs?$AAs?$AAF?$AAa?$AAc?$AAt?$AAo?$AAr@ ; `string'
PUBLIC	??_C@_1BI@MCKDPFMC@?$AAp?$AAp?$AAI?$AAn?$AAf?$AAo?$AA?5?$AA?$CB?$AA?$DN?$AA?5?$AA0@ ; `string'
PUBLIC	?s_Claim@?7??GetIDsOfNames@CComTypeInfoHolder@ATL@@QEAAJAEBU_GUID@@PEAPEA_WIKPEAJ@Z@4PA_WA ; `ATL::CComTypeInfoHolder::GetIDsOfNames'::`8'::s_Claim
PUBLIC	?s_Release@?7??GetIDsOfNames@CComTypeInfoHolder@ATL@@QEAAJAEBU_GUID@@PEAPEA_WIKPEAJ@Z@4PA_WA ; `ATL::CComTypeInfoHolder::GetIDsOfNames'::`8'::s_Release
PUBLIC	??_C@_1BA@CAHHGEAC@?$AAd?$AAw?$AA?5?$AA?$CB?$AA?$DN?$AA?5?$AA0@ ; `string'
PUBLIC	??_C@_1DM@FHENBGPF@?$AAm?$AA_?$AAp?$AAl?$AAi?$AAb?$AAi?$AAd?$AA?5?$AA?$CB?$AA?$DN?$AA?5?$AA0?$AA?5?$AA?$CG@ ; `string'
PUBLIC	??_C@_1IM@JHDEBJKA@?$AAE?$AAR?$AAR?$AAO?$AAR?$AA?5?$AA?3?$AA?5?$AAU?$AAn?$AAa?$AAb?$AAl?$AAe?$AA?5@ ; `string'
PUBLIC	??_C@_0DP@CJHCKAIL@Module?5LIBID?5not?5initialized?4?5S@ ; `string'
PUBLIC	??_C@_1NK@EGGIGGEE@?$AA?$CB?$AAI?$AAn?$AAl?$AAi?$AAn?$AAe?$AAI?$AAs?$AAE?$AAq?$AAu?$AAa?$AAl?$AAG@ ; `string'
PUBLIC	??_C@_1MK@MBBPECFK@?$AAW?$AAa?$AAr?$AAn?$AAi?$AAn?$AAg?$AA?5?$AA?3?$AA?5?$AAC?$AAC?$AAo?$AAm?$AAT@ ; `string'
PUBLIC	??_C@_1HK@IMBOLHFI@?$AA?7?$AAS?$AAe?$AAe?$AA?5?$AAI?$AAD?$AAi?$AAs?$AAp?$AAa?$AAt?$AAc?$AAh?$AAI@ ; `string'
PUBLIC	??_C@_1GM@JMFGIKJN@?$AAE?$AAR?$AAR?$AAO?$AAR?$AA?5?$AA?3?$AA?5?$AAU?$AAn?$AAa?$AAb?$AAl?$AAe?$AA?5@ ; `string'
PUBLIC	??_C@_1GI@KFOMLMHI@?$AA?7?$AAV?$AAe?$AAr?$AAi?$AAf?$AAy?$AA?5?$AAT?$AAy?$AAp?$AAe?$AAl?$AAi?$AAb@ ; `string'
PUBLIC	??_C@_1KC@EPBNKDJD@?$AA?7?$AAI?$AAD?$AAi?$AAs?$AAp?$AAa?$AAt?$AAc?$AAh?$AAI?$AAm?$AAp?$AAl?$AA?0@ ; `string'
PUBLIC	??_C@_1CE@GFEBMKPP@?$AAp?$AAp?$AAF?$AAi?$AAn?$AAd?$AA?5?$AA?$CG?$AA?$CG?$AA?5?$AA?$CK?$AAp?$AAp?$AAF?$AAi@ ; `string'
PUBLIC	??_C@_1FI@CDNFCAGD@?$AAd?$AAw?$AAC?$AAo?$AAo?$AAk?$AAi?$AAe?$AA?5?$AA?$CB?$AA?$DN?$AA?5?$AA0?$AA?5?$AA?$CG@ ; `string'
PUBLIC	??_C@_1EA@JHMKKLFC@?$AAn?$AAI?$AAn?$AAd?$AAe?$AAx?$AA?5?$AA?$DO?$AA?$DN?$AA?5?$AA0?$AA?5?$AA?$CG?$AA?$CG?$AA?5@ ; `string'
PUBLIC	??_C@_1EO@PKGIEOJK@?$AAi?$AAd?$AAx?$AA?5?$AA?$DM?$AA?5?$AAd?$AAw?$AAC?$AAo?$AAo?$AAk?$AAi?$AAe?$AA?5@ ; `string'
PUBLIC	_GUID_b196b287_bab4_101a_b69c_00aa00341d07
PUBLIC	_GUID_b196b285_bab4_101a_b69c_00aa00341d07
PUBLIC	??_C@_1BE@FKGJCHLP@?$AAp?$AAM?$AAa?$AAp?$AA?5?$AA?$CB?$AA?$DN?$AA?5?$AA0@ ; `string'
PUBLIC	??_C@_1GG@DILCHCCF@?$AAF?$AAa?$AAi?$AAl?$AAe?$AAd?$AA?5?$AAt?$AAo?$AA?5?$AAg?$AAe?$AAt?$AA?5?$AAa@ ; `string'
PUBLIC	??_C@_1DK@CIMELFNK@?$AAI?$AAn?$AAv?$AAo?$AAk?$AAe?$AAd?$AA?5?$AAf?$AAa?$AAi?$AAl?$AAe?$AAd?$AA?5@ ; `string'
PUBLIC	_GUID_a6bc3ac0_dbaa_11ce_9de3_00aa004bb851
PUBLIC	_GUID_0000010c_0000_0000_c000_000000000046
PUBLIC	??_C@_1OA@EJAAKNNE@?$AAC?$AA?3?$AA?2?$AAP?$AAr?$AAo?$AAg?$AAr?$AAa?$AAm?$AA?5?$AAF?$AAi?$AAl?$AAe@ ; `string'
PUBLIC	?rcDefault@CWindow@ATL@@2UtagRECT@@A		; ATL::CWindow::rcDefault
PUBLIC	??_C@_1CG@OFEMDDJL@?$AA?3?$AA?3?$AAI?$AAs?$AAW?$AAi?$AAn?$AAd?$AAo?$AAw?$AA?$CI?$AAm?$AA_?$AAh?$AAW@ ; `string'
PUBLIC	_GUID_00000114_0000_0000_c000_000000000046
PUBLIC	_GUID_922eada0_3424_11cf_b670_00aa004cd6d8
PUBLIC	_GUID_9c2cad80_3424_11cf_b670_00aa004cd6d8
PUBLIC	_GUID_00000119_0000_0000_c000_000000000046
PUBLIC	_GUID_b196b289_bab4_101a_b69c_00aa00341d07
PUBLIC	??_C@_1DK@DAANONID@?$AAI?$AAn?$AAv?$AAa?$AAl?$AAi?$AAd?$AA?5?$AAm?$AAe?$AAs?$AAs?$AAa?$AAg?$AAe@ ; `string'
PUBLIC	_GUID_00000117_0000_0000_c000_000000000046
PUBLIC	_GUID_0000010e_0000_0000_c000_000000000046
PUBLIC	_GUID_b196b288_bab4_101a_b69c_00aa00341d07
PUBLIC	_GUID_00000113_0000_0000_c000_000000000046
PUBLIC	_GUID_1c2056cc_5ef4_101b_8bc8_00aa003e3b29
PUBLIC	_GUID_00000112_0000_0000_c000_000000000046
PUBLIC	_GUID_3af24292_0c96_11ce_a0cf_00aa00600ab8
PUBLIC	_GUID_00000127_0000_0000_c000_000000000046
PUBLIC	_GUID_0000010d_0000_0000_c000_000000000046
PUBLIC	??_C@_1O@GBFKGNEO@?$AAA?$AAT?$AAL?$AA?3?$AA?$CF?$AAp@ ; `string'
PUBLIC	??_C@_19GCAABOFN@?$AAb?$AAR?$AAe?$AAt@		; `string'
PUBLIC	??_C@_1BA@PICGEGJB@?$AAD?$AAI?$AAS?$AAP?$AAL?$AAA?$AAY@ ; `string'
PUBLIC	??_C@_1BO@EKDDFOBL@?$AAh?$AAD?$AAC?$AAS?$AAc?$AAr?$AAe?$AAe?$AAn?$AA?5?$AA?$CB?$AA?$DN?$AA?5?$AA0@ ; `string'
PUBLIC	_GUID_9bfbbc02_eff1_101a_84ed_00aa00341d07
PUBLIC	??_C@_0HA@DOAAAKDA@C?3?2Program?5Files?5?$CIx86?$CJ?2Microsof@ ; `string'
PUBLIC	??_C@_1OA@NGGLHGHC@?$AAC?$AA?3?$AA?2?$AAP?$AAr?$AAo?$AAg?$AAr?$AAa?$AAm?$AA?5?$AAF?$AAi?$AAl?$AAe@ ; `string'
PUBLIC	??_C@_1IC@FBPLOGNL@?$AA?$CI?$AA?$CI?$AA?$CI?$AAH?$AAR?$AAE?$AAS?$AAU?$AAL?$AAT?$AA?$CJ?$AA?$CI?$AAh?$AAR?$AAe@ ; `string'
PUBLIC	??_C@_1CE@EIEAFJJI@?$AAv?$AAa?$AAr?$AA?4?$AAv?$AAt?$AA?5?$AA?$DN?$AA?$DN?$AA?5?$AAV?$AAT?$AA_?$AAB?$AAO@ ; `string'
PUBLIC	??_C@_1BO@NKNHJKPB@?$AAp?$AAp?$AAU?$AAn?$AAk?$AAS?$AAi?$AAt?$AAe?$AA?5?$AA?$CB?$AA?$DN?$AA?5?$AA0@ ; `string'
PUBLIC	_GUID_55980ba0_35aa_11cf_b671_00aa004cd6d8
PUBLIC	??_C@_1BK@IELOKEDE@?$AAp?$AAQ?$AAA?$AAC?$AAo?$AAn?$AAt?$AA?5?$AA?$CB?$AA?$DN?$AA?5?$AA0@ ; `string'
PUBLIC	??_C@_1BK@EDCEEEEO@?$AAp?$AAQ?$AAA?$AAC?$AAt?$AAr?$AAl?$AA?5?$AA?$CB?$AA?$DN?$AA?5?$AA0@ ; `string'
PUBLIC	??_C@_1DM@NOHFMFHB@?$AAS?$AAe?$AAt?$AAt?$AAi?$AAn?$AAg?$AA?5?$AAu?$AAp?$AA?5?$AAI?$AAO?$AAl?$AAe@ ; `string'
PUBLIC	??_C@_1DE@OCCEGLFH@?$AAS?$AAe?$AAt?$AAt?$AAi?$AAn?$AAg?$AA?5?$AAu?$AAp?$AA?5?$AAP?$AAr?$AAo?$AAp@ ; `string'
PUBLIC	??_C@_1FA@GGGGDGB@?$AAS?$AAe?$AAt?$AAt?$AAi?$AAn?$AAg?$AA?5?$AAu?$AAp?$AA?5?$AAD?$AAe?$AAf?$AAa@ ; `string'
PUBLIC	_GUID_b196b28b_bab4_101a_b69c_00aa00341d07
PUBLIC	??_C@_1BE@MEPLLFBA@?$AAp?$AAU?$AAn?$AAk?$AA?5?$AA?$CB?$AA?$DN?$AA?5?$AA0@ ; `string'
PUBLIC	??_C@_1BE@PDPDNEIJ@?$AAp?$AAI?$AAP?$AAO?$AA?5?$AA?$CB?$AA?$DN?$AA?5?$AA0@ ; `string'
PUBLIC	??_C@_1CA@IIDAJDHP@?$AAm?$AA_?$AAs?$AAp?$AAI?$AAn?$AAP?$AAl?$AAa?$AAc?$AAe?$AAS?$AAi?$AAt?$AAe@ ; `string'
PUBLIC	??_C@_1O@MACBBPAK@?$AAh?$AA?5?$AA?$CB?$AA?$DN?$AA?5?$AA0@ ; `string'
PUBLIC	??_C@_1BM@HHHJIMDE@?$AAh?$AA?5?$AA?$DN?$AA?$DN?$AA?5?$AAm?$AA_?$AAh?$AAW?$AAn?$AAd?$AAC?$AAD@ ; `string'
PUBLIC	??_C@_1FA@MLHHLKCI@?$AAp?$AAC?$AAl?$AAi?$AAe?$AAn?$AAt?$AAS?$AAi?$AAt?$AAe?$AA?5?$AA?$DN?$AA?$DN?$AA?5@ ; `string'
PUBLIC	??_C@_1BK@CEDNNLJH@?$AAp?$AAp?$AAC?$AAl?$AAi?$AAe?$AAn?$AAt?$AAS?$AAi?$AAt?$AAe@ ; `string'
PUBLIC	??_C@_1CE@OHCDIKPM@?$AA?$CB?$AAm?$AA_?$AAb?$AAI?$AAn?$AAP?$AAl?$AAa?$AAc?$AAe?$AAA?$AAc?$AAt?$AAi@ ; `string'
PUBLIC	??_C@_1CG@KJDDPODI@?$AAD?$AAe?$AAs?$AAt?$AAr?$AAo?$AAy?$AAi?$AAn?$AAg?$AA?5?$AAW?$AAi?$AAn?$AAd@ ; `string'
PUBLIC	??_C@_1GK@PEJLBIEI@?$AAD?$AAr?$AAa?$AAw?$AA?5?$AAd?$AAw?$AAD?$AAr?$AAa?$AAw?$AAA?$AAs?$AAp?$AAe@ ; `string'
PUBLIC	??_C@_1CC@KIMLOMB@?$AA?7?$AAp?$AAr?$AAc?$AAB?$AAo?$AAu?$AAn?$AAd?$AAs?$AA?$DN?$AAN?$AAU?$AAL?$AAL@ ; `string'
PUBLIC	??_C@_1DA@MIJFAJLJ@?$AA?7?$AAp?$AAr?$AAc?$AAB?$AAo?$AAu?$AAn?$AAd?$AAs?$AA?$DN?$AA?$CF?$AAd?$AA?0?$AA?$CF@ ; `string'
PUBLIC	??_C@_1CE@LIAGMDDA@?$AA?7?$AAp?$AAr?$AAc?$AAW?$AAB?$AAo?$AAu?$AAn?$AAd?$AAs?$AA?$DN?$AAN?$AAU?$AAL@ ; `string'
PUBLIC	??_C@_1DC@EMEJOIFB@?$AA?7?$AAp?$AAr?$AAc?$AAW?$AAB?$AAo?$AAu?$AAn?$AAd?$AAs?$AA?$DN?$AA?$CF?$AAd?$AA?0@ ; `string'
PUBLIC	??_C@_1BK@POAAPOBL@?$AAF?$AAo?$AAr?$AAm?$AAa?$AAt?$AA?5?$AA?$DN?$AA?5?$AA?$CF?$AAx?$AA?6@ ; `string'
PUBLIC	??_C@_1BI@LHCJEHBH@?$AAT?$AAY?$AAM?$AAE?$AAD?$AA?5?$AA?$DN?$AA?5?$AA?$CF?$AAx?$AA?6@ ; `string'
PUBLIC	?_tih@?$IDispatchImpl@UIOPOSIndividualRecognition@@$1?IID_IOPOSIndividualRecognition@@3U_GUID@@B$1?LIBID_OposIndividualRecognition_CCO@@3U3@B$00$0A@VCComTypeInfoHolder@ATL@@@ATL@@1VCComTypeInfoHolder@2@A ; ATL::IDispatchImpl<IOPOSIndividualRecognition,&IID_IOPOSIndividualRecognition,&LIBID_OposIndividualRecognition_CCO,1,0,ATL::CComTypeInfoHolder>::_tih
PUBLIC	?pConnMap@?$IConnectionPointContainerImpl@VCOPOSIndividualRecognition@@@ATL@@0PEBU_ATL_CONNMAP_ENTRY@2@EB ; ATL::IConnectionPointContainerImpl<COPOSIndividualRecognition>::pConnMap
PUBLIC	?_tih@?$IProvideClassInfo2Impl@$1?CLSID_OPOSIndividualRecognition@@3U_GUID@@B$1?DIID__IOPOSIndividualRecognitionEvents@@3U2@B$1?LIBID_OposIndividualRecognition_CCO@@3U2@B$00$0A@VCComTypeInfoHolder@ATL@@@ATL@@1VCComTypeInfoHolder@2@A ; ATL::IProvideClassInfo2Impl<&CLSID_OPOSIndividualRecognition,&DIID__IOPOSIndividualRecognitionEvents,&LIBID_OposIndividualRecognition_CCO,1,0,ATL::CComTypeInfoHolder>::_tih
PUBLIC	??_C@_1IO@KPMNBAAB@?$AAC?$AA?3?$AA?2?$AAD?$AAe?$AAv?$AAe?$AAl?$AAo?$AAp?$AA?2?$AAO?$AAP?$AAO?$AAS@ ; `string'
PUBLIC	?_entries@?1??_GetEntries@COPOSIndividualRecognition@@SAPEBU_ATL_INTMAP_ENTRY@ATL@@XZ@4QBU34@B ; `COPOSIndividualRecognition::_GetEntries'::`2'::_entries
PUBLIC	_GUID_cf51ed10_62fe_11cf_bf86_00a0c9034836
PUBLIC	_GUID_0000010a_0000_0000_c000_000000000046
PUBLIC	_GUID_b196b283_bab4_101a_b69c_00aa00341d07
PUBLIC	_GUID_cb5bdc81_93c1_11cf_8f20_00805f2cd064
PUBLIC	??_C@_1DG@NAGJICHI@?$AAC?$AAO?$AAP?$AAO?$AAS?$AAI?$AAn?$AAd?$AAi?$AAv?$AAi?$AAd?$AAu?$AAa?$AAl@ ; `string'
PUBLIC	?pPropMap@?1??GetPropertyMap@COPOSIndividualRecognition@@SAPEBUATL_PROPMAP_ENTRY@ATL@@XZ@4QBU34@B ; `COPOSIndividualRecognition::GetPropertyMap'::`2'::pPropMap
PUBLIC	??_C@_17DGDADEHL@?$AA_?$AAc?$AAx@		; `string'
PUBLIC	??_C@_17IOIMFDBO@?$AA_?$AAc?$AAy@		; `string'
PUBLIC	?_entries@?1??GetConnMap@COPOSIndividualRecognition@@SAPEBU_ATL_CONNMAP_ENTRY@ATL@@PEAH@Z@4QBU34@B ; `COPOSIndividualRecognition::GetConnMap'::`2'::_entries
PUBLIC	?$TSS0@?1??GetConnMap@COPOSIndividualRecognition@@SAPEBU_ATL_CONNMAP_ENTRY@ATL@@PEAH@Z@4HA ; `COPOSIndividualRecognition::GetConnMap'::`2'::$TSS0
PUBLIC	??_C@_0EH@LHGEHFF@C?3?2Develop?2OPOS?9CCO?2zIndividual@ ; `string'
PUBLIC	??_C@_1DK@MMJEMBBM@?$AA?$CL?$AAD?$AAa?$AAt?$AAa?$AAE?$AAv?$AAe?$AAn?$AAt?$AA?3?$AA?5?$AAS?$AAt?$AAa@ ; `string'
PUBLIC	??_C@_1BG@FJLFGLCC@?$AA?9?$AAD?$AAa?$AAt?$AAa?$AAE?$AAv?$AAe?$AAn?$AAt@ ; `string'
PUBLIC	??_C@_1GA@DMLHJIOB@?$AA?$CL?$AAD?$AAi?$AAr?$AAe?$AAc?$AAt?$AAI?$AAO?$AAE?$AAv?$AAe?$AAn?$AAt?$AA?3@ ; `string'
PUBLIC	??_C@_1BI@KGBJECC@?$AA?5?$AA?5?$AA?5?$AA?5?$AAS?$AAt?$AAr?$AAi?$AAn?$AAg?$AA?4@ ; `string'
PUBLIC	??_C@_1GC@IKMABJEN@?$AA?9?$AAD?$AAi?$AAr?$AAe?$AAc?$AAt?$AAI?$AAO?$AAE?$AAv?$AAe?$AAn?$AAt?$AA?3@ ; `string'
PUBLIC	??_C@_1DO@FFEJMENC@?$AA?9?$AAD?$AAi?$AAr?$AAe?$AAc?$AAt?$AAI?$AAO?$AAE?$AAv?$AAe?$AAn?$AAt?$AA?3@ ; `string'
PUBLIC	??_C@_1HG@FBPJDKIH@?$AA?$CL?$AAE?$AAr?$AAr?$AAo?$AAr?$AAE?$AAv?$AAe?$AAn?$AAt?$AA?3?$AA?5?$AAR?$AAC@ ; `string'
PUBLIC	??_C@_1DC@PMEACJIH@?$AA?9?$AAE?$AAr?$AAr?$AAo?$AAr?$AAE?$AAv?$AAe?$AAn?$AAt?$AA?3?$AA?5?$AAR?$AAe@ ; `string'
PUBLIC	??_C@_1DI@OMBDAFMJ@?$AA?$CL?$AAS?$AAt?$AAa?$AAt?$AAu?$AAs?$AAU?$AAp?$AAd?$AAa?$AAt?$AAe?$AAE?$AAv@ ; `string'
PUBLIC	??_C@_1CG@NFFONGGK@?$AA?9?$AAS?$AAt?$AAa?$AAt?$AAu?$AAs?$AAU?$AAp?$AAd?$AAa?$AAt?$AAe?$AAE?$AAv@ ; `string'
PUBLIC	??_C@_1CG@BBHLCHLH@?$AA?$CL?$AAD?$AAo?$AAE?$AAv?$AAe?$AAn?$AAt?$AA?3?$AA?5?$AAM?$AAs?$AAg?$AA?5?$AA0@ ; `string'
PUBLIC	??_C@_1EO@NLBACKII@?$AA?$CK?$AAD?$AAo?$AAE?$AAv?$AAe?$AAn?$AAt?$AA?3?$AA?5?$AAP?$AAo?$AAs?$AAt?$AAi@ ; `string'
PUBLIC	??_C@_1CG@IKKLCHHJ@?$AA?9?$AAD?$AAo?$AAE?$AAv?$AAe?$AAn?$AAt?$AA?3?$AA?5?$AAM?$AAs?$AAg?$AA?5?$AA0@ ; `string'
PUBLIC	??_C@_1BC@MNKGOHDN@?$AAp?$AAp?$AAv?$AA?5?$AA?$CB?$AA?$DN?$AA?5?$AA0@ ; `string'
PUBLIC	??_7?$CComObjectCached@VCComClassFactory@ATL@@@ATL@@6B@ ; ATL::CComObjectCached<ATL::CComClassFactory>::`vftable'
PUBLIC	??_C@_1CO@NKNAIIAP@?$AA?$CK?$AAU?$AAn?$AAa?$AAd?$AAv?$AAi?$AAs?$AAe?$AA?3?$AA?5?$AAC?$AAo?$AAo?$AAk@ ; `string'
PUBLIC	??_C@_1EA@IMKHEMDJ@?$AA?$CK?$AAA?$AAd?$AAv?$AAi?$AAs?$AAe?$AA?3?$AA?5?$AAS?$AAi?$AAn?$AAk?$AA?5?$AA0@ ; `string'
PUBLIC	??_C@_1CE@PGFMOFKI@?$AAS?$AAt?$AAa?$AAt?$AAu?$AAs?$AAU?$AAp?$AAd?$AAa?$AAt?$AAe?$AAE?$AAv?$AAe@ ; `string'
PUBLIC	??_C@_1BG@LODEBHDD@?$AAE?$AAr?$AAr?$AAo?$AAr?$AAE?$AAv?$AAe?$AAn?$AAt@ ; `string'
PUBLIC	??_C@_1BM@CBGEBBBJ@?$AAD?$AAi?$AAr?$AAe?$AAc?$AAt?$AAI?$AAO?$AAE?$AAv?$AAe?$AAn?$AAt@ ; `string'
PUBLIC	??_C@_1BE@IEBMACEM@?$AAD?$AAa?$AAt?$AAa?$AAE?$AAv?$AAe?$AAn?$AAt@ ; `string'
PUBLIC	_GUID_b196b286_bab4_101a_b69c_00aa00341d07
PUBLIC	??_C@_1FM@CLKMPFGJ@?$AAI?$AAO?$AAb?$AAj?$AAe?$AAc?$AAt?$AAS?$AAa?$AAf?$AAe?$AAt?$AAy?$AAI?$AAm@ ; `string'
PUBLIC	??_C@_1FM@DHGAMINB@?$AAI?$AAO?$AAb?$AAj?$AAe?$AAc?$AAt?$AAS?$AAa?$AAf?$AAe?$AAt?$AAy?$AAI?$AAm@ ; `string'
PUBLIC	??_C@_1DM@FNLPENOI@?$AAI?$AAD?$AAa?$AAt?$AAa?$AAO?$AAb?$AAj?$AAe?$AAc?$AAt?$AAI?$AAm?$AAp?$AAl@ ; `string'
PUBLIC	??_C@_1CE@PHHHDEOE@?$AAp?$AAp?$AAe?$AAn?$AAu?$AAm?$AAA?$AAd?$AAv?$AAi?$AAs?$AAe?$AA?5?$AA?$CB?$AA?$DN@ ; `string'
PUBLIC	??_C@_1DI@BLCCNEGF@?$AAI?$AAD?$AAa?$AAt?$AAa?$AAO?$AAb?$AAj?$AAe?$AAc?$AAt?$AAI?$AAm?$AAp?$AAl@ ; `string'
PUBLIC	??_C@_1DE@GIJAFMDC@?$AAI?$AAD?$AAa?$AAt?$AAa?$AAO?$AAb?$AAj?$AAe?$AAc?$AAt?$AAI?$AAm?$AAp?$AAl@ ; `string'
PUBLIC	??_C@_1DO@IJEOKODF@?$AAI?$AAD?$AAa?$AAt?$AAa?$AAO?$AAb?$AAj?$AAe?$AAc?$AAt?$AAI?$AAm?$AAp?$AAl@ ; `string'
PUBLIC	??_C@_1DC@EJMOFAGB@?$AAI?$AAD?$AAa?$AAt?$AAa?$AAO?$AAb?$AAj?$AAe?$AAc?$AAt?$AAI?$AAm?$AAp?$AAl@ ; `string'
PUBLIC	??_C@_1EO@CPLAMLOM@?$AAI?$AAD?$AAa?$AAt?$AAa?$AAO?$AAb?$AAj?$AAe?$AAc?$AAt?$AAI?$AAm?$AAp?$AAl@ ; `string'
PUBLIC	??_C@_1DM@BPNENJGE@?$AAI?$AAD?$AAa?$AAt?$AAa?$AAO?$AAb?$AAj?$AAe?$AAc?$AAt?$AAI?$AAm?$AAp?$AAl@ ; `string'
PUBLIC	??_C@_1DK@IIMKPHM@?$AAI?$AAD?$AAa?$AAt?$AAa?$AAO?$AAb?$AAj?$AAe?$AAc?$AAt?$AAI?$AAm?$AAp?$AAl@ ; `string'
PUBLIC	??_C@_1DE@FNDLCJKG@?$AAI?$AAD?$AAa?$AAt?$AAa?$AAO?$AAb?$AAj?$AAe?$AAc?$AAt?$AAI?$AAm?$AAp?$AAl@ ; `string'
PUBLIC	??_C@_1EM@OECHILCB@?$AAI?$AAQ?$AAu?$AAi?$AAc?$AAk?$AAA?$AAc?$AAt?$AAi?$AAv?$AAa?$AAt?$AAe?$AAI@ ; `string'
PUBLIC	??_C@_1EM@DNDGLBOK@?$AAI?$AAQ?$AAu?$AAi?$AAc?$AAk?$AAA?$AAc?$AAt?$AAi?$AAv?$AAa?$AAt?$AAe?$AAI@ ; `string'
PUBLIC	??_C@_1EG@OOLJNHOI@?$AAI?$AAQ?$AAu?$AAi?$AAc?$AAk?$AAA?$AAc?$AAt?$AAi?$AAv?$AAa?$AAt?$AAe?$AAI@ ; `string'
PUBLIC	??_C@_1EK@IMECMPEJ@?$AAI?$AAS?$AAp?$AAe?$AAc?$AAi?$AAf?$AAy?$AAP?$AAr?$AAo?$AAp?$AAe?$AAr?$AAt@ ; `string'
PUBLIC	??_C@_1EM@MKDPAIHC@?$AAI?$AAP?$AAe?$AAr?$AAs?$AAi?$AAs?$AAt?$AAS?$AAt?$AAo?$AAr?$AAa?$AAg?$AAe@ ; `string'
PUBLIC	??_C@_1EI@KGLFIEKA@?$AAI?$AAP?$AAe?$AAr?$AAs?$AAi?$AAs?$AAt?$AAS?$AAt?$AAo?$AAr?$AAa?$AAg?$AAe@ ; `string'
PUBLIC	?vszContents@?6??Save@?$IPersistStorageImpl@VCOPOSIndividualRecognition@@@ATL@@UEAAJPEAUIStorage@@H@Z@4PEB_WEB ; `ATL::IPersistStorageImpl<COPOSIndividualRecognition>::Save'::`7'::vszContents
PUBLIC	??_C@_1BC@ENICKDH@?$AAC?$AAo?$AAn?$AAt?$AAe?$AAn?$AAt?$AAs@ ; `string'
PUBLIC	??_C@_1DG@LDJFMFDF@?$AAI?$AAP?$AAe?$AAr?$AAs?$AAi?$AAs?$AAt?$AAS?$AAt?$AAo?$AAr?$AAa?$AAg?$AAe@ ; `string'
PUBLIC	??_C@_1DG@GOPCGMJM@?$AAI?$AAP?$AAe?$AAr?$AAs?$AAi?$AAs?$AAt?$AAS?$AAt?$AAo?$AAr?$AAa?$AAg?$AAe@ ; `string'
PUBLIC	??_C@_1DM@FLFDKDNG@?$AAI?$AAP?$AAe?$AAr?$AAs?$AAi?$AAs?$AAt?$AAS?$AAt?$AAo?$AAr?$AAa?$AAg?$AAe@ ; `string'
PUBLIC	??_C@_1DM@KEMDAJPD@?$AAI?$AAP?$AAe?$AAr?$AAs?$AAi?$AAs?$AAt?$AAS?$AAt?$AAo?$AAr?$AAa?$AAg?$AAe@ ; `string'
PUBLIC	??_C@_1EC@CBCJOIPD@?$AAI?$AAP?$AAe?$AAr?$AAs?$AAi?$AAs?$AAt?$AAS?$AAt?$AAo?$AAr?$AAa?$AAg?$AAe@ ; `string'
PUBLIC	??_7?$CComObject@V?$CComEnum@UIEnumConnectionPoints@@$1?_GUID_b196b285_bab4_101a_b69c_00aa00341d07@@3U__s_GUID@@BPEAUIConnectionPoint@@V?$_CopyInterface@UIConnectionPoint@@@ATL@@VCComSingleThreadModel@6@@ATL@@@ATL@@6B@ ; ATL::CComObject<ATL::CComEnum<IEnumConnectionPoints,&_GUID_b196b285_bab4_101a_b69c_00aa00341d07,IConnectionPoint *,ATL::_CopyInterface<IConnectionPoint>,ATL::CComSingleThreadModel> >::`vftable'
PUBLIC	??_C@_1FO@FOAHOGK@?$AAI?$AAO?$AAl?$AAe?$AAI?$AAn?$AAP?$AAl?$AAa?$AAc?$AAe?$AAO?$AAb?$AAj?$AAe@ ; `string'
PUBLIC	??_C@_1GE@GOJAGBD@?$AAI?$AAO?$AAl?$AAe?$AAI?$AAn?$AAP?$AAl?$AAa?$AAc?$AAe?$AAO?$AAb?$AAj?$AAe@ ; `string'
PUBLIC	??_C@_1DM@IDHMCPFB@?$AAp?$AAT?$AA?9?$AA?$DO?$AAm?$AA_?$AAp?$AAC?$AAu?$AAr?$AAr?$AAe?$AAn?$AAt?$AAM@ ; `string'
PUBLIC	??_C@_1GG@CPMHNPED@?$AAI?$AAO?$AAl?$AAe?$AAI?$AAn?$AAP?$AAl?$AAa?$AAc?$AAe?$AAO?$AAb?$AAj?$AAe@ ; `string'
PUBLIC	??_C@_1GC@NABMBGNB@?$AAI?$AAO?$AAl?$AAe?$AAI?$AAn?$AAP?$AAl?$AAa?$AAc?$AAe?$AAO?$AAb?$AAj?$AAe@ ; `string'
PUBLIC	??_C@_1FO@KFPABBGF@?$AAI?$AAO?$AAl?$AAe?$AAI?$AAn?$AAP?$AAl?$AAa?$AAc?$AAe?$AAO?$AAb?$AAj?$AAe@ ; `string'
PUBLIC	??_C@_1GI@FLFGNCEO@?$AAI?$AAO?$AAl?$AAe?$AAI?$AAn?$AAP?$AAl?$AAa?$AAc?$AAe?$AAO?$AAb?$AAj?$AAe@ ; `string'
PUBLIC	??_C@_1GM@OCHIALO@?$AAI?$AAO?$AAl?$AAe?$AAI?$AAn?$AAP?$AAl?$AAa?$AAc?$AAe?$AAO?$AAb?$AAj?$AAe@ ; `string'
PUBLIC	??_C@_1FI@POCNNILF@?$AAI?$AAO?$AAl?$AAe?$AAI?$AAn?$AAP?$AAl?$AAa?$AAc?$AAe?$AAO?$AAb?$AAj?$AAe@ ; `string'
PUBLIC	??_C@_1EK@BJGNOKFG@?$AAI?$AAV?$AAi?$AAe?$AAw?$AAO?$AAb?$AAj?$AAe?$AAc?$AAt?$AAE?$AAx?$AAI?$AAm@ ; `string'
PUBLIC	??_C@_1CC@BNJDLDIH@?$AAp?$AAE?$AAx?$AAt?$AAe?$AAn?$AAt?$AAI?$AAn?$AAf?$AAo?$AA?5?$AA?$CB?$AA?$DN?$AA?5@ ; `string'
PUBLIC	??_C@_1BI@JBIFBCLO@?$AAp?$AAs?$AAi?$AAz?$AAe?$AAl?$AA?5?$AA?$CB?$AA?$DN?$AA?5?$AA0@ ; `string'
PUBLIC	??_C@_1EC@OOPFCKPJ@?$AAI?$AAV?$AAi?$AAe?$AAw?$AAO?$AAb?$AAj?$AAe?$AAc?$AAt?$AAE?$AAx?$AAI?$AAm@ ; `string'
PUBLIC	??_C@_1CA@PALDCHIG@?$AAp?$AAH?$AAi?$AAt?$AAR?$AAe?$AAs?$AAu?$AAl?$AAt?$AA?5?$AA?$CB?$AA?$DN?$AA?5?$AA0@ ; `string'
PUBLIC	??_C@_1CA@PEBIMLJG@?$AAW?$AAr?$AAo?$AAn?$AAg?$AA?5?$AAD?$AAV?$AAA?$AAS?$AAP?$AAE?$AAC?$AAT?$AA?6@ ; `string'
PUBLIC	??_C@_1EE@LBFAGAOE@?$AAI?$AAV?$AAi?$AAe?$AAw?$AAO?$AAb?$AAj?$AAe?$AAc?$AAt?$AAE?$AAx?$AAI?$AAm@ ; `string'
PUBLIC	??_C@_1EE@ICFBLIPC@?$AAI?$AAV?$AAi?$AAe?$AAw?$AAO?$AAb?$AAj?$AAe?$AAc?$AAt?$AAE?$AAx?$AAI?$AAm@ ; `string'
PUBLIC	??_C@_1BO@EONKKIBB@?$AAp?$AAd?$AAw?$AAS?$AAt?$AAa?$AAt?$AAu?$AAs?$AA?5?$AA?$CB?$AA?$DN?$AA?5?$AA0@ ; `string'
PUBLIC	??_C@_1DG@HMMPEHJO@?$AAI?$AAV?$AAi?$AAe?$AAw?$AAO?$AAb?$AAj?$AAe?$AAc?$AAt?$AAE?$AAx?$AAI?$AAm@ ; `string'
PUBLIC	??_C@_1DM@POGPOFEN@?$AAI?$AAV?$AAi?$AAe?$AAw?$AAO?$AAb?$AAj?$AAe?$AAc?$AAt?$AAE?$AAx?$AAI?$AAm@ ; `string'
PUBLIC	??_C@_1BK@KJBKAKFM@?$AAl?$AAp?$AAs?$AAi?$AAz?$AAe?$AAl?$AA?5?$AA?$CB?$AA?$DN?$AA?5?$AA0@ ; `string'
PUBLIC	??_C@_1DM@LPCKIPFO@?$AAI?$AAV?$AAi?$AAe?$AAw?$AAO?$AAb?$AAj?$AAe?$AAc?$AAt?$AAE?$AAx?$AAI?$AAm@ ; `string'
PUBLIC	??_C@_1BO@NDBFONFF@?$AAp?$AAp?$AAA?$AAd?$AAv?$AAS?$AAi?$AAn?$AAk?$AA?5?$AA?$CB?$AA?$DN?$AA?5?$AA0@ ; `string'
PUBLIC	??_C@_1DM@EKHMFGBP@?$AAI?$AAV?$AAi?$AAe?$AAw?$AAO?$AAb?$AAj?$AAe?$AAc?$AAt?$AAE?$AAx?$AAI?$AAm@ ; `string'
PUBLIC	??_C@_1DI@BJKGFPLB@?$AAI?$AAV?$AAi?$AAe?$AAw?$AAO?$AAb?$AAj?$AAe?$AAc?$AAt?$AAE?$AAx?$AAI?$AAm@ ; `string'
PUBLIC	??_C@_1DE@PKOCJOMP@?$AAI?$AAV?$AAi?$AAe?$AAw?$AAO?$AAb?$AAj?$AAe?$AAc?$AAt?$AAE?$AAx?$AAI?$AAm@ ; `string'
PUBLIC	??_C@_1DO@OMBHOJOI@?$AAI?$AAV?$AAi?$AAe?$AAw?$AAO?$AAb?$AAj?$AAe?$AAc?$AAt?$AAE?$AAx?$AAI?$AAm@ ; `string'
PUBLIC	??_C@_1DC@EOPFDCAL@?$AAI?$AAV?$AAi?$AAe?$AAw?$AAO?$AAb?$AAj?$AAe?$AAc?$AAt?$AAE?$AAx?$AAI?$AAm@ ; `string'
PUBLIC	??_C@_1FK@MLCEAOAF@?$AAI?$AAO?$AAl?$AAe?$AAI?$AAn?$AAP?$AAl?$AAa?$AAc?$AAe?$AAA?$AAc?$AAt?$AAi@ ; `string'
PUBLIC	??_C@_1FG@NONNDFDB@?$AAI?$AAO?$AAl?$AAe?$AAI?$AAn?$AAP?$AAl?$AAa?$AAc?$AAe?$AAA?$AAc?$AAt?$AAi@ ; `string'
PUBLIC	??_C@_1GE@HBFPAJL@?$AAI?$AAO?$AAl?$AAe?$AAI?$AAn?$AAP?$AAl?$AAa?$AAc?$AAe?$AAA?$AAc?$AAt?$AAi@ ; `string'
PUBLIC	??_C@_1GI@CGHNFFAP@?$AAI?$AAO?$AAl?$AAe?$AAI?$AAn?$AAP?$AAl?$AAa?$AAc?$AAe?$AAA?$AAc?$AAt?$AAi@ ; `string'
PUBLIC	??_C@_1GG@KHCNGNGO@?$AAI?$AAO?$AAl?$AAe?$AAI?$AAn?$AAP?$AAl?$AAa?$AAc?$AAe?$AAA?$AAc?$AAt?$AAi@ ; `string'
PUBLIC	??_C@_1GE@JEOLIANC@?$AAI?$AAO?$AAl?$AAe?$AAI?$AAn?$AAP?$AAl?$AAa?$AAc?$AAe?$AAA?$AAc?$AAt?$AAi@ ; `string'
PUBLIC	??_C@_1FA@GCGKPCBJ@?$AAI?$AAO?$AAl?$AAe?$AAI?$AAn?$AAP?$AAl?$AAa?$AAc?$AAe?$AAA?$AAc?$AAt?$AAi@ ; `string'
PUBLIC	??_C@_1DO@PBDGGEPN@?$AAI?$AAO?$AAl?$AAe?$AAO?$AAb?$AAj?$AAe?$AAc?$AAt?$AAI?$AAm?$AAp?$AAl?$AA?3@ ; `string'
PUBLIC	??_C@_1DO@GENDACH@?$AAI?$AAO?$AAl?$AAe?$AAO?$AAb?$AAj?$AAe?$AAc?$AAt?$AAI?$AAm?$AAp?$AAl?$AA?3@ ; `string'
PUBLIC	??_C@_1DI@IJKKKNHF@?$AAI?$AAO?$AAl?$AAe?$AAO?$AAb?$AAj?$AAe?$AAc?$AAt?$AAI?$AAm?$AAp?$AAl?$AA?3@ ; `string'
PUBLIC	??_C@_1DE@DIPMKMJO@?$AAI?$AAO?$AAl?$AAe?$AAO?$AAb?$AAj?$AAe?$AAc?$AAt?$AAI?$AAm?$AAp?$AAl?$AA?3@ ; `string'
PUBLIC	??_C@_1DA@OJLCEIKD@?$AAI?$AAO?$AAl?$AAe?$AAO?$AAb?$AAj?$AAe?$AAc?$AAt?$AAI?$AAm?$AAp?$AAl?$AA?3@ ; `string'
PUBLIC	??_C@_1DG@IGBKGHLP@?$AAI?$AAO?$AAl?$AAe?$AAO?$AAb?$AAj?$AAe?$AAc?$AAt?$AAI?$AAm?$AAp?$AAl?$AA?3@ ; `string'
PUBLIC	??_C@_1DG@HDEMLOPO@?$AAI?$AAO?$AAl?$AAe?$AAO?$AAb?$AAj?$AAe?$AAc?$AAt?$AAI?$AAm?$AAp?$AAl?$AA?3@ ; `string'
PUBLIC	??_C@_1DK@OLKKBIEP@?$AAI?$AAO?$AAl?$AAe?$AAO?$AAb?$AAj?$AAe?$AAc?$AAt?$AAI?$AAm?$AAp?$AAl?$AA?3@ ; `string'
PUBLIC	??_C@_1EA@KFGOFNKC@?$AAI?$AAO?$AAl?$AAe?$AAO?$AAb?$AAj?$AAe?$AAc?$AAt?$AAI?$AAm?$AAp?$AAl?$AA?3@ ; `string'
PUBLIC	??_C@_1O@PBGNBMDG@?$AAp?$AAC?$AAl?$AAs?$AAi?$AAd@ ; `string'
PUBLIC	??_C@_1DI@JMCOGOPO@?$AAI?$AAO?$AAl?$AAe?$AAO?$AAb?$AAj?$AAe?$AAc?$AAt?$AAI?$AAm?$AAp?$AAl?$AA?3@ ; `string'
PUBLIC	??_C@_1DA@FNILLDED@?$AAI?$AAO?$AAl?$AAe?$AAO?$AAb?$AAj?$AAe?$AAc?$AAt?$AAI?$AAm?$AAp?$AAl?$AA?3@ ; `string'
PUBLIC	??_C@_1DG@PNMFEDJ@?$AAI?$AAO?$AAl?$AAe?$AAO?$AAb?$AAj?$AAe?$AAc?$AAt?$AAI?$AAm?$AAp?$AAl?$AA?3@ ; `string'
PUBLIC	??_C@_1BM@CEHACOFH@?$AAp?$AAp?$AAE?$AAn?$AAu?$AAm?$AAO?$AAl?$AAe?$AAV?$AAe?$AAr?$AAb@ ; `string'
PUBLIC	??_C@_1DI@MCJJDJOB@?$AAI?$AAO?$AAl?$AAe?$AAO?$AAb?$AAj?$AAe?$AAc?$AAt?$AAI?$AAm?$AAp?$AAl?$AA?3@ ; `string'
PUBLIC	??_C@_1CG@EJEJDDBA@?$AAp?$AAT?$AA?9?$AA?$DO?$AAm?$AA_?$AAs?$AAp?$AAC?$AAl?$AAi?$AAe?$AAn?$AAt?$AAS@ ; `string'
PUBLIC	??_C@_1EC@KDKDKHCO@?$AAI?$AAO?$AAl?$AAe?$AAO?$AAb?$AAj?$AAe?$AAc?$AAt?$AAI?$AAm?$AAp?$AAl?$AA?3@ ; `string'
PUBLIC	??_C@_1DK@PCFABHJP@?$AAI?$AAO?$AAl?$AAe?$AAO?$AAb?$AAj?$AAe?$AAc?$AAt?$AAI?$AAm?$AAp?$AAl?$AA?3@ ; `string'
PUBLIC	??_C@_1DG@CEIENMGG@?$AAI?$AAO?$AAl?$AAe?$AAO?$AAb?$AAj?$AAe?$AAc?$AAt?$AAI?$AAm?$AAp?$AAl?$AA?3@ ; `string'
PUBLIC	??_C@_1DG@NBNCAFCH@?$AAI?$AAO?$AAl?$AAe?$AAO?$AAb?$AAj?$AAe?$AAc?$AAt?$AAI?$AAm?$AAp?$AAl?$AA?3@ ; `string'
PUBLIC	??_C@_1CO@MLHGCMGP@?$AAI?$AAO?$AAl?$AAe?$AAO?$AAb?$AAj?$AAe?$AAc?$AAt?$AAI?$AAm?$AAp?$AAl?$AA?3@ ; `string'
PUBLIC	??_C@_1DM@ENNHEKGE@?$AAI?$AAO?$AAl?$AAe?$AAO?$AAb?$AAj?$AAe?$AAc?$AAt?$AAI?$AAm?$AAp?$AAl?$AA?3@ ; `string'
PUBLIC	??_C@_1DO@FNGOFKPG@?$AAI?$AAO?$AAl?$AAe?$AAO?$AAb?$AAj?$AAe?$AAc?$AAt?$AAI?$AAm?$AAp?$AAl?$AA?3@ ; `string'
PUBLIC	??_C@_1DO@NMABOKNE@?$AAI?$AAO?$AAl?$AAe?$AAO?$AAb?$AAj?$AAe?$AAc?$AAt?$AAI?$AAm?$AAp?$AAl?$AA?3@ ; `string'
PUBLIC	??_C@_1FE@LCIFNEAD@?$AAI?$AAO?$AAl?$AAe?$AAC?$AAo?$AAn?$AAt?$AAr?$AAo?$AAl?$AAI?$AAm?$AAp?$AAl@ ; `string'
PUBLIC	??_C@_1CC@GHJDDODE@?$AA?5?$AA?9?$AA?9?$AA?5?$AAD?$AAI?$AAS?$AAP?$AAI?$AAD?$AA?5?$AA?$DN?$AA?5?$AA?$CF?$AAd@ ; `string'
PUBLIC	??_C@_1DI@HLJHBFHB@?$AAI?$AAO?$AAl?$AAe?$AAC?$AAo?$AAn?$AAt?$AAr?$AAo?$AAl?$AAI?$AAm?$AAp?$AAl@ ; `string'
PUBLIC	??_C@_1EA@IFIKFMIO@?$AAI?$AAO?$AAl?$AAe?$AAC?$AAo?$AAn?$AAt?$AAr?$AAo?$AAl?$AAI?$AAm?$AAp?$AAl@ ; `string'
PUBLIC	??_C@_1EC@OBJBCLBJ@?$AAI?$AAP?$AAe?$AAr?$AAs?$AAi?$AAs?$AAt?$AAS?$AAt?$AAr?$AAe?$AAa?$AAm?$AAI@ ; `string'
PUBLIC	??_C@_1EI@OFMICAKH@?$AAI?$AAP?$AAe?$AAr?$AAs?$AAi?$AAs?$AAt?$AAS?$AAt?$AAr?$AAe?$AAa?$AAm?$AAI@ ; `string'
PUBLIC	??_C@_1EK@BKBPFBNN@?$AAF?$AAa?$AAi?$AAl?$AAe?$AAd?$AA?5?$AAt?$AAo?$AA?5?$AAg?$AAe?$AAt?$AA?5?$AAs@ ; `string'
PUBLIC	??_C@_1FG@PECCGIAK@?$AAR?$AAe?$AAs?$AAu?$AAl?$AAt?$AA?5?$AAo?$AAv?$AAe?$AAr?$AAf?$AAl?$AAo?$AAw@ ; `string'
PUBLIC	??_C@_1DM@INAJINEF@?$AAI?$AAP?$AAe?$AAr?$AAs?$AAi?$AAs?$AAt?$AAS?$AAt?$AAr?$AAe?$AAa?$AAm?$AAI@ ; `string'
PUBLIC	??_C@_1DM@FAGOCEOM@?$AAI?$AAP?$AAe?$AAr?$AAs?$AAi?$AAs?$AAt?$AAS?$AAt?$AAr?$AAe?$AAa?$AAm?$AAI@ ; `string'
PUBLIC	??_C@_1EC@BOABIBDM@?$AAI?$AAP?$AAe?$AAr?$AAs?$AAi?$AAs?$AAt?$AAS?$AAt?$AAr?$AAe?$AAa?$AAm?$AAI@ ; `string'
PUBLIC	??_C@_1EI@FEIMOCIK@?$AAI?$AAP?$AAe?$AAr?$AAs?$AAi?$AAs?$AAt?$AAS?$AAt?$AAr?$AAe?$AAa?$AAm?$AAI@ ; `string'
PUBLIC	??_C@_19LMDLLIGP@?$AAp?$AA?$DN?$AA?$DN?$AA0@	; `string'
PUBLIC	??_C@_19JHCPJMAL@?$AAp?$AA?$CB?$AA?$DN?$AA0@	; `string'
PUBLIC	??_C@_0HA@JEDONBAF@C?3?2Program?5Files?5?$CIx86?$CJ?2Microsof@ ; `string'
PUBLIC	??_C@_1OK@FGCLCILL@?$AAC?$AA?3?$AA?2?$AAP?$AAr?$AAo?$AAg?$AAr?$AAa?$AAm?$AA?5?$AAF?$AAi?$AAl?$AAe@ ; `string'
PUBLIC	??_C@_1BC@EMCLECFJ@?$AAm?$AA_?$AAp?$AA?5?$AA?$DN?$AA?$DN?$AA?5?$AA0@ ; `string'
PUBLIC	??_C@_1M@PPPPCDEP@?$AAA?$AAP?$AAP?$AAI?$AAD@	; `string'
PUBLIC	??_7?$CComContainedObject@VCOPOSIndividualRecognition@@@ATL@@6B?$IDispatchImpl@UIOPOSIndividualRecognition@@$1?IID_IOPOSIndividualRecognition@@3U_GUID@@B$1?LIBID_OposIndividualRecognition_CCO@@3U3@B$00$0A@VCComTypeInfoHolder@ATL@@@1@@ ; ATL::CComContainedObject<COPOSIndividualRecognition>::`vftable'
PUBLIC	??_7?$CComContainedObject@VCOPOSIndividualRecognition@@@ATL@@6BCComControlBase@1@@ ; ATL::CComContainedObject<COPOSIndividualRecognition>::`vftable'
PUBLIC	??_7?$CComContainedObject@VCOPOSIndividualRecognition@@@ATL@@6B?$CWindowImpl@VCOPOSIndividualRecognition@@VCWindow@ATL@@V?$CWinTraits@$0FGAAAAAA@$0A@@3@@1@@ ; ATL::CComContainedObject<COPOSIndividualRecognition>::`vftable'
PUBLIC	??_7?$CComContainedObject@VCOPOSIndividualRecognition@@@ATL@@6B?$IPersistStreamInitImpl@VCOPOSIndividualRecognition@@@1@@ ; ATL::CComContainedObject<COPOSIndividualRecognition>::`vftable'
PUBLIC	??_7?$CComContainedObject@VCOPOSIndividualRecognition@@@ATL@@6B?$IOleControlImpl@VCOPOSIndividualRecognition@@@1@@ ; ATL::CComContainedObject<COPOSIndividualRecognition>::`vftable'
PUBLIC	??_7?$CComContainedObject@VCOPOSIndividualRecognition@@@ATL@@6B?$IOleObjectImpl@VCOPOSIndividualRecognition@@@1@@ ; ATL::CComContainedObject<COPOSIndividualRecognition>::`vftable'
PUBLIC	??_7?$CComContainedObject@VCOPOSIndividualRecognition@@@ATL@@6B?$IOleInPlaceActiveObjectImpl@VCOPOSIndividualRecognition@@@1@@ ; ATL::CComContainedObject<COPOSIndividualRecognition>::`vftable'
PUBLIC	??_7?$CComContainedObject@VCOPOSIndividualRecognition@@@ATL@@6B?$IViewObjectExImpl@VCOPOSIndividualRecognition@@@1@@ ; ATL::CComContainedObject<COPOSIndividualRecognition>::`vftable'
PUBLIC	??_7?$CComContainedObject@VCOPOSIndividualRecognition@@@ATL@@6B?$IOleInPlaceObjectWindowlessImpl@VCOPOSIndividualRecognition@@@1@@ ; ATL::CComContainedObject<COPOSIndividualRecognition>::`vftable'
PUBLIC	??_7?$CComContainedObject@VCOPOSIndividualRecognition@@@ATL@@6B?$IConnectionPointContainerImpl@VCOPOSIndividualRecognition@@@1@@ ; ATL::CComContainedObject<COPOSIndividualRecognition>::`vftable'
PUBLIC	??_7?$CComContainedObject@VCOPOSIndividualRecognition@@@ATL@@6B?$IPersistStorageImpl@VCOPOSIndividualRecognition@@@1@@ ; ATL::CComContainedObject<COPOSIndividualRecognition>::`vftable'
PUBLIC	??_7?$CComContainedObject@VCOPOSIndividualRecognition@@@ATL@@6B?$ISpecifyPropertyPagesImpl@VCOPOSIndividualRecognition@@@1@@ ; ATL::CComContainedObject<COPOSIndividualRecognition>::`vftable'
PUBLIC	??_7?$CComContainedObject@VCOPOSIndividualRecognition@@@ATL@@6B?$IQuickActivateImpl@VCOPOSIndividualRecognition@@@1@@ ; ATL::CComContainedObject<COPOSIndividualRecognition>::`vftable'
PUBLIC	??_7?$CComContainedObject@VCOPOSIndividualRecognition@@@ATL@@6B?$IDataObjectImpl@VCOPOSIndividualRecognition@@@1@@ ; ATL::CComContainedObject<COPOSIndividualRecognition>::`vftable'
PUBLIC	??_7?$CComContainedObject@VCOPOSIndividualRecognition@@@ATL@@6B?$IProvideClassInfo2Impl@$1?CLSID_OPOSIndividualRecognition@@3U_GUID@@B$1?DIID__IOPOSIndividualRecognitionEvents@@3U2@B$1?LIBID_OposIndividualRecognition_CCO@@3U2@B$00$0A@VCComTypeInfoHolder@ATL@@@1@@ ; ATL::CComContainedObject<COPOSIndividualRecognition>::`vftable'
PUBLIC	??_7?$CComContainedObject@VCOPOSIndividualRecognition@@@ATL@@6B?$IObjectSafetyImpl@VCOPOSIndividualRecognition@@$02@1@@ ; ATL::CComContainedObject<COPOSIndividualRecognition>::`vftable'
PUBLIC	??_7?$CComContainedObject@VCOPOSIndividualRecognition@@@ATL@@6B?$IPropertyNotifySinkCP@VCOPOSIndividualRecognition@@VCComDynamicUnkArray@ATL@@@1@@ ; ATL::CComContainedObject<COPOSIndividualRecognition>::`vftable'
PUBLIC	??_7?$CComContainedObject@VCOPOSIndividualRecognition@@@ATL@@6B?$CProxy_IOPOSEvents@VCOPOSIndividualRecognition@@@@@ ; ATL::CComContainedObject<COPOSIndividualRecognition>::`vftable'
PUBLIC	??_7?$CComAggObject@VCOPOSIndividualRecognition@@@ATL@@6B@ ; ATL::CComAggObject<COPOSIndividualRecognition>::`vftable'
PUBLIC	??_7?$CComObject@VCOPOSIndividualRecognition@@@ATL@@6B?$IDispatchImpl@UIOPOSIndividualRecognition@@$1?IID_IOPOSIndividualRecognition@@3U_GUID@@B$1?LIBID_OposIndividualRecognition_CCO@@3U3@B$00$0A@VCComTypeInfoHolder@ATL@@@1@@ ; ATL::CComObject<COPOSIndividualRecognition>::`vftable'
PUBLIC	??_7?$CComObject@VCOPOSIndividualRecognition@@@ATL@@6BCComControlBase@1@@ ; ATL::CComObject<COPOSIndividualRecognition>::`vftable'
PUBLIC	??_7?$CComObject@VCOPOSIndividualRecognition@@@ATL@@6B?$CWindowImpl@VCOPOSIndividualRecognition@@VCWindow@ATL@@V?$CWinTraits@$0FGAAAAAA@$0A@@3@@1@@ ; ATL::CComObject<COPOSIndividualRecognition>::`vftable'
PUBLIC	??_7?$CComObject@VCOPOSIndividualRecognition@@@ATL@@6B?$IPersistStreamInitImpl@VCOPOSIndividualRecognition@@@1@@ ; ATL::CComObject<COPOSIndividualRecognition>::`vftable'
PUBLIC	??_7?$CComObject@VCOPOSIndividualRecognition@@@ATL@@6B?$IOleControlImpl@VCOPOSIndividualRecognition@@@1@@ ; ATL::CComObject<COPOSIndividualRecognition>::`vftable'
PUBLIC	??_7?$CComObject@VCOPOSIndividualRecognition@@@ATL@@6B?$IOleObjectImpl@VCOPOSIndividualRecognition@@@1@@ ; ATL::CComObject<COPOSIndividualRecognition>::`vftable'
PUBLIC	??_7?$CComObject@VCOPOSIndividualRecognition@@@ATL@@6B?$IOleInPlaceActiveObjectImpl@VCOPOSIndividualRecognition@@@1@@ ; ATL::CComObject<COPOSIndividualRecognition>::`vftable'
PUBLIC	??_7?$CComObject@VCOPOSIndividualRecognition@@@ATL@@6B?$IViewObjectExImpl@VCOPOSIndividualRecognition@@@1@@ ; ATL::CComObject<COPOSIndividualRecognition>::`vftable'
PUBLIC	??_7?$CComObject@VCOPOSIndividualRecognition@@@ATL@@6B?$IOleInPlaceObjectWindowlessImpl@VCOPOSIndividualRecognition@@@1@@ ; ATL::CComObject<COPOSIndividualRecognition>::`vftable'
PUBLIC	??_7?$CComObject@VCOPOSIndividualRecognition@@@ATL@@6B?$IConnectionPointContainerImpl@VCOPOSIndividualRecognition@@@1@@ ; ATL::CComObject<COPOSIndividualRecognition>::`vftable'
PUBLIC	??_7?$CComObject@VCOPOSIndividualRecognition@@@ATL@@6B?$IPersistStorageImpl@VCOPOSIndividualRecognition@@@1@@ ; ATL::CComObject<COPOSIndividualRecognition>::`vftable'
PUBLIC	??_7?$CComObject@VCOPOSIndividualRecognition@@@ATL@@6B?$ISpecifyPropertyPagesImpl@VCOPOSIndividualRecognition@@@1@@ ; ATL::CComObject<COPOSIndividualRecognition>::`vftable'
PUBLIC	??_7?$CComObject@VCOPOSIndividualRecognition@@@ATL@@6B?$IQuickActivateImpl@VCOPOSIndividualRecognition@@@1@@ ; ATL::CComObject<COPOSIndividualRecognition>::`vftable'
PUBLIC	??_7?$CComObject@VCOPOSIndividualRecognition@@@ATL@@6B?$IDataObjectImpl@VCOPOSIndividualRecognition@@@1@@ ; ATL::CComObject<COPOSIndividualRecognition>::`vftable'
PUBLIC	??_7?$CComObject@VCOPOSIndividualRecognition@@@ATL@@6B?$IProvideClassInfo2Impl@$1?CLSID_OPOSIndividualRecognition@@3U_GUID@@B$1?DIID__IOPOSIndividualRecognitionEvents@@3U2@B$1?LIBID_OposIndividualRecognition_CCO@@3U2@B$00$0A@VCComTypeInfoHolder@ATL@@@1@@ ; ATL::CComObject<COPOSIndividualRecognition>::`vftable'
PUBLIC	??_7?$CComObject@VCOPOSIndividualRecognition@@@ATL@@6B?$IObjectSafetyImpl@VCOPOSIndividualRecognition@@$02@1@@ ; ATL::CComObject<COPOSIndividualRecognition>::`vftable'
PUBLIC	??_7?$CComObject@VCOPOSIndividualRecognition@@@ATL@@6B?$IPropertyNotifySinkCP@VCOPOSIndividualRecognition@@VCComDynamicUnkArray@ATL@@@1@@ ; ATL::CComObject<COPOSIndividualRecognition>::`vftable'
PUBLIC	??_7?$CComObject@VCOPOSIndividualRecognition@@@ATL@@6B?$CProxy_IOPOSEvents@VCOPOSIndividualRecognition@@@@@ ; ATL::CComObject<COPOSIndividualRecognition>::`vftable'
PUBLIC	??_C@_1GI@CMBOLMBG@?$AA?$CK?$AAF?$AAi?$AAr?$AAe?$AAT?$AAh?$AAe?$AAE?$AAv?$AAe?$AAn?$AAt?$AA?3?$AA?5@ ; `string'
PUBLIC	??_C@_1BK@NHECDDNK@?$AAm?$AA_?$AAp?$AAD?$AAa?$AAt?$AAa?$AA?5?$AA?$DN?$AA?$DN?$AA?5?$AA0@ ; `string'
PUBLIC	?wc@?1??GetWndClassInfo@?$CWindowImpl@VCOPOSIndividualRecognition@@VCWindow@ATL@@V?$CWinTraits@$0FGAAAAAA@$0A@@3@@ATL@@SAAEAU_ATL_WNDCLASSINFOW@3@XZ@4U43@A ; `ATL::CWindowImpl<COPOSIndividualRecognition,ATL::CWindow,ATL::CWinTraits<1442840576,0> >::GetWndClassInfo'::`2'::wc
PUBLIC	??_C@_1BE@ENNDGLJC@?$AA_?$AAC?$AAC?$AAo?$AAm?$AAE?$AAn?$AAu?$AAm@ ; `string'
PUBLIC	?_entries@?1??_GetEntries@?$CComEnum@UIEnumConnectionPoints@@$1?_GUID_b196b285_bab4_101a_b69c_00aa00341d07@@3U__s_GUID@@BPEAUIConnectionPoint@@V?$_CopyInterface@UIConnectionPoint@@@ATL@@VCComSingleThreadModel@6@@ATL@@SAPEBU_ATL_INTMAP_ENTRY@3@XZ@4QBU43@B ; `ATL::CComEnum<IEnumConnectionPoints,&_GUID_b196b285_bab4_101a_b69c_00aa00341d07,IConnectionPoint *,ATL::_CopyInterface<IConnectionPoint>,ATL::CComSingleThreadModel>::_GetEntries'::`2'::_entries
PUBLIC	_GUID_00020412_0000_0000_c000_000000000046
PUBLIC	_GUID_00020401_0000_0000_c000_000000000046
PUBLIC	??_C@_1HK@LKOJNIEL@?$AAE?$AAR?$AAR?$AAO?$AAR?$AA?5?$AA?3?$AA?5?$AAI?$AAn?$AAv?$AAa?$AAl?$AAi?$AAd@ ; `string'
PUBLIC	??_C@_1JG@LLDBHFHF@?$AAE?$AAR?$AAR?$AAO?$AAR?$AA?5?$AA?3?$AA?5?$AAU?$AAn?$AAa?$AAb?$AAl?$AAe?$AA?5@ ; `string'
PUBLIC	??_C@_1BG@LDIEAJMA@?$AAp?$AAP?$AAr?$AAo?$AAc?$AA?5?$AA?$CB?$AA?$DN?$AA?5?$AA0@ ; `string'
PUBLIC	??_C@_1HG@EHFNCEAN@?$AAE?$AAR?$AAR?$AAO?$AAR?$AA?5?$AA?3?$AA?5?$AAC?$AAo?$AAu?$AAl?$AAd?$AA?5?$AAn@ ; `string'
PUBLIC	??_C@_1CC@GCJALPHP@?$AAp?$AA?9?$AA?$DO?$AAp?$AAW?$AAn?$AAd?$AAP?$AAr?$AAo?$AAc?$AA?5?$AA?$CB?$AA?$DN?$AA?5@ ; `string'
PUBLIC	??_7?$CComObject@V?$CComEnum@UIEnumConnections@@$1?_GUID_b196b287_bab4_101a_b69c_00aa00341d07@@3U__s_GUID@@BUtagCONNECTDATA@@V?$_Copy@UtagCONNECTDATA@@@ATL@@VCComSingleThreadModel@6@@ATL@@@ATL@@6B@ ; ATL::CComObject<ATL::CComEnum<IEnumConnections,&_GUID_b196b287_bab4_101a_b69c_00aa00341d07,tagCONNECTDATA,ATL::_Copy<tagCONNECTDATA>,ATL::CComSingleThreadModel> >::`vftable'
PUBLIC	?_entries@?1??_GetEntries@?$CComEnum@UIEnumConnections@@$1?_GUID_b196b287_bab4_101a_b69c_00aa00341d07@@3U__s_GUID@@BUtagCONNECTDATA@@V?$_Copy@UtagCONNECTDATA@@@ATL@@VCComSingleThreadModel@6@@ATL@@SAPEBU_ATL_INTMAP_ENTRY@3@XZ@4QBU43@B ; `ATL::CComEnum<IEnumConnections,&_GUID_b196b287_bab4_101a_b69c_00aa00341d07,tagCONNECTDATA,ATL::_Copy<tagCONNECTDATA>,ATL::CComSingleThreadModel>::_GetEntries'::`2'::_entries
EXTRN	_purecall:PROC
EXTRN	??3@YAXPEAX_K@Z:PROC				; operator delete
EXTRN	??_V@YAXPEAX@Z:PROC				; operator delete[]
EXTRN	??_V@YAXPEAX_K@Z:PROC				; operator delete[]
EXTRN	atexit:PROC
EXTRN	__report_rangecheckfailure:PROC
EXTRN	_Init_thread_header:PROC
EXTRN	_Init_thread_footer:PROC
EXTRN	_invalid_parameter_noinfo:PROC
EXTRN	_errno:PROC
EXTRN	calloc:PROC
EXTRN	free:PROC
EXTRN	malloc:PROC
EXTRN	_recalloc:PROC
EXTRN	??2@YAPEAX_KAEBUnothrow_t@std@@@Z:PROC		; operator new
EXTRN	??_U@YAPEAX_KAEBUnothrow_t@std@@@Z:PROC		; operator new[]
EXTRN	_resetstkoflw:PROC
EXTRN	_CrtDbgReportW:PROC
EXTRN	memcmp:PROC
EXTRN	memcpy:PROC
EXTRN	memset:PROC
EXTRN	wcsstr:PROC
EXTRN	wcscat_s:PROC
EXTRN	wcscpy_s:PROC
EXTRN	wcsncpy_s:PROC
EXTRN	wcslen:PROC
EXTRN	__imp_EncodePointer:PROC
EXTRN	__imp_DecodePointer:PROC
EXTRN	__imp_RaiseException:PROC
EXTRN	__imp_GetLastError:PROC
EXTRN	__imp_SetLastError:PROC
EXTRN	__imp_EnterCriticalSection:PROC
EXTRN	__imp_LeaveCriticalSection:PROC
EXTRN	__imp_InitializeCriticalSectionEx:PROC
EXTRN	__imp_DeleteCriticalSection:PROC
EXTRN	__imp_ResetEvent:PROC
EXTRN	__imp_ReleaseMutex:PROC
EXTRN	__imp_WaitForSingleObject:PROC
EXTRN	__imp_Sleep:PROC
EXTRN	__imp_GetCurrentThreadId:PROC
EXTRN	__imp_DisableThreadLibraryCalls:PROC
EXTRN	__imp_FreeLibrary:PROC
EXTRN	__imp_GetModuleFileNameW:PROC
EXTRN	__imp_GetModuleHandleW:PROC
EXTRN	__imp_GetProcAddress:PROC
EXTRN	__imp_LoadLibraryExW:PROC
EXTRN	__imp_LoadResource:PROC
EXTRN	__imp_SizeofResource:PROC
EXTRN	__imp_FindResourceW:PROC
EXTRN	__imp_GlobalAlloc:PROC
EXTRN	__imp_GlobalUnlock:PROC
EXTRN	__imp_GlobalLock:PROC
EXTRN	__imp_MulDiv:PROC
EXTRN	__imp_lstrcmpiW:PROC
EXTRN	__imp_CloseMetaFile:PROC
EXTRN	__imp_CreateDCW:PROC
EXTRN	__imp_CreateMetaFileW:PROC
EXTRN	__imp_CreateRectRgnIndirect:PROC
EXTRN	__imp_DeleteDC:PROC
EXTRN	__imp_DeleteMetaFile:PROC
EXTRN	__imp_GetDeviceCaps:PROC
EXTRN	__imp_RestoreDC:PROC
EXTRN	__imp_SaveDC:PROC
EXTRN	__imp_SetMapMode:PROC
EXTRN	__imp_LPtoDP:PROC
EXTRN	__imp_SetViewportOrgEx:PROC
EXTRN	__imp_SetWindowExtEx:PROC
EXTRN	__imp_SetWindowOrgEx:PROC
EXTRN	__imp_PostMessageW:PROC
EXTRN	__imp_DefWindowProcW:PROC
EXTRN	__imp_CallWindowProcW:PROC
EXTRN	__imp_UnregisterClassW:PROC
EXTRN	__imp_RegisterClassExW:PROC
EXTRN	__imp_GetClassInfoExW:PROC
EXTRN	__imp_CreateWindowExW:PROC
EXTRN	__imp_IsWindow:PROC
EXTRN	__imp_IsChild:PROC
EXTRN	__imp_DestroyWindow:PROC
EXTRN	__imp_ShowWindow:PROC
EXTRN	__imp_SetWindowPos:PROC
EXTRN	__imp_CharNextW:PROC
EXTRN	__imp_SetFocus:PROC
EXTRN	__imp_GetFocus:PROC
EXTRN	__imp_GetKeyState:PROC
EXTRN	__imp_GetDC:PROC
EXTRN	__imp_ReleaseDC:PROC
EXTRN	__imp_BeginPaint:PROC
EXTRN	__imp_EndPaint:PROC
EXTRN	__imp_SetWindowRgn:PROC
EXTRN	__imp_InvalidateRect:PROC
EXTRN	__imp_GetClientRect:PROC
EXTRN	__imp_IntersectRect:PROC
EXTRN	__imp_UnionRect:PROC
EXTRN	__imp_OffsetRect:PROC
EXTRN	__imp_EqualRect:PROC
EXTRN	__imp_PtInRect:PROC
EXTRN	__imp_GetWindowLongPtrW:PROC
EXTRN	__imp_SetWindowLongPtrW:PROC
EXTRN	__imp_GetParent:PROC
EXTRN	__imp_LoadCursorW:PROC
EXTRN	__imp_MultiByteToWideChar:PROC
EXTRN	__imp_RegCloseKey:PROC
EXTRN	__imp_RegCreateKeyExW:PROC
EXTRN	__imp_RegDeleteKeyW:PROC
EXTRN	__imp_RegDeleteValueW:PROC
EXTRN	__imp_RegEnumKeyExW:PROC
EXTRN	__imp_RegOpenKeyExW:PROC
EXTRN	__imp_RegQueryInfoKeyW:PROC
EXTRN	__imp_RegSetValueExW:PROC
EXTRN	__imp_CoCreateInstance:PROC
EXTRN	__imp_StringFromGUID2:PROC
EXTRN	__imp_CoTaskMemAlloc:PROC
EXTRN	__imp_CoTaskMemRealloc:PROC
EXTRN	__imp_CoTaskMemFree:PROC
EXTRN	__imp_ReadClassStm:PROC
EXTRN	__imp_WriteClassStm:PROC
EXTRN	__imp_CreateDataAdviseHolder:PROC
EXTRN	__imp_SysAllocString:PROC
EXTRN	__imp_SysFreeString:PROC
EXTRN	__imp_SysStringLen:PROC
EXTRN	__imp_SysStringByteLen:PROC
EXTRN	__imp_SysAllocStringByteLen:PROC
EXTRN	__imp_VariantInit:PROC
EXTRN	__imp_VariantClear:PROC
EXTRN	__imp_VariantChangeType:PROC
EXTRN	__imp_VarUI4FromStr:PROC
EXTRN	__imp_LoadTypeLib:PROC
EXTRN	__imp_LoadRegTypeLib:PROC
EXTRN	__imp_RegisterTypeLib:PROC
EXTRN	__imp_UnRegisterTypeLib:PROC
EXTRN	__imp_OleSaveToStream:PROC
EXTRN	__imp_CreateOleAdviseHolder:PROC
EXTRN	__imp_OleRegGetUserType:PROC
EXTRN	__imp_OleRegGetMiscStatus:PROC
EXTRN	__imp_OleRegEnumVerbs:PROC
EXTRN	__stdio_common_vswprintf:PROC
EXTRN	__stdio_common_vswprintf_s:PROC
EXTRN	__stdio_common_vsnwprintf_s:PROC
EXTRN	__imp_OleCreatePropertyFrame:PROC
EXTRN	??_ECComModule@ATL@@UEAAPEAXI@Z:PROC		; ATL::CComModule::`vector deleting destructor'
EXTRN	??_ECRegObject@ATL@@UEAAPEAXI@Z:PROC		; ATL::CRegObject::`vector deleting destructor'
EXTRN	AtlThunk_AllocateData:PROC
EXTRN	AtlThunk_InitData:PROC
EXTRN	AtlThunk_DataToCode:PROC
EXTRN	??_ECComClassFactory@ATL@@UEAAPEAXI@Z:PROC	; ATL::CComClassFactory::`vector deleting destructor'
EXTRN	?SetLONG@OposVariant@@QEAAXJ@Z:PROC		; OposVariant::SetLONG
EXTRN	?SetLONG_Ptr@OposVariant@@QEAAXPEAJAEAJ@Z:PROC	; OposVariant::SetLONG_Ptr
EXTRN	?SetBSTR_Copy@OposVariant@@QEAAXPEA_WAEAJ@Z:PROC ; OposVariant::SetBSTR_Copy
EXTRN	?SetBSTR_InOutPtr@OposVariant@@QEAA_NPEAPEA_WAEAJ@Z:PROC ; OposVariant::SetBSTR_InOutPtr
EXTRN	??0OposDispParms@@QEAA@PEAVOposVariant@@H@Z:PROC ; OposDispParms::OposDispParms
EXTRN	??1OposDispParms@@QEAA@XZ:PROC			; OposDispParms::~OposDispParms
EXTRN	??0COPOSIndividualRecognition@@QEAA@XZ:PROC	; COPOSIndividualRecognition::COPOSIndividualRecognition
EXTRN	?FinalConstruct@COPOSIndividualRecognition@@QEAAJXZ:PROC ; COPOSIndividualRecognition::FinalConstruct
EXTRN	??1COPOSIndividualRecognition@@UEAA@XZ:PROC	; COPOSIndividualRecognition::~COPOSIndividualRecognition
EXTRN	?WriteTrace@COPOSIndividualRecognition@@QEAAXPEB_WZZ:PROC ; COPOSIndividualRecognition::WriteTrace
EXTRN	?WriteTraceString@COPOSIndividualRecognition@@QEAAXPEB_WPEA_W@Z:PROC ; COPOSIndividualRecognition::WriteTraceString
EXTRN	?FreezeEvents@COPOSIndividualRecognition@@MEAAJH@Z:PROC ; COPOSIndividualRecognition::FreezeEvents
EXTRN	?OnDraw@COPOSIndividualRecognition@@MEAAJAEAUATL_DRAWINFO@@@Z:PROC ; COPOSIndividualRecognition::OnDraw
EXTRN	?SOProcessID@COPOSIndividualRecognition@@UEAAJPEAJ@Z:PROC ; COPOSIndividualRecognition::SOProcessID
EXTRN	?get_OpenResult@COPOSIndividualRecognition@@UEAAJPEAJ@Z:PROC ; COPOSIndividualRecognition::get_OpenResult
EXTRN	?get_AutoDisable@COPOSIndividualRecognition@@UEAAJPEAF@Z:PROC ; COPOSIndividualRecognition::get_AutoDisable
EXTRN	?put_AutoDisable@COPOSIndividualRecognition@@UEAAJF@Z:PROC ; COPOSIndividualRecognition::put_AutoDisable
